
LPC1768/LocalFileSystem.elf:     file format elf32-littlearm
architecture: arm, flags 0x00000112:
EXEC_P, HAS_SYMS, D_PAGED
start address 0x00000c85


Disassembly of section .text:

00000000 <__isr_vector>:
       0:	10008000 	.word	0x10008000
       4:	00000c85 	.word	0x00000c85
       8:	00000cb5 	.word	0x00000cb5
       c:	00000cb7 	.word	0x00000cb7
      10:	00000cb9 	.word	0x00000cb9
      14:	00000cbb 	.word	0x00000cbb
      18:	00000cbd 	.word	0x00000cbd
	...
      2c:	00000cbf 	.word	0x00000cbf
      30:	00000cc1 	.word	0x00000cc1
      34:	00000000 	.word	0x00000000
      38:	00000cc3 	.word	0x00000cc3
      3c:	00000cc5 	.word	0x00000cc5
      40:	00000cc7 	.word	0x00000cc7
      44:	00000cc7 	.word	0x00000cc7
      48:	00000cc7 	.word	0x00000cc7
      4c:	00000cc7 	.word	0x00000cc7
      50:	00000cc7 	.word	0x00000cc7
      54:	00000cc7 	.word	0x00000cc7
      58:	00000cc7 	.word	0x00000cc7
      5c:	00000cc7 	.word	0x00000cc7
      60:	00000cc7 	.word	0x00000cc7
      64:	00000cc7 	.word	0x00000cc7
      68:	00000cc7 	.word	0x00000cc7
      6c:	00000cc7 	.word	0x00000cc7
      70:	00000cc7 	.word	0x00000cc7
      74:	00000cc7 	.word	0x00000cc7
      78:	00000cc7 	.word	0x00000cc7
      7c:	00000cc7 	.word	0x00000cc7
      80:	00000cc7 	.word	0x00000cc7
      84:	00000cc7 	.word	0x00000cc7
      88:	00000cc7 	.word	0x00000cc7
      8c:	00000cc7 	.word	0x00000cc7
      90:	00000cc7 	.word	0x00000cc7
      94:	00000cc7 	.word	0x00000cc7
      98:	00000cc7 	.word	0x00000cc7
      9c:	00000cc7 	.word	0x00000cc7
      a0:	00000cc7 	.word	0x00000cc7
      a4:	00000cc7 	.word	0x00000cc7
      a8:	00000cc7 	.word	0x00000cc7
      ac:	00000cc7 	.word	0x00000cc7
      b0:	00000cc7 	.word	0x00000cc7
      b4:	00000cc7 	.word	0x00000cc7
      b8:	00000cc7 	.word	0x00000cc7
      bc:	00000cc7 	.word	0x00000cc7
      c0:	00000cc7 	.word	0x00000cc7
      c4:	00000cc7 	.word	0x00000cc7
      c8:	00000cc7 	.word	0x00000cc7

000000cc <__do_global_dtors_aux>:
      cc:	b510      	push	{r4, lr}
      ce:	4c05      	ldr	r4, [pc, #20]	; (e4 <__do_global_dtors_aux+0x18>)
      d0:	7823      	ldrb	r3, [r4, #0]
      d2:	b933      	cbnz	r3, e2 <__do_global_dtors_aux+0x16>
      d4:	4b04      	ldr	r3, [pc, #16]	; (e8 <__do_global_dtors_aux+0x1c>)
      d6:	b113      	cbz	r3, de <__do_global_dtors_aux+0x12>
      d8:	4804      	ldr	r0, [pc, #16]	; (ec <__do_global_dtors_aux+0x20>)
      da:	f3af 8000 	nop.w
      de:	2301      	movs	r3, #1
      e0:	7023      	strb	r3, [r4, #0]
      e2:	bd10      	pop	{r4, pc}
      e4:	10000148 	.word	0x10000148
      e8:	00000000 	.word	0x00000000
      ec:	00004594 	.word	0x00004594

000000f0 <frame_dummy>:
      f0:	b508      	push	{r3, lr}
      f2:	4b06      	ldr	r3, [pc, #24]	; (10c <frame_dummy+0x1c>)
      f4:	b11b      	cbz	r3, fe <frame_dummy+0xe>
      f6:	4806      	ldr	r0, [pc, #24]	; (110 <frame_dummy+0x20>)
      f8:	4906      	ldr	r1, [pc, #24]	; (114 <frame_dummy+0x24>)
      fa:	f3af 8000 	nop.w
      fe:	4806      	ldr	r0, [pc, #24]	; (118 <frame_dummy+0x28>)
     100:	6803      	ldr	r3, [r0, #0]
     102:	b113      	cbz	r3, 10a <frame_dummy+0x1a>
     104:	4b05      	ldr	r3, [pc, #20]	; (11c <frame_dummy+0x2c>)
     106:	b103      	cbz	r3, 10a <frame_dummy+0x1a>
     108:	4798      	blx	r3
     10a:	bd08      	pop	{r3, pc}
     10c:	00000000 	.word	0x00000000
     110:	00004594 	.word	0x00004594
     114:	1000014c 	.word	0x1000014c
     118:	10000148 	.word	0x10000148
     11c:	00000000 	.word	0x00000000

00000120 <mbed::LocalFileSystem::~LocalFileSystem()>:
     120:	b510      	push	{r4, lr}
     122:	4b03      	ldr	r3, [pc, #12]	; (130 <mbed::LocalFileSystem::~LocalFileSystem()+0x10>)
     124:	4604      	mov	r4, r0
     126:	6003      	str	r3, [r0, #0]
     128:	f000 fa84 	bl	634 <mbed::FileSystemLike::~FileSystemLike()>
     12c:	4620      	mov	r0, r4
     12e:	bd10      	pop	{r4, pc}
     130:	000041a8 	.word	0x000041a8

00000134 <mbed::LocalFileSystem::~LocalFileSystem()>:
     134:	b510      	push	{r4, lr}
     136:	4b05      	ldr	r3, [pc, #20]	; (14c <mbed::LocalFileSystem::~LocalFileSystem()+0x18>)
     138:	4604      	mov	r4, r0
     13a:	6003      	str	r3, [r0, #0]
     13c:	f000 fa7a 	bl	634 <mbed::FileSystemLike::~FileSystemLike()>
     140:	4620      	mov	r0, r4
     142:	f001 fce2 	bl	1b0a <operator delete(void*)>
     146:	4620      	mov	r0, r4
     148:	bd10      	pop	{r4, pc}
     14a:	bf00      	nop
     14c:	000041a8 	.word	0x000041a8

00000150 <main>:
     150:	b530      	push	{r4, r5, lr}
     152:	4862      	ldr	r0, [pc, #392]	; (2dc <main+0x18c>)
     154:	b089      	sub	sp, #36	; 0x24
     156:	f002 fa25 	bl	25a4 <puts>
     15a:	4861      	ldr	r0, [pc, #388]	; (2e0 <main+0x190>)
     15c:	f002 fa22 	bl	25a4 <puts>
     160:	4860      	ldr	r0, [pc, #384]	; (2e4 <main+0x194>)
     162:	f002 fa1f 	bl	25a4 <puts>
     166:	4860      	ldr	r0, [pc, #384]	; (2e8 <main+0x198>)
     168:	4960      	ldr	r1, [pc, #384]	; (2ec <main+0x19c>)
     16a:	f001 ff17 	bl	1f9c <fopen>
     16e:	4604      	mov	r4, r0
     170:	2800      	cmp	r0, #0
     172:	f000 80ad 	beq.w	2d0 <main+0x180>
     176:	485e      	ldr	r0, [pc, #376]	; (2f0 <main+0x1a0>)
     178:	f002 fa14 	bl	25a4 <puts>
     17c:	4620      	mov	r0, r4
     17e:	495d      	ldr	r1, [pc, #372]	; (2f4 <main+0x1a4>)
     180:	f001 ff16 	bl	1fb0 <fiprintf>
     184:	2800      	cmp	r0, #0
     186:	f2c0 8091 	blt.w	2ac <main+0x15c>
     18a:	485b      	ldr	r0, [pc, #364]	; (2f8 <main+0x1a8>)
     18c:	f002 fa0a 	bl	25a4 <puts>
     190:	4620      	mov	r0, r4
     192:	f001 fd3b 	bl	1c0c <fclose>
     196:	2800      	cmp	r0, #0
     198:	d164      	bne.n	264 <main+0x114>
     19a:	4858      	ldr	r0, [pc, #352]	; (2fc <main+0x1ac>)
     19c:	f002 fa02 	bl	25a4 <puts>
     1a0:	4851      	ldr	r0, [pc, #324]	; (2e8 <main+0x198>)
     1a2:	4957      	ldr	r1, [pc, #348]	; (300 <main+0x1b0>)
     1a4:	f001 fefa 	bl	1f9c <fopen>
     1a8:	4604      	mov	r4, r0
     1aa:	2800      	cmp	r0, #0
     1ac:	f000 8084 	beq.w	2b8 <main+0x168>
     1b0:	4854      	ldr	r0, [pc, #336]	; (304 <main+0x1b4>)
     1b2:	f002 f9f7 	bl	25a4 <puts>
     1b6:	466a      	mov	r2, sp
     1b8:	4620      	mov	r0, r4
     1ba:	4953      	ldr	r1, [pc, #332]	; (308 <main+0x1b8>)
     1bc:	f001 ff0a 	bl	1fd4 <fiscanf>
     1c0:	3001      	adds	r0, #1
     1c2:	d06d      	beq.n	2a0 <main+0x150>
     1c4:	4669      	mov	r1, sp
     1c6:	4851      	ldr	r0, [pc, #324]	; (30c <main+0x1bc>)
     1c8:	f002 f974 	bl	24b4 <iprintf>
     1cc:	4668      	mov	r0, sp
     1ce:	4950      	ldr	r1, [pc, #320]	; (310 <main+0x1c0>)
     1d0:	f002 fa6f 	bl	26b2 <strcmp>
     1d4:	2800      	cmp	r0, #0
     1d6:	d15d      	bne.n	294 <main+0x144>
     1d8:	484e      	ldr	r0, [pc, #312]	; (314 <main+0x1c4>)
     1da:	f002 f9e3 	bl	25a4 <puts>
     1de:	4620      	mov	r0, r4
     1e0:	2100      	movs	r1, #0
     1e2:	2202      	movs	r2, #2
     1e4:	f001 ff0a 	bl	1ffc <fseek>
     1e8:	2800      	cmp	r0, #0
     1ea:	d14d      	bne.n	288 <main+0x138>
     1ec:	4620      	mov	r0, r4
     1ee:	f001 ffa1 	bl	2134 <ftell>
     1f2:	280c      	cmp	r0, #12
     1f4:	d004      	beq.n	200 <main+0xb0>
     1f6:	4848      	ldr	r0, [pc, #288]	; (318 <main+0x1c8>)
     1f8:	4948      	ldr	r1, [pc, #288]	; (31c <main+0x1cc>)
     1fa:	2250      	movs	r2, #80	; 0x50
     1fc:	f000 f8f8 	bl	3f0 <error>
     200:	4847      	ldr	r0, [pc, #284]	; (320 <main+0x1d0>)
     202:	f002 f9cf 	bl	25a4 <puts>
     206:	4620      	mov	r0, r4
     208:	f001 fd00 	bl	1c0c <fclose>
     20c:	2800      	cmp	r0, #0
     20e:	d135      	bne.n	27c <main+0x12c>
     210:	4844      	ldr	r0, [pc, #272]	; (324 <main+0x1d4>)
     212:	f002 f9c7 	bl	25a4 <puts>
     216:	4834      	ldr	r0, [pc, #208]	; (2e8 <main+0x198>)
     218:	f000 fcdc 	bl	bd4 <remove>
     21c:	bb40      	cbnz	r0, 270 <main+0x120>
     21e:	4842      	ldr	r0, [pc, #264]	; (328 <main+0x1d8>)
     220:	f002 f9c0 	bl	25a4 <puts>
     224:	4841      	ldr	r0, [pc, #260]	; (32c <main+0x1dc>)
     226:	f000 fced 	bl	c04 <opendir>
     22a:	4605      	mov	r5, r0
     22c:	2800      	cmp	r0, #0
     22e:	d049      	beq.n	2c4 <main+0x174>
     230:	483f      	ldr	r0, [pc, #252]	; (330 <main+0x1e0>)
     232:	f002 f9b7 	bl	25a4 <puts>
     236:	e001      	b.n	23c <main+0xec>
     238:	f002 f93c 	bl	24b4 <iprintf>
     23c:	4628      	mov	r0, r5
     23e:	f000 fd01 	bl	c44 <readdir>
     242:	4604      	mov	r4, r0
     244:	4601      	mov	r1, r0
     246:	483b      	ldr	r0, [pc, #236]	; (334 <main+0x1e4>)
     248:	2c00      	cmp	r4, #0
     24a:	d1f5      	bne.n	238 <main+0xe8>
     24c:	483a      	ldr	r0, [pc, #232]	; (338 <main+0x1e8>)
     24e:	f002 f9a9 	bl	25a4 <puts>
     252:	4628      	mov	r0, r5
     254:	f000 fcfc 	bl	c50 <closedir>
     258:	4838      	ldr	r0, [pc, #224]	; (33c <main+0x1ec>)
     25a:	f002 f9a3 	bl	25a4 <puts>
     25e:	4620      	mov	r0, r4
     260:	b009      	add	sp, #36	; 0x24
     262:	bd30      	pop	{r4, r5, pc}
     264:	4836      	ldr	r0, [pc, #216]	; (340 <main+0x1f0>)
     266:	492d      	ldr	r1, [pc, #180]	; (31c <main+0x1cc>)
     268:	222f      	movs	r2, #47	; 0x2f
     26a:	f000 f8c1 	bl	3f0 <error>
     26e:	e794      	b.n	19a <main+0x4a>
     270:	4834      	ldr	r0, [pc, #208]	; (344 <main+0x1f4>)
     272:	492a      	ldr	r1, [pc, #168]	; (31c <main+0x1cc>)
     274:	2260      	movs	r2, #96	; 0x60
     276:	f000 f8bb 	bl	3f0 <error>
     27a:	e7d0      	b.n	21e <main+0xce>
     27c:	4830      	ldr	r0, [pc, #192]	; (340 <main+0x1f0>)
     27e:	4927      	ldr	r1, [pc, #156]	; (31c <main+0x1cc>)
     280:	2257      	movs	r2, #87	; 0x57
     282:	f000 f8b5 	bl	3f0 <error>
     286:	e7c3      	b.n	210 <main+0xc0>
     288:	482f      	ldr	r0, [pc, #188]	; (348 <main+0x1f8>)
     28a:	4924      	ldr	r1, [pc, #144]	; (31c <main+0x1cc>)
     28c:	224b      	movs	r2, #75	; 0x4b
     28e:	f000 f8af 	bl	3f0 <error>
     292:	e7ab      	b.n	1ec <main+0x9c>
     294:	482d      	ldr	r0, [pc, #180]	; (34c <main+0x1fc>)
     296:	4921      	ldr	r1, [pc, #132]	; (31c <main+0x1cc>)
     298:	2244      	movs	r2, #68	; 0x44
     29a:	f000 f8a9 	bl	3f0 <error>
     29e:	e79b      	b.n	1d8 <main+0x88>
     2a0:	482b      	ldr	r0, [pc, #172]	; (350 <main+0x200>)
     2a2:	491e      	ldr	r1, [pc, #120]	; (31c <main+0x1cc>)
     2a4:	223f      	movs	r2, #63	; 0x3f
     2a6:	f000 f8a3 	bl	3f0 <error>
     2aa:	e78b      	b.n	1c4 <main+0x74>
     2ac:	4829      	ldr	r0, [pc, #164]	; (354 <main+0x204>)
     2ae:	491b      	ldr	r1, [pc, #108]	; (31c <main+0x1cc>)
     2b0:	2228      	movs	r2, #40	; 0x28
     2b2:	f000 f89d 	bl	3f0 <error>
     2b6:	e768      	b.n	18a <main+0x3a>
     2b8:	4827      	ldr	r0, [pc, #156]	; (358 <main+0x208>)
     2ba:	4918      	ldr	r1, [pc, #96]	; (31c <main+0x1cc>)
     2bc:	2238      	movs	r2, #56	; 0x38
     2be:	f000 f897 	bl	3f0 <error>
     2c2:	e775      	b.n	1b0 <main+0x60>
     2c4:	4825      	ldr	r0, [pc, #148]	; (35c <main+0x20c>)
     2c6:	4915      	ldr	r1, [pc, #84]	; (31c <main+0x1cc>)
     2c8:	226f      	movs	r2, #111	; 0x6f
     2ca:	f000 f891 	bl	3f0 <error>
     2ce:	e7af      	b.n	230 <main+0xe0>
     2d0:	4821      	ldr	r0, [pc, #132]	; (358 <main+0x208>)
     2d2:	4912      	ldr	r1, [pc, #72]	; (31c <main+0x1cc>)
     2d4:	2221      	movs	r2, #33	; 0x21
     2d6:	f000 f88b 	bl	3f0 <error>
     2da:	e74c      	b.n	176 <main+0x26>
     2dc:	00003dcc 	.word	0x00003dcc
     2e0:	00003de8 	.word	0x00003de8
     2e4:	00003e04 	.word	0x00003e04
     2e8:	00003e20 	.word	0x00003e20
     2ec:	00003e30 	.word	0x00003e30
     2f0:	00003e58 	.word	0x00003e58
     2f4:	00003e6c 	.word	0x00003e6c
     2f8:	00003e98 	.word	0x00003e98
     2fc:	00003ed8 	.word	0x00003ed8
     300:	00003ef4 	.word	0x00003ef4
     304:	00003ef8 	.word	0x00003ef8
     308:	00003f0c 	.word	0x00003f0c
     30c:	00003f30 	.word	0x00003f30
     310:	00003f54 	.word	0x00003f54
     314:	00003f84 	.word	0x00003f84
     318:	00003fec 	.word	0x00003fec
     31c:	00003e4c 	.word	0x00003e4c
     320:	00004024 	.word	0x00004024
     324:	00004044 	.word	0x00004044
     328:	00004074 	.word	0x00004074
     32c:	00004088 	.word	0x00004088
     330:	000040ac 	.word	0x000040ac
     334:	00003f4c 	.word	0x00003f4c
     338:	000040d0 	.word	0x000040d0
     33c:	000040e4 	.word	0x000040e4
     340:	00003ebc 	.word	0x00003ebc
     344:	00004058 	.word	0x00004058
     348:	00003fc4 	.word	0x00003fc4
     34c:	00003f5c 	.word	0x00003f5c
     350:	00003f14 	.word	0x00003f14
     354:	00003e7c 	.word	0x00003e7c
     358:	00003e34 	.word	0x00003e34
     35c:	00004090 	.word	0x00004090

00000360 <_GLOBAL__sub_I_local>:
     360:	b510      	push	{r4, lr}
     362:	4c07      	ldr	r4, [pc, #28]	; (380 <_GLOBAL__sub_I_local+0x20>)
     364:	4907      	ldr	r1, [pc, #28]	; (384 <_GLOBAL__sub_I_local+0x24>)
     366:	4620      	mov	r0, r4
     368:	f000 f97c 	bl	664 <mbed::FileSystemLike::FileSystemLike(char const*)>
     36c:	4b06      	ldr	r3, [pc, #24]	; (388 <_GLOBAL__sub_I_local+0x28>)
     36e:	4620      	mov	r0, r4
     370:	6023      	str	r3, [r4, #0]
     372:	4906      	ldr	r1, [pc, #24]	; (38c <_GLOBAL__sub_I_local+0x2c>)
     374:	4a06      	ldr	r2, [pc, #24]	; (390 <_GLOBAL__sub_I_local+0x30>)
     376:	e8bd 4010 	ldmia.w	sp!, {r4, lr}
     37a:	f001 bbc1 	b.w	1b00 <__aeabi_atexit>
     37e:	bf00      	nop
     380:	10000164 	.word	0x10000164
     384:	000040f8 	.word	0x000040f8
     388:	000041a8 	.word	0x000041a8
     38c:	00000121 	.word	0x00000121
     390:	100000c8 	.word	0x100000c8

00000394 <_start>:
     394:	4807      	ldr	r0, [pc, #28]	; (3b4 <_start+0x20>)
     396:	4a08      	ldr	r2, [pc, #32]	; (3b8 <_start+0x24>)
     398:	b508      	push	{r3, lr}
     39a:	1a12      	subs	r2, r2, r0
     39c:	2100      	movs	r1, #0
     39e:	f001 ffd7 	bl	2350 <memset>
     3a2:	f3af 8000 	nop.w
     3a6:	f001 ff51 	bl	224c <__libc_init_array>
     3aa:	f7ff fed1 	bl	150 <main>
     3ae:	f000 f831 	bl	414 <exit>
     3b2:	bf00      	nop
     3b4:	10000148 	.word	0x10000148
     3b8:	10000384 	.word	0x10000384

000003bc <__wrap__isatty>:
     3bc:	2802      	cmp	r0, #2
     3be:	dc01      	bgt.n	3c4 <__wrap__isatty+0x8>
     3c0:	2001      	movs	r0, #1
     3c2:	4770      	bx	lr
     3c4:	f000 bbce 	b.w	b64 <_isatty>

000003c8 <__wrap_malloc>:
     3c8:	f3ef 8305 	mrs	r3, IPSR
     3cc:	b103      	cbz	r3, 3d0 <__wrap_malloc+0x8>
     3ce:	be00      	bkpt	0x0000
     3d0:	f001 bfae 	b.w	2330 <malloc>

000003d4 <__wrap_free>:
     3d4:	f3ef 8305 	mrs	r3, IPSR
     3d8:	b103      	cbz	r3, 3dc <__wrap_free+0x8>
     3da:	be00      	bkpt	0x0000
     3dc:	f001 bfb0 	b.w	2340 <free>

000003e0 <abort>:
     3e0:	b508      	push	{r3, lr}
     3e2:	2001      	movs	r0, #1
     3e4:	f000 f816 	bl	414 <exit>

000003e8 <__cxa_pure_virtual>:
     3e8:	b508      	push	{r3, lr}
     3ea:	f7ff fff9 	bl	3e0 <abort>
     3ee:	bf00      	nop

000003f0 <error>:
     3f0:	b40f      	push	{r0, r1, r2, r3}
     3f2:	b500      	push	{lr}
     3f4:	4a06      	ldr	r2, [pc, #24]	; (410 <error+0x20>)
     3f6:	b083      	sub	sp, #12
     3f8:	ab04      	add	r3, sp, #16
     3fa:	6812      	ldr	r2, [r2, #0]
     3fc:	f853 1b04 	ldr.w	r1, [r3], #4
     400:	68d0      	ldr	r0, [r2, #12]
     402:	461a      	mov	r2, r3
     404:	9301      	str	r3, [sp, #4]
     406:	f002 fd0f 	bl	2e28 <vfiprintf>
     40a:	2001      	movs	r0, #1
     40c:	f000 f802 	bl	414 <exit>
     410:	10000134 	.word	0x10000134

00000414 <exit>:
     414:	4c0a      	ldr	r4, [pc, #40]	; (440 <exit+0x2c>)
     416:	b508      	push	{r3, lr}
     418:	6823      	ldr	r3, [r4, #0]
     41a:	4605      	mov	r5, r0
     41c:	6898      	ldr	r0, [r3, #8]
     41e:	f001 fcab 	bl	1d78 <fflush>
     422:	6823      	ldr	r3, [r4, #0]
     424:	68d8      	ldr	r0, [r3, #12]
     426:	f001 fca7 	bl	1d78 <fflush>
     42a:	f000 f80b 	bl	444 <mbed_interface_connected>
     42e:	b920      	cbnz	r0, 43a <exit+0x26>
     430:	b905      	cbnz	r5, 434 <exit+0x20>
     432:	e7fe      	b.n	432 <exit+0x1e>
     434:	f001 f8aa 	bl	158c <mbed_die>
     438:	e7fb      	b.n	432 <exit+0x1e>
     43a:	f000 f88d 	bl	558 <semihost_exit>
     43e:	e7f7      	b.n	430 <exit+0x1c>
     440:	10000134 	.word	0x10000134

00000444 <mbed_interface_connected>:
     444:	f000 b894 	b.w	570 <semihost_connected>

00000448 <semihost_open>:
     448:	b530      	push	{r4, r5, lr}
     44a:	b085      	sub	sp, #20
     44c:	9001      	str	r0, [sp, #4]
     44e:	9102      	str	r1, [sp, #8]
     450:	f002 f939 	bl	26c6 <strlen>
     454:	2401      	movs	r4, #1
     456:	9003      	str	r0, [sp, #12]
     458:	ad01      	add	r5, sp, #4
     45a:	4620      	mov	r0, r4
     45c:	4629      	mov	r1, r5
     45e:	beab      	bkpt	0x00ab
     460:	4604      	mov	r4, r0
     462:	4620      	mov	r0, r4
     464:	b005      	add	sp, #20
     466:	bd30      	pop	{r4, r5, pc}

00000468 <semihost_close>:
     468:	b530      	push	{r4, r5, lr}
     46a:	b083      	sub	sp, #12
     46c:	ac02      	add	r4, sp, #8
     46e:	f844 0d04 	str.w	r0, [r4, #-4]!
     472:	2502      	movs	r5, #2
     474:	4628      	mov	r0, r5
     476:	4621      	mov	r1, r4
     478:	beab      	bkpt	0x00ab
     47a:	4604      	mov	r4, r0
     47c:	4620      	mov	r0, r4
     47e:	b003      	add	sp, #12
     480:	bd30      	pop	{r4, r5, pc}
     482:	bf00      	nop

00000484 <semihost_write>:
     484:	b530      	push	{r4, r5, lr}
     486:	b085      	sub	sp, #20
     488:	b15a      	cbz	r2, 4a2 <semihost_write+0x1e>
     48a:	9001      	str	r0, [sp, #4]
     48c:	9102      	str	r1, [sp, #8]
     48e:	9203      	str	r2, [sp, #12]
     490:	2405      	movs	r4, #5
     492:	ad01      	add	r5, sp, #4
     494:	4620      	mov	r0, r4
     496:	4629      	mov	r1, r5
     498:	beab      	bkpt	0x00ab
     49a:	4604      	mov	r4, r0
     49c:	4620      	mov	r0, r4
     49e:	b005      	add	sp, #20
     4a0:	bd30      	pop	{r4, r5, pc}
     4a2:	4614      	mov	r4, r2
     4a4:	4620      	mov	r0, r4
     4a6:	b005      	add	sp, #20
     4a8:	bd30      	pop	{r4, r5, pc}
     4aa:	bf00      	nop

000004ac <semihost_read>:
     4ac:	b530      	push	{r4, r5, lr}
     4ae:	b085      	sub	sp, #20
     4b0:	9001      	str	r0, [sp, #4]
     4b2:	9102      	str	r1, [sp, #8]
     4b4:	9203      	str	r2, [sp, #12]
     4b6:	2406      	movs	r4, #6
     4b8:	ad01      	add	r5, sp, #4
     4ba:	4620      	mov	r0, r4
     4bc:	4629      	mov	r1, r5
     4be:	beab      	bkpt	0x00ab
     4c0:	4604      	mov	r4, r0
     4c2:	4620      	mov	r0, r4
     4c4:	b005      	add	sp, #20
     4c6:	bd30      	pop	{r4, r5, pc}

000004c8 <semihost_istty>:
     4c8:	b530      	push	{r4, r5, lr}
     4ca:	b083      	sub	sp, #12
     4cc:	ac02      	add	r4, sp, #8
     4ce:	f844 0d04 	str.w	r0, [r4, #-4]!
     4d2:	2509      	movs	r5, #9
     4d4:	4628      	mov	r0, r5
     4d6:	4621      	mov	r1, r4
     4d8:	beab      	bkpt	0x00ab
     4da:	4604      	mov	r4, r0
     4dc:	4620      	mov	r0, r4
     4de:	b003      	add	sp, #12
     4e0:	bd30      	pop	{r4, r5, pc}
     4e2:	bf00      	nop

000004e4 <semihost_seek>:
     4e4:	b530      	push	{r4, r5, lr}
     4e6:	b083      	sub	sp, #12
     4e8:	e88d 0003 	stmia.w	sp, {r0, r1}
     4ec:	240a      	movs	r4, #10
     4ee:	466d      	mov	r5, sp
     4f0:	4620      	mov	r0, r4
     4f2:	4629      	mov	r1, r5
     4f4:	beab      	bkpt	0x00ab
     4f6:	4604      	mov	r4, r0
     4f8:	4620      	mov	r0, r4
     4fa:	b003      	add	sp, #12
     4fc:	bd30      	pop	{r4, r5, pc}
     4fe:	bf00      	nop

00000500 <semihost_ensure>:
     500:	b530      	push	{r4, r5, lr}
     502:	b083      	sub	sp, #12
     504:	ac02      	add	r4, sp, #8
     506:	f844 0d04 	str.w	r0, [r4, #-4]!
     50a:	250b      	movs	r5, #11
     50c:	4628      	mov	r0, r5
     50e:	4621      	mov	r1, r4
     510:	beab      	bkpt	0x00ab
     512:	4604      	mov	r4, r0
     514:	4620      	mov	r0, r4
     516:	b003      	add	sp, #12
     518:	bd30      	pop	{r4, r5, pc}
     51a:	bf00      	nop

0000051c <semihost_flen>:
     51c:	b530      	push	{r4, r5, lr}
     51e:	b083      	sub	sp, #12
     520:	ac02      	add	r4, sp, #8
     522:	f844 0d04 	str.w	r0, [r4, #-4]!
     526:	250c      	movs	r5, #12
     528:	4628      	mov	r0, r5
     52a:	4621      	mov	r1, r4
     52c:	beab      	bkpt	0x00ab
     52e:	4604      	mov	r4, r0
     530:	4620      	mov	r0, r4
     532:	b003      	add	sp, #12
     534:	bd30      	pop	{r4, r5, pc}
     536:	bf00      	nop

00000538 <semihost_remove>:
     538:	b530      	push	{r4, r5, lr}
     53a:	b083      	sub	sp, #12
     53c:	9000      	str	r0, [sp, #0]
     53e:	f002 f8c2 	bl	26c6 <strlen>
     542:	240e      	movs	r4, #14
     544:	9001      	str	r0, [sp, #4]
     546:	466d      	mov	r5, sp
     548:	4620      	mov	r0, r4
     54a:	4629      	mov	r1, r5
     54c:	beab      	bkpt	0x00ab
     54e:	4604      	mov	r4, r0
     550:	4620      	mov	r0, r4
     552:	b003      	add	sp, #12
     554:	bd30      	pop	{r4, r5, pc}
     556:	bf00      	nop

00000558 <semihost_exit>:
     558:	b530      	push	{r4, r5, lr}
     55a:	b085      	sub	sp, #20
     55c:	2418      	movs	r4, #24
     55e:	466d      	mov	r5, sp
     560:	4620      	mov	r0, r4
     562:	4629      	mov	r1, r5
     564:	beab      	bkpt	0x00ab
     566:	4604      	mov	r4, r0
     568:	4620      	mov	r0, r4
     56a:	b005      	add	sp, #20
     56c:	bd30      	pop	{r4, r5, pc}
     56e:	bf00      	nop

00000570 <semihost_connected>:
     570:	4b02      	ldr	r3, [pc, #8]	; (57c <semihost_connected+0xc>)
     572:	6818      	ldr	r0, [r3, #0]
     574:	f000 0001 	and.w	r0, r0, #1
     578:	4770      	bx	lr
     57a:	bf00      	nop
     57c:	e000edf0 	.word	0xe000edf0

00000580 <mbed::DirHandle::telldir()>:
     580:	f04f 30ff 	mov.w	r0, #4294967295	; 0xffffffff
     584:	4770      	bx	lr
     586:	bf00      	nop

00000588 <mbed::DirHandle::seekdir(long)>:
     588:	4770      	bx	lr
     58a:	bf00      	nop

0000058c <mbed::DirHandle::~DirHandle()>:
     58c:	4b01      	ldr	r3, [pc, #4]	; (594 <mbed::DirHandle::~DirHandle()+0x8>)
     58e:	6003      	str	r3, [r0, #0]
     590:	4770      	bx	lr
     592:	bf00      	nop
     594:	00004108 	.word	0x00004108

00000598 <mbed::FileSystemLike::remove(char const*)>:
     598:	f04f 30ff 	mov.w	r0, #4294967295	; 0xffffffff
     59c:	4770      	bx	lr
     59e:	bf00      	nop

000005a0 <mbed::FileSystemLike::rename(char const*, char const*)>:
     5a0:	f04f 30ff 	mov.w	r0, #4294967295	; 0xffffffff
     5a4:	4770      	bx	lr
     5a6:	bf00      	nop

000005a8 <mbed::FileSystemLike::opendir(char const*)>:
     5a8:	2000      	movs	r0, #0
     5aa:	4770      	bx	lr

000005ac <mbed::FileSystemLike::mkdir(char const*, unsigned int)>:
     5ac:	f04f 30ff 	mov.w	r0, #4294967295	; 0xffffffff
     5b0:	4770      	bx	lr
     5b2:	bf00      	nop

000005b4 <mbed::BaseDirHandle::closedir()>:
     5b4:	b508      	push	{r3, lr}
     5b6:	b110      	cbz	r0, 5be <mbed::BaseDirHandle::closedir()+0xa>
     5b8:	6803      	ldr	r3, [r0, #0]
     5ba:	699b      	ldr	r3, [r3, #24]
     5bc:	4798      	blx	r3
     5be:	2000      	movs	r0, #0
     5c0:	bd08      	pop	{r3, pc}
     5c2:	bf00      	nop

000005c4 <mbed::BaseDirHandle::telldir()>:
     5c4:	6840      	ldr	r0, [r0, #4]
     5c6:	4770      	bx	lr

000005c8 <mbed::BaseDirHandle::seekdir(long)>:
     5c8:	6041      	str	r1, [r0, #4]
     5ca:	4770      	bx	lr

000005cc <mbed::BaseDirHandle::rewinddir()>:
     5cc:	2300      	movs	r3, #0
     5ce:	6043      	str	r3, [r0, #4]
     5d0:	4770      	bx	lr
     5d2:	bf00      	nop

000005d4 <mbed::BaseDirHandle::~BaseDirHandle()>:
     5d4:	4b01      	ldr	r3, [pc, #4]	; (5dc <mbed::BaseDirHandle::~BaseDirHandle()+0x8>)
     5d6:	6003      	str	r3, [r0, #0]
     5d8:	4770      	bx	lr
     5da:	bf00      	nop
     5dc:	00004108 	.word	0x00004108

000005e0 <mbed::DirHandle::~DirHandle()>:
     5e0:	b510      	push	{r4, lr}
     5e2:	4b03      	ldr	r3, [pc, #12]	; (5f0 <mbed::DirHandle::~DirHandle()+0x10>)
     5e4:	4604      	mov	r4, r0
     5e6:	6003      	str	r3, [r0, #0]
     5e8:	f001 fa8f 	bl	1b0a <operator delete(void*)>
     5ec:	4620      	mov	r0, r4
     5ee:	bd10      	pop	{r4, pc}
     5f0:	00004108 	.word	0x00004108

000005f4 <mbed::BaseDirHandle::~BaseDirHandle()>:
     5f4:	b510      	push	{r4, lr}
     5f6:	4b03      	ldr	r3, [pc, #12]	; (604 <mbed::BaseDirHandle::~BaseDirHandle()+0x10>)
     5f8:	4604      	mov	r4, r0
     5fa:	6003      	str	r3, [r0, #0]
     5fc:	f001 fa85 	bl	1b0a <operator delete(void*)>
     600:	4620      	mov	r0, r4
     602:	bd10      	pop	{r4, pc}
     604:	00004108 	.word	0x00004108

00000608 <mbed::BaseDirHandle::readdir()>:
     608:	b538      	push	{r3, r4, r5, lr}
     60a:	4604      	mov	r4, r0
     60c:	6840      	ldr	r0, [r0, #4]
     60e:	f001 f90b 	bl	1828 <mbed::FileBase::get(int)>
     612:	b168      	cbz	r0, 630 <mbed::BaseDirHandle::readdir()+0x28>
     614:	6863      	ldr	r3, [r4, #4]
     616:	f104 0508 	add.w	r5, r4, #8
     61a:	3301      	adds	r3, #1
     61c:	6063      	str	r3, [r4, #4]
     61e:	f001 f913 	bl	1848 <mbed::FileBase::getName()>
     622:	22ff      	movs	r2, #255	; 0xff
     624:	4601      	mov	r1, r0
     626:	4628      	mov	r0, r5
     628:	f002 f86b 	bl	2702 <strncpy>
     62c:	4628      	mov	r0, r5
     62e:	bd38      	pop	{r3, r4, r5, pc}
     630:	bd38      	pop	{r3, r4, r5, pc}
     632:	bf00      	nop

00000634 <mbed::FileSystemLike::~FileSystemLike()>:
     634:	b510      	push	{r4, lr}
     636:	4b03      	ldr	r3, [pc, #12]	; (644 <mbed::FileSystemLike::~FileSystemLike()+0x10>)
     638:	4604      	mov	r4, r0
     63a:	6003      	str	r3, [r0, #0]
     63c:	f001 f890 	bl	1760 <mbed::FileBase::~FileBase()>
     640:	4620      	mov	r0, r4
     642:	bd10      	pop	{r4, pc}
     644:	00004158 	.word	0x00004158

00000648 <mbed::FileSystemLike::~FileSystemLike()>:
     648:	b510      	push	{r4, lr}
     64a:	4b05      	ldr	r3, [pc, #20]	; (660 <mbed::FileSystemLike::~FileSystemLike()+0x18>)
     64c:	4604      	mov	r4, r0
     64e:	6003      	str	r3, [r0, #0]
     650:	f001 f886 	bl	1760 <mbed::FileBase::~FileBase()>
     654:	4620      	mov	r0, r4
     656:	f001 fa58 	bl	1b0a <operator delete(void*)>
     65a:	4620      	mov	r0, r4
     65c:	bd10      	pop	{r4, pc}
     65e:	bf00      	nop
     660:	00004158 	.word	0x00004158

00000664 <mbed::FileSystemLike::FileSystemLike(char const*)>:
     664:	b510      	push	{r4, lr}
     666:	2201      	movs	r2, #1
     668:	4604      	mov	r4, r0
     66a:	f001 f8af 	bl	17cc <mbed::FileBase::FileBase(char const*, mbed::PathType)>
     66e:	4b02      	ldr	r3, [pc, #8]	; (678 <mbed::FileSystemLike::FileSystemLike(char const*)+0x14>)
     670:	4620      	mov	r0, r4
     672:	6023      	str	r3, [r4, #0]
     674:	bd10      	pop	{r4, pc}
     676:	bf00      	nop
     678:	00004158 	.word	0x00004158

0000067c <mbed::FileSystemLike::opendir()>:
     67c:	b510      	push	{r4, lr}
     67e:	f44f 7084 	mov.w	r0, #264	; 0x108
     682:	f001 fa47 	bl	1b14 <operator new(unsigned int)>
     686:	4b06      	ldr	r3, [pc, #24]	; (6a0 <mbed::FileSystemLike::opendir()+0x24>)
     688:	2100      	movs	r1, #0
     68a:	4604      	mov	r4, r0
     68c:	6003      	str	r3, [r0, #0]
     68e:	6041      	str	r1, [r0, #4]
     690:	f44f 7280 	mov.w	r2, #256	; 0x100
     694:	3008      	adds	r0, #8
     696:	f001 fe5b 	bl	2350 <memset>
     69a:	4620      	mov	r0, r4
     69c:	bd10      	pop	{r4, pc}
     69e:	bf00      	nop
     6a0:	00004130 	.word	0x00004130

000006a4 <mbed::LocalDirHandle::closedir()>:
     6a4:	b508      	push	{r3, lr}
     6a6:	b110      	cbz	r0, 6ae <mbed::LocalDirHandle::closedir()+0xa>
     6a8:	6803      	ldr	r3, [r0, #0]
     6aa:	699b      	ldr	r3, [r3, #24]
     6ac:	4798      	blx	r3
     6ae:	2000      	movs	r0, #0
     6b0:	bd08      	pop	{r3, pc}
     6b2:	bf00      	nop

000006b4 <mbed::LocalDirHandle::rewinddir()>:
     6b4:	2300      	movs	r3, #0
     6b6:	f8c0 3128 	str.w	r3, [r0, #296]	; 0x128
     6ba:	4770      	bx	lr

000006bc <mbed::LocalDirHandle::telldir()>:
     6bc:	f8d0 0128 	ldr.w	r0, [r0, #296]	; 0x128
     6c0:	4770      	bx	lr
     6c2:	bf00      	nop

000006c4 <mbed::LocalDirHandle::seekdir(long)>:
     6c4:	f8c0 1128 	str.w	r1, [r0, #296]	; 0x128
     6c8:	4770      	bx	lr
     6ca:	bf00      	nop

000006cc <mbed::LocalDirHandle::~LocalDirHandle()>:
     6cc:	4b01      	ldr	r3, [pc, #4]	; (6d4 <mbed::LocalDirHandle::~LocalDirHandle()+0x8>)
     6ce:	6003      	str	r3, [r0, #0]
     6d0:	4770      	bx	lr
     6d2:	bf00      	nop
     6d4:	00004108 	.word	0x00004108

000006d8 <mbed::LocalDirHandle::~LocalDirHandle()>:
     6d8:	b510      	push	{r4, lr}
     6da:	4b03      	ldr	r3, [pc, #12]	; (6e8 <mbed::LocalDirHandle::~LocalDirHandle()+0x10>)
     6dc:	4604      	mov	r4, r0
     6de:	6003      	str	r3, [r0, #0]
     6e0:	f001 fa13 	bl	1b0a <operator delete(void*)>
     6e4:	4620      	mov	r0, r4
     6e6:	bd10      	pop	{r4, pc}
     6e8:	00004108 	.word	0x00004108

000006ec <mbed::LocalFileHandle::close()>:
     6ec:	b538      	push	{r3, r4, r5, lr}
     6ee:	4604      	mov	r4, r0
     6f0:	6840      	ldr	r0, [r0, #4]
     6f2:	f7ff feb9 	bl	468 <semihost_close>
     6f6:	4605      	mov	r5, r0
     6f8:	b11c      	cbz	r4, 702 <mbed::LocalFileHandle::close()+0x16>
     6fa:	6823      	ldr	r3, [r4, #0]
     6fc:	4620      	mov	r0, r4
     6fe:	6a1b      	ldr	r3, [r3, #32]
     700:	4798      	blx	r3
     702:	4628      	mov	r0, r5
     704:	bd38      	pop	{r3, r4, r5, pc}
     706:	bf00      	nop

00000708 <mbed::LocalFileHandle::write(void const*, unsigned int)>:
     708:	b538      	push	{r3, r4, r5, lr}
     70a:	4604      	mov	r4, r0
     70c:	2300      	movs	r3, #0
     70e:	6840      	ldr	r0, [r0, #4]
     710:	4615      	mov	r5, r2
     712:	f7ff feb7 	bl	484 <semihost_write>
     716:	68a3      	ldr	r3, [r4, #8]
     718:	1a28      	subs	r0, r5, r0
     71a:	4403      	add	r3, r0
     71c:	60a3      	str	r3, [r4, #8]
     71e:	bd38      	pop	{r3, r4, r5, pc}

00000720 <mbed::LocalFileHandle::read(void*, unsigned int)>:
     720:	b538      	push	{r3, r4, r5, lr}
     722:	4604      	mov	r4, r0
     724:	2300      	movs	r3, #0
     726:	6840      	ldr	r0, [r0, #4]
     728:	4615      	mov	r5, r2
     72a:	f7ff febf 	bl	4ac <semihost_read>
     72e:	68a3      	ldr	r3, [r4, #8]
     730:	1a28      	subs	r0, r5, r0
     732:	4403      	add	r3, r0
     734:	60a3      	str	r3, [r4, #8]
     736:	bd38      	pop	{r3, r4, r5, pc}

00000738 <mbed::LocalFileHandle::isatty()>:
     738:	6840      	ldr	r0, [r0, #4]
     73a:	f7ff bec5 	b.w	4c8 <semihost_istty>
     73e:	bf00      	nop

00000740 <mbed::LocalFileHandle::flen()>:
     740:	6840      	ldr	r0, [r0, #4]
     742:	f7ff beeb 	b.w	51c <semihost_flen>
     746:	bf00      	nop

00000748 <mbed::LocalFileHandle::lseek(long, int)>:
     748:	2a01      	cmp	r2, #1
     74a:	b538      	push	{r3, r4, r5, lr}
     74c:	4605      	mov	r5, r0
     74e:	460c      	mov	r4, r1
     750:	d008      	beq.n	764 <mbed::LocalFileHandle::lseek(long, int)+0x1c>
     752:	2a02      	cmp	r2, #2
     754:	d009      	beq.n	76a <mbed::LocalFileHandle::lseek(long, int)+0x22>
     756:	6868      	ldr	r0, [r5, #4]
     758:	4621      	mov	r1, r4
     75a:	f7ff fec3 	bl	4e4 <semihost_seek>
     75e:	60ac      	str	r4, [r5, #8]
     760:	4620      	mov	r0, r4
     762:	bd38      	pop	{r3, r4, r5, pc}
     764:	6883      	ldr	r3, [r0, #8]
     766:	441c      	add	r4, r3
     768:	e7f5      	b.n	756 <mbed::LocalFileHandle::lseek(long, int)+0xe>
     76a:	6840      	ldr	r0, [r0, #4]
     76c:	f7ff fed6 	bl	51c <semihost_flen>
     770:	4404      	add	r4, r0
     772:	e7f0      	b.n	756 <mbed::LocalFileHandle::lseek(long, int)+0xe>

00000774 <mbed::LocalFileHandle::fsync()>:
     774:	6840      	ldr	r0, [r0, #4]
     776:	f7ff bec3 	b.w	500 <semihost_ensure>
     77a:	bf00      	nop

0000077c <mbed::LocalFileSystem::opendir(char const*)>:
     77c:	b510      	push	{r4, lr}
     77e:	f44f 709e 	mov.w	r0, #316	; 0x13c
     782:	f001 f9c7 	bl	1b14 <operator new(unsigned int)>
     786:	4b14      	ldr	r3, [pc, #80]	; (7d8 <mbed::LocalFileSystem::opendir(char const*)+0x5c>)
     788:	4604      	mov	r4, r0
     78a:	2100      	movs	r1, #0
     78c:	f840 3b04 	str.w	r3, [r0], #4
     790:	f44f 7280 	mov.w	r2, #256	; 0x100
     794:	f001 fddc 	bl	2350 <memset>
     798:	2300      	movs	r3, #0
     79a:	f8c4 3104 	str.w	r3, [r4, #260]	; 0x104
     79e:	f8c4 3108 	str.w	r3, [r4, #264]	; 0x108
     7a2:	f8c4 310c 	str.w	r3, [r4, #268]	; 0x10c
     7a6:	f8c4 3110 	str.w	r3, [r4, #272]	; 0x110
     7aa:	f8c4 3114 	str.w	r3, [r4, #276]	; 0x114
     7ae:	f8c4 3118 	str.w	r3, [r4, #280]	; 0x118
     7b2:	f8c4 311c 	str.w	r3, [r4, #284]	; 0x11c
     7b6:	f8c4 3120 	str.w	r3, [r4, #288]	; 0x120
     7ba:	f8c4 3124 	str.w	r3, [r4, #292]	; 0x124
     7be:	f8c4 3128 	str.w	r3, [r4, #296]	; 0x128
     7c2:	f8c4 312c 	str.w	r3, [r4, #300]	; 0x12c
     7c6:	f8c4 3130 	str.w	r3, [r4, #304]	; 0x130
     7ca:	f8c4 3134 	str.w	r3, [r4, #308]	; 0x134
     7ce:	f8c4 3138 	str.w	r3, [r4, #312]	; 0x138
     7d2:	4620      	mov	r0, r4
     7d4:	bd10      	pop	{r4, pc}
     7d6:	bf00      	nop
     7d8:	00004180 	.word	0x00004180

000007dc <mbed::LocalFileSystem::remove(char const*)>:
     7dc:	4608      	mov	r0, r1
     7de:	f7ff beab 	b.w	538 <semihost_remove>
     7e2:	bf00      	nop

000007e4 <mbed::LocalFileHandle::~LocalFileHandle()>:
     7e4:	b510      	push	{r4, lr}
     7e6:	4b03      	ldr	r3, [pc, #12]	; (7f4 <mbed::LocalFileHandle::~LocalFileHandle()+0x10>)
     7e8:	4604      	mov	r4, r0
     7ea:	6003      	str	r3, [r0, #0]
     7ec:	f000 f89a 	bl	924 <mbed::FileHandle::~FileHandle()>
     7f0:	4620      	mov	r0, r4
     7f2:	bd10      	pop	{r4, pc}
     7f4:	000041d0 	.word	0x000041d0

000007f8 <mbed::LocalFileHandle::~LocalFileHandle()>:
     7f8:	b510      	push	{r4, lr}
     7fa:	4b05      	ldr	r3, [pc, #20]	; (810 <Heap_Size+0x10>)
     7fc:	4604      	mov	r4, r0
     7fe:	6003      	str	r3, [r0, #0]
     800:	f000 f890 	bl	924 <mbed::FileHandle::~FileHandle()>
     804:	4620      	mov	r0, r4
     806:	f001 f980 	bl	1b0a <operator delete(void*)>
     80a:	4620      	mov	r0, r4
     80c:	bd10      	pop	{r4, pc}
     80e:	bf00      	nop
     810:	000041d0 	.word	0x000041d0

00000814 <mbed::LocalDirHandle::readdir()>:
     814:	b5f0      	push	{r4, r5, r6, r7, lr}
     816:	4914      	ldr	r1, [pc, #80]	; (868 <mbed::LocalDirHandle::readdir()+0x54>)
     818:	b085      	sub	sp, #20
     81a:	f500 7482 	add.w	r4, r0, #260	; 0x104
     81e:	2201      	movs	r2, #1
     820:	2338      	movs	r3, #56	; 0x38
     822:	4605      	mov	r5, r0
     824:	e88d 0016 	stmia.w	sp, {r1, r2, r4}
     828:	9303      	str	r3, [sp, #12]
     82a:	f44f 7680 	mov.w	r6, #256	; 0x100
     82e:	466f      	mov	r7, sp
     830:	4630      	mov	r0, r6
     832:	4639      	mov	r1, r7
     834:	beab      	bkpt	0x00ab
     836:	4606      	mov	r6, r0
     838:	b99e      	cbnz	r6, 862 <mbed::LocalDirHandle::readdir()+0x4e>
     83a:	6827      	ldr	r7, [r4, #0]
     83c:	6866      	ldr	r6, [r4, #4]
     83e:	68a1      	ldr	r1, [r4, #8]
     840:	68e2      	ldr	r2, [r4, #12]
     842:	606f      	str	r7, [r5, #4]
     844:	60ae      	str	r6, [r5, #8]
     846:	60e9      	str	r1, [r5, #12]
     848:	612a      	str	r2, [r5, #16]
     84a:	6927      	ldr	r7, [r4, #16]
     84c:	6966      	ldr	r6, [r4, #20]
     84e:	69a1      	ldr	r1, [r4, #24]
     850:	69e2      	ldr	r2, [r4, #28]
     852:	1d2b      	adds	r3, r5, #4
     854:	4618      	mov	r0, r3
     856:	616f      	str	r7, [r5, #20]
     858:	61ae      	str	r6, [r5, #24]
     85a:	61e9      	str	r1, [r5, #28]
     85c:	622a      	str	r2, [r5, #32]
     85e:	b005      	add	sp, #20
     860:	bdf0      	pop	{r4, r5, r6, r7, pc}
     862:	2000      	movs	r0, #0
     864:	b005      	add	sp, #20
     866:	bdf0      	pop	{r4, r5, r6, r7, pc}
     868:	000041f8 	.word	0x000041f8

0000086c <mbed::posix_to_semihost_open_flags(int)>:
     86c:	0781      	lsls	r1, r0, #30
     86e:	d503      	bpl.n	878 <mbed::posix_to_semihost_open_flags(int)+0xc>
     870:	0702      	lsls	r2, r0, #28
     872:	d50e      	bpl.n	892 <mbed::posix_to_semihost_open_flags(int)+0x26>
     874:	200a      	movs	r0, #10
     876:	4770      	bx	lr
     878:	07c3      	lsls	r3, r0, #31
     87a:	d505      	bpl.n	888 <mbed::posix_to_semihost_open_flags(int)+0x1c>
     87c:	f010 0f08 	tst.w	r0, #8
     880:	bf0c      	ite	eq
     882:	2004      	moveq	r0, #4
     884:	2008      	movne	r0, #8
     886:	4770      	bx	lr
     888:	3000      	adds	r0, #0
     88a:	bf18      	it	ne
     88c:	2001      	movne	r0, #1
     88e:	4240      	negs	r0, r0
     890:	4770      	bx	lr
     892:	f410 6f80 	tst.w	r0, #1024	; 0x400
     896:	bf0c      	ite	eq
     898:	2002      	moveq	r0, #2
     89a:	2006      	movne	r0, #6
     89c:	4770      	bx	lr
     89e:	bf00      	nop

000008a0 <mbed::LocalFileSystem::open(char const*, int)>:
     8a0:	b538      	push	{r3, r4, r5, lr}
     8a2:	780b      	ldrb	r3, [r1, #0]
     8a4:	460d      	mov	r5, r1
     8a6:	b14b      	cbz	r3, 8bc <mbed::LocalFileSystem::open(char const*, int)+0x1c>
     8a8:	2b2f      	cmp	r3, #47	; 0x2f
     8aa:	d01c      	beq.n	8e6 <mbed::LocalFileSystem::open(char const*, int)+0x46>
     8ac:	460c      	mov	r4, r1
     8ae:	e001      	b.n	8b4 <mbed::LocalFileSystem::open(char const*, int)+0x14>
     8b0:	2b2f      	cmp	r3, #47	; 0x2f
     8b2:	d018      	beq.n	8e6 <mbed::LocalFileSystem::open(char const*, int)+0x46>
     8b4:	f814 3f01 	ldrb.w	r3, [r4, #1]!
     8b8:	2b00      	cmp	r3, #0
     8ba:	d1f9      	bne.n	8b0 <mbed::LocalFileSystem::open(char const*, int)+0x10>
     8bc:	4610      	mov	r0, r2
     8be:	f7ff ffd5 	bl	86c <mbed::posix_to_semihost_open_flags(int)>
     8c2:	1c42      	adds	r2, r0, #1
     8c4:	4601      	mov	r1, r0
     8c6:	d00e      	beq.n	8e6 <mbed::LocalFileSystem::open(char const*, int)+0x46>
     8c8:	4628      	mov	r0, r5
     8ca:	f7ff fdbd 	bl	448 <semihost_open>
     8ce:	1c43      	adds	r3, r0, #1
     8d0:	4604      	mov	r4, r0
     8d2:	d008      	beq.n	8e6 <mbed::LocalFileSystem::open(char const*, int)+0x46>
     8d4:	200c      	movs	r0, #12
     8d6:	f001 f91d 	bl	1b14 <operator new(unsigned int)>
     8da:	4a04      	ldr	r2, [pc, #16]	; (8ec <mbed::LocalFileSystem::open(char const*, int)+0x4c>)
     8dc:	2300      	movs	r3, #0
     8de:	e880 0014 	stmia.w	r0, {r2, r4}
     8e2:	6083      	str	r3, [r0, #8]
     8e4:	bd38      	pop	{r3, r4, r5, pc}
     8e6:	2000      	movs	r0, #0
     8e8:	bd38      	pop	{r3, r4, r5, pc}
     8ea:	bf00      	nop
     8ec:	000041d0 	.word	0x000041d0

000008f0 <mbed::FileHandle::flen()>:
     8f0:	6803      	ldr	r3, [r0, #0]
     8f2:	b570      	push	{r4, r5, r6, lr}
     8f4:	691b      	ldr	r3, [r3, #16]
     8f6:	2100      	movs	r1, #0
     8f8:	2201      	movs	r2, #1
     8fa:	4604      	mov	r4, r0
     8fc:	4798      	blx	r3
     8fe:	1c43      	adds	r3, r0, #1
     900:	4605      	mov	r5, r0
     902:	d00e      	beq.n	922 <mbed::FileHandle::flen()+0x32>
     904:	6823      	ldr	r3, [r4, #0]
     906:	4620      	mov	r0, r4
     908:	691b      	ldr	r3, [r3, #16]
     90a:	2100      	movs	r1, #0
     90c:	2202      	movs	r2, #2
     90e:	4798      	blx	r3
     910:	6823      	ldr	r3, [r4, #0]
     912:	4606      	mov	r6, r0
     914:	4629      	mov	r1, r5
     916:	691b      	ldr	r3, [r3, #16]
     918:	4620      	mov	r0, r4
     91a:	2200      	movs	r2, #0
     91c:	4798      	blx	r3
     91e:	4630      	mov	r0, r6
     920:	bd70      	pop	{r4, r5, r6, pc}
     922:	bd70      	pop	{r4, r5, r6, pc}

00000924 <mbed::FileHandle::~FileHandle()>:
     924:	4a08      	ldr	r2, [pc, #32]	; (948 <mbed::FileHandle::~FileHandle()+0x24>)
     926:	4b09      	ldr	r3, [pc, #36]	; (94c <mbed::FileHandle::~FileHandle()+0x28>)
     928:	b410      	push	{r4}
     92a:	6002      	str	r2, [r0, #0]
     92c:	f503 7180 	add.w	r1, r3, #256	; 0x100
     930:	2400      	movs	r4, #0
     932:	f853 2b04 	ldr.w	r2, [r3], #4
     936:	4282      	cmp	r2, r0
     938:	bf08      	it	eq
     93a:	f843 4c04 	streq.w	r4, [r3, #-4]
     93e:	428b      	cmp	r3, r1
     940:	d1f7      	bne.n	932 <mbed::FileHandle::~FileHandle()+0xe>
     942:	f85d 4b04 	ldr.w	r4, [sp], #4
     946:	4770      	bx	lr
     948:	00004220 	.word	0x00004220
     94c:	10000174 	.word	0x10000174

00000950 <mbed::FileHandle::~FileHandle()>:
     950:	4a0a      	ldr	r2, [pc, #40]	; (97c <mbed::FileHandle::~FileHandle()+0x2c>)
     952:	4b0b      	ldr	r3, [pc, #44]	; (980 <mbed::FileHandle::~FileHandle()+0x30>)
     954:	b510      	push	{r4, lr}
     956:	f503 7180 	add.w	r1, r3, #256	; 0x100
     95a:	4604      	mov	r4, r0
     95c:	6002      	str	r2, [r0, #0]
     95e:	2000      	movs	r0, #0
     960:	f853 2b04 	ldr.w	r2, [r3], #4
     964:	4294      	cmp	r4, r2
     966:	bf08      	it	eq
     968:	f843 0c04 	streq.w	r0, [r3, #-4]
     96c:	428b      	cmp	r3, r1
     96e:	d1f7      	bne.n	960 <mbed::FileHandle::~FileHandle()+0x10>
     970:	4620      	mov	r0, r4
     972:	f001 f8ca 	bl	1b0a <operator delete(void*)>
     976:	4620      	mov	r0, r4
     978:	bd10      	pop	{r4, pc}
     97a:	bf00      	nop
     97c:	00004220 	.word	0x00004220
     980:	10000174 	.word	0x10000174

00000984 <init_serial() [clone .part.0]>:
     984:	4802      	ldr	r0, [pc, #8]	; (990 <init_serial() [clone .part.0]+0xc>)
     986:	4903      	ldr	r1, [pc, #12]	; (994 <init_serial() [clone .part.0]+0x10>)
     988:	4a03      	ldr	r2, [pc, #12]	; (998 <init_serial() [clone .part.0]+0x14>)
     98a:	f000 bcbb 	b.w	1304 <serial_init>
     98e:	bf00      	nop
     990:	10000378 	.word	0x10000378
     994:	2009c002 	.word	0x2009c002
     998:	2009c003 	.word	0x2009c003

0000099c <_open>:
     99c:	b5f0      	push	{r4, r5, r6, r7, lr}
     99e:	460f      	mov	r7, r1
     9a0:	b085      	sub	sp, #20
     9a2:	4937      	ldr	r1, [pc, #220]	; (a80 <_open+0xe4>)
     9a4:	4606      	mov	r6, r0
     9a6:	f001 fe84 	bl	26b2 <strcmp>
     9aa:	b928      	cbnz	r0, 9b8 <_open+0x1c>
     9ac:	4b35      	ldr	r3, [pc, #212]	; (a84 <_open+0xe8>)
     9ae:	681b      	ldr	r3, [r3, #0]
     9b0:	2b00      	cmp	r3, #0
     9b2:	d043      	beq.n	a3c <_open+0xa0>
     9b4:	b005      	add	sp, #20
     9b6:	bdf0      	pop	{r4, r5, r6, r7, pc}
     9b8:	4630      	mov	r0, r6
     9ba:	4933      	ldr	r1, [pc, #204]	; (a88 <_open+0xec>)
     9bc:	f001 fe79 	bl	26b2 <strcmp>
     9c0:	b930      	cbnz	r0, 9d0 <_open+0x34>
     9c2:	4b30      	ldr	r3, [pc, #192]	; (a84 <_open+0xe8>)
     9c4:	681b      	ldr	r3, [r3, #0]
     9c6:	2b00      	cmp	r3, #0
     9c8:	d043      	beq.n	a52 <_open+0xb6>
     9ca:	2001      	movs	r0, #1
     9cc:	b005      	add	sp, #20
     9ce:	bdf0      	pop	{r4, r5, r6, r7, pc}
     9d0:	4630      	mov	r0, r6
     9d2:	492e      	ldr	r1, [pc, #184]	; (a8c <_open+0xf0>)
     9d4:	f001 fe6d 	bl	26b2 <strcmp>
     9d8:	2800      	cmp	r0, #0
     9da:	d035      	beq.n	a48 <_open+0xac>
     9dc:	4b2c      	ldr	r3, [pc, #176]	; (a90 <_open+0xf4>)
     9de:	2400      	movs	r4, #0
     9e0:	e002      	b.n	9e8 <_open+0x4c>
     9e2:	3401      	adds	r4, #1
     9e4:	2c40      	cmp	r4, #64	; 0x40
     9e6:	d03d      	beq.n	a64 <_open+0xc8>
     9e8:	f853 5f04 	ldr.w	r5, [r3, #4]!
     9ec:	2d00      	cmp	r5, #0
     9ee:	d1f8      	bne.n	9e2 <_open+0x46>
     9f0:	7833      	ldrb	r3, [r6, #0]
     9f2:	2b3a      	cmp	r3, #58	; 0x3a
     9f4:	d03d      	beq.n	a72 <_open+0xd6>
     9f6:	4631      	mov	r1, r6
     9f8:	a802      	add	r0, sp, #8
     9fa:	f000 ff29 	bl	1850 <mbed::FilePath::FilePath(char const*)>
     9fe:	a802      	add	r0, sp, #8
     a00:	f000 ff78 	bl	18f4 <mbed::FilePath::exists()>
     a04:	2800      	cmp	r0, #0
     a06:	d02d      	beq.n	a64 <_open+0xc8>
     a08:	a802      	add	r0, sp, #8
     a0a:	f000 ff5b 	bl	18c4 <mbed::FilePath::isFile()>
     a0e:	bb20      	cbnz	r0, a5a <_open+0xbe>
     a10:	a802      	add	r0, sp, #8
     a12:	f000 ff4b 	bl	18ac <mbed::FilePath::fileSystem()>
     a16:	4605      	mov	r5, r0
     a18:	b320      	cbz	r0, a64 <_open+0xc8>
     a1a:	6803      	ldr	r3, [r0, #0]
     a1c:	a802      	add	r0, sp, #8
     a1e:	689e      	ldr	r6, [r3, #8]
     a20:	f000 ff42 	bl	18a8 <mbed::FilePath::fileName()>
     a24:	463a      	mov	r2, r7
     a26:	4601      	mov	r1, r0
     a28:	4628      	mov	r0, r5
     a2a:	47b0      	blx	r6
     a2c:	4603      	mov	r3, r0
     a2e:	b1cb      	cbz	r3, a64 <_open+0xc8>
     a30:	4a18      	ldr	r2, [pc, #96]	; (a94 <_open+0xf8>)
     a32:	1ce0      	adds	r0, r4, #3
     a34:	f842 3024 	str.w	r3, [r2, r4, lsl #2]
     a38:	b005      	add	sp, #20
     a3a:	bdf0      	pop	{r4, r5, r6, r7, pc}
     a3c:	9001      	str	r0, [sp, #4]
     a3e:	f7ff ffa1 	bl	984 <init_serial() [clone .part.0]>
     a42:	9801      	ldr	r0, [sp, #4]
     a44:	b005      	add	sp, #20
     a46:	bdf0      	pop	{r4, r5, r6, r7, pc}
     a48:	4b0e      	ldr	r3, [pc, #56]	; (a84 <_open+0xe8>)
     a4a:	681b      	ldr	r3, [r3, #0]
     a4c:	b16b      	cbz	r3, a6a <_open+0xce>
     a4e:	2002      	movs	r0, #2
     a50:	e7b0      	b.n	9b4 <_open+0x18>
     a52:	f7ff ff97 	bl	984 <init_serial() [clone .part.0]>
     a56:	2001      	movs	r0, #1
     a58:	e7ac      	b.n	9b4 <_open+0x18>
     a5a:	a802      	add	r0, sp, #8
     a5c:	f000 ff3c 	bl	18d8 <mbed::FilePath::file()>
     a60:	4603      	mov	r3, r0
     a62:	e7e4      	b.n	a2e <_open+0x92>
     a64:	f04f 30ff 	mov.w	r0, #4294967295	; 0xffffffff
     a68:	e7a4      	b.n	9b4 <_open+0x18>
     a6a:	f7ff ff8b 	bl	984 <init_serial() [clone .part.0]>
     a6e:	2002      	movs	r0, #2
     a70:	e7a0      	b.n	9b4 <_open+0x18>
     a72:	4630      	mov	r0, r6
     a74:	4908      	ldr	r1, [pc, #32]	; (a98 <_open+0xfc>)
     a76:	aa02      	add	r2, sp, #8
     a78:	f001 fdac 	bl	25d4 <siscanf>
     a7c:	9b02      	ldr	r3, [sp, #8]
     a7e:	e7d6      	b.n	a2e <_open+0x92>
     a80:	000041fc 	.word	0x000041fc
     a84:	10000274 	.word	0x10000274
     a88:	0000420c 	.word	0x0000420c
     a8c:	00004204 	.word	0x00004204
     a90:	10000170 	.word	0x10000170
     a94:	10000174 	.word	0x10000174
     a98:	00004248 	.word	0x00004248

00000a9c <_close>:
     a9c:	2802      	cmp	r0, #2
     a9e:	b508      	push	{r3, lr}
     aa0:	dd0b      	ble.n	aba <_close+0x1e>
     aa2:	4b08      	ldr	r3, [pc, #32]	; (ac4 <_close+0x28>)
     aa4:	1ec2      	subs	r2, r0, #3
     aa6:	f853 0022 	ldr.w	r0, [r3, r2, lsl #2]
     aaa:	2100      	movs	r1, #0
     aac:	f843 1022 	str.w	r1, [r3, r2, lsl #2]
     ab0:	b128      	cbz	r0, abe <_close+0x22>
     ab2:	6803      	ldr	r3, [r0, #0]
     ab4:	685b      	ldr	r3, [r3, #4]
     ab6:	4798      	blx	r3
     ab8:	bd08      	pop	{r3, pc}
     aba:	2000      	movs	r0, #0
     abc:	bd08      	pop	{r3, pc}
     abe:	f04f 30ff 	mov.w	r0, #4294967295	; 0xffffffff
     ac2:	bd08      	pop	{r3, pc}
     ac4:	10000174 	.word	0x10000174

00000ac8 <_write>:
     ac8:	2802      	cmp	r0, #2
     aca:	b570      	push	{r4, r5, r6, lr}
     acc:	460c      	mov	r4, r1
     ace:	4616      	mov	r6, r2
     ad0:	dc0f      	bgt.n	af2 <_write+0x2a>
     ad2:	4b0e      	ldr	r3, [pc, #56]	; (b0c <_write+0x44>)
     ad4:	681b      	ldr	r3, [r3, #0]
     ad6:	b90b      	cbnz	r3, adc <_write+0x14>
     ad8:	f7ff ff54 	bl	984 <init_serial() [clone .part.0]>
     adc:	19a5      	adds	r5, r4, r6
     ade:	b136      	cbz	r6, aee <_write+0x26>
     ae0:	f814 1b01 	ldrb.w	r1, [r4], #1
     ae4:	480a      	ldr	r0, [pc, #40]	; (b10 <_write+0x48>)
     ae6:	f000 fb5d 	bl	11a4 <serial_putc>
     aea:	42ac      	cmp	r4, r5
     aec:	d1f8      	bne.n	ae0 <_write+0x18>
     aee:	4630      	mov	r0, r6
     af0:	bd70      	pop	{r4, r5, r6, pc}
     af2:	4b08      	ldr	r3, [pc, #32]	; (b14 <_write+0x4c>)
     af4:	3803      	subs	r0, #3
     af6:	f853 0020 	ldr.w	r0, [r3, r0, lsl #2]
     afa:	b118      	cbz	r0, b04 <_write+0x3c>
     afc:	6803      	ldr	r3, [r0, #0]
     afe:	681b      	ldr	r3, [r3, #0]
     b00:	4798      	blx	r3
     b02:	bd70      	pop	{r4, r5, r6, pc}
     b04:	f04f 30ff 	mov.w	r0, #4294967295	; 0xffffffff
     b08:	bd70      	pop	{r4, r5, r6, pc}
     b0a:	bf00      	nop
     b0c:	10000274 	.word	0x10000274
     b10:	10000378 	.word	0x10000378
     b14:	10000174 	.word	0x10000174

00000b18 <_read>:
     b18:	2802      	cmp	r0, #2
     b1a:	b510      	push	{r4, lr}
     b1c:	460c      	mov	r4, r1
     b1e:	dc09      	bgt.n	b34 <_read+0x1c>
     b20:	4b0d      	ldr	r3, [pc, #52]	; (b58 <_read+0x40>)
     b22:	681b      	ldr	r3, [r3, #0]
     b24:	b18b      	cbz	r3, b4a <_read+0x32>
     b26:	480d      	ldr	r0, [pc, #52]	; (b5c <_read+0x44>)
     b28:	f000 faf0 	bl	110c <serial_getc>
     b2c:	2301      	movs	r3, #1
     b2e:	7020      	strb	r0, [r4, #0]
     b30:	4618      	mov	r0, r3
     b32:	bd10      	pop	{r4, pc}
     b34:	4b0a      	ldr	r3, [pc, #40]	; (b60 <_read+0x48>)
     b36:	3803      	subs	r0, #3
     b38:	f853 0020 	ldr.w	r0, [r3, r0, lsl #2]
     b3c:	b140      	cbz	r0, b50 <_read+0x38>
     b3e:	6803      	ldr	r3, [r0, #0]
     b40:	689b      	ldr	r3, [r3, #8]
     b42:	4798      	blx	r3
     b44:	4603      	mov	r3, r0
     b46:	4618      	mov	r0, r3
     b48:	bd10      	pop	{r4, pc}
     b4a:	f7ff ff1b 	bl	984 <init_serial() [clone .part.0]>
     b4e:	e7ea      	b.n	b26 <_read+0xe>
     b50:	f04f 33ff 	mov.w	r3, #4294967295	; 0xffffffff
     b54:	e7ec      	b.n	b30 <_read+0x18>
     b56:	bf00      	nop
     b58:	10000274 	.word	0x10000274
     b5c:	10000378 	.word	0x10000378
     b60:	10000174 	.word	0x10000174

00000b64 <_isatty>:
     b64:	2802      	cmp	r0, #2
     b66:	b508      	push	{r3, lr}
     b68:	dd08      	ble.n	b7c <_isatty+0x18>
     b6a:	4b07      	ldr	r3, [pc, #28]	; (b88 <_isatty+0x24>)
     b6c:	3803      	subs	r0, #3
     b6e:	f853 0020 	ldr.w	r0, [r3, r0, lsl #2]
     b72:	b128      	cbz	r0, b80 <_isatty+0x1c>
     b74:	6803      	ldr	r3, [r0, #0]
     b76:	68db      	ldr	r3, [r3, #12]
     b78:	4798      	blx	r3
     b7a:	bd08      	pop	{r3, pc}
     b7c:	2001      	movs	r0, #1
     b7e:	bd08      	pop	{r3, pc}
     b80:	f04f 30ff 	mov.w	r0, #4294967295	; 0xffffffff
     b84:	bd08      	pop	{r3, pc}
     b86:	bf00      	nop
     b88:	10000174 	.word	0x10000174

00000b8c <_lseek>:
     b8c:	2802      	cmp	r0, #2
     b8e:	b508      	push	{r3, lr}
     b90:	dd08      	ble.n	ba4 <_lseek+0x18>
     b92:	4b07      	ldr	r3, [pc, #28]	; (bb0 <_lseek+0x24>)
     b94:	3803      	subs	r0, #3
     b96:	f853 0020 	ldr.w	r0, [r3, r0, lsl #2]
     b9a:	b128      	cbz	r0, ba8 <_lseek+0x1c>
     b9c:	6803      	ldr	r3, [r0, #0]
     b9e:	691b      	ldr	r3, [r3, #16]
     ba0:	4798      	blx	r3
     ba2:	bd08      	pop	{r3, pc}
     ba4:	2000      	movs	r0, #0
     ba6:	bd08      	pop	{r3, pc}
     ba8:	f04f 30ff 	mov.w	r0, #4294967295	; 0xffffffff
     bac:	bd08      	pop	{r3, pc}
     bae:	bf00      	nop
     bb0:	10000174 	.word	0x10000174

00000bb4 <_fstat>:
     bb4:	2802      	cmp	r0, #2
     bb6:	b508      	push	{r3, lr}
     bb8:	d804      	bhi.n	bc4 <_fstat+0x10>
     bba:	f44f 5300 	mov.w	r3, #8192	; 0x2000
     bbe:	604b      	str	r3, [r1, #4]
     bc0:	2000      	movs	r0, #0
     bc2:	bd08      	pop	{r3, pc}
     bc4:	f000 ffca 	bl	1b5c <__errno>
     bc8:	2309      	movs	r3, #9
     bca:	6003      	str	r3, [r0, #0]
     bcc:	f04f 30ff 	mov.w	r0, #4294967295	; 0xffffffff
     bd0:	bd08      	pop	{r3, pc}
     bd2:	bf00      	nop

00000bd4 <remove>:
     bd4:	b530      	push	{r4, r5, lr}
     bd6:	b083      	sub	sp, #12
     bd8:	4601      	mov	r1, r0
     bda:	4668      	mov	r0, sp
     bdc:	f000 fe38 	bl	1850 <mbed::FilePath::FilePath(char const*)>
     be0:	4668      	mov	r0, sp
     be2:	f000 fe63 	bl	18ac <mbed::FilePath::fileSystem()>
     be6:	4604      	mov	r4, r0
     be8:	b148      	cbz	r0, bfe <remove+0x2a>
     bea:	6803      	ldr	r3, [r0, #0]
     bec:	4668      	mov	r0, sp
     bee:	68dd      	ldr	r5, [r3, #12]
     bf0:	f000 fe5a 	bl	18a8 <mbed::FilePath::fileName()>
     bf4:	4601      	mov	r1, r0
     bf6:	4620      	mov	r0, r4
     bf8:	47a8      	blx	r5
     bfa:	b003      	add	sp, #12
     bfc:	bd30      	pop	{r4, r5, pc}
     bfe:	f04f 30ff 	mov.w	r0, #4294967295	; 0xffffffff
     c02:	e7fa      	b.n	bfa <remove+0x26>

00000c04 <opendir>:
     c04:	b530      	push	{r4, r5, lr}
     c06:	7803      	ldrb	r3, [r0, #0]
     c08:	b083      	sub	sp, #12
     c0a:	2b2f      	cmp	r3, #47	; 0x2f
     c0c:	d012      	beq.n	c34 <opendir+0x30>
     c0e:	4601      	mov	r1, r0
     c10:	4668      	mov	r0, sp
     c12:	f000 fe1d 	bl	1850 <mbed::FilePath::FilePath(char const*)>
     c16:	4668      	mov	r0, sp
     c18:	f000 fe48 	bl	18ac <mbed::FilePath::fileSystem()>
     c1c:	4604      	mov	r4, r0
     c1e:	b138      	cbz	r0, c30 <opendir+0x2c>
     c20:	6803      	ldr	r3, [r0, #0]
     c22:	4668      	mov	r0, sp
     c24:	695d      	ldr	r5, [r3, #20]
     c26:	f000 fe3f 	bl	18a8 <mbed::FilePath::fileName()>
     c2a:	4601      	mov	r1, r0
     c2c:	4620      	mov	r0, r4
     c2e:	47a8      	blx	r5
     c30:	b003      	add	sp, #12
     c32:	bd30      	pop	{r4, r5, pc}
     c34:	7843      	ldrb	r3, [r0, #1]
     c36:	2b00      	cmp	r3, #0
     c38:	d1e9      	bne.n	c0e <opendir+0xa>
     c3a:	f7ff fd1f 	bl	67c <mbed::FileSystemLike::opendir()>
     c3e:	b003      	add	sp, #12
     c40:	bd30      	pop	{r4, r5, pc}
     c42:	bf00      	nop

00000c44 <readdir>:
     c44:	b508      	push	{r3, lr}
     c46:	6803      	ldr	r3, [r0, #0]
     c48:	685b      	ldr	r3, [r3, #4]
     c4a:	4798      	blx	r3
     c4c:	bd08      	pop	{r3, pc}
     c4e:	bf00      	nop

00000c50 <closedir>:
     c50:	b508      	push	{r3, lr}
     c52:	6803      	ldr	r3, [r0, #0]
     c54:	681b      	ldr	r3, [r3, #0]
     c56:	4798      	blx	r3
     c58:	bd08      	pop	{r3, pc}
     c5a:	bf00      	nop

00000c5c <_sbrk>:
     c5c:	4a07      	ldr	r2, [pc, #28]	; (c7c <_sbrk+0x20>)
     c5e:	6813      	ldr	r3, [r2, #0]
     c60:	4418      	add	r0, r3
     c62:	f3ef 8108 	mrs	r1, MSP
     c66:	4288      	cmp	r0, r1
     c68:	d202      	bcs.n	c70 <_sbrk+0x14>
     c6a:	6010      	str	r0, [r2, #0]
     c6c:	4618      	mov	r0, r3
     c6e:	4770      	bx	lr
     c70:	4b03      	ldr	r3, [pc, #12]	; (c80 <_sbrk+0x24>)
     c72:	220c      	movs	r2, #12
     c74:	601a      	str	r2, [r3, #0]
     c76:	f04f 30ff 	mov.w	r0, #4294967295	; 0xffffffff
     c7a:	4770      	bx	lr
     c7c:	100000cc 	.word	0x100000cc
     c80:	10000380 	.word	0x10000380

00000c84 <Reset_Handler>:
     c84:	4906      	ldr	r1, [pc, #24]	; (ca0 <Reset_Handler+0x1c>)
     c86:	4a07      	ldr	r2, [pc, #28]	; (ca4 <Reset_Handler+0x20>)
     c88:	4b07      	ldr	r3, [pc, #28]	; (ca8 <Reset_Handler+0x24>)
     c8a:	429a      	cmp	r2, r3
     c8c:	bfbe      	ittt	lt
     c8e:	f851 0b04 	ldrlt.w	r0, [r1], #4
     c92:	f842 0b04 	strlt.w	r0, [r2], #4
     c96:	e7f8      	blt.n	c8a <Reset_Handler+0x6>
     c98:	4804      	ldr	r0, [pc, #16]	; (cac <Reset_Handler+0x28>)
     c9a:	4780      	blx	r0
     c9c:	4804      	ldr	r0, [pc, #16]	; (cb0 <Reset_Handler+0x2c>)
     c9e:	4700      	bx	r0
     ca0:	00004598 	.word	0x00004598
     ca4:	100000c8 	.word	0x100000c8
     ca8:	10000148 	.word	0x10000148
     cac:	000014d5 	.word	0x000014d5
     cb0:	00000395 	.word	0x00000395

00000cb4 <NMI_Handler>:
     cb4:	e7fe      	b.n	cb4 <NMI_Handler>

00000cb6 <HardFault_Handler>:
     cb6:	e7fe      	b.n	cb6 <HardFault_Handler>

00000cb8 <MemManage_Handler>:
     cb8:	e7fe      	b.n	cb8 <MemManage_Handler>

00000cba <BusFault_Handler>:
     cba:	e7fe      	b.n	cba <BusFault_Handler>

00000cbc <UsageFault_Handler>:
     cbc:	e7fe      	b.n	cbc <UsageFault_Handler>

00000cbe <SVC_Handler>:
     cbe:	e7fe      	b.n	cbe <SVC_Handler>

00000cc0 <DebugMon_Handler>:
     cc0:	e7fe      	b.n	cc0 <DebugMon_Handler>

00000cc2 <PendSV_Handler>:
     cc2:	e7fe      	b.n	cc2 <PendSV_Handler>

00000cc4 <SysTick_Handler>:
     cc4:	e7fe      	b.n	cc4 <SysTick_Handler>

00000cc6 <ADC_IRQHandler>:
     cc6:	e7fe      	b.n	cc6 <ADC_IRQHandler>

00000cc8 <uart2_irq>:
     cc8:	b508      	push	{r3, lr}
     cca:	4a15      	ldr	r2, [pc, #84]	; (d20 <uart2_irq+0x58>)
     ccc:	6893      	ldr	r3, [r2, #8]
     cce:	f3c3 0342 	ubfx	r3, r3, #1, #3
     cd2:	2b01      	cmp	r3, #1
     cd4:	d01e      	beq.n	d14 <uart2_irq+0x4c>
     cd6:	2b02      	cmp	r3, #2
     cd8:	d119      	bne.n	d0e <uart2_irq+0x46>
     cda:	4b12      	ldr	r3, [pc, #72]	; (d24 <uart2_irq+0x5c>)
     cdc:	6f59      	ldr	r1, [r3, #116]	; 0x74
     cde:	3101      	adds	r1, #1
     ce0:	d00a      	beq.n	cf8 <uart2_irq+0x30>
     ce2:	f8d3 1080 	ldr.w	r1, [r3, #128]	; 0x80
     ce6:	6f98      	ldr	r0, [r3, #120]	; 0x78
     ce8:	6008      	str	r0, [r1, #0]
     cea:	f893 10a6 	ldrb.w	r1, [r3, #166]	; 0xa6
     cee:	b919      	cbnz	r1, cf8 <uart2_irq+0x30>
     cf0:	6851      	ldr	r1, [r2, #4]
     cf2:	f021 0101 	bic.w	r1, r1, #1
     cf6:	6051      	str	r1, [r2, #4]
     cf8:	6f18      	ldr	r0, [r3, #112]	; 0x70
     cfa:	4b0a      	ldr	r3, [pc, #40]	; (d24 <uart2_irq+0x5c>)
     cfc:	b148      	cbz	r0, d12 <uart2_irq+0x4a>
     cfe:	f893 30a6 	ldrb.w	r3, [r3, #166]	; 0xa6
     d02:	b12b      	cbz	r3, d10 <uart2_irq+0x48>
     d04:	2100      	movs	r1, #0
     d06:	4a08      	ldr	r2, [pc, #32]	; (d28 <uart2_irq+0x60>)
     d08:	6813      	ldr	r3, [r2, #0]
     d0a:	4798      	blx	r3
     d0c:	bd08      	pop	{r3, pc}
     d0e:	bd08      	pop	{r3, pc}
     d10:	bd08      	pop	{r3, pc}
     d12:	bd08      	pop	{r3, pc}
     d14:	4a03      	ldr	r2, [pc, #12]	; (d24 <uart2_irq+0x5c>)
     d16:	6f10      	ldr	r0, [r2, #112]	; 0x70
     d18:	2800      	cmp	r0, #0
     d1a:	d0f9      	beq.n	d10 <uart2_irq+0x48>
     d1c:	4619      	mov	r1, r3
     d1e:	e7f2      	b.n	d06 <uart2_irq+0x3e>
     d20:	40098000 	.word	0x40098000
     d24:	1000027c 	.word	0x1000027c
     d28:	10000278 	.word	0x10000278

00000d2c <serial_irq_set_internal>:
     d2c:	b570      	push	{r4, r5, r6, lr}
     d2e:	6803      	ldr	r3, [r0, #0]
     d30:	4c29      	ldr	r4, [pc, #164]	; (dd8 <serial_irq_set_internal+0xac>)
     d32:	42a3      	cmp	r3, r4
     d34:	d049      	beq.n	dca <serial_irq_set_internal+0x9e>
     d36:	dd41      	ble.n	dbc <serial_irq_set_internal+0x90>
     d38:	4c28      	ldr	r4, [pc, #160]	; (ddc <serial_irq_set_internal+0xb0>)
     d3a:	42a3      	cmp	r3, r4
     d3c:	d02a      	beq.n	d94 <serial_irq_set_internal+0x68>
     d3e:	f504 4480 	add.w	r4, r4, #16384	; 0x4000
     d42:	42a3      	cmp	r3, r4
     d44:	d144      	bne.n	dd0 <serial_irq_set_internal+0xa4>
     d46:	4c26      	ldr	r4, [pc, #152]	; (de0 <serial_irq_set_internal+0xb4>)
     d48:	2608      	movs	r6, #8
     d4a:	bb3a      	cbnz	r2, d9c <serial_irq_set_internal+0x70>
     d4c:	2901      	cmp	r1, #1
     d4e:	d00b      	beq.n	d68 <serial_irq_set_internal+0x3c>
     d50:	6845      	ldr	r5, [r0, #4]
     d52:	4a24      	ldr	r2, [pc, #144]	; (de4 <serial_irq_set_internal+0xb8>)
     d54:	ebc5 05c5 	rsb	r5, r5, r5, lsl #3
     d58:	eb02 04c5 	add.w	r4, r2, r5, lsl #3
     d5c:	f894 5035 	ldrb.w	r5, [r4, #53]	; 0x35
     d60:	f894 2036 	ldrb.w	r2, [r4, #54]	; 0x36
     d64:	42ea      	cmn	r2, r5
     d66:	d114      	bne.n	d92 <serial_irq_set_internal+0x66>
     d68:	2201      	movs	r2, #1
     d6a:	fa02 f501 	lsl.w	r5, r2, r1
     d6e:	f1d1 0101 	rsbs	r1, r1, #1
     d72:	bf38      	it	cc
     d74:	2100      	movcc	r1, #0
     d76:	fa02 f101 	lsl.w	r1, r2, r1
     d7a:	685c      	ldr	r4, [r3, #4]
     d7c:	ea24 0405 	bic.w	r4, r4, r5
     d80:	605c      	str	r4, [r3, #4]
     d82:	6803      	ldr	r3, [r0, #0]
     d84:	685b      	ldr	r3, [r3, #4]
     d86:	4219      	tst	r1, r3
     d88:	d103      	bne.n	d92 <serial_irq_set_internal+0x66>
     d8a:	40b2      	lsls	r2, r6
     d8c:	4b16      	ldr	r3, [pc, #88]	; (de8 <serial_irq_set_internal+0xbc>)
     d8e:	f8c3 2080 	str.w	r2, [r3, #128]	; 0x80
     d92:	bd70      	pop	{r4, r5, r6, pc}
     d94:	4c15      	ldr	r4, [pc, #84]	; (dec <serial_irq_set_internal+0xc0>)
     d96:	2607      	movs	r6, #7
     d98:	2a00      	cmp	r2, #0
     d9a:	d0d7      	beq.n	d4c <serial_irq_set_internal+0x20>
     d9c:	2501      	movs	r5, #1
     d9e:	fa05 f101 	lsl.w	r1, r5, r1
     da2:	b276      	sxtb	r6, r6
     da4:	4630      	mov	r0, r6
     da6:	fa05 f606 	lsl.w	r6, r5, r6
     daa:	685a      	ldr	r2, [r3, #4]
     dac:	430a      	orrs	r2, r1
     dae:	605a      	str	r2, [r3, #4]
     db0:	4621      	mov	r1, r4
     db2:	f000 fb71 	bl	1498 <NVIC_SetVector>
     db6:	4b0c      	ldr	r3, [pc, #48]	; (de8 <serial_irq_set_internal+0xbc>)
     db8:	601e      	str	r6, [r3, #0]
     dba:	bd70      	pop	{r4, r5, r6, pc}
     dbc:	f5a4 4480 	sub.w	r4, r4, #16384	; 0x4000
     dc0:	42a3      	cmp	r3, r4
     dc2:	d105      	bne.n	dd0 <serial_irq_set_internal+0xa4>
     dc4:	4c0a      	ldr	r4, [pc, #40]	; (df0 <serial_irq_set_internal+0xc4>)
     dc6:	2605      	movs	r6, #5
     dc8:	e7bf      	b.n	d4a <serial_irq_set_internal+0x1e>
     dca:	4c0a      	ldr	r4, [pc, #40]	; (df4 <serial_irq_set_internal+0xc8>)
     dcc:	2606      	movs	r6, #6
     dce:	e7bc      	b.n	d4a <serial_irq_set_internal+0x1e>
     dd0:	2400      	movs	r4, #0
     dd2:	4626      	mov	r6, r4
     dd4:	e7b9      	b.n	d4a <serial_irq_set_internal+0x1e>
     dd6:	bf00      	nop
     dd8:	40010000 	.word	0x40010000
     ddc:	40098000 	.word	0x40098000
     de0:	00000df9 	.word	0x00000df9
     de4:	1000027c 	.word	0x1000027c
     de8:	e000e100 	.word	0xe000e100
     dec:	00000cc9 	.word	0x00000cc9
     df0:	00000e65 	.word	0x00000e65
     df4:	00000ec9 	.word	0x00000ec9

00000df8 <uart3_irq>:
     df8:	b508      	push	{r3, lr}
     dfa:	4a17      	ldr	r2, [pc, #92]	; (e58 <uart3_irq+0x60>)
     dfc:	6893      	ldr	r3, [r2, #8]
     dfe:	f3c3 0342 	ubfx	r3, r3, #1, #3
     e02:	2b01      	cmp	r3, #1
     e04:	d021      	beq.n	e4a <uart3_irq+0x52>
     e06:	2b02      	cmp	r3, #2
     e08:	d11c      	bne.n	e44 <uart3_irq+0x4c>
     e0a:	4b14      	ldr	r3, [pc, #80]	; (e5c <uart3_irq+0x64>)
     e0c:	f8d3 10ac 	ldr.w	r1, [r3, #172]	; 0xac
     e10:	3101      	adds	r1, #1
     e12:	d00b      	beq.n	e2c <uart3_irq+0x34>
     e14:	f8d3 10b8 	ldr.w	r1, [r3, #184]	; 0xb8
     e18:	f8d3 00b0 	ldr.w	r0, [r3, #176]	; 0xb0
     e1c:	6008      	str	r0, [r1, #0]
     e1e:	f893 10de 	ldrb.w	r1, [r3, #222]	; 0xde
     e22:	b919      	cbnz	r1, e2c <uart3_irq+0x34>
     e24:	6851      	ldr	r1, [r2, #4]
     e26:	f021 0101 	bic.w	r1, r1, #1
     e2a:	6051      	str	r1, [r2, #4]
     e2c:	f8d3 00a8 	ldr.w	r0, [r3, #168]	; 0xa8
     e30:	4b0a      	ldr	r3, [pc, #40]	; (e5c <uart3_irq+0x64>)
     e32:	b148      	cbz	r0, e48 <uart3_irq+0x50>
     e34:	f893 30de 	ldrb.w	r3, [r3, #222]	; 0xde
     e38:	b12b      	cbz	r3, e46 <uart3_irq+0x4e>
     e3a:	2100      	movs	r1, #0
     e3c:	4a08      	ldr	r2, [pc, #32]	; (e60 <uart3_irq+0x68>)
     e3e:	6813      	ldr	r3, [r2, #0]
     e40:	4798      	blx	r3
     e42:	bd08      	pop	{r3, pc}
     e44:	bd08      	pop	{r3, pc}
     e46:	bd08      	pop	{r3, pc}
     e48:	bd08      	pop	{r3, pc}
     e4a:	4a04      	ldr	r2, [pc, #16]	; (e5c <uart3_irq+0x64>)
     e4c:	f8d2 00a8 	ldr.w	r0, [r2, #168]	; 0xa8
     e50:	2800      	cmp	r0, #0
     e52:	d0f8      	beq.n	e46 <uart3_irq+0x4e>
     e54:	4619      	mov	r1, r3
     e56:	e7f1      	b.n	e3c <uart3_irq+0x44>
     e58:	4009c000 	.word	0x4009c000
     e5c:	1000027c 	.word	0x1000027c
     e60:	10000278 	.word	0x10000278

00000e64 <uart0_irq>:
     e64:	b508      	push	{r3, lr}
     e66:	4a15      	ldr	r2, [pc, #84]	; (ebc <uart0_irq+0x58>)
     e68:	6893      	ldr	r3, [r2, #8]
     e6a:	f3c3 0342 	ubfx	r3, r3, #1, #3
     e6e:	2b01      	cmp	r3, #1
     e70:	d01d      	beq.n	eae <uart0_irq+0x4a>
     e72:	2b02      	cmp	r3, #2
     e74:	d118      	bne.n	ea8 <uart0_irq+0x44>
     e76:	4b12      	ldr	r3, [pc, #72]	; (ec0 <uart0_irq+0x5c>)
     e78:	6859      	ldr	r1, [r3, #4]
     e7a:	3101      	adds	r1, #1
     e7c:	d009      	beq.n	e92 <uart0_irq+0x2e>
     e7e:	6919      	ldr	r1, [r3, #16]
     e80:	6898      	ldr	r0, [r3, #8]
     e82:	6008      	str	r0, [r1, #0]
     e84:	f893 1036 	ldrb.w	r1, [r3, #54]	; 0x36
     e88:	b919      	cbnz	r1, e92 <uart0_irq+0x2e>
     e8a:	6851      	ldr	r1, [r2, #4]
     e8c:	f021 0101 	bic.w	r1, r1, #1
     e90:	6051      	str	r1, [r2, #4]
     e92:	6818      	ldr	r0, [r3, #0]
     e94:	4b0a      	ldr	r3, [pc, #40]	; (ec0 <uart0_irq+0x5c>)
     e96:	b148      	cbz	r0, eac <uart0_irq+0x48>
     e98:	f893 3036 	ldrb.w	r3, [r3, #54]	; 0x36
     e9c:	b12b      	cbz	r3, eaa <uart0_irq+0x46>
     e9e:	2100      	movs	r1, #0
     ea0:	4a08      	ldr	r2, [pc, #32]	; (ec4 <uart0_irq+0x60>)
     ea2:	6813      	ldr	r3, [r2, #0]
     ea4:	4798      	blx	r3
     ea6:	bd08      	pop	{r3, pc}
     ea8:	bd08      	pop	{r3, pc}
     eaa:	bd08      	pop	{r3, pc}
     eac:	bd08      	pop	{r3, pc}
     eae:	4a04      	ldr	r2, [pc, #16]	; (ec0 <uart0_irq+0x5c>)
     eb0:	6810      	ldr	r0, [r2, #0]
     eb2:	2800      	cmp	r0, #0
     eb4:	d0f9      	beq.n	eaa <uart0_irq+0x46>
     eb6:	4619      	mov	r1, r3
     eb8:	e7f2      	b.n	ea0 <uart0_irq+0x3c>
     eba:	bf00      	nop
     ebc:	4000c000 	.word	0x4000c000
     ec0:	1000027c 	.word	0x1000027c
     ec4:	10000278 	.word	0x10000278

00000ec8 <uart1_irq>:
     ec8:	b508      	push	{r3, lr}
     eca:	4a15      	ldr	r2, [pc, #84]	; (f20 <uart1_irq+0x58>)
     ecc:	6893      	ldr	r3, [r2, #8]
     ece:	f3c3 0342 	ubfx	r3, r3, #1, #3
     ed2:	2b01      	cmp	r3, #1
     ed4:	d01d      	beq.n	f12 <uart1_irq+0x4a>
     ed6:	2b02      	cmp	r3, #2
     ed8:	d118      	bne.n	f0c <uart1_irq+0x44>
     eda:	4b12      	ldr	r3, [pc, #72]	; (f24 <uart1_irq+0x5c>)
     edc:	6bd9      	ldr	r1, [r3, #60]	; 0x3c
     ede:	3101      	adds	r1, #1
     ee0:	d009      	beq.n	ef6 <uart1_irq+0x2e>
     ee2:	6c99      	ldr	r1, [r3, #72]	; 0x48
     ee4:	6c18      	ldr	r0, [r3, #64]	; 0x40
     ee6:	6008      	str	r0, [r1, #0]
     ee8:	f893 106e 	ldrb.w	r1, [r3, #110]	; 0x6e
     eec:	b919      	cbnz	r1, ef6 <uart1_irq+0x2e>
     eee:	6851      	ldr	r1, [r2, #4]
     ef0:	f021 0101 	bic.w	r1, r1, #1
     ef4:	6051      	str	r1, [r2, #4]
     ef6:	6b98      	ldr	r0, [r3, #56]	; 0x38
     ef8:	4b0a      	ldr	r3, [pc, #40]	; (f24 <uart1_irq+0x5c>)
     efa:	b148      	cbz	r0, f10 <uart1_irq+0x48>
     efc:	f893 306e 	ldrb.w	r3, [r3, #110]	; 0x6e
     f00:	b12b      	cbz	r3, f0e <uart1_irq+0x46>
     f02:	2100      	movs	r1, #0
     f04:	4a08      	ldr	r2, [pc, #32]	; (f28 <uart1_irq+0x60>)
     f06:	6813      	ldr	r3, [r2, #0]
     f08:	4798      	blx	r3
     f0a:	bd08      	pop	{r3, pc}
     f0c:	bd08      	pop	{r3, pc}
     f0e:	bd08      	pop	{r3, pc}
     f10:	bd08      	pop	{r3, pc}
     f12:	4a04      	ldr	r2, [pc, #16]	; (f24 <uart1_irq+0x5c>)
     f14:	6b90      	ldr	r0, [r2, #56]	; 0x38
     f16:	2800      	cmp	r0, #0
     f18:	d0f9      	beq.n	f0e <uart1_irq+0x46>
     f1a:	4619      	mov	r1, r3
     f1c:	e7f2      	b.n	f04 <uart1_irq+0x3c>
     f1e:	bf00      	nop
     f20:	40010000 	.word	0x40010000
     f24:	1000027c 	.word	0x1000027c
     f28:	10000278 	.word	0x10000278

00000f2c <serial_baud>:
     f2c:	e92d 0ff0 	stmdb	sp!, {r4, r5, r6, r7, r8, r9, r10, r11}
     f30:	b08a      	sub	sp, #40	; 0x28
     f32:	9008      	str	r0, [sp, #32]
     f34:	4b71      	ldr	r3, [pc, #452]	; (10fc <serial_baud+0x1d0>)
     f36:	6800      	ldr	r0, [r0, #0]
     f38:	4298      	cmp	r0, r3
     f3a:	9009      	str	r0, [sp, #36]	; 0x24
     f3c:	f000 80cf 	beq.w	10de <serial_baud+0x1b2>
     f40:	f340 80ba 	ble.w	10b8 <serial_baud+0x18c>
     f44:	4b6e      	ldr	r3, [pc, #440]	; (1100 <serial_baud+0x1d4>)
     f46:	9a09      	ldr	r2, [sp, #36]	; 0x24
     f48:	429a      	cmp	r2, r3
     f4a:	f000 8090 	beq.w	106e <serial_baud+0x142>
     f4e:	f503 4380 	add.w	r3, r3, #16384	; 0x4000
     f52:	429a      	cmp	r2, r3
     f54:	d10c      	bne.n	f70 <serial_baud+0x44>
     f56:	4b6b      	ldr	r3, [pc, #428]	; (1104 <serial_baud+0x1d8>)
     f58:	f8d3 21ac 	ldr.w	r2, [r3, #428]	; 0x1ac
     f5c:	f422 2240 	bic.w	r2, r2, #786432	; 0xc0000
     f60:	f8c3 21ac 	str.w	r2, [r3, #428]	; 0x1ac
     f64:	f8d3 21ac 	ldr.w	r2, [r3, #428]	; 0x1ac
     f68:	f442 2280 	orr.w	r2, r2, #262144	; 0x40000
     f6c:	f8c3 21ac 	str.w	r2, [r3, #428]	; 0x1ac
     f70:	4b65      	ldr	r3, [pc, #404]	; (1108 <serial_baud+0x1dc>)
     f72:	010a      	lsls	r2, r1, #4
     f74:	681b      	ldr	r3, [r3, #0]
     f76:	9305      	str	r3, [sp, #20]
     f78:	9c05      	ldr	r4, [sp, #20]
     f7a:	fbb3 f3f2 	udiv	r3, r3, r2
     f7e:	fb02 4213 	mls	r2, r2, r3, r4
     f82:	b29b      	uxth	r3, r3
     f84:	9301      	str	r3, [sp, #4]
     f86:	2a00      	cmp	r2, #0
     f88:	f000 8094 	beq.w	10b4 <serial_baud+0x188>
     f8c:	0060      	lsls	r0, r4, #1
     f8e:	00a2      	lsls	r2, r4, #2
     f90:	f04f 0901 	mov.w	r9, #1
     f94:	2300      	movs	r3, #0
     f96:	9007      	str	r0, [sp, #28]
     f98:	9206      	str	r2, [sp, #24]
     f9a:	4680      	mov	r8, r0
     f9c:	4693      	mov	r11, r2
     f9e:	f8cd 900c 	str.w	r9, [sp, #12]
     fa2:	9104      	str	r1, [sp, #16]
     fa4:	46a2      	mov	r10, r4
     fa6:	468c      	mov	r12, r1
     fa8:	9302      	str	r3, [sp, #8]
     faa:	2200      	movs	r2, #0
     fac:	9c04      	ldr	r4, [sp, #16]
     fae:	4610      	mov	r0, r2
     fb0:	fa5f f789 	uxtb.w	r7, r9
     fb4:	f1b8 0f00 	cmp.w	r8, #0
     fb8:	bfb5      	itete	lt
     fba:	fbb8 f3f4 	udivlt	r3, r8, r4
     fbe:	fbbb f3f4 	udivge	r3, r11, r4
     fc2:	091b      	lsrlt	r3, r3, #4
     fc4:	095b      	lsrge	r3, r3, #5
     fc6:	3301      	adds	r3, #1
     fc8:	f3c3 034f 	ubfx	r3, r3, #1, #16
     fcc:	eb02 0609 	add.w	r6, r2, r9
     fd0:	2b00      	cmp	r3, #0
     fd2:	d15a      	bne.n	108a <serial_baud+0x15e>
     fd4:	2301      	movs	r3, #1
     fd6:	2800      	cmp	r0, #0
     fd8:	d15b      	bne.n	1092 <serial_baud+0x166>
     fda:	fb03 f506 	mul.w	r5, r3, r6
     fde:	00ed      	lsls	r5, r5, #3
     fe0:	fbba f5f5 	udiv	r5, r10, r5
     fe4:	3501      	adds	r5, #1
     fe6:	ebc1 0555 	rsb	r5, r1, r5, lsr #1
     fea:	2d00      	cmp	r5, #0
     fec:	bfb8      	it	lt
     fee:	426d      	neglt	r5, r5
     ff0:	4565      	cmp	r5, r12
     ff2:	da05      	bge.n	1000 <serial_baud+0xd4>
     ff4:	428d      	cmp	r5, r1
     ff6:	d04e      	beq.n	1096 <serial_baud+0x16a>
     ff8:	46ac      	mov	r12, r5
     ffa:	9002      	str	r0, [sp, #8]
     ffc:	9301      	str	r3, [sp, #4]
     ffe:	9703      	str	r7, [sp, #12]
    1000:	3201      	adds	r2, #1
    1002:	b2d0      	uxtb	r0, r2
    1004:	4287      	cmp	r7, r0
    1006:	440c      	add	r4, r1
    1008:	d8d4      	bhi.n	fb4 <serial_baud+0x88>
    100a:	f1b9 0f0f 	cmp.w	r9, #15
    100e:	f04f 0300 	mov.w	r3, #0
    1012:	d049      	beq.n	10a8 <serial_baud+0x17c>
    1014:	9a05      	ldr	r2, [sp, #20]
    1016:	9c07      	ldr	r4, [sp, #28]
    1018:	4492      	add	r10, r2
    101a:	9a04      	ldr	r2, [sp, #16]
    101c:	9806      	ldr	r0, [sp, #24]
    101e:	440a      	add	r2, r1
    1020:	f109 0901 	add.w	r9, r9, #1
    1024:	44a0      	add	r8, r4
    1026:	4483      	add	r11, r0
    1028:	9204      	str	r2, [sp, #16]
    102a:	2b00      	cmp	r3, #0
    102c:	d0bd      	beq.n	faa <serial_baud+0x7e>
    102e:	9b02      	ldr	r3, [sp, #8]
    1030:	9c03      	ldr	r4, [sp, #12]
    1032:	ea43 1004 	orr.w	r0, r3, r4, lsl #4
    1036:	b2c0      	uxtb	r0, r0
    1038:	9a09      	ldr	r2, [sp, #36]	; 0x24
    103a:	9c01      	ldr	r4, [sp, #4]
    103c:	7b13      	ldrb	r3, [r2, #12]
    103e:	f3c4 2107 	ubfx	r1, r4, #8, #8
    1042:	f043 0380 	orr.w	r3, r3, #128	; 0x80
    1046:	7313      	strb	r3, [r2, #12]
    1048:	9a08      	ldr	r2, [sp, #32]
    104a:	6813      	ldr	r3, [r2, #0]
    104c:	b2e2      	uxtb	r2, r4
    104e:	9c08      	ldr	r4, [sp, #32]
    1050:	7119      	strb	r1, [r3, #4]
    1052:	6823      	ldr	r3, [r4, #0]
    1054:	701a      	strb	r2, [r3, #0]
    1056:	6823      	ldr	r3, [r4, #0]
    1058:	f883 0028 	strb.w	r0, [r3, #40]	; 0x28
    105c:	6823      	ldr	r3, [r4, #0]
    105e:	7b1a      	ldrb	r2, [r3, #12]
    1060:	f002 027f 	and.w	r2, r2, #127	; 0x7f
    1064:	731a      	strb	r2, [r3, #12]
    1066:	b00a      	add	sp, #40	; 0x28
    1068:	e8bd 0ff0 	ldmia.w	sp!, {r4, r5, r6, r7, r8, r9, r10, r11}
    106c:	4770      	bx	lr
    106e:	4b25      	ldr	r3, [pc, #148]	; (1104 <serial_baud+0x1d8>)
    1070:	f8d3 21ac 	ldr.w	r2, [r3, #428]	; 0x1ac
    1074:	f422 3240 	bic.w	r2, r2, #196608	; 0x30000
    1078:	f8c3 21ac 	str.w	r2, [r3, #428]	; 0x1ac
    107c:	f8d3 21ac 	ldr.w	r2, [r3, #428]	; 0x1ac
    1080:	f442 3280 	orr.w	r2, r2, #65536	; 0x10000
    1084:	f8c3 21ac 	str.w	r2, [r3, #428]	; 0x1ac
    1088:	e772      	b.n	f70 <serial_baud+0x44>
    108a:	2800      	cmp	r0, #0
    108c:	d0a5      	beq.n	fda <serial_baud+0xae>
    108e:	2b01      	cmp	r3, #1
    1090:	d8a3      	bhi.n	fda <serial_baud+0xae>
    1092:	2302      	movs	r3, #2
    1094:	e7a1      	b.n	fda <serial_baud+0xae>
    1096:	f1b9 0f0f 	cmp.w	r9, #15
    109a:	9301      	str	r3, [sp, #4]
    109c:	9703      	str	r7, [sp, #12]
    109e:	9002      	str	r0, [sp, #8]
    10a0:	468c      	mov	r12, r1
    10a2:	f04f 0301 	mov.w	r3, #1
    10a6:	d1b5      	bne.n	1014 <serial_baud+0xe8>
    10a8:	9c02      	ldr	r4, [sp, #8]
    10aa:	9903      	ldr	r1, [sp, #12]
    10ac:	ea44 1001 	orr.w	r0, r4, r1, lsl #4
    10b0:	b2c0      	uxtb	r0, r0
    10b2:	e7c1      	b.n	1038 <serial_baud+0x10c>
    10b4:	2010      	movs	r0, #16
    10b6:	e7bf      	b.n	1038 <serial_baud+0x10c>
    10b8:	f5a3 4380 	sub.w	r3, r3, #16384	; 0x4000
    10bc:	4298      	cmp	r0, r3
    10be:	f47f af57 	bne.w	f70 <serial_baud+0x44>
    10c2:	4b10      	ldr	r3, [pc, #64]	; (1104 <serial_baud+0x1d8>)
    10c4:	f8d3 21a8 	ldr.w	r2, [r3, #424]	; 0x1a8
    10c8:	f022 02c0 	bic.w	r2, r2, #192	; 0xc0
    10cc:	f8c3 21a8 	str.w	r2, [r3, #424]	; 0x1a8
    10d0:	f8d3 21a8 	ldr.w	r2, [r3, #424]	; 0x1a8
    10d4:	f042 0240 	orr.w	r2, r2, #64	; 0x40
    10d8:	f8c3 21a8 	str.w	r2, [r3, #424]	; 0x1a8
    10dc:	e748      	b.n	f70 <serial_baud+0x44>
    10de:	4b09      	ldr	r3, [pc, #36]	; (1104 <serial_baud+0x1d8>)
    10e0:	f8d3 21a8 	ldr.w	r2, [r3, #424]	; 0x1a8
    10e4:	f422 7240 	bic.w	r2, r2, #768	; 0x300
    10e8:	f8c3 21a8 	str.w	r2, [r3, #424]	; 0x1a8
    10ec:	f8d3 21a8 	ldr.w	r2, [r3, #424]	; 0x1a8
    10f0:	f442 7280 	orr.w	r2, r2, #256	; 0x100
    10f4:	f8c3 21a8 	str.w	r2, [r3, #424]	; 0x1a8
    10f8:	e73a      	b.n	f70 <serial_baud+0x44>
    10fa:	bf00      	nop
    10fc:	40010000 	.word	0x40010000
    1100:	40098000 	.word	0x40098000
    1104:	400fc000 	.word	0x400fc000
    1108:	100000d0 	.word	0x100000d0

0000110c <serial_getc>:
    110c:	6802      	ldr	r2, [r0, #0]
    110e:	7d13      	ldrb	r3, [r2, #20]
    1110:	07db      	lsls	r3, r3, #31
    1112:	d5fc      	bpl.n	110e <serial_getc+0x2>
    1114:	6843      	ldr	r3, [r0, #4]
    1116:	4909      	ldr	r1, [pc, #36]	; (113c <serial_getc+0x30>)
    1118:	ebc3 03c3 	rsb	r3, r3, r3, lsl #3
    111c:	eb01 03c3 	add.w	r3, r1, r3, lsl #3
    1120:	6859      	ldr	r1, [r3, #4]
    1122:	7810      	ldrb	r0, [r2, #0]
    1124:	3101      	adds	r1, #1
    1126:	b2c0      	uxtb	r0, r0
    1128:	d007      	beq.n	113a <serial_getc+0x2e>
    112a:	6959      	ldr	r1, [r3, #20]
    112c:	3304      	adds	r3, #4
    112e:	685b      	ldr	r3, [r3, #4]
    1130:	600b      	str	r3, [r1, #0]
    1132:	6853      	ldr	r3, [r2, #4]
    1134:	f043 0301 	orr.w	r3, r3, #1
    1138:	6053      	str	r3, [r2, #4]
    113a:	4770      	bx	lr
    113c:	1000027c 	.word	0x1000027c

00001140 <serial_writable>:
    1140:	6843      	ldr	r3, [r0, #4]
    1142:	4a17      	ldr	r2, [pc, #92]	; (11a0 <serial_writable+0x60>)
    1144:	ebc3 03c3 	rsb	r3, r3, r3, lsl #3
    1148:	00db      	lsls	r3, r3, #3
    114a:	18d1      	adds	r1, r2, r3
    114c:	b410      	push	{r4}
    114e:	69cc      	ldr	r4, [r1, #28]
    1150:	3401      	adds	r4, #1
    1152:	d011      	beq.n	1178 <serial_writable+0x38>
    1154:	6b0a      	ldr	r2, [r1, #48]	; 0x30
    1156:	f101 031c 	add.w	r3, r1, #28
    115a:	685b      	ldr	r3, [r3, #4]
    115c:	6812      	ldr	r2, [r2, #0]
    115e:	421a      	tst	r2, r3
    1160:	d003      	beq.n	116a <serial_writable+0x2a>
    1162:	2000      	movs	r0, #0
    1164:	f85d 4b04 	ldr.w	r4, [sp], #4
    1168:	4770      	bx	lr
    116a:	6803      	ldr	r3, [r0, #0]
    116c:	f85d 4b04 	ldr.w	r4, [sp], #4
    1170:	7d18      	ldrb	r0, [r3, #20]
    1172:	f3c0 1080 	ubfx	r0, r0, #6, #1
    1176:	4770      	bx	lr
    1178:	6803      	ldr	r3, [r0, #0]
    117a:	7d1b      	ldrb	r3, [r3, #20]
    117c:	069b      	lsls	r3, r3, #26
    117e:	d408      	bmi.n	1192 <serial_writable+0x52>
    1180:	f891 0034 	ldrb.w	r0, [r1, #52]	; 0x34
    1184:	f85d 4b04 	ldr.w	r4, [sp], #4
    1188:	280f      	cmp	r0, #15
    118a:	bf8c      	ite	hi
    118c:	2000      	movhi	r0, #0
    118e:	2001      	movls	r0, #1
    1190:	4770      	bx	lr
    1192:	2300      	movs	r3, #0
    1194:	f881 3034 	strb.w	r3, [r1, #52]	; 0x34
    1198:	2001      	movs	r0, #1
    119a:	f85d 4b04 	ldr.w	r4, [sp], #4
    119e:	4770      	bx	lr
    11a0:	1000027c 	.word	0x1000027c

000011a4 <serial_putc>:
    11a4:	b538      	push	{r3, r4, r5, lr}
    11a6:	4604      	mov	r4, r0
    11a8:	460d      	mov	r5, r1
    11aa:	4620      	mov	r0, r4
    11ac:	f7ff ffc8 	bl	1140 <serial_writable>
    11b0:	2800      	cmp	r0, #0
    11b2:	d0fa      	beq.n	11aa <serial_putc+0x6>
    11b4:	6823      	ldr	r3, [r4, #0]
    11b6:	b2ed      	uxtb	r5, r5
    11b8:	701d      	strb	r5, [r3, #0]
    11ba:	6862      	ldr	r2, [r4, #4]
    11bc:	4b05      	ldr	r3, [pc, #20]	; (11d4 <serial_putc+0x30>)
    11be:	ebc2 02c2 	rsb	r2, r2, r2, lsl #3
    11c2:	eb03 03c2 	add.w	r3, r3, r2, lsl #3
    11c6:	f893 2034 	ldrb.w	r2, [r3, #52]	; 0x34
    11ca:	3201      	adds	r2, #1
    11cc:	f883 2034 	strb.w	r2, [r3, #52]	; 0x34
    11d0:	bd38      	pop	{r3, r4, r5, pc}
    11d2:	bf00      	nop
    11d4:	1000027c 	.word	0x1000027c

000011d8 <serial_set_flow_control>:
    11d8:	e92d 4ff0 	stmdb	sp!, {r4, r5, r6, r7, r8, r9, r10, r11, lr}
    11dc:	4604      	mov	r4, r0
    11de:	4d45      	ldr	r5, [pc, #276]	; (12f4 <serial_set_flow_control+0x11c>)
    11e0:	6800      	ldr	r0, [r0, #0]
    11e2:	b083      	sub	sp, #12
    11e4:	42a8      	cmp	r0, r5
    11e6:	460e      	mov	r6, r1
    11e8:	4690      	mov	r8, r2
    11ea:	4699      	mov	r9, r3
    11ec:	d043      	beq.n	1276 <serial_set_flow_control+0x9e>
    11ee:	6865      	ldr	r5, [r4, #4]
    11f0:	2300      	movs	r3, #0
    11f2:	9301      	str	r3, [sp, #4]
    11f4:	462a      	mov	r2, r5
    11f6:	f8df a108 	ldr.w	r10, [pc, #264]	; 1300 <serial_set_flow_control+0x128>
    11fa:	00ef      	lsls	r7, r5, #3
    11fc:	ebc2 02c2 	rsb	r2, r2, r2, lsl #3
    1200:	1b78      	subs	r0, r7, r5
    1202:	f04f 0e00 	mov.w	lr, #0
    1206:	eb0a 00c0 	add.w	r0, r10, r0, lsl #3
    120a:	eb0a 0cc2 	add.w	r12, r10, r2, lsl #3
    120e:	f04f 33ff 	mov.w	r3, #4294967295	; 0xffffffff
    1212:	61c3      	str	r3, [r0, #28]
    1214:	6043      	str	r3, [r0, #4]
    1216:	4671      	mov	r1, lr
    1218:	4672      	mov	r2, lr
    121a:	4620      	mov	r0, r4
    121c:	f88c e035 	strb.w	lr, [r12, #53]	; 0x35
    1220:	f7ff fd84 	bl	d2c <serial_irq_set_internal>
    1224:	b916      	cbnz	r6, 122c <serial_set_flow_control+0x54>
    1226:	b003      	add	sp, #12
    1228:	e8bd 8ff0 	ldmia.w	sp!, {r4, r5, r6, r7, r8, r9, r10, r11, pc}
    122c:	4932      	ldr	r1, [pc, #200]	; (12f8 <serial_set_flow_control+0x120>)
    122e:	4640      	mov	r0, r8
    1230:	f000 fa5c 	bl	16ec <pinmap_find_peripheral>
    1234:	4931      	ldr	r1, [pc, #196]	; (12fc <serial_set_flow_control+0x124>)
    1236:	4683      	mov	r11, r0
    1238:	4648      	mov	r0, r9
    123a:	f000 fa57 	bl	16ec <pinmap_find_peripheral>
    123e:	1eb2      	subs	r2, r6, #2
    1240:	2a01      	cmp	r2, #1
    1242:	d938      	bls.n	12b6 <serial_set_flow_control+0xde>
    1244:	2e01      	cmp	r6, #1
    1246:	d1ee      	bne.n	1226 <serial_set_flow_control+0x4e>
    1248:	f1b8 3fff 	cmp.w	r8, #4294967295	; 0xffffffff
    124c:	d0eb      	beq.n	1226 <serial_set_flow_control+0x4e>
    124e:	4929      	ldr	r1, [pc, #164]	; (12f4 <serial_set_flow_control+0x11c>)
    1250:	6822      	ldr	r2, [r4, #0]
    1252:	2007      	movs	r0, #7
    1254:	458b      	cmp	r11, r1
    1256:	7210      	strb	r0, [r2, #8]
    1258:	d115      	bne.n	1286 <serial_set_flow_control+0xae>
    125a:	9b01      	ldr	r3, [sp, #4]
    125c:	b19b      	cbz	r3, 1286 <serial_set_flow_control+0xae>
    125e:	7c1b      	ldrb	r3, [r3, #16]
    1260:	9a01      	ldr	r2, [sp, #4]
    1262:	4925      	ldr	r1, [pc, #148]	; (12f8 <serial_set_flow_control+0x120>)
    1264:	f043 0340 	orr.w	r3, r3, #64	; 0x40
    1268:	4640      	mov	r0, r8
    126a:	7413      	strb	r3, [r2, #16]
    126c:	b003      	add	sp, #12
    126e:	e8bd 4ff0 	ldmia.w	sp!, {r4, r5, r6, r7, r8, r9, r10, r11, lr}
    1272:	f000 ba09 	b.w	1688 <pinmap_pinout>
    1276:	7c03      	ldrb	r3, [r0, #16]
    1278:	6865      	ldr	r5, [r4, #4]
    127a:	f003 033f 	and.w	r3, r3, #63	; 0x3f
    127e:	7403      	strb	r3, [r0, #16]
    1280:	6862      	ldr	r2, [r4, #4]
    1282:	9001      	str	r0, [sp, #4]
    1284:	e7b7      	b.n	11f6 <serial_set_flow_control+0x1e>
    1286:	1b7d      	subs	r5, r7, r5
    1288:	eb0a 00c5 	add.w	r0, r10, r5, lsl #3
    128c:	4641      	mov	r1, r8
    128e:	3004      	adds	r0, #4
    1290:	2200      	movs	r2, #0
    1292:	f000 f9dd 	bl	1650 <gpio_init_out_ex>
    1296:	6862      	ldr	r2, [r4, #4]
    1298:	2501      	movs	r5, #1
    129a:	ebc2 02c2 	rsb	r2, r2, r2, lsl #3
    129e:	eb0a 03c2 	add.w	r3, r10, r2, lsl #3
    12a2:	4620      	mov	r0, r4
    12a4:	462a      	mov	r2, r5
    12a6:	2100      	movs	r1, #0
    12a8:	f883 5035 	strb.w	r5, [r3, #53]	; 0x35
    12ac:	b003      	add	sp, #12
    12ae:	e8bd 4ff0 	ldmia.w	sp!, {r4, r5, r6, r7, r8, r9, r10, r11, lr}
    12b2:	f7ff bd3b 	b.w	d2c <serial_irq_set_internal>
    12b6:	f1b9 3fff 	cmp.w	r9, #4294967295	; 0xffffffff
    12ba:	d009      	beq.n	12d0 <serial_set_flow_control+0xf8>
    12bc:	4a0d      	ldr	r2, [pc, #52]	; (12f4 <serial_set_flow_control+0x11c>)
    12be:	4290      	cmp	r0, r2
    12c0:	d00c      	beq.n	12dc <serial_set_flow_control+0x104>
    12c2:	1b78      	subs	r0, r7, r5
    12c4:	eb0a 00c0 	add.w	r0, r10, r0, lsl #3
    12c8:	4649      	mov	r1, r9
    12ca:	301c      	adds	r0, #28
    12cc:	f000 f998 	bl	1600 <gpio_init_in>
    12d0:	2e03      	cmp	r6, #3
    12d2:	d1a8      	bne.n	1226 <serial_set_flow_control+0x4e>
    12d4:	f1b8 3fff 	cmp.w	r8, #4294967295	; 0xffffffff
    12d8:	d1b9      	bne.n	124e <serial_set_flow_control+0x76>
    12da:	e7a4      	b.n	1226 <serial_set_flow_control+0x4e>
    12dc:	9b01      	ldr	r3, [sp, #4]
    12de:	2b00      	cmp	r3, #0
    12e0:	d0ef      	beq.n	12c2 <serial_set_flow_control+0xea>
    12e2:	7c1a      	ldrb	r2, [r3, #16]
    12e4:	4648      	mov	r0, r9
    12e6:	f042 0280 	orr.w	r2, r2, #128	; 0x80
    12ea:	741a      	strb	r2, [r3, #16]
    12ec:	4903      	ldr	r1, [pc, #12]	; (12fc <serial_set_flow_control+0x124>)
    12ee:	f000 f9cb 	bl	1688 <pinmap_pinout>
    12f2:	e7ed      	b.n	12d0 <serial_set_flow_control+0xf8>
    12f4:	40010000 	.word	0x40010000
    12f8:	00004258 	.word	0x00004258
    12fc:	00004354 	.word	0x00004354
    1300:	1000027c 	.word	0x1000027c

00001304 <serial_init>:
    1304:	e92d 41f0 	stmdb	sp!, {r4, r5, r6, r7, r8, lr}
    1308:	4605      	mov	r5, r0
    130a:	460f      	mov	r7, r1
    130c:	4608      	mov	r0, r1
    130e:	4959      	ldr	r1, [pc, #356]	; (1474 <serial_init+0x170>)
    1310:	4616      	mov	r6, r2
    1312:	f000 f9f9 	bl	1708 <pinmap_peripheral>
    1316:	4958      	ldr	r1, [pc, #352]	; (1478 <serial_init+0x174>)
    1318:	4604      	mov	r4, r0
    131a:	4630      	mov	r0, r6
    131c:	f000 f9f4 	bl	1708 <pinmap_peripheral>
    1320:	4601      	mov	r1, r0
    1322:	4620      	mov	r0, r4
    1324:	f000 f9d0 	bl	16c8 <pinmap_merge>
    1328:	4b54      	ldr	r3, [pc, #336]	; (147c <serial_init+0x178>)
    132a:	4604      	mov	r4, r0
    132c:	4298      	cmp	r0, r3
    132e:	6028      	str	r0, [r5, #0]
    1330:	d07f      	beq.n	1432 <serial_init+0x12e>
    1332:	d96f      	bls.n	1414 <serial_init+0x110>
    1334:	4b52      	ldr	r3, [pc, #328]	; (1480 <serial_init+0x17c>)
    1336:	4298      	cmp	r0, r3
    1338:	d04b      	beq.n	13d2 <serial_init+0xce>
    133a:	f503 4380 	add.w	r3, r3, #16384	; 0x4000
    133e:	4298      	cmp	r0, r3
    1340:	d106      	bne.n	1350 <serial_init+0x4c>
    1342:	4b50      	ldr	r3, [pc, #320]	; (1484 <serial_init+0x180>)
    1344:	f8d3 20c4 	ldr.w	r2, [r3, #196]	; 0xc4
    1348:	f042 7200 	orr.w	r2, r2, #33554432	; 0x2000000
    134c:	f8c3 20c4 	str.w	r2, [r3, #196]	; 0xc4
    1350:	2301      	movs	r3, #1
    1352:	7223      	strb	r3, [r4, #8]
    1354:	682b      	ldr	r3, [r5, #0]
    1356:	f04f 0800 	mov.w	r8, #0
    135a:	f8c3 8004 	str.w	r8, [r3, #4]
    135e:	4628      	mov	r0, r5
    1360:	f44f 5116 	mov.w	r1, #9600	; 0x2580
    1364:	f7ff fde2 	bl	f2c <serial_baud>
    1368:	682b      	ldr	r3, [r5, #0]
    136a:	2203      	movs	r2, #3
    136c:	731a      	strb	r2, [r3, #12]
    136e:	4638      	mov	r0, r7
    1370:	4940      	ldr	r1, [pc, #256]	; (1474 <serial_init+0x170>)
    1372:	f000 f989 	bl	1688 <pinmap_pinout>
    1376:	4630      	mov	r0, r6
    1378:	493f      	ldr	r1, [pc, #252]	; (1478 <serial_init+0x174>)
    137a:	f000 f985 	bl	1688 <pinmap_pinout>
    137e:	1c7a      	adds	r2, r7, #1
    1380:	d003      	beq.n	138a <serial_init+0x86>
    1382:	4638      	mov	r0, r7
    1384:	4641      	mov	r1, r8
    1386:	f000 fb05 	bl	1994 <pin_mode>
    138a:	1c73      	adds	r3, r6, #1
    138c:	d003      	beq.n	1396 <serial_init+0x92>
    138e:	4630      	mov	r0, r6
    1390:	2100      	movs	r1, #0
    1392:	f000 faff 	bl	1994 <pin_mode>
    1396:	4b39      	ldr	r3, [pc, #228]	; (147c <serial_init+0x178>)
    1398:	429c      	cmp	r4, r3
    139a:	d047      	beq.n	142c <serial_init+0x128>
    139c:	d921      	bls.n	13e2 <serial_init+0xde>
    139e:	4b38      	ldr	r3, [pc, #224]	; (1480 <serial_init+0x17c>)
    13a0:	429c      	cmp	r4, r3
    13a2:	d063      	beq.n	146c <serial_init+0x168>
    13a4:	f503 4380 	add.w	r3, r3, #16384	; 0x4000
    13a8:	429c      	cmp	r4, r3
    13aa:	d14a      	bne.n	1442 <serial_init+0x13e>
    13ac:	2303      	movs	r3, #3
    13ae:	606b      	str	r3, [r5, #4]
    13b0:	4935      	ldr	r1, [pc, #212]	; (1488 <serial_init+0x184>)
    13b2:	ebc3 03c3 	rsb	r3, r3, r3, lsl #3
    13b6:	f04f 34ff 	mov.w	r4, #4294967295	; 0xffffffff
    13ba:	4628      	mov	r0, r5
    13bc:	eb01 05c3 	add.w	r5, r1, r3, lsl #3
    13c0:	4622      	mov	r2, r4
    13c2:	4623      	mov	r3, r4
    13c4:	606c      	str	r4, [r5, #4]
    13c6:	61ec      	str	r4, [r5, #28]
    13c8:	2100      	movs	r1, #0
    13ca:	e8bd 41f0 	ldmia.w	sp!, {r4, r5, r6, r7, r8, lr}
    13ce:	f7ff bf03 	b.w	11d8 <serial_set_flow_control>
    13d2:	4b2c      	ldr	r3, [pc, #176]	; (1484 <serial_init+0x180>)
    13d4:	f8d3 20c4 	ldr.w	r2, [r3, #196]	; 0xc4
    13d8:	f042 7280 	orr.w	r2, r2, #16777216	; 0x1000000
    13dc:	f8c3 20c4 	str.w	r2, [r3, #196]	; 0xc4
    13e0:	e7b6      	b.n	1350 <serial_init+0x4c>
    13e2:	f5a3 4380 	sub.w	r3, r3, #16384	; 0x4000
    13e6:	429c      	cmp	r4, r3
    13e8:	d12b      	bne.n	1442 <serial_init+0x13e>
    13ea:	4e27      	ldr	r6, [pc, #156]	; (1488 <serial_init+0x184>)
    13ec:	f04f 34ff 	mov.w	r4, #4294967295	; 0xffffffff
    13f0:	2100      	movs	r1, #0
    13f2:	6069      	str	r1, [r5, #4]
    13f4:	4622      	mov	r2, r4
    13f6:	4623      	mov	r3, r4
    13f8:	4628      	mov	r0, r5
    13fa:	6074      	str	r4, [r6, #4]
    13fc:	61f4      	str	r4, [r6, #28]
    13fe:	f7ff feeb 	bl	11d8 <serial_set_flow_control>
    1402:	4b22      	ldr	r3, [pc, #136]	; (148c <serial_init+0x188>)
    1404:	2201      	movs	r2, #1
    1406:	601a      	str	r2, [r3, #0]
    1408:	6828      	ldr	r0, [r5, #0]
    140a:	6869      	ldr	r1, [r5, #4]
    140c:	4b20      	ldr	r3, [pc, #128]	; (1490 <serial_init+0x18c>)
    140e:	c303      	stmia	r3!, {r0, r1}
    1410:	e8bd 81f0 	ldmia.w	sp!, {r4, r5, r6, r7, r8, pc}
    1414:	f5a3 4380 	sub.w	r3, r3, #16384	; 0x4000
    1418:	4298      	cmp	r0, r3
    141a:	d199      	bne.n	1350 <serial_init+0x4c>
    141c:	4b19      	ldr	r3, [pc, #100]	; (1484 <serial_init+0x180>)
    141e:	f8d3 20c4 	ldr.w	r2, [r3, #196]	; 0xc4
    1422:	f042 0208 	orr.w	r2, r2, #8
    1426:	f8c3 20c4 	str.w	r2, [r3, #196]	; 0xc4
    142a:	e791      	b.n	1350 <serial_init+0x4c>
    142c:	2301      	movs	r3, #1
    142e:	606b      	str	r3, [r5, #4]
    1430:	e7be      	b.n	13b0 <serial_init+0xac>
    1432:	4b14      	ldr	r3, [pc, #80]	; (1484 <serial_init+0x180>)
    1434:	f8d3 20c4 	ldr.w	r2, [r3, #196]	; 0xc4
    1438:	f042 0210 	orr.w	r2, r2, #16
    143c:	f8c3 20c4 	str.w	r2, [r3, #196]	; 0xc4
    1440:	e786      	b.n	1350 <serial_init+0x4c>
    1442:	686b      	ldr	r3, [r5, #4]
    1444:	4910      	ldr	r1, [pc, #64]	; (1488 <serial_init+0x184>)
    1446:	ebc3 03c3 	rsb	r3, r3, r3, lsl #3
    144a:	f04f 36ff 	mov.w	r6, #4294967295	; 0xffffffff
    144e:	eb01 07c3 	add.w	r7, r1, r3, lsl #3
    1452:	4632      	mov	r2, r6
    1454:	4633      	mov	r3, r6
    1456:	4628      	mov	r0, r5
    1458:	2100      	movs	r1, #0
    145a:	607e      	str	r6, [r7, #4]
    145c:	61fe      	str	r6, [r7, #28]
    145e:	f7ff febb 	bl	11d8 <serial_set_flow_control>
    1462:	4b0c      	ldr	r3, [pc, #48]	; (1494 <serial_init+0x190>)
    1464:	429c      	cmp	r4, r3
    1466:	d0cc      	beq.n	1402 <serial_init+0xfe>
    1468:	e8bd 81f0 	ldmia.w	sp!, {r4, r5, r6, r7, r8, pc}
    146c:	2302      	movs	r3, #2
    146e:	606b      	str	r3, [r5, #4]
    1470:	e79e      	b.n	13b0 <serial_init+0xac>
    1472:	bf00      	nop
    1474:	000042e8 	.word	0x000042e8
    1478:	0000427c 	.word	0x0000427c
    147c:	40010000 	.word	0x40010000
    1480:	40098000 	.word	0x40098000
    1484:	400fc000 	.word	0x400fc000
    1488:	1000027c 	.word	0x1000027c
    148c:	10000274 	.word	0x10000274
    1490:	10000378 	.word	0x10000378
    1494:	4000c000 	.word	0x4000c000

00001498 <NVIC_SetVector>:
    1498:	4a0c      	ldr	r2, [pc, #48]	; (14cc <NVIC_SetVector+0x34>)
    149a:	b430      	push	{r4, r5}
    149c:	6893      	ldr	r3, [r2, #8]
    149e:	6894      	ldr	r4, [r2, #8]
    14a0:	461a      	mov	r2, r3
    14a2:	f1b4 5f80 	cmp.w	r4, #268435456	; 0x10000000
    14a6:	d20c      	bcs.n	14c2 <NVIC_SetVector+0x2a>
    14a8:	4a09      	ldr	r2, [pc, #36]	; (14d0 <NVIC_SetVector+0x38>)
    14aa:	f103 05c4 	add.w	r5, r3, #196	; 0xc4
    14ae:	f853 4b04 	ldr.w	r4, [r3], #4
    14b2:	42ab      	cmp	r3, r5
    14b4:	f842 4f04 	str.w	r4, [r2, #4]!
    14b8:	d1f9      	bne.n	14ae <NVIC_SetVector+0x16>
    14ba:	4b04      	ldr	r3, [pc, #16]	; (14cc <NVIC_SetVector+0x34>)
    14bc:	f04f 5280 	mov.w	r2, #268435456	; 0x10000000
    14c0:	609a      	str	r2, [r3, #8]
    14c2:	3010      	adds	r0, #16
    14c4:	f842 1020 	str.w	r1, [r2, r0, lsl #2]
    14c8:	bc30      	pop	{r4, r5}
    14ca:	4770      	bx	lr
    14cc:	e000ed00 	.word	0xe000ed00
    14d0:	0ffffffc 	.word	0x0ffffffc

000014d4 <SystemInit>:
    14d4:	4a2b      	ldr	r2, [pc, #172]	; (1584 <SystemInit+0xb0>)
    14d6:	2320      	movs	r3, #32
    14d8:	b470      	push	{r4, r5, r6}
    14da:	f8c2 31a0 	str.w	r3, [r2, #416]	; 0x1a0
    14de:	f8d2 31a0 	ldr.w	r3, [r2, #416]	; 0x1a0
    14e2:	0698      	lsls	r0, r3, #26
    14e4:	d445      	bmi.n	1572 <SystemInit+0x9e>
    14e6:	4b27      	ldr	r3, [pc, #156]	; (1584 <SystemInit+0xb0>)
    14e8:	2102      	movs	r1, #2
    14ea:	2500      	movs	r5, #0
    14ec:	2401      	movs	r4, #1
    14ee:	20aa      	movs	r0, #170	; 0xaa
    14f0:	2255      	movs	r2, #85	; 0x55
    14f2:	260b      	movs	r6, #11
    14f4:	f8c3 1104 	str.w	r1, [r3, #260]	; 0x104
    14f8:	f8c3 51a8 	str.w	r5, [r3, #424]	; 0x1a8
    14fc:	4619      	mov	r1, r3
    14fe:	f8c3 51ac 	str.w	r5, [r3, #428]	; 0x1ac
    1502:	f8c3 410c 	str.w	r4, [r3, #268]	; 0x10c
    1506:	f8c3 6084 	str.w	r6, [r3, #132]	; 0x84
    150a:	f8c3 008c 	str.w	r0, [r3, #140]	; 0x8c
    150e:	f8c3 208c 	str.w	r2, [r3, #140]	; 0x8c
    1512:	f8c3 4080 	str.w	r4, [r3, #128]	; 0x80
    1516:	f8c3 008c 	str.w	r0, [r3, #140]	; 0x8c
    151a:	f8c3 208c 	str.w	r2, [r3, #140]	; 0x8c
    151e:	f8d1 3088 	ldr.w	r3, [r1, #136]	; 0x88
    1522:	4a18      	ldr	r2, [pc, #96]	; (1584 <SystemInit+0xb0>)
    1524:	015b      	lsls	r3, r3, #5
    1526:	d5fa      	bpl.n	151e <SystemInit+0x4a>
    1528:	2103      	movs	r1, #3
    152a:	20aa      	movs	r0, #170	; 0xaa
    152c:	2355      	movs	r3, #85	; 0x55
    152e:	f8c2 1080 	str.w	r1, [r2, #128]	; 0x80
    1532:	f8c2 008c 	str.w	r0, [r2, #140]	; 0x8c
    1536:	4611      	mov	r1, r2
    1538:	f8c2 308c 	str.w	r3, [r2, #140]	; 0x8c
    153c:	f8d1 3088 	ldr.w	r3, [r1, #136]	; 0x88
    1540:	4a10      	ldr	r2, [pc, #64]	; (1584 <SystemInit+0xb0>)
    1542:	f013 7f40 	tst.w	r3, #50331648	; 0x3000000
    1546:	d0f9      	beq.n	153c <SystemInit+0x68>
    1548:	490f      	ldr	r1, [pc, #60]	; (1588 <SystemInit+0xb4>)
    154a:	2300      	movs	r3, #0
    154c:	2005      	movs	r0, #5
    154e:	f8c2 0108 	str.w	r0, [r2, #264]	; 0x108
    1552:	f8c2 10c4 	str.w	r1, [r2, #196]	; 0xc4
    1556:	f8c2 31c8 	str.w	r3, [r2, #456]	; 0x1c8
    155a:	6813      	ldr	r3, [r2, #0]
    155c:	bc70      	pop	{r4, r5, r6}
    155e:	f423 4370 	bic.w	r3, r3, #61440	; 0xf000
    1562:	f023 033a 	bic.w	r3, r3, #58	; 0x3a
    1566:	f443 5340 	orr.w	r3, r3, #12288	; 0x3000
    156a:	f043 033a 	orr.w	r3, r3, #58	; 0x3a
    156e:	6013      	str	r3, [r2, #0]
    1570:	4770      	bx	lr
    1572:	f8d2 31a0 	ldr.w	r3, [r2, #416]	; 0x1a0
    1576:	0659      	lsls	r1, r3, #25
    1578:	d4b5      	bmi.n	14e6 <SystemInit+0x12>
    157a:	f8d2 31a0 	ldr.w	r3, [r2, #416]	; 0x1a0
    157e:	0659      	lsls	r1, r3, #25
    1580:	d5f7      	bpl.n	1572 <SystemInit+0x9e>
    1582:	e7b0      	b.n	14e6 <SystemInit+0x12>
    1584:	400fc000 	.word	0x400fc000
    1588:	042887de 	.word	0x042887de

0000158c <mbed_die>:
    158c:	b500      	push	{lr}
    158e:	b099      	sub	sp, #100	; 0x64
    1590:	b672      	cpsid	i
    1592:	4917      	ldr	r1, [pc, #92]	; (15f0 <mbed_die+0x64>)
    1594:	4668      	mov	r0, sp
    1596:	f000 f845 	bl	1624 <gpio_init_out>
    159a:	a806      	add	r0, sp, #24
    159c:	4915      	ldr	r1, [pc, #84]	; (15f4 <mbed_die+0x68>)
    159e:	f000 f841 	bl	1624 <gpio_init_out>
    15a2:	a80c      	add	r0, sp, #48	; 0x30
    15a4:	4914      	ldr	r1, [pc, #80]	; (15f8 <mbed_die+0x6c>)
    15a6:	f000 f83d 	bl	1624 <gpio_init_out>
    15aa:	a812      	add	r0, sp, #72	; 0x48
    15ac:	4913      	ldr	r1, [pc, #76]	; (15fc <mbed_die+0x70>)
    15ae:	f000 f839 	bl	1624 <gpio_init_out>
    15b2:	9b03      	ldr	r3, [sp, #12]
    15b4:	9a01      	ldr	r2, [sp, #4]
    15b6:	980a      	ldr	r0, [sp, #40]	; 0x28
    15b8:	601a      	str	r2, [r3, #0]
    15ba:	9b07      	ldr	r3, [sp, #28]
    15bc:	9910      	ldr	r1, [sp, #64]	; 0x40
    15be:	6003      	str	r3, [r0, #0]
    15c0:	9b0d      	ldr	r3, [sp, #52]	; 0x34
    15c2:	9a15      	ldr	r2, [sp, #84]	; 0x54
    15c4:	600b      	str	r3, [r1, #0]
    15c6:	9b13      	ldr	r3, [sp, #76]	; 0x4c
    15c8:	2096      	movs	r0, #150	; 0x96
    15ca:	6013      	str	r3, [r2, #0]
    15cc:	f000 f8c2 	bl	1754 <wait_ms>
    15d0:	9b04      	ldr	r3, [sp, #16]
    15d2:	9a01      	ldr	r2, [sp, #4]
    15d4:	9809      	ldr	r0, [sp, #36]	; 0x24
    15d6:	601a      	str	r2, [r3, #0]
    15d8:	9b07      	ldr	r3, [sp, #28]
    15da:	990f      	ldr	r1, [sp, #60]	; 0x3c
    15dc:	6003      	str	r3, [r0, #0]
    15de:	9b0d      	ldr	r3, [sp, #52]	; 0x34
    15e0:	9a16      	ldr	r2, [sp, #88]	; 0x58
    15e2:	600b      	str	r3, [r1, #0]
    15e4:	9b13      	ldr	r3, [sp, #76]	; 0x4c
    15e6:	2096      	movs	r0, #150	; 0x96
    15e8:	6013      	str	r3, [r2, #0]
    15ea:	f000 f8b3 	bl	1754 <wait_ms>
    15ee:	e7e0      	b.n	15b2 <mbed_die+0x26>
    15f0:	2009c032 	.word	0x2009c032
    15f4:	2009c034 	.word	0x2009c034
    15f8:	2009c035 	.word	0x2009c035
    15fc:	2009c037 	.word	0x2009c037

00001600 <gpio_init_in>:
    1600:	b538      	push	{r3, r4, r5, lr}
    1602:	460d      	mov	r5, r1
    1604:	4604      	mov	r4, r0
    1606:	f000 f97b 	bl	1900 <gpio_init>
    160a:	3501      	adds	r5, #1
    160c:	d009      	beq.n	1622 <gpio_init_in+0x22>
    160e:	4620      	mov	r0, r4
    1610:	2100      	movs	r1, #0
    1612:	f000 f995 	bl	1940 <gpio_dir>
    1616:	4620      	mov	r0, r4
    1618:	2103      	movs	r1, #3
    161a:	e8bd 4038 	ldmia.w	sp!, {r3, r4, r5, lr}
    161e:	f000 b98b 	b.w	1938 <gpio_mode>
    1622:	bd38      	pop	{r3, r4, r5, pc}

00001624 <gpio_init_out>:
    1624:	b538      	push	{r3, r4, r5, lr}
    1626:	460d      	mov	r5, r1
    1628:	4604      	mov	r4, r0
    162a:	f000 f969 	bl	1900 <gpio_init>
    162e:	3501      	adds	r5, #1
    1630:	d00c      	beq.n	164c <gpio_init_out+0x28>
    1632:	6923      	ldr	r3, [r4, #16]
    1634:	6862      	ldr	r2, [r4, #4]
    1636:	4620      	mov	r0, r4
    1638:	601a      	str	r2, [r3, #0]
    163a:	2101      	movs	r1, #1
    163c:	f000 f980 	bl	1940 <gpio_dir>
    1640:	4620      	mov	r0, r4
    1642:	2102      	movs	r1, #2
    1644:	e8bd 4038 	ldmia.w	sp!, {r3, r4, r5, lr}
    1648:	f000 b976 	b.w	1938 <gpio_mode>
    164c:	bd38      	pop	{r3, r4, r5, pc}
    164e:	bf00      	nop

00001650 <gpio_init_out_ex>:
    1650:	b570      	push	{r4, r5, r6, lr}
    1652:	460d      	mov	r5, r1
    1654:	4616      	mov	r6, r2
    1656:	4604      	mov	r4, r0
    1658:	f000 f952 	bl	1900 <gpio_init>
    165c:	3501      	adds	r5, #1
    165e:	d011      	beq.n	1684 <gpio_init_out_ex+0x34>
    1660:	b966      	cbnz	r6, 167c <gpio_init_out_ex+0x2c>
    1662:	6923      	ldr	r3, [r4, #16]
    1664:	6862      	ldr	r2, [r4, #4]
    1666:	601a      	str	r2, [r3, #0]
    1668:	4620      	mov	r0, r4
    166a:	2101      	movs	r1, #1
    166c:	f000 f968 	bl	1940 <gpio_dir>
    1670:	4620      	mov	r0, r4
    1672:	2102      	movs	r1, #2
    1674:	e8bd 4070 	ldmia.w	sp!, {r4, r5, r6, lr}
    1678:	f000 b95e 	b.w	1938 <gpio_mode>
    167c:	68e3      	ldr	r3, [r4, #12]
    167e:	6862      	ldr	r2, [r4, #4]
    1680:	601a      	str	r2, [r3, #0]
    1682:	e7f1      	b.n	1668 <gpio_init_out_ex+0x18>
    1684:	bd70      	pop	{r4, r5, r6, pc}
    1686:	bf00      	nop

00001688 <pinmap_pinout>:
    1688:	1c43      	adds	r3, r0, #1
    168a:	b510      	push	{r4, lr}
    168c:	4604      	mov	r4, r0
    168e:	d018      	beq.n	16c2 <pinmap_pinout+0x3a>
    1690:	680b      	ldr	r3, [r1, #0]
    1692:	1c58      	adds	r0, r3, #1
    1694:	d104      	bne.n	16a0 <pinmap_pinout+0x18>
    1696:	e00f      	b.n	16b8 <pinmap_pinout+0x30>
    1698:	f851 3f0c 	ldr.w	r3, [r1, #12]!
    169c:	1c5a      	adds	r2, r3, #1
    169e:	d00b      	beq.n	16b8 <pinmap_pinout+0x30>
    16a0:	429c      	cmp	r4, r3
    16a2:	d1f9      	bne.n	1698 <pinmap_pinout+0x10>
    16a4:	4620      	mov	r0, r4
    16a6:	6889      	ldr	r1, [r1, #8]
    16a8:	f000 f95c 	bl	1964 <pin_function>
    16ac:	4620      	mov	r0, r4
    16ae:	2102      	movs	r1, #2
    16b0:	e8bd 4010 	ldmia.w	sp!, {r4, lr}
    16b4:	f000 b96e 	b.w	1994 <pin_mode>
    16b8:	4802      	ldr	r0, [pc, #8]	; (16c4 <pinmap_pinout+0x3c>)
    16ba:	e8bd 4010 	ldmia.w	sp!, {r4, lr}
    16be:	f7fe be97 	b.w	3f0 <error>
    16c2:	bd10      	pop	{r4, pc}
    16c4:	00004378 	.word	0x00004378

000016c8 <pinmap_merge>:
    16c8:	4288      	cmp	r0, r1
    16ca:	b508      	push	{r3, lr}
    16cc:	d00a      	beq.n	16e4 <pinmap_merge+0x1c>
    16ce:	1c43      	adds	r3, r0, #1
    16d0:	d007      	beq.n	16e2 <pinmap_merge+0x1a>
    16d2:	3101      	adds	r1, #1
    16d4:	d006      	beq.n	16e4 <pinmap_merge+0x1c>
    16d6:	4804      	ldr	r0, [pc, #16]	; (16e8 <pinmap_merge+0x20>)
    16d8:	f7fe fe8a 	bl	3f0 <error>
    16dc:	f04f 30ff 	mov.w	r0, #4294967295	; 0xffffffff
    16e0:	bd08      	pop	{r3, pc}
    16e2:	4608      	mov	r0, r1
    16e4:	bd08      	pop	{r3, pc}
    16e6:	bf00      	nop
    16e8:	0000438c 	.word	0x0000438c

000016ec <pinmap_find_peripheral>:
    16ec:	680b      	ldr	r3, [r1, #0]
    16ee:	1c5a      	adds	r2, r3, #1
    16f0:	d104      	bne.n	16fc <pinmap_find_peripheral+0x10>
    16f2:	e007      	b.n	1704 <pinmap_find_peripheral+0x18>
    16f4:	f851 3f0c 	ldr.w	r3, [r1, #12]!
    16f8:	1c5a      	adds	r2, r3, #1
    16fa:	d003      	beq.n	1704 <pinmap_find_peripheral+0x18>
    16fc:	4283      	cmp	r3, r0
    16fe:	d1f9      	bne.n	16f4 <pinmap_find_peripheral+0x8>
    1700:	6848      	ldr	r0, [r1, #4]
    1702:	4770      	bx	lr
    1704:	4618      	mov	r0, r3
    1706:	4770      	bx	lr

00001708 <pinmap_peripheral>:
    1708:	b508      	push	{r3, lr}
    170a:	1c43      	adds	r3, r0, #1
    170c:	d00c      	beq.n	1728 <pinmap_peripheral+0x20>
    170e:	680b      	ldr	r3, [r1, #0]
    1710:	1c5a      	adds	r2, r3, #1
    1712:	d104      	bne.n	171e <pinmap_peripheral+0x16>
    1714:	e009      	b.n	172a <pinmap_peripheral+0x22>
    1716:	f851 3f0c 	ldr.w	r3, [r1, #12]!
    171a:	1c5a      	adds	r2, r3, #1
    171c:	d005      	beq.n	172a <pinmap_peripheral+0x22>
    171e:	4298      	cmp	r0, r3
    1720:	d1f9      	bne.n	1716 <pinmap_peripheral+0xe>
    1722:	6848      	ldr	r0, [r1, #4]
    1724:	1c41      	adds	r1, r0, #1
    1726:	d000      	beq.n	172a <pinmap_peripheral+0x22>
    1728:	bd08      	pop	{r3, pc}
    172a:	4803      	ldr	r0, [pc, #12]	; (1738 <pinmap_peripheral+0x30>)
    172c:	f7fe fe60 	bl	3f0 <error>
    1730:	f04f 30ff 	mov.w	r0, #4294967295	; 0xffffffff
    1734:	e7f8      	b.n	1728 <pinmap_peripheral+0x20>
    1736:	bf00      	nop
    1738:	000043a0 	.word	0x000043a0

0000173c <wait_us>:
    173c:	b538      	push	{r3, r4, r5, lr}
    173e:	4605      	mov	r5, r0
    1740:	f000 f98c 	bl	1a5c <us_ticker_read>
    1744:	4604      	mov	r4, r0
    1746:	f000 f989 	bl	1a5c <us_ticker_read>
    174a:	1b00      	subs	r0, r0, r4
    174c:	42a8      	cmp	r0, r5
    174e:	d3fa      	bcc.n	1746 <wait_us+0xa>
    1750:	bd38      	pop	{r3, r4, r5, pc}
    1752:	bf00      	nop

00001754 <wait_ms>:
    1754:	f44f 737a 	mov.w	r3, #1000	; 0x3e8
    1758:	fb03 f000 	mul.w	r0, r3, r0
    175c:	f7ff bfee 	b.w	173c <wait_us>

00001760 <mbed::FileBase::~FileBase()>:
    1760:	4a09      	ldr	r2, [pc, #36]	; (1788 <mbed::FileBase::~FileBase()+0x28>)
    1762:	6883      	ldr	r3, [r0, #8]
    1764:	6002      	str	r2, [r0, #0]
    1766:	b153      	cbz	r3, 177e <mbed::FileBase::~FileBase()+0x1e>
    1768:	4b08      	ldr	r3, [pc, #32]	; (178c <mbed::FileBase::~FileBase()+0x2c>)
    176a:	681a      	ldr	r2, [r3, #0]
    176c:	4282      	cmp	r2, r0
    176e:	d101      	bne.n	1774 <mbed::FileBase::~FileBase()+0x14>
    1770:	e006      	b.n	1780 <mbed::FileBase::~FileBase()+0x20>
    1772:	461a      	mov	r2, r3
    1774:	6853      	ldr	r3, [r2, #4]
    1776:	4283      	cmp	r3, r0
    1778:	d1fb      	bne.n	1772 <mbed::FileBase::~FileBase()+0x12>
    177a:	6843      	ldr	r3, [r0, #4]
    177c:	6053      	str	r3, [r2, #4]
    177e:	4770      	bx	lr
    1780:	6842      	ldr	r2, [r0, #4]
    1782:	601a      	str	r2, [r3, #0]
    1784:	4770      	bx	lr
    1786:	bf00      	nop
    1788:	000043c8 	.word	0x000043c8
    178c:	1000035c 	.word	0x1000035c

00001790 <mbed::FileBase::~FileBase()>:
    1790:	4a0c      	ldr	r2, [pc, #48]	; (17c4 <mbed::FileBase::~FileBase()+0x34>)
    1792:	6883      	ldr	r3, [r0, #8]
    1794:	b510      	push	{r4, lr}
    1796:	4604      	mov	r4, r0
    1798:	6002      	str	r2, [r0, #0]
    179a:	b153      	cbz	r3, 17b2 <mbed::FileBase::~FileBase()+0x22>
    179c:	4b0a      	ldr	r3, [pc, #40]	; (17c8 <mbed::FileBase::~FileBase()+0x38>)
    179e:	681a      	ldr	r2, [r3, #0]
    17a0:	4290      	cmp	r0, r2
    17a2:	d101      	bne.n	17a8 <mbed::FileBase::~FileBase()+0x18>
    17a4:	e00a      	b.n	17bc <mbed::FileBase::~FileBase()+0x2c>
    17a6:	461a      	mov	r2, r3
    17a8:	6853      	ldr	r3, [r2, #4]
    17aa:	429c      	cmp	r4, r3
    17ac:	d1fb      	bne.n	17a6 <mbed::FileBase::~FileBase()+0x16>
    17ae:	6863      	ldr	r3, [r4, #4]
    17b0:	6053      	str	r3, [r2, #4]
    17b2:	4620      	mov	r0, r4
    17b4:	f000 f9a9 	bl	1b0a <operator delete(void*)>
    17b8:	4620      	mov	r0, r4
    17ba:	bd10      	pop	{r4, pc}
    17bc:	6842      	ldr	r2, [r0, #4]
    17be:	601a      	str	r2, [r3, #0]
    17c0:	e7f7      	b.n	17b2 <mbed::FileBase::~FileBase()+0x22>
    17c2:	bf00      	nop
    17c4:	000043c8 	.word	0x000043c8
    17c8:	1000035c 	.word	0x1000035c

000017cc <mbed::FileBase::FileBase(char const*, mbed::PathType)>:
    17cc:	4b07      	ldr	r3, [pc, #28]	; (17ec <mbed::FileBase::FileBase(char const*, mbed::PathType)+0x20>)
    17ce:	b410      	push	{r4}
    17d0:	2400      	movs	r4, #0
    17d2:	7302      	strb	r2, [r0, #12]
    17d4:	6081      	str	r1, [r0, #8]
    17d6:	e880 0018 	stmia.w	r0, {r3, r4}
    17da:	b119      	cbz	r1, 17e4 <mbed::FileBase::FileBase(char const*, mbed::PathType)+0x18>
    17dc:	4b04      	ldr	r3, [pc, #16]	; (17f0 <mbed::FileBase::FileBase(char const*, mbed::PathType)+0x24>)
    17de:	681a      	ldr	r2, [r3, #0]
    17e0:	6018      	str	r0, [r3, #0]
    17e2:	6042      	str	r2, [r0, #4]
    17e4:	f85d 4b04 	ldr.w	r4, [sp], #4
    17e8:	4770      	bx	lr
    17ea:	bf00      	nop
    17ec:	000043c8 	.word	0x000043c8
    17f0:	1000035c 	.word	0x1000035c

000017f4 <mbed::FileBase::lookup(char const*, unsigned int)>:
    17f4:	b5f8      	push	{r3, r4, r5, r6, r7, lr}
    17f6:	4b0b      	ldr	r3, [pc, #44]	; (1824 <mbed::FileBase::lookup(char const*, unsigned int)+0x30>)
    17f8:	4607      	mov	r7, r0
    17fa:	681c      	ldr	r4, [r3, #0]
    17fc:	460e      	mov	r6, r1
    17fe:	b17c      	cbz	r4, 1820 <mbed::FileBase::lookup(char const*, unsigned int)+0x2c>
    1800:	68a5      	ldr	r5, [r4, #8]
    1802:	4639      	mov	r1, r7
    1804:	4632      	mov	r2, r6
    1806:	4628      	mov	r0, r5
    1808:	b13d      	cbz	r5, 181a <mbed::FileBase::lookup(char const*, unsigned int)+0x26>
    180a:	f000 ff64 	bl	26d6 <strncmp>
    180e:	b920      	cbnz	r0, 181a <mbed::FileBase::lookup(char const*, unsigned int)+0x26>
    1810:	4628      	mov	r0, r5
    1812:	f000 ff58 	bl	26c6 <strlen>
    1816:	42b0      	cmp	r0, r6
    1818:	d002      	beq.n	1820 <mbed::FileBase::lookup(char const*, unsigned int)+0x2c>
    181a:	6864      	ldr	r4, [r4, #4]
    181c:	2c00      	cmp	r4, #0
    181e:	d1ef      	bne.n	1800 <mbed::FileBase::lookup(char const*, unsigned int)+0xc>
    1820:	4620      	mov	r0, r4
    1822:	bdf8      	pop	{r3, r4, r5, r6, r7, pc}
    1824:	1000035c 	.word	0x1000035c

00001828 <mbed::FileBase::get(int)>:
    1828:	4b06      	ldr	r3, [pc, #24]	; (1844 <mbed::FileBase::get(int)+0x1c>)
    182a:	681b      	ldr	r3, [r3, #0]
    182c:	b143      	cbz	r3, 1840 <mbed::FileBase::get(int)+0x18>
    182e:	b138      	cbz	r0, 1840 <mbed::FileBase::get(int)+0x18>
    1830:	2200      	movs	r2, #0
    1832:	e001      	b.n	1838 <mbed::FileBase::get(int)+0x10>
    1834:	4290      	cmp	r0, r2
    1836:	d003      	beq.n	1840 <mbed::FileBase::get(int)+0x18>
    1838:	685b      	ldr	r3, [r3, #4]
    183a:	3201      	adds	r2, #1
    183c:	2b00      	cmp	r3, #0
    183e:	d1f9      	bne.n	1834 <mbed::FileBase::get(int)+0xc>
    1840:	4618      	mov	r0, r3
    1842:	4770      	bx	lr
    1844:	1000035c 	.word	0x1000035c

00001848 <mbed::FileBase::getName()>:
    1848:	6880      	ldr	r0, [r0, #8]
    184a:	4770      	bx	lr

0000184c <mbed::FileBase::getPathType()>:
    184c:	7b00      	ldrb	r0, [r0, #12]
    184e:	4770      	bx	lr

00001850 <mbed::FilePath::FilePath(char const*)>:
    1850:	b538      	push	{r3, r4, r5, lr}
    1852:	2300      	movs	r3, #0
    1854:	6003      	str	r3, [r0, #0]
    1856:	6043      	str	r3, [r0, #4]
    1858:	780a      	ldrb	r2, [r1, #0]
    185a:	4604      	mov	r4, r0
    185c:	2a2f      	cmp	r2, #47	; 0x2f
    185e:	d001      	beq.n	1864 <mbed::FilePath::FilePath(char const*)+0x14>
    1860:	4620      	mov	r0, r4
    1862:	bd38      	pop	{r3, r4, r5, pc}
    1864:	784a      	ldrb	r2, [r1, #1]
    1866:	2a00      	cmp	r2, #0
    1868:	d0fa      	beq.n	1860 <mbed::FilePath::FilePath(char const*)+0x10>
    186a:	1c48      	adds	r0, r1, #1
    186c:	6020      	str	r0, [r4, #0]
    186e:	784a      	ldrb	r2, [r1, #1]
    1870:	2a2f      	cmp	r2, #47	; 0x2f
    1872:	d014      	beq.n	189e <mbed::FilePath::FilePath(char const*)+0x4e>
    1874:	b1b2      	cbz	r2, 18a4 <mbed::FilePath::FilePath(char const*)+0x54>
    1876:	1c8d      	adds	r5, r1, #2
    1878:	4619      	mov	r1, r3
    187a:	e000      	b.n	187e <mbed::FilePath::FilePath(char const*)+0x2e>
    187c:	b152      	cbz	r2, 1894 <mbed::FilePath::FilePath(char const*)+0x44>
    187e:	6025      	str	r5, [r4, #0]
    1880:	782a      	ldrb	r2, [r5, #0]
    1882:	462b      	mov	r3, r5
    1884:	2a2f      	cmp	r2, #47	; 0x2f
    1886:	f101 0101 	add.w	r1, r1, #1
    188a:	f105 0501 	add.w	r5, r5, #1
    188e:	d1f5      	bne.n	187c <mbed::FilePath::FilePath(char const*)+0x2c>
    1890:	3301      	adds	r3, #1
    1892:	6023      	str	r3, [r4, #0]
    1894:	f7ff ffae 	bl	17f4 <mbed::FileBase::lookup(char const*, unsigned int)>
    1898:	6060      	str	r0, [r4, #4]
    189a:	4620      	mov	r0, r4
    189c:	bd38      	pop	{r3, r4, r5, pc}
    189e:	4619      	mov	r1, r3
    18a0:	4603      	mov	r3, r0
    18a2:	e7f5      	b.n	1890 <mbed::FilePath::FilePath(char const*)+0x40>
    18a4:	4611      	mov	r1, r2
    18a6:	e7f5      	b.n	1894 <mbed::FilePath::FilePath(char const*)+0x44>

000018a8 <mbed::FilePath::fileName()>:
    18a8:	6800      	ldr	r0, [r0, #0]
    18aa:	4770      	bx	lr

000018ac <mbed::FilePath::fileSystem()>:
    18ac:	b510      	push	{r4, lr}
    18ae:	4604      	mov	r4, r0
    18b0:	6840      	ldr	r0, [r0, #4]
    18b2:	b128      	cbz	r0, 18c0 <mbed::FilePath::fileSystem()+0x14>
    18b4:	f7ff ffca 	bl	184c <mbed::FileBase::getPathType()>
    18b8:	2801      	cmp	r0, #1
    18ba:	d101      	bne.n	18c0 <mbed::FilePath::fileSystem()+0x14>
    18bc:	6860      	ldr	r0, [r4, #4]
    18be:	bd10      	pop	{r4, pc}
    18c0:	2000      	movs	r0, #0
    18c2:	bd10      	pop	{r4, pc}

000018c4 <mbed::FilePath::isFile()>:
    18c4:	6840      	ldr	r0, [r0, #4]
    18c6:	b508      	push	{r3, lr}
    18c8:	b128      	cbz	r0, 18d6 <mbed::FilePath::isFile()+0x12>
    18ca:	f7ff ffbf 	bl	184c <mbed::FileBase::getPathType()>
    18ce:	f1d0 0001 	rsbs	r0, r0, #1
    18d2:	bf38      	it	cc
    18d4:	2000      	movcc	r0, #0
    18d6:	bd08      	pop	{r3, pc}

000018d8 <mbed::FilePath::file()>:
    18d8:	b510      	push	{r4, lr}
    18da:	4604      	mov	r4, r0
    18dc:	6840      	ldr	r0, [r0, #4]
    18de:	b130      	cbz	r0, 18ee <mbed::FilePath::file()+0x16>
    18e0:	f7ff ffb4 	bl	184c <mbed::FileBase::getPathType()>
    18e4:	b918      	cbnz	r0, 18ee <mbed::FilePath::file()+0x16>
    18e6:	6860      	ldr	r0, [r4, #4]
    18e8:	b108      	cbz	r0, 18ee <mbed::FilePath::file()+0x16>
    18ea:	3804      	subs	r0, #4
    18ec:	bd10      	pop	{r4, pc}
    18ee:	2000      	movs	r0, #0
    18f0:	bd10      	pop	{r4, pc}
    18f2:	bf00      	nop

000018f4 <mbed::FilePath::exists()>:
    18f4:	6840      	ldr	r0, [r0, #4]
    18f6:	3000      	adds	r0, #0
    18f8:	bf18      	it	ne
    18fa:	2001      	movne	r0, #1
    18fc:	4770      	bx	lr
    18fe:	bf00      	nop

00001900 <gpio_init>:
    1900:	b538      	push	{r3, r4, r5, lr}
    1902:	4604      	mov	r4, r0
    1904:	1c4b      	adds	r3, r1, #1
    1906:	460d      	mov	r5, r1
    1908:	6021      	str	r1, [r4, #0]
    190a:	d014      	beq.n	1936 <gpio_init+0x36>
    190c:	4608      	mov	r0, r1
    190e:	2100      	movs	r1, #0
    1910:	f000 f828 	bl	1964 <pin_function>
    1914:	f005 031f 	and.w	r3, r5, #31
    1918:	2001      	movs	r0, #1
    191a:	4098      	lsls	r0, r3
    191c:	f025 051f 	bic.w	r5, r5, #31
    1920:	f105 0118 	add.w	r1, r5, #24
    1924:	f105 021c 	add.w	r2, r5, #28
    1928:	f105 0314 	add.w	r3, r5, #20
    192c:	60a5      	str	r5, [r4, #8]
    192e:	6060      	str	r0, [r4, #4]
    1930:	60e1      	str	r1, [r4, #12]
    1932:	6122      	str	r2, [r4, #16]
    1934:	6163      	str	r3, [r4, #20]
    1936:	bd38      	pop	{r3, r4, r5, pc}

00001938 <gpio_mode>:
    1938:	6800      	ldr	r0, [r0, #0]
    193a:	f000 b82b 	b.w	1994 <pin_mode>
    193e:	bf00      	nop

00001940 <gpio_dir>:
    1940:	b141      	cbz	r1, 1954 <gpio_dir+0x14>
    1942:	2901      	cmp	r1, #1
    1944:	d105      	bne.n	1952 <gpio_dir+0x12>
    1946:	6883      	ldr	r3, [r0, #8]
    1948:	6842      	ldr	r2, [r0, #4]
    194a:	6819      	ldr	r1, [r3, #0]
    194c:	430a      	orrs	r2, r1
    194e:	601a      	str	r2, [r3, #0]
    1950:	4770      	bx	lr
    1952:	4770      	bx	lr
    1954:	6883      	ldr	r3, [r0, #8]
    1956:	6841      	ldr	r1, [r0, #4]
    1958:	681a      	ldr	r2, [r3, #0]
    195a:	ea22 0201 	bic.w	r2, r2, r1
    195e:	601a      	str	r2, [r3, #0]
    1960:	4770      	bx	lr
    1962:	bf00      	nop

00001964 <pin_function>:
    1964:	f100 4060 	add.w	r0, r0, #3758096384	; 0xe0000000
    1968:	f5a0 201c 	sub.w	r0, r0, #638976	; 0x9c000
    196c:	f000 030f 	and.w	r3, r0, #15
    1970:	005b      	lsls	r3, r3, #1
    1972:	2203      	movs	r2, #3
    1974:	409a      	lsls	r2, r3
    1976:	4099      	lsls	r1, r3
    1978:	0903      	lsrs	r3, r0, #4
    197a:	009b      	lsls	r3, r3, #2
    197c:	f103 4380 	add.w	r3, r3, #1073741824	; 0x40000000
    1980:	f503 3330 	add.w	r3, r3, #180224	; 0x2c000
    1984:	6818      	ldr	r0, [r3, #0]
    1986:	ea20 0202 	bic.w	r2, r0, r2
    198a:	601a      	str	r2, [r3, #0]
    198c:	681a      	ldr	r2, [r3, #0]
    198e:	4311      	orrs	r1, r2
    1990:	6019      	str	r1, [r3, #0]
    1992:	4770      	bx	lr

00001994 <pin_mode>:
    1994:	f100 4060 	add.w	r0, r0, #3758096384	; 0xe0000000
    1998:	f5a0 201c 	sub.w	r0, r0, #638976	; 0x9c000
    199c:	b430      	push	{r4, r5}
    199e:	f3c1 0280 	ubfx	r2, r1, #2, #1
    19a2:	f000 041f 	and.w	r4, r0, #31
    19a6:	fa02 f404 	lsl.w	r4, r2, r4
    19aa:	0943      	lsrs	r3, r0, #5
    19ac:	009b      	lsls	r3, r3, #2
    19ae:	f103 4380 	add.w	r3, r3, #1073741824	; 0x40000000
    19b2:	f503 3330 	add.w	r3, r3, #180224	; 0x2c000
    19b6:	6e9d      	ldr	r5, [r3, #104]	; 0x68
    19b8:	ea25 0504 	bic.w	r5, r5, r4
    19bc:	669d      	str	r5, [r3, #104]	; 0x68
    19be:	6e9d      	ldr	r5, [r3, #104]	; 0x68
    19c0:	432c      	orrs	r4, r5
    19c2:	669c      	str	r4, [r3, #104]	; 0x68
    19c4:	b99a      	cbnz	r2, 19ee <pin_mode+0x5a>
    19c6:	f000 030f 	and.w	r3, r0, #15
    19ca:	005b      	lsls	r3, r3, #1
    19cc:	2203      	movs	r2, #3
    19ce:	409a      	lsls	r2, r3
    19d0:	fa01 f303 	lsl.w	r3, r1, r3
    19d4:	0900      	lsrs	r0, r0, #4
    19d6:	0080      	lsls	r0, r0, #2
    19d8:	f100 4080 	add.w	r0, r0, #1073741824	; 0x40000000
    19dc:	f500 3030 	add.w	r0, r0, #180224	; 0x2c000
    19e0:	6c01      	ldr	r1, [r0, #64]	; 0x40
    19e2:	ea21 0202 	bic.w	r2, r1, r2
    19e6:	6402      	str	r2, [r0, #64]	; 0x40
    19e8:	6c02      	ldr	r2, [r0, #64]	; 0x40
    19ea:	4313      	orrs	r3, r2
    19ec:	6403      	str	r3, [r0, #64]	; 0x40
    19ee:	bc30      	pop	{r4, r5}
    19f0:	4770      	bx	lr
    19f2:	bf00      	nop

000019f4 <us_ticker_init>:
    19f4:	4a13      	ldr	r2, [pc, #76]	; (1a44 <us_ticker_init+0x50>)
    19f6:	b538      	push	{r3, r4, r5, lr}
    19f8:	6813      	ldr	r3, [r2, #0]
    19fa:	bb0b      	cbnz	r3, 1a40 <us_ticker_init+0x4c>
    19fc:	4912      	ldr	r1, [pc, #72]	; (1a48 <us_ticker_init+0x54>)
    19fe:	2401      	movs	r4, #1
    1a00:	f8d1 50c4 	ldr.w	r5, [r1, #196]	; 0xc4
    1a04:	6014      	str	r4, [r2, #0]
    1a06:	4a11      	ldr	r2, [pc, #68]	; (1a4c <us_ticker_init+0x58>)
    1a08:	4811      	ldr	r0, [pc, #68]	; (1a50 <us_ticker_init+0x5c>)
    1a0a:	f445 0500 	orr.w	r5, r5, #8388608	; 0x800000
    1a0e:	f8c1 50c4 	str.w	r5, [r1, #196]	; 0xc4
    1a12:	6713      	str	r3, [r2, #112]	; 0x70
    1a14:	6803      	ldr	r3, [r0, #0]
    1a16:	f101 7143 	add.w	r1, r1, #51118080	; 0x30c0000
    1a1a:	f501 51f4 	add.w	r1, r1, #7808	; 0x1e80
    1a1e:	3103      	adds	r1, #3
    1a20:	089b      	lsrs	r3, r3, #2
    1a22:	fba1 0303 	umull	r0, r3, r1, r3
    1a26:	0c9b      	lsrs	r3, r3, #18
    1a28:	3b01      	subs	r3, #1
    1a2a:	2102      	movs	r1, #2
    1a2c:	6051      	str	r1, [r2, #4]
    1a2e:	2004      	movs	r0, #4
    1a30:	60d3      	str	r3, [r2, #12]
    1a32:	4908      	ldr	r1, [pc, #32]	; (1a54 <us_ticker_init+0x60>)
    1a34:	6054      	str	r4, [r2, #4]
    1a36:	f7ff fd2f 	bl	1498 <NVIC_SetVector>
    1a3a:	4b07      	ldr	r3, [pc, #28]	; (1a58 <us_ticker_init+0x64>)
    1a3c:	2210      	movs	r2, #16
    1a3e:	601a      	str	r2, [r3, #0]
    1a40:	bd38      	pop	{r3, r4, r5, pc}
    1a42:	bf00      	nop
    1a44:	10000360 	.word	0x10000360
    1a48:	400fc000 	.word	0x400fc000
    1a4c:	40094000 	.word	0x40094000
    1a50:	100000d0 	.word	0x100000d0
    1a54:	00001aa9 	.word	0x00001aa9
    1a58:	e000e100 	.word	0xe000e100

00001a5c <us_ticker_read>:
    1a5c:	b508      	push	{r3, lr}
    1a5e:	4b04      	ldr	r3, [pc, #16]	; (1a70 <us_ticker_read+0x14>)
    1a60:	681b      	ldr	r3, [r3, #0]
    1a62:	b90b      	cbnz	r3, 1a68 <us_ticker_read+0xc>
    1a64:	f7ff ffc6 	bl	19f4 <us_ticker_init>
    1a68:	4b02      	ldr	r3, [pc, #8]	; (1a74 <us_ticker_read+0x18>)
    1a6a:	6898      	ldr	r0, [r3, #8]
    1a6c:	bd08      	pop	{r3, pc}
    1a6e:	bf00      	nop
    1a70:	10000360 	.word	0x10000360
    1a74:	40094000 	.word	0x40094000

00001a78 <us_ticker_set_interrupt>:
    1a78:	4b03      	ldr	r3, [pc, #12]	; (1a88 <us_ticker_set_interrupt+0x10>)
    1a7a:	6198      	str	r0, [r3, #24]
    1a7c:	695a      	ldr	r2, [r3, #20]
    1a7e:	f042 0201 	orr.w	r2, r2, #1
    1a82:	615a      	str	r2, [r3, #20]
    1a84:	4770      	bx	lr
    1a86:	bf00      	nop
    1a88:	40094000 	.word	0x40094000

00001a8c <us_ticker_disable_interrupt>:
    1a8c:	4b02      	ldr	r3, [pc, #8]	; (1a98 <us_ticker_disable_interrupt+0xc>)
    1a8e:	695a      	ldr	r2, [r3, #20]
    1a90:	f022 0201 	bic.w	r2, r2, #1
    1a94:	615a      	str	r2, [r3, #20]
    1a96:	4770      	bx	lr
    1a98:	40094000 	.word	0x40094000

00001a9c <us_ticker_clear_interrupt>:
    1a9c:	4b01      	ldr	r3, [pc, #4]	; (1aa4 <us_ticker_clear_interrupt+0x8>)
    1a9e:	2201      	movs	r2, #1
    1aa0:	601a      	str	r2, [r3, #0]
    1aa2:	4770      	bx	lr
    1aa4:	40094000 	.word	0x40094000

00001aa8 <us_ticker_irq_handler>:
    1aa8:	b5f8      	push	{r3, r4, r5, r6, r7, lr}
    1aaa:	f7ff fff7 	bl	1a9c <us_ticker_clear_interrupt>
    1aae:	4e12      	ldr	r6, [pc, #72]	; (1af8 <us_ticker_irq_handler+0x50>)
    1ab0:	4f12      	ldr	r7, [pc, #72]	; (1afc <us_ticker_irq_handler+0x54>)
    1ab2:	6833      	ldr	r3, [r6, #0]
    1ab4:	b1ab      	cbz	r3, 1ae2 <us_ticker_irq_handler+0x3a>
    1ab6:	e9d3 4500 	ldrd	r4, r5, [r3]
    1aba:	f7ff ffcf 	bl	1a5c <us_ticker_read>
    1abe:	1a22      	subs	r2, r4, r0
    1ac0:	f165 0300 	sbc.w	r3, r5, #0
    1ac4:	4610      	mov	r0, r2
    1ac6:	4619      	mov	r1, r3
    1ac8:	2801      	cmp	r0, #1
    1aca:	f171 0300 	sbcs.w	r3, r1, #0
    1ace:	da0c      	bge.n	1aea <us_ticker_irq_handler+0x42>
    1ad0:	6831      	ldr	r1, [r6, #0]
    1ad2:	683a      	ldr	r2, [r7, #0]
    1ad4:	68cb      	ldr	r3, [r1, #12]
    1ad6:	6033      	str	r3, [r6, #0]
    1ad8:	2a00      	cmp	r2, #0
    1ada:	d0eb      	beq.n	1ab4 <us_ticker_irq_handler+0xc>
    1adc:	6888      	ldr	r0, [r1, #8]
    1ade:	4790      	blx	r2
    1ae0:	e7e7      	b.n	1ab2 <us_ticker_irq_handler+0xa>
    1ae2:	e8bd 40f8 	ldmia.w	sp!, {r3, r4, r5, r6, r7, lr}
    1ae6:	f7ff bfd1 	b.w	1a8c <us_ticker_disable_interrupt>
    1aea:	6833      	ldr	r3, [r6, #0]
    1aec:	e9d3 0100 	ldrd	r0, r1, [r3]
    1af0:	e8bd 40f8 	ldmia.w	sp!, {r3, r4, r5, r6, r7, lr}
    1af4:	f7ff bfc0 	b.w	1a78 <us_ticker_set_interrupt>
    1af8:	10000364 	.word	0x10000364
    1afc:	10000368 	.word	0x10000368

00001b00 <__aeabi_atexit>:
    1b00:	4603      	mov	r3, r0
    1b02:	4608      	mov	r0, r1
    1b04:	4619      	mov	r1, r3
    1b06:	f000 b819 	b.w	1b3c <__cxa_atexit>

00001b0a <operator delete(void*)>:
    1b0a:	b108      	cbz	r0, 1b10 <operator delete(void*)+0x6>
    1b0c:	f7fe bc62 	b.w	3d4 <__wrap_free>
    1b10:	4770      	bx	lr
	...

00001b14 <operator new(unsigned int)>:
    1b14:	b510      	push	{r4, lr}
    1b16:	2800      	cmp	r0, #0
    1b18:	bf14      	ite	ne
    1b1a:	4604      	movne	r4, r0
    1b1c:	2401      	moveq	r4, #1
    1b1e:	4620      	mov	r0, r4
    1b20:	f7fe fc52 	bl	3c8 <__wrap_malloc>
    1b24:	b930      	cbnz	r0, 1b34 <operator new(unsigned int)+0x20>
    1b26:	4b04      	ldr	r3, [pc, #16]	; (1b38 <operator new(unsigned int)+0x24>)
    1b28:	681b      	ldr	r3, [r3, #0]
    1b2a:	b90b      	cbnz	r3, 1b30 <operator new(unsigned int)+0x1c>
    1b2c:	f7fe fc58 	bl	3e0 <abort>
    1b30:	4798      	blx	r3
    1b32:	e7f4      	b.n	1b1e <operator new(unsigned int)+0xa>
    1b34:	bd10      	pop	{r4, pc}
    1b36:	bf00      	nop
    1b38:	1000036c 	.word	0x1000036c

00001b3c <__cxa_atexit>:
    1b3c:	b570      	push	{r4, r5, r6, lr}
    1b3e:	4c06      	ldr	r4, [pc, #24]	; (1b58 <__cxa_atexit+0x1c>)
    1b40:	4606      	mov	r6, r0
    1b42:	460d      	mov	r5, r1
    1b44:	4613      	mov	r3, r2
    1b46:	b12c      	cbz	r4, 1b54 <__cxa_atexit+0x18>
    1b48:	4631      	mov	r1, r6
    1b4a:	462a      	mov	r2, r5
    1b4c:	2002      	movs	r0, #2
    1b4e:	f3af 8000 	nop.w
    1b52:	bd70      	pop	{r4, r5, r6, pc}
    1b54:	4620      	mov	r0, r4
    1b56:	bd70      	pop	{r4, r5, r6, pc}
    1b58:	00000000 	.word	0x00000000

00001b5c <__errno>:
    1b5c:	4b01      	ldr	r3, [pc, #4]	; (1b64 <__errno+0x8>)
    1b5e:	6818      	ldr	r0, [r3, #0]
    1b60:	4770      	bx	lr
    1b62:	bf00      	nop
    1b64:	10000134 	.word	0x10000134

00001b68 <_fclose_r>:
    1b68:	b570      	push	{r4, r5, r6, lr}
    1b6a:	4605      	mov	r5, r0
    1b6c:	460c      	mov	r4, r1
    1b6e:	b909      	cbnz	r1, 1b74 <_fclose_r+0xc>
    1b70:	2000      	movs	r0, #0
    1b72:	bd70      	pop	{r4, r5, r6, pc}
    1b74:	b118      	cbz	r0, 1b7e <_fclose_r+0x16>
    1b76:	6983      	ldr	r3, [r0, #24]
    1b78:	b90b      	cbnz	r3, 1b7e <_fclose_r+0x16>
    1b7a:	f000 f963 	bl	1e44 <__sinit>
    1b7e:	4b20      	ldr	r3, [pc, #128]	; (1c00 <_fclose_r+0x98>)
    1b80:	429c      	cmp	r4, r3
    1b82:	d101      	bne.n	1b88 <_fclose_r+0x20>
    1b84:	686c      	ldr	r4, [r5, #4]
    1b86:	e008      	b.n	1b9a <_fclose_r+0x32>
    1b88:	4b1e      	ldr	r3, [pc, #120]	; (1c04 <_fclose_r+0x9c>)
    1b8a:	429c      	cmp	r4, r3
    1b8c:	d101      	bne.n	1b92 <_fclose_r+0x2a>
    1b8e:	68ac      	ldr	r4, [r5, #8]
    1b90:	e003      	b.n	1b9a <_fclose_r+0x32>
    1b92:	4b1d      	ldr	r3, [pc, #116]	; (1c08 <_fclose_r+0xa0>)
    1b94:	429c      	cmp	r4, r3
    1b96:	bf08      	it	eq
    1b98:	68ec      	ldreq	r4, [r5, #12]
    1b9a:	f9b4 300c 	ldrsh.w	r3, [r4, #12]
    1b9e:	2b00      	cmp	r3, #0
    1ba0:	d0e6      	beq.n	1b70 <_fclose_r+0x8>
    1ba2:	4628      	mov	r0, r5
    1ba4:	4621      	mov	r1, r4
    1ba6:	f000 f8bd 	bl	1d24 <_fflush_r>
    1baa:	6b23      	ldr	r3, [r4, #48]	; 0x30
    1bac:	4606      	mov	r6, r0
    1bae:	b133      	cbz	r3, 1bbe <_fclose_r+0x56>
    1bb0:	4628      	mov	r0, r5
    1bb2:	6a21      	ldr	r1, [r4, #32]
    1bb4:	4798      	blx	r3
    1bb6:	2800      	cmp	r0, #0
    1bb8:	bfb8      	it	lt
    1bba:	f04f 36ff 	movlt.w	r6, #4294967295	; 0xffffffff
    1bbe:	89a3      	ldrh	r3, [r4, #12]
    1bc0:	061b      	lsls	r3, r3, #24
    1bc2:	d503      	bpl.n	1bcc <_fclose_r+0x64>
    1bc4:	4628      	mov	r0, r5
    1bc6:	6921      	ldr	r1, [r4, #16]
    1bc8:	f000 fbca 	bl	2360 <_free_r>
    1bcc:	6b61      	ldr	r1, [r4, #52]	; 0x34
    1bce:	b141      	cbz	r1, 1be2 <_fclose_r+0x7a>
    1bd0:	f104 0344 	add.w	r3, r4, #68	; 0x44
    1bd4:	4299      	cmp	r1, r3
    1bd6:	d002      	beq.n	1bde <_fclose_r+0x76>
    1bd8:	4628      	mov	r0, r5
    1bda:	f000 fbc1 	bl	2360 <_free_r>
    1bde:	2300      	movs	r3, #0
    1be0:	6363      	str	r3, [r4, #52]	; 0x34
    1be2:	6ca1      	ldr	r1, [r4, #72]	; 0x48
    1be4:	b121      	cbz	r1, 1bf0 <_fclose_r+0x88>
    1be6:	4628      	mov	r0, r5
    1be8:	f000 fbba 	bl	2360 <_free_r>
    1bec:	2300      	movs	r3, #0
    1bee:	64a3      	str	r3, [r4, #72]	; 0x48
    1bf0:	f000 f992 	bl	1f18 <__sfp_lock_acquire>
    1bf4:	2300      	movs	r3, #0
    1bf6:	81a3      	strh	r3, [r4, #12]
    1bf8:	f000 f98f 	bl	1f1a <__sfp_lock_release>
    1bfc:	4630      	mov	r0, r6
    1bfe:	bd70      	pop	{r4, r5, r6, pc}
    1c00:	000043d0 	.word	0x000043d0
    1c04:	000043f0 	.word	0x000043f0
    1c08:	00004410 	.word	0x00004410

00001c0c <fclose>:
    1c0c:	4b02      	ldr	r3, [pc, #8]	; (1c18 <fclose+0xc>)
    1c0e:	4601      	mov	r1, r0
    1c10:	6818      	ldr	r0, [r3, #0]
    1c12:	f7ff bfa9 	b.w	1b68 <_fclose_r>
    1c16:	bf00      	nop
    1c18:	10000134 	.word	0x10000134

00001c1c <__sflush_r>:
    1c1c:	898a      	ldrh	r2, [r1, #12]
    1c1e:	e92d 41f0 	stmdb	sp!, {r4, r5, r6, r7, r8, lr}
    1c22:	4605      	mov	r5, r0
    1c24:	0710      	lsls	r0, r2, #28
    1c26:	460c      	mov	r4, r1
    1c28:	d457      	bmi.n	1cda <__sflush_r+0xbe>
    1c2a:	684b      	ldr	r3, [r1, #4]
    1c2c:	2b00      	cmp	r3, #0
    1c2e:	dc02      	bgt.n	1c36 <__sflush_r+0x1a>
    1c30:	6c0b      	ldr	r3, [r1, #64]	; 0x40
    1c32:	2b00      	cmp	r3, #0
    1c34:	dd18      	ble.n	1c68 <__sflush_r+0x4c>
    1c36:	6ae6      	ldr	r6, [r4, #44]	; 0x2c
    1c38:	b1b6      	cbz	r6, 1c68 <__sflush_r+0x4c>
    1c3a:	f402 5280 	and.w	r2, r2, #4096	; 0x1000
    1c3e:	2300      	movs	r3, #0
    1c40:	b292      	uxth	r2, r2
    1c42:	682f      	ldr	r7, [r5, #0]
    1c44:	602b      	str	r3, [r5, #0]
    1c46:	b10a      	cbz	r2, 1c4c <__sflush_r+0x30>
    1c48:	6d62      	ldr	r2, [r4, #84]	; 0x54
    1c4a:	e010      	b.n	1c6e <__sflush_r+0x52>
    1c4c:	6a21      	ldr	r1, [r4, #32]
    1c4e:	4628      	mov	r0, r5
    1c50:	2301      	movs	r3, #1
    1c52:	47b0      	blx	r6
    1c54:	1c41      	adds	r1, r0, #1
    1c56:	4602      	mov	r2, r0
    1c58:	d109      	bne.n	1c6e <__sflush_r+0x52>
    1c5a:	682b      	ldr	r3, [r5, #0]
    1c5c:	b13b      	cbz	r3, 1c6e <__sflush_r+0x52>
    1c5e:	2b1d      	cmp	r3, #29
    1c60:	d001      	beq.n	1c66 <__sflush_r+0x4a>
    1c62:	2b16      	cmp	r3, #22
    1c64:	d146      	bne.n	1cf4 <__sflush_r+0xd8>
    1c66:	602f      	str	r7, [r5, #0]
    1c68:	2000      	movs	r0, #0
    1c6a:	e8bd 81f0 	ldmia.w	sp!, {r4, r5, r6, r7, r8, pc}
    1c6e:	89a3      	ldrh	r3, [r4, #12]
    1c70:	075b      	lsls	r3, r3, #29
    1c72:	d505      	bpl.n	1c80 <__sflush_r+0x64>
    1c74:	6863      	ldr	r3, [r4, #4]
    1c76:	1ad2      	subs	r2, r2, r3
    1c78:	6b63      	ldr	r3, [r4, #52]	; 0x34
    1c7a:	b10b      	cbz	r3, 1c80 <__sflush_r+0x64>
    1c7c:	6c23      	ldr	r3, [r4, #64]	; 0x40
    1c7e:	1ad2      	subs	r2, r2, r3
    1c80:	6ae6      	ldr	r6, [r4, #44]	; 0x2c
    1c82:	4628      	mov	r0, r5
    1c84:	6a21      	ldr	r1, [r4, #32]
    1c86:	2300      	movs	r3, #0
    1c88:	47b0      	blx	r6
    1c8a:	1c46      	adds	r6, r0, #1
    1c8c:	89a2      	ldrh	r2, [r4, #12]
    1c8e:	d105      	bne.n	1c9c <__sflush_r+0x80>
    1c90:	682b      	ldr	r3, [r5, #0]
    1c92:	b11b      	cbz	r3, 1c9c <__sflush_r+0x80>
    1c94:	2b1d      	cmp	r3, #29
    1c96:	d001      	beq.n	1c9c <__sflush_r+0x80>
    1c98:	2b16      	cmp	r3, #22
    1c9a:	d119      	bne.n	1cd0 <__sflush_r+0xb4>
    1c9c:	2300      	movs	r3, #0
    1c9e:	6063      	str	r3, [r4, #4]
    1ca0:	6923      	ldr	r3, [r4, #16]
    1ca2:	04d1      	lsls	r1, r2, #19
    1ca4:	6023      	str	r3, [r4, #0]
    1ca6:	d504      	bpl.n	1cb2 <__sflush_r+0x96>
    1ca8:	1c42      	adds	r2, r0, #1
    1caa:	d101      	bne.n	1cb0 <__sflush_r+0x94>
    1cac:	682b      	ldr	r3, [r5, #0]
    1cae:	b903      	cbnz	r3, 1cb2 <__sflush_r+0x96>
    1cb0:	6560      	str	r0, [r4, #84]	; 0x54
    1cb2:	6b61      	ldr	r1, [r4, #52]	; 0x34
    1cb4:	602f      	str	r7, [r5, #0]
    1cb6:	2900      	cmp	r1, #0
    1cb8:	d0d6      	beq.n	1c68 <__sflush_r+0x4c>
    1cba:	f104 0344 	add.w	r3, r4, #68	; 0x44
    1cbe:	4299      	cmp	r1, r3
    1cc0:	d002      	beq.n	1cc8 <__sflush_r+0xac>
    1cc2:	4628      	mov	r0, r5
    1cc4:	f000 fb4c 	bl	2360 <_free_r>
    1cc8:	2000      	movs	r0, #0
    1cca:	6360      	str	r0, [r4, #52]	; 0x34
    1ccc:	e8bd 81f0 	ldmia.w	sp!, {r4, r5, r6, r7, r8, pc}
    1cd0:	f042 0240 	orr.w	r2, r2, #64	; 0x40
    1cd4:	81a2      	strh	r2, [r4, #12]
    1cd6:	e8bd 81f0 	ldmia.w	sp!, {r4, r5, r6, r7, r8, pc}
    1cda:	690e      	ldr	r6, [r1, #16]
    1cdc:	2e00      	cmp	r6, #0
    1cde:	d0c3      	beq.n	1c68 <__sflush_r+0x4c>
    1ce0:	680b      	ldr	r3, [r1, #0]
    1ce2:	600e      	str	r6, [r1, #0]
    1ce4:	ebc6 0803 	rsb	r8, r6, r3
    1ce8:	0793      	lsls	r3, r2, #30
    1cea:	bf0c      	ite	eq
    1cec:	694b      	ldreq	r3, [r1, #20]
    1cee:	2300      	movne	r3, #0
    1cf0:	608b      	str	r3, [r1, #8]
    1cf2:	e012      	b.n	1d1a <__sflush_r+0xfe>
    1cf4:	89a3      	ldrh	r3, [r4, #12]
    1cf6:	f04f 30ff 	mov.w	r0, #4294967295	; 0xffffffff
    1cfa:	f043 0340 	orr.w	r3, r3, #64	; 0x40
    1cfe:	81a3      	strh	r3, [r4, #12]
    1d00:	e8bd 81f0 	ldmia.w	sp!, {r4, r5, r6, r7, r8, pc}
    1d04:	6aa7      	ldr	r7, [r4, #40]	; 0x28
    1d06:	4628      	mov	r0, r5
    1d08:	6a21      	ldr	r1, [r4, #32]
    1d0a:	4632      	mov	r2, r6
    1d0c:	4643      	mov	r3, r8
    1d0e:	47b8      	blx	r7
    1d10:	2800      	cmp	r0, #0
    1d12:	ddef      	ble.n	1cf4 <__sflush_r+0xd8>
    1d14:	4406      	add	r6, r0
    1d16:	ebc0 0808 	rsb	r8, r0, r8
    1d1a:	f1b8 0f00 	cmp.w	r8, #0
    1d1e:	dcf1      	bgt.n	1d04 <__sflush_r+0xe8>
    1d20:	e7a2      	b.n	1c68 <__sflush_r+0x4c>
	...

00001d24 <_fflush_r>:
    1d24:	b538      	push	{r3, r4, r5, lr}
    1d26:	690b      	ldr	r3, [r1, #16]
    1d28:	4605      	mov	r5, r0
    1d2a:	460c      	mov	r4, r1
    1d2c:	b1db      	cbz	r3, 1d66 <_fflush_r+0x42>
    1d2e:	b118      	cbz	r0, 1d38 <_fflush_r+0x14>
    1d30:	6983      	ldr	r3, [r0, #24]
    1d32:	b90b      	cbnz	r3, 1d38 <_fflush_r+0x14>
    1d34:	f000 f886 	bl	1e44 <__sinit>
    1d38:	4b0c      	ldr	r3, [pc, #48]	; (1d6c <_fflush_r+0x48>)
    1d3a:	429c      	cmp	r4, r3
    1d3c:	d101      	bne.n	1d42 <_fflush_r+0x1e>
    1d3e:	686c      	ldr	r4, [r5, #4]
    1d40:	e008      	b.n	1d54 <_fflush_r+0x30>
    1d42:	4b0b      	ldr	r3, [pc, #44]	; (1d70 <_fflush_r+0x4c>)
    1d44:	429c      	cmp	r4, r3
    1d46:	d101      	bne.n	1d4c <_fflush_r+0x28>
    1d48:	68ac      	ldr	r4, [r5, #8]
    1d4a:	e003      	b.n	1d54 <_fflush_r+0x30>
    1d4c:	4b09      	ldr	r3, [pc, #36]	; (1d74 <_fflush_r+0x50>)
    1d4e:	429c      	cmp	r4, r3
    1d50:	bf08      	it	eq
    1d52:	68ec      	ldreq	r4, [r5, #12]
    1d54:	f9b4 300c 	ldrsh.w	r3, [r4, #12]
    1d58:	b12b      	cbz	r3, 1d66 <_fflush_r+0x42>
    1d5a:	4628      	mov	r0, r5
    1d5c:	4621      	mov	r1, r4
    1d5e:	e8bd 4038 	ldmia.w	sp!, {r3, r4, r5, lr}
    1d62:	f7ff bf5b 	b.w	1c1c <__sflush_r>
    1d66:	2000      	movs	r0, #0
    1d68:	bd38      	pop	{r3, r4, r5, pc}
    1d6a:	bf00      	nop
    1d6c:	000043d0 	.word	0x000043d0
    1d70:	000043f0 	.word	0x000043f0
    1d74:	00004410 	.word	0x00004410

00001d78 <fflush>:
    1d78:	4601      	mov	r1, r0
    1d7a:	b920      	cbnz	r0, 1d86 <fflush+0xe>
    1d7c:	4b04      	ldr	r3, [pc, #16]	; (1d90 <fflush+0x18>)
    1d7e:	4905      	ldr	r1, [pc, #20]	; (1d94 <fflush+0x1c>)
    1d80:	6818      	ldr	r0, [r3, #0]
    1d82:	f000 ba45 	b.w	2210 <_fwalk_reent>
    1d86:	4b04      	ldr	r3, [pc, #16]	; (1d98 <fflush+0x20>)
    1d88:	6818      	ldr	r0, [r3, #0]
    1d8a:	f7ff bfcb 	b.w	1d24 <_fflush_r>
    1d8e:	bf00      	nop
    1d90:	00004434 	.word	0x00004434
    1d94:	00001d25 	.word	0x00001d25
    1d98:	10000134 	.word	0x10000134

00001d9c <_cleanup_r>:
    1d9c:	b5f8      	push	{r3, r4, r5, r6, r7, lr}
    1d9e:	4607      	mov	r7, r0
    1da0:	f100 0448 	add.w	r4, r0, #72	; 0x48
    1da4:	b194      	cbz	r4, 1dcc <_cleanup_r+0x30>
    1da6:	68a5      	ldr	r5, [r4, #8]
    1da8:	6866      	ldr	r6, [r4, #4]
    1daa:	3e01      	subs	r6, #1
    1dac:	d40c      	bmi.n	1dc8 <_cleanup_r+0x2c>
    1dae:	89ab      	ldrh	r3, [r5, #12]
    1db0:	2b01      	cmp	r3, #1
    1db2:	d907      	bls.n	1dc4 <_cleanup_r+0x28>
    1db4:	f9b5 300e 	ldrsh.w	r3, [r5, #14]
    1db8:	3301      	adds	r3, #1
    1dba:	d003      	beq.n	1dc4 <_cleanup_r+0x28>
    1dbc:	4638      	mov	r0, r7
    1dbe:	4629      	mov	r1, r5
    1dc0:	f7ff ffb0 	bl	1d24 <_fflush_r>
    1dc4:	3568      	adds	r5, #104	; 0x68
    1dc6:	e7f0      	b.n	1daa <_cleanup_r+0xe>
    1dc8:	6824      	ldr	r4, [r4, #0]
    1dca:	e7eb      	b.n	1da4 <_cleanup_r+0x8>
    1dcc:	bdf8      	pop	{r3, r4, r5, r6, r7, pc}
	...

00001dd0 <std.isra.0>:
    1dd0:	2300      	movs	r3, #0
    1dd2:	b510      	push	{r4, lr}
    1dd4:	4604      	mov	r4, r0
    1dd6:	6003      	str	r3, [r0, #0]
    1dd8:	6043      	str	r3, [r0, #4]
    1dda:	6083      	str	r3, [r0, #8]
    1ddc:	8181      	strh	r1, [r0, #12]
    1dde:	6643      	str	r3, [r0, #100]	; 0x64
    1de0:	81c2      	strh	r2, [r0, #14]
    1de2:	6103      	str	r3, [r0, #16]
    1de4:	6143      	str	r3, [r0, #20]
    1de6:	6183      	str	r3, [r0, #24]
    1de8:	4619      	mov	r1, r3
    1dea:	305c      	adds	r0, #92	; 0x5c
    1dec:	2208      	movs	r2, #8
    1dee:	f000 faaf 	bl	2350 <memset>
    1df2:	4b05      	ldr	r3, [pc, #20]	; (1e08 <std.isra.0+0x38>)
    1df4:	6224      	str	r4, [r4, #32]
    1df6:	6263      	str	r3, [r4, #36]	; 0x24
    1df8:	4b04      	ldr	r3, [pc, #16]	; (1e0c <std.isra.0+0x3c>)
    1dfa:	62a3      	str	r3, [r4, #40]	; 0x28
    1dfc:	4b04      	ldr	r3, [pc, #16]	; (1e10 <std.isra.0+0x40>)
    1dfe:	62e3      	str	r3, [r4, #44]	; 0x2c
    1e00:	4b04      	ldr	r3, [pc, #16]	; (1e14 <std.isra.0+0x44>)
    1e02:	6323      	str	r3, [r4, #48]	; 0x30
    1e04:	bd10      	pop	{r4, pc}
    1e06:	bf00      	nop
    1e08:	00002629 	.word	0x00002629
    1e0c:	0000264f 	.word	0x0000264f
    1e10:	00002687 	.word	0x00002687
    1e14:	000026ab 	.word	0x000026ab

00001e18 <__sfmoreglue>:
    1e18:	b570      	push	{r4, r5, r6, lr}
    1e1a:	1e4b      	subs	r3, r1, #1
    1e1c:	2568      	movs	r5, #104	; 0x68
    1e1e:	435d      	muls	r5, r3
    1e20:	460e      	mov	r6, r1
    1e22:	f105 0174 	add.w	r1, r5, #116	; 0x74
    1e26:	f000 fadf 	bl	23e8 <_malloc_r>
    1e2a:	4604      	mov	r4, r0
    1e2c:	b140      	cbz	r0, 1e40 <__sfmoreglue+0x28>
    1e2e:	2100      	movs	r1, #0
    1e30:	e880 0042 	stmia.w	r0, {r1, r6}
    1e34:	300c      	adds	r0, #12
    1e36:	60a0      	str	r0, [r4, #8]
    1e38:	f105 0268 	add.w	r2, r5, #104	; 0x68
    1e3c:	f000 fa88 	bl	2350 <memset>
    1e40:	4620      	mov	r0, r4
    1e42:	bd70      	pop	{r4, r5, r6, pc}

00001e44 <__sinit>:
    1e44:	6983      	ldr	r3, [r0, #24]
    1e46:	b510      	push	{r4, lr}
    1e48:	4604      	mov	r4, r0
    1e4a:	bb33      	cbnz	r3, 1e9a <__sinit+0x56>
    1e4c:	6483      	str	r3, [r0, #72]	; 0x48
    1e4e:	64c3      	str	r3, [r0, #76]	; 0x4c
    1e50:	6503      	str	r3, [r0, #80]	; 0x50
    1e52:	4b12      	ldr	r3, [pc, #72]	; (1e9c <__sinit+0x58>)
    1e54:	4a12      	ldr	r2, [pc, #72]	; (1ea0 <__sinit+0x5c>)
    1e56:	681b      	ldr	r3, [r3, #0]
    1e58:	6282      	str	r2, [r0, #40]	; 0x28
    1e5a:	4298      	cmp	r0, r3
    1e5c:	bf04      	itt	eq
    1e5e:	2301      	moveq	r3, #1
    1e60:	6183      	streq	r3, [r0, #24]
    1e62:	f000 f81f 	bl	1ea4 <__sfp>
    1e66:	6060      	str	r0, [r4, #4]
    1e68:	4620      	mov	r0, r4
    1e6a:	f000 f81b 	bl	1ea4 <__sfp>
    1e6e:	60a0      	str	r0, [r4, #8]
    1e70:	4620      	mov	r0, r4
    1e72:	f000 f817 	bl	1ea4 <__sfp>
    1e76:	2104      	movs	r1, #4
    1e78:	60e0      	str	r0, [r4, #12]
    1e7a:	2200      	movs	r2, #0
    1e7c:	6860      	ldr	r0, [r4, #4]
    1e7e:	f7ff ffa7 	bl	1dd0 <std.isra.0>
    1e82:	68a0      	ldr	r0, [r4, #8]
    1e84:	2109      	movs	r1, #9
    1e86:	2201      	movs	r2, #1
    1e88:	f7ff ffa2 	bl	1dd0 <std.isra.0>
    1e8c:	68e0      	ldr	r0, [r4, #12]
    1e8e:	2112      	movs	r1, #18
    1e90:	2202      	movs	r2, #2
    1e92:	f7ff ff9d 	bl	1dd0 <std.isra.0>
    1e96:	2301      	movs	r3, #1
    1e98:	61a3      	str	r3, [r4, #24]
    1e9a:	bd10      	pop	{r4, pc}
    1e9c:	00004434 	.word	0x00004434
    1ea0:	00001d9d 	.word	0x00001d9d

00001ea4 <__sfp>:
    1ea4:	b5f8      	push	{r3, r4, r5, r6, r7, lr}
    1ea6:	4b1b      	ldr	r3, [pc, #108]	; (1f14 <__sfp+0x70>)
    1ea8:	4607      	mov	r7, r0
    1eaa:	681e      	ldr	r6, [r3, #0]
    1eac:	69b3      	ldr	r3, [r6, #24]
    1eae:	b913      	cbnz	r3, 1eb6 <__sfp+0x12>
    1eb0:	4630      	mov	r0, r6
    1eb2:	f7ff ffc7 	bl	1e44 <__sinit>
    1eb6:	3648      	adds	r6, #72	; 0x48
    1eb8:	68b4      	ldr	r4, [r6, #8]
    1eba:	6873      	ldr	r3, [r6, #4]
    1ebc:	3b01      	subs	r3, #1
    1ebe:	d404      	bmi.n	1eca <__sfp+0x26>
    1ec0:	f9b4 500c 	ldrsh.w	r5, [r4, #12]
    1ec4:	b175      	cbz	r5, 1ee4 <__sfp+0x40>
    1ec6:	3468      	adds	r4, #104	; 0x68
    1ec8:	e7f8      	b.n	1ebc <__sfp+0x18>
    1eca:	6833      	ldr	r3, [r6, #0]
    1ecc:	b92b      	cbnz	r3, 1eda <__sfp+0x36>
    1ece:	4638      	mov	r0, r7
    1ed0:	2104      	movs	r1, #4
    1ed2:	f7ff ffa1 	bl	1e18 <__sfmoreglue>
    1ed6:	6030      	str	r0, [r6, #0]
    1ed8:	b108      	cbz	r0, 1ede <__sfp+0x3a>
    1eda:	6836      	ldr	r6, [r6, #0]
    1edc:	e7ec      	b.n	1eb8 <__sfp+0x14>
    1ede:	230c      	movs	r3, #12
    1ee0:	603b      	str	r3, [r7, #0]
    1ee2:	bdf8      	pop	{r3, r4, r5, r6, r7, pc}
    1ee4:	f64f 73ff 	movw	r3, #65535	; 0xffff
    1ee8:	81e3      	strh	r3, [r4, #14]
    1eea:	2301      	movs	r3, #1
    1eec:	81a3      	strh	r3, [r4, #12]
    1eee:	6665      	str	r5, [r4, #100]	; 0x64
    1ef0:	6025      	str	r5, [r4, #0]
    1ef2:	60a5      	str	r5, [r4, #8]
    1ef4:	6065      	str	r5, [r4, #4]
    1ef6:	6125      	str	r5, [r4, #16]
    1ef8:	6165      	str	r5, [r4, #20]
    1efa:	61a5      	str	r5, [r4, #24]
    1efc:	f104 005c 	add.w	r0, r4, #92	; 0x5c
    1f00:	4629      	mov	r1, r5
    1f02:	2208      	movs	r2, #8
    1f04:	f000 fa24 	bl	2350 <memset>
    1f08:	6365      	str	r5, [r4, #52]	; 0x34
    1f0a:	63a5      	str	r5, [r4, #56]	; 0x38
    1f0c:	64a5      	str	r5, [r4, #72]	; 0x48
    1f0e:	64e5      	str	r5, [r4, #76]	; 0x4c
    1f10:	4620      	mov	r0, r4
    1f12:	bdf8      	pop	{r3, r4, r5, r6, r7, pc}
    1f14:	00004434 	.word	0x00004434

00001f18 <__sfp_lock_acquire>:
    1f18:	4770      	bx	lr

00001f1a <__sfp_lock_release>:
    1f1a:	4770      	bx	lr

00001f1c <_fopen_r>:
    1f1c:	b5f7      	push	{r0, r1, r2, r4, r5, r6, r7, lr}
    1f1e:	460f      	mov	r7, r1
    1f20:	4611      	mov	r1, r2
    1f22:	aa01      	add	r2, sp, #4
    1f24:	4605      	mov	r5, r0
    1f26:	f001 fcc3 	bl	38b0 <__sflags>
    1f2a:	4606      	mov	r6, r0
    1f2c:	b908      	cbnz	r0, 1f32 <_fopen_r+0x16>
    1f2e:	2000      	movs	r0, #0
    1f30:	e029      	b.n	1f86 <_fopen_r+0x6a>
    1f32:	4628      	mov	r0, r5
    1f34:	f7ff ffb6 	bl	1ea4 <__sfp>
    1f38:	4604      	mov	r4, r0
    1f3a:	2800      	cmp	r0, #0
    1f3c:	d0f7      	beq.n	1f2e <_fopen_r+0x12>
    1f3e:	4628      	mov	r0, r5
    1f40:	4639      	mov	r1, r7
    1f42:	9a01      	ldr	r2, [sp, #4]
    1f44:	f44f 73db 	mov.w	r3, #438	; 0x1b6
    1f48:	f000 faa2 	bl	2490 <_open_r>
    1f4c:	2800      	cmp	r0, #0
    1f4e:	da06      	bge.n	1f5e <_fopen_r+0x42>
    1f50:	2500      	movs	r5, #0
    1f52:	f7ff ffe1 	bl	1f18 <__sfp_lock_acquire>
    1f56:	81a5      	strh	r5, [r4, #12]
    1f58:	f7ff ffdf 	bl	1f1a <__sfp_lock_release>
    1f5c:	e7e7      	b.n	1f2e <_fopen_r+0x12>
    1f5e:	4b0b      	ldr	r3, [pc, #44]	; (1f8c <_fopen_r+0x70>)
    1f60:	81e0      	strh	r0, [r4, #14]
    1f62:	6263      	str	r3, [r4, #36]	; 0x24
    1f64:	4b0a      	ldr	r3, [pc, #40]	; (1f90 <_fopen_r+0x74>)
    1f66:	81a6      	strh	r6, [r4, #12]
    1f68:	62a3      	str	r3, [r4, #40]	; 0x28
    1f6a:	4b0a      	ldr	r3, [pc, #40]	; (1f94 <_fopen_r+0x78>)
    1f6c:	6224      	str	r4, [r4, #32]
    1f6e:	62e3      	str	r3, [r4, #44]	; 0x2c
    1f70:	4b09      	ldr	r3, [pc, #36]	; (1f98 <_fopen_r+0x7c>)
    1f72:	6323      	str	r3, [r4, #48]	; 0x30
    1f74:	05f3      	lsls	r3, r6, #23
    1f76:	d505      	bpl.n	1f84 <_fopen_r+0x68>
    1f78:	4628      	mov	r0, r5
    1f7a:	4621      	mov	r1, r4
    1f7c:	2200      	movs	r2, #0
    1f7e:	2302      	movs	r3, #2
    1f80:	f000 f83a 	bl	1ff8 <_fseek_r>
    1f84:	4620      	mov	r0, r4
    1f86:	b003      	add	sp, #12
    1f88:	bdf0      	pop	{r4, r5, r6, r7, pc}
    1f8a:	bf00      	nop
    1f8c:	00002629 	.word	0x00002629
    1f90:	0000264f 	.word	0x0000264f
    1f94:	00002687 	.word	0x00002687
    1f98:	000026ab 	.word	0x000026ab

00001f9c <fopen>:
    1f9c:	460a      	mov	r2, r1
    1f9e:	4903      	ldr	r1, [pc, #12]	; (1fac <fopen+0x10>)
    1fa0:	4603      	mov	r3, r0
    1fa2:	6808      	ldr	r0, [r1, #0]
    1fa4:	4619      	mov	r1, r3
    1fa6:	f7ff bfb9 	b.w	1f1c <_fopen_r>
    1faa:	bf00      	nop
    1fac:	10000134 	.word	0x10000134

00001fb0 <fiprintf>:
    1fb0:	b40e      	push	{r1, r2, r3}
    1fb2:	b503      	push	{r0, r1, lr}
    1fb4:	4601      	mov	r1, r0
    1fb6:	ab03      	add	r3, sp, #12
    1fb8:	4805      	ldr	r0, [pc, #20]	; (1fd0 <fiprintf+0x20>)
    1fba:	f853 2b04 	ldr.w	r2, [r3], #4
    1fbe:	6800      	ldr	r0, [r0, #0]
    1fc0:	9301      	str	r3, [sp, #4]
    1fc2:	f000 fe2d 	bl	2c20 <_vfiprintf_r>
    1fc6:	b002      	add	sp, #8
    1fc8:	f85d eb04 	ldr.w	lr, [sp], #4
    1fcc:	b003      	add	sp, #12
    1fce:	4770      	bx	lr
    1fd0:	10000134 	.word	0x10000134

00001fd4 <fiscanf>:
    1fd4:	b40e      	push	{r1, r2, r3}
    1fd6:	b503      	push	{r0, r1, lr}
    1fd8:	4601      	mov	r1, r0
    1fda:	ab03      	add	r3, sp, #12
    1fdc:	4805      	ldr	r0, [pc, #20]	; (1ff4 <fiscanf+0x20>)
    1fde:	f853 2b04 	ldr.w	r2, [r3], #4
    1fe2:	6800      	ldr	r0, [r0, #0]
    1fe4:	9301      	str	r3, [sp, #4]
    1fe6:	f001 fa01 	bl	33ec <_vfiscanf_r>
    1fea:	b002      	add	sp, #8
    1fec:	f85d eb04 	ldr.w	lr, [sp], #4
    1ff0:	b003      	add	sp, #12
    1ff2:	4770      	bx	lr
    1ff4:	10000134 	.word	0x10000134

00001ff8 <_fseek_r>:
    1ff8:	f000 b80e 	b.w	2018 <_fseeko_r>

00001ffc <fseek>:
    1ffc:	b530      	push	{r4, r5, lr}
    1ffe:	4613      	mov	r3, r2
    2000:	4a04      	ldr	r2, [pc, #16]	; (2014 <fseek+0x18>)
    2002:	4605      	mov	r5, r0
    2004:	460c      	mov	r4, r1
    2006:	6810      	ldr	r0, [r2, #0]
    2008:	4629      	mov	r1, r5
    200a:	4622      	mov	r2, r4
    200c:	e8bd 4030 	ldmia.w	sp!, {r4, r5, lr}
    2010:	f000 b802 	b.w	2018 <_fseeko_r>
    2014:	10000134 	.word	0x10000134

00002018 <_fseeko_r>:
    2018:	e92d 43f8 	stmdb	sp!, {r3, r4, r5, r6, r7, r8, r9, lr}
    201c:	460c      	mov	r4, r1
    201e:	4691      	mov	r9, r2
    2020:	461e      	mov	r6, r3
    2022:	4605      	mov	r5, r0
    2024:	b118      	cbz	r0, 202e <_fseeko_r+0x16>
    2026:	6983      	ldr	r3, [r0, #24]
    2028:	b90b      	cbnz	r3, 202e <_fseeko_r+0x16>
    202a:	f7ff ff0b 	bl	1e44 <__sinit>
    202e:	4b3e      	ldr	r3, [pc, #248]	; (2128 <_fseeko_r+0x110>)
    2030:	429c      	cmp	r4, r3
    2032:	d101      	bne.n	2038 <_fseeko_r+0x20>
    2034:	686c      	ldr	r4, [r5, #4]
    2036:	e008      	b.n	204a <_fseeko_r+0x32>
    2038:	4b3c      	ldr	r3, [pc, #240]	; (212c <_fseeko_r+0x114>)
    203a:	429c      	cmp	r4, r3
    203c:	d101      	bne.n	2042 <_fseeko_r+0x2a>
    203e:	68ac      	ldr	r4, [r5, #8]
    2040:	e003      	b.n	204a <_fseeko_r+0x32>
    2042:	4b3b      	ldr	r3, [pc, #236]	; (2130 <_fseeko_r+0x118>)
    2044:	429c      	cmp	r4, r3
    2046:	bf08      	it	eq
    2048:	68ec      	ldreq	r4, [r5, #12]
    204a:	89a3      	ldrh	r3, [r4, #12]
    204c:	f403 7384 	and.w	r3, r3, #264	; 0x108
    2050:	f5b3 7f84 	cmp.w	r3, #264	; 0x108
    2054:	d103      	bne.n	205e <_fseeko_r+0x46>
    2056:	4628      	mov	r0, r5
    2058:	4621      	mov	r1, r4
    205a:	f7ff fe63 	bl	1d24 <_fflush_r>
    205e:	f8d4 802c 	ldr.w	r8, [r4, #44]	; 0x2c
    2062:	231d      	movs	r3, #29
    2064:	f1b8 0f00 	cmp.w	r8, #0
    2068:	d02b      	beq.n	20c2 <_fseeko_r+0xaa>
    206a:	2e01      	cmp	r6, #1
    206c:	d004      	beq.n	2078 <_fseeko_r+0x60>
    206e:	2e02      	cmp	r6, #2
    2070:	d02b      	beq.n	20ca <_fseeko_r+0xb2>
    2072:	b356      	cbz	r6, 20ca <_fseeko_r+0xb2>
    2074:	2316      	movs	r3, #22
    2076:	e024      	b.n	20c2 <_fseeko_r+0xaa>
    2078:	4628      	mov	r0, r5
    207a:	4621      	mov	r1, r4
    207c:	f7ff fe52 	bl	1d24 <_fflush_r>
    2080:	89a2      	ldrh	r2, [r4, #12]
    2082:	f402 5280 	and.w	r2, r2, #4096	; 0x1000
    2086:	b292      	uxth	r2, r2
    2088:	b10a      	cbz	r2, 208e <_fseeko_r+0x76>
    208a:	6d60      	ldr	r0, [r4, #84]	; 0x54
    208c:	e005      	b.n	209a <_fseeko_r+0x82>
    208e:	6a21      	ldr	r1, [r4, #32]
    2090:	4628      	mov	r0, r5
    2092:	4633      	mov	r3, r6
    2094:	47c0      	blx	r8
    2096:	1c41      	adds	r1, r0, #1
    2098:	d014      	beq.n	20c4 <_fseeko_r+0xac>
    209a:	89a3      	ldrh	r3, [r4, #12]
    209c:	075a      	lsls	r2, r3, #29
    209e:	d506      	bpl.n	20ae <_fseeko_r+0x96>
    20a0:	6863      	ldr	r3, [r4, #4]
    20a2:	1ac0      	subs	r0, r0, r3
    20a4:	6b63      	ldr	r3, [r4, #52]	; 0x34
    20a6:	b14b      	cbz	r3, 20bc <_fseeko_r+0xa4>
    20a8:	6c23      	ldr	r3, [r4, #64]	; 0x40
    20aa:	1ac0      	subs	r0, r0, r3
    20ac:	e006      	b.n	20bc <_fseeko_r+0xa4>
    20ae:	071b      	lsls	r3, r3, #28
    20b0:	d504      	bpl.n	20bc <_fseeko_r+0xa4>
    20b2:	6823      	ldr	r3, [r4, #0]
    20b4:	b113      	cbz	r3, 20bc <_fseeko_r+0xa4>
    20b6:	6922      	ldr	r2, [r4, #16]
    20b8:	1a9b      	subs	r3, r3, r2
    20ba:	4418      	add	r0, r3
    20bc:	4481      	add	r9, r0
    20be:	2600      	movs	r6, #0
    20c0:	e003      	b.n	20ca <_fseeko_r+0xb2>
    20c2:	602b      	str	r3, [r5, #0]
    20c4:	f04f 37ff 	mov.w	r7, #4294967295	; 0xffffffff
    20c8:	e02b      	b.n	2122 <_fseeko_r+0x10a>
    20ca:	6923      	ldr	r3, [r4, #16]
    20cc:	b91b      	cbnz	r3, 20d6 <_fseeko_r+0xbe>
    20ce:	4628      	mov	r0, r5
    20d0:	4621      	mov	r1, r4
    20d2:	f000 f8e1 	bl	2298 <__smakebuf_r>
    20d6:	4628      	mov	r0, r5
    20d8:	4621      	mov	r1, r4
    20da:	f7ff fe23 	bl	1d24 <_fflush_r>
    20de:	4607      	mov	r7, r0
    20e0:	2800      	cmp	r0, #0
    20e2:	d1ef      	bne.n	20c4 <_fseeko_r+0xac>
    20e4:	4628      	mov	r0, r5
    20e6:	6a21      	ldr	r1, [r4, #32]
    20e8:	464a      	mov	r2, r9
    20ea:	4633      	mov	r3, r6
    20ec:	47c0      	blx	r8
    20ee:	3001      	adds	r0, #1
    20f0:	d0e8      	beq.n	20c4 <_fseeko_r+0xac>
    20f2:	6b61      	ldr	r1, [r4, #52]	; 0x34
    20f4:	b141      	cbz	r1, 2108 <_fseeko_r+0xf0>
    20f6:	f104 0344 	add.w	r3, r4, #68	; 0x44
    20fa:	4299      	cmp	r1, r3
    20fc:	d002      	beq.n	2104 <_fseeko_r+0xec>
    20fe:	4628      	mov	r0, r5
    2100:	f000 f92e 	bl	2360 <_free_r>
    2104:	2300      	movs	r3, #0
    2106:	6363      	str	r3, [r4, #52]	; 0x34
    2108:	6923      	ldr	r3, [r4, #16]
    210a:	2100      	movs	r1, #0
    210c:	6023      	str	r3, [r4, #0]
    210e:	89a3      	ldrh	r3, [r4, #12]
    2110:	6061      	str	r1, [r4, #4]
    2112:	f423 6302 	bic.w	r3, r3, #2080	; 0x820
    2116:	81a3      	strh	r3, [r4, #12]
    2118:	f104 005c 	add.w	r0, r4, #92	; 0x5c
    211c:	2208      	movs	r2, #8
    211e:	f000 f917 	bl	2350 <memset>
    2122:	4638      	mov	r0, r7
    2124:	e8bd 83f8 	ldmia.w	sp!, {r3, r4, r5, r6, r7, r8, r9, pc}
    2128:	000043d0 	.word	0x000043d0
    212c:	000043f0 	.word	0x000043f0
    2130:	00004410 	.word	0x00004410

00002134 <ftell>:
    2134:	4b02      	ldr	r3, [pc, #8]	; (2140 <ftell+0xc>)
    2136:	4601      	mov	r1, r0
    2138:	6818      	ldr	r0, [r3, #0]
    213a:	f000 b803 	b.w	2144 <_ftello_r>
    213e:	bf00      	nop
    2140:	10000134 	.word	0x10000134

00002144 <_ftello_r>:
    2144:	b570      	push	{r4, r5, r6, lr}
    2146:	460c      	mov	r4, r1
    2148:	4605      	mov	r5, r0
    214a:	b118      	cbz	r0, 2154 <_ftello_r+0x10>
    214c:	6983      	ldr	r3, [r0, #24]
    214e:	b90b      	cbnz	r3, 2154 <_ftello_r+0x10>
    2150:	f7ff fe78 	bl	1e44 <__sinit>
    2154:	4b1d      	ldr	r3, [pc, #116]	; (21cc <_ftello_r+0x88>)
    2156:	429c      	cmp	r4, r3
    2158:	d101      	bne.n	215e <_ftello_r+0x1a>
    215a:	686c      	ldr	r4, [r5, #4]
    215c:	e008      	b.n	2170 <_ftello_r+0x2c>
    215e:	4b1c      	ldr	r3, [pc, #112]	; (21d0 <_ftello_r+0x8c>)
    2160:	429c      	cmp	r4, r3
    2162:	d101      	bne.n	2168 <_ftello_r+0x24>
    2164:	68ac      	ldr	r4, [r5, #8]
    2166:	e003      	b.n	2170 <_ftello_r+0x2c>
    2168:	4b1a      	ldr	r3, [pc, #104]	; (21d4 <_ftello_r+0x90>)
    216a:	429c      	cmp	r4, r3
    216c:	bf08      	it	eq
    216e:	68ec      	ldreq	r4, [r5, #12]
    2170:	6ae3      	ldr	r3, [r4, #44]	; 0x2c
    2172:	b923      	cbnz	r3, 217e <_ftello_r+0x3a>
    2174:	231d      	movs	r3, #29
    2176:	602b      	str	r3, [r5, #0]
    2178:	f04f 30ff 	mov.w	r0, #4294967295	; 0xffffffff
    217c:	bd70      	pop	{r4, r5, r6, pc}
    217e:	89a3      	ldrh	r3, [r4, #12]
    2180:	0718      	lsls	r0, r3, #28
    2182:	d503      	bpl.n	218c <_ftello_r+0x48>
    2184:	4628      	mov	r0, r5
    2186:	4621      	mov	r1, r4
    2188:	f7ff fdcc 	bl	1d24 <_fflush_r>
    218c:	89a2      	ldrh	r2, [r4, #12]
    218e:	f402 5280 	and.w	r2, r2, #4096	; 0x1000
    2192:	b292      	uxth	r2, r2
    2194:	b10a      	cbz	r2, 219a <_ftello_r+0x56>
    2196:	6d60      	ldr	r0, [r4, #84]	; 0x54
    2198:	e006      	b.n	21a8 <_ftello_r+0x64>
    219a:	6a21      	ldr	r1, [r4, #32]
    219c:	6ae6      	ldr	r6, [r4, #44]	; 0x2c
    219e:	4628      	mov	r0, r5
    21a0:	2301      	movs	r3, #1
    21a2:	47b0      	blx	r6
    21a4:	1c41      	adds	r1, r0, #1
    21a6:	d010      	beq.n	21ca <_ftello_r+0x86>
    21a8:	89a3      	ldrh	r3, [r4, #12]
    21aa:	075a      	lsls	r2, r3, #29
    21ac:	d506      	bpl.n	21bc <_ftello_r+0x78>
    21ae:	6863      	ldr	r3, [r4, #4]
    21b0:	1ac0      	subs	r0, r0, r3
    21b2:	6b63      	ldr	r3, [r4, #52]	; 0x34
    21b4:	b14b      	cbz	r3, 21ca <_ftello_r+0x86>
    21b6:	6c23      	ldr	r3, [r4, #64]	; 0x40
    21b8:	1ac0      	subs	r0, r0, r3
    21ba:	bd70      	pop	{r4, r5, r6, pc}
    21bc:	071b      	lsls	r3, r3, #28
    21be:	d504      	bpl.n	21ca <_ftello_r+0x86>
    21c0:	6823      	ldr	r3, [r4, #0]
    21c2:	b113      	cbz	r3, 21ca <_ftello_r+0x86>
    21c4:	6922      	ldr	r2, [r4, #16]
    21c6:	1a9b      	subs	r3, r3, r2
    21c8:	4418      	add	r0, r3
    21ca:	bd70      	pop	{r4, r5, r6, pc}
    21cc:	000043d0 	.word	0x000043d0
    21d0:	000043f0 	.word	0x000043f0
    21d4:	00004410 	.word	0x00004410

000021d8 <_fwalk>:
    21d8:	e92d 41f0 	stmdb	sp!, {r4, r5, r6, r7, r8, lr}
    21dc:	4688      	mov	r8, r1
    21de:	f100 0448 	add.w	r4, r0, #72	; 0x48
    21e2:	2600      	movs	r6, #0
    21e4:	b18c      	cbz	r4, 220a <_fwalk+0x32>
    21e6:	68a5      	ldr	r5, [r4, #8]
    21e8:	6867      	ldr	r7, [r4, #4]
    21ea:	3f01      	subs	r7, #1
    21ec:	d40b      	bmi.n	2206 <_fwalk+0x2e>
    21ee:	89ab      	ldrh	r3, [r5, #12]
    21f0:	2b01      	cmp	r3, #1
    21f2:	d906      	bls.n	2202 <_fwalk+0x2a>
    21f4:	f9b5 300e 	ldrsh.w	r3, [r5, #14]
    21f8:	3301      	adds	r3, #1
    21fa:	d002      	beq.n	2202 <_fwalk+0x2a>
    21fc:	4628      	mov	r0, r5
    21fe:	47c0      	blx	r8
    2200:	4306      	orrs	r6, r0
    2202:	3568      	adds	r5, #104	; 0x68
    2204:	e7f1      	b.n	21ea <_fwalk+0x12>
    2206:	6824      	ldr	r4, [r4, #0]
    2208:	e7ec      	b.n	21e4 <_fwalk+0xc>
    220a:	4630      	mov	r0, r6
    220c:	e8bd 81f0 	ldmia.w	sp!, {r4, r5, r6, r7, r8, pc}

00002210 <_fwalk_reent>:
    2210:	e92d 43f8 	stmdb	sp!, {r3, r4, r5, r6, r7, r8, r9, lr}
    2214:	4680      	mov	r8, r0
    2216:	4689      	mov	r9, r1
    2218:	f100 0448 	add.w	r4, r0, #72	; 0x48
    221c:	2600      	movs	r6, #0
    221e:	b194      	cbz	r4, 2246 <_fwalk_reent+0x36>
    2220:	68a5      	ldr	r5, [r4, #8]
    2222:	6867      	ldr	r7, [r4, #4]
    2224:	3f01      	subs	r7, #1
    2226:	d40c      	bmi.n	2242 <_fwalk_reent+0x32>
    2228:	89ab      	ldrh	r3, [r5, #12]
    222a:	2b01      	cmp	r3, #1
    222c:	d907      	bls.n	223e <_fwalk_reent+0x2e>
    222e:	f9b5 300e 	ldrsh.w	r3, [r5, #14]
    2232:	3301      	adds	r3, #1
    2234:	d003      	beq.n	223e <_fwalk_reent+0x2e>
    2236:	4640      	mov	r0, r8
    2238:	4629      	mov	r1, r5
    223a:	47c8      	blx	r9
    223c:	4306      	orrs	r6, r0
    223e:	3568      	adds	r5, #104	; 0x68
    2240:	e7f0      	b.n	2224 <_fwalk_reent+0x14>
    2242:	6824      	ldr	r4, [r4, #0]
    2244:	e7eb      	b.n	221e <_fwalk_reent+0xe>
    2246:	4630      	mov	r0, r6
    2248:	e8bd 83f8 	ldmia.w	sp!, {r3, r4, r5, r6, r7, r8, r9, pc}

0000224c <__libc_init_array>:
    224c:	b570      	push	{r4, r5, r6, lr}
    224e:	4b0e      	ldr	r3, [pc, #56]	; (2288 <__libc_init_array+0x3c>)
    2250:	4d0e      	ldr	r5, [pc, #56]	; (228c <__libc_init_array+0x40>)
    2252:	2400      	movs	r4, #0
    2254:	1aed      	subs	r5, r5, r3
    2256:	10ad      	asrs	r5, r5, #2
    2258:	461e      	mov	r6, r3
    225a:	42ac      	cmp	r4, r5
    225c:	d004      	beq.n	2268 <__libc_init_array+0x1c>
    225e:	f856 2024 	ldr.w	r2, [r6, r4, lsl #2]
    2262:	4790      	blx	r2
    2264:	3401      	adds	r4, #1
    2266:	e7f8      	b.n	225a <__libc_init_array+0xe>
    2268:	f001 fda4 	bl	3db4 <_init>
    226c:	4d08      	ldr	r5, [pc, #32]	; (2290 <__libc_init_array+0x44>)
    226e:	4b09      	ldr	r3, [pc, #36]	; (2294 <__libc_init_array+0x48>)
    2270:	2400      	movs	r4, #0
    2272:	1aed      	subs	r5, r5, r3
    2274:	10ad      	asrs	r5, r5, #2
    2276:	461e      	mov	r6, r3
    2278:	42ac      	cmp	r4, r5
    227a:	d004      	beq.n	2286 <__libc_init_array+0x3a>
    227c:	f856 2024 	ldr.w	r2, [r6, r4, lsl #2]
    2280:	4790      	blx	r2
    2282:	3401      	adds	r4, #1
    2284:	e7f8      	b.n	2278 <__libc_init_array+0x2c>
    2286:	bd70      	pop	{r4, r5, r6, pc}
    2288:	1000013c 	.word	0x1000013c
    228c:	1000013c 	.word	0x1000013c
    2290:	10000144 	.word	0x10000144
    2294:	1000013c 	.word	0x1000013c

00002298 <__smakebuf_r>:
    2298:	b5f0      	push	{r4, r5, r6, r7, lr}
    229a:	898b      	ldrh	r3, [r1, #12]
    229c:	b091      	sub	sp, #68	; 0x44
    229e:	079e      	lsls	r6, r3, #30
    22a0:	4605      	mov	r5, r0
    22a2:	460c      	mov	r4, r1
    22a4:	d425      	bmi.n	22f2 <__smakebuf_r+0x5a>
    22a6:	f9b1 100e 	ldrsh.w	r1, [r1, #14]
    22aa:	2900      	cmp	r1, #0
    22ac:	da08      	bge.n	22c0 <__smakebuf_r+0x28>
    22ae:	89a3      	ldrh	r3, [r4, #12]
    22b0:	2700      	movs	r7, #0
    22b2:	f013 0f80 	tst.w	r3, #128	; 0x80
    22b6:	bf14      	ite	ne
    22b8:	2640      	movne	r6, #64	; 0x40
    22ba:	f44f 6680 	moveq.w	r6, #1024	; 0x400
    22be:	e00d      	b.n	22dc <__smakebuf_r+0x44>
    22c0:	aa01      	add	r2, sp, #4
    22c2:	f001 fb2d 	bl	3920 <_fstat_r>
    22c6:	2800      	cmp	r0, #0
    22c8:	dbf1      	blt.n	22ae <__smakebuf_r+0x16>
    22ca:	9f02      	ldr	r7, [sp, #8]
    22cc:	f44f 6680 	mov.w	r6, #1024	; 0x400
    22d0:	f407 4770 	and.w	r7, r7, #61440	; 0xf000
    22d4:	f5b7 5100 	subs.w	r1, r7, #8192	; 0x2000
    22d8:	424f      	negs	r7, r1
    22da:	414f      	adcs	r7, r1
    22dc:	4628      	mov	r0, r5
    22de:	4631      	mov	r1, r6
    22e0:	f000 f882 	bl	23e8 <_malloc_r>
    22e4:	b960      	cbnz	r0, 2300 <__smakebuf_r+0x68>
    22e6:	89a3      	ldrh	r3, [r4, #12]
    22e8:	059a      	lsls	r2, r3, #22
    22ea:	d41d      	bmi.n	2328 <__smakebuf_r+0x90>
    22ec:	f043 0302 	orr.w	r3, r3, #2
    22f0:	81a3      	strh	r3, [r4, #12]
    22f2:	f104 0347 	add.w	r3, r4, #71	; 0x47
    22f6:	6023      	str	r3, [r4, #0]
    22f8:	6123      	str	r3, [r4, #16]
    22fa:	2301      	movs	r3, #1
    22fc:	6163      	str	r3, [r4, #20]
    22fe:	e013      	b.n	2328 <__smakebuf_r+0x90>
    2300:	4b0a      	ldr	r3, [pc, #40]	; (232c <__smakebuf_r+0x94>)
    2302:	62ab      	str	r3, [r5, #40]	; 0x28
    2304:	89a3      	ldrh	r3, [r4, #12]
    2306:	6020      	str	r0, [r4, #0]
    2308:	f043 0380 	orr.w	r3, r3, #128	; 0x80
    230c:	81a3      	strh	r3, [r4, #12]
    230e:	6120      	str	r0, [r4, #16]
    2310:	6166      	str	r6, [r4, #20]
    2312:	b14f      	cbz	r7, 2328 <__smakebuf_r+0x90>
    2314:	4628      	mov	r0, r5
    2316:	f9b4 100e 	ldrsh.w	r1, [r4, #14]
    231a:	f001 fb13 	bl	3944 <_isatty_r>
    231e:	b118      	cbz	r0, 2328 <__smakebuf_r+0x90>
    2320:	89a3      	ldrh	r3, [r4, #12]
    2322:	f043 0301 	orr.w	r3, r3, #1
    2326:	81a3      	strh	r3, [r4, #12]
    2328:	b011      	add	sp, #68	; 0x44
    232a:	bdf0      	pop	{r4, r5, r6, r7, pc}
    232c:	00001d9d 	.word	0x00001d9d

00002330 <malloc>:
    2330:	4b02      	ldr	r3, [pc, #8]	; (233c <malloc+0xc>)
    2332:	4601      	mov	r1, r0
    2334:	6818      	ldr	r0, [r3, #0]
    2336:	f000 b857 	b.w	23e8 <_malloc_r>
    233a:	bf00      	nop
    233c:	10000134 	.word	0x10000134

00002340 <free>:
    2340:	4b02      	ldr	r3, [pc, #8]	; (234c <free+0xc>)
    2342:	4601      	mov	r1, r0
    2344:	6818      	ldr	r0, [r3, #0]
    2346:	f000 b80b 	b.w	2360 <_free_r>
    234a:	bf00      	nop
    234c:	10000134 	.word	0x10000134

00002350 <memset>:
    2350:	4402      	add	r2, r0
    2352:	4603      	mov	r3, r0
    2354:	4293      	cmp	r3, r2
    2356:	d002      	beq.n	235e <memset+0xe>
    2358:	f803 1b01 	strb.w	r1, [r3], #1
    235c:	e7fa      	b.n	2354 <memset+0x4>
    235e:	4770      	bx	lr

00002360 <_free_r>:
    2360:	b530      	push	{r4, r5, lr}
    2362:	2900      	cmp	r1, #0
    2364:	d03c      	beq.n	23e0 <_free_r+0x80>
    2366:	f851 2c04 	ldr.w	r2, [r1, #-4]
    236a:	1f0b      	subs	r3, r1, #4
    236c:	491d      	ldr	r1, [pc, #116]	; (23e4 <_free_r+0x84>)
    236e:	2a00      	cmp	r2, #0
    2370:	bfb8      	it	lt
    2372:	189b      	addlt	r3, r3, r2
    2374:	680a      	ldr	r2, [r1, #0]
    2376:	460c      	mov	r4, r1
    2378:	b912      	cbnz	r2, 2380 <_free_r+0x20>
    237a:	605a      	str	r2, [r3, #4]
    237c:	600b      	str	r3, [r1, #0]
    237e:	bd30      	pop	{r4, r5, pc}
    2380:	4293      	cmp	r3, r2
    2382:	d20d      	bcs.n	23a0 <_free_r+0x40>
    2384:	6819      	ldr	r1, [r3, #0]
    2386:	1858      	adds	r0, r3, r1
    2388:	4290      	cmp	r0, r2
    238a:	d103      	bne.n	2394 <_free_r+0x34>
    238c:	585a      	ldr	r2, [r3, r1]
    238e:	4411      	add	r1, r2
    2390:	6842      	ldr	r2, [r0, #4]
    2392:	6019      	str	r1, [r3, #0]
    2394:	605a      	str	r2, [r3, #4]
    2396:	6023      	str	r3, [r4, #0]
    2398:	bd30      	pop	{r4, r5, pc}
    239a:	4299      	cmp	r1, r3
    239c:	d803      	bhi.n	23a6 <_free_r+0x46>
    239e:	460a      	mov	r2, r1
    23a0:	6851      	ldr	r1, [r2, #4]
    23a2:	2900      	cmp	r1, #0
    23a4:	d1f9      	bne.n	239a <_free_r+0x3a>
    23a6:	6814      	ldr	r4, [r2, #0]
    23a8:	1915      	adds	r5, r2, r4
    23aa:	429d      	cmp	r5, r3
    23ac:	d10a      	bne.n	23c4 <_free_r+0x64>
    23ae:	681b      	ldr	r3, [r3, #0]
    23b0:	4423      	add	r3, r4
    23b2:	18d0      	adds	r0, r2, r3
    23b4:	4288      	cmp	r0, r1
    23b6:	6013      	str	r3, [r2, #0]
    23b8:	d112      	bne.n	23e0 <_free_r+0x80>
    23ba:	6808      	ldr	r0, [r1, #0]
    23bc:	4403      	add	r3, r0
    23be:	6013      	str	r3, [r2, #0]
    23c0:	684b      	ldr	r3, [r1, #4]
    23c2:	e00c      	b.n	23de <_free_r+0x7e>
    23c4:	d902      	bls.n	23cc <_free_r+0x6c>
    23c6:	230c      	movs	r3, #12
    23c8:	6003      	str	r3, [r0, #0]
    23ca:	bd30      	pop	{r4, r5, pc}
    23cc:	6818      	ldr	r0, [r3, #0]
    23ce:	181c      	adds	r4, r3, r0
    23d0:	428c      	cmp	r4, r1
    23d2:	d103      	bne.n	23dc <_free_r+0x7c>
    23d4:	680c      	ldr	r4, [r1, #0]
    23d6:	6849      	ldr	r1, [r1, #4]
    23d8:	4420      	add	r0, r4
    23da:	6018      	str	r0, [r3, #0]
    23dc:	6059      	str	r1, [r3, #4]
    23de:	6053      	str	r3, [r2, #4]
    23e0:	bd30      	pop	{r4, r5, pc}
    23e2:	bf00      	nop
    23e4:	10000374 	.word	0x10000374

000023e8 <_malloc_r>:
    23e8:	b570      	push	{r4, r5, r6, lr}
    23ea:	1ccd      	adds	r5, r1, #3
    23ec:	f025 0503 	bic.w	r5, r5, #3
    23f0:	3508      	adds	r5, #8
    23f2:	2d0c      	cmp	r5, #12
    23f4:	bf38      	it	cc
    23f6:	250c      	movcc	r5, #12
    23f8:	2d00      	cmp	r5, #0
    23fa:	4606      	mov	r6, r0
    23fc:	db3f      	blt.n	247e <_malloc_r+0x96>
    23fe:	428d      	cmp	r5, r1
    2400:	d33d      	bcc.n	247e <_malloc_r+0x96>
    2402:	4b21      	ldr	r3, [pc, #132]	; (2488 <_malloc_r+0xa0>)
    2404:	681c      	ldr	r4, [r3, #0]
    2406:	4618      	mov	r0, r3
    2408:	4621      	mov	r1, r4
    240a:	b1a1      	cbz	r1, 2436 <_malloc_r+0x4e>
    240c:	680b      	ldr	r3, [r1, #0]
    240e:	1b5b      	subs	r3, r3, r5
    2410:	d40e      	bmi.n	2430 <_malloc_r+0x48>
    2412:	2b0b      	cmp	r3, #11
    2414:	d903      	bls.n	241e <_malloc_r+0x36>
    2416:	600b      	str	r3, [r1, #0]
    2418:	18cc      	adds	r4, r1, r3
    241a:	50cd      	str	r5, [r1, r3]
    241c:	e01f      	b.n	245e <_malloc_r+0x76>
    241e:	428c      	cmp	r4, r1
    2420:	d102      	bne.n	2428 <_malloc_r+0x40>
    2422:	6862      	ldr	r2, [r4, #4]
    2424:	6002      	str	r2, [r0, #0]
    2426:	e01a      	b.n	245e <_malloc_r+0x76>
    2428:	684b      	ldr	r3, [r1, #4]
    242a:	6063      	str	r3, [r4, #4]
    242c:	460c      	mov	r4, r1
    242e:	e016      	b.n	245e <_malloc_r+0x76>
    2430:	460c      	mov	r4, r1
    2432:	6849      	ldr	r1, [r1, #4]
    2434:	e7e9      	b.n	240a <_malloc_r+0x22>
    2436:	4c15      	ldr	r4, [pc, #84]	; (248c <_malloc_r+0xa4>)
    2438:	6823      	ldr	r3, [r4, #0]
    243a:	b91b      	cbnz	r3, 2444 <_malloc_r+0x5c>
    243c:	4630      	mov	r0, r6
    243e:	f000 f8b9 	bl	25b4 <_sbrk_r>
    2442:	6020      	str	r0, [r4, #0]
    2444:	4629      	mov	r1, r5
    2446:	4630      	mov	r0, r6
    2448:	f000 f8b4 	bl	25b4 <_sbrk_r>
    244c:	1c43      	adds	r3, r0, #1
    244e:	4601      	mov	r1, r0
    2450:	d015      	beq.n	247e <_malloc_r+0x96>
    2452:	1cc4      	adds	r4, r0, #3
    2454:	f024 0403 	bic.w	r4, r4, #3
    2458:	4284      	cmp	r4, r0
    245a:	d10a      	bne.n	2472 <_malloc_r+0x8a>
    245c:	6025      	str	r5, [r4, #0]
    245e:	f104 000b 	add.w	r0, r4, #11
    2462:	1d23      	adds	r3, r4, #4
    2464:	f020 0007 	bic.w	r0, r0, #7
    2468:	1ac3      	subs	r3, r0, r3
    246a:	d00b      	beq.n	2484 <_malloc_r+0x9c>
    246c:	425a      	negs	r2, r3
    246e:	50e2      	str	r2, [r4, r3]
    2470:	bd70      	pop	{r4, r5, r6, pc}
    2472:	4630      	mov	r0, r6
    2474:	1a61      	subs	r1, r4, r1
    2476:	f000 f89d 	bl	25b4 <_sbrk_r>
    247a:	3001      	adds	r0, #1
    247c:	d1ee      	bne.n	245c <_malloc_r+0x74>
    247e:	230c      	movs	r3, #12
    2480:	6033      	str	r3, [r6, #0]
    2482:	2000      	movs	r0, #0
    2484:	bd70      	pop	{r4, r5, r6, pc}
    2486:	bf00      	nop
    2488:	10000374 	.word	0x10000374
    248c:	10000370 	.word	0x10000370

00002490 <_open_r>:
    2490:	b538      	push	{r3, r4, r5, lr}
    2492:	4c07      	ldr	r4, [pc, #28]	; (24b0 <_open_r+0x20>)
    2494:	4605      	mov	r5, r0
    2496:	2000      	movs	r0, #0
    2498:	6020      	str	r0, [r4, #0]
    249a:	4608      	mov	r0, r1
    249c:	4611      	mov	r1, r2
    249e:	461a      	mov	r2, r3
    24a0:	f7fe fa7c 	bl	99c <_open>
    24a4:	1c43      	adds	r3, r0, #1
    24a6:	d102      	bne.n	24ae <_open_r+0x1e>
    24a8:	6823      	ldr	r3, [r4, #0]
    24aa:	b103      	cbz	r3, 24ae <_open_r+0x1e>
    24ac:	602b      	str	r3, [r5, #0]
    24ae:	bd38      	pop	{r3, r4, r5, pc}
    24b0:	10000380 	.word	0x10000380

000024b4 <iprintf>:
    24b4:	b40f      	push	{r0, r1, r2, r3}
    24b6:	4b0a      	ldr	r3, [pc, #40]	; (24e0 <iprintf+0x2c>)
    24b8:	b513      	push	{r0, r1, r4, lr}
    24ba:	681c      	ldr	r4, [r3, #0]
    24bc:	b124      	cbz	r4, 24c8 <iprintf+0x14>
    24be:	69a3      	ldr	r3, [r4, #24]
    24c0:	b913      	cbnz	r3, 24c8 <iprintf+0x14>
    24c2:	4620      	mov	r0, r4
    24c4:	f7ff fcbe 	bl	1e44 <__sinit>
    24c8:	ab05      	add	r3, sp, #20
    24ca:	4620      	mov	r0, r4
    24cc:	68a1      	ldr	r1, [r4, #8]
    24ce:	9a04      	ldr	r2, [sp, #16]
    24d0:	9301      	str	r3, [sp, #4]
    24d2:	f000 fba5 	bl	2c20 <_vfiprintf_r>
    24d6:	b002      	add	sp, #8
    24d8:	e8bd 4010 	ldmia.w	sp!, {r4, lr}
    24dc:	b004      	add	sp, #16
    24de:	4770      	bx	lr
    24e0:	10000134 	.word	0x10000134

000024e4 <_puts_r>:
    24e4:	b570      	push	{r4, r5, r6, lr}
    24e6:	460e      	mov	r6, r1
    24e8:	4605      	mov	r5, r0
    24ea:	b118      	cbz	r0, 24f4 <_puts_r+0x10>
    24ec:	6983      	ldr	r3, [r0, #24]
    24ee:	b90b      	cbnz	r3, 24f4 <_puts_r+0x10>
    24f0:	f7ff fca8 	bl	1e44 <__sinit>
    24f4:	68ac      	ldr	r4, [r5, #8]
    24f6:	89a3      	ldrh	r3, [r4, #12]
    24f8:	0719      	lsls	r1, r3, #28
    24fa:	d501      	bpl.n	2500 <_puts_r+0x1c>
    24fc:	6923      	ldr	r3, [r4, #16]
    24fe:	b983      	cbnz	r3, 2522 <_puts_r+0x3e>
    2500:	4628      	mov	r0, r5
    2502:	4621      	mov	r1, r4
    2504:	f001 f956 	bl	37b4 <__swsetup_r>
    2508:	b158      	cbz	r0, 2522 <_puts_r+0x3e>
    250a:	f04f 30ff 	mov.w	r0, #4294967295	; 0xffffffff
    250e:	bd70      	pop	{r4, r5, r6, pc}
    2510:	2b00      	cmp	r3, #0
    2512:	db0e      	blt.n	2532 <_puts_r+0x4e>
    2514:	6823      	ldr	r3, [r4, #0]
    2516:	f816 2c01 	ldrb.w	r2, [r6, #-1]
    251a:	701a      	strb	r2, [r3, #0]
    251c:	6823      	ldr	r3, [r4, #0]
    251e:	3301      	adds	r3, #1
    2520:	6023      	str	r3, [r4, #0]
    2522:	68a3      	ldr	r3, [r4, #8]
    2524:	f816 2b01 	ldrb.w	r2, [r6], #1
    2528:	3b01      	subs	r3, #1
    252a:	60a3      	str	r3, [r4, #8]
    252c:	2a00      	cmp	r2, #0
    252e:	d1ef      	bne.n	2510 <_puts_r+0x2c>
    2530:	e017      	b.n	2562 <_puts_r+0x7e>
    2532:	69a2      	ldr	r2, [r4, #24]
    2534:	4293      	cmp	r3, r2
    2536:	db09      	blt.n	254c <_puts_r+0x68>
    2538:	6823      	ldr	r3, [r4, #0]
    253a:	f816 2c01 	ldrb.w	r2, [r6, #-1]
    253e:	701a      	strb	r2, [r3, #0]
    2540:	6823      	ldr	r3, [r4, #0]
    2542:	7819      	ldrb	r1, [r3, #0]
    2544:	290a      	cmp	r1, #10
    2546:	d1ea      	bne.n	251e <_puts_r+0x3a>
    2548:	4628      	mov	r0, r5
    254a:	e002      	b.n	2552 <_puts_r+0x6e>
    254c:	f816 1c01 	ldrb.w	r1, [r6, #-1]
    2550:	4628      	mov	r0, r5
    2552:	4622      	mov	r2, r4
    2554:	f001 f8c8 	bl	36e8 <__swbuf_r>
    2558:	f1b0 32ff 	subs.w	r2, r0, #4294967295	; 0xffffffff
    255c:	4250      	negs	r0, r2
    255e:	4150      	adcs	r0, r2
    2560:	e7d2      	b.n	2508 <_puts_r+0x24>
    2562:	2b00      	cmp	r3, #0
    2564:	da16      	bge.n	2594 <_puts_r+0xb0>
    2566:	69a2      	ldr	r2, [r4, #24]
    2568:	4293      	cmp	r3, r2
    256a:	db08      	blt.n	257e <_puts_r+0x9a>
    256c:	6823      	ldr	r3, [r4, #0]
    256e:	220a      	movs	r2, #10
    2570:	701a      	strb	r2, [r3, #0]
    2572:	6823      	ldr	r3, [r4, #0]
    2574:	7819      	ldrb	r1, [r3, #0]
    2576:	4291      	cmp	r1, r2
    2578:	d110      	bne.n	259c <_puts_r+0xb8>
    257a:	4628      	mov	r0, r5
    257c:	e001      	b.n	2582 <_puts_r+0x9e>
    257e:	4628      	mov	r0, r5
    2580:	210a      	movs	r1, #10
    2582:	4622      	mov	r2, r4
    2584:	f001 f8b0 	bl	36e8 <__swbuf_r>
    2588:	f1b0 33ff 	subs.w	r3, r0, #4294967295	; 0xffffffff
    258c:	4258      	negs	r0, r3
    258e:	4158      	adcs	r0, r3
    2590:	b130      	cbz	r0, 25a0 <_puts_r+0xbc>
    2592:	e7ba      	b.n	250a <_puts_r+0x26>
    2594:	6823      	ldr	r3, [r4, #0]
    2596:	220a      	movs	r2, #10
    2598:	701a      	strb	r2, [r3, #0]
    259a:	6823      	ldr	r3, [r4, #0]
    259c:	3301      	adds	r3, #1
    259e:	6023      	str	r3, [r4, #0]
    25a0:	200a      	movs	r0, #10
    25a2:	bd70      	pop	{r4, r5, r6, pc}

000025a4 <puts>:
    25a4:	4b02      	ldr	r3, [pc, #8]	; (25b0 <puts+0xc>)
    25a6:	4601      	mov	r1, r0
    25a8:	6818      	ldr	r0, [r3, #0]
    25aa:	f7ff bf9b 	b.w	24e4 <_puts_r>
    25ae:	bf00      	nop
    25b0:	10000134 	.word	0x10000134

000025b4 <_sbrk_r>:
    25b4:	b538      	push	{r3, r4, r5, lr}
    25b6:	4c06      	ldr	r4, [pc, #24]	; (25d0 <_sbrk_r+0x1c>)
    25b8:	2300      	movs	r3, #0
    25ba:	4605      	mov	r5, r0
    25bc:	4608      	mov	r0, r1
    25be:	6023      	str	r3, [r4, #0]
    25c0:	f7fe fb4c 	bl	c5c <_sbrk>
    25c4:	1c43      	adds	r3, r0, #1
    25c6:	d102      	bne.n	25ce <_sbrk_r+0x1a>
    25c8:	6823      	ldr	r3, [r4, #0]
    25ca:	b103      	cbz	r3, 25ce <_sbrk_r+0x1a>
    25cc:	602b      	str	r3, [r5, #0]
    25ce:	bd38      	pop	{r3, r4, r5, pc}
    25d0:	10000380 	.word	0x10000380

000025d4 <siscanf>:
    25d4:	b40e      	push	{r1, r2, r3}
    25d6:	b530      	push	{r4, r5, lr}
    25d8:	b09c      	sub	sp, #112	; 0x70
    25da:	ac1f      	add	r4, sp, #124	; 0x7c
    25dc:	f44f 7201 	mov.w	r2, #516	; 0x204
    25e0:	f854 5b04 	ldr.w	r5, [r4], #4
    25e4:	f8ad 2014 	strh.w	r2, [sp, #20]
    25e8:	9002      	str	r0, [sp, #8]
    25ea:	9006      	str	r0, [sp, #24]
    25ec:	f000 f86b 	bl	26c6 <strlen>
    25f0:	4b0b      	ldr	r3, [pc, #44]	; (2620 <siscanf+0x4c>)
    25f2:	9003      	str	r0, [sp, #12]
    25f4:	930b      	str	r3, [sp, #44]	; 0x2c
    25f6:	2300      	movs	r3, #0
    25f8:	930f      	str	r3, [sp, #60]	; 0x3c
    25fa:	9314      	str	r3, [sp, #80]	; 0x50
    25fc:	f64f 73ff 	movw	r3, #65535	; 0xffff
    2600:	f8ad 3016 	strh.w	r3, [sp, #22]
    2604:	4b07      	ldr	r3, [pc, #28]	; (2624 <siscanf+0x50>)
    2606:	9007      	str	r0, [sp, #28]
    2608:	a902      	add	r1, sp, #8
    260a:	6818      	ldr	r0, [r3, #0]
    260c:	462a      	mov	r2, r5
    260e:	4623      	mov	r3, r4
    2610:	9401      	str	r4, [sp, #4]
    2612:	f000 f8e3 	bl	27dc <__ssvfiscanf_r>
    2616:	b01c      	add	sp, #112	; 0x70
    2618:	e8bd 4030 	ldmia.w	sp!, {r4, r5, lr}
    261c:	b003      	add	sp, #12
    261e:	4770      	bx	lr
    2620:	0000264b 	.word	0x0000264b
    2624:	10000134 	.word	0x10000134

00002628 <__sread>:
    2628:	b510      	push	{r4, lr}
    262a:	460c      	mov	r4, r1
    262c:	f9b1 100e 	ldrsh.w	r1, [r1, #14]
    2630:	f001 f9e8 	bl	3a04 <_read_r>
    2634:	2800      	cmp	r0, #0
    2636:	db03      	blt.n	2640 <__sread+0x18>
    2638:	6d63      	ldr	r3, [r4, #84]	; 0x54
    263a:	4403      	add	r3, r0
    263c:	6563      	str	r3, [r4, #84]	; 0x54
    263e:	bd10      	pop	{r4, pc}
    2640:	89a3      	ldrh	r3, [r4, #12]
    2642:	f423 5380 	bic.w	r3, r3, #4096	; 0x1000
    2646:	81a3      	strh	r3, [r4, #12]
    2648:	bd10      	pop	{r4, pc}

0000264a <__seofread>:
    264a:	2000      	movs	r0, #0
    264c:	4770      	bx	lr

0000264e <__swrite>:
    264e:	e92d 41f0 	stmdb	sp!, {r4, r5, r6, r7, r8, lr}
    2652:	461d      	mov	r5, r3
    2654:	898b      	ldrh	r3, [r1, #12]
    2656:	4607      	mov	r7, r0
    2658:	05db      	lsls	r3, r3, #23
    265a:	460c      	mov	r4, r1
    265c:	4616      	mov	r6, r2
    265e:	d505      	bpl.n	266c <__swrite+0x1e>
    2660:	f9b1 100e 	ldrsh.w	r1, [r1, #14]
    2664:	2200      	movs	r2, #0
    2666:	2302      	movs	r3, #2
    2668:	f001 f97c 	bl	3964 <_lseek_r>
    266c:	89a3      	ldrh	r3, [r4, #12]
    266e:	4638      	mov	r0, r7
    2670:	f423 5380 	bic.w	r3, r3, #4096	; 0x1000
    2674:	81a3      	strh	r3, [r4, #12]
    2676:	f9b4 100e 	ldrsh.w	r1, [r4, #14]
    267a:	4632      	mov	r2, r6
    267c:	462b      	mov	r3, r5
    267e:	e8bd 41f0 	ldmia.w	sp!, {r4, r5, r6, r7, r8, lr}
    2682:	f001 b885 	b.w	3790 <_write_r>

00002686 <__sseek>:
    2686:	b510      	push	{r4, lr}
    2688:	460c      	mov	r4, r1
    268a:	f9b1 100e 	ldrsh.w	r1, [r1, #14]
    268e:	f001 f969 	bl	3964 <_lseek_r>
    2692:	1c43      	adds	r3, r0, #1
    2694:	89a3      	ldrh	r3, [r4, #12]
    2696:	d103      	bne.n	26a0 <__sseek+0x1a>
    2698:	f423 5380 	bic.w	r3, r3, #4096	; 0x1000
    269c:	81a3      	strh	r3, [r4, #12]
    269e:	bd10      	pop	{r4, pc}
    26a0:	f443 5380 	orr.w	r3, r3, #4096	; 0x1000
    26a4:	81a3      	strh	r3, [r4, #12]
    26a6:	6560      	str	r0, [r4, #84]	; 0x54
    26a8:	bd10      	pop	{r4, pc}

000026aa <__sclose>:
    26aa:	f9b1 100e 	ldrsh.w	r1, [r1, #14]
    26ae:	f001 b8ef 	b.w	3890 <_close_r>

000026b2 <strcmp>:
    26b2:	f810 2b01 	ldrb.w	r2, [r0], #1
    26b6:	f811 3b01 	ldrb.w	r3, [r1], #1
    26ba:	2a01      	cmp	r2, #1
    26bc:	bf28      	it	cs
    26be:	429a      	cmpcs	r2, r3
    26c0:	d0f7      	beq.n	26b2 <strcmp>
    26c2:	1ad0      	subs	r0, r2, r3
    26c4:	4770      	bx	lr

000026c6 <strlen>:
    26c6:	4603      	mov	r3, r0
    26c8:	f813 2b01 	ldrb.w	r2, [r3], #1
    26cc:	2a00      	cmp	r2, #0
    26ce:	d1fb      	bne.n	26c8 <strlen+0x2>
    26d0:	1a18      	subs	r0, r3, r0
    26d2:	3801      	subs	r0, #1
    26d4:	4770      	bx	lr

000026d6 <strncmp>:
    26d6:	b570      	push	{r4, r5, r6, lr}
    26d8:	b18a      	cbz	r2, 26fe <strncmp+0x28>
    26da:	460b      	mov	r3, r1
    26dc:	4605      	mov	r5, r0
    26de:	781c      	ldrb	r4, [r3, #0]
    26e0:	f810 6b01 	ldrb.w	r6, [r0], #1
    26e4:	3101      	adds	r1, #1
    26e6:	42b4      	cmp	r4, r6
    26e8:	d101      	bne.n	26ee <strncmp+0x18>
    26ea:	2a01      	cmp	r2, #1
    26ec:	d103      	bne.n	26f6 <strncmp+0x20>
    26ee:	7828      	ldrb	r0, [r5, #0]
    26f0:	781b      	ldrb	r3, [r3, #0]
    26f2:	1ac0      	subs	r0, r0, r3
    26f4:	bd70      	pop	{r4, r5, r6, pc}
    26f6:	3a01      	subs	r2, #1
    26f8:	2c00      	cmp	r4, #0
    26fa:	d1ee      	bne.n	26da <strncmp+0x4>
    26fc:	e7f7      	b.n	26ee <strncmp+0x18>
    26fe:	4610      	mov	r0, r2
    2700:	bd70      	pop	{r4, r5, r6, pc}

00002702 <strncpy>:
    2702:	b510      	push	{r4, lr}
    2704:	4603      	mov	r3, r0
    2706:	b132      	cbz	r2, 2716 <strncpy+0x14>
    2708:	f811 4b01 	ldrb.w	r4, [r1], #1
    270c:	3a01      	subs	r2, #1
    270e:	f803 4b01 	strb.w	r4, [r3], #1
    2712:	2c00      	cmp	r4, #0
    2714:	d1f7      	bne.n	2706 <strncpy+0x4>
    2716:	441a      	add	r2, r3
    2718:	4293      	cmp	r3, r2
    271a:	d003      	beq.n	2724 <strncpy+0x22>
    271c:	2100      	movs	r1, #0
    271e:	f803 1b01 	strb.w	r1, [r3], #1
    2722:	e7f9      	b.n	2718 <strncpy+0x16>
    2724:	bd10      	pop	{r4, pc}

00002726 <_sungetc_r>:
    2726:	b538      	push	{r3, r4, r5, lr}
    2728:	1c4b      	adds	r3, r1, #1
    272a:	4614      	mov	r4, r2
    272c:	d102      	bne.n	2734 <_sungetc_r+0xe>
    272e:	f04f 30ff 	mov.w	r0, #4294967295	; 0xffffffff
    2732:	bd38      	pop	{r3, r4, r5, pc}
    2734:	8993      	ldrh	r3, [r2, #12]
    2736:	b2cd      	uxtb	r5, r1
    2738:	f023 0320 	bic.w	r3, r3, #32
    273c:	8193      	strh	r3, [r2, #12]
    273e:	6b53      	ldr	r3, [r2, #52]	; 0x34
    2740:	6852      	ldr	r2, [r2, #4]
    2742:	b183      	cbz	r3, 2766 <_sungetc_r+0x40>
    2744:	6ba3      	ldr	r3, [r4, #56]	; 0x38
    2746:	429a      	cmp	r2, r3
    2748:	da07      	bge.n	275a <_sungetc_r+0x34>
    274a:	6823      	ldr	r3, [r4, #0]
    274c:	1e5a      	subs	r2, r3, #1
    274e:	6022      	str	r2, [r4, #0]
    2750:	f803 5c01 	strb.w	r5, [r3, #-1]
    2754:	6863      	ldr	r3, [r4, #4]
    2756:	3301      	adds	r3, #1
    2758:	e01f      	b.n	279a <_sungetc_r+0x74>
    275a:	4621      	mov	r1, r4
    275c:	f000 f98c 	bl	2a78 <__submore>
    2760:	2800      	cmp	r0, #0
    2762:	d0f2      	beq.n	274a <_sungetc_r+0x24>
    2764:	e7e3      	b.n	272e <_sungetc_r+0x8>
    2766:	6921      	ldr	r1, [r4, #16]
    2768:	6823      	ldr	r3, [r4, #0]
    276a:	b151      	cbz	r1, 2782 <_sungetc_r+0x5c>
    276c:	428b      	cmp	r3, r1
    276e:	d908      	bls.n	2782 <_sungetc_r+0x5c>
    2770:	f813 0c01 	ldrb.w	r0, [r3, #-1]
    2774:	42a8      	cmp	r0, r5
    2776:	d104      	bne.n	2782 <_sungetc_r+0x5c>
    2778:	3b01      	subs	r3, #1
    277a:	3201      	adds	r2, #1
    277c:	6023      	str	r3, [r4, #0]
    277e:	6062      	str	r2, [r4, #4]
    2780:	bd38      	pop	{r3, r4, r5, pc}
    2782:	63e3      	str	r3, [r4, #60]	; 0x3c
    2784:	f104 0344 	add.w	r3, r4, #68	; 0x44
    2788:	6363      	str	r3, [r4, #52]	; 0x34
    278a:	2303      	movs	r3, #3
    278c:	63a3      	str	r3, [r4, #56]	; 0x38
    278e:	4623      	mov	r3, r4
    2790:	6422      	str	r2, [r4, #64]	; 0x40
    2792:	f803 5f46 	strb.w	r5, [r3, #70]!
    2796:	6023      	str	r3, [r4, #0]
    2798:	2301      	movs	r3, #1
    279a:	6063      	str	r3, [r4, #4]
    279c:	4628      	mov	r0, r5
    279e:	bd38      	pop	{r3, r4, r5, pc}

000027a0 <__ssrefill_r>:
    27a0:	b510      	push	{r4, lr}
    27a2:	460c      	mov	r4, r1
    27a4:	6b49      	ldr	r1, [r1, #52]	; 0x34
    27a6:	b169      	cbz	r1, 27c4 <__ssrefill_r+0x24>
    27a8:	f104 0344 	add.w	r3, r4, #68	; 0x44
    27ac:	4299      	cmp	r1, r3
    27ae:	d001      	beq.n	27b4 <__ssrefill_r+0x14>
    27b0:	f7ff fdd6 	bl	2360 <_free_r>
    27b4:	6c23      	ldr	r3, [r4, #64]	; 0x40
    27b6:	2000      	movs	r0, #0
    27b8:	6360      	str	r0, [r4, #52]	; 0x34
    27ba:	6063      	str	r3, [r4, #4]
    27bc:	b113      	cbz	r3, 27c4 <__ssrefill_r+0x24>
    27be:	6be3      	ldr	r3, [r4, #60]	; 0x3c
    27c0:	6023      	str	r3, [r4, #0]
    27c2:	bd10      	pop	{r4, pc}
    27c4:	6923      	ldr	r3, [r4, #16]
    27c6:	f04f 30ff 	mov.w	r0, #4294967295	; 0xffffffff
    27ca:	6023      	str	r3, [r4, #0]
    27cc:	2300      	movs	r3, #0
    27ce:	6063      	str	r3, [r4, #4]
    27d0:	89a3      	ldrh	r3, [r4, #12]
    27d2:	f043 0320 	orr.w	r3, r3, #32
    27d6:	81a3      	strh	r3, [r4, #12]
    27d8:	bd10      	pop	{r4, pc}
	...

000027dc <__ssvfiscanf_r>:
    27dc:	e92d 47f0 	stmdb	sp!, {r4, r5, r6, r7, r8, r9, r10, lr}
    27e0:	f5ad 7d24 	sub.w	sp, sp, #656	; 0x290
    27e4:	9301      	str	r3, [sp, #4]
    27e6:	2300      	movs	r3, #0
    27e8:	9346      	str	r3, [sp, #280]	; 0x118
    27ea:	9347      	str	r3, [sp, #284]	; 0x11c
    27ec:	4b9d      	ldr	r3, [pc, #628]	; (2a64 <__ssvfiscanf_r+0x288>)
    27ee:	f10d 090c 	add.w	r9, sp, #12
    27f2:	93a2      	str	r3, [sp, #648]	; 0x288
    27f4:	4b9c      	ldr	r3, [pc, #624]	; (2a68 <__ssvfiscanf_r+0x28c>)
    27f6:	4607      	mov	r7, r0
    27f8:	460c      	mov	r4, r1
    27fa:	4690      	mov	r8, r2
    27fc:	f8cd 9120 	str.w	r9, [sp, #288]	; 0x120
    2800:	93a3      	str	r3, [sp, #652]	; 0x28c
    2802:	f898 5000 	ldrb.w	r5, [r8]
    2806:	2d00      	cmp	r5, #0
    2808:	f000 8124 	beq.w	2a54 <__ssvfiscanf_r+0x278>
    280c:	4997      	ldr	r1, [pc, #604]	; (2a6c <__ssvfiscanf_r+0x290>)
    280e:	680b      	ldr	r3, [r1, #0]
    2810:	468a      	mov	r10, r1
    2812:	442b      	add	r3, r5
    2814:	785a      	ldrb	r2, [r3, #1]
    2816:	f002 0208 	and.w	r2, r2, #8
    281a:	f002 03ff 	and.w	r3, r2, #255	; 0xff
    281e:	b1ea      	cbz	r2, 285c <__ssvfiscanf_r+0x80>
    2820:	6863      	ldr	r3, [r4, #4]
    2822:	2b00      	cmp	r3, #0
    2824:	dd10      	ble.n	2848 <__ssvfiscanf_r+0x6c>
    2826:	6823      	ldr	r3, [r4, #0]
    2828:	f8da 2000 	ldr.w	r2, [r10]
    282c:	7819      	ldrb	r1, [r3, #0]
    282e:	440a      	add	r2, r1
    2830:	7852      	ldrb	r2, [r2, #1]
    2832:	0715      	lsls	r5, r2, #28
    2834:	d50e      	bpl.n	2854 <__ssvfiscanf_r+0x78>
    2836:	9a47      	ldr	r2, [sp, #284]	; 0x11c
    2838:	3301      	adds	r3, #1
    283a:	3201      	adds	r2, #1
    283c:	9247      	str	r2, [sp, #284]	; 0x11c
    283e:	6862      	ldr	r2, [r4, #4]
    2840:	6023      	str	r3, [r4, #0]
    2842:	3a01      	subs	r2, #1
    2844:	6062      	str	r2, [r4, #4]
    2846:	e7eb      	b.n	2820 <__ssvfiscanf_r+0x44>
    2848:	9ba3      	ldr	r3, [sp, #652]	; 0x28c
    284a:	4638      	mov	r0, r7
    284c:	4621      	mov	r1, r4
    284e:	4798      	blx	r3
    2850:	2800      	cmp	r0, #0
    2852:	d0e8      	beq.n	2826 <__ssvfiscanf_r+0x4a>
    2854:	f108 0601 	add.w	r6, r8, #1
    2858:	46b0      	mov	r8, r6
    285a:	e7d2      	b.n	2802 <__ssvfiscanf_r+0x26>
    285c:	2d25      	cmp	r5, #37	; 0x25
    285e:	f108 0601 	add.w	r6, r8, #1
    2862:	d14f      	bne.n	2904 <__ssvfiscanf_r+0x128>
    2864:	9345      	str	r3, [sp, #276]	; 0x114
    2866:	9343      	str	r3, [sp, #268]	; 0x10c
    2868:	f898 3001 	ldrb.w	r3, [r8, #1]
    286c:	2b2a      	cmp	r3, #42	; 0x2a
    286e:	d103      	bne.n	2878 <__ssvfiscanf_r+0x9c>
    2870:	2310      	movs	r3, #16
    2872:	9343      	str	r3, [sp, #268]	; 0x10c
    2874:	f108 0602 	add.w	r6, r8, #2
    2878:	7831      	ldrb	r1, [r6, #0]
    287a:	4635      	mov	r5, r6
    287c:	f1a1 0330 	sub.w	r3, r1, #48	; 0x30
    2880:	2b09      	cmp	r3, #9
    2882:	f106 0601 	add.w	r6, r6, #1
    2886:	d806      	bhi.n	2896 <__ssvfiscanf_r+0xba>
    2888:	9b45      	ldr	r3, [sp, #276]	; 0x114
    288a:	220a      	movs	r2, #10
    288c:	fb02 1303 	mla	r3, r2, r3, r1
    2890:	3b30      	subs	r3, #48	; 0x30
    2892:	9345      	str	r3, [sp, #276]	; 0x114
    2894:	e7f0      	b.n	2878 <__ssvfiscanf_r+0x9c>
    2896:	f8df 81dc 	ldr.w	r8, [pc, #476]	; 2a74 <__ssvfiscanf_r+0x298>
    289a:	2203      	movs	r2, #3
    289c:	4640      	mov	r0, r8
    289e:	f001 f873 	bl	3988 <memchr>
    28a2:	b140      	cbz	r0, 28b6 <__ssvfiscanf_r+0xda>
    28a4:	ebc8 0800 	rsb	r8, r8, r0
    28a8:	2001      	movs	r0, #1
    28aa:	fa00 f008 	lsl.w	r0, r0, r8
    28ae:	9b43      	ldr	r3, [sp, #268]	; 0x10c
    28b0:	4635      	mov	r5, r6
    28b2:	4303      	orrs	r3, r0
    28b4:	9343      	str	r3, [sp, #268]	; 0x10c
    28b6:	1c6e      	adds	r6, r5, #1
    28b8:	782d      	ldrb	r5, [r5, #0]
    28ba:	2d67      	cmp	r5, #103	; 0x67
    28bc:	d80f      	bhi.n	28de <__ssvfiscanf_r+0x102>
    28be:	2d65      	cmp	r5, #101	; 0x65
    28c0:	d278      	bcs.n	29b4 <__ssvfiscanf_r+0x1d8>
    28c2:	2d5b      	cmp	r5, #91	; 0x5b
    28c4:	d054      	beq.n	2970 <__ssvfiscanf_r+0x194>
    28c6:	d805      	bhi.n	28d4 <__ssvfiscanf_r+0xf8>
    28c8:	2d00      	cmp	r5, #0
    28ca:	f000 80c5 	beq.w	2a58 <__ssvfiscanf_r+0x27c>
    28ce:	2d25      	cmp	r5, #37	; 0x25
    28d0:	d018      	beq.n	2904 <__ssvfiscanf_r+0x128>
    28d2:	e071      	b.n	29b8 <__ssvfiscanf_r+0x1dc>
    28d4:	2d63      	cmp	r5, #99	; 0x63
    28d6:	d057      	beq.n	2988 <__ssvfiscanf_r+0x1ac>
    28d8:	2d64      	cmp	r5, #100	; 0x64
    28da:	d03f      	beq.n	295c <__ssvfiscanf_r+0x180>
    28dc:	e06c      	b.n	29b8 <__ssvfiscanf_r+0x1dc>
    28de:	2d70      	cmp	r5, #112	; 0x70
    28e0:	d032      	beq.n	2948 <__ssvfiscanf_r+0x16c>
    28e2:	d807      	bhi.n	28f4 <__ssvfiscanf_r+0x118>
    28e4:	2d6e      	cmp	r5, #110	; 0x6e
    28e6:	d055      	beq.n	2994 <__ssvfiscanf_r+0x1b8>
    28e8:	d83a      	bhi.n	2960 <__ssvfiscanf_r+0x184>
    28ea:	2d69      	cmp	r5, #105	; 0x69
    28ec:	d164      	bne.n	29b8 <__ssvfiscanf_r+0x1dc>
    28ee:	2300      	movs	r3, #0
    28f0:	9344      	str	r3, [sp, #272]	; 0x110
    28f2:	e039      	b.n	2968 <__ssvfiscanf_r+0x18c>
    28f4:	2d75      	cmp	r5, #117	; 0x75
    28f6:	d031      	beq.n	295c <__ssvfiscanf_r+0x180>
    28f8:	2d78      	cmp	r5, #120	; 0x78
    28fa:	d029      	beq.n	2950 <__ssvfiscanf_r+0x174>
    28fc:	2d73      	cmp	r5, #115	; 0x73
    28fe:	d15b      	bne.n	29b8 <__ssvfiscanf_r+0x1dc>
    2900:	2302      	movs	r3, #2
    2902:	e03f      	b.n	2984 <__ssvfiscanf_r+0x1a8>
    2904:	6863      	ldr	r3, [r4, #4]
    2906:	2b00      	cmp	r3, #0
    2908:	dd0d      	ble.n	2926 <__ssvfiscanf_r+0x14a>
    290a:	6823      	ldr	r3, [r4, #0]
    290c:	781a      	ldrb	r2, [r3, #0]
    290e:	42aa      	cmp	r2, r5
    2910:	f040 80a0 	bne.w	2a54 <__ssvfiscanf_r+0x278>
    2914:	3301      	adds	r3, #1
    2916:	6862      	ldr	r2, [r4, #4]
    2918:	6023      	str	r3, [r4, #0]
    291a:	9b47      	ldr	r3, [sp, #284]	; 0x11c
    291c:	3a01      	subs	r2, #1
    291e:	3301      	adds	r3, #1
    2920:	6062      	str	r2, [r4, #4]
    2922:	9347      	str	r3, [sp, #284]	; 0x11c
    2924:	e798      	b.n	2858 <__ssvfiscanf_r+0x7c>
    2926:	9ba3      	ldr	r3, [sp, #652]	; 0x28c
    2928:	4638      	mov	r0, r7
    292a:	4621      	mov	r1, r4
    292c:	4798      	blx	r3
    292e:	2800      	cmp	r0, #0
    2930:	d0eb      	beq.n	290a <__ssvfiscanf_r+0x12e>
    2932:	9846      	ldr	r0, [sp, #280]	; 0x118
    2934:	2800      	cmp	r0, #0
    2936:	f000 808f 	beq.w	2a58 <__ssvfiscanf_r+0x27c>
    293a:	89a3      	ldrh	r3, [r4, #12]
    293c:	f013 0f40 	tst.w	r3, #64	; 0x40
    2940:	bf18      	it	ne
    2942:	f04f 30ff 	movne.w	r0, #4294967295	; 0xffffffff
    2946:	e089      	b.n	2a5c <__ssvfiscanf_r+0x280>
    2948:	9b43      	ldr	r3, [sp, #268]	; 0x10c
    294a:	f043 0320 	orr.w	r3, r3, #32
    294e:	9343      	str	r3, [sp, #268]	; 0x10c
    2950:	9b43      	ldr	r3, [sp, #268]	; 0x10c
    2952:	f443 7300 	orr.w	r3, r3, #512	; 0x200
    2956:	9343      	str	r3, [sp, #268]	; 0x10c
    2958:	2310      	movs	r3, #16
    295a:	e002      	b.n	2962 <__ssvfiscanf_r+0x186>
    295c:	230a      	movs	r3, #10
    295e:	e000      	b.n	2962 <__ssvfiscanf_r+0x186>
    2960:	2308      	movs	r3, #8
    2962:	2d6e      	cmp	r5, #110	; 0x6e
    2964:	9344      	str	r3, [sp, #272]	; 0x110
    2966:	dc01      	bgt.n	296c <__ssvfiscanf_r+0x190>
    2968:	2303      	movs	r3, #3
    296a:	e00b      	b.n	2984 <__ssvfiscanf_r+0x1a8>
    296c:	2304      	movs	r3, #4
    296e:	e009      	b.n	2984 <__ssvfiscanf_r+0x1a8>
    2970:	4631      	mov	r1, r6
    2972:	4648      	mov	r0, r9
    2974:	f001 f8e8 	bl	3b48 <__sccl>
    2978:	9b43      	ldr	r3, [sp, #268]	; 0x10c
    297a:	4606      	mov	r6, r0
    297c:	f043 0340 	orr.w	r3, r3, #64	; 0x40
    2980:	9343      	str	r3, [sp, #268]	; 0x10c
    2982:	2301      	movs	r3, #1
    2984:	9349      	str	r3, [sp, #292]	; 0x124
    2986:	e01b      	b.n	29c0 <__ssvfiscanf_r+0x1e4>
    2988:	9b43      	ldr	r3, [sp, #268]	; 0x10c
    298a:	f043 0340 	orr.w	r3, r3, #64	; 0x40
    298e:	9343      	str	r3, [sp, #268]	; 0x10c
    2990:	2300      	movs	r3, #0
    2992:	e7f7      	b.n	2984 <__ssvfiscanf_r+0x1a8>
    2994:	9a43      	ldr	r2, [sp, #268]	; 0x10c
    2996:	06d0      	lsls	r0, r2, #27
    2998:	f53f af5e 	bmi.w	2858 <__ssvfiscanf_r+0x7c>
    299c:	f012 0f01 	tst.w	r2, #1
    29a0:	9a01      	ldr	r2, [sp, #4]
    29a2:	9b47      	ldr	r3, [sp, #284]	; 0x11c
    29a4:	f102 0104 	add.w	r1, r2, #4
    29a8:	9101      	str	r1, [sp, #4]
    29aa:	6812      	ldr	r2, [r2, #0]
    29ac:	bf14      	ite	ne
    29ae:	8013      	strhne	r3, [r2, #0]
    29b0:	6013      	streq	r3, [r2, #0]
    29b2:	e751      	b.n	2858 <__ssvfiscanf_r+0x7c>
    29b4:	2305      	movs	r3, #5
    29b6:	e7e5      	b.n	2984 <__ssvfiscanf_r+0x1a8>
    29b8:	2303      	movs	r3, #3
    29ba:	9349      	str	r3, [sp, #292]	; 0x124
    29bc:	230a      	movs	r3, #10
    29be:	9344      	str	r3, [sp, #272]	; 0x110
    29c0:	6863      	ldr	r3, [r4, #4]
    29c2:	2b00      	cmp	r3, #0
    29c4:	dd03      	ble.n	29ce <__ssvfiscanf_r+0x1f2>
    29c6:	9b43      	ldr	r3, [sp, #268]	; 0x10c
    29c8:	0659      	lsls	r1, r3, #25
    29ca:	d511      	bpl.n	29f0 <__ssvfiscanf_r+0x214>
    29cc:	e018      	b.n	2a00 <__ssvfiscanf_r+0x224>
    29ce:	9ba3      	ldr	r3, [sp, #652]	; 0x28c
    29d0:	4638      	mov	r0, r7
    29d2:	4621      	mov	r1, r4
    29d4:	4798      	blx	r3
    29d6:	2800      	cmp	r0, #0
    29d8:	d0f5      	beq.n	29c6 <__ssvfiscanf_r+0x1ea>
    29da:	e7aa      	b.n	2932 <__ssvfiscanf_r+0x156>
    29dc:	9a47      	ldr	r2, [sp, #284]	; 0x11c
    29de:	3201      	adds	r2, #1
    29e0:	9247      	str	r2, [sp, #284]	; 0x11c
    29e2:	6862      	ldr	r2, [r4, #4]
    29e4:	3a01      	subs	r2, #1
    29e6:	2a00      	cmp	r2, #0
    29e8:	6062      	str	r2, [r4, #4]
    29ea:	dd13      	ble.n	2a14 <__ssvfiscanf_r+0x238>
    29ec:	3301      	adds	r3, #1
    29ee:	6023      	str	r3, [r4, #0]
    29f0:	6823      	ldr	r3, [r4, #0]
    29f2:	f8da 2000 	ldr.w	r2, [r10]
    29f6:	7819      	ldrb	r1, [r3, #0]
    29f8:	440a      	add	r2, r1
    29fa:	7852      	ldrb	r2, [r2, #1]
    29fc:	0712      	lsls	r2, r2, #28
    29fe:	d4ed      	bmi.n	29dc <__ssvfiscanf_r+0x200>
    2a00:	9b49      	ldr	r3, [sp, #292]	; 0x124
    2a02:	2b02      	cmp	r3, #2
    2a04:	dc0d      	bgt.n	2a22 <__ssvfiscanf_r+0x246>
    2a06:	4638      	mov	r0, r7
    2a08:	a943      	add	r1, sp, #268	; 0x10c
    2a0a:	4622      	mov	r2, r4
    2a0c:	ab01      	add	r3, sp, #4
    2a0e:	f000 fd15 	bl	343c <_scanf_chars>
    2a12:	e019      	b.n	2a48 <__ssvfiscanf_r+0x26c>
    2a14:	9ba3      	ldr	r3, [sp, #652]	; 0x28c
    2a16:	4638      	mov	r0, r7
    2a18:	4621      	mov	r1, r4
    2a1a:	4798      	blx	r3
    2a1c:	2800      	cmp	r0, #0
    2a1e:	d0e7      	beq.n	29f0 <__ssvfiscanf_r+0x214>
    2a20:	e787      	b.n	2932 <__ssvfiscanf_r+0x156>
    2a22:	2b04      	cmp	r3, #4
    2a24:	dc06      	bgt.n	2a34 <__ssvfiscanf_r+0x258>
    2a26:	4638      	mov	r0, r7
    2a28:	a943      	add	r1, sp, #268	; 0x10c
    2a2a:	4622      	mov	r2, r4
    2a2c:	ab01      	add	r3, sp, #4
    2a2e:	f000 fd65 	bl	34fc <_scanf_i>
    2a32:	e009      	b.n	2a48 <__ssvfiscanf_r+0x26c>
    2a34:	4b0e      	ldr	r3, [pc, #56]	; (2a70 <__ssvfiscanf_r+0x294>)
    2a36:	2b00      	cmp	r3, #0
    2a38:	f43f af0e 	beq.w	2858 <__ssvfiscanf_r+0x7c>
    2a3c:	4638      	mov	r0, r7
    2a3e:	a943      	add	r1, sp, #268	; 0x10c
    2a40:	4622      	mov	r2, r4
    2a42:	ab01      	add	r3, sp, #4
    2a44:	f3af 8000 	nop.w
    2a48:	2801      	cmp	r0, #1
    2a4a:	d003      	beq.n	2a54 <__ssvfiscanf_r+0x278>
    2a4c:	2802      	cmp	r0, #2
    2a4e:	f47f af03 	bne.w	2858 <__ssvfiscanf_r+0x7c>
    2a52:	e76e      	b.n	2932 <__ssvfiscanf_r+0x156>
    2a54:	9846      	ldr	r0, [sp, #280]	; 0x118
    2a56:	e001      	b.n	2a5c <__ssvfiscanf_r+0x280>
    2a58:	f04f 30ff 	mov.w	r0, #4294967295	; 0xffffffff
    2a5c:	f50d 7d24 	add.w	sp, sp, #656	; 0x290
    2a60:	e8bd 87f0 	ldmia.w	sp!, {r4, r5, r6, r7, r8, r9, r10, pc}
    2a64:	00002727 	.word	0x00002727
    2a68:	000027a1 	.word	0x000027a1
    2a6c:	10000138 	.word	0x10000138
    2a70:	00000000 	.word	0x00000000
    2a74:	00004438 	.word	0x00004438

00002a78 <__submore>:
    2a78:	e92d 41f0 	stmdb	sp!, {r4, r5, r6, r7, r8, lr}
    2a7c:	460c      	mov	r4, r1
    2a7e:	6b49      	ldr	r1, [r1, #52]	; 0x34
    2a80:	f104 0344 	add.w	r3, r4, #68	; 0x44
    2a84:	4299      	cmp	r1, r3
    2a86:	d11a      	bne.n	2abe <__submore+0x46>
    2a88:	f44f 6180 	mov.w	r1, #1024	; 0x400
    2a8c:	f7ff fcac 	bl	23e8 <_malloc_r>
    2a90:	b918      	cbnz	r0, 2a9a <__submore+0x22>
    2a92:	f04f 30ff 	mov.w	r0, #4294967295	; 0xffffffff
    2a96:	e8bd 81f0 	ldmia.w	sp!, {r4, r5, r6, r7, r8, pc}
    2a9a:	f44f 6380 	mov.w	r3, #1024	; 0x400
    2a9e:	63a3      	str	r3, [r4, #56]	; 0x38
    2aa0:	f894 3046 	ldrb.w	r3, [r4, #70]	; 0x46
    2aa4:	6360      	str	r0, [r4, #52]	; 0x34
    2aa6:	f880 33ff 	strb.w	r3, [r0, #1023]	; 0x3ff
    2aaa:	f894 3045 	ldrb.w	r3, [r4, #69]	; 0x45
    2aae:	f200 30fd 	addw	r0, r0, #1021	; 0x3fd
    2ab2:	7043      	strb	r3, [r0, #1]
    2ab4:	f894 3044 	ldrb.w	r3, [r4, #68]	; 0x44
    2ab8:	7003      	strb	r3, [r0, #0]
    2aba:	6020      	str	r0, [r4, #0]
    2abc:	e012      	b.n	2ae4 <__submore+0x6c>
    2abe:	6ba6      	ldr	r6, [r4, #56]	; 0x38
    2ac0:	0077      	lsls	r7, r6, #1
    2ac2:	463a      	mov	r2, r7
    2ac4:	f000 ff77 	bl	39b6 <_realloc_r>
    2ac8:	4605      	mov	r5, r0
    2aca:	2800      	cmp	r0, #0
    2acc:	d0e1      	beq.n	2a92 <__submore+0x1a>
    2ace:	eb00 0806 	add.w	r8, r0, r6
    2ad2:	4640      	mov	r0, r8
    2ad4:	4629      	mov	r1, r5
    2ad6:	4632      	mov	r2, r6
    2ad8:	f000 ff64 	bl	39a4 <memcpy>
    2adc:	f8c4 8000 	str.w	r8, [r4]
    2ae0:	6365      	str	r5, [r4, #52]	; 0x34
    2ae2:	63a7      	str	r7, [r4, #56]	; 0x38
    2ae4:	2000      	movs	r0, #0
    2ae6:	e8bd 81f0 	ldmia.w	sp!, {r4, r5, r6, r7, r8, pc}
	...

00002aec <_ungetc_r>:
    2aec:	1c4b      	adds	r3, r1, #1
    2aee:	b570      	push	{r4, r5, r6, lr}
    2af0:	4605      	mov	r5, r0
    2af2:	460e      	mov	r6, r1
    2af4:	4614      	mov	r4, r2
    2af6:	d102      	bne.n	2afe <_ungetc_r+0x12>
    2af8:	f04f 30ff 	mov.w	r0, #4294967295	; 0xffffffff
    2afc:	bd70      	pop	{r4, r5, r6, pc}
    2afe:	b118      	cbz	r0, 2b08 <_ungetc_r+0x1c>
    2b00:	6983      	ldr	r3, [r0, #24]
    2b02:	b90b      	cbnz	r3, 2b08 <_ungetc_r+0x1c>
    2b04:	f7ff f99e 	bl	1e44 <__sinit>
    2b08:	4b2e      	ldr	r3, [pc, #184]	; (2bc4 <_ungetc_r+0xd8>)
    2b0a:	429c      	cmp	r4, r3
    2b0c:	d101      	bne.n	2b12 <_ungetc_r+0x26>
    2b0e:	686c      	ldr	r4, [r5, #4]
    2b10:	e008      	b.n	2b24 <_ungetc_r+0x38>
    2b12:	4b2d      	ldr	r3, [pc, #180]	; (2bc8 <_ungetc_r+0xdc>)
    2b14:	429c      	cmp	r4, r3
    2b16:	d101      	bne.n	2b1c <_ungetc_r+0x30>
    2b18:	68ac      	ldr	r4, [r5, #8]
    2b1a:	e003      	b.n	2b24 <_ungetc_r+0x38>
    2b1c:	4b2b      	ldr	r3, [pc, #172]	; (2bcc <_ungetc_r+0xe0>)
    2b1e:	429c      	cmp	r4, r3
    2b20:	bf08      	it	eq
    2b22:	68ec      	ldreq	r4, [r5, #12]
    2b24:	89a3      	ldrh	r3, [r4, #12]
    2b26:	f023 0320 	bic.w	r3, r3, #32
    2b2a:	b29b      	uxth	r3, r3
    2b2c:	81a3      	strh	r3, [r4, #12]
    2b2e:	b29b      	uxth	r3, r3
    2b30:	0759      	lsls	r1, r3, #29
    2b32:	d413      	bmi.n	2b5c <_ungetc_r+0x70>
    2b34:	06da      	lsls	r2, r3, #27
    2b36:	d5df      	bpl.n	2af8 <_ungetc_r+0xc>
    2b38:	071b      	lsls	r3, r3, #28
    2b3a:	d50b      	bpl.n	2b54 <_ungetc_r+0x68>
    2b3c:	4628      	mov	r0, r5
    2b3e:	4621      	mov	r1, r4
    2b40:	f7ff f8f0 	bl	1d24 <_fflush_r>
    2b44:	2800      	cmp	r0, #0
    2b46:	d1d7      	bne.n	2af8 <_ungetc_r+0xc>
    2b48:	89a3      	ldrh	r3, [r4, #12]
    2b4a:	60a0      	str	r0, [r4, #8]
    2b4c:	f023 0308 	bic.w	r3, r3, #8
    2b50:	81a3      	strh	r3, [r4, #12]
    2b52:	61a0      	str	r0, [r4, #24]
    2b54:	89a3      	ldrh	r3, [r4, #12]
    2b56:	f043 0304 	orr.w	r3, r3, #4
    2b5a:	81a3      	strh	r3, [r4, #12]
    2b5c:	6b63      	ldr	r3, [r4, #52]	; 0x34
    2b5e:	b2f6      	uxtb	r6, r6
    2b60:	6862      	ldr	r2, [r4, #4]
    2b62:	b18b      	cbz	r3, 2b88 <_ungetc_r+0x9c>
    2b64:	6ba3      	ldr	r3, [r4, #56]	; 0x38
    2b66:	429a      	cmp	r2, r3
    2b68:	da07      	bge.n	2b7a <_ungetc_r+0x8e>
    2b6a:	6823      	ldr	r3, [r4, #0]
    2b6c:	1e5a      	subs	r2, r3, #1
    2b6e:	6022      	str	r2, [r4, #0]
    2b70:	f803 6c01 	strb.w	r6, [r3, #-1]
    2b74:	6863      	ldr	r3, [r4, #4]
    2b76:	3301      	adds	r3, #1
    2b78:	e020      	b.n	2bbc <_ungetc_r+0xd0>
    2b7a:	4628      	mov	r0, r5
    2b7c:	4621      	mov	r1, r4
    2b7e:	f7ff ff7b 	bl	2a78 <__submore>
    2b82:	2800      	cmp	r0, #0
    2b84:	d0f1      	beq.n	2b6a <_ungetc_r+0x7e>
    2b86:	e7b7      	b.n	2af8 <_ungetc_r+0xc>
    2b88:	6921      	ldr	r1, [r4, #16]
    2b8a:	6823      	ldr	r3, [r4, #0]
    2b8c:	b151      	cbz	r1, 2ba4 <_ungetc_r+0xb8>
    2b8e:	428b      	cmp	r3, r1
    2b90:	d908      	bls.n	2ba4 <_ungetc_r+0xb8>
    2b92:	f813 0c01 	ldrb.w	r0, [r3, #-1]
    2b96:	42b0      	cmp	r0, r6
    2b98:	d104      	bne.n	2ba4 <_ungetc_r+0xb8>
    2b9a:	3b01      	subs	r3, #1
    2b9c:	3201      	adds	r2, #1
    2b9e:	6023      	str	r3, [r4, #0]
    2ba0:	6062      	str	r2, [r4, #4]
    2ba2:	bd70      	pop	{r4, r5, r6, pc}
    2ba4:	63e3      	str	r3, [r4, #60]	; 0x3c
    2ba6:	f104 0344 	add.w	r3, r4, #68	; 0x44
    2baa:	6363      	str	r3, [r4, #52]	; 0x34
    2bac:	2303      	movs	r3, #3
    2bae:	63a3      	str	r3, [r4, #56]	; 0x38
    2bb0:	4623      	mov	r3, r4
    2bb2:	6422      	str	r2, [r4, #64]	; 0x40
    2bb4:	f803 6f46 	strb.w	r6, [r3, #70]!
    2bb8:	6023      	str	r3, [r4, #0]
    2bba:	2301      	movs	r3, #1
    2bbc:	6063      	str	r3, [r4, #4]
    2bbe:	4630      	mov	r0, r6
    2bc0:	bd70      	pop	{r4, r5, r6, pc}
    2bc2:	bf00      	nop
    2bc4:	000043d0 	.word	0x000043d0
    2bc8:	000043f0 	.word	0x000043f0
    2bcc:	00004410 	.word	0x00004410

00002bd0 <__sfputc_r>:
    2bd0:	6893      	ldr	r3, [r2, #8]
    2bd2:	b510      	push	{r4, lr}
    2bd4:	3b01      	subs	r3, #1
    2bd6:	2b00      	cmp	r3, #0
    2bd8:	6093      	str	r3, [r2, #8]
    2bda:	da05      	bge.n	2be8 <__sfputc_r+0x18>
    2bdc:	6994      	ldr	r4, [r2, #24]
    2bde:	42a3      	cmp	r3, r4
    2be0:	db08      	blt.n	2bf4 <__sfputc_r+0x24>
    2be2:	b2cb      	uxtb	r3, r1
    2be4:	2b0a      	cmp	r3, #10
    2be6:	d005      	beq.n	2bf4 <__sfputc_r+0x24>
    2be8:	6813      	ldr	r3, [r2, #0]
    2bea:	1c58      	adds	r0, r3, #1
    2bec:	6010      	str	r0, [r2, #0]
    2bee:	7019      	strb	r1, [r3, #0]
    2bf0:	b2c8      	uxtb	r0, r1
    2bf2:	bd10      	pop	{r4, pc}
    2bf4:	e8bd 4010 	ldmia.w	sp!, {r4, lr}
    2bf8:	f000 bd76 	b.w	36e8 <__swbuf_r>

00002bfc <__sfputs_r>:
    2bfc:	b5f8      	push	{r3, r4, r5, r6, r7, lr}
    2bfe:	4605      	mov	r5, r0
    2c00:	460e      	mov	r6, r1
    2c02:	4614      	mov	r4, r2
    2c04:	18d7      	adds	r7, r2, r3
    2c06:	42bc      	cmp	r4, r7
    2c08:	d008      	beq.n	2c1c <__sfputs_r+0x20>
    2c0a:	4628      	mov	r0, r5
    2c0c:	f814 1b01 	ldrb.w	r1, [r4], #1
    2c10:	4632      	mov	r2, r6
    2c12:	f7ff ffdd 	bl	2bd0 <__sfputc_r>
    2c16:	1c43      	adds	r3, r0, #1
    2c18:	d1f5      	bne.n	2c06 <__sfputs_r+0xa>
    2c1a:	e000      	b.n	2c1e <__sfputs_r+0x22>
    2c1c:	2000      	movs	r0, #0
    2c1e:	bdf8      	pop	{r3, r4, r5, r6, r7, pc}

00002c20 <_vfiprintf_r>:
    2c20:	e92d 43f0 	stmdb	sp!, {r4, r5, r6, r7, r8, r9, lr}
    2c24:	b09d      	sub	sp, #116	; 0x74
    2c26:	460d      	mov	r5, r1
    2c28:	4617      	mov	r7, r2
    2c2a:	9303      	str	r3, [sp, #12]
    2c2c:	4606      	mov	r6, r0
    2c2e:	b118      	cbz	r0, 2c38 <_vfiprintf_r+0x18>
    2c30:	6983      	ldr	r3, [r0, #24]
    2c32:	b90b      	cbnz	r3, 2c38 <_vfiprintf_r+0x18>
    2c34:	f7ff f906 	bl	1e44 <__sinit>
    2c38:	4b73      	ldr	r3, [pc, #460]	; (2e08 <_vfiprintf_r+0x1e8>)
    2c3a:	429d      	cmp	r5, r3
    2c3c:	d101      	bne.n	2c42 <_vfiprintf_r+0x22>
    2c3e:	6875      	ldr	r5, [r6, #4]
    2c40:	e008      	b.n	2c54 <_vfiprintf_r+0x34>
    2c42:	4b72      	ldr	r3, [pc, #456]	; (2e0c <_vfiprintf_r+0x1ec>)
    2c44:	429d      	cmp	r5, r3
    2c46:	d101      	bne.n	2c4c <_vfiprintf_r+0x2c>
    2c48:	68b5      	ldr	r5, [r6, #8]
    2c4a:	e003      	b.n	2c54 <_vfiprintf_r+0x34>
    2c4c:	4b70      	ldr	r3, [pc, #448]	; (2e10 <_vfiprintf_r+0x1f0>)
    2c4e:	429d      	cmp	r5, r3
    2c50:	bf08      	it	eq
    2c52:	68f5      	ldreq	r5, [r6, #12]
    2c54:	89ab      	ldrh	r3, [r5, #12]
    2c56:	0718      	lsls	r0, r3, #28
    2c58:	d50a      	bpl.n	2c70 <_vfiprintf_r+0x50>
    2c5a:	692b      	ldr	r3, [r5, #16]
    2c5c:	b143      	cbz	r3, 2c70 <_vfiprintf_r+0x50>
    2c5e:	2300      	movs	r3, #0
    2c60:	9309      	str	r3, [sp, #36]	; 0x24
    2c62:	2320      	movs	r3, #32
    2c64:	f88d 3029 	strb.w	r3, [sp, #41]	; 0x29
    2c68:	2330      	movs	r3, #48	; 0x30
    2c6a:	f88d 302a 	strb.w	r3, [sp, #42]	; 0x2a
    2c6e:	e038      	b.n	2ce2 <_vfiprintf_r+0xc2>
    2c70:	4630      	mov	r0, r6
    2c72:	4629      	mov	r1, r5
    2c74:	f000 fd9e 	bl	37b4 <__swsetup_r>
    2c78:	2800      	cmp	r0, #0
    2c7a:	d0f0      	beq.n	2c5e <_vfiprintf_r+0x3e>
    2c7c:	f04f 30ff 	mov.w	r0, #4294967295	; 0xffffffff
    2c80:	e0be      	b.n	2e00 <_vfiprintf_r+0x1e0>
    2c82:	9a03      	ldr	r2, [sp, #12]
    2c84:	1d11      	adds	r1, r2, #4
    2c86:	6812      	ldr	r2, [r2, #0]
    2c88:	9103      	str	r1, [sp, #12]
    2c8a:	2a00      	cmp	r2, #0
    2c8c:	db70      	blt.n	2d70 <_vfiprintf_r+0x150>
    2c8e:	9207      	str	r2, [sp, #28]
    2c90:	3401      	adds	r4, #1
    2c92:	7823      	ldrb	r3, [r4, #0]
    2c94:	2b2e      	cmp	r3, #46	; 0x2e
    2c96:	d07d      	beq.n	2d94 <_vfiprintf_r+0x174>
    2c98:	4f5e      	ldr	r7, [pc, #376]	; (2e14 <_vfiprintf_r+0x1f4>)
    2c9a:	7821      	ldrb	r1, [r4, #0]
    2c9c:	4638      	mov	r0, r7
    2c9e:	2203      	movs	r2, #3
    2ca0:	f000 fe72 	bl	3988 <memchr>
    2ca4:	b130      	cbz	r0, 2cb4 <_vfiprintf_r+0x94>
    2ca6:	1bc7      	subs	r7, r0, r7
    2ca8:	2040      	movs	r0, #64	; 0x40
    2caa:	40b8      	lsls	r0, r7
    2cac:	9b04      	ldr	r3, [sp, #16]
    2cae:	3401      	adds	r4, #1
    2cb0:	4303      	orrs	r3, r0
    2cb2:	9304      	str	r3, [sp, #16]
    2cb4:	7821      	ldrb	r1, [r4, #0]
    2cb6:	4858      	ldr	r0, [pc, #352]	; (2e18 <_vfiprintf_r+0x1f8>)
    2cb8:	2206      	movs	r2, #6
    2cba:	1c67      	adds	r7, r4, #1
    2cbc:	f88d 1028 	strb.w	r1, [sp, #40]	; 0x28
    2cc0:	f000 fe62 	bl	3988 <memchr>
    2cc4:	2800      	cmp	r0, #0
    2cc6:	f000 8089 	beq.w	2ddc <_vfiprintf_r+0x1bc>
    2cca:	4b54      	ldr	r3, [pc, #336]	; (2e1c <_vfiprintf_r+0x1fc>)
    2ccc:	2b00      	cmp	r3, #0
    2cce:	d17c      	bne.n	2dca <_vfiprintf_r+0x1aa>
    2cd0:	9b03      	ldr	r3, [sp, #12]
    2cd2:	3307      	adds	r3, #7
    2cd4:	f023 0307 	bic.w	r3, r3, #7
    2cd8:	3308      	adds	r3, #8
    2cda:	9303      	str	r3, [sp, #12]
    2cdc:	9b09      	ldr	r3, [sp, #36]	; 0x24
    2cde:	4443      	add	r3, r8
    2ce0:	9309      	str	r3, [sp, #36]	; 0x24
    2ce2:	463b      	mov	r3, r7
    2ce4:	461c      	mov	r4, r3
    2ce6:	f813 2b01 	ldrb.w	r2, [r3], #1
    2cea:	b91a      	cbnz	r2, 2cf4 <_vfiprintf_r+0xd4>
    2cec:	ebb4 0907 	subs.w	r9, r4, r7
    2cf0:	d00e      	beq.n	2d10 <_vfiprintf_r+0xf0>
    2cf2:	e002      	b.n	2cfa <_vfiprintf_r+0xda>
    2cf4:	2a25      	cmp	r2, #37	; 0x25
    2cf6:	d1f5      	bne.n	2ce4 <_vfiprintf_r+0xc4>
    2cf8:	e7f8      	b.n	2cec <_vfiprintf_r+0xcc>
    2cfa:	4630      	mov	r0, r6
    2cfc:	4629      	mov	r1, r5
    2cfe:	463a      	mov	r2, r7
    2d00:	464b      	mov	r3, r9
    2d02:	f7ff ff7b 	bl	2bfc <__sfputs_r>
    2d06:	3001      	adds	r0, #1
    2d08:	d075      	beq.n	2df6 <_vfiprintf_r+0x1d6>
    2d0a:	9b09      	ldr	r3, [sp, #36]	; 0x24
    2d0c:	444b      	add	r3, r9
    2d0e:	9309      	str	r3, [sp, #36]	; 0x24
    2d10:	7823      	ldrb	r3, [r4, #0]
    2d12:	2b00      	cmp	r3, #0
    2d14:	d06f      	beq.n	2df6 <_vfiprintf_r+0x1d6>
    2d16:	2300      	movs	r3, #0
    2d18:	f04f 32ff 	mov.w	r2, #4294967295	; 0xffffffff
    2d1c:	9304      	str	r3, [sp, #16]
    2d1e:	9307      	str	r3, [sp, #28]
    2d20:	9205      	str	r2, [sp, #20]
    2d22:	9306      	str	r3, [sp, #24]
    2d24:	f88d 3053 	strb.w	r3, [sp, #83]	; 0x53
    2d28:	931a      	str	r3, [sp, #104]	; 0x68
    2d2a:	f104 0901 	add.w	r9, r4, #1
    2d2e:	4f3c      	ldr	r7, [pc, #240]	; (2e20 <_vfiprintf_r+0x200>)
    2d30:	464c      	mov	r4, r9
    2d32:	4638      	mov	r0, r7
    2d34:	7821      	ldrb	r1, [r4, #0]
    2d36:	2205      	movs	r2, #5
    2d38:	f000 fe26 	bl	3988 <memchr>
    2d3c:	f109 0901 	add.w	r9, r9, #1
    2d40:	9b04      	ldr	r3, [sp, #16]
    2d42:	b128      	cbz	r0, 2d50 <_vfiprintf_r+0x130>
    2d44:	1bc7      	subs	r7, r0, r7
    2d46:	2001      	movs	r0, #1
    2d48:	40b8      	lsls	r0, r7
    2d4a:	4303      	orrs	r3, r0
    2d4c:	9304      	str	r3, [sp, #16]
    2d4e:	e7ee      	b.n	2d2e <_vfiprintf_r+0x10e>
    2d50:	06d9      	lsls	r1, r3, #27
    2d52:	bf44      	itt	mi
    2d54:	2220      	movmi	r2, #32
    2d56:	f88d 2053 	strbmi.w	r2, [sp, #83]	; 0x53
    2d5a:	071a      	lsls	r2, r3, #28
    2d5c:	bf44      	itt	mi
    2d5e:	222b      	movmi	r2, #43	; 0x2b
    2d60:	f88d 2053 	strbmi.w	r2, [sp, #83]	; 0x53
    2d64:	7822      	ldrb	r2, [r4, #0]
    2d66:	2a2a      	cmp	r2, #42	; 0x2a
    2d68:	d08b      	beq.n	2c82 <_vfiprintf_r+0x62>
    2d6a:	9b07      	ldr	r3, [sp, #28]
    2d6c:	4621      	mov	r1, r4
    2d6e:	e005      	b.n	2d7c <_vfiprintf_r+0x15c>
    2d70:	4252      	negs	r2, r2
    2d72:	f043 0302 	orr.w	r3, r3, #2
    2d76:	9207      	str	r2, [sp, #28]
    2d78:	9304      	str	r3, [sp, #16]
    2d7a:	e789      	b.n	2c90 <_vfiprintf_r+0x70>
    2d7c:	460c      	mov	r4, r1
    2d7e:	7822      	ldrb	r2, [r4, #0]
    2d80:	3101      	adds	r1, #1
    2d82:	3a30      	subs	r2, #48	; 0x30
    2d84:	2a09      	cmp	r2, #9
    2d86:	d803      	bhi.n	2d90 <_vfiprintf_r+0x170>
    2d88:	200a      	movs	r0, #10
    2d8a:	fb00 2303 	mla	r3, r0, r3, r2
    2d8e:	e7f5      	b.n	2d7c <_vfiprintf_r+0x15c>
    2d90:	9307      	str	r3, [sp, #28]
    2d92:	e77e      	b.n	2c92 <_vfiprintf_r+0x72>
    2d94:	7863      	ldrb	r3, [r4, #1]
    2d96:	2b2a      	cmp	r3, #42	; 0x2a
    2d98:	d109      	bne.n	2dae <_vfiprintf_r+0x18e>
    2d9a:	9b03      	ldr	r3, [sp, #12]
    2d9c:	3402      	adds	r4, #2
    2d9e:	1d1a      	adds	r2, r3, #4
    2da0:	681b      	ldr	r3, [r3, #0]
    2da2:	9203      	str	r2, [sp, #12]
    2da4:	2b00      	cmp	r3, #0
    2da6:	bfb8      	it	lt
    2da8:	f04f 33ff 	movlt.w	r3, #4294967295	; 0xffffffff
    2dac:	e00b      	b.n	2dc6 <_vfiprintf_r+0x1a6>
    2dae:	1c61      	adds	r1, r4, #1
    2db0:	2300      	movs	r3, #0
    2db2:	460c      	mov	r4, r1
    2db4:	7822      	ldrb	r2, [r4, #0]
    2db6:	3101      	adds	r1, #1
    2db8:	3a30      	subs	r2, #48	; 0x30
    2dba:	2a09      	cmp	r2, #9
    2dbc:	d803      	bhi.n	2dc6 <_vfiprintf_r+0x1a6>
    2dbe:	200a      	movs	r0, #10
    2dc0:	fb00 2303 	mla	r3, r0, r3, r2
    2dc4:	e7f5      	b.n	2db2 <_vfiprintf_r+0x192>
    2dc6:	9305      	str	r3, [sp, #20]
    2dc8:	e766      	b.n	2c98 <_vfiprintf_r+0x78>
    2dca:	ab03      	add	r3, sp, #12
    2dcc:	9300      	str	r3, [sp, #0]
    2dce:	4630      	mov	r0, r6
    2dd0:	a904      	add	r1, sp, #16
    2dd2:	462a      	mov	r2, r5
    2dd4:	4b13      	ldr	r3, [pc, #76]	; (2e24 <_vfiprintf_r+0x204>)
    2dd6:	f3af 8000 	nop.w
    2dda:	e007      	b.n	2dec <_vfiprintf_r+0x1cc>
    2ddc:	ab03      	add	r3, sp, #12
    2dde:	9300      	str	r3, [sp, #0]
    2de0:	4630      	mov	r0, r6
    2de2:	a904      	add	r1, sp, #16
    2de4:	462a      	mov	r2, r5
    2de6:	4b0f      	ldr	r3, [pc, #60]	; (2e24 <_vfiprintf_r+0x204>)
    2de8:	f000 f89e 	bl	2f28 <_printf_i>
    2dec:	f1b0 3fff 	cmp.w	r0, #4294967295	; 0xffffffff
    2df0:	4680      	mov	r8, r0
    2df2:	f47f af73 	bne.w	2cdc <_vfiprintf_r+0xbc>
    2df6:	89ab      	ldrh	r3, [r5, #12]
    2df8:	065b      	lsls	r3, r3, #25
    2dfa:	f53f af3f 	bmi.w	2c7c <_vfiprintf_r+0x5c>
    2dfe:	9809      	ldr	r0, [sp, #36]	; 0x24
    2e00:	b01d      	add	sp, #116	; 0x74
    2e02:	e8bd 83f0 	ldmia.w	sp!, {r4, r5, r6, r7, r8, r9, pc}
    2e06:	bf00      	nop
    2e08:	000043d0 	.word	0x000043d0
    2e0c:	000043f0 	.word	0x000043f0
    2e10:	00004410 	.word	0x00004410
    2e14:	00004438 	.word	0x00004438
    2e18:	00004442 	.word	0x00004442
    2e1c:	00000000 	.word	0x00000000
    2e20:	0000443c 	.word	0x0000443c
    2e24:	00002bfd 	.word	0x00002bfd

00002e28 <vfiprintf>:
    2e28:	b530      	push	{r4, r5, lr}
    2e2a:	4613      	mov	r3, r2
    2e2c:	4a04      	ldr	r2, [pc, #16]	; (2e40 <vfiprintf+0x18>)
    2e2e:	4605      	mov	r5, r0
    2e30:	460c      	mov	r4, r1
    2e32:	6810      	ldr	r0, [r2, #0]
    2e34:	4629      	mov	r1, r5
    2e36:	4622      	mov	r2, r4
    2e38:	e8bd 4030 	ldmia.w	sp!, {r4, r5, lr}
    2e3c:	f7ff bef0 	b.w	2c20 <_vfiprintf_r>
    2e40:	10000134 	.word	0x10000134

00002e44 <_printf_common>:
    2e44:	e92d 43f8 	stmdb	sp!, {r3, r4, r5, r6, r7, r8, r9, lr}
    2e48:	4615      	mov	r5, r2
    2e4a:	461f      	mov	r7, r3
    2e4c:	688a      	ldr	r2, [r1, #8]
    2e4e:	690b      	ldr	r3, [r1, #16]
    2e50:	4606      	mov	r6, r0
    2e52:	429a      	cmp	r2, r3
    2e54:	bfa8      	it	ge
    2e56:	4613      	movge	r3, r2
    2e58:	602b      	str	r3, [r5, #0]
    2e5a:	f891 2043 	ldrb.w	r2, [r1, #67]	; 0x43
    2e5e:	460c      	mov	r4, r1
    2e60:	f8dd 8020 	ldr.w	r8, [sp, #32]
    2e64:	b10a      	cbz	r2, 2e6a <_printf_common+0x26>
    2e66:	3301      	adds	r3, #1
    2e68:	602b      	str	r3, [r5, #0]
    2e6a:	6823      	ldr	r3, [r4, #0]
    2e6c:	0699      	lsls	r1, r3, #26
    2e6e:	d502      	bpl.n	2e76 <_printf_common+0x32>
    2e70:	682b      	ldr	r3, [r5, #0]
    2e72:	3302      	adds	r3, #2
    2e74:	602b      	str	r3, [r5, #0]
    2e76:	6823      	ldr	r3, [r4, #0]
    2e78:	f013 0906 	ands.w	r9, r3, #6
    2e7c:	d01d      	beq.n	2eba <_printf_common+0x76>
    2e7e:	f894 3043 	ldrb.w	r3, [r4, #67]	; 0x43
    2e82:	6822      	ldr	r2, [r4, #0]
    2e84:	3300      	adds	r3, #0
    2e86:	bf18      	it	ne
    2e88:	2301      	movne	r3, #1
    2e8a:	0692      	lsls	r2, r2, #26
    2e8c:	d51f      	bpl.n	2ece <_printf_common+0x8a>
    2e8e:	18e1      	adds	r1, r4, r3
    2e90:	2030      	movs	r0, #48	; 0x30
    2e92:	f881 0043 	strb.w	r0, [r1, #67]	; 0x43
    2e96:	1c5a      	adds	r2, r3, #1
    2e98:	f894 1045 	ldrb.w	r1, [r4, #69]	; 0x45
    2e9c:	4422      	add	r2, r4
    2e9e:	3302      	adds	r3, #2
    2ea0:	f882 1043 	strb.w	r1, [r2, #67]	; 0x43
    2ea4:	e013      	b.n	2ece <_printf_common+0x8a>
    2ea6:	4630      	mov	r0, r6
    2ea8:	4639      	mov	r1, r7
    2eaa:	f104 0219 	add.w	r2, r4, #25
    2eae:	2301      	movs	r3, #1
    2eb0:	47c0      	blx	r8
    2eb2:	3001      	adds	r0, #1
    2eb4:	d007      	beq.n	2ec6 <_printf_common+0x82>
    2eb6:	f109 0901 	add.w	r9, r9, #1
    2eba:	68e2      	ldr	r2, [r4, #12]
    2ebc:	682b      	ldr	r3, [r5, #0]
    2ebe:	1ad3      	subs	r3, r2, r3
    2ec0:	4599      	cmp	r9, r3
    2ec2:	dbf0      	blt.n	2ea6 <_printf_common+0x62>
    2ec4:	e7db      	b.n	2e7e <_printf_common+0x3a>
    2ec6:	f04f 30ff 	mov.w	r0, #4294967295	; 0xffffffff
    2eca:	e8bd 83f8 	ldmia.w	sp!, {r3, r4, r5, r6, r7, r8, r9, pc}
    2ece:	4630      	mov	r0, r6
    2ed0:	4639      	mov	r1, r7
    2ed2:	f104 0243 	add.w	r2, r4, #67	; 0x43
    2ed6:	47c0      	blx	r8
    2ed8:	3001      	adds	r0, #1
    2eda:	d0f4      	beq.n	2ec6 <_printf_common+0x82>
    2edc:	6823      	ldr	r3, [r4, #0]
    2ede:	682a      	ldr	r2, [r5, #0]
    2ee0:	f003 0306 	and.w	r3, r3, #6
    2ee4:	68e1      	ldr	r1, [r4, #12]
    2ee6:	2b04      	cmp	r3, #4
    2ee8:	bf08      	it	eq
    2eea:	ebc2 0501 	rsbeq	r5, r2, r1
    2eee:	6923      	ldr	r3, [r4, #16]
    2ef0:	68a2      	ldr	r2, [r4, #8]
    2ef2:	bf0c      	ite	eq
    2ef4:	ea25 75e5 	biceq.w	r5, r5, r5, asr #31
    2ef8:	2500      	movne	r5, #0
    2efa:	429a      	cmp	r2, r3
    2efc:	bfc4      	itt	gt
    2efe:	ebc3 0302 	rsbgt	r3, r3, r2
    2f02:	18ed      	addgt	r5, r5, r3
    2f04:	f04f 0900 	mov.w	r9, #0
    2f08:	45a9      	cmp	r9, r5
    2f0a:	da0a      	bge.n	2f22 <_printf_common+0xde>
    2f0c:	4630      	mov	r0, r6
    2f0e:	4639      	mov	r1, r7
    2f10:	f104 021a 	add.w	r2, r4, #26
    2f14:	2301      	movs	r3, #1
    2f16:	47c0      	blx	r8
    2f18:	3001      	adds	r0, #1
    2f1a:	d0d4      	beq.n	2ec6 <_printf_common+0x82>
    2f1c:	f109 0901 	add.w	r9, r9, #1
    2f20:	e7f2      	b.n	2f08 <_printf_common+0xc4>
    2f22:	2000      	movs	r0, #0
    2f24:	e8bd 83f8 	ldmia.w	sp!, {r3, r4, r5, r6, r7, r8, r9, pc}

00002f28 <_printf_i>:
    2f28:	e92d 47ff 	stmdb	sp!, {r0, r1, r2, r3, r4, r5, r6, r7, r8, r9, r10, lr}
    2f2c:	7e0e      	ldrb	r6, [r1, #24]
    2f2e:	4680      	mov	r8, r0
    2f30:	2e6e      	cmp	r6, #110	; 0x6e
    2f32:	460c      	mov	r4, r1
    2f34:	4691      	mov	r9, r2
    2f36:	469a      	mov	r10, r3
    2f38:	9d0c      	ldr	r5, [sp, #48]	; 0x30
    2f3a:	f101 0043 	add.w	r0, r1, #67	; 0x43
    2f3e:	f000 80a5 	beq.w	308c <_printf_i+0x164>
    2f42:	d811      	bhi.n	2f68 <_printf_i+0x40>
    2f44:	2e63      	cmp	r6, #99	; 0x63
    2f46:	d022      	beq.n	2f8e <_printf_i+0x66>
    2f48:	d809      	bhi.n	2f5e <_printf_i+0x36>
    2f4a:	2e00      	cmp	r6, #0
    2f4c:	f000 80af 	beq.w	30ae <_printf_i+0x186>
    2f50:	2e58      	cmp	r6, #88	; 0x58
    2f52:	f040 80bf 	bne.w	30d4 <_printf_i+0x1ac>
    2f56:	f881 6045 	strb.w	r6, [r1, #69]	; 0x45
    2f5a:	4a7b      	ldr	r2, [pc, #492]	; (3148 <_printf_i+0x220>)
    2f5c:	e04f      	b.n	2ffe <_printf_i+0xd6>
    2f5e:	2e64      	cmp	r6, #100	; 0x64
    2f60:	d01e      	beq.n	2fa0 <_printf_i+0x78>
    2f62:	2e69      	cmp	r6, #105	; 0x69
    2f64:	d01c      	beq.n	2fa0 <_printf_i+0x78>
    2f66:	e0b5      	b.n	30d4 <_printf_i+0x1ac>
    2f68:	2e73      	cmp	r6, #115	; 0x73
    2f6a:	f000 80a4 	beq.w	30b6 <_printf_i+0x18e>
    2f6e:	d809      	bhi.n	2f84 <_printf_i+0x5c>
    2f70:	2e6f      	cmp	r6, #111	; 0x6f
    2f72:	d02b      	beq.n	2fcc <_printf_i+0xa4>
    2f74:	2e70      	cmp	r6, #112	; 0x70
    2f76:	f040 80ad 	bne.w	30d4 <_printf_i+0x1ac>
    2f7a:	680b      	ldr	r3, [r1, #0]
    2f7c:	f043 0320 	orr.w	r3, r3, #32
    2f80:	600b      	str	r3, [r1, #0]
    2f82:	e038      	b.n	2ff6 <_printf_i+0xce>
    2f84:	2e75      	cmp	r6, #117	; 0x75
    2f86:	d021      	beq.n	2fcc <_printf_i+0xa4>
    2f88:	2e78      	cmp	r6, #120	; 0x78
    2f8a:	d034      	beq.n	2ff6 <_printf_i+0xce>
    2f8c:	e0a2      	b.n	30d4 <_printf_i+0x1ac>
    2f8e:	682b      	ldr	r3, [r5, #0]
    2f90:	f101 0742 	add.w	r7, r1, #66	; 0x42
    2f94:	1d1a      	adds	r2, r3, #4
    2f96:	681b      	ldr	r3, [r3, #0]
    2f98:	602a      	str	r2, [r5, #0]
    2f9a:	f881 3042 	strb.w	r3, [r1, #66]	; 0x42
    2f9e:	e09d      	b.n	30dc <_printf_i+0x1b4>
    2fa0:	6822      	ldr	r2, [r4, #0]
    2fa2:	682b      	ldr	r3, [r5, #0]
    2fa4:	f012 0f80 	tst.w	r2, #128	; 0x80
    2fa8:	d003      	beq.n	2fb2 <_printf_i+0x8a>
    2faa:	1d1a      	adds	r2, r3, #4
    2fac:	602a      	str	r2, [r5, #0]
    2fae:	681d      	ldr	r5, [r3, #0]
    2fb0:	e005      	b.n	2fbe <_printf_i+0x96>
    2fb2:	0651      	lsls	r1, r2, #25
    2fb4:	d5f9      	bpl.n	2faa <_printf_i+0x82>
    2fb6:	1d1a      	adds	r2, r3, #4
    2fb8:	602a      	str	r2, [r5, #0]
    2fba:	f9b3 5000 	ldrsh.w	r5, [r3]
    2fbe:	2d00      	cmp	r5, #0
    2fc0:	da39      	bge.n	3036 <_printf_i+0x10e>
    2fc2:	232d      	movs	r3, #45	; 0x2d
    2fc4:	426d      	negs	r5, r5
    2fc6:	f884 3043 	strb.w	r3, [r4, #67]	; 0x43
    2fca:	e034      	b.n	3036 <_printf_i+0x10e>
    2fcc:	6822      	ldr	r2, [r4, #0]
    2fce:	682b      	ldr	r3, [r5, #0]
    2fd0:	f012 0f80 	tst.w	r2, #128	; 0x80
    2fd4:	d003      	beq.n	2fde <_printf_i+0xb6>
    2fd6:	1d1a      	adds	r2, r3, #4
    2fd8:	602a      	str	r2, [r5, #0]
    2fda:	681d      	ldr	r5, [r3, #0]
    2fdc:	e004      	b.n	2fe8 <_printf_i+0xc0>
    2fde:	0652      	lsls	r2, r2, #25
    2fe0:	d5f9      	bpl.n	2fd6 <_printf_i+0xae>
    2fe2:	1d1a      	adds	r2, r3, #4
    2fe4:	602a      	str	r2, [r5, #0]
    2fe6:	881d      	ldrh	r5, [r3, #0]
    2fe8:	7e23      	ldrb	r3, [r4, #24]
    2fea:	4a57      	ldr	r2, [pc, #348]	; (3148 <_printf_i+0x220>)
    2fec:	2b6f      	cmp	r3, #111	; 0x6f
    2fee:	bf14      	ite	ne
    2ff0:	230a      	movne	r3, #10
    2ff2:	2308      	moveq	r3, #8
    2ff4:	e01b      	b.n	302e <_printf_i+0x106>
    2ff6:	2378      	movs	r3, #120	; 0x78
    2ff8:	4a54      	ldr	r2, [pc, #336]	; (314c <_printf_i+0x224>)
    2ffa:	f884 3045 	strb.w	r3, [r4, #69]	; 0x45
    2ffe:	6823      	ldr	r3, [r4, #0]
    3000:	6829      	ldr	r1, [r5, #0]
    3002:	f013 0f80 	tst.w	r3, #128	; 0x80
    3006:	f101 0604 	add.w	r6, r1, #4
    300a:	602e      	str	r6, [r5, #0]
    300c:	d001      	beq.n	3012 <_printf_i+0xea>
    300e:	680d      	ldr	r5, [r1, #0]
    3010:	e002      	b.n	3018 <_printf_i+0xf0>
    3012:	065f      	lsls	r7, r3, #25
    3014:	d5fb      	bpl.n	300e <_printf_i+0xe6>
    3016:	880d      	ldrh	r5, [r1, #0]
    3018:	07de      	lsls	r6, r3, #31
    301a:	bf44      	itt	mi
    301c:	f043 0320 	orrmi.w	r3, r3, #32
    3020:	6023      	strmi	r3, [r4, #0]
    3022:	b91d      	cbnz	r5, 302c <_printf_i+0x104>
    3024:	6823      	ldr	r3, [r4, #0]
    3026:	f023 0320 	bic.w	r3, r3, #32
    302a:	6023      	str	r3, [r4, #0]
    302c:	2310      	movs	r3, #16
    302e:	2100      	movs	r1, #0
    3030:	f884 1043 	strb.w	r1, [r4, #67]	; 0x43
    3034:	e001      	b.n	303a <_printf_i+0x112>
    3036:	4a44      	ldr	r2, [pc, #272]	; (3148 <_printf_i+0x220>)
    3038:	230a      	movs	r3, #10
    303a:	6866      	ldr	r6, [r4, #4]
    303c:	2e00      	cmp	r6, #0
    303e:	60a6      	str	r6, [r4, #8]
    3040:	db03      	blt.n	304a <_printf_i+0x122>
    3042:	6821      	ldr	r1, [r4, #0]
    3044:	f021 0104 	bic.w	r1, r1, #4
    3048:	6021      	str	r1, [r4, #0]
    304a:	b905      	cbnz	r5, 304e <_printf_i+0x126>
    304c:	b16e      	cbz	r6, 306a <_printf_i+0x142>
    304e:	f104 0142 	add.w	r1, r4, #66	; 0x42
    3052:	fbb5 f6f3 	udiv	r6, r5, r3
    3056:	fb03 5516 	mls	r5, r3, r6, r5
    305a:	5d55      	ldrb	r5, [r2, r5]
    305c:	460f      	mov	r7, r1
    305e:	f801 5901 	strb.w	r5, [r1], #-1
    3062:	4635      	mov	r5, r6
    3064:	2e00      	cmp	r6, #0
    3066:	d1f4      	bne.n	3052 <_printf_i+0x12a>
    3068:	e000      	b.n	306c <_printf_i+0x144>
    306a:	4607      	mov	r7, r0
    306c:	2b08      	cmp	r3, #8
    306e:	d10a      	bne.n	3086 <_printf_i+0x15e>
    3070:	6823      	ldr	r3, [r4, #0]
    3072:	07dd      	lsls	r5, r3, #31
    3074:	d507      	bpl.n	3086 <_printf_i+0x15e>
    3076:	6862      	ldr	r2, [r4, #4]
    3078:	6923      	ldr	r3, [r4, #16]
    307a:	429a      	cmp	r2, r3
    307c:	dc03      	bgt.n	3086 <_printf_i+0x15e>
    307e:	2330      	movs	r3, #48	; 0x30
    3080:	f807 3c01 	strb.w	r3, [r7, #-1]
    3084:	3f01      	subs	r7, #1
    3086:	1bc0      	subs	r0, r0, r7
    3088:	6120      	str	r0, [r4, #16]
    308a:	e02c      	b.n	30e6 <_printf_i+0x1be>
    308c:	6809      	ldr	r1, [r1, #0]
    308e:	682b      	ldr	r3, [r5, #0]
    3090:	f011 0f80 	tst.w	r1, #128	; 0x80
    3094:	6962      	ldr	r2, [r4, #20]
    3096:	d004      	beq.n	30a2 <_printf_i+0x17a>
    3098:	1d19      	adds	r1, r3, #4
    309a:	6029      	str	r1, [r5, #0]
    309c:	681b      	ldr	r3, [r3, #0]
    309e:	601a      	str	r2, [r3, #0]
    30a0:	e005      	b.n	30ae <_printf_i+0x186>
    30a2:	0649      	lsls	r1, r1, #25
    30a4:	d5f8      	bpl.n	3098 <_printf_i+0x170>
    30a6:	1d19      	adds	r1, r3, #4
    30a8:	6029      	str	r1, [r5, #0]
    30aa:	681b      	ldr	r3, [r3, #0]
    30ac:	801a      	strh	r2, [r3, #0]
    30ae:	2300      	movs	r3, #0
    30b0:	6123      	str	r3, [r4, #16]
    30b2:	4607      	mov	r7, r0
    30b4:	e017      	b.n	30e6 <_printf_i+0x1be>
    30b6:	682b      	ldr	r3, [r5, #0]
    30b8:	1d1a      	adds	r2, r3, #4
    30ba:	602a      	str	r2, [r5, #0]
    30bc:	681f      	ldr	r7, [r3, #0]
    30be:	4638      	mov	r0, r7
    30c0:	f7ff fb01 	bl	26c6 <strlen>
    30c4:	6863      	ldr	r3, [r4, #4]
    30c6:	6120      	str	r0, [r4, #16]
    30c8:	4298      	cmp	r0, r3
    30ca:	bf88      	it	hi
    30cc:	6123      	strhi	r3, [r4, #16]
    30ce:	6923      	ldr	r3, [r4, #16]
    30d0:	6063      	str	r3, [r4, #4]
    30d2:	e005      	b.n	30e0 <_printf_i+0x1b8>
    30d4:	f104 0742 	add.w	r7, r4, #66	; 0x42
    30d8:	f884 6042 	strb.w	r6, [r4, #66]	; 0x42
    30dc:	2301      	movs	r3, #1
    30de:	6123      	str	r3, [r4, #16]
    30e0:	2300      	movs	r3, #0
    30e2:	f884 3043 	strb.w	r3, [r4, #67]	; 0x43
    30e6:	f8cd a000 	str.w	r10, [sp]
    30ea:	4640      	mov	r0, r8
    30ec:	4621      	mov	r1, r4
    30ee:	aa03      	add	r2, sp, #12
    30f0:	464b      	mov	r3, r9
    30f2:	f7ff fea7 	bl	2e44 <_printf_common>
    30f6:	3001      	adds	r0, #1
    30f8:	d102      	bne.n	3100 <_printf_i+0x1d8>
    30fa:	f04f 30ff 	mov.w	r0, #4294967295	; 0xffffffff
    30fe:	e01f      	b.n	3140 <_printf_i+0x218>
    3100:	4640      	mov	r0, r8
    3102:	4649      	mov	r1, r9
    3104:	463a      	mov	r2, r7
    3106:	6923      	ldr	r3, [r4, #16]
    3108:	47d0      	blx	r10
    310a:	3001      	adds	r0, #1
    310c:	d0f5      	beq.n	30fa <_printf_i+0x1d2>
    310e:	6823      	ldr	r3, [r4, #0]
    3110:	079b      	lsls	r3, r3, #30
    3112:	d405      	bmi.n	3120 <_printf_i+0x1f8>
    3114:	68e0      	ldr	r0, [r4, #12]
    3116:	9b03      	ldr	r3, [sp, #12]
    3118:	4298      	cmp	r0, r3
    311a:	bfb8      	it	lt
    311c:	4618      	movlt	r0, r3
    311e:	e00f      	b.n	3140 <_printf_i+0x218>
    3120:	2500      	movs	r5, #0
    3122:	68e2      	ldr	r2, [r4, #12]
    3124:	9b03      	ldr	r3, [sp, #12]
    3126:	1ad3      	subs	r3, r2, r3
    3128:	429d      	cmp	r5, r3
    312a:	daf3      	bge.n	3114 <_printf_i+0x1ec>
    312c:	4640      	mov	r0, r8
    312e:	4649      	mov	r1, r9
    3130:	f104 0219 	add.w	r2, r4, #25
    3134:	2301      	movs	r3, #1
    3136:	47d0      	blx	r10
    3138:	3001      	adds	r0, #1
    313a:	d0de      	beq.n	30fa <_printf_i+0x1d2>
    313c:	3501      	adds	r5, #1
    313e:	e7f0      	b.n	3122 <_printf_i+0x1fa>
    3140:	b004      	add	sp, #16
    3142:	e8bd 87f0 	ldmia.w	sp!, {r4, r5, r6, r7, r8, r9, r10, pc}
    3146:	bf00      	nop
    3148:	00004449 	.word	0x00004449
    314c:	0000445a 	.word	0x0000445a

00003150 <__svfiscanf_r>:
    3150:	e92d 47f0 	stmdb	sp!, {r4, r5, r6, r7, r8, r9, r10, lr}
    3154:	f5ad 7d24 	sub.w	sp, sp, #656	; 0x290
    3158:	9301      	str	r3, [sp, #4]
    315a:	2300      	movs	r3, #0
    315c:	9346      	str	r3, [sp, #280]	; 0x118
    315e:	9347      	str	r3, [sp, #284]	; 0x11c
    3160:	4b9d      	ldr	r3, [pc, #628]	; (33d8 <__svfiscanf_r+0x288>)
    3162:	f10d 090c 	add.w	r9, sp, #12
    3166:	93a2      	str	r3, [sp, #648]	; 0x288
    3168:	4b9c      	ldr	r3, [pc, #624]	; (33dc <__svfiscanf_r+0x28c>)
    316a:	4607      	mov	r7, r0
    316c:	460c      	mov	r4, r1
    316e:	4690      	mov	r8, r2
    3170:	f8cd 9120 	str.w	r9, [sp, #288]	; 0x120
    3174:	93a3      	str	r3, [sp, #652]	; 0x28c
    3176:	f898 5000 	ldrb.w	r5, [r8]
    317a:	2d00      	cmp	r5, #0
    317c:	f000 8124 	beq.w	33c8 <__svfiscanf_r+0x278>
    3180:	4997      	ldr	r1, [pc, #604]	; (33e0 <__svfiscanf_r+0x290>)
    3182:	680b      	ldr	r3, [r1, #0]
    3184:	468a      	mov	r10, r1
    3186:	442b      	add	r3, r5
    3188:	785a      	ldrb	r2, [r3, #1]
    318a:	f002 0208 	and.w	r2, r2, #8
    318e:	f002 03ff 	and.w	r3, r2, #255	; 0xff
    3192:	b1ea      	cbz	r2, 31d0 <__svfiscanf_r+0x80>
    3194:	6863      	ldr	r3, [r4, #4]
    3196:	2b00      	cmp	r3, #0
    3198:	dd10      	ble.n	31bc <__svfiscanf_r+0x6c>
    319a:	6823      	ldr	r3, [r4, #0]
    319c:	f8da 2000 	ldr.w	r2, [r10]
    31a0:	7819      	ldrb	r1, [r3, #0]
    31a2:	440a      	add	r2, r1
    31a4:	7852      	ldrb	r2, [r2, #1]
    31a6:	0715      	lsls	r5, r2, #28
    31a8:	d50e      	bpl.n	31c8 <__svfiscanf_r+0x78>
    31aa:	9a47      	ldr	r2, [sp, #284]	; 0x11c
    31ac:	3301      	adds	r3, #1
    31ae:	3201      	adds	r2, #1
    31b0:	9247      	str	r2, [sp, #284]	; 0x11c
    31b2:	6862      	ldr	r2, [r4, #4]
    31b4:	6023      	str	r3, [r4, #0]
    31b6:	3a01      	subs	r2, #1
    31b8:	6062      	str	r2, [r4, #4]
    31ba:	e7eb      	b.n	3194 <__svfiscanf_r+0x44>
    31bc:	9ba3      	ldr	r3, [sp, #652]	; 0x28c
    31be:	4638      	mov	r0, r7
    31c0:	4621      	mov	r1, r4
    31c2:	4798      	blx	r3
    31c4:	2800      	cmp	r0, #0
    31c6:	d0e8      	beq.n	319a <__svfiscanf_r+0x4a>
    31c8:	f108 0601 	add.w	r6, r8, #1
    31cc:	46b0      	mov	r8, r6
    31ce:	e7d2      	b.n	3176 <__svfiscanf_r+0x26>
    31d0:	2d25      	cmp	r5, #37	; 0x25
    31d2:	f108 0601 	add.w	r6, r8, #1
    31d6:	d14f      	bne.n	3278 <__svfiscanf_r+0x128>
    31d8:	9345      	str	r3, [sp, #276]	; 0x114
    31da:	9343      	str	r3, [sp, #268]	; 0x10c
    31dc:	f898 3001 	ldrb.w	r3, [r8, #1]
    31e0:	2b2a      	cmp	r3, #42	; 0x2a
    31e2:	d103      	bne.n	31ec <__svfiscanf_r+0x9c>
    31e4:	2310      	movs	r3, #16
    31e6:	9343      	str	r3, [sp, #268]	; 0x10c
    31e8:	f108 0602 	add.w	r6, r8, #2
    31ec:	7831      	ldrb	r1, [r6, #0]
    31ee:	4635      	mov	r5, r6
    31f0:	f1a1 0330 	sub.w	r3, r1, #48	; 0x30
    31f4:	2b09      	cmp	r3, #9
    31f6:	f106 0601 	add.w	r6, r6, #1
    31fa:	d806      	bhi.n	320a <__svfiscanf_r+0xba>
    31fc:	9b45      	ldr	r3, [sp, #276]	; 0x114
    31fe:	220a      	movs	r2, #10
    3200:	fb02 1303 	mla	r3, r2, r3, r1
    3204:	3b30      	subs	r3, #48	; 0x30
    3206:	9345      	str	r3, [sp, #276]	; 0x114
    3208:	e7f0      	b.n	31ec <__svfiscanf_r+0x9c>
    320a:	f8df 81dc 	ldr.w	r8, [pc, #476]	; 33e8 <__svfiscanf_r+0x298>
    320e:	2203      	movs	r2, #3
    3210:	4640      	mov	r0, r8
    3212:	f000 fbb9 	bl	3988 <memchr>
    3216:	b140      	cbz	r0, 322a <__svfiscanf_r+0xda>
    3218:	ebc8 0800 	rsb	r8, r8, r0
    321c:	2001      	movs	r0, #1
    321e:	fa00 f008 	lsl.w	r0, r0, r8
    3222:	9b43      	ldr	r3, [sp, #268]	; 0x10c
    3224:	4635      	mov	r5, r6
    3226:	4303      	orrs	r3, r0
    3228:	9343      	str	r3, [sp, #268]	; 0x10c
    322a:	1c6e      	adds	r6, r5, #1
    322c:	782d      	ldrb	r5, [r5, #0]
    322e:	2d67      	cmp	r5, #103	; 0x67
    3230:	d80f      	bhi.n	3252 <__svfiscanf_r+0x102>
    3232:	2d65      	cmp	r5, #101	; 0x65
    3234:	d278      	bcs.n	3328 <__svfiscanf_r+0x1d8>
    3236:	2d5b      	cmp	r5, #91	; 0x5b
    3238:	d054      	beq.n	32e4 <__svfiscanf_r+0x194>
    323a:	d805      	bhi.n	3248 <__svfiscanf_r+0xf8>
    323c:	2d00      	cmp	r5, #0
    323e:	f000 80c5 	beq.w	33cc <__svfiscanf_r+0x27c>
    3242:	2d25      	cmp	r5, #37	; 0x25
    3244:	d018      	beq.n	3278 <__svfiscanf_r+0x128>
    3246:	e071      	b.n	332c <__svfiscanf_r+0x1dc>
    3248:	2d63      	cmp	r5, #99	; 0x63
    324a:	d057      	beq.n	32fc <__svfiscanf_r+0x1ac>
    324c:	2d64      	cmp	r5, #100	; 0x64
    324e:	d03f      	beq.n	32d0 <__svfiscanf_r+0x180>
    3250:	e06c      	b.n	332c <__svfiscanf_r+0x1dc>
    3252:	2d70      	cmp	r5, #112	; 0x70
    3254:	d032      	beq.n	32bc <__svfiscanf_r+0x16c>
    3256:	d807      	bhi.n	3268 <__svfiscanf_r+0x118>
    3258:	2d6e      	cmp	r5, #110	; 0x6e
    325a:	d055      	beq.n	3308 <__svfiscanf_r+0x1b8>
    325c:	d83a      	bhi.n	32d4 <__svfiscanf_r+0x184>
    325e:	2d69      	cmp	r5, #105	; 0x69
    3260:	d164      	bne.n	332c <__svfiscanf_r+0x1dc>
    3262:	2300      	movs	r3, #0
    3264:	9344      	str	r3, [sp, #272]	; 0x110
    3266:	e039      	b.n	32dc <__svfiscanf_r+0x18c>
    3268:	2d75      	cmp	r5, #117	; 0x75
    326a:	d031      	beq.n	32d0 <__svfiscanf_r+0x180>
    326c:	2d78      	cmp	r5, #120	; 0x78
    326e:	d029      	beq.n	32c4 <__svfiscanf_r+0x174>
    3270:	2d73      	cmp	r5, #115	; 0x73
    3272:	d15b      	bne.n	332c <__svfiscanf_r+0x1dc>
    3274:	2302      	movs	r3, #2
    3276:	e03f      	b.n	32f8 <__svfiscanf_r+0x1a8>
    3278:	6863      	ldr	r3, [r4, #4]
    327a:	2b00      	cmp	r3, #0
    327c:	dd0d      	ble.n	329a <__svfiscanf_r+0x14a>
    327e:	6823      	ldr	r3, [r4, #0]
    3280:	781a      	ldrb	r2, [r3, #0]
    3282:	42aa      	cmp	r2, r5
    3284:	f040 80a0 	bne.w	33c8 <__svfiscanf_r+0x278>
    3288:	3301      	adds	r3, #1
    328a:	6862      	ldr	r2, [r4, #4]
    328c:	6023      	str	r3, [r4, #0]
    328e:	9b47      	ldr	r3, [sp, #284]	; 0x11c
    3290:	3a01      	subs	r2, #1
    3292:	3301      	adds	r3, #1
    3294:	6062      	str	r2, [r4, #4]
    3296:	9347      	str	r3, [sp, #284]	; 0x11c
    3298:	e798      	b.n	31cc <__svfiscanf_r+0x7c>
    329a:	9ba3      	ldr	r3, [sp, #652]	; 0x28c
    329c:	4638      	mov	r0, r7
    329e:	4621      	mov	r1, r4
    32a0:	4798      	blx	r3
    32a2:	2800      	cmp	r0, #0
    32a4:	d0eb      	beq.n	327e <__svfiscanf_r+0x12e>
    32a6:	9846      	ldr	r0, [sp, #280]	; 0x118
    32a8:	2800      	cmp	r0, #0
    32aa:	f000 808f 	beq.w	33cc <__svfiscanf_r+0x27c>
    32ae:	89a3      	ldrh	r3, [r4, #12]
    32b0:	f013 0f40 	tst.w	r3, #64	; 0x40
    32b4:	bf18      	it	ne
    32b6:	f04f 30ff 	movne.w	r0, #4294967295	; 0xffffffff
    32ba:	e089      	b.n	33d0 <__svfiscanf_r+0x280>
    32bc:	9b43      	ldr	r3, [sp, #268]	; 0x10c
    32be:	f043 0320 	orr.w	r3, r3, #32
    32c2:	9343      	str	r3, [sp, #268]	; 0x10c
    32c4:	9b43      	ldr	r3, [sp, #268]	; 0x10c
    32c6:	f443 7300 	orr.w	r3, r3, #512	; 0x200
    32ca:	9343      	str	r3, [sp, #268]	; 0x10c
    32cc:	2310      	movs	r3, #16
    32ce:	e002      	b.n	32d6 <__svfiscanf_r+0x186>
    32d0:	230a      	movs	r3, #10
    32d2:	e000      	b.n	32d6 <__svfiscanf_r+0x186>
    32d4:	2308      	movs	r3, #8
    32d6:	2d6e      	cmp	r5, #110	; 0x6e
    32d8:	9344      	str	r3, [sp, #272]	; 0x110
    32da:	dc01      	bgt.n	32e0 <__svfiscanf_r+0x190>
    32dc:	2303      	movs	r3, #3
    32de:	e00b      	b.n	32f8 <__svfiscanf_r+0x1a8>
    32e0:	2304      	movs	r3, #4
    32e2:	e009      	b.n	32f8 <__svfiscanf_r+0x1a8>
    32e4:	4631      	mov	r1, r6
    32e6:	4648      	mov	r0, r9
    32e8:	f000 fc2e 	bl	3b48 <__sccl>
    32ec:	9b43      	ldr	r3, [sp, #268]	; 0x10c
    32ee:	4606      	mov	r6, r0
    32f0:	f043 0340 	orr.w	r3, r3, #64	; 0x40
    32f4:	9343      	str	r3, [sp, #268]	; 0x10c
    32f6:	2301      	movs	r3, #1
    32f8:	9349      	str	r3, [sp, #292]	; 0x124
    32fa:	e01b      	b.n	3334 <__svfiscanf_r+0x1e4>
    32fc:	9b43      	ldr	r3, [sp, #268]	; 0x10c
    32fe:	f043 0340 	orr.w	r3, r3, #64	; 0x40
    3302:	9343      	str	r3, [sp, #268]	; 0x10c
    3304:	2300      	movs	r3, #0
    3306:	e7f7      	b.n	32f8 <__svfiscanf_r+0x1a8>
    3308:	9a43      	ldr	r2, [sp, #268]	; 0x10c
    330a:	06d0      	lsls	r0, r2, #27
    330c:	f53f af5e 	bmi.w	31cc <__svfiscanf_r+0x7c>
    3310:	f012 0f01 	tst.w	r2, #1
    3314:	9a01      	ldr	r2, [sp, #4]
    3316:	9b47      	ldr	r3, [sp, #284]	; 0x11c
    3318:	f102 0104 	add.w	r1, r2, #4
    331c:	9101      	str	r1, [sp, #4]
    331e:	6812      	ldr	r2, [r2, #0]
    3320:	bf14      	ite	ne
    3322:	8013      	strhne	r3, [r2, #0]
    3324:	6013      	streq	r3, [r2, #0]
    3326:	e751      	b.n	31cc <__svfiscanf_r+0x7c>
    3328:	2305      	movs	r3, #5
    332a:	e7e5      	b.n	32f8 <__svfiscanf_r+0x1a8>
    332c:	2303      	movs	r3, #3
    332e:	9349      	str	r3, [sp, #292]	; 0x124
    3330:	230a      	movs	r3, #10
    3332:	9344      	str	r3, [sp, #272]	; 0x110
    3334:	6863      	ldr	r3, [r4, #4]
    3336:	2b00      	cmp	r3, #0
    3338:	dd03      	ble.n	3342 <__svfiscanf_r+0x1f2>
    333a:	9b43      	ldr	r3, [sp, #268]	; 0x10c
    333c:	0659      	lsls	r1, r3, #25
    333e:	d511      	bpl.n	3364 <__svfiscanf_r+0x214>
    3340:	e018      	b.n	3374 <__svfiscanf_r+0x224>
    3342:	9ba3      	ldr	r3, [sp, #652]	; 0x28c
    3344:	4638      	mov	r0, r7
    3346:	4621      	mov	r1, r4
    3348:	4798      	blx	r3
    334a:	2800      	cmp	r0, #0
    334c:	d0f5      	beq.n	333a <__svfiscanf_r+0x1ea>
    334e:	e7aa      	b.n	32a6 <__svfiscanf_r+0x156>
    3350:	9a47      	ldr	r2, [sp, #284]	; 0x11c
    3352:	3201      	adds	r2, #1
    3354:	9247      	str	r2, [sp, #284]	; 0x11c
    3356:	6862      	ldr	r2, [r4, #4]
    3358:	3a01      	subs	r2, #1
    335a:	2a00      	cmp	r2, #0
    335c:	6062      	str	r2, [r4, #4]
    335e:	dd13      	ble.n	3388 <__svfiscanf_r+0x238>
    3360:	3301      	adds	r3, #1
    3362:	6023      	str	r3, [r4, #0]
    3364:	6823      	ldr	r3, [r4, #0]
    3366:	f8da 2000 	ldr.w	r2, [r10]
    336a:	7819      	ldrb	r1, [r3, #0]
    336c:	440a      	add	r2, r1
    336e:	7852      	ldrb	r2, [r2, #1]
    3370:	0712      	lsls	r2, r2, #28
    3372:	d4ed      	bmi.n	3350 <__svfiscanf_r+0x200>
    3374:	9b49      	ldr	r3, [sp, #292]	; 0x124
    3376:	2b02      	cmp	r3, #2
    3378:	dc0d      	bgt.n	3396 <__svfiscanf_r+0x246>
    337a:	4638      	mov	r0, r7
    337c:	a943      	add	r1, sp, #268	; 0x10c
    337e:	4622      	mov	r2, r4
    3380:	ab01      	add	r3, sp, #4
    3382:	f000 f85b 	bl	343c <_scanf_chars>
    3386:	e019      	b.n	33bc <__svfiscanf_r+0x26c>
    3388:	9ba3      	ldr	r3, [sp, #652]	; 0x28c
    338a:	4638      	mov	r0, r7
    338c:	4621      	mov	r1, r4
    338e:	4798      	blx	r3
    3390:	2800      	cmp	r0, #0
    3392:	d0e7      	beq.n	3364 <__svfiscanf_r+0x214>
    3394:	e787      	b.n	32a6 <__svfiscanf_r+0x156>
    3396:	2b04      	cmp	r3, #4
    3398:	dc06      	bgt.n	33a8 <__svfiscanf_r+0x258>
    339a:	4638      	mov	r0, r7
    339c:	a943      	add	r1, sp, #268	; 0x10c
    339e:	4622      	mov	r2, r4
    33a0:	ab01      	add	r3, sp, #4
    33a2:	f000 f8ab 	bl	34fc <_scanf_i>
    33a6:	e009      	b.n	33bc <__svfiscanf_r+0x26c>
    33a8:	4b0e      	ldr	r3, [pc, #56]	; (33e4 <__svfiscanf_r+0x294>)
    33aa:	2b00      	cmp	r3, #0
    33ac:	f43f af0e 	beq.w	31cc <__svfiscanf_r+0x7c>
    33b0:	4638      	mov	r0, r7
    33b2:	a943      	add	r1, sp, #268	; 0x10c
    33b4:	4622      	mov	r2, r4
    33b6:	ab01      	add	r3, sp, #4
    33b8:	f3af 8000 	nop.w
    33bc:	2801      	cmp	r0, #1
    33be:	d003      	beq.n	33c8 <__svfiscanf_r+0x278>
    33c0:	2802      	cmp	r0, #2
    33c2:	f47f af03 	bne.w	31cc <__svfiscanf_r+0x7c>
    33c6:	e76e      	b.n	32a6 <__svfiscanf_r+0x156>
    33c8:	9846      	ldr	r0, [sp, #280]	; 0x118
    33ca:	e001      	b.n	33d0 <__svfiscanf_r+0x280>
    33cc:	f04f 30ff 	mov.w	r0, #4294967295	; 0xffffffff
    33d0:	f50d 7d24 	add.w	sp, sp, #656	; 0x290
    33d4:	e8bd 87f0 	ldmia.w	sp!, {r4, r5, r6, r7, r8, r9, r10, pc}
    33d8:	00002aed 	.word	0x00002aed
    33dc:	00003a3d 	.word	0x00003a3d
    33e0:	10000138 	.word	0x10000138
    33e4:	00000000 	.word	0x00000000
    33e8:	00004438 	.word	0x00004438

000033ec <_vfiscanf_r>:
    33ec:	e92d 41f0 	stmdb	sp!, {r4, r5, r6, r7, r8, lr}
    33f0:	460c      	mov	r4, r1
    33f2:	4617      	mov	r7, r2
    33f4:	461e      	mov	r6, r3
    33f6:	4605      	mov	r5, r0
    33f8:	b118      	cbz	r0, 3402 <_vfiscanf_r+0x16>
    33fa:	6981      	ldr	r1, [r0, #24]
    33fc:	b909      	cbnz	r1, 3402 <_vfiscanf_r+0x16>
    33fe:	f7fe fd21 	bl	1e44 <__sinit>
    3402:	4b0b      	ldr	r3, [pc, #44]	; (3430 <_vfiscanf_r+0x44>)
    3404:	429c      	cmp	r4, r3
    3406:	bf08      	it	eq
    3408:	686c      	ldreq	r4, [r5, #4]
    340a:	d008      	beq.n	341e <_vfiscanf_r+0x32>
    340c:	4b09      	ldr	r3, [pc, #36]	; (3434 <_vfiscanf_r+0x48>)
    340e:	429c      	cmp	r4, r3
    3410:	bf08      	it	eq
    3412:	68ac      	ldreq	r4, [r5, #8]
    3414:	d003      	beq.n	341e <_vfiscanf_r+0x32>
    3416:	4b08      	ldr	r3, [pc, #32]	; (3438 <_vfiscanf_r+0x4c>)
    3418:	429c      	cmp	r4, r3
    341a:	bf08      	it	eq
    341c:	68ec      	ldreq	r4, [r5, #12]
    341e:	4628      	mov	r0, r5
    3420:	4621      	mov	r1, r4
    3422:	463a      	mov	r2, r7
    3424:	4633      	mov	r3, r6
    3426:	e8bd 41f0 	ldmia.w	sp!, {r4, r5, r6, r7, r8, lr}
    342a:	f7ff be91 	b.w	3150 <__svfiscanf_r>
    342e:	bf00      	nop
    3430:	000043d0 	.word	0x000043d0
    3434:	000043f0 	.word	0x000043f0
    3438:	00004410 	.word	0x00004410

0000343c <_scanf_chars>:
    343c:	e92d 41f0 	stmdb	sp!, {r4, r5, r6, r7, r8, lr}
    3440:	4615      	mov	r5, r2
    3442:	688a      	ldr	r2, [r1, #8]
    3444:	4680      	mov	r8, r0
    3446:	460c      	mov	r4, r1
    3448:	b932      	cbnz	r2, 3458 <_scanf_chars+0x1c>
    344a:	698a      	ldr	r2, [r1, #24]
    344c:	2a00      	cmp	r2, #0
    344e:	bf14      	ite	ne
    3450:	f04f 32ff 	movne.w	r2, #4294967295	; 0xffffffff
    3454:	2201      	moveq	r2, #1
    3456:	608a      	str	r2, [r1, #8]
    3458:	6822      	ldr	r2, [r4, #0]
    345a:	06d1      	lsls	r1, r2, #27
    345c:	d403      	bmi.n	3466 <_scanf_chars+0x2a>
    345e:	681a      	ldr	r2, [r3, #0]
    3460:	1d11      	adds	r1, r2, #4
    3462:	6019      	str	r1, [r3, #0]
    3464:	6817      	ldr	r7, [r2, #0]
    3466:	2600      	movs	r6, #0
    3468:	69a0      	ldr	r0, [r4, #24]
    346a:	b9e0      	cbnz	r0, 34a6 <_scanf_chars+0x6a>
    346c:	6823      	ldr	r3, [r4, #0]
    346e:	3601      	adds	r6, #1
    3470:	06da      	lsls	r2, r3, #27
    3472:	d404      	bmi.n	347e <_scanf_chars+0x42>
    3474:	682b      	ldr	r3, [r5, #0]
    3476:	3701      	adds	r7, #1
    3478:	781b      	ldrb	r3, [r3, #0]
    347a:	f807 3c01 	strb.w	r3, [r7, #-1]
    347e:	682a      	ldr	r2, [r5, #0]
    3480:	686b      	ldr	r3, [r5, #4]
    3482:	3201      	adds	r2, #1
    3484:	602a      	str	r2, [r5, #0]
    3486:	68a2      	ldr	r2, [r4, #8]
    3488:	3b01      	subs	r3, #1
    348a:	3a01      	subs	r2, #1
    348c:	606b      	str	r3, [r5, #4]
    348e:	60a2      	str	r2, [r4, #8]
    3490:	b312      	cbz	r2, 34d8 <_scanf_chars+0x9c>
    3492:	2b00      	cmp	r3, #0
    3494:	dce8      	bgt.n	3468 <_scanf_chars+0x2c>
    3496:	f8d4 3180 	ldr.w	r3, [r4, #384]	; 0x180
    349a:	4640      	mov	r0, r8
    349c:	4629      	mov	r1, r5
    349e:	4798      	blx	r3
    34a0:	2800      	cmp	r0, #0
    34a2:	d0e1      	beq.n	3468 <_scanf_chars+0x2c>
    34a4:	e018      	b.n	34d8 <_scanf_chars+0x9c>
    34a6:	2801      	cmp	r0, #1
    34a8:	d107      	bne.n	34ba <_scanf_chars+0x7e>
    34aa:	682a      	ldr	r2, [r5, #0]
    34ac:	7811      	ldrb	r1, [r2, #0]
    34ae:	6962      	ldr	r2, [r4, #20]
    34b0:	5c52      	ldrb	r2, [r2, r1]
    34b2:	2a00      	cmp	r2, #0
    34b4:	d1da      	bne.n	346c <_scanf_chars+0x30>
    34b6:	b1ee      	cbz	r6, 34f4 <_scanf_chars+0xb8>
    34b8:	e00e      	b.n	34d8 <_scanf_chars+0x9c>
    34ba:	2802      	cmp	r0, #2
    34bc:	d001      	beq.n	34c2 <_scanf_chars+0x86>
    34be:	b14e      	cbz	r6, 34d4 <_scanf_chars+0x98>
    34c0:	e00a      	b.n	34d8 <_scanf_chars+0x9c>
    34c2:	682a      	ldr	r2, [r5, #0]
    34c4:	490c      	ldr	r1, [pc, #48]	; (34f8 <_scanf_chars+0xbc>)
    34c6:	7812      	ldrb	r2, [r2, #0]
    34c8:	6809      	ldr	r1, [r1, #0]
    34ca:	440a      	add	r2, r1
    34cc:	7852      	ldrb	r2, [r2, #1]
    34ce:	0713      	lsls	r3, r2, #28
    34d0:	d5cc      	bpl.n	346c <_scanf_chars+0x30>
    34d2:	e7f4      	b.n	34be <_scanf_chars+0x82>
    34d4:	2801      	cmp	r0, #1
    34d6:	d00d      	beq.n	34f4 <_scanf_chars+0xb8>
    34d8:	6823      	ldr	r3, [r4, #0]
    34da:	f013 0310 	ands.w	r3, r3, #16
    34de:	d105      	bne.n	34ec <_scanf_chars+0xb0>
    34e0:	68e2      	ldr	r2, [r4, #12]
    34e2:	3201      	adds	r2, #1
    34e4:	60e2      	str	r2, [r4, #12]
    34e6:	69a2      	ldr	r2, [r4, #24]
    34e8:	b102      	cbz	r2, 34ec <_scanf_chars+0xb0>
    34ea:	703b      	strb	r3, [r7, #0]
    34ec:	6923      	ldr	r3, [r4, #16]
    34ee:	2000      	movs	r0, #0
    34f0:	441e      	add	r6, r3
    34f2:	6126      	str	r6, [r4, #16]
    34f4:	e8bd 81f0 	ldmia.w	sp!, {r4, r5, r6, r7, r8, pc}
    34f8:	10000138 	.word	0x10000138

000034fc <_scanf_i>:
    34fc:	e92d 4ff0 	stmdb	sp!, {r4, r5, r6, r7, r8, r9, r10, r11, lr}
    3500:	b089      	sub	sp, #36	; 0x24
    3502:	460c      	mov	r4, r1
    3504:	4698      	mov	r8, r3
    3506:	a905      	add	r1, sp, #20
    3508:	4b73      	ldr	r3, [pc, #460]	; (36d8 <_scanf_i+0x1dc>)
    350a:	9102      	str	r1, [sp, #8]
    350c:	4681      	mov	r9, r0
    350e:	4616      	mov	r6, r2
    3510:	e893 0007 	ldmia.w	r3, {r0, r1, r2}
    3514:	9b02      	ldr	r3, [sp, #8]
    3516:	e883 0007 	stmia.w	r3, {r0, r1, r2}
    351a:	69a3      	ldr	r3, [r4, #24]
    351c:	4a6f      	ldr	r2, [pc, #444]	; (36dc <_scanf_i+0x1e0>)
    351e:	4970      	ldr	r1, [pc, #448]	; (36e0 <_scanf_i+0x1e4>)
    3520:	2b03      	cmp	r3, #3
    3522:	bf08      	it	eq
    3524:	4611      	moveq	r1, r2
    3526:	68a3      	ldr	r3, [r4, #8]
    3528:	9103      	str	r1, [sp, #12]
    352a:	1e5a      	subs	r2, r3, #1
    352c:	f5b2 7fae 	cmp.w	r2, #348	; 0x15c
    3530:	d907      	bls.n	3542 <_scanf_i+0x46>
    3532:	f46f 75ae 	mvn.w	r5, #348	; 0x15c
    3536:	eb03 0a05 	add.w	r10, r3, r5
    353a:	f240 135d 	movw	r3, #349	; 0x15d
    353e:	60a3      	str	r3, [r4, #8]
    3540:	e001      	b.n	3546 <_scanf_i+0x4a>
    3542:	f04f 0a00 	mov.w	r10, #0
    3546:	6823      	ldr	r3, [r4, #0]
    3548:	f104 071c 	add.w	r7, r4, #28
    354c:	f443 6350 	orr.w	r3, r3, #3328	; 0xd00
    3550:	6023      	str	r3, [r4, #0]
    3552:	46bb      	mov	r11, r7
    3554:	2300      	movs	r3, #0
    3556:	6832      	ldr	r2, [r6, #0]
    3558:	a905      	add	r1, sp, #20
    355a:	f851 0023 	ldr.w	r0, [r1, r3, lsl #2]
    355e:	7811      	ldrb	r1, [r2, #0]
    3560:	2202      	movs	r2, #2
    3562:	9301      	str	r3, [sp, #4]
    3564:	f000 fa10 	bl	3988 <memchr>
    3568:	9b01      	ldr	r3, [sp, #4]
    356a:	2800      	cmp	r0, #0
    356c:	d035      	beq.n	35da <_scanf_i+0xde>
    356e:	2b01      	cmp	r3, #1
    3570:	d10b      	bne.n	358a <_scanf_i+0x8e>
    3572:	6862      	ldr	r2, [r4, #4]
    3574:	b92a      	cbnz	r2, 3582 <_scanf_i+0x86>
    3576:	2208      	movs	r2, #8
    3578:	6062      	str	r2, [r4, #4]
    357a:	6822      	ldr	r2, [r4, #0]
    357c:	f442 7200 	orr.w	r2, r2, #512	; 0x200
    3580:	6022      	str	r2, [r4, #0]
    3582:	6822      	ldr	r2, [r4, #0]
    3584:	f422 62a0 	bic.w	r2, r2, #1280	; 0x500
    3588:	e00b      	b.n	35a2 <_scanf_i+0xa6>
    358a:	2b02      	cmp	r3, #2
    358c:	d10a      	bne.n	35a4 <_scanf_i+0xa8>
    358e:	6822      	ldr	r2, [r4, #0]
    3590:	f402 61c0 	and.w	r1, r2, #1536	; 0x600
    3594:	f5b1 7f00 	cmp.w	r1, #512	; 0x200
    3598:	d11f      	bne.n	35da <_scanf_i+0xde>
    359a:	2110      	movs	r1, #16
    359c:	6061      	str	r1, [r4, #4]
    359e:	f442 7280 	orr.w	r2, r2, #256	; 0x100
    35a2:	6022      	str	r2, [r4, #0]
    35a4:	68a2      	ldr	r2, [r4, #8]
    35a6:	1e51      	subs	r1, r2, #1
    35a8:	60a1      	str	r1, [r4, #8]
    35aa:	b1b2      	cbz	r2, 35da <_scanf_i+0xde>
    35ac:	6832      	ldr	r2, [r6, #0]
    35ae:	f10b 0501 	add.w	r5, r11, #1
    35b2:	1c51      	adds	r1, r2, #1
    35b4:	6031      	str	r1, [r6, #0]
    35b6:	7812      	ldrb	r2, [r2, #0]
    35b8:	f88b 2000 	strb.w	r2, [r11]
    35bc:	6872      	ldr	r2, [r6, #4]
    35be:	3a01      	subs	r2, #1
    35c0:	2a00      	cmp	r2, #0
    35c2:	6072      	str	r2, [r6, #4]
    35c4:	dc08      	bgt.n	35d8 <_scanf_i+0xdc>
    35c6:	9301      	str	r3, [sp, #4]
    35c8:	f8d4 2180 	ldr.w	r2, [r4, #384]	; 0x180
    35cc:	4648      	mov	r0, r9
    35ce:	4631      	mov	r1, r6
    35d0:	4790      	blx	r2
    35d2:	9b01      	ldr	r3, [sp, #4]
    35d4:	2800      	cmp	r0, #0
    35d6:	d141      	bne.n	365c <_scanf_i+0x160>
    35d8:	46ab      	mov	r11, r5
    35da:	3301      	adds	r3, #1
    35dc:	2b03      	cmp	r3, #3
    35de:	d1ba      	bne.n	3556 <_scanf_i+0x5a>
    35e0:	6863      	ldr	r3, [r4, #4]
    35e2:	b90b      	cbnz	r3, 35e8 <_scanf_i+0xec>
    35e4:	230a      	movs	r3, #10
    35e6:	6063      	str	r3, [r4, #4]
    35e8:	6863      	ldr	r3, [r4, #4]
    35ea:	493e      	ldr	r1, [pc, #248]	; (36e4 <_scanf_i+0x1e8>)
    35ec:	6960      	ldr	r0, [r4, #20]
    35ee:	1ac9      	subs	r1, r1, r3
    35f0:	f000 faaa 	bl	3b48 <__sccl>
    35f4:	465d      	mov	r5, r11
    35f6:	f04f 0b00 	mov.w	r11, #0
    35fa:	68a3      	ldr	r3, [r4, #8]
    35fc:	2b00      	cmp	r3, #0
    35fe:	d02f      	beq.n	3660 <_scanf_i+0x164>
    3600:	6832      	ldr	r2, [r6, #0]
    3602:	6960      	ldr	r0, [r4, #20]
    3604:	7811      	ldrb	r1, [r2, #0]
    3606:	5c40      	ldrb	r0, [r0, r1]
    3608:	b350      	cbz	r0, 3660 <_scanf_i+0x164>
    360a:	2930      	cmp	r1, #48	; 0x30
    360c:	6821      	ldr	r1, [r4, #0]
    360e:	d10b      	bne.n	3628 <_scanf_i+0x12c>
    3610:	0508      	lsls	r0, r1, #20
    3612:	d509      	bpl.n	3628 <_scanf_i+0x12c>
    3614:	f10b 0b01 	add.w	r11, r11, #1
    3618:	f1ba 0f00 	cmp.w	r10, #0
    361c:	d00b      	beq.n	3636 <_scanf_i+0x13a>
    361e:	3301      	adds	r3, #1
    3620:	f10a 3aff 	add.w	r10, r10, #4294967295	; 0xffffffff
    3624:	60a3      	str	r3, [r4, #8]
    3626:	e006      	b.n	3636 <_scanf_i+0x13a>
    3628:	f421 6110 	bic.w	r1, r1, #2304	; 0x900
    362c:	6021      	str	r1, [r4, #0]
    362e:	7813      	ldrb	r3, [r2, #0]
    3630:	3501      	adds	r5, #1
    3632:	f805 3c01 	strb.w	r3, [r5, #-1]
    3636:	6873      	ldr	r3, [r6, #4]
    3638:	3b01      	subs	r3, #1
    363a:	2b00      	cmp	r3, #0
    363c:	6073      	str	r3, [r6, #4]
    363e:	dd03      	ble.n	3648 <_scanf_i+0x14c>
    3640:	6833      	ldr	r3, [r6, #0]
    3642:	3301      	adds	r3, #1
    3644:	6033      	str	r3, [r6, #0]
    3646:	e005      	b.n	3654 <_scanf_i+0x158>
    3648:	f8d4 3180 	ldr.w	r3, [r4, #384]	; 0x180
    364c:	4648      	mov	r0, r9
    364e:	4631      	mov	r1, r6
    3650:	4798      	blx	r3
    3652:	b928      	cbnz	r0, 3660 <_scanf_i+0x164>
    3654:	68a3      	ldr	r3, [r4, #8]
    3656:	3b01      	subs	r3, #1
    3658:	60a3      	str	r3, [r4, #8]
    365a:	e7ce      	b.n	35fa <_scanf_i+0xfe>
    365c:	f04f 0b00 	mov.w	r11, #0
    3660:	6823      	ldr	r3, [r4, #0]
    3662:	05d9      	lsls	r1, r3, #23
    3664:	d50d      	bpl.n	3682 <_scanf_i+0x186>
    3666:	42bd      	cmp	r5, r7
    3668:	d909      	bls.n	367e <_scanf_i+0x182>
    366a:	f815 1c01 	ldrb.w	r1, [r5, #-1]
    366e:	f8d4 317c 	ldr.w	r3, [r4, #380]	; 0x17c
    3672:	4648      	mov	r0, r9
    3674:	4632      	mov	r2, r6
    3676:	4798      	blx	r3
    3678:	f105 3aff 	add.w	r10, r5, #4294967295	; 0xffffffff
    367c:	4655      	mov	r5, r10
    367e:	42bd      	cmp	r5, r7
    3680:	d026      	beq.n	36d0 <_scanf_i+0x1d4>
    3682:	6822      	ldr	r2, [r4, #0]
    3684:	f012 0210 	ands.w	r2, r2, #16
    3688:	d11b      	bne.n	36c2 <_scanf_i+0x1c6>
    368a:	702a      	strb	r2, [r5, #0]
    368c:	6863      	ldr	r3, [r4, #4]
    368e:	4648      	mov	r0, r9
    3690:	4639      	mov	r1, r7
    3692:	9e03      	ldr	r6, [sp, #12]
    3694:	47b0      	blx	r6
    3696:	6822      	ldr	r2, [r4, #0]
    3698:	f8d8 3000 	ldr.w	r3, [r8]
    369c:	f012 0f20 	tst.w	r2, #32
    36a0:	d107      	bne.n	36b2 <_scanf_i+0x1b6>
    36a2:	07d2      	lsls	r2, r2, #31
    36a4:	d505      	bpl.n	36b2 <_scanf_i+0x1b6>
    36a6:	1d1a      	adds	r2, r3, #4
    36a8:	f8c8 2000 	str.w	r2, [r8]
    36ac:	681b      	ldr	r3, [r3, #0]
    36ae:	8018      	strh	r0, [r3, #0]
    36b0:	e004      	b.n	36bc <_scanf_i+0x1c0>
    36b2:	1d1a      	adds	r2, r3, #4
    36b4:	f8c8 2000 	str.w	r2, [r8]
    36b8:	681b      	ldr	r3, [r3, #0]
    36ba:	6018      	str	r0, [r3, #0]
    36bc:	68e3      	ldr	r3, [r4, #12]
    36be:	3301      	adds	r3, #1
    36c0:	60e3      	str	r3, [r4, #12]
    36c2:	6923      	ldr	r3, [r4, #16]
    36c4:	1bed      	subs	r5, r5, r7
    36c6:	44ab      	add	r11, r5
    36c8:	445b      	add	r3, r11
    36ca:	6123      	str	r3, [r4, #16]
    36cc:	2000      	movs	r0, #0
    36ce:	e000      	b.n	36d2 <_scanf_i+0x1d6>
    36d0:	2001      	movs	r0, #1
    36d2:	b009      	add	sp, #36	; 0x24
    36d4:	e8bd 8ff0 	ldmia.w	sp!, {r4, r5, r6, r7, r8, r9, r10, r11, pc}
    36d8:	0000446c 	.word	0x0000446c
    36dc:	00003bad 	.word	0x00003bad
    36e0:	00003cb1 	.word	0x00003cb1
    36e4:	00004488 	.word	0x00004488

000036e8 <__swbuf_r>:
    36e8:	b570      	push	{r4, r5, r6, lr}
    36ea:	460e      	mov	r6, r1
    36ec:	4614      	mov	r4, r2
    36ee:	4605      	mov	r5, r0
    36f0:	b118      	cbz	r0, 36fa <__swbuf_r+0x12>
    36f2:	6983      	ldr	r3, [r0, #24]
    36f4:	b90b      	cbnz	r3, 36fa <__swbuf_r+0x12>
    36f6:	f7fe fba5 	bl	1e44 <__sinit>
    36fa:	4b22      	ldr	r3, [pc, #136]	; (3784 <__swbuf_r+0x9c>)
    36fc:	429c      	cmp	r4, r3
    36fe:	d101      	bne.n	3704 <__swbuf_r+0x1c>
    3700:	686c      	ldr	r4, [r5, #4]
    3702:	e008      	b.n	3716 <__swbuf_r+0x2e>
    3704:	4b20      	ldr	r3, [pc, #128]	; (3788 <__swbuf_r+0xa0>)
    3706:	429c      	cmp	r4, r3
    3708:	d101      	bne.n	370e <__swbuf_r+0x26>
    370a:	68ac      	ldr	r4, [r5, #8]
    370c:	e003      	b.n	3716 <__swbuf_r+0x2e>
    370e:	4b1f      	ldr	r3, [pc, #124]	; (378c <__swbuf_r+0xa4>)
    3710:	429c      	cmp	r4, r3
    3712:	bf08      	it	eq
    3714:	68ec      	ldreq	r4, [r5, #12]
    3716:	69a3      	ldr	r3, [r4, #24]
    3718:	60a3      	str	r3, [r4, #8]
    371a:	89a3      	ldrh	r3, [r4, #12]
    371c:	071a      	lsls	r2, r3, #28
    371e:	d509      	bpl.n	3734 <__swbuf_r+0x4c>
    3720:	6923      	ldr	r3, [r4, #16]
    3722:	b13b      	cbz	r3, 3734 <__swbuf_r+0x4c>
    3724:	6923      	ldr	r3, [r4, #16]
    3726:	6820      	ldr	r0, [r4, #0]
    3728:	b2f6      	uxtb	r6, r6
    372a:	1ac0      	subs	r0, r0, r3
    372c:	6963      	ldr	r3, [r4, #20]
    372e:	4298      	cmp	r0, r3
    3730:	db0f      	blt.n	3752 <__swbuf_r+0x6a>
    3732:	e008      	b.n	3746 <__swbuf_r+0x5e>
    3734:	4628      	mov	r0, r5
    3736:	4621      	mov	r1, r4
    3738:	f000 f83c 	bl	37b4 <__swsetup_r>
    373c:	2800      	cmp	r0, #0
    373e:	d0f1      	beq.n	3724 <__swbuf_r+0x3c>
    3740:	f04f 30ff 	mov.w	r0, #4294967295	; 0xffffffff
    3744:	bd70      	pop	{r4, r5, r6, pc}
    3746:	4628      	mov	r0, r5
    3748:	4621      	mov	r1, r4
    374a:	f7fe faeb 	bl	1d24 <_fflush_r>
    374e:	2800      	cmp	r0, #0
    3750:	d1f6      	bne.n	3740 <__swbuf_r+0x58>
    3752:	68a3      	ldr	r3, [r4, #8]
    3754:	3001      	adds	r0, #1
    3756:	3b01      	subs	r3, #1
    3758:	60a3      	str	r3, [r4, #8]
    375a:	6823      	ldr	r3, [r4, #0]
    375c:	1c5a      	adds	r2, r3, #1
    375e:	6022      	str	r2, [r4, #0]
    3760:	701e      	strb	r6, [r3, #0]
    3762:	6963      	ldr	r3, [r4, #20]
    3764:	4298      	cmp	r0, r3
    3766:	d004      	beq.n	3772 <__swbuf_r+0x8a>
    3768:	89a3      	ldrh	r3, [r4, #12]
    376a:	07db      	lsls	r3, r3, #31
    376c:	d507      	bpl.n	377e <__swbuf_r+0x96>
    376e:	2e0a      	cmp	r6, #10
    3770:	d105      	bne.n	377e <__swbuf_r+0x96>
    3772:	4628      	mov	r0, r5
    3774:	4621      	mov	r1, r4
    3776:	f7fe fad5 	bl	1d24 <_fflush_r>
    377a:	2800      	cmp	r0, #0
    377c:	d1e0      	bne.n	3740 <__swbuf_r+0x58>
    377e:	4630      	mov	r0, r6
    3780:	bd70      	pop	{r4, r5, r6, pc}
    3782:	bf00      	nop
    3784:	000043d0 	.word	0x000043d0
    3788:	000043f0 	.word	0x000043f0
    378c:	00004410 	.word	0x00004410

00003790 <_write_r>:
    3790:	b538      	push	{r3, r4, r5, lr}
    3792:	4c07      	ldr	r4, [pc, #28]	; (37b0 <_write_r+0x20>)
    3794:	4605      	mov	r5, r0
    3796:	2000      	movs	r0, #0
    3798:	6020      	str	r0, [r4, #0]
    379a:	4608      	mov	r0, r1
    379c:	4611      	mov	r1, r2
    379e:	461a      	mov	r2, r3
    37a0:	f7fd f992 	bl	ac8 <_write>
    37a4:	1c43      	adds	r3, r0, #1
    37a6:	d102      	bne.n	37ae <_write_r+0x1e>
    37a8:	6823      	ldr	r3, [r4, #0]
    37aa:	b103      	cbz	r3, 37ae <_write_r+0x1e>
    37ac:	602b      	str	r3, [r5, #0]
    37ae:	bd38      	pop	{r3, r4, r5, pc}
    37b0:	10000380 	.word	0x10000380

000037b4 <__swsetup_r>:
    37b4:	4b32      	ldr	r3, [pc, #200]	; (3880 <__swsetup_r+0xcc>)
    37b6:	b570      	push	{r4, r5, r6, lr}
    37b8:	681d      	ldr	r5, [r3, #0]
    37ba:	4606      	mov	r6, r0
    37bc:	460c      	mov	r4, r1
    37be:	b125      	cbz	r5, 37ca <__swsetup_r+0x16>
    37c0:	69ab      	ldr	r3, [r5, #24]
    37c2:	b913      	cbnz	r3, 37ca <__swsetup_r+0x16>
    37c4:	4628      	mov	r0, r5
    37c6:	f7fe fb3d 	bl	1e44 <__sinit>
    37ca:	4b2e      	ldr	r3, [pc, #184]	; (3884 <__swsetup_r+0xd0>)
    37cc:	429c      	cmp	r4, r3
    37ce:	d101      	bne.n	37d4 <__swsetup_r+0x20>
    37d0:	686c      	ldr	r4, [r5, #4]
    37d2:	e008      	b.n	37e6 <__swsetup_r+0x32>
