
LPC1768/FileTest.elf:     file format elf32-littlearm
architecture: arm, flags 0x00000112:
EXEC_P, HAS_SYMS, D_PAGED
start address 0x00000a5d


Disassembly of section .text:

00000000 <__isr_vector>:
       0:	10008000 	.word	0x10008000
       4:	00000a5d 	.word	0x00000a5d
       8:	00000a8d 	.word	0x00000a8d
       c:	00000a8f 	.word	0x00000a8f
      10:	00000a91 	.word	0x00000a91
      14:	00000a93 	.word	0x00000a93
      18:	00000a95 	.word	0x00000a95
	...
      2c:	00000a97 	.word	0x00000a97
      30:	00000a99 	.word	0x00000a99
      34:	00000000 	.word	0x00000000
      38:	00000a9b 	.word	0x00000a9b
      3c:	00000a9d 	.word	0x00000a9d
      40:	00000a9f 	.word	0x00000a9f
      44:	00000a9f 	.word	0x00000a9f
      48:	00000a9f 	.word	0x00000a9f
      4c:	00000a9f 	.word	0x00000a9f
      50:	00000a9f 	.word	0x00000a9f
      54:	00000a9f 	.word	0x00000a9f
      58:	00000a9f 	.word	0x00000a9f
      5c:	00000a9f 	.word	0x00000a9f
      60:	00000a9f 	.word	0x00000a9f
      64:	00000a9f 	.word	0x00000a9f
      68:	00000a9f 	.word	0x00000a9f
      6c:	00000a9f 	.word	0x00000a9f
      70:	00000a9f 	.word	0x00000a9f
      74:	00000a9f 	.word	0x00000a9f
      78:	00000a9f 	.word	0x00000a9f
      7c:	00000a9f 	.word	0x00000a9f
      80:	00000a9f 	.word	0x00000a9f
      84:	00000a9f 	.word	0x00000a9f
      88:	00000a9f 	.word	0x00000a9f
      8c:	00000a9f 	.word	0x00000a9f
      90:	00000a9f 	.word	0x00000a9f
      94:	00000a9f 	.word	0x00000a9f
      98:	00000a9f 	.word	0x00000a9f
      9c:	00000a9f 	.word	0x00000a9f
      a0:	00000a9f 	.word	0x00000a9f
      a4:	00000a9f 	.word	0x00000a9f
      a8:	00000a9f 	.word	0x00000a9f
      ac:	00000a9f 	.word	0x00000a9f
      b0:	00000a9f 	.word	0x00000a9f
      b4:	00000a9f 	.word	0x00000a9f
      b8:	00000a9f 	.word	0x00000a9f
      bc:	00000a9f 	.word	0x00000a9f
      c0:	00000a9f 	.word	0x00000a9f
      c4:	00000a9f 	.word	0x00000a9f
      c8:	00000a9f 	.word	0x00000a9f

000000cc <__do_global_dtors_aux>:
      cc:	b510      	push	{r4, lr}
      ce:	4c05      	ldr	r4, [pc, #20]	; (e4 <__do_global_dtors_aux+0x18>)
      d0:	7823      	ldrb	r3, [r4, #0]
      d2:	b933      	cbnz	r3, e2 <__do_global_dtors_aux+0x16>
      d4:	4b04      	ldr	r3, [pc, #16]	; (e8 <__do_global_dtors_aux+0x1c>)
      d6:	b113      	cbz	r3, de <__do_global_dtors_aux+0x12>
      d8:	4804      	ldr	r0, [pc, #16]	; (ec <__do_global_dtors_aux+0x20>)
      da:	f3af 8000 	nop.w
      de:	2301      	movs	r3, #1
      e0:	7023      	strb	r3, [r4, #0]
      e2:	bd10      	pop	{r4, pc}
      e4:	10000148 	.word	0x10000148
      e8:	00000000 	.word	0x00000000
      ec:	00003d54 	.word	0x00003d54

000000f0 <frame_dummy>:
      f0:	b508      	push	{r3, lr}
      f2:	4b06      	ldr	r3, [pc, #24]	; (10c <frame_dummy+0x1c>)
      f4:	b11b      	cbz	r3, fe <frame_dummy+0xe>
      f6:	4806      	ldr	r0, [pc, #24]	; (110 <frame_dummy+0x20>)
      f8:	4906      	ldr	r1, [pc, #24]	; (114 <frame_dummy+0x24>)
      fa:	f3af 8000 	nop.w
      fe:	4806      	ldr	r0, [pc, #24]	; (118 <frame_dummy+0x28>)
     100:	6803      	ldr	r3, [r0, #0]
     102:	b113      	cbz	r3, 10a <frame_dummy+0x1a>
     104:	4b05      	ldr	r3, [pc, #20]	; (11c <frame_dummy+0x2c>)
     106:	b103      	cbz	r3, 10a <frame_dummy+0x1a>
     108:	4798      	blx	r3
     10a:	bd08      	pop	{r3, pc}
     10c:	00000000 	.word	0x00000000
     110:	00003d54 	.word	0x00003d54
     114:	1000014c 	.word	0x1000014c
     118:	10000148 	.word	0x10000148
     11c:	00000000 	.word	0x00000000

00000120 <mbed::LocalFileSystem::~LocalFileSystem()>:
     120:	b510      	push	{r4, lr}
     122:	4b03      	ldr	r3, [pc, #12]	; (130 <mbed::LocalFileSystem::~LocalFileSystem()+0x10>)
     124:	4604      	mov	r4, r0
     126:	6003      	str	r3, [r0, #0]
     128:	f000 f9b0 	bl	48c <mbed::FileSystemLike::~FileSystemLike()>
     12c:	4620      	mov	r0, r4
     12e:	bd10      	pop	{r4, pc}
     130:	00003968 	.word	0x00003968

00000134 <mbed::LocalFileSystem::~LocalFileSystem()>:
     134:	b510      	push	{r4, lr}
     136:	4b05      	ldr	r3, [pc, #20]	; (14c <mbed::LocalFileSystem::~LocalFileSystem()+0x18>)
     138:	4604      	mov	r4, r0
     13a:	6003      	str	r3, [r0, #0]
     13c:	f000 f9a6 	bl	48c <mbed::FileSystemLike::~FileSystemLike()>
     140:	4620      	mov	r0, r4
     142:	f001 fbbc 	bl	18be <operator delete(void*)>
     146:	4620      	mov	r0, r4
     148:	bd10      	pop	{r4, pc}
     14a:	bf00      	nop
     14c:	00003968 	.word	0x00003968

00000150 <main>:
     150:	b510      	push	{r4, lr}
     152:	2200      	movs	r2, #0
     154:	f5ad 7d00 	sub.w	sp, sp, #512	; 0x200
     158:	f80d 2002 	strb.w	r2, [sp, r2]
     15c:	3201      	adds	r2, #1
     15e:	f5b2 7f80 	cmp.w	r2, #256	; 0x100
     162:	d1f9      	bne.n	158 <main+0x8>
     164:	2100      	movs	r1, #0
     166:	a840      	add	r0, sp, #256	; 0x100
     168:	f002 f82a 	bl	21c0 <memset>
     16c:	4825      	ldr	r0, [pc, #148]	; (204 <main+0xb4>)
     16e:	4926      	ldr	r1, [pc, #152]	; (208 <main+0xb8>)
     170:	f001 fdee 	bl	1d50 <fopen>
     174:	4604      	mov	r4, r0
     176:	2800      	cmp	r0, #0
     178:	d03e      	beq.n	1f8 <main+0xa8>
     17a:	4668      	mov	r0, sp
     17c:	2101      	movs	r1, #1
     17e:	f44f 7280 	mov.w	r2, #256	; 0x100
     182:	4623      	mov	r3, r4
     184:	f001 ff72 	bl	206c <fwrite>
     188:	f5b0 7f80 	cmp.w	r0, #256	; 0x100
     18c:	d002      	beq.n	194 <main+0x44>
     18e:	481f      	ldr	r0, [pc, #124]	; (20c <main+0xbc>)
     190:	f000 f890 	bl	2b4 <error>
     194:	4620      	mov	r0, r4
     196:	f001 fc13 	bl	19c0 <fclose>
     19a:	481a      	ldr	r0, [pc, #104]	; (204 <main+0xb4>)
     19c:	491c      	ldr	r1, [pc, #112]	; (210 <main+0xc0>)
     19e:	f001 fdd7 	bl	1d50 <fopen>
     1a2:	4604      	mov	r4, r0
     1a4:	b318      	cbz	r0, 1ee <main+0x9e>
     1a6:	a840      	add	r0, sp, #256	; 0x100
     1a8:	2101      	movs	r1, #1
     1aa:	f44f 7280 	mov.w	r2, #256	; 0x100
     1ae:	4623      	mov	r3, r4
     1b0:	f001 fe2a 	bl	1e08 <fread>
     1b4:	f5b0 7f80 	cmp.w	r0, #256	; 0x100
     1b8:	d002      	beq.n	1c0 <main+0x70>
     1ba:	4816      	ldr	r0, [pc, #88]	; (214 <main+0xc4>)
     1bc:	f000 f87a 	bl	2b4 <error>
     1c0:	4668      	mov	r0, sp
     1c2:	a940      	add	r1, sp, #256	; 0x100
     1c4:	f44f 7280 	mov.w	r2, #256	; 0x100
     1c8:	f001 ffe2 	bl	2190 <memcmp>
     1cc:	b110      	cbz	r0, 1d4 <main+0x84>
     1ce:	4812      	ldr	r0, [pc, #72]	; (218 <main+0xc8>)
     1d0:	f000 f870 	bl	2b4 <error>
     1d4:	4620      	mov	r0, r4
     1d6:	f001 fbf3 	bl	19c0 <fclose>
     1da:	480a      	ldr	r0, [pc, #40]	; (204 <main+0xb4>)
     1dc:	f000 fc12 	bl	a04 <remove>
     1e0:	480e      	ldr	r0, [pc, #56]	; (21c <main+0xcc>)
     1e2:	f002 f8ff 	bl	23e4 <puts>
     1e6:	2000      	movs	r0, #0
     1e8:	f50d 7d00 	add.w	sp, sp, #512	; 0x200
     1ec:	bd10      	pop	{r4, pc}
     1ee:	480c      	ldr	r0, [pc, #48]	; (220 <main+0xd0>)
     1f0:	4904      	ldr	r1, [pc, #16]	; (204 <main+0xb4>)
     1f2:	f000 f85f 	bl	2b4 <error>
     1f6:	e7d6      	b.n	1a6 <main+0x56>
     1f8:	4809      	ldr	r0, [pc, #36]	; (220 <main+0xd0>)
     1fa:	4902      	ldr	r1, [pc, #8]	; (204 <main+0xb4>)
     1fc:	f000 f85a 	bl	2b4 <error>
     200:	e7bb      	b.n	17a <main+0x2a>
     202:	bf00      	nop
     204:	000038d4 	.word	0x000038d4
     208:	00003804 	.word	0x00003804
     20c:	00003828 	.word	0x00003828
     210:	00003858 	.word	0x00003858
     214:	0000385c 	.word	0x0000385c
     218:	00003890 	.word	0x00003890
     21c:	000038b8 	.word	0x000038b8
     220:	00003808 	.word	0x00003808

00000224 <_GLOBAL__sub_I_local>:
     224:	b510      	push	{r4, lr}
     226:	4c07      	ldr	r4, [pc, #28]	; (244 <_GLOBAL__sub_I_local+0x20>)
     228:	4907      	ldr	r1, [pc, #28]	; (248 <_GLOBAL__sub_I_local+0x24>)
     22a:	4620      	mov	r0, r4
     22c:	f000 f946 	bl	4bc <mbed::FileSystemLike::FileSystemLike(char const*)>
     230:	4b06      	ldr	r3, [pc, #24]	; (24c <_GLOBAL__sub_I_local+0x28>)
     232:	4620      	mov	r0, r4
     234:	6023      	str	r3, [r4, #0]
     236:	4906      	ldr	r1, [pc, #24]	; (250 <_GLOBAL__sub_I_local+0x2c>)
     238:	4a06      	ldr	r2, [pc, #24]	; (254 <_GLOBAL__sub_I_local+0x30>)
     23a:	e8bd 4010 	ldmia.w	sp!, {r4, lr}
     23e:	f001 bb39 	b.w	18b4 <__aeabi_atexit>
     242:	bf00      	nop
     244:	10000164 	.word	0x10000164
     248:	000038cc 	.word	0x000038cc
     24c:	00003968 	.word	0x00003968
     250:	00000121 	.word	0x00000121
     254:	100000c8 	.word	0x100000c8

00000258 <_start>:
     258:	4807      	ldr	r0, [pc, #28]	; (278 <_start+0x20>)
     25a:	4a08      	ldr	r2, [pc, #32]	; (27c <_start+0x24>)
     25c:	b508      	push	{r3, lr}
     25e:	1a12      	subs	r2, r2, r0
     260:	2100      	movs	r1, #0
     262:	f001 ffad 	bl	21c0 <memset>
     266:	f3af 8000 	nop.w
     26a:	f001 ff0f 	bl	208c <__libc_init_array>
     26e:	f7ff ff6f 	bl	150 <main>
     272:	f000 f831 	bl	2d8 <exit>
     276:	bf00      	nop
     278:	10000148 	.word	0x10000148
     27c:	10000384 	.word	0x10000384

00000280 <__wrap__isatty>:
     280:	2802      	cmp	r0, #2
     282:	dc01      	bgt.n	288 <__wrap__isatty+0x8>
     284:	2001      	movs	r0, #1
     286:	4770      	bx	lr
     288:	f000 bb84 	b.w	994 <_isatty>

0000028c <__wrap_malloc>:
     28c:	f3ef 8305 	mrs	r3, IPSR
     290:	b103      	cbz	r3, 294 <__wrap_malloc+0x8>
     292:	be00      	bkpt	0x0000
     294:	f001 bf6c 	b.w	2170 <malloc>

00000298 <__wrap_free>:
     298:	f3ef 8305 	mrs	r3, IPSR
     29c:	b103      	cbz	r3, 2a0 <__wrap_free+0x8>
     29e:	be00      	bkpt	0x0000
     2a0:	f001 bf6e 	b.w	2180 <free>

000002a4 <abort>:
     2a4:	b508      	push	{r3, lr}
     2a6:	2001      	movs	r0, #1
     2a8:	f000 f816 	bl	2d8 <exit>

000002ac <__cxa_pure_virtual>:
     2ac:	b508      	push	{r3, lr}
     2ae:	f7ff fff9 	bl	2a4 <abort>
     2b2:	bf00      	nop

000002b4 <error>:
     2b4:	b40f      	push	{r0, r1, r2, r3}
     2b6:	b500      	push	{lr}
     2b8:	4a06      	ldr	r2, [pc, #24]	; (2d4 <error+0x20>)
     2ba:	b083      	sub	sp, #12
     2bc:	ab04      	add	r3, sp, #16
     2be:	6812      	ldr	r2, [r2, #0]
     2c0:	f853 1b04 	ldr.w	r1, [r3], #4
     2c4:	68d0      	ldr	r0, [r2, #12]
     2c6:	461a      	mov	r2, r3
     2c8:	9301      	str	r3, [sp, #4]
     2ca:	f002 fcd9 	bl	2c80 <vfiprintf>
     2ce:	2001      	movs	r0, #1
     2d0:	f000 f802 	bl	2d8 <exit>
     2d4:	10000134 	.word	0x10000134

000002d8 <exit>:
     2d8:	4c0a      	ldr	r4, [pc, #40]	; (304 <exit+0x2c>)
     2da:	b508      	push	{r3, lr}
     2dc:	6823      	ldr	r3, [r4, #0]
     2de:	4605      	mov	r5, r0
     2e0:	6898      	ldr	r0, [r3, #8]
     2e2:	f001 fc23 	bl	1b2c <fflush>
     2e6:	6823      	ldr	r3, [r4, #0]
     2e8:	68d8      	ldr	r0, [r3, #12]
     2ea:	f001 fc1f 	bl	1b2c <fflush>
     2ee:	f000 f80b 	bl	308 <mbed_interface_connected>
     2f2:	b920      	cbnz	r0, 2fe <exit+0x26>
     2f4:	b905      	cbnz	r5, 2f8 <exit+0x20>
     2f6:	e7fe      	b.n	2f6 <exit+0x1e>
     2f8:	f001 f834 	bl	1364 <mbed_die>
     2fc:	e7fb      	b.n	2f6 <exit+0x1e>
     2fe:	f000 f88d 	bl	41c <semihost_exit>
     302:	e7f7      	b.n	2f4 <exit+0x1c>
     304:	10000134 	.word	0x10000134

00000308 <mbed_interface_connected>:
     308:	f000 b894 	b.w	434 <semihost_connected>

0000030c <semihost_open>:
     30c:	b530      	push	{r4, r5, lr}
     30e:	b085      	sub	sp, #20
     310:	9001      	str	r0, [sp, #4]
     312:	9102      	str	r1, [sp, #8]
     314:	f002 f987 	bl	2626 <strlen>
     318:	2401      	movs	r4, #1
     31a:	9003      	str	r0, [sp, #12]
     31c:	ad01      	add	r5, sp, #4
     31e:	4620      	mov	r0, r4
     320:	4629      	mov	r1, r5
     322:	beab      	bkpt	0x00ab
     324:	4604      	mov	r4, r0
     326:	4620      	mov	r0, r4
     328:	b005      	add	sp, #20
     32a:	bd30      	pop	{r4, r5, pc}

0000032c <semihost_close>:
     32c:	b530      	push	{r4, r5, lr}
     32e:	b083      	sub	sp, #12
     330:	ac02      	add	r4, sp, #8
     332:	f844 0d04 	str.w	r0, [r4, #-4]!
     336:	2502      	movs	r5, #2
     338:	4628      	mov	r0, r5
     33a:	4621      	mov	r1, r4
     33c:	beab      	bkpt	0x00ab
     33e:	4604      	mov	r4, r0
     340:	4620      	mov	r0, r4
     342:	b003      	add	sp, #12
     344:	bd30      	pop	{r4, r5, pc}
     346:	bf00      	nop

00000348 <semihost_write>:
     348:	b530      	push	{r4, r5, lr}
     34a:	b085      	sub	sp, #20
     34c:	b15a      	cbz	r2, 366 <semihost_write+0x1e>
     34e:	9001      	str	r0, [sp, #4]
     350:	9102      	str	r1, [sp, #8]
     352:	9203      	str	r2, [sp, #12]
     354:	2405      	movs	r4, #5
     356:	ad01      	add	r5, sp, #4
     358:	4620      	mov	r0, r4
     35a:	4629      	mov	r1, r5
     35c:	beab      	bkpt	0x00ab
     35e:	4604      	mov	r4, r0
     360:	4620      	mov	r0, r4
     362:	b005      	add	sp, #20
     364:	bd30      	pop	{r4, r5, pc}
     366:	4614      	mov	r4, r2
     368:	4620      	mov	r0, r4
     36a:	b005      	add	sp, #20
     36c:	bd30      	pop	{r4, r5, pc}
     36e:	bf00      	nop

00000370 <semihost_read>:
     370:	b530      	push	{r4, r5, lr}
     372:	b085      	sub	sp, #20
     374:	9001      	str	r0, [sp, #4]
     376:	9102      	str	r1, [sp, #8]
     378:	9203      	str	r2, [sp, #12]
     37a:	2406      	movs	r4, #6
     37c:	ad01      	add	r5, sp, #4
     37e:	4620      	mov	r0, r4
     380:	4629      	mov	r1, r5
     382:	beab      	bkpt	0x00ab
     384:	4604      	mov	r4, r0
     386:	4620      	mov	r0, r4
     388:	b005      	add	sp, #20
     38a:	bd30      	pop	{r4, r5, pc}

0000038c <semihost_istty>:
     38c:	b530      	push	{r4, r5, lr}
     38e:	b083      	sub	sp, #12
     390:	ac02      	add	r4, sp, #8
     392:	f844 0d04 	str.w	r0, [r4, #-4]!
     396:	2509      	movs	r5, #9
     398:	4628      	mov	r0, r5
     39a:	4621      	mov	r1, r4
     39c:	beab      	bkpt	0x00ab
     39e:	4604      	mov	r4, r0
     3a0:	4620      	mov	r0, r4
     3a2:	b003      	add	sp, #12
     3a4:	bd30      	pop	{r4, r5, pc}
     3a6:	bf00      	nop

000003a8 <semihost_seek>:
     3a8:	b530      	push	{r4, r5, lr}
     3aa:	b083      	sub	sp, #12
     3ac:	e88d 0003 	stmia.w	sp, {r0, r1}
     3b0:	240a      	movs	r4, #10
     3b2:	466d      	mov	r5, sp
     3b4:	4620      	mov	r0, r4
     3b6:	4629      	mov	r1, r5
     3b8:	beab      	bkpt	0x00ab
     3ba:	4604      	mov	r4, r0
     3bc:	4620      	mov	r0, r4
     3be:	b003      	add	sp, #12
     3c0:	bd30      	pop	{r4, r5, pc}
     3c2:	bf00      	nop

000003c4 <semihost_ensure>:
     3c4:	b530      	push	{r4, r5, lr}
     3c6:	b083      	sub	sp, #12
     3c8:	ac02      	add	r4, sp, #8
     3ca:	f844 0d04 	str.w	r0, [r4, #-4]!
     3ce:	250b      	movs	r5, #11
     3d0:	4628      	mov	r0, r5
     3d2:	4621      	mov	r1, r4
     3d4:	beab      	bkpt	0x00ab
     3d6:	4604      	mov	r4, r0
     3d8:	4620      	mov	r0, r4
     3da:	b003      	add	sp, #12
     3dc:	bd30      	pop	{r4, r5, pc}
     3de:	bf00      	nop

000003e0 <semihost_flen>:
     3e0:	b530      	push	{r4, r5, lr}
     3e2:	b083      	sub	sp, #12
     3e4:	ac02      	add	r4, sp, #8
     3e6:	f844 0d04 	str.w	r0, [r4, #-4]!
     3ea:	250c      	movs	r5, #12
     3ec:	4628      	mov	r0, r5
     3ee:	4621      	mov	r1, r4
     3f0:	beab      	bkpt	0x00ab
     3f2:	4604      	mov	r4, r0
     3f4:	4620      	mov	r0, r4
     3f6:	b003      	add	sp, #12
     3f8:	bd30      	pop	{r4, r5, pc}
     3fa:	bf00      	nop

000003fc <semihost_remove>:
     3fc:	b530      	push	{r4, r5, lr}
     3fe:	b083      	sub	sp, #12
     400:	9000      	str	r0, [sp, #0]
     402:	f002 f910 	bl	2626 <strlen>
     406:	240e      	movs	r4, #14
     408:	9001      	str	r0, [sp, #4]
     40a:	466d      	mov	r5, sp
     40c:	4620      	mov	r0, r4
     40e:	4629      	mov	r1, r5
     410:	beab      	bkpt	0x00ab
     412:	4604      	mov	r4, r0
     414:	4620      	mov	r0, r4
     416:	b003      	add	sp, #12
     418:	bd30      	pop	{r4, r5, pc}
     41a:	bf00      	nop

0000041c <semihost_exit>:
     41c:	b530      	push	{r4, r5, lr}
     41e:	b085      	sub	sp, #20
     420:	2418      	movs	r4, #24
     422:	466d      	mov	r5, sp
     424:	4620      	mov	r0, r4
     426:	4629      	mov	r1, r5
     428:	beab      	bkpt	0x00ab
     42a:	4604      	mov	r4, r0
     42c:	4620      	mov	r0, r4
     42e:	b005      	add	sp, #20
     430:	bd30      	pop	{r4, r5, pc}
     432:	bf00      	nop

00000434 <semihost_connected>:
     434:	4b02      	ldr	r3, [pc, #8]	; (440 <semihost_connected+0xc>)
     436:	6818      	ldr	r0, [r3, #0]
     438:	f000 0001 	and.w	r0, r0, #1
     43c:	4770      	bx	lr
     43e:	bf00      	nop
     440:	e000edf0 	.word	0xe000edf0

00000444 <mbed::DirHandle::telldir()>:
     444:	f04f 30ff 	mov.w	r0, #4294967295	; 0xffffffff
     448:	4770      	bx	lr
     44a:	bf00      	nop

0000044c <mbed::DirHandle::seekdir(long)>:
     44c:	4770      	bx	lr
     44e:	bf00      	nop

00000450 <mbed::DirHandle::~DirHandle()>:
     450:	4b01      	ldr	r3, [pc, #4]	; (458 <mbed::DirHandle::~DirHandle()+0x8>)
     452:	6003      	str	r3, [r0, #0]
     454:	4770      	bx	lr
     456:	bf00      	nop
     458:	000038f0 	.word	0x000038f0

0000045c <mbed::FileSystemLike::remove(char const*)>:
     45c:	f04f 30ff 	mov.w	r0, #4294967295	; 0xffffffff
     460:	4770      	bx	lr
     462:	bf00      	nop

00000464 <mbed::FileSystemLike::rename(char const*, char const*)>:
     464:	f04f 30ff 	mov.w	r0, #4294967295	; 0xffffffff
     468:	4770      	bx	lr
     46a:	bf00      	nop

0000046c <mbed::FileSystemLike::opendir(char const*)>:
     46c:	2000      	movs	r0, #0
     46e:	4770      	bx	lr

00000470 <mbed::FileSystemLike::mkdir(char const*, unsigned int)>:
     470:	f04f 30ff 	mov.w	r0, #4294967295	; 0xffffffff
     474:	4770      	bx	lr
     476:	bf00      	nop

00000478 <mbed::DirHandle::~DirHandle()>:
     478:	b510      	push	{r4, lr}
     47a:	4b03      	ldr	r3, [pc, #12]	; (488 <mbed::DirHandle::~DirHandle()+0x10>)
     47c:	4604      	mov	r4, r0
     47e:	6003      	str	r3, [r0, #0]
     480:	f001 fa1d 	bl	18be <operator delete(void*)>
     484:	4620      	mov	r0, r4
     486:	bd10      	pop	{r4, pc}
     488:	000038f0 	.word	0x000038f0

0000048c <mbed::FileSystemLike::~FileSystemLike()>:
     48c:	b510      	push	{r4, lr}
     48e:	4b03      	ldr	r3, [pc, #12]	; (49c <mbed::FileSystemLike::~FileSystemLike()+0x10>)
     490:	4604      	mov	r4, r0
     492:	6003      	str	r3, [r0, #0]
     494:	f001 f850 	bl	1538 <mbed::FileBase::~FileBase()>
     498:	4620      	mov	r0, r4
     49a:	bd10      	pop	{r4, pc}
     49c:	00003918 	.word	0x00003918

000004a0 <mbed::FileSystemLike::~FileSystemLike()>:
     4a0:	b510      	push	{r4, lr}
     4a2:	4b05      	ldr	r3, [pc, #20]	; (4b8 <mbed::FileSystemLike::~FileSystemLike()+0x18>)
     4a4:	4604      	mov	r4, r0
     4a6:	6003      	str	r3, [r0, #0]
     4a8:	f001 f846 	bl	1538 <mbed::FileBase::~FileBase()>
     4ac:	4620      	mov	r0, r4
     4ae:	f001 fa06 	bl	18be <operator delete(void*)>
     4b2:	4620      	mov	r0, r4
     4b4:	bd10      	pop	{r4, pc}
     4b6:	bf00      	nop
     4b8:	00003918 	.word	0x00003918

000004bc <mbed::FileSystemLike::FileSystemLike(char const*)>:
     4bc:	b510      	push	{r4, lr}
     4be:	2201      	movs	r2, #1
     4c0:	4604      	mov	r4, r0
     4c2:	f001 f86f 	bl	15a4 <mbed::FileBase::FileBase(char const*, mbed::PathType)>
     4c6:	4b02      	ldr	r3, [pc, #8]	; (4d0 <mbed::FileSystemLike::FileSystemLike(char const*)+0x14>)
     4c8:	4620      	mov	r0, r4
     4ca:	6023      	str	r3, [r4, #0]
     4cc:	bd10      	pop	{r4, pc}
     4ce:	bf00      	nop
     4d0:	00003918 	.word	0x00003918

000004d4 <mbed::LocalDirHandle::closedir()>:
     4d4:	b508      	push	{r3, lr}
     4d6:	b110      	cbz	r0, 4de <mbed::LocalDirHandle::closedir()+0xa>
     4d8:	6803      	ldr	r3, [r0, #0]
     4da:	699b      	ldr	r3, [r3, #24]
     4dc:	4798      	blx	r3
     4de:	2000      	movs	r0, #0
     4e0:	bd08      	pop	{r3, pc}
     4e2:	bf00      	nop

000004e4 <mbed::LocalDirHandle::rewinddir()>:
     4e4:	2300      	movs	r3, #0
     4e6:	f8c0 3128 	str.w	r3, [r0, #296]	; 0x128
     4ea:	4770      	bx	lr

000004ec <mbed::LocalDirHandle::telldir()>:
     4ec:	f8d0 0128 	ldr.w	r0, [r0, #296]	; 0x128
     4f0:	4770      	bx	lr
     4f2:	bf00      	nop

000004f4 <mbed::LocalDirHandle::seekdir(long)>:
     4f4:	f8c0 1128 	str.w	r1, [r0, #296]	; 0x128
     4f8:	4770      	bx	lr
     4fa:	bf00      	nop

000004fc <mbed::LocalDirHandle::~LocalDirHandle()>:
     4fc:	4b01      	ldr	r3, [pc, #4]	; (504 <mbed::LocalDirHandle::~LocalDirHandle()+0x8>)
     4fe:	6003      	str	r3, [r0, #0]
     500:	4770      	bx	lr
     502:	bf00      	nop
     504:	000038f0 	.word	0x000038f0

00000508 <mbed::LocalDirHandle::~LocalDirHandle()>:
     508:	b510      	push	{r4, lr}
     50a:	4b03      	ldr	r3, [pc, #12]	; (518 <mbed::LocalDirHandle::~LocalDirHandle()+0x10>)
     50c:	4604      	mov	r4, r0
     50e:	6003      	str	r3, [r0, #0]
     510:	f001 f9d5 	bl	18be <operator delete(void*)>
     514:	4620      	mov	r0, r4
     516:	bd10      	pop	{r4, pc}
     518:	000038f0 	.word	0x000038f0

0000051c <mbed::LocalFileHandle::close()>:
     51c:	b538      	push	{r3, r4, r5, lr}
     51e:	4604      	mov	r4, r0
     520:	6840      	ldr	r0, [r0, #4]
     522:	f7ff ff03 	bl	32c <semihost_close>
     526:	4605      	mov	r5, r0
     528:	b11c      	cbz	r4, 532 <mbed::LocalFileHandle::close()+0x16>
     52a:	6823      	ldr	r3, [r4, #0]
     52c:	4620      	mov	r0, r4
     52e:	6a1b      	ldr	r3, [r3, #32]
     530:	4798      	blx	r3
     532:	4628      	mov	r0, r5
     534:	bd38      	pop	{r3, r4, r5, pc}
     536:	bf00      	nop

00000538 <mbed::LocalFileHandle::write(void const*, unsigned int)>:
     538:	b538      	push	{r3, r4, r5, lr}
     53a:	4604      	mov	r4, r0
     53c:	2300      	movs	r3, #0
     53e:	6840      	ldr	r0, [r0, #4]
     540:	4615      	mov	r5, r2
     542:	f7ff ff01 	bl	348 <semihost_write>
     546:	68a3      	ldr	r3, [r4, #8]
     548:	1a28      	subs	r0, r5, r0
     54a:	4403      	add	r3, r0
     54c:	60a3      	str	r3, [r4, #8]
     54e:	bd38      	pop	{r3, r4, r5, pc}

00000550 <mbed::LocalFileHandle::read(void*, unsigned int)>:
     550:	b538      	push	{r3, r4, r5, lr}
     552:	4604      	mov	r4, r0
     554:	2300      	movs	r3, #0
     556:	6840      	ldr	r0, [r0, #4]
     558:	4615      	mov	r5, r2
     55a:	f7ff ff09 	bl	370 <semihost_read>
     55e:	68a3      	ldr	r3, [r4, #8]
     560:	1a28      	subs	r0, r5, r0
     562:	4403      	add	r3, r0
     564:	60a3      	str	r3, [r4, #8]
     566:	bd38      	pop	{r3, r4, r5, pc}

00000568 <mbed::LocalFileHandle::isatty()>:
     568:	6840      	ldr	r0, [r0, #4]
     56a:	f7ff bf0f 	b.w	38c <semihost_istty>
     56e:	bf00      	nop

00000570 <mbed::LocalFileHandle::flen()>:
     570:	6840      	ldr	r0, [r0, #4]
     572:	f7ff bf35 	b.w	3e0 <semihost_flen>
     576:	bf00      	nop

00000578 <mbed::LocalFileHandle::lseek(long, int)>:
     578:	2a01      	cmp	r2, #1
     57a:	b538      	push	{r3, r4, r5, lr}
     57c:	4605      	mov	r5, r0
     57e:	460c      	mov	r4, r1
     580:	d008      	beq.n	594 <mbed::LocalFileHandle::lseek(long, int)+0x1c>
     582:	2a02      	cmp	r2, #2
     584:	d009      	beq.n	59a <mbed::LocalFileHandle::lseek(long, int)+0x22>
     586:	6868      	ldr	r0, [r5, #4]
     588:	4621      	mov	r1, r4
     58a:	f7ff ff0d 	bl	3a8 <semihost_seek>
     58e:	60ac      	str	r4, [r5, #8]
     590:	4620      	mov	r0, r4
     592:	bd38      	pop	{r3, r4, r5, pc}
     594:	6883      	ldr	r3, [r0, #8]
     596:	441c      	add	r4, r3
     598:	e7f5      	b.n	586 <mbed::LocalFileHandle::lseek(long, int)+0xe>
     59a:	6840      	ldr	r0, [r0, #4]
     59c:	f7ff ff20 	bl	3e0 <semihost_flen>
     5a0:	4404      	add	r4, r0
     5a2:	e7f0      	b.n	586 <mbed::LocalFileHandle::lseek(long, int)+0xe>

000005a4 <mbed::LocalFileHandle::fsync()>:
     5a4:	6840      	ldr	r0, [r0, #4]
     5a6:	f7ff bf0d 	b.w	3c4 <semihost_ensure>
     5aa:	bf00      	nop

000005ac <mbed::LocalFileSystem::opendir(char const*)>:
     5ac:	b510      	push	{r4, lr}
     5ae:	f44f 709e 	mov.w	r0, #316	; 0x13c
     5b2:	f001 f989 	bl	18c8 <operator new(unsigned int)>
     5b6:	4b14      	ldr	r3, [pc, #80]	; (608 <mbed::LocalFileSystem::opendir(char const*)+0x5c>)
     5b8:	4604      	mov	r4, r0
     5ba:	2100      	movs	r1, #0
     5bc:	f840 3b04 	str.w	r3, [r0], #4
     5c0:	f44f 7280 	mov.w	r2, #256	; 0x100
     5c4:	f001 fdfc 	bl	21c0 <memset>
     5c8:	2300      	movs	r3, #0
     5ca:	f8c4 3104 	str.w	r3, [r4, #260]	; 0x104
     5ce:	f8c4 3108 	str.w	r3, [r4, #264]	; 0x108
     5d2:	f8c4 310c 	str.w	r3, [r4, #268]	; 0x10c
     5d6:	f8c4 3110 	str.w	r3, [r4, #272]	; 0x110
     5da:	f8c4 3114 	str.w	r3, [r4, #276]	; 0x114
     5de:	f8c4 3118 	str.w	r3, [r4, #280]	; 0x118
     5e2:	f8c4 311c 	str.w	r3, [r4, #284]	; 0x11c
     5e6:	f8c4 3120 	str.w	r3, [r4, #288]	; 0x120
     5ea:	f8c4 3124 	str.w	r3, [r4, #292]	; 0x124
     5ee:	f8c4 3128 	str.w	r3, [r4, #296]	; 0x128
     5f2:	f8c4 312c 	str.w	r3, [r4, #300]	; 0x12c
     5f6:	f8c4 3130 	str.w	r3, [r4, #304]	; 0x130
     5fa:	f8c4 3134 	str.w	r3, [r4, #308]	; 0x134
     5fe:	f8c4 3138 	str.w	r3, [r4, #312]	; 0x138
     602:	4620      	mov	r0, r4
     604:	bd10      	pop	{r4, pc}
     606:	bf00      	nop
     608:	00003940 	.word	0x00003940

0000060c <mbed::LocalFileSystem::remove(char const*)>:
     60c:	4608      	mov	r0, r1
     60e:	f7ff bef5 	b.w	3fc <semihost_remove>
     612:	bf00      	nop

00000614 <mbed::LocalFileHandle::~LocalFileHandle()>:
     614:	b510      	push	{r4, lr}
     616:	4b03      	ldr	r3, [pc, #12]	; (624 <mbed::LocalFileHandle::~LocalFileHandle()+0x10>)
     618:	4604      	mov	r4, r0
     61a:	6003      	str	r3, [r0, #0]
     61c:	f000 f89a 	bl	754 <mbed::FileHandle::~FileHandle()>
     620:	4620      	mov	r0, r4
     622:	bd10      	pop	{r4, pc}
     624:	00003990 	.word	0x00003990

00000628 <mbed::LocalFileHandle::~LocalFileHandle()>:
     628:	b510      	push	{r4, lr}
     62a:	4b05      	ldr	r3, [pc, #20]	; (640 <mbed::LocalFileHandle::~LocalFileHandle()+0x18>)
     62c:	4604      	mov	r4, r0
     62e:	6003      	str	r3, [r0, #0]
     630:	f000 f890 	bl	754 <mbed::FileHandle::~FileHandle()>
     634:	4620      	mov	r0, r4
     636:	f001 f942 	bl	18be <operator delete(void*)>
     63a:	4620      	mov	r0, r4
     63c:	bd10      	pop	{r4, pc}
     63e:	bf00      	nop
     640:	00003990 	.word	0x00003990

00000644 <mbed::LocalDirHandle::readdir()>:
     644:	b5f0      	push	{r4, r5, r6, r7, lr}
     646:	4914      	ldr	r1, [pc, #80]	; (698 <mbed::LocalDirHandle::readdir()+0x54>)
     648:	b085      	sub	sp, #20
     64a:	f500 7482 	add.w	r4, r0, #260	; 0x104
     64e:	2201      	movs	r2, #1
     650:	2338      	movs	r3, #56	; 0x38
     652:	4605      	mov	r5, r0
     654:	e88d 0016 	stmia.w	sp, {r1, r2, r4}
     658:	9303      	str	r3, [sp, #12]
     65a:	f44f 7680 	mov.w	r6, #256	; 0x100
     65e:	466f      	mov	r7, sp
     660:	4630      	mov	r0, r6
     662:	4639      	mov	r1, r7
     664:	beab      	bkpt	0x00ab
     666:	4606      	mov	r6, r0
     668:	b99e      	cbnz	r6, 692 <mbed::LocalDirHandle::readdir()+0x4e>
     66a:	6827      	ldr	r7, [r4, #0]
     66c:	6866      	ldr	r6, [r4, #4]
     66e:	68a1      	ldr	r1, [r4, #8]
     670:	68e2      	ldr	r2, [r4, #12]
     672:	606f      	str	r7, [r5, #4]
     674:	60ae      	str	r6, [r5, #8]
     676:	60e9      	str	r1, [r5, #12]
     678:	612a      	str	r2, [r5, #16]
     67a:	6927      	ldr	r7, [r4, #16]
     67c:	6966      	ldr	r6, [r4, #20]
     67e:	69a1      	ldr	r1, [r4, #24]
     680:	69e2      	ldr	r2, [r4, #28]
     682:	1d2b      	adds	r3, r5, #4
     684:	4618      	mov	r0, r3
     686:	616f      	str	r7, [r5, #20]
     688:	61ae      	str	r6, [r5, #24]
     68a:	61e9      	str	r1, [r5, #28]
     68c:	622a      	str	r2, [r5, #32]
     68e:	b005      	add	sp, #20
     690:	bdf0      	pop	{r4, r5, r6, r7, pc}
     692:	2000      	movs	r0, #0
     694:	b005      	add	sp, #20
     696:	bdf0      	pop	{r4, r5, r6, r7, pc}
     698:	000039b8 	.word	0x000039b8

0000069c <mbed::posix_to_semihost_open_flags(int)>:
     69c:	0781      	lsls	r1, r0, #30
     69e:	d503      	bpl.n	6a8 <mbed::posix_to_semihost_open_flags(int)+0xc>
     6a0:	0702      	lsls	r2, r0, #28
     6a2:	d50e      	bpl.n	6c2 <mbed::posix_to_semihost_open_flags(int)+0x26>
     6a4:	200a      	movs	r0, #10
     6a6:	4770      	bx	lr
     6a8:	07c3      	lsls	r3, r0, #31
     6aa:	d505      	bpl.n	6b8 <mbed::posix_to_semihost_open_flags(int)+0x1c>
     6ac:	f010 0f08 	tst.w	r0, #8
     6b0:	bf0c      	ite	eq
     6b2:	2004      	moveq	r0, #4
     6b4:	2008      	movne	r0, #8
     6b6:	4770      	bx	lr
     6b8:	3000      	adds	r0, #0
     6ba:	bf18      	it	ne
     6bc:	2001      	movne	r0, #1
     6be:	4240      	negs	r0, r0
     6c0:	4770      	bx	lr
     6c2:	f410 6f80 	tst.w	r0, #1024	; 0x400
     6c6:	bf0c      	ite	eq
     6c8:	2002      	moveq	r0, #2
     6ca:	2006      	movne	r0, #6
     6cc:	4770      	bx	lr
     6ce:	bf00      	nop

000006d0 <mbed::LocalFileSystem::open(char const*, int)>:
     6d0:	b538      	push	{r3, r4, r5, lr}
     6d2:	780b      	ldrb	r3, [r1, #0]
     6d4:	460d      	mov	r5, r1
     6d6:	b14b      	cbz	r3, 6ec <mbed::LocalFileSystem::open(char const*, int)+0x1c>
     6d8:	2b2f      	cmp	r3, #47	; 0x2f
     6da:	d01c      	beq.n	716 <mbed::LocalFileSystem::open(char const*, int)+0x46>
     6dc:	460c      	mov	r4, r1
     6de:	e001      	b.n	6e4 <mbed::LocalFileSystem::open(char const*, int)+0x14>
     6e0:	2b2f      	cmp	r3, #47	; 0x2f
     6e2:	d018      	beq.n	716 <mbed::LocalFileSystem::open(char const*, int)+0x46>
     6e4:	f814 3f01 	ldrb.w	r3, [r4, #1]!
     6e8:	2b00      	cmp	r3, #0
     6ea:	d1f9      	bne.n	6e0 <mbed::LocalFileSystem::open(char const*, int)+0x10>
     6ec:	4610      	mov	r0, r2
     6ee:	f7ff ffd5 	bl	69c <mbed::posix_to_semihost_open_flags(int)>
     6f2:	1c42      	adds	r2, r0, #1
     6f4:	4601      	mov	r1, r0
     6f6:	d00e      	beq.n	716 <mbed::LocalFileSystem::open(char const*, int)+0x46>
     6f8:	4628      	mov	r0, r5
     6fa:	f7ff fe07 	bl	30c <semihost_open>
     6fe:	1c43      	adds	r3, r0, #1
     700:	4604      	mov	r4, r0
     702:	d008      	beq.n	716 <mbed::LocalFileSystem::open(char const*, int)+0x46>
     704:	200c      	movs	r0, #12
     706:	f001 f8df 	bl	18c8 <operator new(unsigned int)>
     70a:	4a04      	ldr	r2, [pc, #16]	; (71c <mbed::LocalFileSystem::open(char const*, int)+0x4c>)
     70c:	2300      	movs	r3, #0
     70e:	e880 0014 	stmia.w	r0, {r2, r4}
     712:	6083      	str	r3, [r0, #8]
     714:	bd38      	pop	{r3, r4, r5, pc}
     716:	2000      	movs	r0, #0
     718:	bd38      	pop	{r3, r4, r5, pc}
     71a:	bf00      	nop
     71c:	00003990 	.word	0x00003990

00000720 <mbed::FileHandle::flen()>:
     720:	6803      	ldr	r3, [r0, #0]
     722:	b570      	push	{r4, r5, r6, lr}
     724:	691b      	ldr	r3, [r3, #16]
     726:	2100      	movs	r1, #0
     728:	2201      	movs	r2, #1
     72a:	4604      	mov	r4, r0
     72c:	4798      	blx	r3
     72e:	1c43      	adds	r3, r0, #1
     730:	4605      	mov	r5, r0
     732:	d00e      	beq.n	752 <mbed::FileHandle::flen()+0x32>
     734:	6823      	ldr	r3, [r4, #0]
     736:	4620      	mov	r0, r4
     738:	691b      	ldr	r3, [r3, #16]
     73a:	2100      	movs	r1, #0
     73c:	2202      	movs	r2, #2
     73e:	4798      	blx	r3
     740:	6823      	ldr	r3, [r4, #0]
     742:	4606      	mov	r6, r0
     744:	4629      	mov	r1, r5
     746:	691b      	ldr	r3, [r3, #16]
     748:	4620      	mov	r0, r4
     74a:	2200      	movs	r2, #0
     74c:	4798      	blx	r3
     74e:	4630      	mov	r0, r6
     750:	bd70      	pop	{r4, r5, r6, pc}
     752:	bd70      	pop	{r4, r5, r6, pc}

00000754 <mbed::FileHandle::~FileHandle()>:
     754:	4a08      	ldr	r2, [pc, #32]	; (778 <mbed::FileHandle::~FileHandle()+0x24>)
     756:	4b09      	ldr	r3, [pc, #36]	; (77c <mbed::FileHandle::~FileHandle()+0x28>)
     758:	b410      	push	{r4}
     75a:	6002      	str	r2, [r0, #0]
     75c:	f503 7180 	add.w	r1, r3, #256	; 0x100
     760:	2400      	movs	r4, #0
     762:	f853 2b04 	ldr.w	r2, [r3], #4
     766:	4282      	cmp	r2, r0
     768:	bf08      	it	eq
     76a:	f843 4c04 	streq.w	r4, [r3, #-4]
     76e:	428b      	cmp	r3, r1
     770:	d1f7      	bne.n	762 <mbed::FileHandle::~FileHandle()+0xe>
     772:	f85d 4b04 	ldr.w	r4, [sp], #4
     776:	4770      	bx	lr
     778:	000039e0 	.word	0x000039e0
     77c:	10000174 	.word	0x10000174

00000780 <mbed::FileHandle::~FileHandle()>:
     780:	4a0a      	ldr	r2, [pc, #40]	; (7ac <mbed::FileHandle::~FileHandle()+0x2c>)
     782:	4b0b      	ldr	r3, [pc, #44]	; (7b0 <mbed::FileHandle::~FileHandle()+0x30>)
     784:	b510      	push	{r4, lr}
     786:	f503 7180 	add.w	r1, r3, #256	; 0x100
     78a:	4604      	mov	r4, r0
     78c:	6002      	str	r2, [r0, #0]
     78e:	2000      	movs	r0, #0
     790:	f853 2b04 	ldr.w	r2, [r3], #4
     794:	4294      	cmp	r4, r2
     796:	bf08      	it	eq
     798:	f843 0c04 	streq.w	r0, [r3, #-4]
     79c:	428b      	cmp	r3, r1
     79e:	d1f7      	bne.n	790 <mbed::FileHandle::~FileHandle()+0x10>
     7a0:	4620      	mov	r0, r4
     7a2:	f001 f88c 	bl	18be <operator delete(void*)>
     7a6:	4620      	mov	r0, r4
     7a8:	bd10      	pop	{r4, pc}
     7aa:	bf00      	nop
     7ac:	000039e0 	.word	0x000039e0
     7b0:	10000174 	.word	0x10000174

000007b4 <init_serial() [clone .part.0]>:
     7b4:	4802      	ldr	r0, [pc, #8]	; (7c0 <init_serial() [clone .part.0]+0xc>)
     7b6:	4903      	ldr	r1, [pc, #12]	; (7c4 <init_serial() [clone .part.0]+0x10>)
     7b8:	4a03      	ldr	r2, [pc, #12]	; (7c8 <init_serial() [clone .part.0]+0x14>)
     7ba:	f000 bc8f 	b.w	10dc <serial_init>
     7be:	bf00      	nop
     7c0:	10000378 	.word	0x10000378
     7c4:	2009c002 	.word	0x2009c002
     7c8:	2009c003 	.word	0x2009c003

000007cc <_open>:
     7cc:	b5f0      	push	{r4, r5, r6, r7, lr}
     7ce:	460f      	mov	r7, r1
     7d0:	b085      	sub	sp, #20
     7d2:	4937      	ldr	r1, [pc, #220]	; (8b0 <Heap_Size+0xb0>)
     7d4:	4606      	mov	r6, r0
     7d6:	f001 ff1c 	bl	2612 <strcmp>
     7da:	b928      	cbnz	r0, 7e8 <_open+0x1c>
     7dc:	4b35      	ldr	r3, [pc, #212]	; (8b4 <Heap_Size+0xb4>)
     7de:	681b      	ldr	r3, [r3, #0]
     7e0:	2b00      	cmp	r3, #0
     7e2:	d043      	beq.n	86c <Heap_Size+0x6c>
     7e4:	b005      	add	sp, #20
     7e6:	bdf0      	pop	{r4, r5, r6, r7, pc}
     7e8:	4630      	mov	r0, r6
     7ea:	4933      	ldr	r1, [pc, #204]	; (8b8 <Heap_Size+0xb8>)
     7ec:	f001 ff11 	bl	2612 <strcmp>
     7f0:	b930      	cbnz	r0, 800 <Heap_Size>
     7f2:	4b30      	ldr	r3, [pc, #192]	; (8b4 <Heap_Size+0xb4>)
     7f4:	681b      	ldr	r3, [r3, #0]
     7f6:	2b00      	cmp	r3, #0
     7f8:	d043      	beq.n	882 <Heap_Size+0x82>
     7fa:	2001      	movs	r0, #1
     7fc:	b005      	add	sp, #20
     7fe:	bdf0      	pop	{r4, r5, r6, r7, pc}
     800:	4630      	mov	r0, r6
     802:	492e      	ldr	r1, [pc, #184]	; (8bc <Heap_Size+0xbc>)
     804:	f001 ff05 	bl	2612 <strcmp>
     808:	2800      	cmp	r0, #0
     80a:	d035      	beq.n	878 <Heap_Size+0x78>
     80c:	4b2c      	ldr	r3, [pc, #176]	; (8c0 <Heap_Size+0xc0>)
     80e:	2400      	movs	r4, #0
     810:	e002      	b.n	818 <Heap_Size+0x18>
     812:	3401      	adds	r4, #1
     814:	2c40      	cmp	r4, #64	; 0x40
     816:	d03d      	beq.n	894 <Heap_Size+0x94>
     818:	f853 5f04 	ldr.w	r5, [r3, #4]!
     81c:	2d00      	cmp	r5, #0
     81e:	d1f8      	bne.n	812 <Heap_Size+0x12>
     820:	7833      	ldrb	r3, [r6, #0]
     822:	2b3a      	cmp	r3, #58	; 0x3a
     824:	d03d      	beq.n	8a2 <Heap_Size+0xa2>
     826:	4631      	mov	r1, r6
     828:	a802      	add	r0, sp, #8
     82a:	f000 feeb 	bl	1604 <mbed::FilePath::FilePath(char const*)>
     82e:	a802      	add	r0, sp, #8
     830:	f000 ff3a 	bl	16a8 <mbed::FilePath::exists()>
     834:	2800      	cmp	r0, #0
     836:	d02d      	beq.n	894 <Heap_Size+0x94>
     838:	a802      	add	r0, sp, #8
     83a:	f000 ff1d 	bl	1678 <mbed::FilePath::isFile()>
     83e:	bb20      	cbnz	r0, 88a <Heap_Size+0x8a>
     840:	a802      	add	r0, sp, #8
     842:	f000 ff0d 	bl	1660 <mbed::FilePath::fileSystem()>
     846:	4605      	mov	r5, r0
     848:	b320      	cbz	r0, 894 <Heap_Size+0x94>
     84a:	6803      	ldr	r3, [r0, #0]
     84c:	a802      	add	r0, sp, #8
     84e:	689e      	ldr	r6, [r3, #8]
     850:	f000 ff04 	bl	165c <mbed::FilePath::fileName()>
     854:	463a      	mov	r2, r7
     856:	4601      	mov	r1, r0
     858:	4628      	mov	r0, r5
     85a:	47b0      	blx	r6
     85c:	4603      	mov	r3, r0
     85e:	b1cb      	cbz	r3, 894 <Heap_Size+0x94>
     860:	4a18      	ldr	r2, [pc, #96]	; (8c4 <Heap_Size+0xc4>)
     862:	1ce0      	adds	r0, r4, #3
     864:	f842 3024 	str.w	r3, [r2, r4, lsl #2]
     868:	b005      	add	sp, #20
     86a:	bdf0      	pop	{r4, r5, r6, r7, pc}
     86c:	9001      	str	r0, [sp, #4]
     86e:	f7ff ffa1 	bl	7b4 <init_serial() [clone .part.0]>
     872:	9801      	ldr	r0, [sp, #4]
     874:	b005      	add	sp, #20
     876:	bdf0      	pop	{r4, r5, r6, r7, pc}
     878:	4b0e      	ldr	r3, [pc, #56]	; (8b4 <Heap_Size+0xb4>)
     87a:	681b      	ldr	r3, [r3, #0]
     87c:	b16b      	cbz	r3, 89a <Heap_Size+0x9a>
     87e:	2002      	movs	r0, #2
     880:	e7b0      	b.n	7e4 <_open+0x18>
     882:	f7ff ff97 	bl	7b4 <init_serial() [clone .part.0]>
     886:	2001      	movs	r0, #1
     888:	e7ac      	b.n	7e4 <_open+0x18>
     88a:	a802      	add	r0, sp, #8
     88c:	f000 fefe 	bl	168c <mbed::FilePath::file()>
     890:	4603      	mov	r3, r0
     892:	e7e4      	b.n	85e <Heap_Size+0x5e>
     894:	f04f 30ff 	mov.w	r0, #4294967295	; 0xffffffff
     898:	e7a4      	b.n	7e4 <_open+0x18>
     89a:	f7ff ff8b 	bl	7b4 <init_serial() [clone .part.0]>
     89e:	2002      	movs	r0, #2
     8a0:	e7a0      	b.n	7e4 <_open+0x18>
     8a2:	4630      	mov	r0, r6
     8a4:	4908      	ldr	r1, [pc, #32]	; (8c8 <Heap_Size+0xc8>)
     8a6:	aa02      	add	r2, sp, #8
     8a8:	f001 fe44 	bl	2534 <siscanf>
     8ac:	9b02      	ldr	r3, [sp, #8]
     8ae:	e7d6      	b.n	85e <Heap_Size+0x5e>
     8b0:	000039bc 	.word	0x000039bc
     8b4:	10000274 	.word	0x10000274
     8b8:	000039cc 	.word	0x000039cc
     8bc:	000039c4 	.word	0x000039c4
     8c0:	10000170 	.word	0x10000170
     8c4:	10000174 	.word	0x10000174
     8c8:	00003a08 	.word	0x00003a08

000008cc <_close>:
     8cc:	2802      	cmp	r0, #2
     8ce:	b508      	push	{r3, lr}
     8d0:	dd0b      	ble.n	8ea <_close+0x1e>
     8d2:	4b08      	ldr	r3, [pc, #32]	; (8f4 <_close+0x28>)
     8d4:	1ec2      	subs	r2, r0, #3
     8d6:	f853 0022 	ldr.w	r0, [r3, r2, lsl #2]
     8da:	2100      	movs	r1, #0
     8dc:	f843 1022 	str.w	r1, [r3, r2, lsl #2]
     8e0:	b128      	cbz	r0, 8ee <_close+0x22>
     8e2:	6803      	ldr	r3, [r0, #0]
     8e4:	685b      	ldr	r3, [r3, #4]
     8e6:	4798      	blx	r3
     8e8:	bd08      	pop	{r3, pc}
     8ea:	2000      	movs	r0, #0
     8ec:	bd08      	pop	{r3, pc}
     8ee:	f04f 30ff 	mov.w	r0, #4294967295	; 0xffffffff
     8f2:	bd08      	pop	{r3, pc}
     8f4:	10000174 	.word	0x10000174

000008f8 <_write>:
     8f8:	2802      	cmp	r0, #2
     8fa:	b570      	push	{r4, r5, r6, lr}
     8fc:	460c      	mov	r4, r1
     8fe:	4616      	mov	r6, r2
     900:	dc0f      	bgt.n	922 <_write+0x2a>
     902:	4b0e      	ldr	r3, [pc, #56]	; (93c <_write+0x44>)
     904:	681b      	ldr	r3, [r3, #0]
     906:	b90b      	cbnz	r3, 90c <_write+0x14>
     908:	f7ff ff54 	bl	7b4 <init_serial() [clone .part.0]>
     90c:	19a5      	adds	r5, r4, r6
     90e:	b136      	cbz	r6, 91e <_write+0x26>
     910:	f814 1b01 	ldrb.w	r1, [r4], #1
     914:	480a      	ldr	r0, [pc, #40]	; (940 <_write+0x48>)
     916:	f000 fb31 	bl	f7c <serial_putc>
     91a:	42ac      	cmp	r4, r5
     91c:	d1f8      	bne.n	910 <_write+0x18>
     91e:	4630      	mov	r0, r6
     920:	bd70      	pop	{r4, r5, r6, pc}
     922:	4b08      	ldr	r3, [pc, #32]	; (944 <_write+0x4c>)
     924:	3803      	subs	r0, #3
     926:	f853 0020 	ldr.w	r0, [r3, r0, lsl #2]
     92a:	b118      	cbz	r0, 934 <_write+0x3c>
     92c:	6803      	ldr	r3, [r0, #0]
     92e:	681b      	ldr	r3, [r3, #0]
     930:	4798      	blx	r3
     932:	bd70      	pop	{r4, r5, r6, pc}
     934:	f04f 30ff 	mov.w	r0, #4294967295	; 0xffffffff
     938:	bd70      	pop	{r4, r5, r6, pc}
     93a:	bf00      	nop
     93c:	10000274 	.word	0x10000274
     940:	10000378 	.word	0x10000378
     944:	10000174 	.word	0x10000174

00000948 <_read>:
     948:	2802      	cmp	r0, #2
     94a:	b510      	push	{r4, lr}
     94c:	460c      	mov	r4, r1
     94e:	dc09      	bgt.n	964 <_read+0x1c>
     950:	4b0d      	ldr	r3, [pc, #52]	; (988 <_read+0x40>)
     952:	681b      	ldr	r3, [r3, #0]
     954:	b18b      	cbz	r3, 97a <_read+0x32>
     956:	480d      	ldr	r0, [pc, #52]	; (98c <_read+0x44>)
     958:	f000 fac4 	bl	ee4 <serial_getc>
     95c:	2301      	movs	r3, #1
     95e:	7020      	strb	r0, [r4, #0]
     960:	4618      	mov	r0, r3
     962:	bd10      	pop	{r4, pc}
     964:	4b0a      	ldr	r3, [pc, #40]	; (990 <_read+0x48>)
     966:	3803      	subs	r0, #3
     968:	f853 0020 	ldr.w	r0, [r3, r0, lsl #2]
     96c:	b140      	cbz	r0, 980 <_read+0x38>
     96e:	6803      	ldr	r3, [r0, #0]
     970:	689b      	ldr	r3, [r3, #8]
     972:	4798      	blx	r3
     974:	4603      	mov	r3, r0
     976:	4618      	mov	r0, r3
     978:	bd10      	pop	{r4, pc}
     97a:	f7ff ff1b 	bl	7b4 <init_serial() [clone .part.0]>
     97e:	e7ea      	b.n	956 <_read+0xe>
     980:	f04f 33ff 	mov.w	r3, #4294967295	; 0xffffffff
     984:	e7ec      	b.n	960 <_read+0x18>
     986:	bf00      	nop
     988:	10000274 	.word	0x10000274
     98c:	10000378 	.word	0x10000378
     990:	10000174 	.word	0x10000174

00000994 <_isatty>:
     994:	2802      	cmp	r0, #2
     996:	b508      	push	{r3, lr}
     998:	dd08      	ble.n	9ac <_isatty+0x18>
     99a:	4b07      	ldr	r3, [pc, #28]	; (9b8 <_isatty+0x24>)
     99c:	3803      	subs	r0, #3
     99e:	f853 0020 	ldr.w	r0, [r3, r0, lsl #2]
     9a2:	b128      	cbz	r0, 9b0 <_isatty+0x1c>
     9a4:	6803      	ldr	r3, [r0, #0]
     9a6:	68db      	ldr	r3, [r3, #12]
     9a8:	4798      	blx	r3
     9aa:	bd08      	pop	{r3, pc}
     9ac:	2001      	movs	r0, #1
     9ae:	bd08      	pop	{r3, pc}
     9b0:	f04f 30ff 	mov.w	r0, #4294967295	; 0xffffffff
     9b4:	bd08      	pop	{r3, pc}
     9b6:	bf00      	nop
     9b8:	10000174 	.word	0x10000174

000009bc <_lseek>:
     9bc:	2802      	cmp	r0, #2
     9be:	b508      	push	{r3, lr}
     9c0:	dd08      	ble.n	9d4 <_lseek+0x18>
     9c2:	4b07      	ldr	r3, [pc, #28]	; (9e0 <_lseek+0x24>)
     9c4:	3803      	subs	r0, #3
     9c6:	f853 0020 	ldr.w	r0, [r3, r0, lsl #2]
     9ca:	b128      	cbz	r0, 9d8 <_lseek+0x1c>
     9cc:	6803      	ldr	r3, [r0, #0]
     9ce:	691b      	ldr	r3, [r3, #16]
     9d0:	4798      	blx	r3
     9d2:	bd08      	pop	{r3, pc}
     9d4:	2000      	movs	r0, #0
     9d6:	bd08      	pop	{r3, pc}
     9d8:	f04f 30ff 	mov.w	r0, #4294967295	; 0xffffffff
     9dc:	bd08      	pop	{r3, pc}
     9de:	bf00      	nop
     9e0:	10000174 	.word	0x10000174

000009e4 <_fstat>:
     9e4:	2802      	cmp	r0, #2
     9e6:	b508      	push	{r3, lr}
     9e8:	d804      	bhi.n	9f4 <_fstat+0x10>
     9ea:	f44f 5300 	mov.w	r3, #8192	; 0x2000
     9ee:	604b      	str	r3, [r1, #4]
     9f0:	2000      	movs	r0, #0
     9f2:	bd08      	pop	{r3, pc}
     9f4:	f000 ff8c 	bl	1910 <__errno>
     9f8:	2309      	movs	r3, #9
     9fa:	6003      	str	r3, [r0, #0]
     9fc:	f04f 30ff 	mov.w	r0, #4294967295	; 0xffffffff
     a00:	bd08      	pop	{r3, pc}
     a02:	bf00      	nop

00000a04 <remove>:
     a04:	b530      	push	{r4, r5, lr}
     a06:	b083      	sub	sp, #12
     a08:	4601      	mov	r1, r0
     a0a:	4668      	mov	r0, sp
     a0c:	f000 fdfa 	bl	1604 <mbed::FilePath::FilePath(char const*)>
     a10:	4668      	mov	r0, sp
     a12:	f000 fe25 	bl	1660 <mbed::FilePath::fileSystem()>
     a16:	4604      	mov	r4, r0
     a18:	b148      	cbz	r0, a2e <remove+0x2a>
     a1a:	6803      	ldr	r3, [r0, #0]
     a1c:	4668      	mov	r0, sp
     a1e:	68dd      	ldr	r5, [r3, #12]
     a20:	f000 fe1c 	bl	165c <mbed::FilePath::fileName()>
     a24:	4601      	mov	r1, r0
     a26:	4620      	mov	r0, r4
     a28:	47a8      	blx	r5
     a2a:	b003      	add	sp, #12
     a2c:	bd30      	pop	{r4, r5, pc}
     a2e:	f04f 30ff 	mov.w	r0, #4294967295	; 0xffffffff
     a32:	e7fa      	b.n	a2a <remove+0x26>

00000a34 <_sbrk>:
     a34:	4a07      	ldr	r2, [pc, #28]	; (a54 <_sbrk+0x20>)
     a36:	6813      	ldr	r3, [r2, #0]
     a38:	4418      	add	r0, r3
     a3a:	f3ef 8108 	mrs	r1, MSP
     a3e:	4288      	cmp	r0, r1
     a40:	d202      	bcs.n	a48 <_sbrk+0x14>
     a42:	6010      	str	r0, [r2, #0]
     a44:	4618      	mov	r0, r3
     a46:	4770      	bx	lr
     a48:	4b03      	ldr	r3, [pc, #12]	; (a58 <_sbrk+0x24>)
     a4a:	220c      	movs	r2, #12
     a4c:	601a      	str	r2, [r3, #0]
     a4e:	f04f 30ff 	mov.w	r0, #4294967295	; 0xffffffff
     a52:	4770      	bx	lr
     a54:	100000cc 	.word	0x100000cc
     a58:	10000380 	.word	0x10000380

00000a5c <Reset_Handler>:
     a5c:	4906      	ldr	r1, [pc, #24]	; (a78 <Reset_Handler+0x1c>)
     a5e:	4a07      	ldr	r2, [pc, #28]	; (a7c <Reset_Handler+0x20>)
     a60:	4b07      	ldr	r3, [pc, #28]	; (a80 <Reset_Handler+0x24>)
     a62:	429a      	cmp	r2, r3
     a64:	bfbe      	ittt	lt
     a66:	f851 0b04 	ldrlt.w	r0, [r1], #4
     a6a:	f842 0b04 	strlt.w	r0, [r2], #4
     a6e:	e7f8      	blt.n	a62 <Reset_Handler+0x6>
     a70:	4804      	ldr	r0, [pc, #16]	; (a84 <Reset_Handler+0x28>)
     a72:	4780      	blx	r0
     a74:	4804      	ldr	r0, [pc, #16]	; (a88 <Reset_Handler+0x2c>)
     a76:	4700      	bx	r0
     a78:	00003d58 	.word	0x00003d58
     a7c:	100000c8 	.word	0x100000c8
     a80:	10000148 	.word	0x10000148
     a84:	000012ad 	.word	0x000012ad
     a88:	00000259 	.word	0x00000259

00000a8c <NMI_Handler>:
     a8c:	e7fe      	b.n	a8c <NMI_Handler>

00000a8e <HardFault_Handler>:
     a8e:	e7fe      	b.n	a8e <HardFault_Handler>

00000a90 <MemManage_Handler>:
     a90:	e7fe      	b.n	a90 <MemManage_Handler>

00000a92 <BusFault_Handler>:
     a92:	e7fe      	b.n	a92 <BusFault_Handler>

00000a94 <UsageFault_Handler>:
     a94:	e7fe      	b.n	a94 <UsageFault_Handler>

00000a96 <SVC_Handler>:
     a96:	e7fe      	b.n	a96 <SVC_Handler>

00000a98 <DebugMon_Handler>:
     a98:	e7fe      	b.n	a98 <DebugMon_Handler>

00000a9a <PendSV_Handler>:
     a9a:	e7fe      	b.n	a9a <PendSV_Handler>

00000a9c <SysTick_Handler>:
     a9c:	e7fe      	b.n	a9c <SysTick_Handler>

00000a9e <ADC_IRQHandler>:
     a9e:	e7fe      	b.n	a9e <ADC_IRQHandler>

00000aa0 <uart2_irq>:
     aa0:	b508      	push	{r3, lr}
     aa2:	4a15      	ldr	r2, [pc, #84]	; (af8 <uart2_irq+0x58>)
     aa4:	6893      	ldr	r3, [r2, #8]
     aa6:	f3c3 0342 	ubfx	r3, r3, #1, #3
     aaa:	2b01      	cmp	r3, #1
     aac:	d01e      	beq.n	aec <uart2_irq+0x4c>
     aae:	2b02      	cmp	r3, #2
     ab0:	d119      	bne.n	ae6 <uart2_irq+0x46>
     ab2:	4b12      	ldr	r3, [pc, #72]	; (afc <uart2_irq+0x5c>)
     ab4:	6f59      	ldr	r1, [r3, #116]	; 0x74
     ab6:	3101      	adds	r1, #1
     ab8:	d00a      	beq.n	ad0 <uart2_irq+0x30>
     aba:	f8d3 1080 	ldr.w	r1, [r3, #128]	; 0x80
     abe:	6f98      	ldr	r0, [r3, #120]	; 0x78
     ac0:	6008      	str	r0, [r1, #0]
     ac2:	f893 10a6 	ldrb.w	r1, [r3, #166]	; 0xa6
     ac6:	b919      	cbnz	r1, ad0 <uart2_irq+0x30>
     ac8:	6851      	ldr	r1, [r2, #4]
     aca:	f021 0101 	bic.w	r1, r1, #1
     ace:	6051      	str	r1, [r2, #4]
     ad0:	6f18      	ldr	r0, [r3, #112]	; 0x70
     ad2:	4b0a      	ldr	r3, [pc, #40]	; (afc <uart2_irq+0x5c>)
     ad4:	b148      	cbz	r0, aea <uart2_irq+0x4a>
     ad6:	f893 30a6 	ldrb.w	r3, [r3, #166]	; 0xa6
     ada:	b12b      	cbz	r3, ae8 <uart2_irq+0x48>
     adc:	2100      	movs	r1, #0
     ade:	4a08      	ldr	r2, [pc, #32]	; (b00 <uart2_irq+0x60>)
     ae0:	6813      	ldr	r3, [r2, #0]
     ae2:	4798      	blx	r3
     ae4:	bd08      	pop	{r3, pc}
     ae6:	bd08      	pop	{r3, pc}
     ae8:	bd08      	pop	{r3, pc}
     aea:	bd08      	pop	{r3, pc}
     aec:	4a03      	ldr	r2, [pc, #12]	; (afc <uart2_irq+0x5c>)
     aee:	6f10      	ldr	r0, [r2, #112]	; 0x70
     af0:	2800      	cmp	r0, #0
     af2:	d0f9      	beq.n	ae8 <uart2_irq+0x48>
     af4:	4619      	mov	r1, r3
     af6:	e7f2      	b.n	ade <uart2_irq+0x3e>
     af8:	40098000 	.word	0x40098000
     afc:	1000027c 	.word	0x1000027c
     b00:	10000278 	.word	0x10000278

00000b04 <serial_irq_set_internal>:
     b04:	b570      	push	{r4, r5, r6, lr}
     b06:	6803      	ldr	r3, [r0, #0]
     b08:	4c29      	ldr	r4, [pc, #164]	; (bb0 <serial_irq_set_internal+0xac>)
     b0a:	42a3      	cmp	r3, r4
     b0c:	d049      	beq.n	ba2 <serial_irq_set_internal+0x9e>
     b0e:	dd41      	ble.n	b94 <serial_irq_set_internal+0x90>
     b10:	4c28      	ldr	r4, [pc, #160]	; (bb4 <serial_irq_set_internal+0xb0>)
     b12:	42a3      	cmp	r3, r4
     b14:	d02a      	beq.n	b6c <serial_irq_set_internal+0x68>
     b16:	f504 4480 	add.w	r4, r4, #16384	; 0x4000
     b1a:	42a3      	cmp	r3, r4
     b1c:	d144      	bne.n	ba8 <serial_irq_set_internal+0xa4>
     b1e:	4c26      	ldr	r4, [pc, #152]	; (bb8 <serial_irq_set_internal+0xb4>)
     b20:	2608      	movs	r6, #8
     b22:	bb3a      	cbnz	r2, b74 <serial_irq_set_internal+0x70>
     b24:	2901      	cmp	r1, #1
     b26:	d00b      	beq.n	b40 <serial_irq_set_internal+0x3c>
     b28:	6845      	ldr	r5, [r0, #4]
     b2a:	4a24      	ldr	r2, [pc, #144]	; (bbc <serial_irq_set_internal+0xb8>)
     b2c:	ebc5 05c5 	rsb	r5, r5, r5, lsl #3
     b30:	eb02 04c5 	add.w	r4, r2, r5, lsl #3
     b34:	f894 5035 	ldrb.w	r5, [r4, #53]	; 0x35
     b38:	f894 2036 	ldrb.w	r2, [r4, #54]	; 0x36
     b3c:	42ea      	cmn	r2, r5
     b3e:	d114      	bne.n	b6a <serial_irq_set_internal+0x66>
     b40:	2201      	movs	r2, #1
     b42:	fa02 f501 	lsl.w	r5, r2, r1
     b46:	f1d1 0101 	rsbs	r1, r1, #1
     b4a:	bf38      	it	cc
     b4c:	2100      	movcc	r1, #0
     b4e:	fa02 f101 	lsl.w	r1, r2, r1
     b52:	685c      	ldr	r4, [r3, #4]
     b54:	ea24 0405 	bic.w	r4, r4, r5
     b58:	605c      	str	r4, [r3, #4]
     b5a:	6803      	ldr	r3, [r0, #0]
     b5c:	685b      	ldr	r3, [r3, #4]
     b5e:	4219      	tst	r1, r3
     b60:	d103      	bne.n	b6a <serial_irq_set_internal+0x66>
     b62:	40b2      	lsls	r2, r6
     b64:	4b16      	ldr	r3, [pc, #88]	; (bc0 <serial_irq_set_internal+0xbc>)
     b66:	f8c3 2080 	str.w	r2, [r3, #128]	; 0x80
     b6a:	bd70      	pop	{r4, r5, r6, pc}
     b6c:	4c15      	ldr	r4, [pc, #84]	; (bc4 <serial_irq_set_internal+0xc0>)
     b6e:	2607      	movs	r6, #7
     b70:	2a00      	cmp	r2, #0
     b72:	d0d7      	beq.n	b24 <serial_irq_set_internal+0x20>
     b74:	2501      	movs	r5, #1
     b76:	fa05 f101 	lsl.w	r1, r5, r1
     b7a:	b276      	sxtb	r6, r6
     b7c:	4630      	mov	r0, r6
     b7e:	fa05 f606 	lsl.w	r6, r5, r6
     b82:	685a      	ldr	r2, [r3, #4]
     b84:	430a      	orrs	r2, r1
     b86:	605a      	str	r2, [r3, #4]
     b88:	4621      	mov	r1, r4
     b8a:	f000 fb71 	bl	1270 <NVIC_SetVector>
     b8e:	4b0c      	ldr	r3, [pc, #48]	; (bc0 <serial_irq_set_internal+0xbc>)
     b90:	601e      	str	r6, [r3, #0]
     b92:	bd70      	pop	{r4, r5, r6, pc}
     b94:	f5a4 4480 	sub.w	r4, r4, #16384	; 0x4000
     b98:	42a3      	cmp	r3, r4
     b9a:	d105      	bne.n	ba8 <serial_irq_set_internal+0xa4>
     b9c:	4c0a      	ldr	r4, [pc, #40]	; (bc8 <serial_irq_set_internal+0xc4>)
     b9e:	2605      	movs	r6, #5
     ba0:	e7bf      	b.n	b22 <serial_irq_set_internal+0x1e>
     ba2:	4c0a      	ldr	r4, [pc, #40]	; (bcc <serial_irq_set_internal+0xc8>)
     ba4:	2606      	movs	r6, #6
     ba6:	e7bc      	b.n	b22 <serial_irq_set_internal+0x1e>
     ba8:	2400      	movs	r4, #0
     baa:	4626      	mov	r6, r4
     bac:	e7b9      	b.n	b22 <serial_irq_set_internal+0x1e>
     bae:	bf00      	nop
     bb0:	40010000 	.word	0x40010000
     bb4:	40098000 	.word	0x40098000
     bb8:	00000bd1 	.word	0x00000bd1
     bbc:	1000027c 	.word	0x1000027c
     bc0:	e000e100 	.word	0xe000e100
     bc4:	00000aa1 	.word	0x00000aa1
     bc8:	00000c3d 	.word	0x00000c3d
     bcc:	00000ca1 	.word	0x00000ca1

00000bd0 <uart3_irq>:
     bd0:	b508      	push	{r3, lr}
     bd2:	4a17      	ldr	r2, [pc, #92]	; (c30 <Stack_Size+0x30>)
     bd4:	6893      	ldr	r3, [r2, #8]
     bd6:	f3c3 0342 	ubfx	r3, r3, #1, #3
     bda:	2b01      	cmp	r3, #1
     bdc:	d021      	beq.n	c22 <Stack_Size+0x22>
     bde:	2b02      	cmp	r3, #2
     be0:	d11c      	bne.n	c1c <Stack_Size+0x1c>
     be2:	4b14      	ldr	r3, [pc, #80]	; (c34 <Stack_Size+0x34>)
     be4:	f8d3 10ac 	ldr.w	r1, [r3, #172]	; 0xac
     be8:	3101      	adds	r1, #1
     bea:	d00b      	beq.n	c04 <Stack_Size+0x4>
     bec:	f8d3 10b8 	ldr.w	r1, [r3, #184]	; 0xb8
     bf0:	f8d3 00b0 	ldr.w	r0, [r3, #176]	; 0xb0
     bf4:	6008      	str	r0, [r1, #0]
     bf6:	f893 10de 	ldrb.w	r1, [r3, #222]	; 0xde
     bfa:	b919      	cbnz	r1, c04 <Stack_Size+0x4>
     bfc:	6851      	ldr	r1, [r2, #4]
     bfe:	f021 0101 	bic.w	r1, r1, #1
     c02:	6051      	str	r1, [r2, #4]
     c04:	f8d3 00a8 	ldr.w	r0, [r3, #168]	; 0xa8
     c08:	4b0a      	ldr	r3, [pc, #40]	; (c34 <Stack_Size+0x34>)
     c0a:	b148      	cbz	r0, c20 <Stack_Size+0x20>
     c0c:	f893 30de 	ldrb.w	r3, [r3, #222]	; 0xde
     c10:	b12b      	cbz	r3, c1e <Stack_Size+0x1e>
     c12:	2100      	movs	r1, #0
     c14:	4a08      	ldr	r2, [pc, #32]	; (c38 <Stack_Size+0x38>)
     c16:	6813      	ldr	r3, [r2, #0]
     c18:	4798      	blx	r3
     c1a:	bd08      	pop	{r3, pc}
     c1c:	bd08      	pop	{r3, pc}
     c1e:	bd08      	pop	{r3, pc}
     c20:	bd08      	pop	{r3, pc}
     c22:	4a04      	ldr	r2, [pc, #16]	; (c34 <Stack_Size+0x34>)
     c24:	f8d2 00a8 	ldr.w	r0, [r2, #168]	; 0xa8
     c28:	2800      	cmp	r0, #0
     c2a:	d0f8      	beq.n	c1e <Stack_Size+0x1e>
     c2c:	4619      	mov	r1, r3
     c2e:	e7f1      	b.n	c14 <Stack_Size+0x14>
     c30:	4009c000 	.word	0x4009c000
     c34:	1000027c 	.word	0x1000027c
     c38:	10000278 	.word	0x10000278

00000c3c <uart0_irq>:
     c3c:	b508      	push	{r3, lr}
     c3e:	4a15      	ldr	r2, [pc, #84]	; (c94 <uart0_irq+0x58>)
     c40:	6893      	ldr	r3, [r2, #8]
     c42:	f3c3 0342 	ubfx	r3, r3, #1, #3
     c46:	2b01      	cmp	r3, #1
     c48:	d01d      	beq.n	c86 <uart0_irq+0x4a>
     c4a:	2b02      	cmp	r3, #2
     c4c:	d118      	bne.n	c80 <uart0_irq+0x44>
     c4e:	4b12      	ldr	r3, [pc, #72]	; (c98 <uart0_irq+0x5c>)
     c50:	6859      	ldr	r1, [r3, #4]
     c52:	3101      	adds	r1, #1
     c54:	d009      	beq.n	c6a <uart0_irq+0x2e>
     c56:	6919      	ldr	r1, [r3, #16]
     c58:	6898      	ldr	r0, [r3, #8]
     c5a:	6008      	str	r0, [r1, #0]
     c5c:	f893 1036 	ldrb.w	r1, [r3, #54]	; 0x36
     c60:	b919      	cbnz	r1, c6a <uart0_irq+0x2e>
     c62:	6851      	ldr	r1, [r2, #4]
     c64:	f021 0101 	bic.w	r1, r1, #1
     c68:	6051      	str	r1, [r2, #4]
     c6a:	6818      	ldr	r0, [r3, #0]
     c6c:	4b0a      	ldr	r3, [pc, #40]	; (c98 <uart0_irq+0x5c>)
     c6e:	b148      	cbz	r0, c84 <uart0_irq+0x48>
     c70:	f893 3036 	ldrb.w	r3, [r3, #54]	; 0x36
     c74:	b12b      	cbz	r3, c82 <uart0_irq+0x46>
     c76:	2100      	movs	r1, #0
     c78:	4a08      	ldr	r2, [pc, #32]	; (c9c <uart0_irq+0x60>)
     c7a:	6813      	ldr	r3, [r2, #0]
     c7c:	4798      	blx	r3
     c7e:	bd08      	pop	{r3, pc}
     c80:	bd08      	pop	{r3, pc}
     c82:	bd08      	pop	{r3, pc}
     c84:	bd08      	pop	{r3, pc}
     c86:	4a04      	ldr	r2, [pc, #16]	; (c98 <uart0_irq+0x5c>)
     c88:	6810      	ldr	r0, [r2, #0]
     c8a:	2800      	cmp	r0, #0
     c8c:	d0f9      	beq.n	c82 <uart0_irq+0x46>
     c8e:	4619      	mov	r1, r3
     c90:	e7f2      	b.n	c78 <uart0_irq+0x3c>
     c92:	bf00      	nop
     c94:	4000c000 	.word	0x4000c000
     c98:	1000027c 	.word	0x1000027c
     c9c:	10000278 	.word	0x10000278

00000ca0 <uart1_irq>:
     ca0:	b508      	push	{r3, lr}
     ca2:	4a15      	ldr	r2, [pc, #84]	; (cf8 <uart1_irq+0x58>)
     ca4:	6893      	ldr	r3, [r2, #8]
     ca6:	f3c3 0342 	ubfx	r3, r3, #1, #3
     caa:	2b01      	cmp	r3, #1
     cac:	d01d      	beq.n	cea <uart1_irq+0x4a>
     cae:	2b02      	cmp	r3, #2
     cb0:	d118      	bne.n	ce4 <uart1_irq+0x44>
     cb2:	4b12      	ldr	r3, [pc, #72]	; (cfc <uart1_irq+0x5c>)
     cb4:	6bd9      	ldr	r1, [r3, #60]	; 0x3c
     cb6:	3101      	adds	r1, #1
     cb8:	d009      	beq.n	cce <uart1_irq+0x2e>
     cba:	6c99      	ldr	r1, [r3, #72]	; 0x48
     cbc:	6c18      	ldr	r0, [r3, #64]	; 0x40
     cbe:	6008      	str	r0, [r1, #0]
     cc0:	f893 106e 	ldrb.w	r1, [r3, #110]	; 0x6e
     cc4:	b919      	cbnz	r1, cce <uart1_irq+0x2e>
     cc6:	6851      	ldr	r1, [r2, #4]
     cc8:	f021 0101 	bic.w	r1, r1, #1
     ccc:	6051      	str	r1, [r2, #4]
     cce:	6b98      	ldr	r0, [r3, #56]	; 0x38
     cd0:	4b0a      	ldr	r3, [pc, #40]	; (cfc <uart1_irq+0x5c>)
     cd2:	b148      	cbz	r0, ce8 <uart1_irq+0x48>
     cd4:	f893 306e 	ldrb.w	r3, [r3, #110]	; 0x6e
     cd8:	b12b      	cbz	r3, ce6 <uart1_irq+0x46>
     cda:	2100      	movs	r1, #0
     cdc:	4a08      	ldr	r2, [pc, #32]	; (d00 <uart1_irq+0x60>)
     cde:	6813      	ldr	r3, [r2, #0]
     ce0:	4798      	blx	r3
     ce2:	bd08      	pop	{r3, pc}
     ce4:	bd08      	pop	{r3, pc}
     ce6:	bd08      	pop	{r3, pc}
     ce8:	bd08      	pop	{r3, pc}
     cea:	4a04      	ldr	r2, [pc, #16]	; (cfc <uart1_irq+0x5c>)
     cec:	6b90      	ldr	r0, [r2, #56]	; 0x38
     cee:	2800      	cmp	r0, #0
     cf0:	d0f9      	beq.n	ce6 <uart1_irq+0x46>
     cf2:	4619      	mov	r1, r3
     cf4:	e7f2      	b.n	cdc <uart1_irq+0x3c>
     cf6:	bf00      	nop
     cf8:	40010000 	.word	0x40010000
     cfc:	1000027c 	.word	0x1000027c
     d00:	10000278 	.word	0x10000278

00000d04 <serial_baud>:
     d04:	e92d 0ff0 	stmdb	sp!, {r4, r5, r6, r7, r8, r9, r10, r11}
     d08:	b08a      	sub	sp, #40	; 0x28
     d0a:	9008      	str	r0, [sp, #32]
     d0c:	4b71      	ldr	r3, [pc, #452]	; (ed4 <serial_baud+0x1d0>)
     d0e:	6800      	ldr	r0, [r0, #0]
     d10:	4298      	cmp	r0, r3
     d12:	9009      	str	r0, [sp, #36]	; 0x24
     d14:	f000 80cf 	beq.w	eb6 <serial_baud+0x1b2>
     d18:	f340 80ba 	ble.w	e90 <serial_baud+0x18c>
     d1c:	4b6e      	ldr	r3, [pc, #440]	; (ed8 <serial_baud+0x1d4>)
     d1e:	9a09      	ldr	r2, [sp, #36]	; 0x24
     d20:	429a      	cmp	r2, r3
     d22:	f000 8090 	beq.w	e46 <serial_baud+0x142>
     d26:	f503 4380 	add.w	r3, r3, #16384	; 0x4000
     d2a:	429a      	cmp	r2, r3
     d2c:	d10c      	bne.n	d48 <serial_baud+0x44>
     d2e:	4b6b      	ldr	r3, [pc, #428]	; (edc <serial_baud+0x1d8>)
     d30:	f8d3 21ac 	ldr.w	r2, [r3, #428]	; 0x1ac
     d34:	f422 2240 	bic.w	r2, r2, #786432	; 0xc0000
     d38:	f8c3 21ac 	str.w	r2, [r3, #428]	; 0x1ac
     d3c:	f8d3 21ac 	ldr.w	r2, [r3, #428]	; 0x1ac
     d40:	f442 2280 	orr.w	r2, r2, #262144	; 0x40000
     d44:	f8c3 21ac 	str.w	r2, [r3, #428]	; 0x1ac
     d48:	4b65      	ldr	r3, [pc, #404]	; (ee0 <serial_baud+0x1dc>)
     d4a:	010a      	lsls	r2, r1, #4
     d4c:	681b      	ldr	r3, [r3, #0]
     d4e:	9305      	str	r3, [sp, #20]
     d50:	9c05      	ldr	r4, [sp, #20]
     d52:	fbb3 f3f2 	udiv	r3, r3, r2
     d56:	fb02 4213 	mls	r2, r2, r3, r4
     d5a:	b29b      	uxth	r3, r3
     d5c:	9301      	str	r3, [sp, #4]
     d5e:	2a00      	cmp	r2, #0
     d60:	f000 8094 	beq.w	e8c <serial_baud+0x188>
     d64:	0060      	lsls	r0, r4, #1
     d66:	00a2      	lsls	r2, r4, #2
     d68:	f04f 0901 	mov.w	r9, #1
     d6c:	2300      	movs	r3, #0
     d6e:	9007      	str	r0, [sp, #28]
     d70:	9206      	str	r2, [sp, #24]
     d72:	4680      	mov	r8, r0
     d74:	4693      	mov	r11, r2
     d76:	f8cd 900c 	str.w	r9, [sp, #12]
     d7a:	9104      	str	r1, [sp, #16]
     d7c:	46a2      	mov	r10, r4
     d7e:	468c      	mov	r12, r1
     d80:	9302      	str	r3, [sp, #8]
     d82:	2200      	movs	r2, #0
     d84:	9c04      	ldr	r4, [sp, #16]
     d86:	4610      	mov	r0, r2
     d88:	fa5f f789 	uxtb.w	r7, r9
     d8c:	f1b8 0f00 	cmp.w	r8, #0
     d90:	bfb5      	itete	lt
     d92:	fbb8 f3f4 	udivlt	r3, r8, r4
     d96:	fbbb f3f4 	udivge	r3, r11, r4
     d9a:	091b      	lsrlt	r3, r3, #4
     d9c:	095b      	lsrge	r3, r3, #5
     d9e:	3301      	adds	r3, #1
     da0:	f3c3 034f 	ubfx	r3, r3, #1, #16
     da4:	eb02 0609 	add.w	r6, r2, r9
     da8:	2b00      	cmp	r3, #0
     daa:	d15a      	bne.n	e62 <serial_baud+0x15e>
     dac:	2301      	movs	r3, #1
     dae:	2800      	cmp	r0, #0
     db0:	d15b      	bne.n	e6a <serial_baud+0x166>
     db2:	fb03 f506 	mul.w	r5, r3, r6
     db6:	00ed      	lsls	r5, r5, #3
     db8:	fbba f5f5 	udiv	r5, r10, r5
     dbc:	3501      	adds	r5, #1
     dbe:	ebc1 0555 	rsb	r5, r1, r5, lsr #1
     dc2:	2d00      	cmp	r5, #0
     dc4:	bfb8      	it	lt
     dc6:	426d      	neglt	r5, r5
     dc8:	4565      	cmp	r5, r12
     dca:	da05      	bge.n	dd8 <serial_baud+0xd4>
     dcc:	428d      	cmp	r5, r1
     dce:	d04e      	beq.n	e6e <serial_baud+0x16a>
     dd0:	46ac      	mov	r12, r5
     dd2:	9002      	str	r0, [sp, #8]
     dd4:	9301      	str	r3, [sp, #4]
     dd6:	9703      	str	r7, [sp, #12]
     dd8:	3201      	adds	r2, #1
     dda:	b2d0      	uxtb	r0, r2
     ddc:	4287      	cmp	r7, r0
     dde:	440c      	add	r4, r1
     de0:	d8d4      	bhi.n	d8c <serial_baud+0x88>
     de2:	f1b9 0f0f 	cmp.w	r9, #15
     de6:	f04f 0300 	mov.w	r3, #0
     dea:	d049      	beq.n	e80 <serial_baud+0x17c>
     dec:	9a05      	ldr	r2, [sp, #20]
     dee:	9c07      	ldr	r4, [sp, #28]
     df0:	4492      	add	r10, r2
     df2:	9a04      	ldr	r2, [sp, #16]
     df4:	9806      	ldr	r0, [sp, #24]
     df6:	440a      	add	r2, r1
     df8:	f109 0901 	add.w	r9, r9, #1
     dfc:	44a0      	add	r8, r4
     dfe:	4483      	add	r11, r0
     e00:	9204      	str	r2, [sp, #16]
     e02:	2b00      	cmp	r3, #0
     e04:	d0bd      	beq.n	d82 <serial_baud+0x7e>
     e06:	9b02      	ldr	r3, [sp, #8]
     e08:	9c03      	ldr	r4, [sp, #12]
     e0a:	ea43 1004 	orr.w	r0, r3, r4, lsl #4
     e0e:	b2c0      	uxtb	r0, r0
     e10:	9a09      	ldr	r2, [sp, #36]	; 0x24
     e12:	9c01      	ldr	r4, [sp, #4]
     e14:	7b13      	ldrb	r3, [r2, #12]
     e16:	f3c4 2107 	ubfx	r1, r4, #8, #8
     e1a:	f043 0380 	orr.w	r3, r3, #128	; 0x80
     e1e:	7313      	strb	r3, [r2, #12]
     e20:	9a08      	ldr	r2, [sp, #32]
     e22:	6813      	ldr	r3, [r2, #0]
     e24:	b2e2      	uxtb	r2, r4
     e26:	9c08      	ldr	r4, [sp, #32]
     e28:	7119      	strb	r1, [r3, #4]
     e2a:	6823      	ldr	r3, [r4, #0]
     e2c:	701a      	strb	r2, [r3, #0]
     e2e:	6823      	ldr	r3, [r4, #0]
     e30:	f883 0028 	strb.w	r0, [r3, #40]	; 0x28
     e34:	6823      	ldr	r3, [r4, #0]
     e36:	7b1a      	ldrb	r2, [r3, #12]
     e38:	f002 027f 	and.w	r2, r2, #127	; 0x7f
     e3c:	731a      	strb	r2, [r3, #12]
     e3e:	b00a      	add	sp, #40	; 0x28
     e40:	e8bd 0ff0 	ldmia.w	sp!, {r4, r5, r6, r7, r8, r9, r10, r11}
     e44:	4770      	bx	lr
     e46:	4b25      	ldr	r3, [pc, #148]	; (edc <serial_baud+0x1d8>)
     e48:	f8d3 21ac 	ldr.w	r2, [r3, #428]	; 0x1ac
     e4c:	f422 3240 	bic.w	r2, r2, #196608	; 0x30000
     e50:	f8c3 21ac 	str.w	r2, [r3, #428]	; 0x1ac
     e54:	f8d3 21ac 	ldr.w	r2, [r3, #428]	; 0x1ac
     e58:	f442 3280 	orr.w	r2, r2, #65536	; 0x10000
     e5c:	f8c3 21ac 	str.w	r2, [r3, #428]	; 0x1ac
     e60:	e772      	b.n	d48 <serial_baud+0x44>
     e62:	2800      	cmp	r0, #0
     e64:	d0a5      	beq.n	db2 <serial_baud+0xae>
     e66:	2b01      	cmp	r3, #1
     e68:	d8a3      	bhi.n	db2 <serial_baud+0xae>
     e6a:	2302      	movs	r3, #2
     e6c:	e7a1      	b.n	db2 <serial_baud+0xae>
     e6e:	f1b9 0f0f 	cmp.w	r9, #15
     e72:	9301      	str	r3, [sp, #4]
     e74:	9703      	str	r7, [sp, #12]
     e76:	9002      	str	r0, [sp, #8]
     e78:	468c      	mov	r12, r1
     e7a:	f04f 0301 	mov.w	r3, #1
     e7e:	d1b5      	bne.n	dec <serial_baud+0xe8>
     e80:	9c02      	ldr	r4, [sp, #8]
     e82:	9903      	ldr	r1, [sp, #12]
     e84:	ea44 1001 	orr.w	r0, r4, r1, lsl #4
     e88:	b2c0      	uxtb	r0, r0
     e8a:	e7c1      	b.n	e10 <serial_baud+0x10c>
     e8c:	2010      	movs	r0, #16
     e8e:	e7bf      	b.n	e10 <serial_baud+0x10c>
     e90:	f5a3 4380 	sub.w	r3, r3, #16384	; 0x4000
     e94:	4298      	cmp	r0, r3
     e96:	f47f af57 	bne.w	d48 <serial_baud+0x44>
     e9a:	4b10      	ldr	r3, [pc, #64]	; (edc <serial_baud+0x1d8>)
     e9c:	f8d3 21a8 	ldr.w	r2, [r3, #424]	; 0x1a8
     ea0:	f022 02c0 	bic.w	r2, r2, #192	; 0xc0
     ea4:	f8c3 21a8 	str.w	r2, [r3, #424]	; 0x1a8
     ea8:	f8d3 21a8 	ldr.w	r2, [r3, #424]	; 0x1a8
     eac:	f042 0240 	orr.w	r2, r2, #64	; 0x40
     eb0:	f8c3 21a8 	str.w	r2, [r3, #424]	; 0x1a8
     eb4:	e748      	b.n	d48 <serial_baud+0x44>
     eb6:	4b09      	ldr	r3, [pc, #36]	; (edc <serial_baud+0x1d8>)
     eb8:	f8d3 21a8 	ldr.w	r2, [r3, #424]	; 0x1a8
     ebc:	f422 7240 	bic.w	r2, r2, #768	; 0x300
     ec0:	f8c3 21a8 	str.w	r2, [r3, #424]	; 0x1a8
     ec4:	f8d3 21a8 	ldr.w	r2, [r3, #424]	; 0x1a8
     ec8:	f442 7280 	orr.w	r2, r2, #256	; 0x100
     ecc:	f8c3 21a8 	str.w	r2, [r3, #424]	; 0x1a8
     ed0:	e73a      	b.n	d48 <serial_baud+0x44>
     ed2:	bf00      	nop
     ed4:	40010000 	.word	0x40010000
     ed8:	40098000 	.word	0x40098000
     edc:	400fc000 	.word	0x400fc000
     ee0:	100000d0 	.word	0x100000d0

00000ee4 <serial_getc>:
     ee4:	6802      	ldr	r2, [r0, #0]
     ee6:	7d13      	ldrb	r3, [r2, #20]
     ee8:	07db      	lsls	r3, r3, #31
     eea:	d5fc      	bpl.n	ee6 <serial_getc+0x2>
     eec:	6843      	ldr	r3, [r0, #4]
     eee:	4909      	ldr	r1, [pc, #36]	; (f14 <serial_getc+0x30>)
     ef0:	ebc3 03c3 	rsb	r3, r3, r3, lsl #3
     ef4:	eb01 03c3 	add.w	r3, r1, r3, lsl #3
     ef8:	6859      	ldr	r1, [r3, #4]
     efa:	7810      	ldrb	r0, [r2, #0]
     efc:	3101      	adds	r1, #1
     efe:	b2c0      	uxtb	r0, r0
     f00:	d007      	beq.n	f12 <serial_getc+0x2e>
     f02:	6959      	ldr	r1, [r3, #20]
     f04:	3304      	adds	r3, #4
     f06:	685b      	ldr	r3, [r3, #4]
     f08:	600b      	str	r3, [r1, #0]
     f0a:	6853      	ldr	r3, [r2, #4]
     f0c:	f043 0301 	orr.w	r3, r3, #1
     f10:	6053      	str	r3, [r2, #4]
     f12:	4770      	bx	lr
     f14:	1000027c 	.word	0x1000027c

00000f18 <serial_writable>:
     f18:	6843      	ldr	r3, [r0, #4]
     f1a:	4a17      	ldr	r2, [pc, #92]	; (f78 <serial_writable+0x60>)
     f1c:	ebc3 03c3 	rsb	r3, r3, r3, lsl #3
     f20:	00db      	lsls	r3, r3, #3
     f22:	18d1      	adds	r1, r2, r3
     f24:	b410      	push	{r4}
     f26:	69cc      	ldr	r4, [r1, #28]
     f28:	3401      	adds	r4, #1
     f2a:	d011      	beq.n	f50 <serial_writable+0x38>
     f2c:	6b0a      	ldr	r2, [r1, #48]	; 0x30
     f2e:	f101 031c 	add.w	r3, r1, #28
     f32:	685b      	ldr	r3, [r3, #4]
     f34:	6812      	ldr	r2, [r2, #0]
     f36:	421a      	tst	r2, r3
     f38:	d003      	beq.n	f42 <serial_writable+0x2a>
     f3a:	2000      	movs	r0, #0
     f3c:	f85d 4b04 	ldr.w	r4, [sp], #4
     f40:	4770      	bx	lr
     f42:	6803      	ldr	r3, [r0, #0]
     f44:	f85d 4b04 	ldr.w	r4, [sp], #4
     f48:	7d18      	ldrb	r0, [r3, #20]
     f4a:	f3c0 1080 	ubfx	r0, r0, #6, #1
     f4e:	4770      	bx	lr
     f50:	6803      	ldr	r3, [r0, #0]
     f52:	7d1b      	ldrb	r3, [r3, #20]
     f54:	069b      	lsls	r3, r3, #26
     f56:	d408      	bmi.n	f6a <serial_writable+0x52>
     f58:	f891 0034 	ldrb.w	r0, [r1, #52]	; 0x34
     f5c:	f85d 4b04 	ldr.w	r4, [sp], #4
     f60:	280f      	cmp	r0, #15
     f62:	bf8c      	ite	hi
     f64:	2000      	movhi	r0, #0
     f66:	2001      	movls	r0, #1
     f68:	4770      	bx	lr
     f6a:	2300      	movs	r3, #0
     f6c:	f881 3034 	strb.w	r3, [r1, #52]	; 0x34
     f70:	2001      	movs	r0, #1
     f72:	f85d 4b04 	ldr.w	r4, [sp], #4
     f76:	4770      	bx	lr
     f78:	1000027c 	.word	0x1000027c

00000f7c <serial_putc>:
     f7c:	b538      	push	{r3, r4, r5, lr}
     f7e:	4604      	mov	r4, r0
     f80:	460d      	mov	r5, r1
     f82:	4620      	mov	r0, r4
     f84:	f7ff ffc8 	bl	f18 <serial_writable>
     f88:	2800      	cmp	r0, #0
     f8a:	d0fa      	beq.n	f82 <serial_putc+0x6>
     f8c:	6823      	ldr	r3, [r4, #0]
     f8e:	b2ed      	uxtb	r5, r5
     f90:	701d      	strb	r5, [r3, #0]
     f92:	6862      	ldr	r2, [r4, #4]
     f94:	4b05      	ldr	r3, [pc, #20]	; (fac <serial_putc+0x30>)
     f96:	ebc2 02c2 	rsb	r2, r2, r2, lsl #3
     f9a:	eb03 03c2 	add.w	r3, r3, r2, lsl #3
     f9e:	f893 2034 	ldrb.w	r2, [r3, #52]	; 0x34
     fa2:	3201      	adds	r2, #1
     fa4:	f883 2034 	strb.w	r2, [r3, #52]	; 0x34
     fa8:	bd38      	pop	{r3, r4, r5, pc}
     faa:	bf00      	nop
     fac:	1000027c 	.word	0x1000027c

00000fb0 <serial_set_flow_control>:
     fb0:	e92d 4ff0 	stmdb	sp!, {r4, r5, r6, r7, r8, r9, r10, r11, lr}
     fb4:	4604      	mov	r4, r0
     fb6:	4d45      	ldr	r5, [pc, #276]	; (10cc <serial_set_flow_control+0x11c>)
     fb8:	6800      	ldr	r0, [r0, #0]
     fba:	b083      	sub	sp, #12
     fbc:	42a8      	cmp	r0, r5
     fbe:	460e      	mov	r6, r1
     fc0:	4690      	mov	r8, r2
     fc2:	4699      	mov	r9, r3
     fc4:	d043      	beq.n	104e <serial_set_flow_control+0x9e>
     fc6:	6865      	ldr	r5, [r4, #4]
     fc8:	2300      	movs	r3, #0
     fca:	9301      	str	r3, [sp, #4]
     fcc:	462a      	mov	r2, r5
     fce:	f8df a108 	ldr.w	r10, [pc, #264]	; 10d8 <serial_set_flow_control+0x128>
     fd2:	00ef      	lsls	r7, r5, #3
     fd4:	ebc2 02c2 	rsb	r2, r2, r2, lsl #3
     fd8:	1b78      	subs	r0, r7, r5
     fda:	f04f 0e00 	mov.w	lr, #0
     fde:	eb0a 00c0 	add.w	r0, r10, r0, lsl #3
     fe2:	eb0a 0cc2 	add.w	r12, r10, r2, lsl #3
     fe6:	f04f 33ff 	mov.w	r3, #4294967295	; 0xffffffff
     fea:	61c3      	str	r3, [r0, #28]
     fec:	6043      	str	r3, [r0, #4]
     fee:	4671      	mov	r1, lr
     ff0:	4672      	mov	r2, lr
     ff2:	4620      	mov	r0, r4
     ff4:	f88c e035 	strb.w	lr, [r12, #53]	; 0x35
     ff8:	f7ff fd84 	bl	b04 <serial_irq_set_internal>
     ffc:	b916      	cbnz	r6, 1004 <serial_set_flow_control+0x54>
     ffe:	b003      	add	sp, #12
    1000:	e8bd 8ff0 	ldmia.w	sp!, {r4, r5, r6, r7, r8, r9, r10, r11, pc}
    1004:	4932      	ldr	r1, [pc, #200]	; (10d0 <serial_set_flow_control+0x120>)
    1006:	4640      	mov	r0, r8
    1008:	f000 fa5c 	bl	14c4 <pinmap_find_peripheral>
    100c:	4931      	ldr	r1, [pc, #196]	; (10d4 <serial_set_flow_control+0x124>)
    100e:	4683      	mov	r11, r0
    1010:	4648      	mov	r0, r9
    1012:	f000 fa57 	bl	14c4 <pinmap_find_peripheral>
    1016:	1eb2      	subs	r2, r6, #2
    1018:	2a01      	cmp	r2, #1
    101a:	d938      	bls.n	108e <serial_set_flow_control+0xde>
    101c:	2e01      	cmp	r6, #1
    101e:	d1ee      	bne.n	ffe <serial_set_flow_control+0x4e>
    1020:	f1b8 3fff 	cmp.w	r8, #4294967295	; 0xffffffff
    1024:	d0eb      	beq.n	ffe <serial_set_flow_control+0x4e>
    1026:	4929      	ldr	r1, [pc, #164]	; (10cc <serial_set_flow_control+0x11c>)
    1028:	6822      	ldr	r2, [r4, #0]
    102a:	2007      	movs	r0, #7
    102c:	458b      	cmp	r11, r1
    102e:	7210      	strb	r0, [r2, #8]
    1030:	d115      	bne.n	105e <serial_set_flow_control+0xae>
    1032:	9b01      	ldr	r3, [sp, #4]
    1034:	b19b      	cbz	r3, 105e <serial_set_flow_control+0xae>
    1036:	7c1b      	ldrb	r3, [r3, #16]
    1038:	9a01      	ldr	r2, [sp, #4]
    103a:	4925      	ldr	r1, [pc, #148]	; (10d0 <serial_set_flow_control+0x120>)
    103c:	f043 0340 	orr.w	r3, r3, #64	; 0x40
    1040:	4640      	mov	r0, r8
    1042:	7413      	strb	r3, [r2, #16]
    1044:	b003      	add	sp, #12
    1046:	e8bd 4ff0 	ldmia.w	sp!, {r4, r5, r6, r7, r8, r9, r10, r11, lr}
    104a:	f000 ba09 	b.w	1460 <pinmap_pinout>
    104e:	7c03      	ldrb	r3, [r0, #16]
    1050:	6865      	ldr	r5, [r4, #4]
    1052:	f003 033f 	and.w	r3, r3, #63	; 0x3f
    1056:	7403      	strb	r3, [r0, #16]
    1058:	6862      	ldr	r2, [r4, #4]
    105a:	9001      	str	r0, [sp, #4]
    105c:	e7b7      	b.n	fce <serial_set_flow_control+0x1e>
    105e:	1b7d      	subs	r5, r7, r5
    1060:	eb0a 00c5 	add.w	r0, r10, r5, lsl #3
    1064:	4641      	mov	r1, r8
    1066:	3004      	adds	r0, #4
    1068:	2200      	movs	r2, #0
    106a:	f000 f9dd 	bl	1428 <gpio_init_out_ex>
    106e:	6862      	ldr	r2, [r4, #4]
    1070:	2501      	movs	r5, #1
    1072:	ebc2 02c2 	rsb	r2, r2, r2, lsl #3
    1076:	eb0a 03c2 	add.w	r3, r10, r2, lsl #3
    107a:	4620      	mov	r0, r4
    107c:	462a      	mov	r2, r5
    107e:	2100      	movs	r1, #0
    1080:	f883 5035 	strb.w	r5, [r3, #53]	; 0x35
    1084:	b003      	add	sp, #12
    1086:	e8bd 4ff0 	ldmia.w	sp!, {r4, r5, r6, r7, r8, r9, r10, r11, lr}
    108a:	f7ff bd3b 	b.w	b04 <serial_irq_set_internal>
    108e:	f1b9 3fff 	cmp.w	r9, #4294967295	; 0xffffffff
    1092:	d009      	beq.n	10a8 <serial_set_flow_control+0xf8>
    1094:	4a0d      	ldr	r2, [pc, #52]	; (10cc <serial_set_flow_control+0x11c>)
    1096:	4290      	cmp	r0, r2
    1098:	d00c      	beq.n	10b4 <serial_set_flow_control+0x104>
    109a:	1b78      	subs	r0, r7, r5
    109c:	eb0a 00c0 	add.w	r0, r10, r0, lsl #3
    10a0:	4649      	mov	r1, r9
    10a2:	301c      	adds	r0, #28
    10a4:	f000 f998 	bl	13d8 <gpio_init_in>
    10a8:	2e03      	cmp	r6, #3
    10aa:	d1a8      	bne.n	ffe <serial_set_flow_control+0x4e>
    10ac:	f1b8 3fff 	cmp.w	r8, #4294967295	; 0xffffffff
    10b0:	d1b9      	bne.n	1026 <serial_set_flow_control+0x76>
    10b2:	e7a4      	b.n	ffe <serial_set_flow_control+0x4e>
    10b4:	9b01      	ldr	r3, [sp, #4]
    10b6:	2b00      	cmp	r3, #0
    10b8:	d0ef      	beq.n	109a <serial_set_flow_control+0xea>
    10ba:	7c1a      	ldrb	r2, [r3, #16]
    10bc:	4648      	mov	r0, r9
    10be:	f042 0280 	orr.w	r2, r2, #128	; 0x80
    10c2:	741a      	strb	r2, [r3, #16]
    10c4:	4903      	ldr	r1, [pc, #12]	; (10d4 <serial_set_flow_control+0x124>)
    10c6:	f000 f9cb 	bl	1460 <pinmap_pinout>
    10ca:	e7ed      	b.n	10a8 <serial_set_flow_control+0xf8>
    10cc:	40010000 	.word	0x40010000
    10d0:	00003a18 	.word	0x00003a18
    10d4:	00003b14 	.word	0x00003b14
    10d8:	1000027c 	.word	0x1000027c

000010dc <serial_init>:
    10dc:	e92d 41f0 	stmdb	sp!, {r4, r5, r6, r7, r8, lr}
    10e0:	4605      	mov	r5, r0
    10e2:	460f      	mov	r7, r1
    10e4:	4608      	mov	r0, r1
    10e6:	4959      	ldr	r1, [pc, #356]	; (124c <serial_init+0x170>)
    10e8:	4616      	mov	r6, r2
    10ea:	f000 f9f9 	bl	14e0 <pinmap_peripheral>
    10ee:	4958      	ldr	r1, [pc, #352]	; (1250 <serial_init+0x174>)
    10f0:	4604      	mov	r4, r0
    10f2:	4630      	mov	r0, r6
    10f4:	f000 f9f4 	bl	14e0 <pinmap_peripheral>
    10f8:	4601      	mov	r1, r0
    10fa:	4620      	mov	r0, r4
    10fc:	f000 f9d0 	bl	14a0 <pinmap_merge>
    1100:	4b54      	ldr	r3, [pc, #336]	; (1254 <serial_init+0x178>)
    1102:	4604      	mov	r4, r0
    1104:	4298      	cmp	r0, r3
    1106:	6028      	str	r0, [r5, #0]
    1108:	d07f      	beq.n	120a <serial_init+0x12e>
    110a:	d96f      	bls.n	11ec <serial_init+0x110>
    110c:	4b52      	ldr	r3, [pc, #328]	; (1258 <serial_init+0x17c>)
    110e:	4298      	cmp	r0, r3
    1110:	d04b      	beq.n	11aa <serial_init+0xce>
    1112:	f503 4380 	add.w	r3, r3, #16384	; 0x4000
    1116:	4298      	cmp	r0, r3
    1118:	d106      	bne.n	1128 <serial_init+0x4c>
    111a:	4b50      	ldr	r3, [pc, #320]	; (125c <serial_init+0x180>)
    111c:	f8d3 20c4 	ldr.w	r2, [r3, #196]	; 0xc4
    1120:	f042 7200 	orr.w	r2, r2, #33554432	; 0x2000000
    1124:	f8c3 20c4 	str.w	r2, [r3, #196]	; 0xc4
    1128:	2301      	movs	r3, #1
    112a:	7223      	strb	r3, [r4, #8]
    112c:	682b      	ldr	r3, [r5, #0]
    112e:	f04f 0800 	mov.w	r8, #0
    1132:	f8c3 8004 	str.w	r8, [r3, #4]
    1136:	4628      	mov	r0, r5
    1138:	f44f 5116 	mov.w	r1, #9600	; 0x2580
    113c:	f7ff fde2 	bl	d04 <serial_baud>
    1140:	682b      	ldr	r3, [r5, #0]
    1142:	2203      	movs	r2, #3
    1144:	731a      	strb	r2, [r3, #12]
    1146:	4638      	mov	r0, r7
    1148:	4940      	ldr	r1, [pc, #256]	; (124c <serial_init+0x170>)
    114a:	f000 f989 	bl	1460 <pinmap_pinout>
    114e:	4630      	mov	r0, r6
    1150:	493f      	ldr	r1, [pc, #252]	; (1250 <serial_init+0x174>)
    1152:	f000 f985 	bl	1460 <pinmap_pinout>
    1156:	1c7a      	adds	r2, r7, #1
    1158:	d003      	beq.n	1162 <serial_init+0x86>
    115a:	4638      	mov	r0, r7
    115c:	4641      	mov	r1, r8
    115e:	f000 faf3 	bl	1748 <pin_mode>
    1162:	1c73      	adds	r3, r6, #1
    1164:	d003      	beq.n	116e <serial_init+0x92>
    1166:	4630      	mov	r0, r6
    1168:	2100      	movs	r1, #0
    116a:	f000 faed 	bl	1748 <pin_mode>
    116e:	4b39      	ldr	r3, [pc, #228]	; (1254 <serial_init+0x178>)
    1170:	429c      	cmp	r4, r3
    1172:	d047      	beq.n	1204 <serial_init+0x128>
    1174:	d921      	bls.n	11ba <serial_init+0xde>
    1176:	4b38      	ldr	r3, [pc, #224]	; (1258 <serial_init+0x17c>)
    1178:	429c      	cmp	r4, r3
    117a:	d063      	beq.n	1244 <serial_init+0x168>
    117c:	f503 4380 	add.w	r3, r3, #16384	; 0x4000
    1180:	429c      	cmp	r4, r3
    1182:	d14a      	bne.n	121a <serial_init+0x13e>
    1184:	2303      	movs	r3, #3
    1186:	606b      	str	r3, [r5, #4]
    1188:	4935      	ldr	r1, [pc, #212]	; (1260 <serial_init+0x184>)
    118a:	ebc3 03c3 	rsb	r3, r3, r3, lsl #3
    118e:	f04f 34ff 	mov.w	r4, #4294967295	; 0xffffffff
    1192:	4628      	mov	r0, r5
    1194:	eb01 05c3 	add.w	r5, r1, r3, lsl #3
    1198:	4622      	mov	r2, r4
    119a:	4623      	mov	r3, r4
    119c:	606c      	str	r4, [r5, #4]
    119e:	61ec      	str	r4, [r5, #28]
    11a0:	2100      	movs	r1, #0
    11a2:	e8bd 41f0 	ldmia.w	sp!, {r4, r5, r6, r7, r8, lr}
    11a6:	f7ff bf03 	b.w	fb0 <serial_set_flow_control>
    11aa:	4b2c      	ldr	r3, [pc, #176]	; (125c <serial_init+0x180>)
    11ac:	f8d3 20c4 	ldr.w	r2, [r3, #196]	; 0xc4
    11b0:	f042 7280 	orr.w	r2, r2, #16777216	; 0x1000000
    11b4:	f8c3 20c4 	str.w	r2, [r3, #196]	; 0xc4
    11b8:	e7b6      	b.n	1128 <serial_init+0x4c>
    11ba:	f5a3 4380 	sub.w	r3, r3, #16384	; 0x4000
    11be:	429c      	cmp	r4, r3
    11c0:	d12b      	bne.n	121a <serial_init+0x13e>
    11c2:	4e27      	ldr	r6, [pc, #156]	; (1260 <serial_init+0x184>)
    11c4:	f04f 34ff 	mov.w	r4, #4294967295	; 0xffffffff
    11c8:	2100      	movs	r1, #0
    11ca:	6069      	str	r1, [r5, #4]
    11cc:	4622      	mov	r2, r4
    11ce:	4623      	mov	r3, r4
    11d0:	4628      	mov	r0, r5
    11d2:	6074      	str	r4, [r6, #4]
    11d4:	61f4      	str	r4, [r6, #28]
    11d6:	f7ff feeb 	bl	fb0 <serial_set_flow_control>
    11da:	4b22      	ldr	r3, [pc, #136]	; (1264 <serial_init+0x188>)
    11dc:	2201      	movs	r2, #1
    11de:	601a      	str	r2, [r3, #0]
    11e0:	6828      	ldr	r0, [r5, #0]
    11e2:	6869      	ldr	r1, [r5, #4]
    11e4:	4b20      	ldr	r3, [pc, #128]	; (1268 <serial_init+0x18c>)
    11e6:	c303      	stmia	r3!, {r0, r1}
    11e8:	e8bd 81f0 	ldmia.w	sp!, {r4, r5, r6, r7, r8, pc}
    11ec:	f5a3 4380 	sub.w	r3, r3, #16384	; 0x4000
    11f0:	4298      	cmp	r0, r3
    11f2:	d199      	bne.n	1128 <serial_init+0x4c>
    11f4:	4b19      	ldr	r3, [pc, #100]	; (125c <serial_init+0x180>)
    11f6:	f8d3 20c4 	ldr.w	r2, [r3, #196]	; 0xc4
    11fa:	f042 0208 	orr.w	r2, r2, #8
    11fe:	f8c3 20c4 	str.w	r2, [r3, #196]	; 0xc4
    1202:	e791      	b.n	1128 <serial_init+0x4c>
    1204:	2301      	movs	r3, #1
    1206:	606b      	str	r3, [r5, #4]
    1208:	e7be      	b.n	1188 <serial_init+0xac>
    120a:	4b14      	ldr	r3, [pc, #80]	; (125c <serial_init+0x180>)
    120c:	f8d3 20c4 	ldr.w	r2, [r3, #196]	; 0xc4
    1210:	f042 0210 	orr.w	r2, r2, #16
    1214:	f8c3 20c4 	str.w	r2, [r3, #196]	; 0xc4
    1218:	e786      	b.n	1128 <serial_init+0x4c>
    121a:	686b      	ldr	r3, [r5, #4]
    121c:	4910      	ldr	r1, [pc, #64]	; (1260 <serial_init+0x184>)
    121e:	ebc3 03c3 	rsb	r3, r3, r3, lsl #3
    1222:	f04f 36ff 	mov.w	r6, #4294967295	; 0xffffffff
    1226:	eb01 07c3 	add.w	r7, r1, r3, lsl #3
    122a:	4632      	mov	r2, r6
    122c:	4633      	mov	r3, r6
    122e:	4628      	mov	r0, r5
    1230:	2100      	movs	r1, #0
    1232:	607e      	str	r6, [r7, #4]
    1234:	61fe      	str	r6, [r7, #28]
    1236:	f7ff febb 	bl	fb0 <serial_set_flow_control>
    123a:	4b0c      	ldr	r3, [pc, #48]	; (126c <serial_init+0x190>)
    123c:	429c      	cmp	r4, r3
    123e:	d0cc      	beq.n	11da <serial_init+0xfe>
    1240:	e8bd 81f0 	ldmia.w	sp!, {r4, r5, r6, r7, r8, pc}
    1244:	2302      	movs	r3, #2
    1246:	606b      	str	r3, [r5, #4]
    1248:	e79e      	b.n	1188 <serial_init+0xac>
    124a:	bf00      	nop
    124c:	00003aa8 	.word	0x00003aa8
    1250:	00003a3c 	.word	0x00003a3c
    1254:	40010000 	.word	0x40010000
    1258:	40098000 	.word	0x40098000
    125c:	400fc000 	.word	0x400fc000
    1260:	1000027c 	.word	0x1000027c
    1264:	10000274 	.word	0x10000274
    1268:	10000378 	.word	0x10000378
    126c:	4000c000 	.word	0x4000c000

00001270 <NVIC_SetVector>:
    1270:	4a0c      	ldr	r2, [pc, #48]	; (12a4 <NVIC_SetVector+0x34>)
    1272:	b430      	push	{r4, r5}
    1274:	6893      	ldr	r3, [r2, #8]
    1276:	6894      	ldr	r4, [r2, #8]
    1278:	461a      	mov	r2, r3
    127a:	f1b4 5f80 	cmp.w	r4, #268435456	; 0x10000000
    127e:	d20c      	bcs.n	129a <NVIC_SetVector+0x2a>
    1280:	4a09      	ldr	r2, [pc, #36]	; (12a8 <NVIC_SetVector+0x38>)
    1282:	f103 05c4 	add.w	r5, r3, #196	; 0xc4
    1286:	f853 4b04 	ldr.w	r4, [r3], #4
    128a:	42ab      	cmp	r3, r5
    128c:	f842 4f04 	str.w	r4, [r2, #4]!
    1290:	d1f9      	bne.n	1286 <NVIC_SetVector+0x16>
    1292:	4b04      	ldr	r3, [pc, #16]	; (12a4 <NVIC_SetVector+0x34>)
    1294:	f04f 5280 	mov.w	r2, #268435456	; 0x10000000
    1298:	609a      	str	r2, [r3, #8]
    129a:	3010      	adds	r0, #16
    129c:	f842 1020 	str.w	r1, [r2, r0, lsl #2]
    12a0:	bc30      	pop	{r4, r5}
    12a2:	4770      	bx	lr
    12a4:	e000ed00 	.word	0xe000ed00
    12a8:	0ffffffc 	.word	0x0ffffffc

000012ac <SystemInit>:
    12ac:	4a2b      	ldr	r2, [pc, #172]	; (135c <SystemInit+0xb0>)
    12ae:	2320      	movs	r3, #32
    12b0:	b470      	push	{r4, r5, r6}
    12b2:	f8c2 31a0 	str.w	r3, [r2, #416]	; 0x1a0
    12b6:	f8d2 31a0 	ldr.w	r3, [r2, #416]	; 0x1a0
    12ba:	0698      	lsls	r0, r3, #26
    12bc:	d445      	bmi.n	134a <SystemInit+0x9e>
    12be:	4b27      	ldr	r3, [pc, #156]	; (135c <SystemInit+0xb0>)
    12c0:	2102      	movs	r1, #2
    12c2:	2500      	movs	r5, #0
    12c4:	2401      	movs	r4, #1
    12c6:	20aa      	movs	r0, #170	; 0xaa
    12c8:	2255      	movs	r2, #85	; 0x55
    12ca:	260b      	movs	r6, #11
    12cc:	f8c3 1104 	str.w	r1, [r3, #260]	; 0x104
    12d0:	f8c3 51a8 	str.w	r5, [r3, #424]	; 0x1a8
    12d4:	4619      	mov	r1, r3
    12d6:	f8c3 51ac 	str.w	r5, [r3, #428]	; 0x1ac
    12da:	f8c3 410c 	str.w	r4, [r3, #268]	; 0x10c
    12de:	f8c3 6084 	str.w	r6, [r3, #132]	; 0x84
    12e2:	f8c3 008c 	str.w	r0, [r3, #140]	; 0x8c
    12e6:	f8c3 208c 	str.w	r2, [r3, #140]	; 0x8c
    12ea:	f8c3 4080 	str.w	r4, [r3, #128]	; 0x80
    12ee:	f8c3 008c 	str.w	r0, [r3, #140]	; 0x8c
    12f2:	f8c3 208c 	str.w	r2, [r3, #140]	; 0x8c
    12f6:	f8d1 3088 	ldr.w	r3, [r1, #136]	; 0x88
    12fa:	4a18      	ldr	r2, [pc, #96]	; (135c <SystemInit+0xb0>)
    12fc:	015b      	lsls	r3, r3, #5
    12fe:	d5fa      	bpl.n	12f6 <SystemInit+0x4a>
    1300:	2103      	movs	r1, #3
    1302:	20aa      	movs	r0, #170	; 0xaa
    1304:	2355      	movs	r3, #85	; 0x55
    1306:	f8c2 1080 	str.w	r1, [r2, #128]	; 0x80
    130a:	f8c2 008c 	str.w	r0, [r2, #140]	; 0x8c
    130e:	4611      	mov	r1, r2
    1310:	f8c2 308c 	str.w	r3, [r2, #140]	; 0x8c
    1314:	f8d1 3088 	ldr.w	r3, [r1, #136]	; 0x88
    1318:	4a10      	ldr	r2, [pc, #64]	; (135c <SystemInit+0xb0>)
    131a:	f013 7f40 	tst.w	r3, #50331648	; 0x3000000
    131e:	d0f9      	beq.n	1314 <SystemInit+0x68>
    1320:	490f      	ldr	r1, [pc, #60]	; (1360 <SystemInit+0xb4>)
    1322:	2300      	movs	r3, #0
    1324:	2005      	movs	r0, #5
    1326:	f8c2 0108 	str.w	r0, [r2, #264]	; 0x108
    132a:	f8c2 10c4 	str.w	r1, [r2, #196]	; 0xc4
    132e:	f8c2 31c8 	str.w	r3, [r2, #456]	; 0x1c8
    1332:	6813      	ldr	r3, [r2, #0]
    1334:	bc70      	pop	{r4, r5, r6}
    1336:	f423 4370 	bic.w	r3, r3, #61440	; 0xf000
    133a:	f023 033a 	bic.w	r3, r3, #58	; 0x3a
    133e:	f443 5340 	orr.w	r3, r3, #12288	; 0x3000
    1342:	f043 033a 	orr.w	r3, r3, #58	; 0x3a
    1346:	6013      	str	r3, [r2, #0]
    1348:	4770      	bx	lr
    134a:	f8d2 31a0 	ldr.w	r3, [r2, #416]	; 0x1a0
    134e:	0659      	lsls	r1, r3, #25
    1350:	d4b5      	bmi.n	12be <SystemInit+0x12>
    1352:	f8d2 31a0 	ldr.w	r3, [r2, #416]	; 0x1a0
    1356:	0659      	lsls	r1, r3, #25
    1358:	d5f7      	bpl.n	134a <SystemInit+0x9e>
    135a:	e7b0      	b.n	12be <SystemInit+0x12>
    135c:	400fc000 	.word	0x400fc000
    1360:	042887de 	.word	0x042887de

00001364 <mbed_die>:
    1364:	b500      	push	{lr}
    1366:	b099      	sub	sp, #100	; 0x64
    1368:	b672      	cpsid	i
    136a:	4917      	ldr	r1, [pc, #92]	; (13c8 <mbed_die+0x64>)
    136c:	4668      	mov	r0, sp
    136e:	f000 f845 	bl	13fc <gpio_init_out>
    1372:	a806      	add	r0, sp, #24
    1374:	4915      	ldr	r1, [pc, #84]	; (13cc <mbed_die+0x68>)
    1376:	f000 f841 	bl	13fc <gpio_init_out>
    137a:	a80c      	add	r0, sp, #48	; 0x30
    137c:	4914      	ldr	r1, [pc, #80]	; (13d0 <mbed_die+0x6c>)
    137e:	f000 f83d 	bl	13fc <gpio_init_out>
    1382:	a812      	add	r0, sp, #72	; 0x48
    1384:	4913      	ldr	r1, [pc, #76]	; (13d4 <mbed_die+0x70>)
    1386:	f000 f839 	bl	13fc <gpio_init_out>
    138a:	9b03      	ldr	r3, [sp, #12]
    138c:	9a01      	ldr	r2, [sp, #4]
    138e:	980a      	ldr	r0, [sp, #40]	; 0x28
    1390:	601a      	str	r2, [r3, #0]
    1392:	9b07      	ldr	r3, [sp, #28]
    1394:	9910      	ldr	r1, [sp, #64]	; 0x40
    1396:	6003      	str	r3, [r0, #0]
    1398:	9b0d      	ldr	r3, [sp, #52]	; 0x34
    139a:	9a15      	ldr	r2, [sp, #84]	; 0x54
    139c:	600b      	str	r3, [r1, #0]
    139e:	9b13      	ldr	r3, [sp, #76]	; 0x4c
    13a0:	2096      	movs	r0, #150	; 0x96
    13a2:	6013      	str	r3, [r2, #0]
    13a4:	f000 f8c2 	bl	152c <wait_ms>
    13a8:	9b04      	ldr	r3, [sp, #16]
    13aa:	9a01      	ldr	r2, [sp, #4]
    13ac:	9809      	ldr	r0, [sp, #36]	; 0x24
    13ae:	601a      	str	r2, [r3, #0]
    13b0:	9b07      	ldr	r3, [sp, #28]
    13b2:	990f      	ldr	r1, [sp, #60]	; 0x3c
    13b4:	6003      	str	r3, [r0, #0]
    13b6:	9b0d      	ldr	r3, [sp, #52]	; 0x34
    13b8:	9a16      	ldr	r2, [sp, #88]	; 0x58
    13ba:	600b      	str	r3, [r1, #0]
    13bc:	9b13      	ldr	r3, [sp, #76]	; 0x4c
    13be:	2096      	movs	r0, #150	; 0x96
    13c0:	6013      	str	r3, [r2, #0]
    13c2:	f000 f8b3 	bl	152c <wait_ms>
    13c6:	e7e0      	b.n	138a <mbed_die+0x26>
    13c8:	2009c032 	.word	0x2009c032
    13cc:	2009c034 	.word	0x2009c034
    13d0:	2009c035 	.word	0x2009c035
    13d4:	2009c037 	.word	0x2009c037

000013d8 <gpio_init_in>:
    13d8:	b538      	push	{r3, r4, r5, lr}
    13da:	460d      	mov	r5, r1
    13dc:	4604      	mov	r4, r0
    13de:	f000 f969 	bl	16b4 <gpio_init>
    13e2:	3501      	adds	r5, #1
    13e4:	d009      	beq.n	13fa <gpio_init_in+0x22>
    13e6:	4620      	mov	r0, r4
    13e8:	2100      	movs	r1, #0
    13ea:	f000 f983 	bl	16f4 <gpio_dir>
    13ee:	4620      	mov	r0, r4
    13f0:	2103      	movs	r1, #3
    13f2:	e8bd 4038 	ldmia.w	sp!, {r3, r4, r5, lr}
    13f6:	f000 b979 	b.w	16ec <gpio_mode>
    13fa:	bd38      	pop	{r3, r4, r5, pc}

000013fc <gpio_init_out>:
    13fc:	b538      	push	{r3, r4, r5, lr}
    13fe:	460d      	mov	r5, r1
    1400:	4604      	mov	r4, r0
    1402:	f000 f957 	bl	16b4 <gpio_init>
    1406:	3501      	adds	r5, #1
    1408:	d00c      	beq.n	1424 <gpio_init_out+0x28>
    140a:	6923      	ldr	r3, [r4, #16]
    140c:	6862      	ldr	r2, [r4, #4]
    140e:	4620      	mov	r0, r4
    1410:	601a      	str	r2, [r3, #0]
    1412:	2101      	movs	r1, #1
    1414:	f000 f96e 	bl	16f4 <gpio_dir>
    1418:	4620      	mov	r0, r4
    141a:	2102      	movs	r1, #2
    141c:	e8bd 4038 	ldmia.w	sp!, {r3, r4, r5, lr}
    1420:	f000 b964 	b.w	16ec <gpio_mode>
    1424:	bd38      	pop	{r3, r4, r5, pc}
    1426:	bf00      	nop

00001428 <gpio_init_out_ex>:
    1428:	b570      	push	{r4, r5, r6, lr}
    142a:	460d      	mov	r5, r1
    142c:	4616      	mov	r6, r2
    142e:	4604      	mov	r4, r0
    1430:	f000 f940 	bl	16b4 <gpio_init>
    1434:	3501      	adds	r5, #1
    1436:	d011      	beq.n	145c <gpio_init_out_ex+0x34>
    1438:	b966      	cbnz	r6, 1454 <gpio_init_out_ex+0x2c>
    143a:	6923      	ldr	r3, [r4, #16]
    143c:	6862      	ldr	r2, [r4, #4]
    143e:	601a      	str	r2, [r3, #0]
    1440:	4620      	mov	r0, r4
    1442:	2101      	movs	r1, #1
    1444:	f000 f956 	bl	16f4 <gpio_dir>
    1448:	4620      	mov	r0, r4
    144a:	2102      	movs	r1, #2
    144c:	e8bd 4070 	ldmia.w	sp!, {r4, r5, r6, lr}
    1450:	f000 b94c 	b.w	16ec <gpio_mode>
    1454:	68e3      	ldr	r3, [r4, #12]
    1456:	6862      	ldr	r2, [r4, #4]
    1458:	601a      	str	r2, [r3, #0]
    145a:	e7f1      	b.n	1440 <gpio_init_out_ex+0x18>
    145c:	bd70      	pop	{r4, r5, r6, pc}
    145e:	bf00      	nop

00001460 <pinmap_pinout>:
    1460:	1c43      	adds	r3, r0, #1
    1462:	b510      	push	{r4, lr}
    1464:	4604      	mov	r4, r0
    1466:	d018      	beq.n	149a <pinmap_pinout+0x3a>
    1468:	680b      	ldr	r3, [r1, #0]
    146a:	1c58      	adds	r0, r3, #1
    146c:	d104      	bne.n	1478 <pinmap_pinout+0x18>
    146e:	e00f      	b.n	1490 <pinmap_pinout+0x30>
    1470:	f851 3f0c 	ldr.w	r3, [r1, #12]!
    1474:	1c5a      	adds	r2, r3, #1
    1476:	d00b      	beq.n	1490 <pinmap_pinout+0x30>
    1478:	429c      	cmp	r4, r3
    147a:	d1f9      	bne.n	1470 <pinmap_pinout+0x10>
    147c:	4620      	mov	r0, r4
    147e:	6889      	ldr	r1, [r1, #8]
    1480:	f000 f94a 	bl	1718 <pin_function>
    1484:	4620      	mov	r0, r4
    1486:	2102      	movs	r1, #2
    1488:	e8bd 4010 	ldmia.w	sp!, {r4, lr}
    148c:	f000 b95c 	b.w	1748 <pin_mode>
    1490:	4802      	ldr	r0, [pc, #8]	; (149c <pinmap_pinout+0x3c>)
    1492:	e8bd 4010 	ldmia.w	sp!, {r4, lr}
    1496:	f7fe bf0d 	b.w	2b4 <error>
    149a:	bd10      	pop	{r4, pc}
    149c:	00003b38 	.word	0x00003b38

000014a0 <pinmap_merge>:
    14a0:	4288      	cmp	r0, r1
    14a2:	b508      	push	{r3, lr}
    14a4:	d00a      	beq.n	14bc <pinmap_merge+0x1c>
    14a6:	1c43      	adds	r3, r0, #1
    14a8:	d007      	beq.n	14ba <pinmap_merge+0x1a>
    14aa:	3101      	adds	r1, #1
    14ac:	d006      	beq.n	14bc <pinmap_merge+0x1c>
    14ae:	4804      	ldr	r0, [pc, #16]	; (14c0 <pinmap_merge+0x20>)
    14b0:	f7fe ff00 	bl	2b4 <error>
    14b4:	f04f 30ff 	mov.w	r0, #4294967295	; 0xffffffff
    14b8:	bd08      	pop	{r3, pc}
    14ba:	4608      	mov	r0, r1
    14bc:	bd08      	pop	{r3, pc}
    14be:	bf00      	nop
    14c0:	00003b4c 	.word	0x00003b4c

000014c4 <pinmap_find_peripheral>:
    14c4:	680b      	ldr	r3, [r1, #0]
    14c6:	1c5a      	adds	r2, r3, #1
    14c8:	d104      	bne.n	14d4 <pinmap_find_peripheral+0x10>
    14ca:	e007      	b.n	14dc <pinmap_find_peripheral+0x18>
    14cc:	f851 3f0c 	ldr.w	r3, [r1, #12]!
    14d0:	1c5a      	adds	r2, r3, #1
    14d2:	d003      	beq.n	14dc <pinmap_find_peripheral+0x18>
    14d4:	4283      	cmp	r3, r0
    14d6:	d1f9      	bne.n	14cc <pinmap_find_peripheral+0x8>
    14d8:	6848      	ldr	r0, [r1, #4]
    14da:	4770      	bx	lr
    14dc:	4618      	mov	r0, r3
    14de:	4770      	bx	lr

000014e0 <pinmap_peripheral>:
    14e0:	b508      	push	{r3, lr}
    14e2:	1c43      	adds	r3, r0, #1
    14e4:	d00c      	beq.n	1500 <pinmap_peripheral+0x20>
    14e6:	680b      	ldr	r3, [r1, #0]
    14e8:	1c5a      	adds	r2, r3, #1
    14ea:	d104      	bne.n	14f6 <pinmap_peripheral+0x16>
    14ec:	e009      	b.n	1502 <pinmap_peripheral+0x22>
    14ee:	f851 3f0c 	ldr.w	r3, [r1, #12]!
    14f2:	1c5a      	adds	r2, r3, #1
    14f4:	d005      	beq.n	1502 <pinmap_peripheral+0x22>
    14f6:	4298      	cmp	r0, r3
    14f8:	d1f9      	bne.n	14ee <pinmap_peripheral+0xe>
    14fa:	6848      	ldr	r0, [r1, #4]
    14fc:	1c41      	adds	r1, r0, #1
    14fe:	d000      	beq.n	1502 <pinmap_peripheral+0x22>
    1500:	bd08      	pop	{r3, pc}
    1502:	4803      	ldr	r0, [pc, #12]	; (1510 <pinmap_peripheral+0x30>)
    1504:	f7fe fed6 	bl	2b4 <error>
    1508:	f04f 30ff 	mov.w	r0, #4294967295	; 0xffffffff
    150c:	e7f8      	b.n	1500 <pinmap_peripheral+0x20>
    150e:	bf00      	nop
    1510:	00003b60 	.word	0x00003b60

00001514 <wait_us>:
    1514:	b538      	push	{r3, r4, r5, lr}
    1516:	4605      	mov	r5, r0
    1518:	f000 f97a 	bl	1810 <us_ticker_read>
    151c:	4604      	mov	r4, r0
    151e:	f000 f977 	bl	1810 <us_ticker_read>
    1522:	1b00      	subs	r0, r0, r4
    1524:	42a8      	cmp	r0, r5
    1526:	d3fa      	bcc.n	151e <wait_us+0xa>
    1528:	bd38      	pop	{r3, r4, r5, pc}
    152a:	bf00      	nop

0000152c <wait_ms>:
    152c:	f44f 737a 	mov.w	r3, #1000	; 0x3e8
    1530:	fb03 f000 	mul.w	r0, r3, r0
    1534:	f7ff bfee 	b.w	1514 <wait_us>

00001538 <mbed::FileBase::~FileBase()>:
    1538:	4a09      	ldr	r2, [pc, #36]	; (1560 <mbed::FileBase::~FileBase()+0x28>)
    153a:	6883      	ldr	r3, [r0, #8]
    153c:	6002      	str	r2, [r0, #0]
    153e:	b153      	cbz	r3, 1556 <mbed::FileBase::~FileBase()+0x1e>
    1540:	4b08      	ldr	r3, [pc, #32]	; (1564 <mbed::FileBase::~FileBase()+0x2c>)
    1542:	681a      	ldr	r2, [r3, #0]
    1544:	4282      	cmp	r2, r0
    1546:	d101      	bne.n	154c <mbed::FileBase::~FileBase()+0x14>
    1548:	e006      	b.n	1558 <mbed::FileBase::~FileBase()+0x20>
    154a:	461a      	mov	r2, r3
    154c:	6853      	ldr	r3, [r2, #4]
    154e:	4283      	cmp	r3, r0
    1550:	d1fb      	bne.n	154a <mbed::FileBase::~FileBase()+0x12>
    1552:	6843      	ldr	r3, [r0, #4]
    1554:	6053      	str	r3, [r2, #4]
    1556:	4770      	bx	lr
    1558:	6842      	ldr	r2, [r0, #4]
    155a:	601a      	str	r2, [r3, #0]
    155c:	4770      	bx	lr
    155e:	bf00      	nop
    1560:	00003b88 	.word	0x00003b88
    1564:	1000035c 	.word	0x1000035c

00001568 <mbed::FileBase::~FileBase()>:
    1568:	4a0c      	ldr	r2, [pc, #48]	; (159c <mbed::FileBase::~FileBase()+0x34>)
    156a:	6883      	ldr	r3, [r0, #8]
    156c:	b510      	push	{r4, lr}
    156e:	4604      	mov	r4, r0
    1570:	6002      	str	r2, [r0, #0]
    1572:	b153      	cbz	r3, 158a <mbed::FileBase::~FileBase()+0x22>
    1574:	4b0a      	ldr	r3, [pc, #40]	; (15a0 <mbed::FileBase::~FileBase()+0x38>)
    1576:	681a      	ldr	r2, [r3, #0]
    1578:	4290      	cmp	r0, r2
    157a:	d101      	bne.n	1580 <mbed::FileBase::~FileBase()+0x18>
    157c:	e00a      	b.n	1594 <mbed::FileBase::~FileBase()+0x2c>
    157e:	461a      	mov	r2, r3
    1580:	6853      	ldr	r3, [r2, #4]
    1582:	429c      	cmp	r4, r3
    1584:	d1fb      	bne.n	157e <mbed::FileBase::~FileBase()+0x16>
    1586:	6863      	ldr	r3, [r4, #4]
    1588:	6053      	str	r3, [r2, #4]
    158a:	4620      	mov	r0, r4
    158c:	f000 f997 	bl	18be <operator delete(void*)>
    1590:	4620      	mov	r0, r4
    1592:	bd10      	pop	{r4, pc}
    1594:	6842      	ldr	r2, [r0, #4]
    1596:	601a      	str	r2, [r3, #0]
    1598:	e7f7      	b.n	158a <mbed::FileBase::~FileBase()+0x22>
    159a:	bf00      	nop
    159c:	00003b88 	.word	0x00003b88
    15a0:	1000035c 	.word	0x1000035c

000015a4 <mbed::FileBase::FileBase(char const*, mbed::PathType)>:
    15a4:	4b07      	ldr	r3, [pc, #28]	; (15c4 <mbed::FileBase::FileBase(char const*, mbed::PathType)+0x20>)
    15a6:	b410      	push	{r4}
    15a8:	2400      	movs	r4, #0
    15aa:	7302      	strb	r2, [r0, #12]
    15ac:	6081      	str	r1, [r0, #8]
    15ae:	e880 0018 	stmia.w	r0, {r3, r4}
    15b2:	b119      	cbz	r1, 15bc <mbed::FileBase::FileBase(char const*, mbed::PathType)+0x18>
    15b4:	4b04      	ldr	r3, [pc, #16]	; (15c8 <mbed::FileBase::FileBase(char const*, mbed::PathType)+0x24>)
    15b6:	681a      	ldr	r2, [r3, #0]
    15b8:	6018      	str	r0, [r3, #0]
    15ba:	6042      	str	r2, [r0, #4]
    15bc:	f85d 4b04 	ldr.w	r4, [sp], #4
    15c0:	4770      	bx	lr
    15c2:	bf00      	nop
    15c4:	00003b88 	.word	0x00003b88
    15c8:	1000035c 	.word	0x1000035c

000015cc <mbed::FileBase::lookup(char const*, unsigned int)>:
    15cc:	b5f8      	push	{r3, r4, r5, r6, r7, lr}
    15ce:	4b0b      	ldr	r3, [pc, #44]	; (15fc <mbed::FileBase::lookup(char const*, unsigned int)+0x30>)
    15d0:	4607      	mov	r7, r0
    15d2:	681c      	ldr	r4, [r3, #0]
    15d4:	460e      	mov	r6, r1
    15d6:	b17c      	cbz	r4, 15f8 <mbed::FileBase::lookup(char const*, unsigned int)+0x2c>
    15d8:	68a5      	ldr	r5, [r4, #8]
    15da:	4639      	mov	r1, r7
    15dc:	4632      	mov	r2, r6
    15de:	4628      	mov	r0, r5
    15e0:	b13d      	cbz	r5, 15f2 <mbed::FileBase::lookup(char const*, unsigned int)+0x26>
    15e2:	f001 f828 	bl	2636 <strncmp>
    15e6:	b920      	cbnz	r0, 15f2 <mbed::FileBase::lookup(char const*, unsigned int)+0x26>
    15e8:	4628      	mov	r0, r5
    15ea:	f001 f81c 	bl	2626 <strlen>
    15ee:	42b0      	cmp	r0, r6
    15f0:	d002      	beq.n	15f8 <mbed::FileBase::lookup(char const*, unsigned int)+0x2c>
    15f2:	6864      	ldr	r4, [r4, #4]
    15f4:	2c00      	cmp	r4, #0
    15f6:	d1ef      	bne.n	15d8 <mbed::FileBase::lookup(char const*, unsigned int)+0xc>
    15f8:	4620      	mov	r0, r4
    15fa:	bdf8      	pop	{r3, r4, r5, r6, r7, pc}
    15fc:	1000035c 	.word	0x1000035c

00001600 <mbed::FileBase::getPathType()>:
    1600:	7b00      	ldrb	r0, [r0, #12]
    1602:	4770      	bx	lr

00001604 <mbed::FilePath::FilePath(char const*)>:
    1604:	b538      	push	{r3, r4, r5, lr}
    1606:	2300      	movs	r3, #0
    1608:	6003      	str	r3, [r0, #0]
    160a:	6043      	str	r3, [r0, #4]
    160c:	780a      	ldrb	r2, [r1, #0]
    160e:	4604      	mov	r4, r0
    1610:	2a2f      	cmp	r2, #47	; 0x2f
    1612:	d001      	beq.n	1618 <mbed::FilePath::FilePath(char const*)+0x14>
    1614:	4620      	mov	r0, r4
    1616:	bd38      	pop	{r3, r4, r5, pc}
    1618:	784a      	ldrb	r2, [r1, #1]
    161a:	2a00      	cmp	r2, #0
    161c:	d0fa      	beq.n	1614 <mbed::FilePath::FilePath(char const*)+0x10>
    161e:	1c48      	adds	r0, r1, #1
    1620:	6020      	str	r0, [r4, #0]
    1622:	784a      	ldrb	r2, [r1, #1]
    1624:	2a2f      	cmp	r2, #47	; 0x2f
    1626:	d014      	beq.n	1652 <mbed::FilePath::FilePath(char const*)+0x4e>
    1628:	b1b2      	cbz	r2, 1658 <mbed::FilePath::FilePath(char const*)+0x54>
    162a:	1c8d      	adds	r5, r1, #2
    162c:	4619      	mov	r1, r3
    162e:	e000      	b.n	1632 <mbed::FilePath::FilePath(char const*)+0x2e>
    1630:	b152      	cbz	r2, 1648 <mbed::FilePath::FilePath(char const*)+0x44>
    1632:	6025      	str	r5, [r4, #0]
    1634:	782a      	ldrb	r2, [r5, #0]
    1636:	462b      	mov	r3, r5
    1638:	2a2f      	cmp	r2, #47	; 0x2f
    163a:	f101 0101 	add.w	r1, r1, #1
    163e:	f105 0501 	add.w	r5, r5, #1
    1642:	d1f5      	bne.n	1630 <mbed::FilePath::FilePath(char const*)+0x2c>
    1644:	3301      	adds	r3, #1
    1646:	6023      	str	r3, [r4, #0]
    1648:	f7ff ffc0 	bl	15cc <mbed::FileBase::lookup(char const*, unsigned int)>
    164c:	6060      	str	r0, [r4, #4]
    164e:	4620      	mov	r0, r4
    1650:	bd38      	pop	{r3, r4, r5, pc}
    1652:	4619      	mov	r1, r3
    1654:	4603      	mov	r3, r0
    1656:	e7f5      	b.n	1644 <mbed::FilePath::FilePath(char const*)+0x40>
    1658:	4611      	mov	r1, r2
    165a:	e7f5      	b.n	1648 <mbed::FilePath::FilePath(char const*)+0x44>

0000165c <mbed::FilePath::fileName()>:
    165c:	6800      	ldr	r0, [r0, #0]
    165e:	4770      	bx	lr

00001660 <mbed::FilePath::fileSystem()>:
    1660:	b510      	push	{r4, lr}
    1662:	4604      	mov	r4, r0
    1664:	6840      	ldr	r0, [r0, #4]
    1666:	b128      	cbz	r0, 1674 <mbed::FilePath::fileSystem()+0x14>
    1668:	f7ff ffca 	bl	1600 <mbed::FileBase::getPathType()>
    166c:	2801      	cmp	r0, #1
    166e:	d101      	bne.n	1674 <mbed::FilePath::fileSystem()+0x14>
    1670:	6860      	ldr	r0, [r4, #4]
    1672:	bd10      	pop	{r4, pc}
    1674:	2000      	movs	r0, #0
    1676:	bd10      	pop	{r4, pc}

00001678 <mbed::FilePath::isFile()>:
    1678:	6840      	ldr	r0, [r0, #4]
    167a:	b508      	push	{r3, lr}
    167c:	b128      	cbz	r0, 168a <mbed::FilePath::isFile()+0x12>
    167e:	f7ff ffbf 	bl	1600 <mbed::FileBase::getPathType()>
    1682:	f1d0 0001 	rsbs	r0, r0, #1
    1686:	bf38      	it	cc
    1688:	2000      	movcc	r0, #0
    168a:	bd08      	pop	{r3, pc}

0000168c <mbed::FilePath::file()>:
    168c:	b510      	push	{r4, lr}
    168e:	4604      	mov	r4, r0
    1690:	6840      	ldr	r0, [r0, #4]
    1692:	b130      	cbz	r0, 16a2 <mbed::FilePath::file()+0x16>
    1694:	f7ff ffb4 	bl	1600 <mbed::FileBase::getPathType()>
    1698:	b918      	cbnz	r0, 16a2 <mbed::FilePath::file()+0x16>
    169a:	6860      	ldr	r0, [r4, #4]
    169c:	b108      	cbz	r0, 16a2 <mbed::FilePath::file()+0x16>
    169e:	3804      	subs	r0, #4
    16a0:	bd10      	pop	{r4, pc}
    16a2:	2000      	movs	r0, #0
    16a4:	bd10      	pop	{r4, pc}
    16a6:	bf00      	nop

000016a8 <mbed::FilePath::exists()>:
    16a8:	6840      	ldr	r0, [r0, #4]
    16aa:	3000      	adds	r0, #0
    16ac:	bf18      	it	ne
    16ae:	2001      	movne	r0, #1
    16b0:	4770      	bx	lr
    16b2:	bf00      	nop

000016b4 <gpio_init>:
    16b4:	b538      	push	{r3, r4, r5, lr}
    16b6:	4604      	mov	r4, r0
    16b8:	1c4b      	adds	r3, r1, #1
    16ba:	460d      	mov	r5, r1
    16bc:	6021      	str	r1, [r4, #0]
    16be:	d014      	beq.n	16ea <gpio_init+0x36>
    16c0:	4608      	mov	r0, r1
    16c2:	2100      	movs	r1, #0
    16c4:	f000 f828 	bl	1718 <pin_function>
    16c8:	f005 031f 	and.w	r3, r5, #31
    16cc:	2001      	movs	r0, #1
    16ce:	4098      	lsls	r0, r3
    16d0:	f025 051f 	bic.w	r5, r5, #31
    16d4:	f105 0118 	add.w	r1, r5, #24
    16d8:	f105 021c 	add.w	r2, r5, #28
    16dc:	f105 0314 	add.w	r3, r5, #20
    16e0:	60a5      	str	r5, [r4, #8]
    16e2:	6060      	str	r0, [r4, #4]
    16e4:	60e1      	str	r1, [r4, #12]
    16e6:	6122      	str	r2, [r4, #16]
    16e8:	6163      	str	r3, [r4, #20]
    16ea:	bd38      	pop	{r3, r4, r5, pc}

000016ec <gpio_mode>:
    16ec:	6800      	ldr	r0, [r0, #0]
    16ee:	f000 b82b 	b.w	1748 <pin_mode>
    16f2:	bf00      	nop

000016f4 <gpio_dir>:
    16f4:	b141      	cbz	r1, 1708 <gpio_dir+0x14>
    16f6:	2901      	cmp	r1, #1
    16f8:	d105      	bne.n	1706 <gpio_dir+0x12>
    16fa:	6883      	ldr	r3, [r0, #8]
    16fc:	6842      	ldr	r2, [r0, #4]
    16fe:	6819      	ldr	r1, [r3, #0]
    1700:	430a      	orrs	r2, r1
    1702:	601a      	str	r2, [r3, #0]
    1704:	4770      	bx	lr
    1706:	4770      	bx	lr
    1708:	6883      	ldr	r3, [r0, #8]
    170a:	6841      	ldr	r1, [r0, #4]
    170c:	681a      	ldr	r2, [r3, #0]
    170e:	ea22 0201 	bic.w	r2, r2, r1
    1712:	601a      	str	r2, [r3, #0]
    1714:	4770      	bx	lr
    1716:	bf00      	nop

00001718 <pin_function>:
    1718:	f100 4060 	add.w	r0, r0, #3758096384	; 0xe0000000
    171c:	f5a0 201c 	sub.w	r0, r0, #638976	; 0x9c000
    1720:	f000 030f 	and.w	r3, r0, #15
    1724:	005b      	lsls	r3, r3, #1
    1726:	2203      	movs	r2, #3
    1728:	409a      	lsls	r2, r3
    172a:	4099      	lsls	r1, r3
    172c:	0903      	lsrs	r3, r0, #4
    172e:	009b      	lsls	r3, r3, #2
    1730:	f103 4380 	add.w	r3, r3, #1073741824	; 0x40000000
    1734:	f503 3330 	add.w	r3, r3, #180224	; 0x2c000
    1738:	6818      	ldr	r0, [r3, #0]
    173a:	ea20 0202 	bic.w	r2, r0, r2
    173e:	601a      	str	r2, [r3, #0]
    1740:	681a      	ldr	r2, [r3, #0]
    1742:	4311      	orrs	r1, r2
    1744:	6019      	str	r1, [r3, #0]
    1746:	4770      	bx	lr

00001748 <pin_mode>:
    1748:	f100 4060 	add.w	r0, r0, #3758096384	; 0xe0000000
    174c:	f5a0 201c 	sub.w	r0, r0, #638976	; 0x9c000
    1750:	b430      	push	{r4, r5}
    1752:	f3c1 0280 	ubfx	r2, r1, #2, #1
    1756:	f000 041f 	and.w	r4, r0, #31
    175a:	fa02 f404 	lsl.w	r4, r2, r4
    175e:	0943      	lsrs	r3, r0, #5
    1760:	009b      	lsls	r3, r3, #2
    1762:	f103 4380 	add.w	r3, r3, #1073741824	; 0x40000000
    1766:	f503 3330 	add.w	r3, r3, #180224	; 0x2c000
    176a:	6e9d      	ldr	r5, [r3, #104]	; 0x68
    176c:	ea25 0504 	bic.w	r5, r5, r4
    1770:	669d      	str	r5, [r3, #104]	; 0x68
    1772:	6e9d      	ldr	r5, [r3, #104]	; 0x68
    1774:	432c      	orrs	r4, r5
    1776:	669c      	str	r4, [r3, #104]	; 0x68
    1778:	b99a      	cbnz	r2, 17a2 <pin_mode+0x5a>
    177a:	f000 030f 	and.w	r3, r0, #15
    177e:	005b      	lsls	r3, r3, #1
    1780:	2203      	movs	r2, #3
    1782:	409a      	lsls	r2, r3
    1784:	fa01 f303 	lsl.w	r3, r1, r3
    1788:	0900      	lsrs	r0, r0, #4
    178a:	0080      	lsls	r0, r0, #2
    178c:	f100 4080 	add.w	r0, r0, #1073741824	; 0x40000000
    1790:	f500 3030 	add.w	r0, r0, #180224	; 0x2c000
    1794:	6c01      	ldr	r1, [r0, #64]	; 0x40
    1796:	ea21 0202 	bic.w	r2, r1, r2
    179a:	6402      	str	r2, [r0, #64]	; 0x40
    179c:	6c02      	ldr	r2, [r0, #64]	; 0x40
    179e:	4313      	orrs	r3, r2
    17a0:	6403      	str	r3, [r0, #64]	; 0x40
    17a2:	bc30      	pop	{r4, r5}
    17a4:	4770      	bx	lr
    17a6:	bf00      	nop

000017a8 <us_ticker_init>:
    17a8:	4a13      	ldr	r2, [pc, #76]	; (17f8 <us_ticker_init+0x50>)
    17aa:	b538      	push	{r3, r4, r5, lr}
    17ac:	6813      	ldr	r3, [r2, #0]
    17ae:	bb0b      	cbnz	r3, 17f4 <us_ticker_init+0x4c>
    17b0:	4912      	ldr	r1, [pc, #72]	; (17fc <us_ticker_init+0x54>)
    17b2:	2401      	movs	r4, #1
    17b4:	f8d1 50c4 	ldr.w	r5, [r1, #196]	; 0xc4
    17b8:	6014      	str	r4, [r2, #0]
    17ba:	4a11      	ldr	r2, [pc, #68]	; (1800 <us_ticker_init+0x58>)
    17bc:	4811      	ldr	r0, [pc, #68]	; (1804 <us_ticker_init+0x5c>)
    17be:	f445 0500 	orr.w	r5, r5, #8388608	; 0x800000
    17c2:	f8c1 50c4 	str.w	r5, [r1, #196]	; 0xc4
    17c6:	6713      	str	r3, [r2, #112]	; 0x70
    17c8:	6803      	ldr	r3, [r0, #0]
    17ca:	f101 7143 	add.w	r1, r1, #51118080	; 0x30c0000
    17ce:	f501 51f4 	add.w	r1, r1, #7808	; 0x1e80
    17d2:	3103      	adds	r1, #3
    17d4:	089b      	lsrs	r3, r3, #2
    17d6:	fba1 0303 	umull	r0, r3, r1, r3
    17da:	0c9b      	lsrs	r3, r3, #18
    17dc:	3b01      	subs	r3, #1
    17de:	2102      	movs	r1, #2
    17e0:	6051      	str	r1, [r2, #4]
    17e2:	2004      	movs	r0, #4
    17e4:	60d3      	str	r3, [r2, #12]
    17e6:	4908      	ldr	r1, [pc, #32]	; (1808 <us_ticker_init+0x60>)
    17e8:	6054      	str	r4, [r2, #4]
    17ea:	f7ff fd41 	bl	1270 <NVIC_SetVector>
    17ee:	4b07      	ldr	r3, [pc, #28]	; (180c <us_ticker_init+0x64>)
    17f0:	2210      	movs	r2, #16
    17f2:	601a      	str	r2, [r3, #0]
    17f4:	bd38      	pop	{r3, r4, r5, pc}
    17f6:	bf00      	nop
    17f8:	10000360 	.word	0x10000360
    17fc:	400fc000 	.word	0x400fc000
    1800:	40094000 	.word	0x40094000
    1804:	100000d0 	.word	0x100000d0
    1808:	0000185d 	.word	0x0000185d
    180c:	e000e100 	.word	0xe000e100

00001810 <us_ticker_read>:
    1810:	b508      	push	{r3, lr}
    1812:	4b04      	ldr	r3, [pc, #16]	; (1824 <us_ticker_read+0x14>)
    1814:	681b      	ldr	r3, [r3, #0]
    1816:	b90b      	cbnz	r3, 181c <us_ticker_read+0xc>
    1818:	f7ff ffc6 	bl	17a8 <us_ticker_init>
    181c:	4b02      	ldr	r3, [pc, #8]	; (1828 <us_ticker_read+0x18>)
    181e:	6898      	ldr	r0, [r3, #8]
    1820:	bd08      	pop	{r3, pc}
    1822:	bf00      	nop
    1824:	10000360 	.word	0x10000360
    1828:	40094000 	.word	0x40094000

0000182c <us_ticker_set_interrupt>:
    182c:	4b03      	ldr	r3, [pc, #12]	; (183c <us_ticker_set_interrupt+0x10>)
    182e:	6198      	str	r0, [r3, #24]
    1830:	695a      	ldr	r2, [r3, #20]
    1832:	f042 0201 	orr.w	r2, r2, #1
    1836:	615a      	str	r2, [r3, #20]
    1838:	4770      	bx	lr
    183a:	bf00      	nop
    183c:	40094000 	.word	0x40094000

00001840 <us_ticker_disable_interrupt>:
    1840:	4b02      	ldr	r3, [pc, #8]	; (184c <us_ticker_disable_interrupt+0xc>)
    1842:	695a      	ldr	r2, [r3, #20]
    1844:	f022 0201 	bic.w	r2, r2, #1
    1848:	615a      	str	r2, [r3, #20]
    184a:	4770      	bx	lr
    184c:	40094000 	.word	0x40094000

00001850 <us_ticker_clear_interrupt>:
    1850:	4b01      	ldr	r3, [pc, #4]	; (1858 <us_ticker_clear_interrupt+0x8>)
    1852:	2201      	movs	r2, #1
    1854:	601a      	str	r2, [r3, #0]
    1856:	4770      	bx	lr
    1858:	40094000 	.word	0x40094000

0000185c <us_ticker_irq_handler>:
    185c:	b5f8      	push	{r3, r4, r5, r6, r7, lr}
    185e:	f7ff fff7 	bl	1850 <us_ticker_clear_interrupt>
    1862:	4e12      	ldr	r6, [pc, #72]	; (18ac <us_ticker_irq_handler+0x50>)
    1864:	4f12      	ldr	r7, [pc, #72]	; (18b0 <us_ticker_irq_handler+0x54>)
    1866:	6833      	ldr	r3, [r6, #0]
    1868:	b1ab      	cbz	r3, 1896 <us_ticker_irq_handler+0x3a>
    186a:	e9d3 4500 	ldrd	r4, r5, [r3]
    186e:	f7ff ffcf 	bl	1810 <us_ticker_read>
    1872:	1a22      	subs	r2, r4, r0
    1874:	f165 0300 	sbc.w	r3, r5, #0
    1878:	4610      	mov	r0, r2
    187a:	4619      	mov	r1, r3
    187c:	2801      	cmp	r0, #1
    187e:	f171 0300 	sbcs.w	r3, r1, #0
    1882:	da0c      	bge.n	189e <us_ticker_irq_handler+0x42>
    1884:	6831      	ldr	r1, [r6, #0]
    1886:	683a      	ldr	r2, [r7, #0]
    1888:	68cb      	ldr	r3, [r1, #12]
    188a:	6033      	str	r3, [r6, #0]
    188c:	2a00      	cmp	r2, #0
    188e:	d0eb      	beq.n	1868 <us_ticker_irq_handler+0xc>
    1890:	6888      	ldr	r0, [r1, #8]
    1892:	4790      	blx	r2
    1894:	e7e7      	b.n	1866 <us_ticker_irq_handler+0xa>
    1896:	e8bd 40f8 	ldmia.w	sp!, {r3, r4, r5, r6, r7, lr}
    189a:	f7ff bfd1 	b.w	1840 <us_ticker_disable_interrupt>
    189e:	6833      	ldr	r3, [r6, #0]
    18a0:	e9d3 0100 	ldrd	r0, r1, [r3]
    18a4:	e8bd 40f8 	ldmia.w	sp!, {r3, r4, r5, r6, r7, lr}
    18a8:	f7ff bfc0 	b.w	182c <us_ticker_set_interrupt>
    18ac:	10000364 	.word	0x10000364
    18b0:	10000368 	.word	0x10000368

000018b4 <__aeabi_atexit>:
    18b4:	4603      	mov	r3, r0
    18b6:	4608      	mov	r0, r1
    18b8:	4619      	mov	r1, r3
    18ba:	f000 b819 	b.w	18f0 <__cxa_atexit>

000018be <operator delete(void*)>:
    18be:	b108      	cbz	r0, 18c4 <operator delete(void*)+0x6>
    18c0:	f7fe bcea 	b.w	298 <__wrap_free>
    18c4:	4770      	bx	lr
	...

000018c8 <operator new(unsigned int)>:
    18c8:	b510      	push	{r4, lr}
    18ca:	2800      	cmp	r0, #0
    18cc:	bf14      	ite	ne
    18ce:	4604      	movne	r4, r0
    18d0:	2401      	moveq	r4, #1
    18d2:	4620      	mov	r0, r4
    18d4:	f7fe fcda 	bl	28c <__wrap_malloc>
    18d8:	b930      	cbnz	r0, 18e8 <operator new(unsigned int)+0x20>
    18da:	4b04      	ldr	r3, [pc, #16]	; (18ec <operator new(unsigned int)+0x24>)
    18dc:	681b      	ldr	r3, [r3, #0]
    18de:	b90b      	cbnz	r3, 18e4 <operator new(unsigned int)+0x1c>
    18e0:	f7fe fce0 	bl	2a4 <abort>
    18e4:	4798      	blx	r3
    18e6:	e7f4      	b.n	18d2 <operator new(unsigned int)+0xa>
    18e8:	bd10      	pop	{r4, pc}
    18ea:	bf00      	nop
    18ec:	1000036c 	.word	0x1000036c

000018f0 <__cxa_atexit>:
    18f0:	b570      	push	{r4, r5, r6, lr}
    18f2:	4c06      	ldr	r4, [pc, #24]	; (190c <__cxa_atexit+0x1c>)
    18f4:	4606      	mov	r6, r0
    18f6:	460d      	mov	r5, r1
    18f8:	4613      	mov	r3, r2
    18fa:	b12c      	cbz	r4, 1908 <__cxa_atexit+0x18>
    18fc:	4631      	mov	r1, r6
    18fe:	462a      	mov	r2, r5
    1900:	2002      	movs	r0, #2
    1902:	f3af 8000 	nop.w
    1906:	bd70      	pop	{r4, r5, r6, pc}
    1908:	4620      	mov	r0, r4
    190a:	bd70      	pop	{r4, r5, r6, pc}
    190c:	00000000 	.word	0x00000000

00001910 <__errno>:
    1910:	4b01      	ldr	r3, [pc, #4]	; (1918 <__errno+0x8>)
    1912:	6818      	ldr	r0, [r3, #0]
    1914:	4770      	bx	lr
    1916:	bf00      	nop
    1918:	10000134 	.word	0x10000134

0000191c <_fclose_r>:
    191c:	b570      	push	{r4, r5, r6, lr}
    191e:	4605      	mov	r5, r0
    1920:	460c      	mov	r4, r1
    1922:	b909      	cbnz	r1, 1928 <_fclose_r+0xc>
    1924:	2000      	movs	r0, #0
    1926:	bd70      	pop	{r4, r5, r6, pc}
    1928:	b118      	cbz	r0, 1932 <_fclose_r+0x16>
    192a:	6983      	ldr	r3, [r0, #24]
    192c:	b90b      	cbnz	r3, 1932 <_fclose_r+0x16>
    192e:	f000 f963 	bl	1bf8 <__sinit>
    1932:	4b20      	ldr	r3, [pc, #128]	; (19b4 <_fclose_r+0x98>)
    1934:	429c      	cmp	r4, r3
    1936:	d101      	bne.n	193c <_fclose_r+0x20>
    1938:	686c      	ldr	r4, [r5, #4]
    193a:	e008      	b.n	194e <_fclose_r+0x32>
    193c:	4b1e      	ldr	r3, [pc, #120]	; (19b8 <_fclose_r+0x9c>)
    193e:	429c      	cmp	r4, r3
    1940:	d101      	bne.n	1946 <_fclose_r+0x2a>
    1942:	68ac      	ldr	r4, [r5, #8]
    1944:	e003      	b.n	194e <_fclose_r+0x32>
    1946:	4b1d      	ldr	r3, [pc, #116]	; (19bc <_fclose_r+0xa0>)
    1948:	429c      	cmp	r4, r3
    194a:	bf08      	it	eq
    194c:	68ec      	ldreq	r4, [r5, #12]
    194e:	f9b4 300c 	ldrsh.w	r3, [r4, #12]
    1952:	2b00      	cmp	r3, #0
    1954:	d0e6      	beq.n	1924 <_fclose_r+0x8>
    1956:	4628      	mov	r0, r5
    1958:	4621      	mov	r1, r4
    195a:	f000 f8bd 	bl	1ad8 <_fflush_r>
    195e:	6b23      	ldr	r3, [r4, #48]	; 0x30
    1960:	4606      	mov	r6, r0
    1962:	b133      	cbz	r3, 1972 <_fclose_r+0x56>
    1964:	4628      	mov	r0, r5
    1966:	6a21      	ldr	r1, [r4, #32]
    1968:	4798      	blx	r3
    196a:	2800      	cmp	r0, #0
    196c:	bfb8      	it	lt
    196e:	f04f 36ff 	movlt.w	r6, #4294967295	; 0xffffffff
    1972:	89a3      	ldrh	r3, [r4, #12]
    1974:	061b      	lsls	r3, r3, #24
    1976:	d503      	bpl.n	1980 <_fclose_r+0x64>
    1978:	4628      	mov	r0, r5
    197a:	6921      	ldr	r1, [r4, #16]
    197c:	f000 fc28 	bl	21d0 <_free_r>
    1980:	6b61      	ldr	r1, [r4, #52]	; 0x34
    1982:	b141      	cbz	r1, 1996 <_fclose_r+0x7a>
    1984:	f104 0344 	add.w	r3, r4, #68	; 0x44
    1988:	4299      	cmp	r1, r3
    198a:	d002      	beq.n	1992 <_fclose_r+0x76>
    198c:	4628      	mov	r0, r5
    198e:	f000 fc1f 	bl	21d0 <_free_r>
    1992:	2300      	movs	r3, #0
    1994:	6363      	str	r3, [r4, #52]	; 0x34
    1996:	6ca1      	ldr	r1, [r4, #72]	; 0x48
    1998:	b121      	cbz	r1, 19a4 <_fclose_r+0x88>
    199a:	4628      	mov	r0, r5
    199c:	f000 fc18 	bl	21d0 <_free_r>
    19a0:	2300      	movs	r3, #0
    19a2:	64a3      	str	r3, [r4, #72]	; 0x48
    19a4:	f000 f992 	bl	1ccc <__sfp_lock_acquire>
    19a8:	2300      	movs	r3, #0
    19aa:	81a3      	strh	r3, [r4, #12]
    19ac:	f000 f98f 	bl	1cce <__sfp_lock_release>
    19b0:	4630      	mov	r0, r6
    19b2:	bd70      	pop	{r4, r5, r6, pc}
    19b4:	00003b90 	.word	0x00003b90
    19b8:	00003bb0 	.word	0x00003bb0
    19bc:	00003bd0 	.word	0x00003bd0

000019c0 <fclose>:
    19c0:	4b02      	ldr	r3, [pc, #8]	; (19cc <fclose+0xc>)
    19c2:	4601      	mov	r1, r0
    19c4:	6818      	ldr	r0, [r3, #0]
    19c6:	f7ff bfa9 	b.w	191c <_fclose_r>
    19ca:	bf00      	nop
    19cc:	10000134 	.word	0x10000134

000019d0 <__sflush_r>:
    19d0:	898a      	ldrh	r2, [r1, #12]
    19d2:	e92d 41f0 	stmdb	sp!, {r4, r5, r6, r7, r8, lr}
    19d6:	4605      	mov	r5, r0
    19d8:	0710      	lsls	r0, r2, #28
    19da:	460c      	mov	r4, r1
    19dc:	d457      	bmi.n	1a8e <__sflush_r+0xbe>
    19de:	684b      	ldr	r3, [r1, #4]
    19e0:	2b00      	cmp	r3, #0
    19e2:	dc02      	bgt.n	19ea <__sflush_r+0x1a>
    19e4:	6c0b      	ldr	r3, [r1, #64]	; 0x40
    19e6:	2b00      	cmp	r3, #0
    19e8:	dd18      	ble.n	1a1c <__sflush_r+0x4c>
    19ea:	6ae6      	ldr	r6, [r4, #44]	; 0x2c
    19ec:	b1b6      	cbz	r6, 1a1c <__sflush_r+0x4c>
    19ee:	f402 5280 	and.w	r2, r2, #4096	; 0x1000
    19f2:	2300      	movs	r3, #0
    19f4:	b292      	uxth	r2, r2
    19f6:	682f      	ldr	r7, [r5, #0]
    19f8:	602b      	str	r3, [r5, #0]
    19fa:	b10a      	cbz	r2, 1a00 <__sflush_r+0x30>
    19fc:	6d62      	ldr	r2, [r4, #84]	; 0x54
    19fe:	e010      	b.n	1a22 <__sflush_r+0x52>
    1a00:	6a21      	ldr	r1, [r4, #32]
    1a02:	4628      	mov	r0, r5
    1a04:	2301      	movs	r3, #1
    1a06:	47b0      	blx	r6
    1a08:	1c41      	adds	r1, r0, #1
    1a0a:	4602      	mov	r2, r0
    1a0c:	d109      	bne.n	1a22 <__sflush_r+0x52>
    1a0e:	682b      	ldr	r3, [r5, #0]
    1a10:	b13b      	cbz	r3, 1a22 <__sflush_r+0x52>
    1a12:	2b1d      	cmp	r3, #29
    1a14:	d001      	beq.n	1a1a <__sflush_r+0x4a>
    1a16:	2b16      	cmp	r3, #22
    1a18:	d146      	bne.n	1aa8 <__sflush_r+0xd8>
    1a1a:	602f      	str	r7, [r5, #0]
    1a1c:	2000      	movs	r0, #0
    1a1e:	e8bd 81f0 	ldmia.w	sp!, {r4, r5, r6, r7, r8, pc}
    1a22:	89a3      	ldrh	r3, [r4, #12]
    1a24:	075b      	lsls	r3, r3, #29
    1a26:	d505      	bpl.n	1a34 <__sflush_r+0x64>
    1a28:	6863      	ldr	r3, [r4, #4]
    1a2a:	1ad2      	subs	r2, r2, r3
    1a2c:	6b63      	ldr	r3, [r4, #52]	; 0x34
    1a2e:	b10b      	cbz	r3, 1a34 <__sflush_r+0x64>
    1a30:	6c23      	ldr	r3, [r4, #64]	; 0x40
    1a32:	1ad2      	subs	r2, r2, r3
    1a34:	6ae6      	ldr	r6, [r4, #44]	; 0x2c
    1a36:	4628      	mov	r0, r5
    1a38:	6a21      	ldr	r1, [r4, #32]
    1a3a:	2300      	movs	r3, #0
    1a3c:	47b0      	blx	r6
    1a3e:	1c46      	adds	r6, r0, #1
    1a40:	89a2      	ldrh	r2, [r4, #12]
    1a42:	d105      	bne.n	1a50 <__sflush_r+0x80>
    1a44:	682b      	ldr	r3, [r5, #0]
    1a46:	b11b      	cbz	r3, 1a50 <__sflush_r+0x80>
    1a48:	2b1d      	cmp	r3, #29
    1a4a:	d001      	beq.n	1a50 <__sflush_r+0x80>
    1a4c:	2b16      	cmp	r3, #22
    1a4e:	d119      	bne.n	1a84 <__sflush_r+0xb4>
    1a50:	2300      	movs	r3, #0
    1a52:	6063      	str	r3, [r4, #4]
    1a54:	6923      	ldr	r3, [r4, #16]
    1a56:	04d1      	lsls	r1, r2, #19
    1a58:	6023      	str	r3, [r4, #0]
    1a5a:	d504      	bpl.n	1a66 <__sflush_r+0x96>
    1a5c:	1c42      	adds	r2, r0, #1
    1a5e:	d101      	bne.n	1a64 <__sflush_r+0x94>
    1a60:	682b      	ldr	r3, [r5, #0]
    1a62:	b903      	cbnz	r3, 1a66 <__sflush_r+0x96>
    1a64:	6560      	str	r0, [r4, #84]	; 0x54
    1a66:	6b61      	ldr	r1, [r4, #52]	; 0x34
    1a68:	602f      	str	r7, [r5, #0]
    1a6a:	2900      	cmp	r1, #0
    1a6c:	d0d6      	beq.n	1a1c <__sflush_r+0x4c>
    1a6e:	f104 0344 	add.w	r3, r4, #68	; 0x44
    1a72:	4299      	cmp	r1, r3
    1a74:	d002      	beq.n	1a7c <__sflush_r+0xac>
    1a76:	4628      	mov	r0, r5
    1a78:	f000 fbaa 	bl	21d0 <_free_r>
    1a7c:	2000      	movs	r0, #0
    1a7e:	6360      	str	r0, [r4, #52]	; 0x34
    1a80:	e8bd 81f0 	ldmia.w	sp!, {r4, r5, r6, r7, r8, pc}
    1a84:	f042 0240 	orr.w	r2, r2, #64	; 0x40
    1a88:	81a2      	strh	r2, [r4, #12]
    1a8a:	e8bd 81f0 	ldmia.w	sp!, {r4, r5, r6, r7, r8, pc}
    1a8e:	690e      	ldr	r6, [r1, #16]
    1a90:	2e00      	cmp	r6, #0
    1a92:	d0c3      	beq.n	1a1c <__sflush_r+0x4c>
    1a94:	680b      	ldr	r3, [r1, #0]
    1a96:	600e      	str	r6, [r1, #0]
    1a98:	ebc6 0803 	rsb	r8, r6, r3
    1a9c:	0793      	lsls	r3, r2, #30
    1a9e:	bf0c      	ite	eq
    1aa0:	694b      	ldreq	r3, [r1, #20]
    1aa2:	2300      	movne	r3, #0
    1aa4:	608b      	str	r3, [r1, #8]
    1aa6:	e012      	b.n	1ace <__sflush_r+0xfe>
    1aa8:	89a3      	ldrh	r3, [r4, #12]
    1aaa:	f04f 30ff 	mov.w	r0, #4294967295	; 0xffffffff
    1aae:	f043 0340 	orr.w	r3, r3, #64	; 0x40
    1ab2:	81a3      	strh	r3, [r4, #12]
    1ab4:	e8bd 81f0 	ldmia.w	sp!, {r4, r5, r6, r7, r8, pc}
    1ab8:	6aa7      	ldr	r7, [r4, #40]	; 0x28
    1aba:	4628      	mov	r0, r5
    1abc:	6a21      	ldr	r1, [r4, #32]
    1abe:	4632      	mov	r2, r6
    1ac0:	4643      	mov	r3, r8
    1ac2:	47b8      	blx	r7
    1ac4:	2800      	cmp	r0, #0
    1ac6:	ddef      	ble.n	1aa8 <__sflush_r+0xd8>
    1ac8:	4406      	add	r6, r0
    1aca:	ebc0 0808 	rsb	r8, r0, r8
    1ace:	f1b8 0f00 	cmp.w	r8, #0
    1ad2:	dcf1      	bgt.n	1ab8 <__sflush_r+0xe8>
    1ad4:	e7a2      	b.n	1a1c <__sflush_r+0x4c>
	...

00001ad8 <_fflush_r>:
    1ad8:	b538      	push	{r3, r4, r5, lr}
    1ada:	690b      	ldr	r3, [r1, #16]
    1adc:	4605      	mov	r5, r0
    1ade:	460c      	mov	r4, r1
    1ae0:	b1db      	cbz	r3, 1b1a <_fflush_r+0x42>
    1ae2:	b118      	cbz	r0, 1aec <_fflush_r+0x14>
    1ae4:	6983      	ldr	r3, [r0, #24]
    1ae6:	b90b      	cbnz	r3, 1aec <_fflush_r+0x14>
    1ae8:	f000 f886 	bl	1bf8 <__sinit>
    1aec:	4b0c      	ldr	r3, [pc, #48]	; (1b20 <_fflush_r+0x48>)
    1aee:	429c      	cmp	r4, r3
    1af0:	d101      	bne.n	1af6 <_fflush_r+0x1e>
    1af2:	686c      	ldr	r4, [r5, #4]
    1af4:	e008      	b.n	1b08 <_fflush_r+0x30>
    1af6:	4b0b      	ldr	r3, [pc, #44]	; (1b24 <_fflush_r+0x4c>)
    1af8:	429c      	cmp	r4, r3
    1afa:	d101      	bne.n	1b00 <_fflush_r+0x28>
    1afc:	68ac      	ldr	r4, [r5, #8]
    1afe:	e003      	b.n	1b08 <_fflush_r+0x30>
    1b00:	4b09      	ldr	r3, [pc, #36]	; (1b28 <_fflush_r+0x50>)
    1b02:	429c      	cmp	r4, r3
    1b04:	bf08      	it	eq
    1b06:	68ec      	ldreq	r4, [r5, #12]
    1b08:	f9b4 300c 	ldrsh.w	r3, [r4, #12]
    1b0c:	b12b      	cbz	r3, 1b1a <_fflush_r+0x42>
    1b0e:	4628      	mov	r0, r5
    1b10:	4621      	mov	r1, r4
    1b12:	e8bd 4038 	ldmia.w	sp!, {r3, r4, r5, lr}
    1b16:	f7ff bf5b 	b.w	19d0 <__sflush_r>
    1b1a:	2000      	movs	r0, #0
    1b1c:	bd38      	pop	{r3, r4, r5, pc}
    1b1e:	bf00      	nop
    1b20:	00003b90 	.word	0x00003b90
    1b24:	00003bb0 	.word	0x00003bb0
    1b28:	00003bd0 	.word	0x00003bd0

00001b2c <fflush>:
    1b2c:	4601      	mov	r1, r0
    1b2e:	b920      	cbnz	r0, 1b3a <fflush+0xe>
    1b30:	4b04      	ldr	r3, [pc, #16]	; (1b44 <fflush+0x18>)
    1b32:	4905      	ldr	r1, [pc, #20]	; (1b48 <fflush+0x1c>)
    1b34:	6818      	ldr	r0, [r3, #0]
    1b36:	f000 ba23 	b.w	1f80 <_fwalk_reent>
    1b3a:	4b04      	ldr	r3, [pc, #16]	; (1b4c <fflush+0x20>)
    1b3c:	6818      	ldr	r0, [r3, #0]
    1b3e:	f7ff bfcb 	b.w	1ad8 <_fflush_r>
    1b42:	bf00      	nop
    1b44:	00003bf4 	.word	0x00003bf4
    1b48:	00001ad9 	.word	0x00001ad9
    1b4c:	10000134 	.word	0x10000134

00001b50 <_cleanup_r>:
    1b50:	b5f8      	push	{r3, r4, r5, r6, r7, lr}
    1b52:	4607      	mov	r7, r0
    1b54:	f100 0448 	add.w	r4, r0, #72	; 0x48
    1b58:	b194      	cbz	r4, 1b80 <_cleanup_r+0x30>
    1b5a:	68a5      	ldr	r5, [r4, #8]
    1b5c:	6866      	ldr	r6, [r4, #4]
    1b5e:	3e01      	subs	r6, #1
    1b60:	d40c      	bmi.n	1b7c <_cleanup_r+0x2c>
    1b62:	89ab      	ldrh	r3, [r5, #12]
    1b64:	2b01      	cmp	r3, #1
    1b66:	d907      	bls.n	1b78 <_cleanup_r+0x28>
    1b68:	f9b5 300e 	ldrsh.w	r3, [r5, #14]
    1b6c:	3301      	adds	r3, #1
    1b6e:	d003      	beq.n	1b78 <_cleanup_r+0x28>
    1b70:	4638      	mov	r0, r7
    1b72:	4629      	mov	r1, r5
    1b74:	f7ff ffb0 	bl	1ad8 <_fflush_r>
    1b78:	3568      	adds	r5, #104	; 0x68
    1b7a:	e7f0      	b.n	1b5e <_cleanup_r+0xe>
    1b7c:	6824      	ldr	r4, [r4, #0]
    1b7e:	e7eb      	b.n	1b58 <_cleanup_r+0x8>
    1b80:	bdf8      	pop	{r3, r4, r5, r6, r7, pc}
	...

00001b84 <std.isra.0>:
    1b84:	2300      	movs	r3, #0
    1b86:	b510      	push	{r4, lr}
    1b88:	4604      	mov	r4, r0
    1b8a:	6003      	str	r3, [r0, #0]
    1b8c:	6043      	str	r3, [r0, #4]
    1b8e:	6083      	str	r3, [r0, #8]
    1b90:	8181      	strh	r1, [r0, #12]
    1b92:	6643      	str	r3, [r0, #100]	; 0x64
    1b94:	81c2      	strh	r2, [r0, #14]
    1b96:	6103      	str	r3, [r0, #16]
    1b98:	6143      	str	r3, [r0, #20]
    1b9a:	6183      	str	r3, [r0, #24]
    1b9c:	4619      	mov	r1, r3
    1b9e:	305c      	adds	r0, #92	; 0x5c
    1ba0:	2208      	movs	r2, #8
    1ba2:	f000 fb0d 	bl	21c0 <memset>
    1ba6:	4b05      	ldr	r3, [pc, #20]	; (1bbc <std.isra.0+0x38>)
    1ba8:	6224      	str	r4, [r4, #32]
    1baa:	6263      	str	r3, [r4, #36]	; 0x24
    1bac:	4b04      	ldr	r3, [pc, #16]	; (1bc0 <std.isra.0+0x3c>)
    1bae:	62a3      	str	r3, [r4, #40]	; 0x28
    1bb0:	4b04      	ldr	r3, [pc, #16]	; (1bc4 <std.isra.0+0x40>)
    1bb2:	62e3      	str	r3, [r4, #44]	; 0x2c
    1bb4:	4b04      	ldr	r3, [pc, #16]	; (1bc8 <std.isra.0+0x44>)
    1bb6:	6323      	str	r3, [r4, #48]	; 0x30
    1bb8:	bd10      	pop	{r4, pc}
    1bba:	bf00      	nop
    1bbc:	00002589 	.word	0x00002589
    1bc0:	000025af 	.word	0x000025af
    1bc4:	000025e7 	.word	0x000025e7
    1bc8:	0000260b 	.word	0x0000260b

00001bcc <__sfmoreglue>:
    1bcc:	b570      	push	{r4, r5, r6, lr}
    1bce:	1e4b      	subs	r3, r1, #1
    1bd0:	2568      	movs	r5, #104	; 0x68
    1bd2:	435d      	muls	r5, r3
    1bd4:	460e      	mov	r6, r1
    1bd6:	f105 0174 	add.w	r1, r5, #116	; 0x74
    1bda:	f000 fb3d 	bl	2258 <_malloc_r>
    1bde:	4604      	mov	r4, r0
    1be0:	b140      	cbz	r0, 1bf4 <__sfmoreglue+0x28>
    1be2:	2100      	movs	r1, #0
    1be4:	e880 0042 	stmia.w	r0, {r1, r6}
    1be8:	300c      	adds	r0, #12
    1bea:	60a0      	str	r0, [r4, #8]
    1bec:	f105 0268 	add.w	r2, r5, #104	; 0x68
    1bf0:	f000 fae6 	bl	21c0 <memset>
    1bf4:	4620      	mov	r0, r4
    1bf6:	bd70      	pop	{r4, r5, r6, pc}

00001bf8 <__sinit>:
    1bf8:	6983      	ldr	r3, [r0, #24]
    1bfa:	b510      	push	{r4, lr}
    1bfc:	4604      	mov	r4, r0
    1bfe:	bb33      	cbnz	r3, 1c4e <__sinit+0x56>
    1c00:	6483      	str	r3, [r0, #72]	; 0x48
    1c02:	64c3      	str	r3, [r0, #76]	; 0x4c
    1c04:	6503      	str	r3, [r0, #80]	; 0x50
    1c06:	4b12      	ldr	r3, [pc, #72]	; (1c50 <__sinit+0x58>)
    1c08:	4a12      	ldr	r2, [pc, #72]	; (1c54 <__sinit+0x5c>)
    1c0a:	681b      	ldr	r3, [r3, #0]
    1c0c:	6282      	str	r2, [r0, #40]	; 0x28
    1c0e:	4298      	cmp	r0, r3
    1c10:	bf04      	itt	eq
    1c12:	2301      	moveq	r3, #1
    1c14:	6183      	streq	r3, [r0, #24]
    1c16:	f000 f81f 	bl	1c58 <__sfp>
    1c1a:	6060      	str	r0, [r4, #4]
    1c1c:	4620      	mov	r0, r4
    1c1e:	f000 f81b 	bl	1c58 <__sfp>
    1c22:	60a0      	str	r0, [r4, #8]
    1c24:	4620      	mov	r0, r4
    1c26:	f000 f817 	bl	1c58 <__sfp>
    1c2a:	2104      	movs	r1, #4
    1c2c:	60e0      	str	r0, [r4, #12]
    1c2e:	2200      	movs	r2, #0
    1c30:	6860      	ldr	r0, [r4, #4]
    1c32:	f7ff ffa7 	bl	1b84 <std.isra.0>
    1c36:	68a0      	ldr	r0, [r4, #8]
    1c38:	2109      	movs	r1, #9
    1c3a:	2201      	movs	r2, #1
    1c3c:	f7ff ffa2 	bl	1b84 <std.isra.0>
    1c40:	68e0      	ldr	r0, [r4, #12]
    1c42:	2112      	movs	r1, #18
    1c44:	2202      	movs	r2, #2
    1c46:	f7ff ff9d 	bl	1b84 <std.isra.0>
    1c4a:	2301      	movs	r3, #1
    1c4c:	61a3      	str	r3, [r4, #24]
    1c4e:	bd10      	pop	{r4, pc}
    1c50:	00003bf4 	.word	0x00003bf4
    1c54:	00001b51 	.word	0x00001b51

00001c58 <__sfp>:
    1c58:	b5f8      	push	{r3, r4, r5, r6, r7, lr}
    1c5a:	4b1b      	ldr	r3, [pc, #108]	; (1cc8 <__sfp+0x70>)
    1c5c:	4607      	mov	r7, r0
    1c5e:	681e      	ldr	r6, [r3, #0]
    1c60:	69b3      	ldr	r3, [r6, #24]
    1c62:	b913      	cbnz	r3, 1c6a <__sfp+0x12>
    1c64:	4630      	mov	r0, r6
    1c66:	f7ff ffc7 	bl	1bf8 <__sinit>
    1c6a:	3648      	adds	r6, #72	; 0x48
    1c6c:	68b4      	ldr	r4, [r6, #8]
    1c6e:	6873      	ldr	r3, [r6, #4]
    1c70:	3b01      	subs	r3, #1
    1c72:	d404      	bmi.n	1c7e <__sfp+0x26>
    1c74:	f9b4 500c 	ldrsh.w	r5, [r4, #12]
    1c78:	b175      	cbz	r5, 1c98 <__sfp+0x40>
    1c7a:	3468      	adds	r4, #104	; 0x68
    1c7c:	e7f8      	b.n	1c70 <__sfp+0x18>
    1c7e:	6833      	ldr	r3, [r6, #0]
    1c80:	b92b      	cbnz	r3, 1c8e <__sfp+0x36>
    1c82:	4638      	mov	r0, r7
    1c84:	2104      	movs	r1, #4
    1c86:	f7ff ffa1 	bl	1bcc <__sfmoreglue>
    1c8a:	6030      	str	r0, [r6, #0]
    1c8c:	b108      	cbz	r0, 1c92 <__sfp+0x3a>
    1c8e:	6836      	ldr	r6, [r6, #0]
    1c90:	e7ec      	b.n	1c6c <__sfp+0x14>
    1c92:	230c      	movs	r3, #12
    1c94:	603b      	str	r3, [r7, #0]
    1c96:	bdf8      	pop	{r3, r4, r5, r6, r7, pc}
    1c98:	f64f 73ff 	movw	r3, #65535	; 0xffff
    1c9c:	81e3      	strh	r3, [r4, #14]
    1c9e:	2301      	movs	r3, #1
    1ca0:	81a3      	strh	r3, [r4, #12]
    1ca2:	6665      	str	r5, [r4, #100]	; 0x64
    1ca4:	6025      	str	r5, [r4, #0]
    1ca6:	60a5      	str	r5, [r4, #8]
    1ca8:	6065      	str	r5, [r4, #4]
    1caa:	6125      	str	r5, [r4, #16]
    1cac:	6165      	str	r5, [r4, #20]
    1cae:	61a5      	str	r5, [r4, #24]
    1cb0:	f104 005c 	add.w	r0, r4, #92	; 0x5c
    1cb4:	4629      	mov	r1, r5
    1cb6:	2208      	movs	r2, #8
    1cb8:	f000 fa82 	bl	21c0 <memset>
    1cbc:	6365      	str	r5, [r4, #52]	; 0x34
    1cbe:	63a5      	str	r5, [r4, #56]	; 0x38
    1cc0:	64a5      	str	r5, [r4, #72]	; 0x48
    1cc2:	64e5      	str	r5, [r4, #76]	; 0x4c
    1cc4:	4620      	mov	r0, r4
    1cc6:	bdf8      	pop	{r3, r4, r5, r6, r7, pc}
    1cc8:	00003bf4 	.word	0x00003bf4

00001ccc <__sfp_lock_acquire>:
    1ccc:	4770      	bx	lr

00001cce <__sfp_lock_release>:
    1cce:	4770      	bx	lr

00001cd0 <_fopen_r>:
    1cd0:	b5f7      	push	{r0, r1, r2, r4, r5, r6, r7, lr}
    1cd2:	460f      	mov	r7, r1
    1cd4:	4611      	mov	r1, r2
    1cd6:	aa01      	add	r2, sp, #4
    1cd8:	4605      	mov	r5, r0
    1cda:	f001 fb9f 	bl	341c <__sflags>
    1cde:	4606      	mov	r6, r0
    1ce0:	b908      	cbnz	r0, 1ce6 <_fopen_r+0x16>
    1ce2:	2000      	movs	r0, #0
    1ce4:	e029      	b.n	1d3a <_fopen_r+0x6a>
    1ce6:	4628      	mov	r0, r5
    1ce8:	f7ff ffb6 	bl	1c58 <__sfp>
    1cec:	4604      	mov	r4, r0
    1cee:	2800      	cmp	r0, #0
    1cf0:	d0f7      	beq.n	1ce2 <_fopen_r+0x12>
    1cf2:	4628      	mov	r0, r5
    1cf4:	4639      	mov	r1, r7
    1cf6:	9a01      	ldr	r2, [sp, #4]
    1cf8:	f44f 73db 	mov.w	r3, #438	; 0x1b6
    1cfc:	f000 fb00 	bl	2300 <_open_r>
    1d00:	2800      	cmp	r0, #0
    1d02:	da06      	bge.n	1d12 <_fopen_r+0x42>
    1d04:	2500      	movs	r5, #0
    1d06:	f7ff ffe1 	bl	1ccc <__sfp_lock_acquire>
    1d0a:	81a5      	strh	r5, [r4, #12]
    1d0c:	f7ff ffdf 	bl	1cce <__sfp_lock_release>
    1d10:	e7e7      	b.n	1ce2 <_fopen_r+0x12>
    1d12:	4b0b      	ldr	r3, [pc, #44]	; (1d40 <_fopen_r+0x70>)
    1d14:	81e0      	strh	r0, [r4, #14]
    1d16:	6263      	str	r3, [r4, #36]	; 0x24
    1d18:	4b0a      	ldr	r3, [pc, #40]	; (1d44 <_fopen_r+0x74>)
    1d1a:	81a6      	strh	r6, [r4, #12]
    1d1c:	62a3      	str	r3, [r4, #40]	; 0x28
    1d1e:	4b0a      	ldr	r3, [pc, #40]	; (1d48 <_fopen_r+0x78>)
    1d20:	6224      	str	r4, [r4, #32]
    1d22:	62e3      	str	r3, [r4, #44]	; 0x2c
    1d24:	4b09      	ldr	r3, [pc, #36]	; (1d4c <_fopen_r+0x7c>)
    1d26:	6323      	str	r3, [r4, #48]	; 0x30
    1d28:	05f3      	lsls	r3, r6, #23
    1d2a:	d505      	bpl.n	1d38 <_fopen_r+0x68>
    1d2c:	4628      	mov	r0, r5
    1d2e:	4621      	mov	r1, r4
    1d30:	2200      	movs	r2, #0
    1d32:	2302      	movs	r3, #2
    1d34:	f000 f878 	bl	1e28 <_fseek_r>
    1d38:	4620      	mov	r0, r4
    1d3a:	b003      	add	sp, #12
    1d3c:	bdf0      	pop	{r4, r5, r6, r7, pc}
    1d3e:	bf00      	nop
    1d40:	00002589 	.word	0x00002589
    1d44:	000025af 	.word	0x000025af
    1d48:	000025e7 	.word	0x000025e7
    1d4c:	0000260b 	.word	0x0000260b

00001d50 <fopen>:
    1d50:	460a      	mov	r2, r1
    1d52:	4903      	ldr	r1, [pc, #12]	; (1d60 <fopen+0x10>)
    1d54:	4603      	mov	r3, r0
    1d56:	6808      	ldr	r0, [r1, #0]
    1d58:	4619      	mov	r1, r3
    1d5a:	f7ff bfb9 	b.w	1cd0 <_fopen_r>
    1d5e:	bf00      	nop
    1d60:	10000134 	.word	0x10000134

00001d64 <_fread_r>:
    1d64:	e92d 4ff8 	stmdb	sp!, {r3, r4, r5, r6, r7, r8, r9, r10, r11, lr}
    1d68:	4692      	mov	r10, r2
    1d6a:	435a      	muls	r2, r3
    1d6c:	4606      	mov	r6, r0
    1d6e:	4688      	mov	r8, r1
    1d70:	4699      	mov	r9, r3
    1d72:	9c0a      	ldr	r4, [sp, #40]	; 0x28
    1d74:	4693      	mov	r11, r2
    1d76:	d03d      	beq.n	1df4 <_fread_r+0x90>
    1d78:	b118      	cbz	r0, 1d82 <_fread_r+0x1e>
    1d7a:	6983      	ldr	r3, [r0, #24]
    1d7c:	b90b      	cbnz	r3, 1d82 <_fread_r+0x1e>
    1d7e:	f7ff ff3b 	bl	1bf8 <__sinit>
    1d82:	4b1e      	ldr	r3, [pc, #120]	; (1dfc <_fread_r+0x98>)
    1d84:	429c      	cmp	r4, r3
    1d86:	d101      	bne.n	1d8c <_fread_r+0x28>
    1d88:	6874      	ldr	r4, [r6, #4]
    1d8a:	e008      	b.n	1d9e <_fread_r+0x3a>
    1d8c:	4b1c      	ldr	r3, [pc, #112]	; (1e00 <_fread_r+0x9c>)
    1d8e:	429c      	cmp	r4, r3
    1d90:	d101      	bne.n	1d96 <_fread_r+0x32>
    1d92:	68b4      	ldr	r4, [r6, #8]
    1d94:	e003      	b.n	1d9e <_fread_r+0x3a>
    1d96:	4b1b      	ldr	r3, [pc, #108]	; (1e04 <_fread_r+0xa0>)
    1d98:	429c      	cmp	r4, r3
    1d9a:	bf08      	it	eq
    1d9c:	68f4      	ldreq	r4, [r6, #12]
    1d9e:	6863      	ldr	r3, [r4, #4]
    1da0:	2b00      	cmp	r3, #0
    1da2:	da01      	bge.n	1da8 <_fread_r+0x44>
    1da4:	2300      	movs	r3, #0
    1da6:	6063      	str	r3, [r4, #4]
    1da8:	465d      	mov	r5, r11
    1daa:	6867      	ldr	r7, [r4, #4]
    1dac:	4640      	mov	r0, r8
    1dae:	42bd      	cmp	r5, r7
    1db0:	6821      	ldr	r1, [r4, #0]
    1db2:	d913      	bls.n	1ddc <_fread_r+0x78>
    1db4:	463a      	mov	r2, r7
    1db6:	f000 f9fa 	bl	21ae <memcpy>
    1dba:	6823      	ldr	r3, [r4, #0]
    1dbc:	4630      	mov	r0, r6
    1dbe:	443b      	add	r3, r7
    1dc0:	6023      	str	r3, [r4, #0]
    1dc2:	4621      	mov	r1, r4
    1dc4:	44b8      	add	r8, r7
    1dc6:	1bed      	subs	r5, r5, r7
    1dc8:	f000 fb1e 	bl	2408 <__srefill_r>
    1dcc:	2800      	cmp	r0, #0
    1dce:	d0ec      	beq.n	1daa <_fread_r+0x46>
    1dd0:	ebc5 0b0b 	rsb	r11, r5, r11
    1dd4:	fbbb f0fa 	udiv	r0, r11, r10
    1dd8:	e8bd 8ff8 	ldmia.w	sp!, {r3, r4, r5, r6, r7, r8, r9, r10, r11, pc}
    1ddc:	462a      	mov	r2, r5
    1dde:	f000 f9e6 	bl	21ae <memcpy>
    1de2:	6863      	ldr	r3, [r4, #4]
    1de4:	4648      	mov	r0, r9
    1de6:	1b5b      	subs	r3, r3, r5
    1de8:	6063      	str	r3, [r4, #4]
    1dea:	6823      	ldr	r3, [r4, #0]
    1dec:	441d      	add	r5, r3
    1dee:	6025      	str	r5, [r4, #0]
    1df0:	e8bd 8ff8 	ldmia.w	sp!, {r3, r4, r5, r6, r7, r8, r9, r10, r11, pc}
    1df4:	4610      	mov	r0, r2
    1df6:	e8bd 8ff8 	ldmia.w	sp!, {r3, r4, r5, r6, r7, r8, r9, r10, r11, pc}
    1dfa:	bf00      	nop
    1dfc:	00003b90 	.word	0x00003b90
    1e00:	00003bb0 	.word	0x00003bb0
    1e04:	00003bd0 	.word	0x00003bd0

00001e08 <fread>:
    1e08:	b573      	push	{r0, r1, r4, r5, r6, lr}
    1e0a:	9300      	str	r3, [sp, #0]
    1e0c:	4b05      	ldr	r3, [pc, #20]	; (1e24 <fread+0x1c>)
    1e0e:	4606      	mov	r6, r0
    1e10:	460d      	mov	r5, r1
    1e12:	4614      	mov	r4, r2
    1e14:	6818      	ldr	r0, [r3, #0]
    1e16:	4631      	mov	r1, r6
    1e18:	462a      	mov	r2, r5
    1e1a:	4623      	mov	r3, r4
    1e1c:	f7ff ffa2 	bl	1d64 <_fread_r>
    1e20:	b002      	add	sp, #8
    1e22:	bd70      	pop	{r4, r5, r6, pc}
    1e24:	10000134 	.word	0x10000134

00001e28 <_fseek_r>:
    1e28:	f000 b800 	b.w	1e2c <_fseeko_r>

00001e2c <_fseeko_r>:
    1e2c:	e92d 43f8 	stmdb	sp!, {r3, r4, r5, r6, r7, r8, r9, lr}
    1e30:	460c      	mov	r4, r1
    1e32:	4691      	mov	r9, r2
    1e34:	461e      	mov	r6, r3
    1e36:	4605      	mov	r5, r0
    1e38:	b118      	cbz	r0, 1e42 <_fseeko_r+0x16>
    1e3a:	6983      	ldr	r3, [r0, #24]
    1e3c:	b90b      	cbnz	r3, 1e42 <_fseeko_r+0x16>
    1e3e:	f7ff fedb 	bl	1bf8 <__sinit>
    1e42:	4b3e      	ldr	r3, [pc, #248]	; (1f3c <_fseeko_r+0x110>)
    1e44:	429c      	cmp	r4, r3
    1e46:	d101      	bne.n	1e4c <_fseeko_r+0x20>
    1e48:	686c      	ldr	r4, [r5, #4]
    1e4a:	e008      	b.n	1e5e <_fseeko_r+0x32>
    1e4c:	4b3c      	ldr	r3, [pc, #240]	; (1f40 <_fseeko_r+0x114>)
    1e4e:	429c      	cmp	r4, r3
    1e50:	d101      	bne.n	1e56 <_fseeko_r+0x2a>
    1e52:	68ac      	ldr	r4, [r5, #8]
    1e54:	e003      	b.n	1e5e <_fseeko_r+0x32>
    1e56:	4b3b      	ldr	r3, [pc, #236]	; (1f44 <_fseeko_r+0x118>)
    1e58:	429c      	cmp	r4, r3
    1e5a:	bf08      	it	eq
    1e5c:	68ec      	ldreq	r4, [r5, #12]
    1e5e:	89a3      	ldrh	r3, [r4, #12]
    1e60:	f403 7384 	and.w	r3, r3, #264	; 0x108
    1e64:	f5b3 7f84 	cmp.w	r3, #264	; 0x108
    1e68:	d103      	bne.n	1e72 <_fseeko_r+0x46>
    1e6a:	4628      	mov	r0, r5
    1e6c:	4621      	mov	r1, r4
    1e6e:	f7ff fe33 	bl	1ad8 <_fflush_r>
    1e72:	f8d4 802c 	ldr.w	r8, [r4, #44]	; 0x2c
    1e76:	231d      	movs	r3, #29
    1e78:	f1b8 0f00 	cmp.w	r8, #0
    1e7c:	d02b      	beq.n	1ed6 <_fseeko_r+0xaa>
    1e7e:	2e01      	cmp	r6, #1
    1e80:	d004      	beq.n	1e8c <_fseeko_r+0x60>
    1e82:	2e02      	cmp	r6, #2
    1e84:	d02b      	beq.n	1ede <_fseeko_r+0xb2>
    1e86:	b356      	cbz	r6, 1ede <_fseeko_r+0xb2>
    1e88:	2316      	movs	r3, #22
    1e8a:	e024      	b.n	1ed6 <_fseeko_r+0xaa>
    1e8c:	4628      	mov	r0, r5
    1e8e:	4621      	mov	r1, r4
    1e90:	f7ff fe22 	bl	1ad8 <_fflush_r>
    1e94:	89a2      	ldrh	r2, [r4, #12]
    1e96:	f402 5280 	and.w	r2, r2, #4096	; 0x1000
    1e9a:	b292      	uxth	r2, r2
    1e9c:	b10a      	cbz	r2, 1ea2 <_fseeko_r+0x76>
    1e9e:	6d60      	ldr	r0, [r4, #84]	; 0x54
    1ea0:	e005      	b.n	1eae <_fseeko_r+0x82>
    1ea2:	6a21      	ldr	r1, [r4, #32]
    1ea4:	4628      	mov	r0, r5
    1ea6:	4633      	mov	r3, r6
    1ea8:	47c0      	blx	r8
    1eaa:	1c41      	adds	r1, r0, #1
    1eac:	d014      	beq.n	1ed8 <_fseeko_r+0xac>
    1eae:	89a3      	ldrh	r3, [r4, #12]
    1eb0:	075a      	lsls	r2, r3, #29
    1eb2:	d506      	bpl.n	1ec2 <_fseeko_r+0x96>
    1eb4:	6863      	ldr	r3, [r4, #4]
    1eb6:	1ac0      	subs	r0, r0, r3
    1eb8:	6b63      	ldr	r3, [r4, #52]	; 0x34
    1eba:	b14b      	cbz	r3, 1ed0 <_fseeko_r+0xa4>
    1ebc:	6c23      	ldr	r3, [r4, #64]	; 0x40
    1ebe:	1ac0      	subs	r0, r0, r3
    1ec0:	e006      	b.n	1ed0 <_fseeko_r+0xa4>
    1ec2:	071b      	lsls	r3, r3, #28
    1ec4:	d504      	bpl.n	1ed0 <_fseeko_r+0xa4>
    1ec6:	6823      	ldr	r3, [r4, #0]
    1ec8:	b113      	cbz	r3, 1ed0 <_fseeko_r+0xa4>
    1eca:	6922      	ldr	r2, [r4, #16]
    1ecc:	1a9b      	subs	r3, r3, r2
    1ece:	4418      	add	r0, r3
    1ed0:	4481      	add	r9, r0
    1ed2:	2600      	movs	r6, #0
    1ed4:	e003      	b.n	1ede <_fseeko_r+0xb2>
    1ed6:	602b      	str	r3, [r5, #0]
    1ed8:	f04f 37ff 	mov.w	r7, #4294967295	; 0xffffffff
    1edc:	e02b      	b.n	1f36 <_fseeko_r+0x10a>
    1ede:	6923      	ldr	r3, [r4, #16]
    1ee0:	b91b      	cbnz	r3, 1eea <_fseeko_r+0xbe>
    1ee2:	4628      	mov	r0, r5
    1ee4:	4621      	mov	r1, r4
    1ee6:	f000 f8f7 	bl	20d8 <__smakebuf_r>
    1eea:	4628      	mov	r0, r5
    1eec:	4621      	mov	r1, r4
    1eee:	f7ff fdf3 	bl	1ad8 <_fflush_r>
    1ef2:	4607      	mov	r7, r0
    1ef4:	2800      	cmp	r0, #0
    1ef6:	d1ef      	bne.n	1ed8 <_fseeko_r+0xac>
    1ef8:	4628      	mov	r0, r5
    1efa:	6a21      	ldr	r1, [r4, #32]
    1efc:	464a      	mov	r2, r9
    1efe:	4633      	mov	r3, r6
    1f00:	47c0      	blx	r8
    1f02:	3001      	adds	r0, #1
    1f04:	d0e8      	beq.n	1ed8 <_fseeko_r+0xac>
    1f06:	6b61      	ldr	r1, [r4, #52]	; 0x34
    1f08:	b141      	cbz	r1, 1f1c <_fseeko_r+0xf0>
    1f0a:	f104 0344 	add.w	r3, r4, #68	; 0x44
    1f0e:	4299      	cmp	r1, r3
    1f10:	d002      	beq.n	1f18 <_fseeko_r+0xec>
    1f12:	4628      	mov	r0, r5
    1f14:	f000 f95c 	bl	21d0 <_free_r>
    1f18:	2300      	movs	r3, #0
    1f1a:	6363      	str	r3, [r4, #52]	; 0x34
    1f1c:	6923      	ldr	r3, [r4, #16]
    1f1e:	2100      	movs	r1, #0
    1f20:	6023      	str	r3, [r4, #0]
    1f22:	89a3      	ldrh	r3, [r4, #12]
    1f24:	6061      	str	r1, [r4, #4]
    1f26:	f423 6302 	bic.w	r3, r3, #2080	; 0x820
    1f2a:	81a3      	strh	r3, [r4, #12]
    1f2c:	f104 005c 	add.w	r0, r4, #92	; 0x5c
    1f30:	2208      	movs	r2, #8
    1f32:	f000 f945 	bl	21c0 <memset>
    1f36:	4638      	mov	r0, r7
    1f38:	e8bd 83f8 	ldmia.w	sp!, {r3, r4, r5, r6, r7, r8, r9, pc}
    1f3c:	00003b90 	.word	0x00003b90
    1f40:	00003bb0 	.word	0x00003bb0
    1f44:	00003bd0 	.word	0x00003bd0

00001f48 <_fwalk>:
    1f48:	e92d 41f0 	stmdb	sp!, {r4, r5, r6, r7, r8, lr}
    1f4c:	4688      	mov	r8, r1
    1f4e:	f100 0448 	add.w	r4, r0, #72	; 0x48
    1f52:	2600      	movs	r6, #0
    1f54:	b18c      	cbz	r4, 1f7a <_fwalk+0x32>
    1f56:	68a5      	ldr	r5, [r4, #8]
    1f58:	6867      	ldr	r7, [r4, #4]
    1f5a:	3f01      	subs	r7, #1
    1f5c:	d40b      	bmi.n	1f76 <_fwalk+0x2e>
    1f5e:	89ab      	ldrh	r3, [r5, #12]
    1f60:	2b01      	cmp	r3, #1
    1f62:	d906      	bls.n	1f72 <_fwalk+0x2a>
    1f64:	f9b5 300e 	ldrsh.w	r3, [r5, #14]
    1f68:	3301      	adds	r3, #1
    1f6a:	d002      	beq.n	1f72 <_fwalk+0x2a>
    1f6c:	4628      	mov	r0, r5
    1f6e:	47c0      	blx	r8
    1f70:	4306      	orrs	r6, r0
    1f72:	3568      	adds	r5, #104	; 0x68
    1f74:	e7f1      	b.n	1f5a <_fwalk+0x12>
    1f76:	6824      	ldr	r4, [r4, #0]
    1f78:	e7ec      	b.n	1f54 <_fwalk+0xc>
    1f7a:	4630      	mov	r0, r6
    1f7c:	e8bd 81f0 	ldmia.w	sp!, {r4, r5, r6, r7, r8, pc}

00001f80 <_fwalk_reent>:
    1f80:	e92d 43f8 	stmdb	sp!, {r3, r4, r5, r6, r7, r8, r9, lr}
    1f84:	4680      	mov	r8, r0
    1f86:	4689      	mov	r9, r1
    1f88:	f100 0448 	add.w	r4, r0, #72	; 0x48
    1f8c:	2600      	movs	r6, #0
    1f8e:	b194      	cbz	r4, 1fb6 <_fwalk_reent+0x36>
    1f90:	68a5      	ldr	r5, [r4, #8]
    1f92:	6867      	ldr	r7, [r4, #4]
    1f94:	3f01      	subs	r7, #1
    1f96:	d40c      	bmi.n	1fb2 <_fwalk_reent+0x32>
    1f98:	89ab      	ldrh	r3, [r5, #12]
    1f9a:	2b01      	cmp	r3, #1
    1f9c:	d907      	bls.n	1fae <_fwalk_reent+0x2e>
    1f9e:	f9b5 300e 	ldrsh.w	r3, [r5, #14]
    1fa2:	3301      	adds	r3, #1
    1fa4:	d003      	beq.n	1fae <_fwalk_reent+0x2e>
    1fa6:	4640      	mov	r0, r8
    1fa8:	4629      	mov	r1, r5
    1faa:	47c8      	blx	r9
    1fac:	4306      	orrs	r6, r0
    1fae:	3568      	adds	r5, #104	; 0x68
    1fb0:	e7f0      	b.n	1f94 <_fwalk_reent+0x14>
    1fb2:	6824      	ldr	r4, [r4, #0]
    1fb4:	e7eb      	b.n	1f8e <_fwalk_reent+0xe>
    1fb6:	4630      	mov	r0, r6
    1fb8:	e8bd 83f8 	ldmia.w	sp!, {r3, r4, r5, r6, r7, r8, r9, pc}

00001fbc <_fwrite_r>:
    1fbc:	e92d 47f0 	stmdb	sp!, {r4, r5, r6, r7, r8, r9, r10, lr}
    1fc0:	9c08      	ldr	r4, [sp, #32]
    1fc2:	468a      	mov	r10, r1
    1fc4:	4690      	mov	r8, r2
    1fc6:	fb02 f903 	mul.w	r9, r2, r3
    1fca:	4605      	mov	r5, r0
    1fcc:	b118      	cbz	r0, 1fd6 <_fwrite_r+0x1a>
    1fce:	6983      	ldr	r3, [r0, #24]
    1fd0:	b90b      	cbnz	r3, 1fd6 <_fwrite_r+0x1a>
    1fd2:	f7ff fe11 	bl	1bf8 <__sinit>
    1fd6:	4b22      	ldr	r3, [pc, #136]	; (2060 <_fwrite_r+0xa4>)
    1fd8:	429c      	cmp	r4, r3
    1fda:	d101      	bne.n	1fe0 <_fwrite_r+0x24>
    1fdc:	686c      	ldr	r4, [r5, #4]
    1fde:	e008      	b.n	1ff2 <_fwrite_r+0x36>
    1fe0:	4b20      	ldr	r3, [pc, #128]	; (2064 <_fwrite_r+0xa8>)
    1fe2:	429c      	cmp	r4, r3
    1fe4:	d101      	bne.n	1fea <_fwrite_r+0x2e>
    1fe6:	68ac      	ldr	r4, [r5, #8]
    1fe8:	e003      	b.n	1ff2 <_fwrite_r+0x36>
    1fea:	4b1f      	ldr	r3, [pc, #124]	; (2068 <_fwrite_r+0xac>)
    1fec:	429c      	cmp	r4, r3
    1fee:	bf08      	it	eq
    1ff0:	68ec      	ldreq	r4, [r5, #12]
    1ff2:	89a3      	ldrh	r3, [r4, #12]
    1ff4:	071a      	lsls	r2, r3, #28
    1ff6:	d503      	bpl.n	2000 <_fwrite_r+0x44>
    1ff8:	6923      	ldr	r3, [r4, #16]
    1ffa:	b10b      	cbz	r3, 2000 <_fwrite_r+0x44>
    1ffc:	2600      	movs	r6, #0
    1ffe:	e01b      	b.n	2038 <_fwrite_r+0x7c>
    2000:	4628      	mov	r0, r5
    2002:	4621      	mov	r1, r4
    2004:	f001 f98c 	bl	3320 <__swsetup_r>
    2008:	2800      	cmp	r0, #0
    200a:	d0f7      	beq.n	1ffc <_fwrite_r+0x40>
    200c:	2600      	movs	r6, #0
    200e:	e023      	b.n	2058 <_fwrite_r+0x9c>
    2010:	68a7      	ldr	r7, [r4, #8]
    2012:	3f01      	subs	r7, #1
    2014:	60a7      	str	r7, [r4, #8]
    2016:	2f00      	cmp	r7, #0
    2018:	f81a 1006 	ldrb.w	r1, [r10, r6]
    201c:	da16      	bge.n	204c <_fwrite_r+0x90>
    201e:	69a3      	ldr	r3, [r4, #24]
    2020:	429f      	cmp	r7, r3
    2022:	da0c      	bge.n	203e <_fwrite_r+0x82>
    2024:	4628      	mov	r0, r5
    2026:	4622      	mov	r2, r4
    2028:	f001 f914 	bl	3254 <__swbuf_r>
    202c:	f1b0 33ff 	subs.w	r3, r0, #4294967295	; 0xffffffff
    2030:	4258      	negs	r0, r3
    2032:	4158      	adcs	r0, r3
    2034:	b980      	cbnz	r0, 2058 <_fwrite_r+0x9c>
    2036:	3601      	adds	r6, #1
    2038:	454e      	cmp	r6, r9
    203a:	d1e9      	bne.n	2010 <_fwrite_r+0x54>
    203c:	e00c      	b.n	2058 <_fwrite_r+0x9c>
    203e:	6823      	ldr	r3, [r4, #0]
    2040:	7019      	strb	r1, [r3, #0]
    2042:	6823      	ldr	r3, [r4, #0]
    2044:	7819      	ldrb	r1, [r3, #0]
    2046:	290a      	cmp	r1, #10
    2048:	d103      	bne.n	2052 <_fwrite_r+0x96>
    204a:	e7eb      	b.n	2024 <_fwrite_r+0x68>
    204c:	6823      	ldr	r3, [r4, #0]
    204e:	7019      	strb	r1, [r3, #0]
    2050:	6823      	ldr	r3, [r4, #0]
    2052:	3301      	adds	r3, #1
    2054:	6023      	str	r3, [r4, #0]
    2056:	e7ee      	b.n	2036 <_fwrite_r+0x7a>
    2058:	fbb6 f0f8 	udiv	r0, r6, r8
    205c:	e8bd 87f0 	ldmia.w	sp!, {r4, r5, r6, r7, r8, r9, r10, pc}
    2060:	00003b90 	.word	0x00003b90
    2064:	00003bb0 	.word	0x00003bb0
    2068:	00003bd0 	.word	0x00003bd0

0000206c <fwrite>:
    206c:	b573      	push	{r0, r1, r4, r5, r6, lr}
    206e:	9300      	str	r3, [sp, #0]
    2070:	4b05      	ldr	r3, [pc, #20]	; (2088 <fwrite+0x1c>)
    2072:	4606      	mov	r6, r0
    2074:	460d      	mov	r5, r1
    2076:	4614      	mov	r4, r2
    2078:	6818      	ldr	r0, [r3, #0]
    207a:	4631      	mov	r1, r6
    207c:	462a      	mov	r2, r5
    207e:	4623      	mov	r3, r4
    2080:	f7ff ff9c 	bl	1fbc <_fwrite_r>
    2084:	b002      	add	sp, #8
    2086:	bd70      	pop	{r4, r5, r6, pc}
    2088:	10000134 	.word	0x10000134

0000208c <__libc_init_array>:
    208c:	b570      	push	{r4, r5, r6, lr}
    208e:	4b0e      	ldr	r3, [pc, #56]	; (20c8 <__libc_init_array+0x3c>)
    2090:	4d0e      	ldr	r5, [pc, #56]	; (20cc <__libc_init_array+0x40>)
    2092:	2400      	movs	r4, #0
    2094:	1aed      	subs	r5, r5, r3
    2096:	10ad      	asrs	r5, r5, #2
    2098:	461e      	mov	r6, r3
    209a:	42ac      	cmp	r4, r5
    209c:	d004      	beq.n	20a8 <__libc_init_array+0x1c>
    209e:	f856 2024 	ldr.w	r2, [r6, r4, lsl #2]
    20a2:	4790      	blx	r2
    20a4:	3401      	adds	r4, #1
    20a6:	e7f8      	b.n	209a <__libc_init_array+0xe>
    20a8:	f001 fba0 	bl	37ec <_init>
    20ac:	4d08      	ldr	r5, [pc, #32]	; (20d0 <__libc_init_array+0x44>)
    20ae:	4b09      	ldr	r3, [pc, #36]	; (20d4 <__libc_init_array+0x48>)
    20b0:	2400      	movs	r4, #0
    20b2:	1aed      	subs	r5, r5, r3
    20b4:	10ad      	asrs	r5, r5, #2
    20b6:	461e      	mov	r6, r3
    20b8:	42ac      	cmp	r4, r5
    20ba:	d004      	beq.n	20c6 <__libc_init_array+0x3a>
    20bc:	f856 2024 	ldr.w	r2, [r6, r4, lsl #2]
    20c0:	4790      	blx	r2
    20c2:	3401      	adds	r4, #1
    20c4:	e7f8      	b.n	20b8 <__libc_init_array+0x2c>
    20c6:	bd70      	pop	{r4, r5, r6, pc}
    20c8:	1000013c 	.word	0x1000013c
    20cc:	1000013c 	.word	0x1000013c
    20d0:	10000144 	.word	0x10000144
    20d4:	1000013c 	.word	0x1000013c

000020d8 <__smakebuf_r>:
    20d8:	b5f0      	push	{r4, r5, r6, r7, lr}
    20da:	898b      	ldrh	r3, [r1, #12]
    20dc:	b091      	sub	sp, #68	; 0x44
    20de:	079e      	lsls	r6, r3, #30
    20e0:	4605      	mov	r5, r0
    20e2:	460c      	mov	r4, r1
    20e4:	d425      	bmi.n	2132 <__smakebuf_r+0x5a>
    20e6:	f9b1 100e 	ldrsh.w	r1, [r1, #14]
    20ea:	2900      	cmp	r1, #0
    20ec:	da08      	bge.n	2100 <__smakebuf_r+0x28>
    20ee:	89a3      	ldrh	r3, [r4, #12]
    20f0:	2700      	movs	r7, #0
    20f2:	f013 0f80 	tst.w	r3, #128	; 0x80
    20f6:	bf14      	ite	ne
    20f8:	2640      	movne	r6, #64	; 0x40
    20fa:	f44f 6680 	moveq.w	r6, #1024	; 0x400
    20fe:	e00d      	b.n	211c <__smakebuf_r+0x44>
    2100:	aa01      	add	r2, sp, #4
    2102:	f001 f9c3 	bl	348c <_fstat_r>
    2106:	2800      	cmp	r0, #0
    2108:	dbf1      	blt.n	20ee <__smakebuf_r+0x16>
    210a:	9f02      	ldr	r7, [sp, #8]
    210c:	f44f 6680 	mov.w	r6, #1024	; 0x400
    2110:	f407 4770 	and.w	r7, r7, #61440	; 0xf000
    2114:	f5b7 5100 	subs.w	r1, r7, #8192	; 0x2000
    2118:	424f      	negs	r7, r1
    211a:	414f      	adcs	r7, r1
    211c:	4628      	mov	r0, r5
    211e:	4631      	mov	r1, r6
    2120:	f000 f89a 	bl	2258 <_malloc_r>
    2124:	b960      	cbnz	r0, 2140 <__smakebuf_r+0x68>
    2126:	89a3      	ldrh	r3, [r4, #12]
    2128:	059a      	lsls	r2, r3, #22
    212a:	d41d      	bmi.n	2168 <__smakebuf_r+0x90>
    212c:	f043 0302 	orr.w	r3, r3, #2
    2130:	81a3      	strh	r3, [r4, #12]
    2132:	f104 0347 	add.w	r3, r4, #71	; 0x47
    2136:	6023      	str	r3, [r4, #0]
    2138:	6123      	str	r3, [r4, #16]
    213a:	2301      	movs	r3, #1
    213c:	6163      	str	r3, [r4, #20]
    213e:	e013      	b.n	2168 <__smakebuf_r+0x90>
    2140:	4b0a      	ldr	r3, [pc, #40]	; (216c <__smakebuf_r+0x94>)
    2142:	62ab      	str	r3, [r5, #40]	; 0x28
    2144:	89a3      	ldrh	r3, [r4, #12]
    2146:	6020      	str	r0, [r4, #0]
    2148:	f043 0380 	orr.w	r3, r3, #128	; 0x80
    214c:	81a3      	strh	r3, [r4, #12]
    214e:	6120      	str	r0, [r4, #16]
    2150:	6166      	str	r6, [r4, #20]
    2152:	b14f      	cbz	r7, 2168 <__smakebuf_r+0x90>
    2154:	4628      	mov	r0, r5
    2156:	f9b4 100e 	ldrsh.w	r1, [r4, #14]
    215a:	f001 f9a9 	bl	34b0 <_isatty_r>
    215e:	b118      	cbz	r0, 2168 <__smakebuf_r+0x90>
    2160:	89a3      	ldrh	r3, [r4, #12]
    2162:	f043 0301 	orr.w	r3, r3, #1
    2166:	81a3      	strh	r3, [r4, #12]
    2168:	b011      	add	sp, #68	; 0x44
    216a:	bdf0      	pop	{r4, r5, r6, r7, pc}
    216c:	00001b51 	.word	0x00001b51

00002170 <malloc>:
    2170:	4b02      	ldr	r3, [pc, #8]	; (217c <malloc+0xc>)
    2172:	4601      	mov	r1, r0
    2174:	6818      	ldr	r0, [r3, #0]
    2176:	f000 b86f 	b.w	2258 <_malloc_r>
    217a:	bf00      	nop
    217c:	10000134 	.word	0x10000134

00002180 <free>:
    2180:	4b02      	ldr	r3, [pc, #8]	; (218c <free+0xc>)
    2182:	4601      	mov	r1, r0
    2184:	6818      	ldr	r0, [r3, #0]
    2186:	f000 b823 	b.w	21d0 <_free_r>
    218a:	bf00      	nop
    218c:	10000134 	.word	0x10000134

00002190 <memcmp>:
    2190:	b530      	push	{r4, r5, lr}
    2192:	2300      	movs	r3, #0
    2194:	4293      	cmp	r3, r2
    2196:	d008      	beq.n	21aa <memcmp+0x1a>
    2198:	5cc5      	ldrb	r5, [r0, r3]
    219a:	3301      	adds	r3, #1
    219c:	18cc      	adds	r4, r1, r3
    219e:	f814 4c01 	ldrb.w	r4, [r4, #-1]
    21a2:	42a5      	cmp	r5, r4
    21a4:	d0f6      	beq.n	2194 <memcmp+0x4>
    21a6:	1b28      	subs	r0, r5, r4
    21a8:	bd30      	pop	{r4, r5, pc}
    21aa:	2000      	movs	r0, #0
    21ac:	bd30      	pop	{r4, r5, pc}

000021ae <memcpy>:
    21ae:	b510      	push	{r4, lr}
    21b0:	2300      	movs	r3, #0
    21b2:	4293      	cmp	r3, r2
    21b4:	d003      	beq.n	21be <memcpy+0x10>
    21b6:	5ccc      	ldrb	r4, [r1, r3]
    21b8:	54c4      	strb	r4, [r0, r3]
    21ba:	3301      	adds	r3, #1
    21bc:	e7f9      	b.n	21b2 <memcpy+0x4>
    21be:	bd10      	pop	{r4, pc}

000021c0 <memset>:
    21c0:	4402      	add	r2, r0
    21c2:	4603      	mov	r3, r0
    21c4:	4293      	cmp	r3, r2
    21c6:	d002      	beq.n	21ce <memset+0xe>
    21c8:	f803 1b01 	strb.w	r1, [r3], #1
    21cc:	e7fa      	b.n	21c4 <memset+0x4>
    21ce:	4770      	bx	lr

000021d0 <_free_r>:
    21d0:	b530      	push	{r4, r5, lr}
    21d2:	2900      	cmp	r1, #0
    21d4:	d03c      	beq.n	2250 <_free_r+0x80>
    21d6:	f851 2c04 	ldr.w	r2, [r1, #-4]
    21da:	1f0b      	subs	r3, r1, #4
    21dc:	491d      	ldr	r1, [pc, #116]	; (2254 <_free_r+0x84>)
    21de:	2a00      	cmp	r2, #0
    21e0:	bfb8      	it	lt
    21e2:	189b      	addlt	r3, r3, r2
    21e4:	680a      	ldr	r2, [r1, #0]
    21e6:	460c      	mov	r4, r1
    21e8:	b912      	cbnz	r2, 21f0 <_free_r+0x20>
    21ea:	605a      	str	r2, [r3, #4]
    21ec:	600b      	str	r3, [r1, #0]
    21ee:	bd30      	pop	{r4, r5, pc}
    21f0:	4293      	cmp	r3, r2
    21f2:	d20d      	bcs.n	2210 <_free_r+0x40>
    21f4:	6819      	ldr	r1, [r3, #0]
    21f6:	1858      	adds	r0, r3, r1
    21f8:	4290      	cmp	r0, r2
    21fa:	d103      	bne.n	2204 <_free_r+0x34>
    21fc:	585a      	ldr	r2, [r3, r1]
    21fe:	4411      	add	r1, r2
    2200:	6842      	ldr	r2, [r0, #4]
    2202:	6019      	str	r1, [r3, #0]
    2204:	605a      	str	r2, [r3, #4]
    2206:	6023      	str	r3, [r4, #0]
    2208:	bd30      	pop	{r4, r5, pc}
    220a:	4299      	cmp	r1, r3
    220c:	d803      	bhi.n	2216 <_free_r+0x46>
    220e:	460a      	mov	r2, r1
    2210:	6851      	ldr	r1, [r2, #4]
    2212:	2900      	cmp	r1, #0
    2214:	d1f9      	bne.n	220a <_free_r+0x3a>
    2216:	6814      	ldr	r4, [r2, #0]
    2218:	1915      	adds	r5, r2, r4
    221a:	429d      	cmp	r5, r3
    221c:	d10a      	bne.n	2234 <_free_r+0x64>
    221e:	681b      	ldr	r3, [r3, #0]
    2220:	4423      	add	r3, r4
    2222:	18d0      	adds	r0, r2, r3
    2224:	4288      	cmp	r0, r1
    2226:	6013      	str	r3, [r2, #0]
    2228:	d112      	bne.n	2250 <_free_r+0x80>
    222a:	6808      	ldr	r0, [r1, #0]
    222c:	4403      	add	r3, r0
    222e:	6013      	str	r3, [r2, #0]
    2230:	684b      	ldr	r3, [r1, #4]
    2232:	e00c      	b.n	224e <_free_r+0x7e>
    2234:	d902      	bls.n	223c <_free_r+0x6c>
    2236:	230c      	movs	r3, #12
    2238:	6003      	str	r3, [r0, #0]
    223a:	bd30      	pop	{r4, r5, pc}
    223c:	6818      	ldr	r0, [r3, #0]
    223e:	181c      	adds	r4, r3, r0
    2240:	428c      	cmp	r4, r1
    2242:	d103      	bne.n	224c <_free_r+0x7c>
    2244:	680c      	ldr	r4, [r1, #0]
    2246:	6849      	ldr	r1, [r1, #4]
    2248:	4420      	add	r0, r4
    224a:	6018      	str	r0, [r3, #0]
    224c:	6059      	str	r1, [r3, #4]
    224e:	6053      	str	r3, [r2, #4]
    2250:	bd30      	pop	{r4, r5, pc}
    2252:	bf00      	nop
    2254:	10000374 	.word	0x10000374

00002258 <_malloc_r>:
    2258:	b570      	push	{r4, r5, r6, lr}
    225a:	1ccd      	adds	r5, r1, #3
    225c:	f025 0503 	bic.w	r5, r5, #3
    2260:	3508      	adds	r5, #8
    2262:	2d0c      	cmp	r5, #12
    2264:	bf38      	it	cc
    2266:	250c      	movcc	r5, #12
    2268:	2d00      	cmp	r5, #0
    226a:	4606      	mov	r6, r0
    226c:	db3f      	blt.n	22ee <_malloc_r+0x96>
    226e:	428d      	cmp	r5, r1
    2270:	d33d      	bcc.n	22ee <_malloc_r+0x96>
    2272:	4b21      	ldr	r3, [pc, #132]	; (22f8 <_malloc_r+0xa0>)
    2274:	681c      	ldr	r4, [r3, #0]
    2276:	4618      	mov	r0, r3
    2278:	4621      	mov	r1, r4
    227a:	b1a1      	cbz	r1, 22a6 <_malloc_r+0x4e>
    227c:	680b      	ldr	r3, [r1, #0]
    227e:	1b5b      	subs	r3, r3, r5
    2280:	d40e      	bmi.n	22a0 <_malloc_r+0x48>
    2282:	2b0b      	cmp	r3, #11
    2284:	d903      	bls.n	228e <_malloc_r+0x36>
    2286:	600b      	str	r3, [r1, #0]
    2288:	18cc      	adds	r4, r1, r3
    228a:	50cd      	str	r5, [r1, r3]
    228c:	e01f      	b.n	22ce <_malloc_r+0x76>
    228e:	428c      	cmp	r4, r1
    2290:	d102      	bne.n	2298 <_malloc_r+0x40>
    2292:	6862      	ldr	r2, [r4, #4]
    2294:	6002      	str	r2, [r0, #0]
    2296:	e01a      	b.n	22ce <_malloc_r+0x76>
    2298:	684b      	ldr	r3, [r1, #4]
    229a:	6063      	str	r3, [r4, #4]
    229c:	460c      	mov	r4, r1
    229e:	e016      	b.n	22ce <_malloc_r+0x76>
    22a0:	460c      	mov	r4, r1
    22a2:	6849      	ldr	r1, [r1, #4]
    22a4:	e7e9      	b.n	227a <_malloc_r+0x22>
    22a6:	4c15      	ldr	r4, [pc, #84]	; (22fc <_malloc_r+0xa4>)
    22a8:	6823      	ldr	r3, [r4, #0]
    22aa:	b91b      	cbnz	r3, 22b4 <_malloc_r+0x5c>
    22ac:	4630      	mov	r0, r6
    22ae:	f000 f931 	bl	2514 <_sbrk_r>
    22b2:	6020      	str	r0, [r4, #0]
    22b4:	4629      	mov	r1, r5
    22b6:	4630      	mov	r0, r6
    22b8:	f000 f92c 	bl	2514 <_sbrk_r>
    22bc:	1c43      	adds	r3, r0, #1
    22be:	4601      	mov	r1, r0
    22c0:	d015      	beq.n	22ee <_malloc_r+0x96>
    22c2:	1cc4      	adds	r4, r0, #3
    22c4:	f024 0403 	bic.w	r4, r4, #3
    22c8:	4284      	cmp	r4, r0
    22ca:	d10a      	bne.n	22e2 <_malloc_r+0x8a>
    22cc:	6025      	str	r5, [r4, #0]
    22ce:	f104 000b 	add.w	r0, r4, #11
    22d2:	1d23      	adds	r3, r4, #4
    22d4:	f020 0007 	bic.w	r0, r0, #7
    22d8:	1ac3      	subs	r3, r0, r3
    22da:	d00b      	beq.n	22f4 <_malloc_r+0x9c>
    22dc:	425a      	negs	r2, r3
    22de:	50e2      	str	r2, [r4, r3]
    22e0:	bd70      	pop	{r4, r5, r6, pc}
    22e2:	4630      	mov	r0, r6
    22e4:	1a61      	subs	r1, r4, r1
    22e6:	f000 f915 	bl	2514 <_sbrk_r>
    22ea:	3001      	adds	r0, #1
    22ec:	d1ee      	bne.n	22cc <_malloc_r+0x74>
    22ee:	230c      	movs	r3, #12
    22f0:	6033      	str	r3, [r6, #0]
    22f2:	2000      	movs	r0, #0
    22f4:	bd70      	pop	{r4, r5, r6, pc}
    22f6:	bf00      	nop
    22f8:	10000374 	.word	0x10000374
    22fc:	10000370 	.word	0x10000370

00002300 <_open_r>:
    2300:	b538      	push	{r3, r4, r5, lr}
    2302:	4c07      	ldr	r4, [pc, #28]	; (2320 <_open_r+0x20>)
    2304:	4605      	mov	r5, r0
    2306:	2000      	movs	r0, #0
    2308:	6020      	str	r0, [r4, #0]
    230a:	4608      	mov	r0, r1
    230c:	4611      	mov	r1, r2
    230e:	461a      	mov	r2, r3
    2310:	f7fe fa5c 	bl	7cc <_open>
    2314:	1c43      	adds	r3, r0, #1
    2316:	d102      	bne.n	231e <_open_r+0x1e>
    2318:	6823      	ldr	r3, [r4, #0]
    231a:	b103      	cbz	r3, 231e <_open_r+0x1e>
    231c:	602b      	str	r3, [r5, #0]
    231e:	bd38      	pop	{r3, r4, r5, pc}
    2320:	10000380 	.word	0x10000380

00002324 <_puts_r>:
    2324:	b570      	push	{r4, r5, r6, lr}
    2326:	460e      	mov	r6, r1
    2328:	4605      	mov	r5, r0
    232a:	b118      	cbz	r0, 2334 <_puts_r+0x10>
    232c:	6983      	ldr	r3, [r0, #24]
    232e:	b90b      	cbnz	r3, 2334 <_puts_r+0x10>
    2330:	f7ff fc62 	bl	1bf8 <__sinit>
    2334:	68ac      	ldr	r4, [r5, #8]
    2336:	89a3      	ldrh	r3, [r4, #12]
    2338:	0719      	lsls	r1, r3, #28
    233a:	d501      	bpl.n	2340 <_puts_r+0x1c>
    233c:	6923      	ldr	r3, [r4, #16]
    233e:	b983      	cbnz	r3, 2362 <_puts_r+0x3e>
    2340:	4628      	mov	r0, r5
    2342:	4621      	mov	r1, r4
    2344:	f000 ffec 	bl	3320 <__swsetup_r>
    2348:	b158      	cbz	r0, 2362 <_puts_r+0x3e>
    234a:	f04f 30ff 	mov.w	r0, #4294967295	; 0xffffffff
    234e:	bd70      	pop	{r4, r5, r6, pc}
    2350:	2b00      	cmp	r3, #0
    2352:	db0e      	blt.n	2372 <_puts_r+0x4e>
    2354:	6823      	ldr	r3, [r4, #0]
    2356:	f816 2c01 	ldrb.w	r2, [r6, #-1]
    235a:	701a      	strb	r2, [r3, #0]
    235c:	6823      	ldr	r3, [r4, #0]
    235e:	3301      	adds	r3, #1
    2360:	6023      	str	r3, [r4, #0]
    2362:	68a3      	ldr	r3, [r4, #8]
    2364:	f816 2b01 	ldrb.w	r2, [r6], #1
    2368:	3b01      	subs	r3, #1
    236a:	60a3      	str	r3, [r4, #8]
    236c:	2a00      	cmp	r2, #0
    236e:	d1ef      	bne.n	2350 <_puts_r+0x2c>
    2370:	e017      	b.n	23a2 <_puts_r+0x7e>
    2372:	69a2      	ldr	r2, [r4, #24]
    2374:	4293      	cmp	r3, r2
    2376:	db09      	blt.n	238c <_puts_r+0x68>
    2378:	6823      	ldr	r3, [r4, #0]
    237a:	f816 2c01 	ldrb.w	r2, [r6, #-1]
    237e:	701a      	strb	r2, [r3, #0]
    2380:	6823      	ldr	r3, [r4, #0]
    2382:	7819      	ldrb	r1, [r3, #0]
    2384:	290a      	cmp	r1, #10
    2386:	d1ea      	bne.n	235e <_puts_r+0x3a>
    2388:	4628      	mov	r0, r5
    238a:	e002      	b.n	2392 <_puts_r+0x6e>
    238c:	f816 1c01 	ldrb.w	r1, [r6, #-1]
    2390:	4628      	mov	r0, r5
    2392:	4622      	mov	r2, r4
    2394:	f000 ff5e 	bl	3254 <__swbuf_r>
    2398:	f1b0 32ff 	subs.w	r2, r0, #4294967295	; 0xffffffff
    239c:	4250      	negs	r0, r2
    239e:	4150      	adcs	r0, r2
    23a0:	e7d2      	b.n	2348 <_puts_r+0x24>
    23a2:	2b00      	cmp	r3, #0
    23a4:	da16      	bge.n	23d4 <_puts_r+0xb0>
    23a6:	69a2      	ldr	r2, [r4, #24]
    23a8:	4293      	cmp	r3, r2
    23aa:	db08      	blt.n	23be <_puts_r+0x9a>
    23ac:	6823      	ldr	r3, [r4, #0]
    23ae:	220a      	movs	r2, #10
    23b0:	701a      	strb	r2, [r3, #0]
    23b2:	6823      	ldr	r3, [r4, #0]
    23b4:	7819      	ldrb	r1, [r3, #0]
    23b6:	4291      	cmp	r1, r2
    23b8:	d110      	bne.n	23dc <_puts_r+0xb8>
    23ba:	4628      	mov	r0, r5
    23bc:	e001      	b.n	23c2 <_puts_r+0x9e>
    23be:	4628      	mov	r0, r5
    23c0:	210a      	movs	r1, #10
    23c2:	4622      	mov	r2, r4
    23c4:	f000 ff46 	bl	3254 <__swbuf_r>
    23c8:	f1b0 33ff 	subs.w	r3, r0, #4294967295	; 0xffffffff
    23cc:	4258      	negs	r0, r3
    23ce:	4158      	adcs	r0, r3
    23d0:	b130      	cbz	r0, 23e0 <_puts_r+0xbc>
    23d2:	e7ba      	b.n	234a <_puts_r+0x26>
    23d4:	6823      	ldr	r3, [r4, #0]
    23d6:	220a      	movs	r2, #10
    23d8:	701a      	strb	r2, [r3, #0]
    23da:	6823      	ldr	r3, [r4, #0]
    23dc:	3301      	adds	r3, #1
    23de:	6023      	str	r3, [r4, #0]
    23e0:	200a      	movs	r0, #10
    23e2:	bd70      	pop	{r4, r5, r6, pc}

000023e4 <puts>:
    23e4:	4b02      	ldr	r3, [pc, #8]	; (23f0 <puts+0xc>)
    23e6:	4601      	mov	r1, r0
    23e8:	6818      	ldr	r0, [r3, #0]
    23ea:	f7ff bf9b 	b.w	2324 <_puts_r>
    23ee:	bf00      	nop
    23f0:	10000134 	.word	0x10000134

000023f4 <lflush>:
    23f4:	8983      	ldrh	r3, [r0, #12]
    23f6:	f003 0309 	and.w	r3, r3, #9
    23fa:	2b09      	cmp	r3, #9
    23fc:	d101      	bne.n	2402 <lflush+0xe>
    23fe:	f7ff bb95 	b.w	1b2c <fflush>
    2402:	2000      	movs	r0, #0
    2404:	4770      	bx	lr
	...

00002408 <__srefill_r>:
    2408:	b5f8      	push	{r3, r4, r5, r6, r7, lr}
    240a:	460c      	mov	r4, r1
    240c:	4605      	mov	r5, r0
    240e:	b118      	cbz	r0, 2418 <__srefill_r+0x10>
    2410:	6983      	ldr	r3, [r0, #24]
    2412:	b90b      	cbnz	r3, 2418 <__srefill_r+0x10>
    2414:	f7ff fbf0 	bl	1bf8 <__sinit>
    2418:	4b39      	ldr	r3, [pc, #228]	; (2500 <__srefill_r+0xf8>)
    241a:	429c      	cmp	r4, r3
    241c:	d101      	bne.n	2422 <__srefill_r+0x1a>
    241e:	686c      	ldr	r4, [r5, #4]
    2420:	e008      	b.n	2434 <__srefill_r+0x2c>
    2422:	4b38      	ldr	r3, [pc, #224]	; (2504 <__srefill_r+0xfc>)
    2424:	429c      	cmp	r4, r3
    2426:	d101      	bne.n	242c <__srefill_r+0x24>
    2428:	68ac      	ldr	r4, [r5, #8]
    242a:	e003      	b.n	2434 <__srefill_r+0x2c>
    242c:	4b36      	ldr	r3, [pc, #216]	; (2508 <__srefill_r+0x100>)
    242e:	429c      	cmp	r4, r3
    2430:	bf08      	it	eq
    2432:	68ec      	ldreq	r4, [r5, #12]
    2434:	89a2      	ldrh	r2, [r4, #12]
    2436:	2300      	movs	r3, #0
    2438:	6063      	str	r3, [r4, #4]
    243a:	b293      	uxth	r3, r2
    243c:	069e      	lsls	r6, r3, #26
    243e:	d45a      	bmi.n	24f6 <__srefill_r+0xee>
    2440:	0758      	lsls	r0, r3, #29
    2442:	d41a      	bmi.n	247a <__srefill_r+0x72>
    2444:	06d9      	lsls	r1, r3, #27
    2446:	d405      	bmi.n	2454 <__srefill_r+0x4c>
    2448:	2309      	movs	r3, #9
    244a:	f042 0240 	orr.w	r2, r2, #64	; 0x40
    244e:	602b      	str	r3, [r5, #0]
    2450:	81a2      	strh	r2, [r4, #12]
    2452:	e050      	b.n	24f6 <__srefill_r+0xee>
    2454:	071a      	lsls	r2, r3, #28
    2456:	d50b      	bpl.n	2470 <__srefill_r+0x68>
    2458:	4628      	mov	r0, r5
    245a:	4621      	mov	r1, r4
    245c:	f7ff fb3c 	bl	1ad8 <_fflush_r>
    2460:	2800      	cmp	r0, #0
    2462:	d148      	bne.n	24f6 <__srefill_r+0xee>
    2464:	89a3      	ldrh	r3, [r4, #12]
    2466:	60a0      	str	r0, [r4, #8]
    2468:	f023 0308 	bic.w	r3, r3, #8
    246c:	81a3      	strh	r3, [r4, #12]
    246e:	61a0      	str	r0, [r4, #24]
    2470:	89a3      	ldrh	r3, [r4, #12]
    2472:	f043 0304 	orr.w	r3, r3, #4
    2476:	81a3      	strh	r3, [r4, #12]
    2478:	e010      	b.n	249c <__srefill_r+0x94>
    247a:	6b61      	ldr	r1, [r4, #52]	; 0x34
    247c:	b171      	cbz	r1, 249c <__srefill_r+0x94>
    247e:	f104 0344 	add.w	r3, r4, #68	; 0x44
    2482:	4299      	cmp	r1, r3
    2484:	d002      	beq.n	248c <__srefill_r+0x84>
    2486:	4628      	mov	r0, r5
    2488:	f7ff fea2 	bl	21d0 <_free_r>
    248c:	6c23      	ldr	r3, [r4, #64]	; 0x40
    248e:	2000      	movs	r0, #0
    2490:	6360      	str	r0, [r4, #52]	; 0x34
    2492:	6063      	str	r3, [r4, #4]
    2494:	b113      	cbz	r3, 249c <__srefill_r+0x94>
    2496:	6be3      	ldr	r3, [r4, #60]	; 0x3c
    2498:	6023      	str	r3, [r4, #0]
    249a:	bdf8      	pop	{r3, r4, r5, r6, r7, pc}
    249c:	6923      	ldr	r3, [r4, #16]
    249e:	b91b      	cbnz	r3, 24a8 <__srefill_r+0xa0>
    24a0:	4628      	mov	r0, r5
    24a2:	4621      	mov	r1, r4
    24a4:	f7ff fe18 	bl	20d8 <__smakebuf_r>
    24a8:	89a7      	ldrh	r7, [r4, #12]
    24aa:	b2be      	uxth	r6, r7
    24ac:	07b3      	lsls	r3, r6, #30
    24ae:	d00f      	beq.n	24d0 <__srefill_r+0xc8>
    24b0:	2301      	movs	r3, #1
    24b2:	81a3      	strh	r3, [r4, #12]
    24b4:	4b15      	ldr	r3, [pc, #84]	; (250c <__srefill_r+0x104>)
    24b6:	4916      	ldr	r1, [pc, #88]	; (2510 <__srefill_r+0x108>)
    24b8:	6818      	ldr	r0, [r3, #0]
    24ba:	f006 0609 	and.w	r6, r6, #9
    24be:	f7ff fd43 	bl	1f48 <_fwalk>
    24c2:	2e09      	cmp	r6, #9
    24c4:	81a7      	strh	r7, [r4, #12]
    24c6:	d103      	bne.n	24d0 <__srefill_r+0xc8>
    24c8:	4628      	mov	r0, r5
    24ca:	4621      	mov	r1, r4
    24cc:	f7ff fa80 	bl	19d0 <__sflush_r>
    24d0:	6922      	ldr	r2, [r4, #16]
    24d2:	6a66      	ldr	r6, [r4, #36]	; 0x24
    24d4:	6022      	str	r2, [r4, #0]
    24d6:	4628      	mov	r0, r5
    24d8:	6a21      	ldr	r1, [r4, #32]
    24da:	6963      	ldr	r3, [r4, #20]
    24dc:	47b0      	blx	r6
    24de:	2800      	cmp	r0, #0
    24e0:	6060      	str	r0, [r4, #4]
    24e2:	dc0b      	bgt.n	24fc <__srefill_r+0xf4>
    24e4:	89a3      	ldrh	r3, [r4, #12]
    24e6:	bf17      	itett	ne
    24e8:	2200      	movne	r2, #0
    24ea:	f043 0320 	orreq.w	r3, r3, #32
    24ee:	f043 0340 	orrne.w	r3, r3, #64	; 0x40
    24f2:	6062      	strne	r2, [r4, #4]
    24f4:	81a3      	strh	r3, [r4, #12]
    24f6:	f04f 30ff 	mov.w	r0, #4294967295	; 0xffffffff
    24fa:	bdf8      	pop	{r3, r4, r5, r6, r7, pc}
    24fc:	2000      	movs	r0, #0
    24fe:	bdf8      	pop	{r3, r4, r5, r6, r7, pc}
    2500:	00003b90 	.word	0x00003b90
    2504:	00003bb0 	.word	0x00003bb0
    2508:	00003bd0 	.word	0x00003bd0
    250c:	00003bf4 	.word	0x00003bf4
    2510:	000023f5 	.word	0x000023f5

00002514 <_sbrk_r>:
    2514:	b538      	push	{r3, r4, r5, lr}
    2516:	4c06      	ldr	r4, [pc, #24]	; (2530 <_sbrk_r+0x1c>)
    2518:	2300      	movs	r3, #0
    251a:	4605      	mov	r5, r0
    251c:	4608      	mov	r0, r1
    251e:	6023      	str	r3, [r4, #0]
    2520:	f7fe fa88 	bl	a34 <_sbrk>
    2524:	1c43      	adds	r3, r0, #1
    2526:	d102      	bne.n	252e <_sbrk_r+0x1a>
    2528:	6823      	ldr	r3, [r4, #0]
    252a:	b103      	cbz	r3, 252e <_sbrk_r+0x1a>
    252c:	602b      	str	r3, [r5, #0]
    252e:	bd38      	pop	{r3, r4, r5, pc}
    2530:	10000380 	.word	0x10000380

00002534 <siscanf>:
    2534:	b40e      	push	{r1, r2, r3}
    2536:	b530      	push	{r4, r5, lr}
    2538:	b09c      	sub	sp, #112	; 0x70
    253a:	ac1f      	add	r4, sp, #124	; 0x7c
    253c:	f44f 7201 	mov.w	r2, #516	; 0x204
    2540:	f854 5b04 	ldr.w	r5, [r4], #4
    2544:	f8ad 2014 	strh.w	r2, [sp, #20]
    2548:	9002      	str	r0, [sp, #8]
    254a:	9006      	str	r0, [sp, #24]
    254c:	f000 f86b 	bl	2626 <strlen>
    2550:	4b0b      	ldr	r3, [pc, #44]	; (2580 <siscanf+0x4c>)
    2552:	9003      	str	r0, [sp, #12]
    2554:	930b      	str	r3, [sp, #44]	; 0x2c
    2556:	2300      	movs	r3, #0
    2558:	930f      	str	r3, [sp, #60]	; 0x3c
    255a:	9314      	str	r3, [sp, #80]	; 0x50
    255c:	f64f 73ff 	movw	r3, #65535	; 0xffff
    2560:	f8ad 3016 	strh.w	r3, [sp, #22]
    2564:	4b07      	ldr	r3, [pc, #28]	; (2584 <siscanf+0x50>)
    2566:	9007      	str	r0, [sp, #28]
    2568:	a902      	add	r1, sp, #8
    256a:	6818      	ldr	r0, [r3, #0]
    256c:	462a      	mov	r2, r5
    256e:	4623      	mov	r3, r4
    2570:	9401      	str	r4, [sp, #4]
    2572:	f000 f8d1 	bl	2718 <__ssvfiscanf_r>
    2576:	b01c      	add	sp, #112	; 0x70
    2578:	e8bd 4030 	ldmia.w	sp!, {r4, r5, lr}
    257c:	b003      	add	sp, #12
    257e:	4770      	bx	lr
    2580:	000025ab 	.word	0x000025ab
    2584:	10000134 	.word	0x10000134

00002588 <__sread>:
    2588:	b510      	push	{r4, lr}
    258a:	460c      	mov	r4, r1
    258c:	f9b1 100e 	ldrsh.w	r1, [r1, #14]
    2590:	f000 ffe4 	bl	355c <_read_r>
    2594:	2800      	cmp	r0, #0
    2596:	db03      	blt.n	25a0 <__sread+0x18>
    2598:	6d63      	ldr	r3, [r4, #84]	; 0x54
    259a:	4403      	add	r3, r0
    259c:	6563      	str	r3, [r4, #84]	; 0x54
    259e:	bd10      	pop	{r4, pc}
    25a0:	89a3      	ldrh	r3, [r4, #12]
    25a2:	f423 5380 	bic.w	r3, r3, #4096	; 0x1000
    25a6:	81a3      	strh	r3, [r4, #12]
    25a8:	bd10      	pop	{r4, pc}

000025aa <__seofread>:
    25aa:	2000      	movs	r0, #0
    25ac:	4770      	bx	lr

000025ae <__swrite>:
    25ae:	e92d 41f0 	stmdb	sp!, {r4, r5, r6, r7, r8, lr}
    25b2:	461d      	mov	r5, r3
    25b4:	898b      	ldrh	r3, [r1, #12]
    25b6:	4607      	mov	r7, r0
    25b8:	05db      	lsls	r3, r3, #23
    25ba:	460c      	mov	r4, r1
    25bc:	4616      	mov	r6, r2
    25be:	d505      	bpl.n	25cc <__swrite+0x1e>
    25c0:	f9b1 100e 	ldrsh.w	r1, [r1, #14]
    25c4:	2200      	movs	r2, #0
    25c6:	2302      	movs	r3, #2
    25c8:	f000 ff82 	bl	34d0 <_lseek_r>
    25cc:	89a3      	ldrh	r3, [r4, #12]
    25ce:	4638      	mov	r0, r7
    25d0:	f423 5380 	bic.w	r3, r3, #4096	; 0x1000
    25d4:	81a3      	strh	r3, [r4, #12]
    25d6:	f9b4 100e 	ldrsh.w	r1, [r4, #14]
    25da:	4632      	mov	r2, r6
    25dc:	462b      	mov	r3, r5
    25de:	e8bd 41f0 	ldmia.w	sp!, {r4, r5, r6, r7, r8, lr}
    25e2:	f000 be8b 	b.w	32fc <_write_r>

000025e6 <__sseek>:
    25e6:	b510      	push	{r4, lr}
    25e8:	460c      	mov	r4, r1
    25ea:	f9b1 100e 	ldrsh.w	r1, [r1, #14]
    25ee:	f000 ff6f 	bl	34d0 <_lseek_r>
    25f2:	1c43      	adds	r3, r0, #1
    25f4:	89a3      	ldrh	r3, [r4, #12]
    25f6:	d103      	bne.n	2600 <__sseek+0x1a>
    25f8:	f423 5380 	bic.w	r3, r3, #4096	; 0x1000
    25fc:	81a3      	strh	r3, [r4, #12]
    25fe:	bd10      	pop	{r4, pc}
    2600:	f443 5380 	orr.w	r3, r3, #4096	; 0x1000
    2604:	81a3      	strh	r3, [r4, #12]
    2606:	6560      	str	r0, [r4, #84]	; 0x54
    2608:	bd10      	pop	{r4, pc}

0000260a <__sclose>:
    260a:	f9b1 100e 	ldrsh.w	r1, [r1, #14]
    260e:	f000 bef5 	b.w	33fc <_close_r>

00002612 <strcmp>:
    2612:	f810 2b01 	ldrb.w	r2, [r0], #1
    2616:	f811 3b01 	ldrb.w	r3, [r1], #1
    261a:	2a01      	cmp	r2, #1
    261c:	bf28      	it	cs
    261e:	429a      	cmpcs	r2, r3
    2620:	d0f7      	beq.n	2612 <strcmp>
    2622:	1ad0      	subs	r0, r2, r3
    2624:	4770      	bx	lr

00002626 <strlen>:
    2626:	4603      	mov	r3, r0
    2628:	f813 2b01 	ldrb.w	r2, [r3], #1
    262c:	2a00      	cmp	r2, #0
    262e:	d1fb      	bne.n	2628 <strlen+0x2>
    2630:	1a18      	subs	r0, r3, r0
    2632:	3801      	subs	r0, #1
    2634:	4770      	bx	lr

00002636 <strncmp>:
    2636:	b570      	push	{r4, r5, r6, lr}
    2638:	b18a      	cbz	r2, 265e <strncmp+0x28>
    263a:	460b      	mov	r3, r1
    263c:	4605      	mov	r5, r0
    263e:	781c      	ldrb	r4, [r3, #0]
    2640:	f810 6b01 	ldrb.w	r6, [r0], #1
    2644:	3101      	adds	r1, #1
    2646:	42b4      	cmp	r4, r6
    2648:	d101      	bne.n	264e <strncmp+0x18>
    264a:	2a01      	cmp	r2, #1
    264c:	d103      	bne.n	2656 <strncmp+0x20>
    264e:	7828      	ldrb	r0, [r5, #0]
    2650:	781b      	ldrb	r3, [r3, #0]
    2652:	1ac0      	subs	r0, r0, r3
    2654:	bd70      	pop	{r4, r5, r6, pc}
    2656:	3a01      	subs	r2, #1
    2658:	2c00      	cmp	r4, #0
    265a:	d1ee      	bne.n	263a <strncmp+0x4>
    265c:	e7f7      	b.n	264e <strncmp+0x18>
    265e:	4610      	mov	r0, r2
    2660:	bd70      	pop	{r4, r5, r6, pc}

00002662 <_sungetc_r>:
    2662:	b538      	push	{r3, r4, r5, lr}
    2664:	1c4b      	adds	r3, r1, #1
    2666:	4614      	mov	r4, r2
    2668:	d102      	bne.n	2670 <_sungetc_r+0xe>
    266a:	f04f 30ff 	mov.w	r0, #4294967295	; 0xffffffff
    266e:	bd38      	pop	{r3, r4, r5, pc}
    2670:	8993      	ldrh	r3, [r2, #12]
    2672:	b2cd      	uxtb	r5, r1
    2674:	f023 0320 	bic.w	r3, r3, #32
    2678:	8193      	strh	r3, [r2, #12]
    267a:	6b53      	ldr	r3, [r2, #52]	; 0x34
    267c:	6852      	ldr	r2, [r2, #4]
    267e:	b183      	cbz	r3, 26a2 <_sungetc_r+0x40>
    2680:	6ba3      	ldr	r3, [r4, #56]	; 0x38
    2682:	429a      	cmp	r2, r3
    2684:	da07      	bge.n	2696 <_sungetc_r+0x34>
    2686:	6823      	ldr	r3, [r4, #0]
    2688:	1e5a      	subs	r2, r3, #1
    268a:	6022      	str	r2, [r4, #0]
    268c:	f803 5c01 	strb.w	r5, [r3, #-1]
    2690:	6863      	ldr	r3, [r4, #4]
    2692:	3301      	adds	r3, #1
    2694:	e01f      	b.n	26d6 <_sungetc_r+0x74>
    2696:	4621      	mov	r1, r4
    2698:	f000 f98c 	bl	29b4 <__submore>
    269c:	2800      	cmp	r0, #0
    269e:	d0f2      	beq.n	2686 <_sungetc_r+0x24>
    26a0:	e7e3      	b.n	266a <_sungetc_r+0x8>
    26a2:	6921      	ldr	r1, [r4, #16]
    26a4:	6823      	ldr	r3, [r4, #0]
    26a6:	b151      	cbz	r1, 26be <_sungetc_r+0x5c>
    26a8:	428b      	cmp	r3, r1
    26aa:	d908      	bls.n	26be <_sungetc_r+0x5c>
    26ac:	f813 0c01 	ldrb.w	r0, [r3, #-1]
    26b0:	42a8      	cmp	r0, r5
    26b2:	d104      	bne.n	26be <_sungetc_r+0x5c>
    26b4:	3b01      	subs	r3, #1
    26b6:	3201      	adds	r2, #1
    26b8:	6023      	str	r3, [r4, #0]
    26ba:	6062      	str	r2, [r4, #4]
    26bc:	bd38      	pop	{r3, r4, r5, pc}
    26be:	63e3      	str	r3, [r4, #60]	; 0x3c
    26c0:	f104 0344 	add.w	r3, r4, #68	; 0x44
    26c4:	6363      	str	r3, [r4, #52]	; 0x34
    26c6:	2303      	movs	r3, #3
    26c8:	63a3      	str	r3, [r4, #56]	; 0x38
    26ca:	4623      	mov	r3, r4
    26cc:	6422      	str	r2, [r4, #64]	; 0x40
    26ce:	f803 5f46 	strb.w	r5, [r3, #70]!
    26d2:	6023      	str	r3, [r4, #0]
    26d4:	2301      	movs	r3, #1
    26d6:	6063      	str	r3, [r4, #4]
    26d8:	4628      	mov	r0, r5
    26da:	bd38      	pop	{r3, r4, r5, pc}

000026dc <__ssrefill_r>:
    26dc:	b510      	push	{r4, lr}
    26de:	460c      	mov	r4, r1
    26e0:	6b49      	ldr	r1, [r1, #52]	; 0x34
    26e2:	b169      	cbz	r1, 2700 <__ssrefill_r+0x24>
    26e4:	f104 0344 	add.w	r3, r4, #68	; 0x44
    26e8:	4299      	cmp	r1, r3
    26ea:	d001      	beq.n	26f0 <__ssrefill_r+0x14>
    26ec:	f7ff fd70 	bl	21d0 <_free_r>
    26f0:	6c23      	ldr	r3, [r4, #64]	; 0x40
    26f2:	2000      	movs	r0, #0
    26f4:	6360      	str	r0, [r4, #52]	; 0x34
    26f6:	6063      	str	r3, [r4, #4]
    26f8:	b113      	cbz	r3, 2700 <__ssrefill_r+0x24>
    26fa:	6be3      	ldr	r3, [r4, #60]	; 0x3c
    26fc:	6023      	str	r3, [r4, #0]
    26fe:	bd10      	pop	{r4, pc}
    2700:	6923      	ldr	r3, [r4, #16]
    2702:	f04f 30ff 	mov.w	r0, #4294967295	; 0xffffffff
    2706:	6023      	str	r3, [r4, #0]
    2708:	2300      	movs	r3, #0
    270a:	6063      	str	r3, [r4, #4]
    270c:	89a3      	ldrh	r3, [r4, #12]
    270e:	f043 0320 	orr.w	r3, r3, #32
    2712:	81a3      	strh	r3, [r4, #12]
    2714:	bd10      	pop	{r4, pc}
	...

00002718 <__ssvfiscanf_r>:
    2718:	e92d 47f0 	stmdb	sp!, {r4, r5, r6, r7, r8, r9, r10, lr}
    271c:	f5ad 7d24 	sub.w	sp, sp, #656	; 0x290
    2720:	9301      	str	r3, [sp, #4]
    2722:	2300      	movs	r3, #0
    2724:	9346      	str	r3, [sp, #280]	; 0x118
    2726:	9347      	str	r3, [sp, #284]	; 0x11c
    2728:	4b9d      	ldr	r3, [pc, #628]	; (29a0 <__ssvfiscanf_r+0x288>)
    272a:	f10d 090c 	add.w	r9, sp, #12
    272e:	93a2      	str	r3, [sp, #648]	; 0x288
    2730:	4b9c      	ldr	r3, [pc, #624]	; (29a4 <__ssvfiscanf_r+0x28c>)
    2732:	4607      	mov	r7, r0
    2734:	460c      	mov	r4, r1
    2736:	4690      	mov	r8, r2
    2738:	f8cd 9120 	str.w	r9, [sp, #288]	; 0x120
    273c:	93a3      	str	r3, [sp, #652]	; 0x28c
    273e:	f898 5000 	ldrb.w	r5, [r8]
    2742:	2d00      	cmp	r5, #0
    2744:	f000 8124 	beq.w	2990 <__ssvfiscanf_r+0x278>
    2748:	4997      	ldr	r1, [pc, #604]	; (29a8 <__ssvfiscanf_r+0x290>)
    274a:	680b      	ldr	r3, [r1, #0]
    274c:	468a      	mov	r10, r1
    274e:	442b      	add	r3, r5
    2750:	785a      	ldrb	r2, [r3, #1]
    2752:	f002 0208 	and.w	r2, r2, #8
    2756:	f002 03ff 	and.w	r3, r2, #255	; 0xff
    275a:	b1ea      	cbz	r2, 2798 <__ssvfiscanf_r+0x80>
    275c:	6863      	ldr	r3, [r4, #4]
    275e:	2b00      	cmp	r3, #0
    2760:	dd10      	ble.n	2784 <__ssvfiscanf_r+0x6c>
    2762:	6823      	ldr	r3, [r4, #0]
    2764:	f8da 2000 	ldr.w	r2, [r10]
    2768:	7819      	ldrb	r1, [r3, #0]
    276a:	440a      	add	r2, r1
    276c:	7852      	ldrb	r2, [r2, #1]
    276e:	0715      	lsls	r5, r2, #28
    2770:	d50e      	bpl.n	2790 <__ssvfiscanf_r+0x78>
    2772:	9a47      	ldr	r2, [sp, #284]	; 0x11c
    2774:	3301      	adds	r3, #1
    2776:	3201      	adds	r2, #1
    2778:	9247      	str	r2, [sp, #284]	; 0x11c
    277a:	6862      	ldr	r2, [r4, #4]
    277c:	6023      	str	r3, [r4, #0]
    277e:	3a01      	subs	r2, #1
    2780:	6062      	str	r2, [r4, #4]
    2782:	e7eb      	b.n	275c <__ssvfiscanf_r+0x44>
    2784:	9ba3      	ldr	r3, [sp, #652]	; 0x28c
    2786:	4638      	mov	r0, r7
    2788:	4621      	mov	r1, r4
    278a:	4798      	blx	r3
    278c:	2800      	cmp	r0, #0
    278e:	d0e8      	beq.n	2762 <__ssvfiscanf_r+0x4a>
    2790:	f108 0601 	add.w	r6, r8, #1
    2794:	46b0      	mov	r8, r6
    2796:	e7d2      	b.n	273e <__ssvfiscanf_r+0x26>
    2798:	2d25      	cmp	r5, #37	; 0x25
    279a:	f108 0601 	add.w	r6, r8, #1
    279e:	d14f      	bne.n	2840 <__ssvfiscanf_r+0x128>
    27a0:	9345      	str	r3, [sp, #276]	; 0x114
    27a2:	9343      	str	r3, [sp, #268]	; 0x10c
    27a4:	f898 3001 	ldrb.w	r3, [r8, #1]
    27a8:	2b2a      	cmp	r3, #42	; 0x2a
    27aa:	d103      	bne.n	27b4 <__ssvfiscanf_r+0x9c>
    27ac:	2310      	movs	r3, #16
    27ae:	9343      	str	r3, [sp, #268]	; 0x10c
    27b0:	f108 0602 	add.w	r6, r8, #2
    27b4:	7831      	ldrb	r1, [r6, #0]
    27b6:	4635      	mov	r5, r6
    27b8:	f1a1 0330 	sub.w	r3, r1, #48	; 0x30
    27bc:	2b09      	cmp	r3, #9
    27be:	f106 0601 	add.w	r6, r6, #1
    27c2:	d806      	bhi.n	27d2 <__ssvfiscanf_r+0xba>
    27c4:	9b45      	ldr	r3, [sp, #276]	; 0x114
    27c6:	220a      	movs	r2, #10
    27c8:	fb02 1303 	mla	r3, r2, r3, r1
    27cc:	3b30      	subs	r3, #48	; 0x30
    27ce:	9345      	str	r3, [sp, #276]	; 0x114
    27d0:	e7f0      	b.n	27b4 <__ssvfiscanf_r+0x9c>
    27d2:	f8df 81dc 	ldr.w	r8, [pc, #476]	; 29b0 <__ssvfiscanf_r+0x298>
    27d6:	2203      	movs	r2, #3
    27d8:	4640      	mov	r0, r8
    27da:	f000 fe8b 	bl	34f4 <memchr>
    27de:	b140      	cbz	r0, 27f2 <__ssvfiscanf_r+0xda>
    27e0:	ebc8 0800 	rsb	r8, r8, r0
    27e4:	2001      	movs	r0, #1
    27e6:	fa00 f008 	lsl.w	r0, r0, r8
    27ea:	9b43      	ldr	r3, [sp, #268]	; 0x10c
    27ec:	4635      	mov	r5, r6
    27ee:	4303      	orrs	r3, r0
    27f0:	9343      	str	r3, [sp, #268]	; 0x10c
    27f2:	1c6e      	adds	r6, r5, #1
    27f4:	782d      	ldrb	r5, [r5, #0]
    27f6:	2d67      	cmp	r5, #103	; 0x67
    27f8:	d80f      	bhi.n	281a <__ssvfiscanf_r+0x102>
    27fa:	2d65      	cmp	r5, #101	; 0x65
    27fc:	d278      	bcs.n	28f0 <__ssvfiscanf_r+0x1d8>
    27fe:	2d5b      	cmp	r5, #91	; 0x5b
    2800:	d054      	beq.n	28ac <__ssvfiscanf_r+0x194>
    2802:	d805      	bhi.n	2810 <__ssvfiscanf_r+0xf8>
    2804:	2d00      	cmp	r5, #0
    2806:	f000 80c5 	beq.w	2994 <__ssvfiscanf_r+0x27c>
    280a:	2d25      	cmp	r5, #37	; 0x25
    280c:	d018      	beq.n	2840 <__ssvfiscanf_r+0x128>
    280e:	e071      	b.n	28f4 <__ssvfiscanf_r+0x1dc>
    2810:	2d63      	cmp	r5, #99	; 0x63
    2812:	d057      	beq.n	28c4 <__ssvfiscanf_r+0x1ac>
    2814:	2d64      	cmp	r5, #100	; 0x64
    2816:	d03f      	beq.n	2898 <__ssvfiscanf_r+0x180>
    2818:	e06c      	b.n	28f4 <__ssvfiscanf_r+0x1dc>
    281a:	2d70      	cmp	r5, #112	; 0x70
    281c:	d032      	beq.n	2884 <__ssvfiscanf_r+0x16c>
    281e:	d807      	bhi.n	2830 <__ssvfiscanf_r+0x118>
    2820:	2d6e      	cmp	r5, #110	; 0x6e
    2822:	d055      	beq.n	28d0 <__ssvfiscanf_r+0x1b8>
    2824:	d83a      	bhi.n	289c <__ssvfiscanf_r+0x184>
    2826:	2d69      	cmp	r5, #105	; 0x69
    2828:	d164      	bne.n	28f4 <__ssvfiscanf_r+0x1dc>
    282a:	2300      	movs	r3, #0
    282c:	9344      	str	r3, [sp, #272]	; 0x110
    282e:	e039      	b.n	28a4 <__ssvfiscanf_r+0x18c>
    2830:	2d75      	cmp	r5, #117	; 0x75
    2832:	d031      	beq.n	2898 <__ssvfiscanf_r+0x180>
    2834:	2d78      	cmp	r5, #120	; 0x78
    2836:	d029      	beq.n	288c <__ssvfiscanf_r+0x174>
    2838:	2d73      	cmp	r5, #115	; 0x73
    283a:	d15b      	bne.n	28f4 <__ssvfiscanf_r+0x1dc>
    283c:	2302      	movs	r3, #2
    283e:	e03f      	b.n	28c0 <__ssvfiscanf_r+0x1a8>
    2840:	6863      	ldr	r3, [r4, #4]
    2842:	2b00      	cmp	r3, #0
    2844:	dd0d      	ble.n	2862 <__ssvfiscanf_r+0x14a>
    2846:	6823      	ldr	r3, [r4, #0]
    2848:	781a      	ldrb	r2, [r3, #0]
    284a:	42aa      	cmp	r2, r5
    284c:	f040 80a0 	bne.w	2990 <__ssvfiscanf_r+0x278>
    2850:	3301      	adds	r3, #1
    2852:	6862      	ldr	r2, [r4, #4]
    2854:	6023      	str	r3, [r4, #0]
    2856:	9b47      	ldr	r3, [sp, #284]	; 0x11c
    2858:	3a01      	subs	r2, #1
    285a:	3301      	adds	r3, #1
    285c:	6062      	str	r2, [r4, #4]
    285e:	9347      	str	r3, [sp, #284]	; 0x11c
    2860:	e798      	b.n	2794 <__ssvfiscanf_r+0x7c>
    2862:	9ba3      	ldr	r3, [sp, #652]	; 0x28c
    2864:	4638      	mov	r0, r7
    2866:	4621      	mov	r1, r4
    2868:	4798      	blx	r3
    286a:	2800      	cmp	r0, #0
    286c:	d0eb      	beq.n	2846 <__ssvfiscanf_r+0x12e>
    286e:	9846      	ldr	r0, [sp, #280]	; 0x118
    2870:	2800      	cmp	r0, #0
    2872:	f000 808f 	beq.w	2994 <__ssvfiscanf_r+0x27c>
    2876:	89a3      	ldrh	r3, [r4, #12]
    2878:	f013 0f40 	tst.w	r3, #64	; 0x40
    287c:	bf18      	it	ne
    287e:	f04f 30ff 	movne.w	r0, #4294967295	; 0xffffffff
    2882:	e089      	b.n	2998 <__ssvfiscanf_r+0x280>
    2884:	9b43      	ldr	r3, [sp, #268]	; 0x10c
    2886:	f043 0320 	orr.w	r3, r3, #32
    288a:	9343      	str	r3, [sp, #268]	; 0x10c
    288c:	9b43      	ldr	r3, [sp, #268]	; 0x10c
    288e:	f443 7300 	orr.w	r3, r3, #512	; 0x200
    2892:	9343      	str	r3, [sp, #268]	; 0x10c
    2894:	2310      	movs	r3, #16
    2896:	e002      	b.n	289e <__ssvfiscanf_r+0x186>
    2898:	230a      	movs	r3, #10
    289a:	e000      	b.n	289e <__ssvfiscanf_r+0x186>
    289c:	2308      	movs	r3, #8
    289e:	2d6e      	cmp	r5, #110	; 0x6e
    28a0:	9344      	str	r3, [sp, #272]	; 0x110
    28a2:	dc01      	bgt.n	28a8 <__ssvfiscanf_r+0x190>
    28a4:	2303      	movs	r3, #3
    28a6:	e00b      	b.n	28c0 <__ssvfiscanf_r+0x1a8>
    28a8:	2304      	movs	r3, #4
    28aa:	e009      	b.n	28c0 <__ssvfiscanf_r+0x1a8>
    28ac:	4631      	mov	r1, r6
    28ae:	4648      	mov	r0, r9
    28b0:	f000 fe66 	bl	3580 <__sccl>
    28b4:	9b43      	ldr	r3, [sp, #268]	; 0x10c
    28b6:	4606      	mov	r6, r0
    28b8:	f043 0340 	orr.w	r3, r3, #64	; 0x40
    28bc:	9343      	str	r3, [sp, #268]	; 0x10c
    28be:	2301      	movs	r3, #1
    28c0:	9349      	str	r3, [sp, #292]	; 0x124
    28c2:	e01b      	b.n	28fc <__ssvfiscanf_r+0x1e4>
    28c4:	9b43      	ldr	r3, [sp, #268]	; 0x10c
    28c6:	f043 0340 	orr.w	r3, r3, #64	; 0x40
    28ca:	9343      	str	r3, [sp, #268]	; 0x10c
    28cc:	2300      	movs	r3, #0
    28ce:	e7f7      	b.n	28c0 <__ssvfiscanf_r+0x1a8>
    28d0:	9a43      	ldr	r2, [sp, #268]	; 0x10c
    28d2:	06d0      	lsls	r0, r2, #27
    28d4:	f53f af5e 	bmi.w	2794 <__ssvfiscanf_r+0x7c>
    28d8:	f012 0f01 	tst.w	r2, #1
    28dc:	9a01      	ldr	r2, [sp, #4]
    28de:	9b47      	ldr	r3, [sp, #284]	; 0x11c
    28e0:	f102 0104 	add.w	r1, r2, #4
    28e4:	9101      	str	r1, [sp, #4]
    28e6:	6812      	ldr	r2, [r2, #0]
    28e8:	bf14      	ite	ne
    28ea:	8013      	strhne	r3, [r2, #0]
    28ec:	6013      	streq	r3, [r2, #0]
    28ee:	e751      	b.n	2794 <__ssvfiscanf_r+0x7c>
    28f0:	2305      	movs	r3, #5
    28f2:	e7e5      	b.n	28c0 <__ssvfiscanf_r+0x1a8>
    28f4:	2303      	movs	r3, #3
    28f6:	9349      	str	r3, [sp, #292]	; 0x124
    28f8:	230a      	movs	r3, #10
    28fa:	9344      	str	r3, [sp, #272]	; 0x110
    28fc:	6863      	ldr	r3, [r4, #4]
    28fe:	2b00      	cmp	r3, #0
    2900:	dd03      	ble.n	290a <__ssvfiscanf_r+0x1f2>
    2902:	9b43      	ldr	r3, [sp, #268]	; 0x10c
    2904:	0659      	lsls	r1, r3, #25
    2906:	d511      	bpl.n	292c <__ssvfiscanf_r+0x214>
    2908:	e018      	b.n	293c <__ssvfiscanf_r+0x224>
    290a:	9ba3      	ldr	r3, [sp, #652]	; 0x28c
    290c:	4638      	mov	r0, r7
    290e:	4621      	mov	r1, r4
    2910:	4798      	blx	r3
    2912:	2800      	cmp	r0, #0
    2914:	d0f5      	beq.n	2902 <__ssvfiscanf_r+0x1ea>
    2916:	e7aa      	b.n	286e <__ssvfiscanf_r+0x156>
    2918:	9a47      	ldr	r2, [sp, #284]	; 0x11c
    291a:	3201      	adds	r2, #1
    291c:	9247      	str	r2, [sp, #284]	; 0x11c
    291e:	6862      	ldr	r2, [r4, #4]
    2920:	3a01      	subs	r2, #1
    2922:	2a00      	cmp	r2, #0
    2924:	6062      	str	r2, [r4, #4]
    2926:	dd13      	ble.n	2950 <__ssvfiscanf_r+0x238>
    2928:	3301      	adds	r3, #1
    292a:	6023      	str	r3, [r4, #0]
    292c:	6823      	ldr	r3, [r4, #0]
    292e:	f8da 2000 	ldr.w	r2, [r10]
    2932:	7819      	ldrb	r1, [r3, #0]
    2934:	440a      	add	r2, r1
    2936:	7852      	ldrb	r2, [r2, #1]
    2938:	0712      	lsls	r2, r2, #28
    293a:	d4ed      	bmi.n	2918 <__ssvfiscanf_r+0x200>
    293c:	9b49      	ldr	r3, [sp, #292]	; 0x124
    293e:	2b02      	cmp	r3, #2
    2940:	dc0d      	bgt.n	295e <__ssvfiscanf_r+0x246>
    2942:	4638      	mov	r0, r7
    2944:	a943      	add	r1, sp, #268	; 0x10c
    2946:	4622      	mov	r2, r4
    2948:	ab01      	add	r3, sp, #4
    294a:	f000 fb2d 	bl	2fa8 <_scanf_chars>
    294e:	e019      	b.n	2984 <__ssvfiscanf_r+0x26c>
    2950:	9ba3      	ldr	r3, [sp, #652]	; 0x28c
    2952:	4638      	mov	r0, r7
    2954:	4621      	mov	r1, r4
    2956:	4798      	blx	r3
    2958:	2800      	cmp	r0, #0
    295a:	d0e7      	beq.n	292c <__ssvfiscanf_r+0x214>
    295c:	e787      	b.n	286e <__ssvfiscanf_r+0x156>
    295e:	2b04      	cmp	r3, #4
    2960:	dc06      	bgt.n	2970 <__ssvfiscanf_r+0x258>
    2962:	4638      	mov	r0, r7
    2964:	a943      	add	r1, sp, #268	; 0x10c
    2966:	4622      	mov	r2, r4
    2968:	ab01      	add	r3, sp, #4
    296a:	f000 fb7d 	bl	3068 <_scanf_i>
    296e:	e009      	b.n	2984 <__ssvfiscanf_r+0x26c>
    2970:	4b0e      	ldr	r3, [pc, #56]	; (29ac <__ssvfiscanf_r+0x294>)
    2972:	2b00      	cmp	r3, #0
    2974:	f43f af0e 	beq.w	2794 <__ssvfiscanf_r+0x7c>
    2978:	4638      	mov	r0, r7
    297a:	a943      	add	r1, sp, #268	; 0x10c
    297c:	4622      	mov	r2, r4
    297e:	ab01      	add	r3, sp, #4
    2980:	f3af 8000 	nop.w
    2984:	2801      	cmp	r0, #1
    2986:	d003      	beq.n	2990 <__ssvfiscanf_r+0x278>
    2988:	2802      	cmp	r0, #2
    298a:	f47f af03 	bne.w	2794 <__ssvfiscanf_r+0x7c>
    298e:	e76e      	b.n	286e <__ssvfiscanf_r+0x156>
    2990:	9846      	ldr	r0, [sp, #280]	; 0x118
    2992:	e001      	b.n	2998 <__ssvfiscanf_r+0x280>
    2994:	f04f 30ff 	mov.w	r0, #4294967295	; 0xffffffff
    2998:	f50d 7d24 	add.w	sp, sp, #656	; 0x290
    299c:	e8bd 87f0 	ldmia.w	sp!, {r4, r5, r6, r7, r8, r9, r10, pc}
    29a0:	00002663 	.word	0x00002663
    29a4:	000026dd 	.word	0x000026dd
    29a8:	10000138 	.word	0x10000138
    29ac:	00000000 	.word	0x00000000
    29b0:	00003bf8 	.word	0x00003bf8

000029b4 <__submore>:
    29b4:	e92d 41f0 	stmdb	sp!, {r4, r5, r6, r7, r8, lr}
    29b8:	460c      	mov	r4, r1
    29ba:	6b49      	ldr	r1, [r1, #52]	; 0x34
    29bc:	f104 0344 	add.w	r3, r4, #68	; 0x44
    29c0:	4299      	cmp	r1, r3
    29c2:	d11a      	bne.n	29fa <__submore+0x46>
    29c4:	f44f 6180 	mov.w	r1, #1024	; 0x400
    29c8:	f7ff fc46 	bl	2258 <_malloc_r>
    29cc:	b918      	cbnz	r0, 29d6 <__submore+0x22>
    29ce:	f04f 30ff 	mov.w	r0, #4294967295	; 0xffffffff
    29d2:	e8bd 81f0 	ldmia.w	sp!, {r4, r5, r6, r7, r8, pc}
    29d6:	f44f 6380 	mov.w	r3, #1024	; 0x400
    29da:	63a3      	str	r3, [r4, #56]	; 0x38
    29dc:	f894 3046 	ldrb.w	r3, [r4, #70]	; 0x46
    29e0:	6360      	str	r0, [r4, #52]	; 0x34
    29e2:	f880 33ff 	strb.w	r3, [r0, #1023]	; 0x3ff
    29e6:	f894 3045 	ldrb.w	r3, [r4, #69]	; 0x45
    29ea:	f200 30fd 	addw	r0, r0, #1021	; 0x3fd
    29ee:	7043      	strb	r3, [r0, #1]
    29f0:	f894 3044 	ldrb.w	r3, [r4, #68]	; 0x44
    29f4:	7003      	strb	r3, [r0, #0]
    29f6:	6020      	str	r0, [r4, #0]
    29f8:	e012      	b.n	2a20 <__submore+0x6c>
    29fa:	6ba6      	ldr	r6, [r4, #56]	; 0x38
    29fc:	0077      	lsls	r7, r6, #1
    29fe:	463a      	mov	r2, r7
    2a00:	f000 fd86 	bl	3510 <_realloc_r>
    2a04:	4605      	mov	r5, r0
    2a06:	2800      	cmp	r0, #0
    2a08:	d0e1      	beq.n	29ce <__submore+0x1a>
    2a0a:	eb00 0806 	add.w	r8, r0, r6
    2a0e:	4640      	mov	r0, r8
    2a10:	4629      	mov	r1, r5
    2a12:	4632      	mov	r2, r6
    2a14:	f7ff fbcb 	bl	21ae <memcpy>
    2a18:	f8c4 8000 	str.w	r8, [r4]
    2a1c:	6365      	str	r5, [r4, #52]	; 0x34
    2a1e:	63a7      	str	r7, [r4, #56]	; 0x38
    2a20:	2000      	movs	r0, #0
    2a22:	e8bd 81f0 	ldmia.w	sp!, {r4, r5, r6, r7, r8, pc}

00002a26 <__sfputc_r>:
    2a26:	6893      	ldr	r3, [r2, #8]
    2a28:	b510      	push	{r4, lr}
    2a2a:	3b01      	subs	r3, #1
    2a2c:	2b00      	cmp	r3, #0
    2a2e:	6093      	str	r3, [r2, #8]
    2a30:	da05      	bge.n	2a3e <__sfputc_r+0x18>
    2a32:	6994      	ldr	r4, [r2, #24]
    2a34:	42a3      	cmp	r3, r4
    2a36:	db08      	blt.n	2a4a <__sfputc_r+0x24>
    2a38:	b2cb      	uxtb	r3, r1
    2a3a:	2b0a      	cmp	r3, #10
    2a3c:	d005      	beq.n	2a4a <__sfputc_r+0x24>
    2a3e:	6813      	ldr	r3, [r2, #0]
    2a40:	1c58      	adds	r0, r3, #1
    2a42:	6010      	str	r0, [r2, #0]
    2a44:	7019      	strb	r1, [r3, #0]
    2a46:	b2c8      	uxtb	r0, r1
    2a48:	bd10      	pop	{r4, pc}
    2a4a:	e8bd 4010 	ldmia.w	sp!, {r4, lr}
    2a4e:	f000 bc01 	b.w	3254 <__swbuf_r>

00002a52 <__sfputs_r>:
    2a52:	b5f8      	push	{r3, r4, r5, r6, r7, lr}
    2a54:	4605      	mov	r5, r0
    2a56:	460e      	mov	r6, r1
    2a58:	4614      	mov	r4, r2
    2a5a:	18d7      	adds	r7, r2, r3
    2a5c:	42bc      	cmp	r4, r7
    2a5e:	d008      	beq.n	2a72 <__sfputs_r+0x20>
    2a60:	4628      	mov	r0, r5
    2a62:	f814 1b01 	ldrb.w	r1, [r4], #1
    2a66:	4632      	mov	r2, r6
    2a68:	f7ff ffdd 	bl	2a26 <__sfputc_r>
    2a6c:	1c43      	adds	r3, r0, #1
    2a6e:	d1f5      	bne.n	2a5c <__sfputs_r+0xa>
    2a70:	e000      	b.n	2a74 <__sfputs_r+0x22>
    2a72:	2000      	movs	r0, #0
    2a74:	bdf8      	pop	{r3, r4, r5, r6, r7, pc}
	...

00002a78 <_vfiprintf_r>:
    2a78:	e92d 43f0 	stmdb	sp!, {r4, r5, r6, r7, r8, r9, lr}
    2a7c:	b09d      	sub	sp, #116	; 0x74
    2a7e:	460d      	mov	r5, r1
    2a80:	4617      	mov	r7, r2
    2a82:	9303      	str	r3, [sp, #12]
    2a84:	4606      	mov	r6, r0
    2a86:	b118      	cbz	r0, 2a90 <_vfiprintf_r+0x18>
    2a88:	6983      	ldr	r3, [r0, #24]
    2a8a:	b90b      	cbnz	r3, 2a90 <_vfiprintf_r+0x18>
    2a8c:	f7ff f8b4 	bl	1bf8 <__sinit>
    2a90:	4b73      	ldr	r3, [pc, #460]	; (2c60 <_vfiprintf_r+0x1e8>)
    2a92:	429d      	cmp	r5, r3
    2a94:	d101      	bne.n	2a9a <_vfiprintf_r+0x22>
    2a96:	6875      	ldr	r5, [r6, #4]
    2a98:	e008      	b.n	2aac <_vfiprintf_r+0x34>
    2a9a:	4b72      	ldr	r3, [pc, #456]	; (2c64 <_vfiprintf_r+0x1ec>)
    2a9c:	429d      	cmp	r5, r3
    2a9e:	d101      	bne.n	2aa4 <_vfiprintf_r+0x2c>
    2aa0:	68b5      	ldr	r5, [r6, #8]
    2aa2:	e003      	b.n	2aac <_vfiprintf_r+0x34>
    2aa4:	4b70      	ldr	r3, [pc, #448]	; (2c68 <_vfiprintf_r+0x1f0>)
    2aa6:	429d      	cmp	r5, r3
    2aa8:	bf08      	it	eq
    2aaa:	68f5      	ldreq	r5, [r6, #12]
    2aac:	89ab      	ldrh	r3, [r5, #12]
    2aae:	0718      	lsls	r0, r3, #28
    2ab0:	d50a      	bpl.n	2ac8 <_vfiprintf_r+0x50>
    2ab2:	692b      	ldr	r3, [r5, #16]
    2ab4:	b143      	cbz	r3, 2ac8 <_vfiprintf_r+0x50>
    2ab6:	2300      	movs	r3, #0
    2ab8:	9309      	str	r3, [sp, #36]	; 0x24
    2aba:	2320      	movs	r3, #32
    2abc:	f88d 3029 	strb.w	r3, [sp, #41]	; 0x29
    2ac0:	2330      	movs	r3, #48	; 0x30
    2ac2:	f88d 302a 	strb.w	r3, [sp, #42]	; 0x2a
    2ac6:	e038      	b.n	2b3a <_vfiprintf_r+0xc2>
    2ac8:	4630      	mov	r0, r6
    2aca:	4629      	mov	r1, r5
    2acc:	f000 fc28 	bl	3320 <__swsetup_r>
    2ad0:	2800      	cmp	r0, #0
    2ad2:	d0f0      	beq.n	2ab6 <_vfiprintf_r+0x3e>
    2ad4:	f04f 30ff 	mov.w	r0, #4294967295	; 0xffffffff
    2ad8:	e0be      	b.n	2c58 <_vfiprintf_r+0x1e0>
    2ada:	9a03      	ldr	r2, [sp, #12]
    2adc:	1d11      	adds	r1, r2, #4
    2ade:	6812      	ldr	r2, [r2, #0]
    2ae0:	9103      	str	r1, [sp, #12]
    2ae2:	2a00      	cmp	r2, #0
    2ae4:	db70      	blt.n	2bc8 <_vfiprintf_r+0x150>
    2ae6:	9207      	str	r2, [sp, #28]
    2ae8:	3401      	adds	r4, #1
    2aea:	7823      	ldrb	r3, [r4, #0]
    2aec:	2b2e      	cmp	r3, #46	; 0x2e
    2aee:	d07d      	beq.n	2bec <_vfiprintf_r+0x174>
    2af0:	4f5e      	ldr	r7, [pc, #376]	; (2c6c <_vfiprintf_r+0x1f4>)
    2af2:	7821      	ldrb	r1, [r4, #0]
    2af4:	4638      	mov	r0, r7
    2af6:	2203      	movs	r2, #3
    2af8:	f000 fcfc 	bl	34f4 <memchr>
    2afc:	b130      	cbz	r0, 2b0c <_vfiprintf_r+0x94>
    2afe:	1bc7      	subs	r7, r0, r7
    2b00:	2040      	movs	r0, #64	; 0x40
    2b02:	40b8      	lsls	r0, r7
    2b04:	9b04      	ldr	r3, [sp, #16]
    2b06:	3401      	adds	r4, #1
    2b08:	4303      	orrs	r3, r0
    2b0a:	9304      	str	r3, [sp, #16]
    2b0c:	7821      	ldrb	r1, [r4, #0]
    2b0e:	4858      	ldr	r0, [pc, #352]	; (2c70 <_vfiprintf_r+0x1f8>)
    2b10:	2206      	movs	r2, #6
    2b12:	1c67      	adds	r7, r4, #1
    2b14:	f88d 1028 	strb.w	r1, [sp, #40]	; 0x28
    2b18:	f000 fcec 	bl	34f4 <memchr>
    2b1c:	2800      	cmp	r0, #0
    2b1e:	f000 8089 	beq.w	2c34 <_vfiprintf_r+0x1bc>
    2b22:	4b54      	ldr	r3, [pc, #336]	; (2c74 <_vfiprintf_r+0x1fc>)
    2b24:	2b00      	cmp	r3, #0
    2b26:	d17c      	bne.n	2c22 <_vfiprintf_r+0x1aa>
    2b28:	9b03      	ldr	r3, [sp, #12]
    2b2a:	3307      	adds	r3, #7
    2b2c:	f023 0307 	bic.w	r3, r3, #7
    2b30:	3308      	adds	r3, #8
    2b32:	9303      	str	r3, [sp, #12]
    2b34:	9b09      	ldr	r3, [sp, #36]	; 0x24
    2b36:	4443      	add	r3, r8
    2b38:	9309      	str	r3, [sp, #36]	; 0x24
    2b3a:	463b      	mov	r3, r7
    2b3c:	461c      	mov	r4, r3
    2b3e:	f813 2b01 	ldrb.w	r2, [r3], #1
    2b42:	b91a      	cbnz	r2, 2b4c <_vfiprintf_r+0xd4>
    2b44:	ebb4 0907 	subs.w	r9, r4, r7
    2b48:	d00e      	beq.n	2b68 <_vfiprintf_r+0xf0>
    2b4a:	e002      	b.n	2b52 <_vfiprintf_r+0xda>
    2b4c:	2a25      	cmp	r2, #37	; 0x25
    2b4e:	d1f5      	bne.n	2b3c <_vfiprintf_r+0xc4>
    2b50:	e7f8      	b.n	2b44 <_vfiprintf_r+0xcc>
    2b52:	4630      	mov	r0, r6
    2b54:	4629      	mov	r1, r5
    2b56:	463a      	mov	r2, r7
    2b58:	464b      	mov	r3, r9
    2b5a:	f7ff ff7a 	bl	2a52 <__sfputs_r>
    2b5e:	3001      	adds	r0, #1
    2b60:	d075      	beq.n	2c4e <_vfiprintf_r+0x1d6>
    2b62:	9b09      	ldr	r3, [sp, #36]	; 0x24
    2b64:	444b      	add	r3, r9
    2b66:	9309      	str	r3, [sp, #36]	; 0x24
    2b68:	7823      	ldrb	r3, [r4, #0]
    2b6a:	2b00      	cmp	r3, #0
    2b6c:	d06f      	beq.n	2c4e <_vfiprintf_r+0x1d6>
    2b6e:	2300      	movs	r3, #0
    2b70:	f04f 32ff 	mov.w	r2, #4294967295	; 0xffffffff
    2b74:	9304      	str	r3, [sp, #16]
    2b76:	9307      	str	r3, [sp, #28]
    2b78:	9205      	str	r2, [sp, #20]
    2b7a:	9306      	str	r3, [sp, #24]
    2b7c:	f88d 3053 	strb.w	r3, [sp, #83]	; 0x53
    2b80:	931a      	str	r3, [sp, #104]	; 0x68
    2b82:	f104 0901 	add.w	r9, r4, #1
    2b86:	4f3c      	ldr	r7, [pc, #240]	; (2c78 <_vfiprintf_r+0x200>)
    2b88:	464c      	mov	r4, r9
    2b8a:	4638      	mov	r0, r7
    2b8c:	7821      	ldrb	r1, [r4, #0]
    2b8e:	2205      	movs	r2, #5
    2b90:	f000 fcb0 	bl	34f4 <memchr>
    2b94:	f109 0901 	add.w	r9, r9, #1
    2b98:	9b04      	ldr	r3, [sp, #16]
    2b9a:	b128      	cbz	r0, 2ba8 <_vfiprintf_r+0x130>
    2b9c:	1bc7      	subs	r7, r0, r7
    2b9e:	2001      	movs	r0, #1
    2ba0:	40b8      	lsls	r0, r7
    2ba2:	4303      	orrs	r3, r0
    2ba4:	9304      	str	r3, [sp, #16]
    2ba6:	e7ee      	b.n	2b86 <_vfiprintf_r+0x10e>
    2ba8:	06d9      	lsls	r1, r3, #27
    2baa:	bf44      	itt	mi
    2bac:	2220      	movmi	r2, #32
    2bae:	f88d 2053 	strbmi.w	r2, [sp, #83]	; 0x53
    2bb2:	071a      	lsls	r2, r3, #28
    2bb4:	bf44      	itt	mi
    2bb6:	222b      	movmi	r2, #43	; 0x2b
    2bb8:	f88d 2053 	strbmi.w	r2, [sp, #83]	; 0x53
    2bbc:	7822      	ldrb	r2, [r4, #0]
    2bbe:	2a2a      	cmp	r2, #42	; 0x2a
    2bc0:	d08b      	beq.n	2ada <_vfiprintf_r+0x62>
    2bc2:	9b07      	ldr	r3, [sp, #28]
    2bc4:	4621      	mov	r1, r4
    2bc6:	e005      	b.n	2bd4 <_vfiprintf_r+0x15c>
    2bc8:	4252      	negs	r2, r2
    2bca:	f043 0302 	orr.w	r3, r3, #2
    2bce:	9207      	str	r2, [sp, #28]
    2bd0:	9304      	str	r3, [sp, #16]
    2bd2:	e789      	b.n	2ae8 <_vfiprintf_r+0x70>
    2bd4:	460c      	mov	r4, r1
    2bd6:	7822      	ldrb	r2, [r4, #0]
    2bd8:	3101      	adds	r1, #1
    2bda:	3a30      	subs	r2, #48	; 0x30
    2bdc:	2a09      	cmp	r2, #9
    2bde:	d803      	bhi.n	2be8 <_vfiprintf_r+0x170>
    2be0:	200a      	movs	r0, #10
    2be2:	fb00 2303 	mla	r3, r0, r3, r2
    2be6:	e7f5      	b.n	2bd4 <_vfiprintf_r+0x15c>
    2be8:	9307      	str	r3, [sp, #28]
    2bea:	e77e      	b.n	2aea <_vfiprintf_r+0x72>
    2bec:	7863      	ldrb	r3, [r4, #1]
    2bee:	2b2a      	cmp	r3, #42	; 0x2a
    2bf0:	d109      	bne.n	2c06 <_vfiprintf_r+0x18e>
    2bf2:	9b03      	ldr	r3, [sp, #12]
    2bf4:	3402      	adds	r4, #2
    2bf6:	1d1a      	adds	r2, r3, #4
    2bf8:	681b      	ldr	r3, [r3, #0]
    2bfa:	9203      	str	r2, [sp, #12]
    2bfc:	2b00      	cmp	r3, #0
    2bfe:	bfb8      	it	lt
    2c00:	f04f 33ff 	movlt.w	r3, #4294967295	; 0xffffffff
    2c04:	e00b      	b.n	2c1e <_vfiprintf_r+0x1a6>
    2c06:	1c61      	adds	r1, r4, #1
    2c08:	2300      	movs	r3, #0
    2c0a:	460c      	mov	r4, r1
    2c0c:	7822      	ldrb	r2, [r4, #0]
    2c0e:	3101      	adds	r1, #1
    2c10:	3a30      	subs	r2, #48	; 0x30
    2c12:	2a09      	cmp	r2, #9
    2c14:	d803      	bhi.n	2c1e <_vfiprintf_r+0x1a6>
    2c16:	200a      	movs	r0, #10
    2c18:	fb00 2303 	mla	r3, r0, r3, r2
    2c1c:	e7f5      	b.n	2c0a <_vfiprintf_r+0x192>
    2c1e:	9305      	str	r3, [sp, #20]
    2c20:	e766      	b.n	2af0 <_vfiprintf_r+0x78>
    2c22:	ab03      	add	r3, sp, #12
    2c24:	9300      	str	r3, [sp, #0]
    2c26:	4630      	mov	r0, r6
    2c28:	a904      	add	r1, sp, #16
    2c2a:	462a      	mov	r2, r5
    2c2c:	4b13      	ldr	r3, [pc, #76]	; (2c7c <_vfiprintf_r+0x204>)
    2c2e:	f3af 8000 	nop.w
    2c32:	e007      	b.n	2c44 <_vfiprintf_r+0x1cc>
    2c34:	ab03      	add	r3, sp, #12
    2c36:	9300      	str	r3, [sp, #0]
    2c38:	4630      	mov	r0, r6
    2c3a:	a904      	add	r1, sp, #16
    2c3c:	462a      	mov	r2, r5
    2c3e:	4b0f      	ldr	r3, [pc, #60]	; (2c7c <_vfiprintf_r+0x204>)
    2c40:	f000 f89e 	bl	2d80 <_printf_i>
    2c44:	f1b0 3fff 	cmp.w	r0, #4294967295	; 0xffffffff
    2c48:	4680      	mov	r8, r0
    2c4a:	f47f af73 	bne.w	2b34 <_vfiprintf_r+0xbc>
    2c4e:	89ab      	ldrh	r3, [r5, #12]
    2c50:	065b      	lsls	r3, r3, #25
    2c52:	f53f af3f 	bmi.w	2ad4 <_vfiprintf_r+0x5c>
    2c56:	9809      	ldr	r0, [sp, #36]	; 0x24
    2c58:	b01d      	add	sp, #116	; 0x74
    2c5a:	e8bd 83f0 	ldmia.w	sp!, {r4, r5, r6, r7, r8, r9, pc}
    2c5e:	bf00      	nop
    2c60:	00003b90 	.word	0x00003b90
    2c64:	00003bb0 	.word	0x00003bb0
    2c68:	00003bd0 	.word	0x00003bd0
    2c6c:	00003bf8 	.word	0x00003bf8
    2c70:	00003c02 	.word	0x00003c02
    2c74:	00000000 	.word	0x00000000
    2c78:	00003bfc 	.word	0x00003bfc
    2c7c:	00002a53 	.word	0x00002a53

00002c80 <vfiprintf>:
    2c80:	b530      	push	{r4, r5, lr}
    2c82:	4613      	mov	r3, r2
    2c84:	4a04      	ldr	r2, [pc, #16]	; (2c98 <vfiprintf+0x18>)
    2c86:	4605      	mov	r5, r0
    2c88:	460c      	mov	r4, r1
    2c8a:	6810      	ldr	r0, [r2, #0]
    2c8c:	4629      	mov	r1, r5
    2c8e:	4622      	mov	r2, r4
    2c90:	e8bd 4030 	ldmia.w	sp!, {r4, r5, lr}
    2c94:	f7ff bef0 	b.w	2a78 <_vfiprintf_r>
    2c98:	10000134 	.word	0x10000134

00002c9c <_printf_common>:
    2c9c:	e92d 43f8 	stmdb	sp!, {r3, r4, r5, r6, r7, r8, r9, lr}
    2ca0:	4615      	mov	r5, r2
    2ca2:	461f      	mov	r7, r3
    2ca4:	688a      	ldr	r2, [r1, #8]
    2ca6:	690b      	ldr	r3, [r1, #16]
    2ca8:	4606      	mov	r6, r0
    2caa:	429a      	cmp	r2, r3
    2cac:	bfa8      	it	ge
    2cae:	4613      	movge	r3, r2
    2cb0:	602b      	str	r3, [r5, #0]
    2cb2:	f891 2043 	ldrb.w	r2, [r1, #67]	; 0x43
    2cb6:	460c      	mov	r4, r1
    2cb8:	f8dd 8020 	ldr.w	r8, [sp, #32]
    2cbc:	b10a      	cbz	r2, 2cc2 <_printf_common+0x26>
    2cbe:	3301      	adds	r3, #1
    2cc0:	602b      	str	r3, [r5, #0]
    2cc2:	6823      	ldr	r3, [r4, #0]
    2cc4:	0699      	lsls	r1, r3, #26
    2cc6:	d502      	bpl.n	2cce <_printf_common+0x32>
    2cc8:	682b      	ldr	r3, [r5, #0]
    2cca:	3302      	adds	r3, #2
    2ccc:	602b      	str	r3, [r5, #0]
    2cce:	6823      	ldr	r3, [r4, #0]
    2cd0:	f013 0906 	ands.w	r9, r3, #6
    2cd4:	d01d      	beq.n	2d12 <_printf_common+0x76>
    2cd6:	f894 3043 	ldrb.w	r3, [r4, #67]	; 0x43
    2cda:	6822      	ldr	r2, [r4, #0]
    2cdc:	3300      	adds	r3, #0
    2cde:	bf18      	it	ne
    2ce0:	2301      	movne	r3, #1
    2ce2:	0692      	lsls	r2, r2, #26
    2ce4:	d51f      	bpl.n	2d26 <_printf_common+0x8a>
    2ce6:	18e1      	adds	r1, r4, r3
    2ce8:	2030      	movs	r0, #48	; 0x30
    2cea:	f881 0043 	strb.w	r0, [r1, #67]	; 0x43
    2cee:	1c5a      	adds	r2, r3, #1
    2cf0:	f894 1045 	ldrb.w	r1, [r4, #69]	; 0x45
    2cf4:	4422      	add	r2, r4
    2cf6:	3302      	adds	r3, #2
    2cf8:	f882 1043 	strb.w	r1, [r2, #67]	; 0x43
    2cfc:	e013      	b.n	2d26 <_printf_common+0x8a>
    2cfe:	4630      	mov	r0, r6
    2d00:	4639      	mov	r1, r7
    2d02:	f104 0219 	add.w	r2, r4, #25
    2d06:	2301      	movs	r3, #1
    2d08:	47c0      	blx	r8
    2d0a:	3001      	adds	r0, #1
    2d0c:	d007      	beq.n	2d1e <_printf_common+0x82>
    2d0e:	f109 0901 	add.w	r9, r9, #1
    2d12:	68e2      	ldr	r2, [r4, #12]
    2d14:	682b      	ldr	r3, [r5, #0]
    2d16:	1ad3      	subs	r3, r2, r3
    2d18:	4599      	cmp	r9, r3
    2d1a:	dbf0      	blt.n	2cfe <_printf_common+0x62>
    2d1c:	e7db      	b.n	2cd6 <_printf_common+0x3a>
    2d1e:	f04f 30ff 	mov.w	r0, #4294967295	; 0xffffffff
    2d22:	e8bd 83f8 	ldmia.w	sp!, {r3, r4, r5, r6, r7, r8, r9, pc}
    2d26:	4630      	mov	r0, r6
    2d28:	4639      	mov	r1, r7
    2d2a:	f104 0243 	add.w	r2, r4, #67	; 0x43
    2d2e:	47c0      	blx	r8
    2d30:	3001      	adds	r0, #1
    2d32:	d0f4      	beq.n	2d1e <_printf_common+0x82>
    2d34:	6823      	ldr	r3, [r4, #0]
    2d36:	682a      	ldr	r2, [r5, #0]
    2d38:	f003 0306 	and.w	r3, r3, #6
    2d3c:	68e1      	ldr	r1, [r4, #12]
    2d3e:	2b04      	cmp	r3, #4
    2d40:	bf08      	it	eq
    2d42:	ebc2 0501 	rsbeq	r5, r2, r1
    2d46:	6923      	ldr	r3, [r4, #16]
    2d48:	68a2      	ldr	r2, [r4, #8]
    2d4a:	bf0c      	ite	eq
    2d4c:	ea25 75e5 	biceq.w	r5, r5, r5, asr #31
    2d50:	2500      	movne	r5, #0
    2d52:	429a      	cmp	r2, r3
    2d54:	bfc4      	itt	gt
    2d56:	ebc3 0302 	rsbgt	r3, r3, r2
    2d5a:	18ed      	addgt	r5, r5, r3
    2d5c:	f04f 0900 	mov.w	r9, #0
    2d60:	45a9      	cmp	r9, r5
    2d62:	da0a      	bge.n	2d7a <_printf_common+0xde>
    2d64:	4630      	mov	r0, r6
    2d66:	4639      	mov	r1, r7
    2d68:	f104 021a 	add.w	r2, r4, #26
    2d6c:	2301      	movs	r3, #1
    2d6e:	47c0      	blx	r8
    2d70:	3001      	adds	r0, #1
    2d72:	d0d4      	beq.n	2d1e <_printf_common+0x82>
    2d74:	f109 0901 	add.w	r9, r9, #1
    2d78:	e7f2      	b.n	2d60 <_printf_common+0xc4>
    2d7a:	2000      	movs	r0, #0
    2d7c:	e8bd 83f8 	ldmia.w	sp!, {r3, r4, r5, r6, r7, r8, r9, pc}

00002d80 <_printf_i>:
    2d80:	e92d 47ff 	stmdb	sp!, {r0, r1, r2, r3, r4, r5, r6, r7, r8, r9, r10, lr}
    2d84:	7e0e      	ldrb	r6, [r1, #24]
    2d86:	4680      	mov	r8, r0
    2d88:	2e6e      	cmp	r6, #110	; 0x6e
    2d8a:	460c      	mov	r4, r1
    2d8c:	4691      	mov	r9, r2
    2d8e:	469a      	mov	r10, r3
    2d90:	9d0c      	ldr	r5, [sp, #48]	; 0x30
    2d92:	f101 0043 	add.w	r0, r1, #67	; 0x43
    2d96:	f000 80a5 	beq.w	2ee4 <_printf_i+0x164>
    2d9a:	d811      	bhi.n	2dc0 <_printf_i+0x40>
    2d9c:	2e63      	cmp	r6, #99	; 0x63
    2d9e:	d022      	beq.n	2de6 <_printf_i+0x66>
    2da0:	d809      	bhi.n	2db6 <_printf_i+0x36>
    2da2:	2e00      	cmp	r6, #0
    2da4:	f000 80af 	beq.w	2f06 <_printf_i+0x186>
    2da8:	2e58      	cmp	r6, #88	; 0x58
    2daa:	f040 80bf 	bne.w	2f2c <_printf_i+0x1ac>
    2dae:	f881 6045 	strb.w	r6, [r1, #69]	; 0x45
    2db2:	4a7b      	ldr	r2, [pc, #492]	; (2fa0 <_printf_i+0x220>)
    2db4:	e04f      	b.n	2e56 <_printf_i+0xd6>
    2db6:	2e64      	cmp	r6, #100	; 0x64
    2db8:	d01e      	beq.n	2df8 <_printf_i+0x78>
    2dba:	2e69      	cmp	r6, #105	; 0x69
    2dbc:	d01c      	beq.n	2df8 <_printf_i+0x78>
    2dbe:	e0b5      	b.n	2f2c <_printf_i+0x1ac>
    2dc0:	2e73      	cmp	r6, #115	; 0x73
    2dc2:	f000 80a4 	beq.w	2f0e <_printf_i+0x18e>
    2dc6:	d809      	bhi.n	2ddc <_printf_i+0x5c>
    2dc8:	2e6f      	cmp	r6, #111	; 0x6f
    2dca:	d02b      	beq.n	2e24 <_printf_i+0xa4>
    2dcc:	2e70      	cmp	r6, #112	; 0x70
    2dce:	f040 80ad 	bne.w	2f2c <_printf_i+0x1ac>
    2dd2:	680b      	ldr	r3, [r1, #0]
    2dd4:	f043 0320 	orr.w	r3, r3, #32
    2dd8:	600b      	str	r3, [r1, #0]
    2dda:	e038      	b.n	2e4e <_printf_i+0xce>
    2ddc:	2e75      	cmp	r6, #117	; 0x75
    2dde:	d021      	beq.n	2e24 <_printf_i+0xa4>
    2de0:	2e78      	cmp	r6, #120	; 0x78
    2de2:	d034      	beq.n	2e4e <_printf_i+0xce>
    2de4:	e0a2      	b.n	2f2c <_printf_i+0x1ac>
    2de6:	682b      	ldr	r3, [r5, #0]
    2de8:	f101 0742 	add.w	r7, r1, #66	; 0x42
    2dec:	1d1a      	adds	r2, r3, #4
    2dee:	681b      	ldr	r3, [r3, #0]
    2df0:	602a      	str	r2, [r5, #0]
    2df2:	f881 3042 	strb.w	r3, [r1, #66]	; 0x42
    2df6:	e09d      	b.n	2f34 <_printf_i+0x1b4>
    2df8:	6822      	ldr	r2, [r4, #0]
    2dfa:	682b      	ldr	r3, [r5, #0]
    2dfc:	f012 0f80 	tst.w	r2, #128	; 0x80
    2e00:	d003      	beq.n	2e0a <_printf_i+0x8a>
    2e02:	1d1a      	adds	r2, r3, #4
    2e04:	602a      	str	r2, [r5, #0]
    2e06:	681d      	ldr	r5, [r3, #0]
    2e08:	e005      	b.n	2e16 <_printf_i+0x96>
    2e0a:	0651      	lsls	r1, r2, #25
    2e0c:	d5f9      	bpl.n	2e02 <_printf_i+0x82>
    2e0e:	1d1a      	adds	r2, r3, #4
    2e10:	602a      	str	r2, [r5, #0]
    2e12:	f9b3 5000 	ldrsh.w	r5, [r3]
    2e16:	2d00      	cmp	r5, #0
    2e18:	da39      	bge.n	2e8e <_printf_i+0x10e>
    2e1a:	232d      	movs	r3, #45	; 0x2d
    2e1c:	426d      	negs	r5, r5
    2e1e:	f884 3043 	strb.w	r3, [r4, #67]	; 0x43
    2e22:	e034      	b.n	2e8e <_printf_i+0x10e>
    2e24:	6822      	ldr	r2, [r4, #0]
    2e26:	682b      	ldr	r3, [r5, #0]
    2e28:	f012 0f80 	tst.w	r2, #128	; 0x80
    2e2c:	d003      	beq.n	2e36 <_printf_i+0xb6>
    2e2e:	1d1a      	adds	r2, r3, #4
    2e30:	602a      	str	r2, [r5, #0]
    2e32:	681d      	ldr	r5, [r3, #0]
    2e34:	e004      	b.n	2e40 <_printf_i+0xc0>
    2e36:	0652      	lsls	r2, r2, #25
    2e38:	d5f9      	bpl.n	2e2e <_printf_i+0xae>
    2e3a:	1d1a      	adds	r2, r3, #4
    2e3c:	602a      	str	r2, [r5, #0]
    2e3e:	881d      	ldrh	r5, [r3, #0]
    2e40:	7e23      	ldrb	r3, [r4, #24]
    2e42:	4a57      	ldr	r2, [pc, #348]	; (2fa0 <_printf_i+0x220>)
    2e44:	2b6f      	cmp	r3, #111	; 0x6f
    2e46:	bf14      	ite	ne
    2e48:	230a      	movne	r3, #10
    2e4a:	2308      	moveq	r3, #8
    2e4c:	e01b      	b.n	2e86 <_printf_i+0x106>
    2e4e:	2378      	movs	r3, #120	; 0x78
    2e50:	4a54      	ldr	r2, [pc, #336]	; (2fa4 <_printf_i+0x224>)
    2e52:	f884 3045 	strb.w	r3, [r4, #69]	; 0x45
    2e56:	6823      	ldr	r3, [r4, #0]
    2e58:	6829      	ldr	r1, [r5, #0]
    2e5a:	f013 0f80 	tst.w	r3, #128	; 0x80
    2e5e:	f101 0604 	add.w	r6, r1, #4
    2e62:	602e      	str	r6, [r5, #0]
    2e64:	d001      	beq.n	2e6a <_printf_i+0xea>
    2e66:	680d      	ldr	r5, [r1, #0]
    2e68:	e002      	b.n	2e70 <_printf_i+0xf0>
    2e6a:	065f      	lsls	r7, r3, #25
    2e6c:	d5fb      	bpl.n	2e66 <_printf_i+0xe6>
    2e6e:	880d      	ldrh	r5, [r1, #0]
    2e70:	07de      	lsls	r6, r3, #31
    2e72:	bf44      	itt	mi
    2e74:	f043 0320 	orrmi.w	r3, r3, #32
    2e78:	6023      	strmi	r3, [r4, #0]
    2e7a:	b91d      	cbnz	r5, 2e84 <_printf_i+0x104>
    2e7c:	6823      	ldr	r3, [r4, #0]
    2e7e:	f023 0320 	bic.w	r3, r3, #32
    2e82:	6023      	str	r3, [r4, #0]
    2e84:	2310      	movs	r3, #16
    2e86:	2100      	movs	r1, #0
    2e88:	f884 1043 	strb.w	r1, [r4, #67]	; 0x43
    2e8c:	e001      	b.n	2e92 <_printf_i+0x112>
    2e8e:	4a44      	ldr	r2, [pc, #272]	; (2fa0 <_printf_i+0x220>)
    2e90:	230a      	movs	r3, #10
    2e92:	6866      	ldr	r6, [r4, #4]
    2e94:	2e00      	cmp	r6, #0
    2e96:	60a6      	str	r6, [r4, #8]
    2e98:	db03      	blt.n	2ea2 <_printf_i+0x122>
    2e9a:	6821      	ldr	r1, [r4, #0]
    2e9c:	f021 0104 	bic.w	r1, r1, #4
    2ea0:	6021      	str	r1, [r4, #0]
    2ea2:	b905      	cbnz	r5, 2ea6 <_printf_i+0x126>
    2ea4:	b16e      	cbz	r6, 2ec2 <_printf_i+0x142>
    2ea6:	f104 0142 	add.w	r1, r4, #66	; 0x42
    2eaa:	fbb5 f6f3 	udiv	r6, r5, r3
    2eae:	fb03 5516 	mls	r5, r3, r6, r5
    2eb2:	5d55      	ldrb	r5, [r2, r5]
    2eb4:	460f      	mov	r7, r1
    2eb6:	f801 5901 	strb.w	r5, [r1], #-1
    2eba:	4635      	mov	r5, r6
    2ebc:	2e00      	cmp	r6, #0
    2ebe:	d1f4      	bne.n	2eaa <_printf_i+0x12a>
    2ec0:	e000      	b.n	2ec4 <_printf_i+0x144>
    2ec2:	4607      	mov	r7, r0
    2ec4:	2b08      	cmp	r3, #8
    2ec6:	d10a      	bne.n	2ede <_printf_i+0x15e>
    2ec8:	6823      	ldr	r3, [r4, #0]
    2eca:	07dd      	lsls	r5, r3, #31
    2ecc:	d507      	bpl.n	2ede <_printf_i+0x15e>
    2ece:	6862      	ldr	r2, [r4, #4]
    2ed0:	6923      	ldr	r3, [r4, #16]
    2ed2:	429a      	cmp	r2, r3
    2ed4:	dc03      	bgt.n	2ede <_printf_i+0x15e>
    2ed6:	2330      	movs	r3, #48	; 0x30
    2ed8:	f807 3c01 	strb.w	r3, [r7, #-1]
    2edc:	3f01      	subs	r7, #1
    2ede:	1bc0      	subs	r0, r0, r7
    2ee0:	6120      	str	r0, [r4, #16]
    2ee2:	e02c      	b.n	2f3e <_printf_i+0x1be>
    2ee4:	6809      	ldr	r1, [r1, #0]
    2ee6:	682b      	ldr	r3, [r5, #0]
    2ee8:	f011 0f80 	tst.w	r1, #128	; 0x80
    2eec:	6962      	ldr	r2, [r4, #20]
    2eee:	d004      	beq.n	2efa <_printf_i+0x17a>
    2ef0:	1d19      	adds	r1, r3, #4
    2ef2:	6029      	str	r1, [r5, #0]
    2ef4:	681b      	ldr	r3, [r3, #0]
    2ef6:	601a      	str	r2, [r3, #0]
    2ef8:	e005      	b.n	2f06 <_printf_i+0x186>
    2efa:	0649      	lsls	r1, r1, #25
    2efc:	d5f8      	bpl.n	2ef0 <_printf_i+0x170>
    2efe:	1d19      	adds	r1, r3, #4
    2f00:	6029      	str	r1, [r5, #0]
    2f02:	681b      	ldr	r3, [r3, #0]
    2f04:	801a      	strh	r2, [r3, #0]
    2f06:	2300      	movs	r3, #0
    2f08:	6123      	str	r3, [r4, #16]
    2f0a:	4607      	mov	r7, r0
    2f0c:	e017      	b.n	2f3e <_printf_i+0x1be>
    2f0e:	682b      	ldr	r3, [r5, #0]
    2f10:	1d1a      	adds	r2, r3, #4
    2f12:	602a      	str	r2, [r5, #0]
    2f14:	681f      	ldr	r7, [r3, #0]
    2f16:	4638      	mov	r0, r7
    2f18:	f7ff fb85 	bl	2626 <strlen>
    2f1c:	6863      	ldr	r3, [r4, #4]
    2f1e:	6120      	str	r0, [r4, #16]
    2f20:	4298      	cmp	r0, r3
    2f22:	bf88      	it	hi
    2f24:	6123      	strhi	r3, [r4, #16]
    2f26:	6923      	ldr	r3, [r4, #16]
    2f28:	6063      	str	r3, [r4, #4]
    2f2a:	e005      	b.n	2f38 <_printf_i+0x1b8>
    2f2c:	f104 0742 	add.w	r7, r4, #66	; 0x42
    2f30:	f884 6042 	strb.w	r6, [r4, #66]	; 0x42
    2f34:	2301      	movs	r3, #1
    2f36:	6123      	str	r3, [r4, #16]
    2f38:	2300      	movs	r3, #0
    2f3a:	f884 3043 	strb.w	r3, [r4, #67]	; 0x43
    2f3e:	f8cd a000 	str.w	r10, [sp]
    2f42:	4640      	mov	r0, r8
    2f44:	4621      	mov	r1, r4
    2f46:	aa03      	add	r2, sp, #12
    2f48:	464b      	mov	r3, r9
    2f4a:	f7ff fea7 	bl	2c9c <_printf_common>
    2f4e:	3001      	adds	r0, #1
    2f50:	d102      	bne.n	2f58 <_printf_i+0x1d8>
    2f52:	f04f 30ff 	mov.w	r0, #4294967295	; 0xffffffff
    2f56:	e01f      	b.n	2f98 <_printf_i+0x218>
    2f58:	4640      	mov	r0, r8
    2f5a:	4649      	mov	r1, r9
    2f5c:	463a      	mov	r2, r7
    2f5e:	6923      	ldr	r3, [r4, #16]
    2f60:	47d0      	blx	r10
    2f62:	3001      	adds	r0, #1
    2f64:	d0f5      	beq.n	2f52 <_printf_i+0x1d2>
    2f66:	6823      	ldr	r3, [r4, #0]
    2f68:	079b      	lsls	r3, r3, #30
    2f6a:	d405      	bmi.n	2f78 <_printf_i+0x1f8>
    2f6c:	68e0      	ldr	r0, [r4, #12]
    2f6e:	9b03      	ldr	r3, [sp, #12]
    2f70:	4298      	cmp	r0, r3
    2f72:	bfb8      	it	lt
    2f74:	4618      	movlt	r0, r3
    2f76:	e00f      	b.n	2f98 <_printf_i+0x218>
    2f78:	2500      	movs	r5, #0
    2f7a:	68e2      	ldr	r2, [r4, #12]
    2f7c:	9b03      	ldr	r3, [sp, #12]
    2f7e:	1ad3      	subs	r3, r2, r3
    2f80:	429d      	cmp	r5, r3
    2f82:	daf3      	bge.n	2f6c <_printf_i+0x1ec>
    2f84:	4640      	mov	r0, r8
    2f86:	4649      	mov	r1, r9
    2f88:	f104 0219 	add.w	r2, r4, #25
    2f8c:	2301      	movs	r3, #1
    2f8e:	47d0      	blx	r10
    2f90:	3001      	adds	r0, #1
    2f92:	d0de      	beq.n	2f52 <_printf_i+0x1d2>
    2f94:	3501      	adds	r5, #1
    2f96:	e7f0      	b.n	2f7a <_printf_i+0x1fa>
    2f98:	b004      	add	sp, #16
    2f9a:	e8bd 87f0 	ldmia.w	sp!, {r4, r5, r6, r7, r8, r9, r10, pc}
    2f9e:	bf00      	nop
    2fa0:	00003c09 	.word	0x00003c09
    2fa4:	00003c1a 	.word	0x00003c1a

00002fa8 <_scanf_chars>:
    2fa8:	e92d 41f0 	stmdb	sp!, {r4, r5, r6, r7, r8, lr}
    2fac:	4615      	mov	r5, r2
    2fae:	688a      	ldr	r2, [r1, #8]
    2fb0:	4680      	mov	r8, r0
    2fb2:	460c      	mov	r4, r1
    2fb4:	b932      	cbnz	r2, 2fc4 <_scanf_chars+0x1c>
    2fb6:	698a      	ldr	r2, [r1, #24]
    2fb8:	2a00      	cmp	r2, #0
    2fba:	bf14      	ite	ne
    2fbc:	f04f 32ff 	movne.w	r2, #4294967295	; 0xffffffff
    2fc0:	2201      	moveq	r2, #1
    2fc2:	608a      	str	r2, [r1, #8]
    2fc4:	6822      	ldr	r2, [r4, #0]
    2fc6:	06d1      	lsls	r1, r2, #27
    2fc8:	d403      	bmi.n	2fd2 <_scanf_chars+0x2a>
    2fca:	681a      	ldr	r2, [r3, #0]
    2fcc:	1d11      	adds	r1, r2, #4
    2fce:	6019      	str	r1, [r3, #0]
    2fd0:	6817      	ldr	r7, [r2, #0]
    2fd2:	2600      	movs	r6, #0
    2fd4:	69a0      	ldr	r0, [r4, #24]
    2fd6:	b9e0      	cbnz	r0, 3012 <_scanf_chars+0x6a>
    2fd8:	6823      	ldr	r3, [r4, #0]
    2fda:	3601      	adds	r6, #1
    2fdc:	06da      	lsls	r2, r3, #27
    2fde:	d404      	bmi.n	2fea <_scanf_chars+0x42>
    2fe0:	682b      	ldr	r3, [r5, #0]
    2fe2:	3701      	adds	r7, #1
    2fe4:	781b      	ldrb	r3, [r3, #0]
    2fe6:	f807 3c01 	strb.w	r3, [r7, #-1]
    2fea:	682a      	ldr	r2, [r5, #0]
    2fec:	686b      	ldr	r3, [r5, #4]
    2fee:	3201      	adds	r2, #1
    2ff0:	602a      	str	r2, [r5, #0]
    2ff2:	68a2      	ldr	r2, [r4, #8]
    2ff4:	3b01      	subs	r3, #1
    2ff6:	3a01      	subs	r2, #1
    2ff8:	606b      	str	r3, [r5, #4]
    2ffa:	60a2      	str	r2, [r4, #8]
    2ffc:	b312      	cbz	r2, 3044 <_scanf_chars+0x9c>
    2ffe:	2b00      	cmp	r3, #0
    3000:	dce8      	bgt.n	2fd4 <_scanf_chars+0x2c>
    3002:	f8d4 3180 	ldr.w	r3, [r4, #384]	; 0x180
    3006:	4640      	mov	r0, r8
    3008:	4629      	mov	r1, r5
    300a:	4798      	blx	r3
    300c:	2800      	cmp	r0, #0
    300e:	d0e1      	beq.n	2fd4 <_scanf_chars+0x2c>
    3010:	e018      	b.n	3044 <_scanf_chars+0x9c>
    3012:	2801      	cmp	r0, #1
    3014:	d107      	bne.n	3026 <_scanf_chars+0x7e>
    3016:	682a      	ldr	r2, [r5, #0]
    3018:	7811      	ldrb	r1, [r2, #0]
    301a:	6962      	ldr	r2, [r4, #20]
    301c:	5c52      	ldrb	r2, [r2, r1]
    301e:	2a00      	cmp	r2, #0
    3020:	d1da      	bne.n	2fd8 <_scanf_chars+0x30>
    3022:	b1ee      	cbz	r6, 3060 <_scanf_chars+0xb8>
    3024:	e00e      	b.n	3044 <_scanf_chars+0x9c>
    3026:	2802      	cmp	r0, #2
    3028:	d001      	beq.n	302e <_scanf_chars+0x86>
    302a:	b14e      	cbz	r6, 3040 <_scanf_chars+0x98>
    302c:	e00a      	b.n	3044 <_scanf_chars+0x9c>
    302e:	682a      	ldr	r2, [r5, #0]
    3030:	490c      	ldr	r1, [pc, #48]	; (3064 <_scanf_chars+0xbc>)
    3032:	7812      	ldrb	r2, [r2, #0]
    3034:	6809      	ldr	r1, [r1, #0]
    3036:	440a      	add	r2, r1
    3038:	7852      	ldrb	r2, [r2, #1]
    303a:	0713      	lsls	r3, r2, #28
    303c:	d5cc      	bpl.n	2fd8 <_scanf_chars+0x30>
    303e:	e7f4      	b.n	302a <_scanf_chars+0x82>
    3040:	2801      	cmp	r0, #1
    3042:	d00d      	beq.n	3060 <_scanf_chars+0xb8>
    3044:	6823      	ldr	r3, [r4, #0]
    3046:	f013 0310 	ands.w	r3, r3, #16
    304a:	d105      	bne.n	3058 <_scanf_chars+0xb0>
    304c:	68e2      	ldr	r2, [r4, #12]
    304e:	3201      	adds	r2, #1
    3050:	60e2      	str	r2, [r4, #12]
    3052:	69a2      	ldr	r2, [r4, #24]
    3054:	b102      	cbz	r2, 3058 <_scanf_chars+0xb0>
    3056:	703b      	strb	r3, [r7, #0]
    3058:	6923      	ldr	r3, [r4, #16]
    305a:	2000      	movs	r0, #0
    305c:	441e      	add	r6, r3
    305e:	6126      	str	r6, [r4, #16]
    3060:	e8bd 81f0 	ldmia.w	sp!, {r4, r5, r6, r7, r8, pc}
    3064:	10000138 	.word	0x10000138

00003068 <_scanf_i>:
    3068:	e92d 4ff0 	stmdb	sp!, {r4, r5, r6, r7, r8, r9, r10, r11, lr}
    306c:	b089      	sub	sp, #36	; 0x24
    306e:	460c      	mov	r4, r1
    3070:	4698      	mov	r8, r3
    3072:	a905      	add	r1, sp, #20
    3074:	4b73      	ldr	r3, [pc, #460]	; (3244 <_scanf_i+0x1dc>)
    3076:	9102      	str	r1, [sp, #8]
    3078:	4681      	mov	r9, r0
    307a:	4616      	mov	r6, r2
    307c:	e893 0007 	ldmia.w	r3, {r0, r1, r2}
    3080:	9b02      	ldr	r3, [sp, #8]
    3082:	e883 0007 	stmia.w	r3, {r0, r1, r2}
    3086:	69a3      	ldr	r3, [r4, #24]
    3088:	4a6f      	ldr	r2, [pc, #444]	; (3248 <_scanf_i+0x1e0>)
    308a:	4970      	ldr	r1, [pc, #448]	; (324c <_scanf_i+0x1e4>)
    308c:	2b03      	cmp	r3, #3
    308e:	bf08      	it	eq
    3090:	4611      	moveq	r1, r2
    3092:	68a3      	ldr	r3, [r4, #8]
    3094:	9103      	str	r1, [sp, #12]
    3096:	1e5a      	subs	r2, r3, #1
    3098:	f5b2 7fae 	cmp.w	r2, #348	; 0x15c
    309c:	d907      	bls.n	30ae <_scanf_i+0x46>
    309e:	f46f 75ae 	mvn.w	r5, #348	; 0x15c
    30a2:	eb03 0a05 	add.w	r10, r3, r5
    30a6:	f240 135d 	movw	r3, #349	; 0x15d
    30aa:	60a3      	str	r3, [r4, #8]
    30ac:	e001      	b.n	30b2 <_scanf_i+0x4a>
    30ae:	f04f 0a00 	mov.w	r10, #0
    30b2:	6823      	ldr	r3, [r4, #0]
    30b4:	f104 071c 	add.w	r7, r4, #28
    30b8:	f443 6350 	orr.w	r3, r3, #3328	; 0xd00
    30bc:	6023      	str	r3, [r4, #0]
    30be:	46bb      	mov	r11, r7
    30c0:	2300      	movs	r3, #0
    30c2:	6832      	ldr	r2, [r6, #0]
    30c4:	a905      	add	r1, sp, #20
    30c6:	f851 0023 	ldr.w	r0, [r1, r3, lsl #2]
    30ca:	7811      	ldrb	r1, [r2, #0]
    30cc:	2202      	movs	r2, #2
    30ce:	9301      	str	r3, [sp, #4]
    30d0:	f000 fa10 	bl	34f4 <memchr>
    30d4:	9b01      	ldr	r3, [sp, #4]
    30d6:	2800      	cmp	r0, #0
    30d8:	d035      	beq.n	3146 <_scanf_i+0xde>
    30da:	2b01      	cmp	r3, #1
    30dc:	d10b      	bne.n	30f6 <_scanf_i+0x8e>
    30de:	6862      	ldr	r2, [r4, #4]
    30e0:	b92a      	cbnz	r2, 30ee <_scanf_i+0x86>
    30e2:	2208      	movs	r2, #8
    30e4:	6062      	str	r2, [r4, #4]
    30e6:	6822      	ldr	r2, [r4, #0]
    30e8:	f442 7200 	orr.w	r2, r2, #512	; 0x200
    30ec:	6022      	str	r2, [r4, #0]
    30ee:	6822      	ldr	r2, [r4, #0]
    30f0:	f422 62a0 	bic.w	r2, r2, #1280	; 0x500
    30f4:	e00b      	b.n	310e <_scanf_i+0xa6>
    30f6:	2b02      	cmp	r3, #2
    30f8:	d10a      	bne.n	3110 <_scanf_i+0xa8>
    30fa:	6822      	ldr	r2, [r4, #0]
    30fc:	f402 61c0 	and.w	r1, r2, #1536	; 0x600
    3100:	f5b1 7f00 	cmp.w	r1, #512	; 0x200
    3104:	d11f      	bne.n	3146 <_scanf_i+0xde>
    3106:	2110      	movs	r1, #16
    3108:	6061      	str	r1, [r4, #4]
    310a:	f442 7280 	orr.w	r2, r2, #256	; 0x100
    310e:	6022      	str	r2, [r4, #0]
    3110:	68a2      	ldr	r2, [r4, #8]
    3112:	1e51      	subs	r1, r2, #1
    3114:	60a1      	str	r1, [r4, #8]
    3116:	b1b2      	cbz	r2, 3146 <_scanf_i+0xde>
    3118:	6832      	ldr	r2, [r6, #0]
    311a:	f10b 0501 	add.w	r5, r11, #1
    311e:	1c51      	adds	r1, r2, #1
    3120:	6031      	str	r1, [r6, #0]
    3122:	7812      	ldrb	r2, [r2, #0]
    3124:	f88b 2000 	strb.w	r2, [r11]
    3128:	6872      	ldr	r2, [r6, #4]
    312a:	3a01      	subs	r2, #1
    312c:	2a00      	cmp	r2, #0
    312e:	6072      	str	r2, [r6, #4]
    3130:	dc08      	bgt.n	3144 <_scanf_i+0xdc>
    3132:	9301      	str	r3, [sp, #4]
    3134:	f8d4 2180 	ldr.w	r2, [r4, #384]	; 0x180
    3138:	4648      	mov	r0, r9
    313a:	4631      	mov	r1, r6
    313c:	4790      	blx	r2
    313e:	9b01      	ldr	r3, [sp, #4]
    3140:	2800      	cmp	r0, #0
    3142:	d141      	bne.n	31c8 <_scanf_i+0x160>
    3144:	46ab      	mov	r11, r5
    3146:	3301      	adds	r3, #1
    3148:	2b03      	cmp	r3, #3
    314a:	d1ba      	bne.n	30c2 <_scanf_i+0x5a>
    314c:	6863      	ldr	r3, [r4, #4]
    314e:	b90b      	cbnz	r3, 3154 <_scanf_i+0xec>
    3150:	230a      	movs	r3, #10
    3152:	6063      	str	r3, [r4, #4]
    3154:	6863      	ldr	r3, [r4, #4]
    3156:	493e      	ldr	r1, [pc, #248]	; (3250 <_scanf_i+0x1e8>)
    3158:	6960      	ldr	r0, [r4, #20]
    315a:	1ac9      	subs	r1, r1, r3
    315c:	f000 fa10 	bl	3580 <__sccl>
    3160:	465d      	mov	r5, r11
    3162:	f04f 0b00 	mov.w	r11, #0
    3166:	68a3      	ldr	r3, [r4, #8]
    3168:	2b00      	cmp	r3, #0
    316a:	d02f      	beq.n	31cc <_scanf_i+0x164>
    316c:	6832      	ldr	r2, [r6, #0]
    316e:	6960      	ldr	r0, [r4, #20]
    3170:	7811      	ldrb	r1, [r2, #0]
    3172:	5c40      	ldrb	r0, [r0, r1]
    3174:	b350      	cbz	r0, 31cc <_scanf_i+0x164>
    3176:	2930      	cmp	r1, #48	; 0x30
    3178:	6821      	ldr	r1, [r4, #0]
    317a:	d10b      	bne.n	3194 <_scanf_i+0x12c>
    317c:	0508      	lsls	r0, r1, #20
    317e:	d509      	bpl.n	3194 <_scanf_i+0x12c>
    3180:	f10b 0b01 	add.w	r11, r11, #1
    3184:	f1ba 0f00 	cmp.w	r10, #0
    3188:	d00b      	beq.n	31a2 <_scanf_i+0x13a>
    318a:	3301      	adds	r3, #1
    318c:	f10a 3aff 	add.w	r10, r10, #4294967295	; 0xffffffff
    3190:	60a3      	str	r3, [r4, #8]
    3192:	e006      	b.n	31a2 <_scanf_i+0x13a>
    3194:	f421 6110 	bic.w	r1, r1, #2304	; 0x900
    3198:	6021      	str	r1, [r4, #0]
    319a:	7813      	ldrb	r3, [r2, #0]
    319c:	3501      	adds	r5, #1
    319e:	f805 3c01 	strb.w	r3, [r5, #-1]
    31a2:	6873      	ldr	r3, [r6, #4]
    31a4:	3b01      	subs	r3, #1
    31a6:	2b00      	cmp	r3, #0
    31a8:	6073      	str	r3, [r6, #4]
    31aa:	dd03      	ble.n	31b4 <_scanf_i+0x14c>
    31ac:	6833      	ldr	r3, [r6, #0]
    31ae:	3301      	adds	r3, #1
    31b0:	6033      	str	r3, [r6, #0]
    31b2:	e005      	b.n	31c0 <_scanf_i+0x158>
    31b4:	f8d4 3180 	ldr.w	r3, [r4, #384]	; 0x180
    31b8:	4648      	mov	r0, r9
    31ba:	4631      	mov	r1, r6
    31bc:	4798      	blx	r3
    31be:	b928      	cbnz	r0, 31cc <_scanf_i+0x164>
    31c0:	68a3      	ldr	r3, [r4, #8]
    31c2:	3b01      	subs	r3, #1
    31c4:	60a3      	str	r3, [r4, #8]
    31c6:	e7ce      	b.n	3166 <_scanf_i+0xfe>
    31c8:	f04f 0b00 	mov.w	r11, #0
    31cc:	6823      	ldr	r3, [r4, #0]
    31ce:	05d9      	lsls	r1, r3, #23
    31d0:	d50d      	bpl.n	31ee <_scanf_i+0x186>
    31d2:	42bd      	cmp	r5, r7
    31d4:	d909      	bls.n	31ea <_scanf_i+0x182>
    31d6:	f815 1c01 	ldrb.w	r1, [r5, #-1]
    31da:	f8d4 317c 	ldr.w	r3, [r4, #380]	; 0x17c
    31de:	4648      	mov	r0, r9
    31e0:	4632      	mov	r2, r6
    31e2:	4798      	blx	r3
    31e4:	f105 3aff 	add.w	r10, r5, #4294967295	; 0xffffffff
    31e8:	4655      	mov	r5, r10
    31ea:	42bd      	cmp	r5, r7
    31ec:	d026      	beq.n	323c <_scanf_i+0x1d4>
    31ee:	6822      	ldr	r2, [r4, #0]
    31f0:	f012 0210 	ands.w	r2, r2, #16
    31f4:	d11b      	bne.n	322e <_scanf_i+0x1c6>
    31f6:	702a      	strb	r2, [r5, #0]
    31f8:	6863      	ldr	r3, [r4, #4]
    31fa:	4648      	mov	r0, r9
    31fc:	4639      	mov	r1, r7
    31fe:	9e03      	ldr	r6, [sp, #12]
    3200:	47b0      	blx	r6
    3202:	6822      	ldr	r2, [r4, #0]
    3204:	f8d8 3000 	ldr.w	r3, [r8]
    3208:	f012 0f20 	tst.w	r2, #32
    320c:	d107      	bne.n	321e <_scanf_i+0x1b6>
    320e:	07d2      	lsls	r2, r2, #31
    3210:	d505      	bpl.n	321e <_scanf_i+0x1b6>
    3212:	1d1a      	adds	r2, r3, #4
    3214:	f8c8 2000 	str.w	r2, [r8]
    3218:	681b      	ldr	r3, [r3, #0]
    321a:	8018      	strh	r0, [r3, #0]
    321c:	e004      	b.n	3228 <_scanf_i+0x1c0>
    321e:	1d1a      	adds	r2, r3, #4
    3220:	f8c8 2000 	str.w	r2, [r8]
    3224:	681b      	ldr	r3, [r3, #0]
    3226:	6018      	str	r0, [r3, #0]
    3228:	68e3      	ldr	r3, [r4, #12]
    322a:	3301      	adds	r3, #1
    322c:	60e3      	str	r3, [r4, #12]
    322e:	6923      	ldr	r3, [r4, #16]
    3230:	1bed      	subs	r5, r5, r7
    3232:	44ab      	add	r11, r5
    3234:	445b      	add	r3, r11
    3236:	6123      	str	r3, [r4, #16]
    3238:	2000      	movs	r0, #0
    323a:	e000      	b.n	323e <_scanf_i+0x1d6>
    323c:	2001      	movs	r0, #1
    323e:	b009      	add	sp, #36	; 0x24
    3240:	e8bd 8ff0 	ldmia.w	sp!, {r4, r5, r6, r7, r8, r9, r10, r11, pc}
    3244:	00003c2c 	.word	0x00003c2c
    3248:	000035e5 	.word	0x000035e5
    324c:	000036e9 	.word	0x000036e9
    3250:	00003c48 	.word	0x00003c48

00003254 <__swbuf_r>:
    3254:	b570      	push	{r4, r5, r6, lr}
    3256:	460e      	mov	r6, r1
    3258:	4614      	mov	r4, r2
    325a:	4605      	mov	r5, r0
    325c:	b118      	cbz	r0, 3266 <__swbuf_r+0x12>
    325e:	6983      	ldr	r3, [r0, #24]
    3260:	b90b      	cbnz	r3, 3266 <__swbuf_r+0x12>
    3262:	f7fe fcc9 	bl	1bf8 <__sinit>
    3266:	4b22      	ldr	r3, [pc, #136]	; (32f0 <__swbuf_r+0x9c>)
    3268:	429c      	cmp	r4, r3
    326a:	d101      	bne.n	3270 <__swbuf_r+0x1c>
    326c:	686c      	ldr	r4, [r5, #4]
    326e:	e008      	b.n	3282 <__swbuf_r+0x2e>
    3270:	4b20      	ldr	r3, [pc, #128]	; (32f4 <__swbuf_r+0xa0>)
    3272:	429c      	cmp	r4, r3
    3274:	d101      	bne.n	327a <__swbuf_r+0x26>
    3276:	68ac      	ldr	r4, [r5, #8]
    3278:	e003      	b.n	3282 <__swbuf_r+0x2e>
    327a:	4b1f      	ldr	r3, [pc, #124]	; (32f8 <__swbuf_r+0xa4>)
    327c:	429c      	cmp	r4, r3
    327e:	bf08      	it	eq
    3280:	68ec      	ldreq	r4, [r5, #12]
    3282:	69a3      	ldr	r3, [r4, #24]
    3284:	60a3      	str	r3, [r4, #8]
    3286:	89a3      	ldrh	r3, [r4, #12]
    3288:	071a      	lsls	r2, r3, #28
    328a:	d509      	bpl.n	32a0 <__swbuf_r+0x4c>
    328c:	6923      	ldr	r3, [r4, #16]
    328e:	b13b      	cbz	r3, 32a0 <__swbuf_r+0x4c>
    3290:	6923      	ldr	r3, [r4, #16]
    3292:	6820      	ldr	r0, [r4, #0]
    3294:	b2f6      	uxtb	r6, r6
    3296:	1ac0      	subs	r0, r0, r3
    3298:	6963      	ldr	r3, [r4, #20]
    329a:	4298      	cmp	r0, r3
    329c:	db0f      	blt.n	32be <__swbuf_r+0x6a>
    329e:	e008      	b.n	32b2 <__swbuf_r+0x5e>
    32a0:	4628      	mov	r0, r5
    32a2:	4621      	mov	r1, r4
    32a4:	f000 f83c 	bl	3320 <__swsetup_r>
    32a8:	2800      	cmp	r0, #0
    32aa:	d0f1      	beq.n	3290 <__swbuf_r+0x3c>
    32ac:	f04f 30ff 	mov.w	r0, #4294967295	; 0xffffffff
    32b0:	bd70      	pop	{r4, r5, r6, pc}
    32b2:	4628      	mov	r0, r5
    32b4:	4621      	mov	r1, r4
    32b6:	f7fe fc0f 	bl	1ad8 <_fflush_r>
    32ba:	2800      	cmp	r0, #0
    32bc:	d1f6      	bne.n	32ac <__swbuf_r+0x58>
    32be:	68a3      	ldr	r3, [r4, #8]
    32c0:	3001      	adds	r0, #1
    32c2:	3b01      	subs	r3, #1
    32c4:	60a3      	str	r3, [r4, #8]
    32c6:	6823      	ldr	r3, [r4, #0]
    32c8:	1c5a      	adds	r2, r3, #1
    32ca:	6022      	str	r2, [r4, #0]
    32cc:	701e      	strb	r6, [r3, #0]
    32ce:	6963      	ldr	r3, [r4, #20]
    32d0:	4298      	cmp	r0, r3
    32d2:	d004      	beq.n	32de <__swbuf_r+0x8a>
    32d4:	89a3      	ldrh	r3, [r4, #12]
    32d6:	07db      	lsls	r3, r3, #31
    32d8:	d507      	bpl.n	32ea <__swbuf_r+0x96>
    32da:	2e0a      	cmp	r6, #10
    32dc:	d105      	bne.n	32ea <__swbuf_r+0x96>
    32de:	4628      	mov	r0, r5
    32e0:	4621      	mov	r1, r4
    32e2:	f7fe fbf9 	bl	1ad8 <_fflush_r>
    32e6:	2800      	cmp	r0, #0
    32e8:	d1e0      	bne.n	32ac <__swbuf_r+0x58>
    32ea:	4630      	mov	r0, r6
    32ec:	bd70      	pop	{r4, r5, r6, pc}
    32ee:	bf00      	nop
    32f0:	00003b90 	.word	0x00003b90
    32f4:	00003bb0 	.word	0x00003bb0
    32f8:	00003bd0 	.word	0x00003bd0

000032fc <_write_r>:
    32fc:	b538      	push	{r3, r4, r5, lr}
    32fe:	4c07      	ldr	r4, [pc, #28]	; (331c <_write_r+0x20>)
    3300:	4605      	mov	r5, r0
    3302:	2000      	movs	r0, #0
    3304:	6020      	str	r0, [r4, #0]
    3306:	4608      	mov	r0, r1
    3308:	4611      	mov	r1, r2
    330a:	461a      	mov	r2, r3
    330c:	f7fd faf4 	bl	8f8 <_write>
    3310:	1c43      	adds	r3, r0, #1
    3312:	d102      	bne.n	331a <_write_r+0x1e>
    3314:	6823      	ldr	r3, [r4, #0]
    3316:	b103      	cbz	r3, 331a <_write_r+0x1e>
    3318:	602b      	str	r3, [r5, #0]
    331a:	bd38      	pop	{r3, r4, r5, pc}
    331c:	10000380 	.word	0x10000380

00003320 <__swsetup_r>:
    3320:	4b32      	ldr	r3, [pc, #200]	; (33ec <__swsetup_r+0xcc>)
    3322:	b570      	push	{r4, r5, r6, lr}
    3324:	681d      	ldr	r5, [r3, #0]
    3326:	4606      	mov	r6, r0
    3328:	460c      	mov	r4, r1
    332a:	b125      	cbz	r5, 3336 <__swsetup_r+0x16>
    332c:	69ab      	ldr	r3, [r5, #24]
    332e:	b913      	cbnz	r3, 3336 <__swsetup_r+0x16>
    3330:	4628      	mov	r0, r5
    3332:	f7fe fc61 	bl	1bf8 <__sinit>
    3336:	4b2e      	ldr	r3, [pc, #184]	; (33f0 <__swsetup_r+0xd0>)
    3338:	429c      	cmp	r4, r3
    333a:	d101      	bne.n	3340 <__swsetup_r+0x20>
    333c:	686c      	ldr	r4, [r5, #4]
    333e:	e008      	b.n	3352 <__swsetup_r+0x32>
    3340:	4b2c      	ldr	r3, [pc, #176]	; (33f4 <__swsetup_r+0xd4>)
    3342:	429c      	cmp	r4, r3
    3344:	d101      	bne.n	334a <__swsetup_r+0x2a>
    3346:	68ac      	ldr	r4, [r5, #8]
    3348:	e003      	b.n	3352 <__swsetup_r+0x32>
    334a:	4b2b      	ldr	r3, [pc, #172]	; (33f8 <__swsetup_r+0xd8>)
    334c:	429c      	cmp	r4, r3
    334e:	bf08      	it	eq
    3350:	68ec      	ldreq	r4, [r5, #12]
    3352:	89a2      	ldrh	r2, [r4, #12]
    3354:	b293      	uxth	r3, r2
    3356:	0719      	lsls	r1, r3, #28
    3358:	d420      	bmi.n	339c <__swsetup_r+0x7c>
    335a:	06dd      	lsls	r5, r3, #27
    335c:	d405      	bmi.n	336a <__swsetup_r+0x4a>
    335e:	2309      	movs	r3, #9
    3360:	f042 0240 	orr.w	r2, r2, #64	; 0x40
    3364:	6033      	str	r3, [r6, #0]
    3366:	81a2      	strh	r2, [r4, #12]
    3368:	e03b      	b.n	33e2 <__swsetup_r+0xc2>
    336a:	0758      	lsls	r0, r3, #29
    336c:	d512      	bpl.n	3394 <__swsetup_r+0x74>
    336e:	6b61      	ldr	r1, [r4, #52]	; 0x34
    3370:	b141      	cbz	r1, 3384 <__swsetup_r+0x64>
    3372:	f104 0344 	add.w	r3, r4, #68	; 0x44
    3376:	4299      	cmp	r1, r3
    3378:	d002      	beq.n	3380 <__swsetup_r+0x60>
    337a:	4630      	mov	r0, r6
    337c:	f7fe ff28 	bl	21d0 <_free_r>
    3380:	2300      	movs	r3, #0
    3382:	6363      	str	r3, [r4, #52]	; 0x34
    3384:	89a3      	ldrh	r3, [r4, #12]
    3386:	f023 0324 	bic.w	r3, r3, #36	; 0x24
    338a:	81a3      	strh	r3, [r4, #12]
    338c:	2300      	movs	r3, #0
    338e:	6063      	str	r3, [r4, #4]
    3390:	6923      	ldr	r3, [r4, #16]
    3392:	6023      	str	r3, [r4, #0]
    3394:	89a3      	ldrh	r3, [r4, #12]
    3396:	f043 0308 	orr.w	r3, r3, #8
    339a:	81a3      	strh	r3, [r4, #12]
    339c:	6923      	ldr	r3, [r4, #16]
    339e:	b94b      	cbnz	r3, 33b4 <__swsetup_r+0x94>
    33a0:	89a3      	ldrh	r3, [r4, #12]
    33a2:	f403 7320 	and.w	r3, r3, #640	; 0x280
    33a6:	f5b3 7f00 	cmp.w	r3, #512	; 0x200
    33aa:	d003      	beq.n	33b4 <__swsetup_r+0x94>
    33ac:	4630      	mov	r0, r6
    33ae:	4621      	mov	r1, r4
    33b0:	f7fe fe92 	bl	20d8 <__smakebuf_r>
    33b4:	89a3      	ldrh	r3, [r4, #12]
    33b6:	f013 0201 	ands.w	r2, r3, #1
    33ba:	d005      	beq.n	33c8 <__swsetup_r+0xa8>
    33bc:	2200      	movs	r2, #0
    33be:	60a2      	str	r2, [r4, #8]
    33c0:	6962      	ldr	r2, [r4, #20]
    33c2:	4252      	negs	r2, r2
    33c4:	61a2      	str	r2, [r4, #24]
    33c6:	e003      	b.n	33d0 <__swsetup_r+0xb0>
    33c8:	0799      	lsls	r1, r3, #30
    33ca:	bf58      	it	pl
    33cc:	6962      	ldrpl	r2, [r4, #20]
    33ce:	60a2      	str	r2, [r4, #8]
    33d0:	6922      	ldr	r2, [r4, #16]
    33d2:	b94a      	cbnz	r2, 33e8 <__swsetup_r+0xc8>
    33d4:	f003 0080 	and.w	r0, r3, #128	; 0x80
    33d8:	b280      	uxth	r0, r0
    33da:	b130      	cbz	r0, 33ea <__swsetup_r+0xca>
    33dc:	f043 0340 	orr.w	r3, r3, #64	; 0x40
    33e0:	81a3      	strh	r3, [r4, #12]
    33e2:	f04f 30ff 	mov.w	r0, #4294967295	; 0xffffffff
    33e6:	bd70      	pop	{r4, r5, r6, pc}
    33e8:	2000      	movs	r0, #0
    33ea:	bd70      	pop	{r4, r5, r6, pc}
    33ec:	10000134 	.word	0x10000134
    33f0:	00003b90 	.word	0x00003b90
    33f4:	00003bb0 	.word	0x00003bb0
    33f8:	00003bd0 	.word	0x00003bd0

000033fc <_close_r>:
    33fc:	b538      	push	{r3, r4, r5, lr}
    33fe:	4c06      	ldr	r4, [pc, #24]	; (3418 <_close_r+0x1c>)
    3400:	2300      	movs	r3, #0
    3402:	4605      	mov	r5, r0
    3404:	4608      	mov	r0, r1
    3406:	6023      	str	r3, [r4, #0]
    3408:	f7fd fa60 	bl	8cc <_close>
    340c:	1c43      	adds	r3, r0, #1
    340e:	d102      	bne.n	3416 <_close_r+0x1a>
    3410:	6823      	ldr	r3, [r4, #0]
    3412:	b103      	cbz	r3, 3416 <_close_r+0x1a>
    3414:	602b      	str	r3, [r5, #0]
    3416:	bd38      	pop	{r3, r4, r5, pc}
    3418:	10000380 	.word	0x10000380

0000341c <__sflags>:
    341c:	780b      	ldrb	r3, [r1, #0]
    341e:	b530      	push	{r4, r5, lr}
    3420:	2b72      	cmp	r3, #114	; 0x72
    3422:	d009      	beq.n	3438 <__sflags+0x1c>
    3424:	2b77      	cmp	r3, #119	; 0x77
    3426:	d00b      	beq.n	3440 <__sflags+0x24>
    3428:	2b61      	cmp	r3, #97	; 0x61
    342a:	d10e      	bne.n	344a <__sflags+0x2e>
    342c:	f44f 7402 	mov.w	r4, #520	; 0x208
    3430:	2301      	movs	r3, #1
    3432:	f44f 7084 	mov.w	r0, #264	; 0x108
    3436:	e01b      	b.n	3470 <__sflags+0x54>
    3438:	2400      	movs	r4, #0
    343a:	4623      	mov	r3, r4
    343c:	2004      	movs	r0, #4
    343e:	e017      	b.n	3470 <__sflags+0x54>
    3440:	f44f 64c0 	mov.w	r4, #1536	; 0x600
    3444:	2301      	movs	r3, #1
    3446:	2008      	movs	r0, #8
    3448:	e012      	b.n	3470 <__sflags+0x54>
    344a:	2316      	movs	r3, #22
    344c:	6003      	str	r3, [r0, #0]
    344e:	2000      	movs	r0, #0
    3450:	bd30      	pop	{r4, r5, pc}
    3452:	2d62      	cmp	r5, #98	; 0x62
    3454:	d010      	beq.n	3478 <__sflags+0x5c>
    3456:	2d78      	cmp	r5, #120	; 0x78
    3458:	d011      	beq.n	347e <__sflags+0x62>
    345a:	2d2b      	cmp	r5, #43	; 0x2b
    345c:	d107      	bne.n	346e <__sflags+0x52>
    345e:	f020 001c 	bic.w	r0, r0, #28
    3462:	f023 0303 	bic.w	r3, r3, #3
    3466:	f040 0010 	orr.w	r0, r0, #16
    346a:	f043 0302 	orr.w	r3, r3, #2
    346e:	3101      	adds	r1, #1
    3470:	784d      	ldrb	r5, [r1, #1]
    3472:	2d00      	cmp	r5, #0
    3474:	d1ed      	bne.n	3452 <__sflags+0x36>
    3476:	e005      	b.n	3484 <__sflags+0x68>
    3478:	f443 3380 	orr.w	r3, r3, #65536	; 0x10000
    347c:	e7f7      	b.n	346e <__sflags+0x52>
    347e:	f443 6300 	orr.w	r3, r3, #2048	; 0x800
    3482:	e7f4      	b.n	346e <__sflags+0x52>
    3484:	4323      	orrs	r3, r4
    3486:	6013      	str	r3, [r2, #0]
    3488:	bd30      	pop	{r4, r5, pc}
	...

0000348c <_fstat_r>:
    348c:	b538      	push	{r3, r4, r5, lr}
    348e:	4c07      	ldr	r4, [pc, #28]	; (34ac <_fstat_r+0x20>)
    3490:	2300      	movs	r3, #0
    3492:	4605      	mov	r5, r0
    3494:	4608      	mov	r0, r1
    3496:	4611      	mov	r1, r2
    3498:	6023      	str	r3, [r4, #0]
    349a:	f7fd faa3 	bl	9e4 <_fstat>
    349e:	1c43      	adds	r3, r0, #1
    34a0:	d102      	bne.n	34a8 <_fstat_r+0x1c>
    34a2:	6823      	ldr	r3, [r4, #0]
    34a4:	b103      	cbz	r3, 34a8 <_fstat_r+0x1c>
    34a6:	602b      	str	r3, [r5, #0]
    34a8:	bd38      	pop	{r3, r4, r5, pc}
    34aa:	bf00      	nop
    34ac:	10000380 	.word	0x10000380

000034b0 <_isatty_r>:
    34b0:	b538      	push	{r3, r4, r5, lr}
    34b2:	4c06      	ldr	r4, [pc, #24]	; (34cc <_isatty_r+0x1c>)
    34b4:	2300      	movs	r3, #0
    34b6:	4605      	mov	r5, r0
    34b8:	4608      	mov	r0, r1
    34ba:	6023      	str	r3, [r4, #0]
    34bc:	f7fc fee0 	bl	280 <__wrap__isatty>
    34c0:	1c43      	adds	r3, r0, #1
    34c2:	d102      	bne.n	34ca <_isatty_r+0x1a>
    34c4:	6823      	ldr	r3, [r4, #0]
    34c6:	b103      	cbz	r3, 34ca <_isatty_r+0x1a>
    34c8:	602b      	str	r3, [r5, #0]
    34ca:	bd38      	pop	{r3, r4, r5, pc}
    34cc:	10000380 	.word	0x10000380

000034d0 <_lseek_r>:
    34d0:	b538      	push	{r3, r4, r5, lr}
    34d2:	4c07      	ldr	r4, [pc, #28]	; (34f0 <_lseek_r+0x20>)
    34d4:	4605      	mov	r5, r0
    34d6:	2000      	movs	r0, #0
    34d8:	6020      	str	r0, [r4, #0]
    34da:	4608      	mov	r0, r1
    34dc:	4611      	mov	r1, r2
    34de:	461a      	mov	r2, r3
    34e0:	f7fd fa6c 	bl	9bc <_lseek>
    34e4:	1c43      	adds	r3, r0, #1
    34e6:	d102      	bne.n	34ee <_lseek_r+0x1e>
    34e8:	6823      	ldr	r3, [r4, #0]
    34ea:	b103      	cbz	r3, 34ee <_lseek_r+0x1e>
    34ec:	602b      	str	r3, [r5, #0]
    34ee:	bd38      	pop	{r3, r4, r5, pc}
    34f0:	10000380 	.word	0x10000380

000034f4 <memchr>:
    34f4:	b510      	push	{r4, lr}
    34f6:	b2c9      	uxtb	r1, r1
    34f8:	4402      	add	r2, r0
    34fa:	4290      	cmp	r0, r2
    34fc:	4603      	mov	r3, r0
    34fe:	d005      	beq.n	350c <memchr+0x18>
    3500:	781c      	ldrb	r4, [r3, #0]
    3502:	3001      	adds	r0, #1
    3504:	428c      	cmp	r4, r1
    3506:	d1f8      	bne.n	34fa <memchr+0x6>
    3508:	4618      	mov	r0, r3
    350a:	bd10      	pop	{r4, pc}
    350c:	2000      	movs	r0, #0
    350e:	bd10      	pop	{r4, pc}

00003510 <_realloc_r>:
    3510:	b5f8      	push	{r3, r4, r5, r6, r7, lr}
    3512:	4606      	mov	r6, r0
    3514:	4614      	mov	r4, r2
    3516:	460d      	mov	r5, r1
    3518:	b921      	cbnz	r1, 3524 <_realloc_r+0x14>
    351a:	4611      	mov	r1, r2
    351c:	e8bd 40f8 	ldmia.w	sp!, {r3, r4, r5, r6, r7, lr}
    3520:	f7fe be9a 	b.w	2258 <_malloc_r>
    3524:	b91a      	cbnz	r2, 352e <_realloc_r+0x1e>
    3526:	f7fe fe53 	bl	21d0 <_free_r>
    352a:	4620      	mov	r0, r4
    352c:	bdf8      	pop	{r3, r4, r5, r6, r7, pc}
    352e:	f000 f953 	bl	37d8 <_malloc_usable_size_r>
    3532:	42a0      	cmp	r0, r4
    3534:	d20e      	bcs.n	3554 <_realloc_r+0x44>
    3536:	4630      	mov	r0, r6
    3538:	4621      	mov	r1, r4
    353a:	f7fe fe8d 	bl	2258 <_malloc_r>
    353e:	4607      	mov	r7, r0
    3540:	b150      	cbz	r0, 3558 <_realloc_r+0x48>
    3542:	4629      	mov	r1, r5
    3544:	4622      	mov	r2, r4
    3546:	f7fe fe32 	bl	21ae <memcpy>
    354a:	4630      	mov	r0, r6
    354c:	4629      	mov	r1, r5
    354e:	f7fe fe3f 	bl	21d0 <_free_r>
    3552:	e001      	b.n	3558 <_realloc_r+0x48>
    3554:	4628      	mov	r0, r5
    3556:	bdf8      	pop	{r3, r4, r5, r6, r7, pc}
    3558:	4638      	mov	r0, r7
    355a:	bdf8      	pop	{r3, r4, r5, r6, r7, pc}

0000355c <_read_r>:
    355c:	b538      	push	{r3, r4, r5, lr}
    355e:	4c07      	ldr	r4, [pc, #28]	; (357c <_read_r+0x20>)
    3560:	4605      	mov	r5, r0
    3562:	2000      	movs	r0, #0
    3564:	6020      	str	r0, [r4, #0]
    3566:	4608      	mov	r0, r1
    3568:	4611      	mov	r1, r2
    356a:	461a      	mov	r2, r3
    356c:	f7fd f9ec 	bl	948 <_read>
    3570:	1c43      	adds	r3, r0, #1
    3572:	d102      	bne.n	357a <_read_r+0x1e>
    3574:	6823      	ldr	r3, [r4, #0]
    3576:	b103      	cbz	r3, 357a <_read_r+0x1e>
    3578:	602b      	str	r3, [r5, #0]
    357a:	bd38      	pop	{r3, r4, r5, pc}
    357c:	10000380 	.word	0x10000380

00003580 <__sccl>:
    3580:	b5f0      	push	{r4, r5, r6, r7, lr}
    3582:	780b      	ldrb	r3, [r1, #0]
    3584:	2b5e      	cmp	r3, #94	; 0x5e
    3586:	d002      	beq.n	358e <__sccl+0xe>
    3588:	1c4c      	adds	r4, r1, #1
    358a:	2100      	movs	r1, #0
    358c:	e002      	b.n	3594 <__sccl+0x14>
    358e:	1c8c      	adds	r4, r1, #2
    3590:	784b      	ldrb	r3, [r1, #1]
    3592:	2101      	movs	r1, #1
    3594:	2200      	movs	r2, #0
    3596:	5481      	strb	r1, [r0, r2]
    3598:	3201      	adds	r2, #1
    359a:	f5b2 7f80 	cmp.w	r2, #256	; 0x100
    359e:	d1fa      	bne.n	3596 <__sccl+0x16>
    35a0:	b90b      	cbnz	r3, 35a6 <__sccl+0x26>
    35a2:	1e65      	subs	r5, r4, #1
    35a4:	e01b      	b.n	35de <__sccl+0x5e>
    35a6:	f1c1 0701 	rsb	r7, r1, #1
    35aa:	b2fe      	uxtb	r6, r7
    35ac:	54c6      	strb	r6, [r0, r3]
    35ae:	1c62      	adds	r2, r4, #1
    35b0:	f812 1c01 	ldrb.w	r1, [r2, #-1]
    35b4:	1e55      	subs	r5, r2, #1
    35b6:	292d      	cmp	r1, #45	; 0x2d
    35b8:	4614      	mov	r4, r2
    35ba:	d004      	beq.n	35c6 <__sccl+0x46>
    35bc:	295d      	cmp	r1, #93	; 0x5d
    35be:	d00d      	beq.n	35dc <__sccl+0x5c>
    35c0:	b169      	cbz	r1, 35de <__sccl+0x5e>
    35c2:	460b      	mov	r3, r1
    35c4:	e7f1      	b.n	35aa <__sccl+0x2a>
    35c6:	7815      	ldrb	r5, [r2, #0]
    35c8:	2d5d      	cmp	r5, #93	; 0x5d
    35ca:	d0fa      	beq.n	35c2 <__sccl+0x42>
    35cc:	429d      	cmp	r5, r3
    35ce:	dbf8      	blt.n	35c2 <__sccl+0x42>
    35d0:	3301      	adds	r3, #1
    35d2:	42ab      	cmp	r3, r5
    35d4:	54c6      	strb	r6, [r0, r3]
    35d6:	dbfb      	blt.n	35d0 <__sccl+0x50>
    35d8:	3202      	adds	r2, #2
    35da:	e7e9      	b.n	35b0 <__sccl+0x30>
    35dc:	4615      	mov	r5, r2
    35de:	4628      	mov	r0, r5
    35e0:	bdf0      	pop	{r4, r5, r6, r7, pc}
	...

000035e4 <_strtol_r>:
    35e4:	4684      	mov	r12, r0
    35e6:	483f      	ldr	r0, [pc, #252]	; (36e4 <_strtol_r+0x100>)
    35e8:	e92d 4ff0 	stmdb	sp!, {r4, r5, r6, r7, r8, r9, r10, r11, lr}
    35ec:	f8d0 8000 	ldr.w	r8, [r0]
    35f0:	460e      	mov	r6, r1
    35f2:	4634      	mov	r4, r6
    35f4:	f814 5b01 	ldrb.w	r5, [r4], #1
    35f8:	eb08 0005 	add.w	r0, r8, r5
    35fc:	7840      	ldrb	r0, [r0, #1]
    35fe:	f000 0008 	and.w	r0, r0, #8
    3602:	f000 07ff 	and.w	r7, r0, #255	; 0xff
    3606:	b108      	cbz	r0, 360c <_strtol_r+0x28>
    3608:	4626      	mov	r6, r4
    360a:	e7f2      	b.n	35f2 <_strtol_r+0xe>
    360c:	2d2d      	cmp	r5, #45	; 0x2d
    360e:	d103      	bne.n	3618 <_strtol_r+0x34>
    3610:	1cb4      	adds	r4, r6, #2
    3612:	7875      	ldrb	r5, [r6, #1]
    3614:	2701      	movs	r7, #1
    3616:	e003      	b.n	3620 <_strtol_r+0x3c>
    3618:	2d2b      	cmp	r5, #43	; 0x2b
    361a:	bf04      	itt	eq
    361c:	7875      	ldrbeq	r5, [r6, #1]
    361e:	1cb4      	addeq	r4, r6, #2
    3620:	f033 0010 	bics.w	r0, r3, #16
    3624:	d10d      	bne.n	3642 <_strtol_r+0x5e>
    3626:	2d30      	cmp	r5, #48	; 0x30
    3628:	d108      	bne.n	363c <_strtol_r+0x58>
    362a:	7820      	ldrb	r0, [r4, #0]
    362c:	f000 00df 	and.w	r0, r0, #223	; 0xdf
    3630:	2858      	cmp	r0, #88	; 0x58
    3632:	d151      	bne.n	36d8 <_strtol_r+0xf4>
    3634:	7865      	ldrb	r5, [r4, #1]
    3636:	2310      	movs	r3, #16
    3638:	3402      	adds	r4, #2
    363a:	e002      	b.n	3642 <_strtol_r+0x5e>
    363c:	2b00      	cmp	r3, #0
    363e:	bf08      	it	eq
    3640:	230a      	moveq	r3, #10
    3642:	2f00      	cmp	r7, #0
    3644:	bf0c      	ite	eq
    3646:	f06f 4a00 	mvneq.w	r10, #2147483648	; 0x80000000
    364a:	f04f 4a00 	movne.w	r10, #2147483648	; 0x80000000
    364e:	fbba f9f3 	udiv	r9, r10, r3
    3652:	fb03 aa19 	mls	r10, r3, r9, r10
    3656:	2600      	movs	r6, #0
    3658:	4630      	mov	r0, r6
    365a:	eb08 0b05 	add.w	r11, r8, r5
    365e:	f89b b001 	ldrb.w	r11, [r11, #1]
    3662:	f01b 0f04 	tst.w	r11, #4
    3666:	d001      	beq.n	366c <_strtol_r+0x88>
    3668:	3d30      	subs	r5, #48	; 0x30
    366a:	e00b      	b.n	3684 <_strtol_r+0xa0>
    366c:	f01b 0b03 	ands.w	r11, r11, #3
    3670:	d01b      	beq.n	36aa <_strtol_r+0xc6>
    3672:	f1bb 0f01 	cmp.w	r11, #1
    3676:	bf14      	ite	ne
    3678:	f04f 0b57 	movne.w	r11, #87	; 0x57
    367c:	f04f 0b37 	moveq.w	r11, #55	; 0x37
    3680:	ebcb 0505 	rsb	r5, r11, r5
    3684:	429d      	cmp	r5, r3
    3686:	da10      	bge.n	36aa <_strtol_r+0xc6>
    3688:	f1b6 3fff 	cmp.w	r6, #4294967295	; 0xffffffff
    368c:	d00a      	beq.n	36a4 <_strtol_r+0xc0>
    368e:	4548      	cmp	r0, r9
    3690:	d806      	bhi.n	36a0 <_strtol_r+0xbc>
    3692:	d101      	bne.n	3698 <_strtol_r+0xb4>
    3694:	4555      	cmp	r5, r10
    3696:	dc03      	bgt.n	36a0 <_strtol_r+0xbc>
    3698:	fb03 5000 	mla	r0, r3, r0, r5
    369c:	2601      	movs	r6, #1
    369e:	e001      	b.n	36a4 <_strtol_r+0xc0>
    36a0:	f04f 36ff 	mov.w	r6, #4294967295	; 0xffffffff
    36a4:	f814 5b01 	ldrb.w	r5, [r4], #1
    36a8:	e7d7      	b.n	365a <_strtol_r+0x76>
    36aa:	1c73      	adds	r3, r6, #1
    36ac:	d10c      	bne.n	36c8 <_strtol_r+0xe4>
    36ae:	2f00      	cmp	r7, #0
    36b0:	f04f 0322 	mov.w	r3, #34	; 0x22
    36b4:	bf0c      	ite	eq
    36b6:	f06f 4000 	mvneq.w	r0, #2147483648	; 0x80000000
    36ba:	f04f 4000 	movne.w	r0, #2147483648	; 0x80000000
    36be:	f8cc 3000 	str.w	r3, [r12]
    36c2:	b92a      	cbnz	r2, 36d0 <_strtol_r+0xec>
    36c4:	e8bd 8ff0 	ldmia.w	sp!, {r4, r5, r6, r7, r8, r9, r10, r11, pc}
    36c8:	b107      	cbz	r7, 36cc <_strtol_r+0xe8>
    36ca:	4240      	negs	r0, r0
    36cc:	b142      	cbz	r2, 36e0 <_strtol_r+0xfc>
    36ce:	b106      	cbz	r6, 36d2 <_strtol_r+0xee>
    36d0:	1e61      	subs	r1, r4, #1
    36d2:	6011      	str	r1, [r2, #0]
    36d4:	e8bd 8ff0 	ldmia.w	sp!, {r4, r5, r6, r7, r8, r9, r10, r11, pc}
    36d8:	2b00      	cmp	r3, #0
    36da:	bf08      	it	eq
    36dc:	2308      	moveq	r3, #8
    36de:	e7b0      	b.n	3642 <_strtol_r+0x5e>
    36e0:	e8bd 8ff0 	ldmia.w	sp!, {r4, r5, r6, r7, r8, r9, r10, r11, pc}
    36e4:	10000138 	.word	0x10000138

000036e8 <_strtoul_r>:
    36e8:	4684      	mov	r12, r0
    36ea:	483a      	ldr	r0, [pc, #232]	; (37d4 <_strtoul_r+0xec>)
    36ec:	e92d 4ff0 	stmdb	sp!, {r4, r5, r6, r7, r8, r9, r10, r11, lr}
    36f0:	f8d0 8000 	ldr.w	r8, [r0]
    36f4:	460e      	mov	r6, r1
    36f6:	4634      	mov	r4, r6
    36f8:	f814 5b01 	ldrb.w	r5, [r4], #1
    36fc:	eb08 0005 	add.w	r0, r8, r5
    3700:	7840      	ldrb	r0, [r0, #1]
    3702:	f000 0008 	and.w	r0, r0, #8
    3706:	f000 07ff 	and.w	r7, r0, #255	; 0xff
    370a:	b108      	cbz	r0, 3710 <_strtoul_r+0x28>
    370c:	4626      	mov	r6, r4
    370e:	e7f2      	b.n	36f6 <_strtoul_r+0xe>
    3710:	2d2d      	cmp	r5, #45	; 0x2d
    3712:	d103      	bne.n	371c <_strtoul_r+0x34>
    3714:	1cb4      	adds	r4, r6, #2
    3716:	7875      	ldrb	r5, [r6, #1]
    3718:	2701      	movs	r7, #1
    371a:	e003      	b.n	3724 <_strtoul_r+0x3c>
    371c:	2d2b      	cmp	r5, #43	; 0x2b
    371e:	bf04      	itt	eq
    3720:	7875      	ldrbeq	r5, [r6, #1]
    3722:	1cb4      	addeq	r4, r6, #2
    3724:	f033 0010 	bics.w	r0, r3, #16
    3728:	d10d      	bne.n	3746 <_strtoul_r+0x5e>
    372a:	2d30      	cmp	r5, #48	; 0x30
    372c:	d108      	bne.n	3740 <_strtoul_r+0x58>
    372e:	7820      	ldrb	r0, [r4, #0]
    3730:	f000 00df 	and.w	r0, r0, #223	; 0xdf
    3734:	2858      	cmp	r0, #88	; 0x58
    3736:	d147      	bne.n	37c8 <_strtoul_r+0xe0>
    3738:	7865      	ldrb	r5, [r4, #1]
    373a:	2310      	movs	r3, #16
    373c:	3402      	adds	r4, #2
    373e:	e002      	b.n	3746 <_strtoul_r+0x5e>
    3740:	2b00      	cmp	r3, #0
    3742:	bf08      	it	eq
    3744:	230a      	moveq	r3, #10
    3746:	f04f 39ff 	mov.w	r9, #4294967295	; 0xffffffff
    374a:	fbb9 f9f3 	udiv	r9, r9, r3
    374e:	fb03 fa09 	mul.w	r10, r3, r9
    3752:	2600      	movs	r6, #0
    3754:	ea6f 0a0a 	mvn.w	r10, r10
    3758:	4630      	mov	r0, r6
    375a:	eb08 0b05 	add.w	r11, r8, r5
    375e:	f89b b001 	ldrb.w	r11, [r11, #1]
    3762:	f01b 0f04 	tst.w	r11, #4
    3766:	d001      	beq.n	376c <_strtoul_r+0x84>
    3768:	3d30      	subs	r5, #48	; 0x30
    376a:	e00b      	b.n	3784 <_strtoul_r+0x9c>
    376c:	f01b 0b03 	ands.w	r11, r11, #3
    3770:	d01a      	beq.n	37a8 <_strtoul_r+0xc0>
    3772:	f1bb 0f01 	cmp.w	r11, #1
    3776:	bf14      	ite	ne
    3778:	f04f 0b57 	movne.w	r11, #87	; 0x57
    377c:	f04f 0b37 	moveq.w	r11, #55	; 0x37
    3780:	ebcb 0505 	rsb	r5, r11, r5
    3784:	429d      	cmp	r5, r3
    3786:	da0f      	bge.n	37a8 <_strtoul_r+0xc0>
    3788:	2e00      	cmp	r6, #0
    378a:	db08      	blt.n	379e <_strtoul_r+0xb6>
    378c:	4548      	cmp	r0, r9
    378e:	d806      	bhi.n	379e <_strtoul_r+0xb6>
    3790:	d101      	bne.n	3796 <_strtoul_r+0xae>
    3792:	4555      	cmp	r5, r10
    3794:	dc03      	bgt.n	379e <_strtoul_r+0xb6>
    3796:	fb03 5000 	mla	r0, r3, r0, r5
    379a:	2601      	movs	r6, #1
    379c:	e001      	b.n	37a2 <_strtoul_r+0xba>
    379e:	f04f 36ff 	mov.w	r6, #4294967295	; 0xffffffff
    37a2:	f814 5b01 	ldrb.w	r5, [r4], #1
    37a6:	e7d8      	b.n	375a <_strtoul_r+0x72>
    37a8:	2e00      	cmp	r6, #0
    37aa:	da05      	bge.n	37b8 <_strtoul_r+0xd0>
    37ac:	2322      	movs	r3, #34	; 0x22
    37ae:	f8cc 3000 	str.w	r3, [r12]
    37b2:	f04f 30ff 	mov.w	r0, #4294967295	; 0xffffffff
    37b6:	e001      	b.n	37bc <_strtoul_r+0xd4>
    37b8:	b107      	cbz	r7, 37bc <_strtoul_r+0xd4>
    37ba:	4240      	negs	r0, r0
    37bc:	b142      	cbz	r2, 37d0 <_strtoul_r+0xe8>
    37be:	b106      	cbz	r6, 37c2 <_strtoul_r+0xda>
    37c0:	1e61      	subs	r1, r4, #1
    37c2:	6011      	str	r1, [r2, #0]
    37c4:	e8bd 8ff0 	ldmia.w	sp!, {r4, r5, r6, r7, r8, r9, r10, r11, pc}
    37c8:	2b00      	cmp	r3, #0
    37ca:	bf08      	it	eq
    37cc:	2308      	moveq	r3, #8
    37ce:	e7ba      	b.n	3746 <_strtoul_r+0x5e>
    37d0:	e8bd 8ff0 	ldmia.w	sp!, {r4, r5, r6, r7, r8, r9, r10, r11, pc}
    37d4:	10000138 	.word	0x10000138

000037d8 <_malloc_usable_size_r>:
    37d8:	f851 0c04 	ldr.w	r0, [r1, #-4]
    37dc:	2800      	cmp	r0, #0
    37de:	da02      	bge.n	37e6 <_malloc_usable_size_r+0xe>
    37e0:	3904      	subs	r1, #4
    37e2:	580b      	ldr	r3, [r1, r0]
    37e4:	4418      	add	r0, r3
    37e6:	3804      	subs	r0, #4
    37e8:	4770      	bx	lr
	...

000037ec <_init>:
    37ec:	b5f8      	push	{r3, r4, r5, r6, r7, lr}
    37ee:	bf00      	nop
    37f0:	bcf8      	pop	{r3, r4, r5, r6, r7}
    37f2:	bc08      	pop	{r3}
    37f4:	469e      	mov	lr, r3
    37f6:	4770      	bx	lr

000037f8 <_fini>:
    37f8:	b5f8      	push	{r3, r4, r5, r6, r7, lr}
    37fa:	bf00      	nop
    37fc:	bcf8      	pop	{r3, r4, r5, r6, r7}
    37fe:	bc08      	pop	{r3}
    3800:	469e      	mov	lr, r3
    3802:	4770      	bx	lr
    3804:	00000077 	.word	0x00000077
    3808:	6c696146 	.word	0x6c696146
    380c:	74206465 	.word	0x74206465
