
KL25Z/StdIO.elf:     file format elf32-littlearm
architecture: arm, flags 0x00000112:
EXEC_P, HAS_SYMS, D_PAGED
start address 0x000000c1


Disassembly of section .isr_vector:

00000000 <__isr_vector>:
   0:	20003000 	.word	0x20003000
   4:	000000c1 	.word	0x000000c1
   8:	00000739 	.word	0x00000739
   c:	0000073b 	.word	0x0000073b
	...
  2c:	0000073d 	.word	0x0000073d
	...
  38:	0000073f 	.word	0x0000073f
  3c:	00000741 	.word	0x00000741
  40:	00000743 	.word	0x00000743
  44:	00000743 	.word	0x00000743
  48:	00000743 	.word	0x00000743
  4c:	00000743 	.word	0x00000743
  50:	00000743 	.word	0x00000743
  54:	00000743 	.word	0x00000743
  58:	00000743 	.word	0x00000743
  5c:	00000743 	.word	0x00000743
  60:	00000743 	.word	0x00000743
  64:	00000743 	.word	0x00000743
  68:	00000743 	.word	0x00000743
  6c:	00000743 	.word	0x00000743
  70:	00000743 	.word	0x00000743
  74:	00000743 	.word	0x00000743
  78:	00000743 	.word	0x00000743
  7c:	00000743 	.word	0x00000743
  80:	00000743 	.word	0x00000743
  84:	00000743 	.word	0x00000743
  88:	00000743 	.word	0x00000743
  8c:	00000743 	.word	0x00000743
  90:	00000743 	.word	0x00000743
  94:	00000743 	.word	0x00000743
  98:	00000743 	.word	0x00000743
  9c:	00000743 	.word	0x00000743
  a0:	00000743 	.word	0x00000743
  a4:	00000743 	.word	0x00000743
  a8:	00000743 	.word	0x00000743
  ac:	00000743 	.word	0x00000743
  b0:	00000743 	.word	0x00000743
  b4:	00000743 	.word	0x00000743
  b8:	00000743 	.word	0x00000743
  bc:	00000743 	.word	0x00000743

000000c0 <Reset_Handler>:
  c0:	4907      	ldr	r1, [pc, #28]	; (e0 <Reset_Handler+0x20>)
  c2:	4a08      	ldr	r2, [pc, #32]	; (e4 <Reset_Handler+0x24>)
  c4:	4b08      	ldr	r3, [pc, #32]	; (e8 <Reset_Handler+0x28>)
  c6:	1a9b      	subs	r3, r3, r2
  c8:	dd05      	ble.n	d6 <Reset_Handler+0x16>
  ca:	2400      	movs	r4, #0
  cc:	5908      	ldr	r0, [r1, r4]
  ce:	5110      	str	r0, [r2, r4]
  d0:	3404      	adds	r4, #4
  d2:	429c      	cmp	r4, r3
  d4:	dbfa      	blt.n	cc <Reset_Handler+0xc>
  d6:	4805      	ldr	r0, [pc, #20]	; (ec <Reset_Handler+0x2c>)
  d8:	4780      	blx	r0
  da:	4805      	ldr	r0, [pc, #20]	; (f0 <Reset_Handler+0x30>)
  dc:	4700      	bx	r0
  de:	0000      	.short	0x0000
  e0:	000032bc 	.word	0x000032bc
  e4:	1ffff0c0 	.word	0x1ffff0c0
  e8:	1ffff13c 	.word	0x1ffff13c
  ec:	00000b69 	.word	0x00000b69
  f0:	00000525 	.word	0x00000525

Disassembly of section .text:

00000410 <__do_global_dtors_aux>:
     410:	b510      	push	{r4, lr}
     412:	4c06      	ldr	r4, [pc, #24]	; (42c <__do_global_dtors_aux+0x1c>)
     414:	7823      	ldrb	r3, [r4, #0]
     416:	2b00      	cmp	r3, #0
     418:	d107      	bne.n	42a <__do_global_dtors_aux+0x1a>
     41a:	4b05      	ldr	r3, [pc, #20]	; (430 <__do_global_dtors_aux+0x20>)
     41c:	2b00      	cmp	r3, #0
     41e:	d002      	beq.n	426 <__do_global_dtors_aux+0x16>
     420:	4804      	ldr	r0, [pc, #16]	; (434 <__do_global_dtors_aux+0x24>)
     422:	e000      	b.n	426 <__do_global_dtors_aux+0x16>
     424:	bf00      	nop
     426:	2301      	movs	r3, #1
     428:	7023      	strb	r3, [r4, #0]
     42a:	bd10      	pop	{r4, pc}
     42c:	1ffff13c 	.word	0x1ffff13c
     430:	00000000 	.word	0x00000000
     434:	000032b8 	.word	0x000032b8

00000438 <frame_dummy>:
     438:	b508      	push	{r3, lr}
     43a:	4b08      	ldr	r3, [pc, #32]	; (45c <frame_dummy+0x24>)
     43c:	2b00      	cmp	r3, #0
     43e:	d003      	beq.n	448 <frame_dummy+0x10>
     440:	4807      	ldr	r0, [pc, #28]	; (460 <frame_dummy+0x28>)
     442:	4908      	ldr	r1, [pc, #32]	; (464 <frame_dummy+0x2c>)
     444:	e000      	b.n	448 <frame_dummy+0x10>
     446:	bf00      	nop
     448:	4807      	ldr	r0, [pc, #28]	; (468 <frame_dummy+0x30>)
     44a:	6803      	ldr	r3, [r0, #0]
     44c:	2b00      	cmp	r3, #0
     44e:	d003      	beq.n	458 <frame_dummy+0x20>
     450:	4b06      	ldr	r3, [pc, #24]	; (46c <frame_dummy+0x34>)
     452:	2b00      	cmp	r3, #0
     454:	d000      	beq.n	458 <frame_dummy+0x20>
     456:	4798      	blx	r3
     458:	bd08      	pop	{r3, pc}
     45a:	46c0      	nop			; (mov r8, r8)
     45c:	00000000 	.word	0x00000000
     460:	000032b8 	.word	0x000032b8
     464:	1ffff140 	.word	0x1ffff140
     468:	1ffff13c 	.word	0x1ffff13c
     46c:	00000000 	.word	0x00000000

00000470 <main>:
     470:	b5f0      	push	{r4, r5, r6, r7, lr}
     472:	2301      	movs	r3, #1
     474:	b083      	sub	sp, #12
     476:	425b      	negs	r3, r3
     478:	481e      	ldr	r0, [pc, #120]	; (4f4 <main+0x84>)
     47a:	9301      	str	r3, [sp, #4]
     47c:	f001 fa90 	bl	19a0 <puts>
     480:	481d      	ldr	r0, [pc, #116]	; (4f8 <main+0x88>)
     482:	f001 fa8d 	bl	19a0 <puts>
     486:	481d      	ldr	r0, [pc, #116]	; (4fc <main+0x8c>)
     488:	f001 fa8a 	bl	19a0 <puts>
     48c:	481c      	ldr	r0, [pc, #112]	; (500 <main+0x90>)
     48e:	f001 fa87 	bl	19a0 <puts>
     492:	4f1c      	ldr	r7, [pc, #112]	; (504 <main+0x94>)
     494:	1c38      	adds	r0, r7, #0
     496:	f001 fa07 	bl	18a8 <iprintf>
     49a:	4e1b      	ldr	r6, [pc, #108]	; (508 <main+0x98>)
     49c:	a901      	add	r1, sp, #4
     49e:	1c30      	adds	r0, r6, #0
     4a0:	f001 fa9a 	bl	19d8 <iscanf>
     4a4:	4d19      	ldr	r5, [pc, #100]	; (50c <main+0x9c>)
     4a6:	9901      	ldr	r1, [sp, #4]
     4a8:	1c28      	adds	r0, r5, #0
     4aa:	f001 f9fd 	bl	18a8 <iprintf>
     4ae:	4c18      	ldr	r4, [pc, #96]	; (510 <main+0xa0>)
     4b0:	2101      	movs	r1, #1
     4b2:	6823      	ldr	r3, [r4, #0]
     4b4:	2223      	movs	r2, #35	; 0x23
     4b6:	689b      	ldr	r3, [r3, #8]
     4b8:	4816      	ldr	r0, [pc, #88]	; (514 <main+0xa4>)
     4ba:	f001 f911 	bl	16e0 <fwrite>
     4be:	6823      	ldr	r3, [r4, #0]
     4c0:	2101      	movs	r1, #1
     4c2:	68db      	ldr	r3, [r3, #12]
     4c4:	2223      	movs	r2, #35	; 0x23
     4c6:	4814      	ldr	r0, [pc, #80]	; (518 <main+0xa8>)
     4c8:	f001 f90a 	bl	16e0 <fwrite>
     4cc:	4813      	ldr	r0, [pc, #76]	; (51c <main+0xac>)
     4ce:	f001 fa67 	bl	19a0 <puts>
     4d2:	1c38      	adds	r0, r7, #0
     4d4:	f001 f9e8 	bl	18a8 <iprintf>
     4d8:	6823      	ldr	r3, [r4, #0]
     4da:	1c31      	adds	r1, r6, #0
     4dc:	6858      	ldr	r0, [r3, #4]
     4de:	aa01      	add	r2, sp, #4
     4e0:	f001 f850 	bl	1584 <fiscanf>
     4e4:	1c28      	adds	r0, r5, #0
     4e6:	9901      	ldr	r1, [sp, #4]
     4e8:	f001 f9de 	bl	18a8 <iprintf>
     4ec:	480c      	ldr	r0, [pc, #48]	; (520 <main+0xb0>)
     4ee:	f001 fa57 	bl	19a0 <puts>
     4f2:	e7fe      	b.n	4f2 <main+0x82>
     4f4:	00002eac 	.word	0x00002eac
     4f8:	00002ec8 	.word	0x00002ec8
     4fc:	00002ee4 	.word	0x00002ee4
     500:	00002efc 	.word	0x00002efc
     504:	00002f14 	.word	0x00002f14
     508:	00002f38 	.word	0x00002f38
     50c:	00002f3c 	.word	0x00002f3c
     510:	1ffff12c 	.word	0x1ffff12c
     514:	00002f58 	.word	0x00002f58
     518:	00002f7c 	.word	0x00002f7c
     51c:	00002fa0 	.word	0x00002fa0
     520:	00002fc4 	.word	0x00002fc4

00000524 <_start>:
     524:	4807      	ldr	r0, [pc, #28]	; (544 <_start+0x20>)
     526:	4a08      	ldr	r2, [pc, #32]	; (548 <_start+0x24>)
     528:	b508      	push	{r3, lr}
     52a:	1a12      	subs	r2, r2, r0
     52c:	2100      	movs	r1, #0
     52e:	f001 f916 	bl	175e <memset>
     532:	e000      	b.n	536 <_start+0x12>
     534:	bf00      	nop
     536:	f001 f8e3 	bl	1700 <__libc_init_array>
     53a:	f7ff ff99 	bl	470 <main>
     53e:	f000 f80f 	bl	560 <exit>
     542:	46c0      	nop			; (mov r8, r8)
     544:	1ffff13c 	.word	0x1ffff13c
     548:	1ffff284 	.word	0x1ffff284

0000054c <__wrap__isatty>:
     54c:	b508      	push	{r3, lr}
     54e:	2301      	movs	r3, #1
     550:	2802      	cmp	r0, #2
     552:	dd02      	ble.n	55a <__wrap__isatty+0xe>
     554:	f000 f8a4 	bl	6a0 <_isatty>
     558:	1c03      	adds	r3, r0, #0
     55a:	1c18      	adds	r0, r3, #0
     55c:	bd08      	pop	{r3, pc}
     55e:	46c0      	nop			; (mov r8, r8)

00000560 <exit>:
     560:	b538      	push	{r3, r4, r5, lr}
     562:	4c0b      	ldr	r4, [pc, #44]	; (590 <exit+0x30>)
     564:	1c05      	adds	r5, r0, #0
     566:	6823      	ldr	r3, [r4, #0]
     568:	6898      	ldr	r0, [r3, #8]
     56a:	f000 ff33 	bl	13d4 <fflush>
     56e:	6823      	ldr	r3, [r4, #0]
     570:	68d8      	ldr	r0, [r3, #12]
     572:	f000 ff2f 	bl	13d4 <fflush>
     576:	f000 f80d 	bl	594 <mbed_interface_connected>
     57a:	2800      	cmp	r0, #0
     57c:	d105      	bne.n	58a <exit+0x2a>
     57e:	2d00      	cmp	r5, #0
     580:	d100      	bne.n	584 <exit+0x24>
     582:	e7fe      	b.n	582 <exit+0x22>
     584:	f000 fb46 	bl	c14 <mbed_die>
     588:	e7fb      	b.n	582 <exit+0x22>
     58a:	f000 f807 	bl	59c <semihost_exit>
     58e:	e7f6      	b.n	57e <exit+0x1e>
     590:	1ffff12c 	.word	0x1ffff12c

00000594 <mbed_interface_connected>:
     594:	b508      	push	{r3, lr}
     596:	f000 f80d 	bl	5b4 <semihost_connected>
     59a:	bd08      	pop	{r3, pc}

0000059c <semihost_exit>:
     59c:	b530      	push	{r4, r5, lr}
     59e:	b085      	sub	sp, #20
     5a0:	466d      	mov	r5, sp
     5a2:	2418      	movs	r4, #24
     5a4:	1c20      	adds	r0, r4, #0
     5a6:	1c29      	adds	r1, r5, #0
     5a8:	beab      	bkpt	0x00ab
     5aa:	1c04      	adds	r4, r0, #0
     5ac:	1c20      	adds	r0, r4, #0
     5ae:	b005      	add	sp, #20
     5b0:	bd30      	pop	{r4, r5, pc}
     5b2:	46c0      	nop			; (mov r8, r8)

000005b4 <semihost_connected>:
     5b4:	4b01      	ldr	r3, [pc, #4]	; (5bc <semihost_connected+0x8>)
     5b6:	6818      	ldr	r0, [r3, #0]
     5b8:	4770      	bx	lr
     5ba:	46c0      	nop			; (mov r8, r8)
     5bc:	1ffff0c0 	.word	0x1ffff0c0

000005c0 <init_serial() [clone .part.0]>:
     5c0:	b508      	push	{r3, lr}
     5c2:	4803      	ldr	r0, [pc, #12]	; (5d0 <init_serial() [clone .part.0]+0x10>)
     5c4:	2108      	movs	r1, #8
     5c6:	2204      	movs	r2, #4
     5c8:	f000 f9c2 	bl	950 <serial_init>
     5cc:	bd08      	pop	{r3, pc}
     5ce:	46c0      	nop			; (mov r8, r8)
     5d0:	1ffff278 	.word	0x1ffff278

000005d4 <_close>:
     5d4:	b508      	push	{r3, lr}
     5d6:	2300      	movs	r3, #0
     5d8:	2802      	cmp	r0, #2
     5da:	dd0a      	ble.n	5f2 <_close+0x1e>
     5dc:	3803      	subs	r0, #3
     5de:	4a07      	ldr	r2, [pc, #28]	; (5fc <_close+0x28>)
     5e0:	0081      	lsls	r1, r0, #2
     5e2:	5888      	ldr	r0, [r1, r2]
     5e4:	508b      	str	r3, [r1, r2]
     5e6:	2800      	cmp	r0, #0
     5e8:	d005      	beq.n	5f6 <_close+0x22>
     5ea:	6803      	ldr	r3, [r0, #0]
     5ec:	685b      	ldr	r3, [r3, #4]
     5ee:	4798      	blx	r3
     5f0:	1c03      	adds	r3, r0, #0
     5f2:	1c18      	adds	r0, r3, #0
     5f4:	bd08      	pop	{r3, pc}
     5f6:	2301      	movs	r3, #1
     5f8:	425b      	negs	r3, r3
     5fa:	e7fa      	b.n	5f2 <_close+0x1e>
     5fc:	1ffff158 	.word	0x1ffff158

00000600 <_write>:
     600:	b5f8      	push	{r3, r4, r5, r6, r7, lr}
     602:	1c0c      	adds	r4, r1, #0
     604:	1c17      	adds	r7, r2, #0
     606:	2802      	cmp	r0, #2
     608:	dc12      	bgt.n	630 <_write+0x30>
     60a:	4b10      	ldr	r3, [pc, #64]	; (64c <_write+0x4c>)
     60c:	681b      	ldr	r3, [r3, #0]
     60e:	2b00      	cmp	r3, #0
     610:	d101      	bne.n	616 <_write+0x16>
     612:	f7ff ffd5 	bl	5c0 <init_serial() [clone .part.0]>
     616:	2f00      	cmp	r7, #0
     618:	d008      	beq.n	62c <_write+0x2c>
     61a:	4d0d      	ldr	r5, [pc, #52]	; (650 <_write+0x50>)
     61c:	19e6      	adds	r6, r4, r7
     61e:	7821      	ldrb	r1, [r4, #0]
     620:	1c28      	adds	r0, r5, #0
     622:	3401      	adds	r4, #1
     624:	f000 fa72 	bl	b0c <serial_putc>
     628:	42b4      	cmp	r4, r6
     62a:	d1f8      	bne.n	61e <_write+0x1e>
     62c:	1c38      	adds	r0, r7, #0
     62e:	bdf8      	pop	{r3, r4, r5, r6, r7, pc}
     630:	3803      	subs	r0, #3
     632:	4b08      	ldr	r3, [pc, #32]	; (654 <_write+0x54>)
     634:	0080      	lsls	r0, r0, #2
     636:	58c0      	ldr	r0, [r0, r3]
     638:	2800      	cmp	r0, #0
     63a:	d003      	beq.n	644 <_write+0x44>
     63c:	6803      	ldr	r3, [r0, #0]
     63e:	681b      	ldr	r3, [r3, #0]
     640:	4798      	blx	r3
     642:	e7f4      	b.n	62e <_write+0x2e>
     644:	2001      	movs	r0, #1
     646:	4240      	negs	r0, r0
     648:	e7f1      	b.n	62e <_write+0x2e>
     64a:	46c0      	nop			; (mov r8, r8)
     64c:	1ffff258 	.word	0x1ffff258
     650:	1ffff278 	.word	0x1ffff278
     654:	1ffff158 	.word	0x1ffff158

00000658 <_read>:
     658:	b510      	push	{r4, lr}
     65a:	1c0c      	adds	r4, r1, #0
     65c:	2802      	cmp	r0, #2
     65e:	dc09      	bgt.n	674 <_read+0x1c>
     660:	4b0c      	ldr	r3, [pc, #48]	; (694 <_read+0x3c>)
     662:	681b      	ldr	r3, [r3, #0]
     664:	2b00      	cmp	r3, #0
     666:	d00f      	beq.n	688 <_read+0x30>
     668:	480b      	ldr	r0, [pc, #44]	; (698 <_read+0x40>)
     66a:	f000 fa3b 	bl	ae4 <serial_getc>
     66e:	7020      	strb	r0, [r4, #0]
     670:	2001      	movs	r0, #1
     672:	bd10      	pop	{r4, pc}
     674:	3803      	subs	r0, #3
     676:	4b09      	ldr	r3, [pc, #36]	; (69c <_read+0x44>)
     678:	0080      	lsls	r0, r0, #2
     67a:	58c0      	ldr	r0, [r0, r3]
     67c:	2800      	cmp	r0, #0
     67e:	d006      	beq.n	68e <_read+0x36>
     680:	6803      	ldr	r3, [r0, #0]
     682:	689b      	ldr	r3, [r3, #8]
     684:	4798      	blx	r3
     686:	e7f4      	b.n	672 <_read+0x1a>
     688:	f7ff ff9a 	bl	5c0 <init_serial() [clone .part.0]>
     68c:	e7ec      	b.n	668 <_read+0x10>
     68e:	2001      	movs	r0, #1
     690:	4240      	negs	r0, r0
     692:	e7ee      	b.n	672 <_read+0x1a>
     694:	1ffff258 	.word	0x1ffff258
     698:	1ffff278 	.word	0x1ffff278
     69c:	1ffff158 	.word	0x1ffff158

000006a0 <_isatty>:
     6a0:	b508      	push	{r3, lr}
     6a2:	1c03      	adds	r3, r0, #0
     6a4:	2001      	movs	r0, #1
     6a6:	2b02      	cmp	r3, #2
     6a8:	dd08      	ble.n	6bc <_isatty+0x1c>
     6aa:	3b03      	subs	r3, #3
     6ac:	4a05      	ldr	r2, [pc, #20]	; (6c4 <_isatty+0x24>)
     6ae:	009b      	lsls	r3, r3, #2
     6b0:	5898      	ldr	r0, [r3, r2]
     6b2:	2800      	cmp	r0, #0
     6b4:	d003      	beq.n	6be <_isatty+0x1e>
     6b6:	6803      	ldr	r3, [r0, #0]
     6b8:	68db      	ldr	r3, [r3, #12]
     6ba:	4798      	blx	r3
     6bc:	bd08      	pop	{r3, pc}
     6be:	2001      	movs	r0, #1
     6c0:	4240      	negs	r0, r0
     6c2:	e7fb      	b.n	6bc <_isatty+0x1c>
     6c4:	1ffff158 	.word	0x1ffff158

000006c8 <_lseek>:
     6c8:	b508      	push	{r3, lr}
     6ca:	1c03      	adds	r3, r0, #0
     6cc:	2000      	movs	r0, #0
     6ce:	2b02      	cmp	r3, #2
     6d0:	dd08      	ble.n	6e4 <_lseek+0x1c>
     6d2:	3b03      	subs	r3, #3
     6d4:	4805      	ldr	r0, [pc, #20]	; (6ec <_lseek+0x24>)
     6d6:	009b      	lsls	r3, r3, #2
     6d8:	5818      	ldr	r0, [r3, r0]
     6da:	2800      	cmp	r0, #0
     6dc:	d003      	beq.n	6e6 <_lseek+0x1e>
     6de:	6803      	ldr	r3, [r0, #0]
     6e0:	691b      	ldr	r3, [r3, #16]
     6e2:	4798      	blx	r3
     6e4:	bd08      	pop	{r3, pc}
     6e6:	2001      	movs	r0, #1
     6e8:	4240      	negs	r0, r0
     6ea:	e7fb      	b.n	6e4 <_lseek+0x1c>
     6ec:	1ffff158 	.word	0x1ffff158

000006f0 <_fstat>:
     6f0:	b508      	push	{r3, lr}
     6f2:	2802      	cmp	r0, #2
     6f4:	d804      	bhi.n	700 <_fstat+0x10>
     6f6:	2380      	movs	r3, #128	; 0x80
     6f8:	019b      	lsls	r3, r3, #6
     6fa:	604b      	str	r3, [r1, #4]
     6fc:	2000      	movs	r0, #0
     6fe:	bd08      	pop	{r3, pc}
     700:	f000 fdac 	bl	125c <__errno>
     704:	2309      	movs	r3, #9
     706:	6003      	str	r3, [r0, #0]
     708:	2001      	movs	r0, #1
     70a:	4240      	negs	r0, r0
     70c:	e7f7      	b.n	6fe <_fstat+0xe>
     70e:	46c0      	nop			; (mov r8, r8)

00000710 <_sbrk>:
     710:	4a07      	ldr	r2, [pc, #28]	; (730 <_sbrk+0x20>)
     712:	6813      	ldr	r3, [r2, #0]
     714:	1818      	adds	r0, r3, r0
     716:	f3ef 8108 	mrs	r1, MSP
     71a:	4288      	cmp	r0, r1
     71c:	d202      	bcs.n	724 <_sbrk+0x14>
     71e:	6010      	str	r0, [r2, #0]
     720:	1c18      	adds	r0, r3, #0
     722:	4770      	bx	lr
     724:	4b03      	ldr	r3, [pc, #12]	; (734 <_sbrk+0x24>)
     726:	220c      	movs	r2, #12
     728:	2001      	movs	r0, #1
     72a:	601a      	str	r2, [r3, #0]
     72c:	4240      	negs	r0, r0
     72e:	e7f8      	b.n	722 <_sbrk+0x12>
     730:	1ffff0c4 	.word	0x1ffff0c4
     734:	1ffff280 	.word	0x1ffff280

00000738 <NMI_Handler>:
     738:	e7fe      	b.n	738 <NMI_Handler>

0000073a <HardFault_Handler>:
     73a:	e7fe      	b.n	73a <HardFault_Handler>

0000073c <SVC_Handler>:
     73c:	e7fe      	b.n	73c <SVC_Handler>

0000073e <PendSV_Handler>:
     73e:	e7fe      	b.n	73e <PendSV_Handler>

00000740 <SysTick_Handler>:
     740:	e7fe      	b.n	740 <SysTick_Handler>

00000742 <ADC0_IRQHandler>:
     742:	e7fe      	b.n	742 <ADC0_IRQHandler>

00000744 <mcgpllfll_frequency.part.0>:
     744:	4a0d      	ldr	r2, [pc, #52]	; (77c <mcgpllfll_frequency.part.0+0x38>)
     746:	4b0e      	ldr	r3, [pc, #56]	; (780 <mcgpllfll_frequency.part.0+0x3c>)
     748:	b510      	push	{r4, lr}
     74a:	5898      	ldr	r0, [r3, r2]
     74c:	4a0d      	ldr	r2, [pc, #52]	; (784 <mcgpllfll_frequency.part.0+0x40>)
     74e:	0f00      	lsrs	r0, r0, #28
     750:	6812      	ldr	r2, [r2, #0]
     752:	3001      	adds	r0, #1
     754:	4350      	muls	r0, r2
     756:	4a0c      	ldr	r2, [pc, #48]	; (788 <mcgpllfll_frequency.part.0+0x44>)
     758:	7952      	ldrb	r2, [r2, #5]
     75a:	0651      	lsls	r1, r2, #25
     75c:	d507      	bpl.n	76e <mcgpllfll_frequency.part.0+0x2a>
     75e:	4a0b      	ldr	r2, [pc, #44]	; (78c <mcgpllfll_frequency.part.0+0x48>)
     760:	2180      	movs	r1, #128	; 0x80
     762:	589c      	ldr	r4, [r3, r2]
     764:	0249      	lsls	r1, r1, #9
     766:	4321      	orrs	r1, r4
     768:	5099      	str	r1, [r3, r2]
     76a:	0840      	lsrs	r0, r0, #1
     76c:	bd10      	pop	{r4, pc}
     76e:	4a07      	ldr	r2, [pc, #28]	; (78c <mcgpllfll_frequency.part.0+0x48>)
     770:	4907      	ldr	r1, [pc, #28]	; (790 <mcgpllfll_frequency.part.0+0x4c>)
     772:	589c      	ldr	r4, [r3, r2]
     774:	4021      	ands	r1, r4
     776:	5099      	str	r1, [r3, r2]
     778:	e7f8      	b.n	76c <mcgpllfll_frequency.part.0+0x28>
     77a:	46c0      	nop			; (mov r8, r8)
     77c:	00001044 	.word	0x00001044
     780:	40047000 	.word	0x40047000
     784:	1ffff0c8 	.word	0x1ffff0c8
     788:	40064000 	.word	0x40064000
     78c:	00001004 	.word	0x00001004
     790:	fffeffff 	.word	0xfffeffff

00000794 <serial_baud>:
     794:	b5f8      	push	{r3, r4, r5, r6, r7, lr}
     796:	464f      	mov	r7, r9
     798:	4646      	mov	r6, r8
     79a:	b4c0      	push	{r6, r7}
     79c:	6803      	ldr	r3, [r0, #0]
     79e:	1c0f      	adds	r7, r1, #0
     7a0:	78de      	ldrb	r6, [r3, #3]
     7a2:	78d9      	ldrb	r1, [r3, #3]
     7a4:	220c      	movs	r2, #12
     7a6:	4391      	bics	r1, r2
     7a8:	70d9      	strb	r1, [r3, #3]
     7aa:	6805      	ldr	r5, [r0, #0]
     7ac:	4b4d      	ldr	r3, [pc, #308]	; (8e4 <serial_baud+0x150>)
     7ae:	1c04      	adds	r4, r0, #0
     7b0:	4016      	ands	r6, r2
     7b2:	429d      	cmp	r5, r3
     7b4:	d020      	beq.n	7f8 <serial_baud+0x64>
     7b6:	4b4c      	ldr	r3, [pc, #304]	; (8e8 <serial_baud+0x154>)
     7b8:	4a4c      	ldr	r2, [pc, #304]	; (8ec <serial_baud+0x158>)
     7ba:	58d1      	ldr	r1, [r2, r3]
     7bc:	4b4c      	ldr	r3, [pc, #304]	; (8f0 <serial_baud+0x15c>)
     7be:	0349      	lsls	r1, r1, #13
     7c0:	0f49      	lsrs	r1, r1, #29
     7c2:	3101      	adds	r1, #1
     7c4:	6818      	ldr	r0, [r3, #0]
     7c6:	f000 fcf9 	bl	11bc <__aeabi_uidiv>
     7ca:	0139      	lsls	r1, r7, #4
     7cc:	f000 fcf6 	bl	11bc <__aeabi_uidiv>
     7d0:	7829      	ldrb	r1, [r5, #0]
     7d2:	231f      	movs	r3, #31
     7d4:	0a02      	lsrs	r2, r0, #8
     7d6:	4399      	bics	r1, r3
     7d8:	401a      	ands	r2, r3
     7da:	1c0b      	adds	r3, r1, #0
     7dc:	4313      	orrs	r3, r2
     7de:	702b      	strb	r3, [r5, #0]
     7e0:	6823      	ldr	r3, [r4, #0]
     7e2:	b2c0      	uxtb	r0, r0
     7e4:	785a      	ldrb	r2, [r3, #1]
     7e6:	7058      	strb	r0, [r3, #1]
     7e8:	6823      	ldr	r3, [r4, #0]
     7ea:	78da      	ldrb	r2, [r3, #3]
     7ec:	4316      	orrs	r6, r2
     7ee:	70de      	strb	r6, [r3, #3]
     7f0:	bc0c      	pop	{r2, r3}
     7f2:	4690      	mov	r8, r2
     7f4:	4699      	mov	r9, r3
     7f6:	bdf8      	pop	{r3, r4, r5, r6, r7, pc}
     7f8:	493e      	ldr	r1, [pc, #248]	; (8f4 <serial_baud+0x160>)
     7fa:	780b      	ldrb	r3, [r1, #0]
     7fc:	4689      	mov	r9, r1
     7fe:	213f      	movs	r1, #63	; 0x3f
     800:	4688      	mov	r8, r1
     802:	438b      	bics	r3, r1
     804:	d036      	beq.n	874 <serial_baud+0xe0>
     806:	4a39      	ldr	r2, [pc, #228]	; (8ec <serial_baud+0x158>)
     808:	4b37      	ldr	r3, [pc, #220]	; (8e8 <serial_baud+0x154>)
     80a:	58d3      	ldr	r3, [r2, r3]
     80c:	4a38      	ldr	r2, [pc, #224]	; (8f0 <serial_baud+0x15c>)
     80e:	0f1b      	lsrs	r3, r3, #28
     810:	6810      	ldr	r0, [r2, #0]
     812:	3301      	adds	r3, #1
     814:	4358      	muls	r0, r3
     816:	4b37      	ldr	r3, [pc, #220]	; (8f4 <serial_baud+0x160>)
     818:	223f      	movs	r2, #63	; 0x3f
     81a:	7819      	ldrb	r1, [r3, #0]
     81c:	4391      	bics	r1, r2
     81e:	2980      	cmp	r1, #128	; 0x80
     820:	d0d3      	beq.n	7ca <serial_baud+0x36>
     822:	7819      	ldrb	r1, [r3, #0]
     824:	4391      	bics	r1, r2
     826:	d135      	bne.n	894 <serial_baud+0x100>
     828:	795a      	ldrb	r2, [r3, #5]
     82a:	0651      	lsls	r1, r2, #25
     82c:	d434      	bmi.n	898 <serial_baud+0x104>
     82e:	799a      	ldrb	r2, [r3, #6]
     830:	06d1      	lsls	r1, r2, #27
     832:	d42f      	bmi.n	894 <serial_baud+0x100>
     834:	781a      	ldrb	r2, [r3, #0]
     836:	2101      	movs	r1, #1
     838:	0692      	lsls	r2, r2, #26
     83a:	0f52      	lsrs	r2, r2, #29
     83c:	4091      	lsls	r1, r2
     83e:	785b      	ldrb	r3, [r3, #1]
     840:	1c0a      	adds	r2, r1, #0
     842:	2130      	movs	r1, #48	; 0x30
     844:	4219      	tst	r1, r3
     846:	d000      	beq.n	84a <serial_baud+0xb6>
     848:	0152      	lsls	r2, r2, #5
     84a:	4b2a      	ldr	r3, [pc, #168]	; (8f4 <serial_baud+0x160>)
     84c:	211f      	movs	r1, #31
     84e:	78db      	ldrb	r3, [r3, #3]
     850:	438b      	bics	r3, r1
     852:	2b60      	cmp	r3, #96	; 0x60
     854:	d035      	beq.n	8c2 <serial_baud+0x12e>
     856:	d82b      	bhi.n	8b0 <serial_baud+0x11c>
     858:	2b20      	cmp	r3, #32
     85a:	d035      	beq.n	8c8 <serial_baud+0x134>
     85c:	2b40      	cmp	r3, #64	; 0x40
     85e:	d036      	beq.n	8ce <serial_baud+0x13a>
     860:	2b00      	cmp	r3, #0
     862:	d004      	beq.n	86e <serial_baud+0xda>
     864:	4924      	ldr	r1, [pc, #144]	; (8f8 <serial_baud+0x164>)
     866:	4350      	muls	r0, r2
     868:	f000 fca8 	bl	11bc <__aeabi_uidiv>
     86c:	e7ad      	b.n	7ca <serial_baud+0x36>
     86e:	21a0      	movs	r1, #160	; 0xa0
     870:	0089      	lsls	r1, r1, #2
     872:	e7f8      	b.n	866 <serial_baud+0xd2>
     874:	f7ff ff66 	bl	744 <mcgpllfll_frequency.part.0>
     878:	2800      	cmp	r0, #0
     87a:	d030      	beq.n	8de <serial_baud+0x14a>
     87c:	4649      	mov	r1, r9
     87e:	780b      	ldrb	r3, [r1, #0]
     880:	4642      	mov	r2, r8
     882:	4393      	bics	r3, r2
     884:	d002      	beq.n	88c <serial_baud+0xf8>
     886:	6825      	ldr	r5, [r4, #0]
     888:	2000      	movs	r0, #0
     88a:	e79e      	b.n	7ca <serial_baud+0x36>
     88c:	f7ff ff5a 	bl	744 <mcgpllfll_frequency.part.0>
     890:	6825      	ldr	r5, [r4, #0]
     892:	e79a      	b.n	7ca <serial_baud+0x36>
     894:	2000      	movs	r0, #0
     896:	e798      	b.n	7ca <serial_baud+0x36>
     898:	791a      	ldrb	r2, [r3, #4]
     89a:	7959      	ldrb	r1, [r3, #5]
     89c:	231f      	movs	r3, #31
     89e:	401a      	ands	r2, r3
     8a0:	400b      	ands	r3, r1
     8a2:	3201      	adds	r2, #1
     8a4:	1c19      	adds	r1, r3, #0
     8a6:	4350      	muls	r0, r2
     8a8:	3118      	adds	r1, #24
     8aa:	f000 fc87 	bl	11bc <__aeabi_uidiv>
     8ae:	e78c      	b.n	7ca <serial_baud+0x36>
     8b0:	2ba0      	cmp	r3, #160	; 0xa0
     8b2:	d011      	beq.n	8d8 <serial_baud+0x144>
     8b4:	2bc0      	cmp	r3, #192	; 0xc0
     8b6:	d00d      	beq.n	8d4 <serial_baud+0x140>
     8b8:	2b80      	cmp	r3, #128	; 0x80
     8ba:	d1d3      	bne.n	864 <serial_baud+0xd0>
     8bc:	21b7      	movs	r1, #183	; 0xb7
     8be:	0089      	lsls	r1, r1, #2
     8c0:	e7d1      	b.n	866 <serial_baud+0xd2>
     8c2:	21a0      	movs	r1, #160	; 0xa0
     8c4:	0109      	lsls	r1, r1, #4
     8c6:	e7ce      	b.n	866 <serial_baud+0xd2>
     8c8:	21a0      	movs	r1, #160	; 0xa0
     8ca:	00c9      	lsls	r1, r1, #3
     8cc:	e7cb      	b.n	866 <serial_baud+0xd2>
     8ce:	21f0      	movs	r1, #240	; 0xf0
     8d0:	00c9      	lsls	r1, r1, #3
     8d2:	e7c8      	b.n	866 <serial_baud+0xd2>
     8d4:	4909      	ldr	r1, [pc, #36]	; (8fc <serial_baud+0x168>)
     8d6:	e7c6      	b.n	866 <serial_baud+0xd2>
     8d8:	21b7      	movs	r1, #183	; 0xb7
     8da:	00c9      	lsls	r1, r1, #3
     8dc:	e7c3      	b.n	866 <serial_baud+0xd2>
     8de:	6825      	ldr	r5, [r4, #0]
     8e0:	e791      	b.n	806 <serial_baud+0x72>
     8e2:	46c0      	nop			; (mov r8, r8)
     8e4:	4006a000 	.word	0x4006a000
     8e8:	00001044 	.word	0x00001044
     8ec:	40047000 	.word	0x40047000
     8f0:	1ffff0c8 	.word	0x1ffff0c8
     8f4:	40064000 	.word	0x40064000
     8f8:	00000b71 	.word	0x00000b71
     8fc:	00000895 	.word	0x00000895

00000900 <serial_format>:
     900:	b570      	push	{r4, r5, r6, lr}
     902:	6801      	ldr	r1, [r0, #0]
     904:	240c      	movs	r4, #12
     906:	78cd      	ldrb	r5, [r1, #3]
     908:	78ce      	ldrb	r6, [r1, #3]
     90a:	4025      	ands	r5, r4
     90c:	43a6      	bics	r6, r4
     90e:	70ce      	strb	r6, [r1, #3]
     910:	2a01      	cmp	r2, #1
     912:	d019      	beq.n	948 <serial_format+0x48>
     914:	2a00      	cmp	r2, #0
     916:	d019      	beq.n	94c <serial_format+0x4c>
     918:	1e91      	subs	r1, r2, #2
     91a:	424a      	negs	r2, r1
     91c:	4151      	adcs	r1, r2
     91e:	0049      	lsls	r1, r1, #1
     920:	6802      	ldr	r2, [r0, #0]
     922:	2420      	movs	r4, #32
     924:	7091      	strb	r1, [r2, #2]
     926:	6802      	ldr	r2, [r0, #0]
     928:	3b01      	subs	r3, #1
     92a:	7811      	ldrb	r1, [r2, #0]
     92c:	015b      	lsls	r3, r3, #5
     92e:	43a1      	bics	r1, r4
     930:	7011      	strb	r1, [r2, #0]
     932:	6802      	ldr	r2, [r0, #0]
     934:	7811      	ldrb	r1, [r2, #0]
     936:	430b      	orrs	r3, r1
     938:	b2db      	uxtb	r3, r3
     93a:	7013      	strb	r3, [r2, #0]
     93c:	6803      	ldr	r3, [r0, #0]
     93e:	1c2a      	adds	r2, r5, #0
     940:	78d9      	ldrb	r1, [r3, #3]
     942:	430a      	orrs	r2, r1
     944:	70da      	strb	r2, [r3, #3]
     946:	bd70      	pop	{r4, r5, r6, pc}
     948:	2103      	movs	r1, #3
     94a:	e7e9      	b.n	920 <serial_format+0x20>
     94c:	2100      	movs	r1, #0
     94e:	e7e7      	b.n	920 <serial_format+0x20>

00000950 <serial_init>:
     950:	b5f8      	push	{r3, r4, r5, r6, r7, lr}
     952:	464d      	mov	r5, r9
     954:	4644      	mov	r4, r8
     956:	465f      	mov	r7, r11
     958:	4656      	mov	r6, r10
     95a:	b4f0      	push	{r4, r5, r6, r7}
     95c:	1c05      	adds	r5, r0, #0
     95e:	4856      	ldr	r0, [pc, #344]	; (ab8 <serial_init+0x168>)
     960:	1c0f      	adds	r7, r1, #0
     962:	4681      	mov	r9, r0
     964:	1c08      	adds	r0, r1, #0
     966:	4649      	mov	r1, r9
     968:	1c16      	adds	r6, r2, #0
     96a:	f000 f9bd 	bl	ce8 <pinmap_peripheral>
     96e:	4953      	ldr	r1, [pc, #332]	; (abc <serial_init+0x16c>)
     970:	1c04      	adds	r4, r0, #0
     972:	1c30      	adds	r0, r6, #0
     974:	4688      	mov	r8, r1
     976:	f000 f9b7 	bl	ce8 <pinmap_peripheral>
     97a:	1c01      	adds	r1, r0, #0
     97c:	1c20      	adds	r0, r4, #0
     97e:	f000 f9a1 	bl	cc4 <pinmap_merge>
     982:	4b4f      	ldr	r3, [pc, #316]	; (ac0 <serial_init+0x170>)
     984:	1c04      	adds	r4, r0, #0
     986:	6028      	str	r0, [r5, #0]
     988:	4298      	cmp	r0, r3
     98a:	d061      	beq.n	a50 <serial_init+0x100>
     98c:	4a4d      	ldr	r2, [pc, #308]	; (ac4 <serial_init+0x174>)
     98e:	4290      	cmp	r0, r2
     990:	d06c      	beq.n	a6c <serial_init+0x11c>
     992:	484d      	ldr	r0, [pc, #308]	; (ac8 <serial_init+0x178>)
     994:	4683      	mov	r11, r0
     996:	4284      	cmp	r4, r0
     998:	d036      	beq.n	a08 <serial_init+0xb8>
     99a:	78e1      	ldrb	r1, [r4, #3]
     99c:	200c      	movs	r0, #12
     99e:	4381      	bics	r1, r0
     9a0:	70e1      	strb	r1, [r4, #3]
     9a2:	429c      	cmp	r4, r3
     9a4:	d05f      	beq.n	a66 <serial_init+0x116>
     9a6:	4294      	cmp	r4, r2
     9a8:	d06b      	beq.n	a82 <serial_init+0x132>
     9aa:	455c      	cmp	r4, r11
     9ac:	d04d      	beq.n	a4a <serial_init+0xfa>
     9ae:	2196      	movs	r1, #150	; 0x96
     9b0:	1c28      	adds	r0, r5, #0
     9b2:	0189      	lsls	r1, r1, #6
     9b4:	f7ff feee 	bl	794 <serial_baud>
     9b8:	1c28      	adds	r0, r5, #0
     9ba:	2108      	movs	r1, #8
     9bc:	2200      	movs	r2, #0
     9be:	2301      	movs	r3, #1
     9c0:	f7ff ff9e 	bl	900 <serial_format>
     9c4:	1c38      	adds	r0, r7, #0
     9c6:	4649      	mov	r1, r9
     9c8:	f000 f960 	bl	c8c <pinmap_pinout>
     9cc:	4641      	mov	r1, r8
     9ce:	1c30      	adds	r0, r6, #0
     9d0:	f000 f95c 	bl	c8c <pinmap_pinout>
     9d4:	1c79      	adds	r1, r7, #1
     9d6:	d003      	beq.n	9e0 <serial_init+0x90>
     9d8:	1c38      	adds	r0, r7, #0
     9da:	2102      	movs	r1, #2
     9dc:	f000 fa06 	bl	dec <pin_mode>
     9e0:	1c72      	adds	r2, r6, #1
     9e2:	d003      	beq.n	9ec <serial_init+0x9c>
     9e4:	1c30      	adds	r0, r6, #0
     9e6:	2102      	movs	r1, #2
     9e8:	f000 fa00 	bl	dec <pin_mode>
     9ec:	682b      	ldr	r3, [r5, #0]
     9ee:	220c      	movs	r2, #12
     9f0:	78d9      	ldrb	r1, [r3, #3]
     9f2:	430a      	orrs	r2, r1
     9f4:	70da      	strb	r2, [r3, #3]
     9f6:	4b34      	ldr	r3, [pc, #208]	; (ac8 <serial_init+0x178>)
     9f8:	429c      	cmp	r4, r3
     9fa:	d052      	beq.n	aa2 <serial_init+0x152>
     9fc:	bc3c      	pop	{r2, r3, r4, r5}
     9fe:	4690      	mov	r8, r2
     a00:	4699      	mov	r9, r3
     a02:	46a2      	mov	r10, r4
     a04:	46ab      	mov	r11, r5
     a06:	bdf8      	pop	{r3, r4, r5, r6, r7, pc}
     a08:	4b30      	ldr	r3, [pc, #192]	; (acc <serial_init+0x17c>)
     a0a:	781a      	ldrb	r2, [r3, #0]
     a0c:	233f      	movs	r3, #63	; 0x3f
     a0e:	439a      	bics	r2, r3
     a10:	1c23      	adds	r3, r4, #0
     a12:	2a00      	cmp	r2, #0
     a14:	d038      	beq.n	a88 <serial_init+0x138>
     a16:	492e      	ldr	r1, [pc, #184]	; (ad0 <serial_init+0x180>)
     a18:	4a2e      	ldr	r2, [pc, #184]	; (ad4 <serial_init+0x184>)
     a1a:	2080      	movs	r0, #128	; 0x80
     a1c:	4693      	mov	r11, r2
     a1e:	588a      	ldr	r2, [r1, r2]
     a20:	4692      	mov	r10, r2
     a22:	0502      	lsls	r2, r0, #20
     a24:	4650      	mov	r0, r10
     a26:	4310      	orrs	r0, r2
     a28:	465a      	mov	r2, r11
     a2a:	5088      	str	r0, [r1, r2]
     a2c:	4928      	ldr	r1, [pc, #160]	; (ad0 <serial_init+0x180>)
     a2e:	482a      	ldr	r0, [pc, #168]	; (ad8 <serial_init+0x188>)
     a30:	2280      	movs	r2, #128	; 0x80
     a32:	4683      	mov	r11, r0
     a34:	5808      	ldr	r0, [r1, r0]
     a36:	4682      	mov	r10, r0
     a38:	00d0      	lsls	r0, r2, #3
     a3a:	4652      	mov	r2, r10
     a3c:	4302      	orrs	r2, r0
     a3e:	4658      	mov	r0, r11
     a40:	500a      	str	r2, [r1, r0]
     a42:	78da      	ldrb	r2, [r3, #3]
     a44:	210c      	movs	r1, #12
     a46:	438a      	bics	r2, r1
     a48:	70da      	strb	r2, [r3, #3]
     a4a:	2300      	movs	r3, #0
     a4c:	606b      	str	r3, [r5, #4]
     a4e:	e7ae      	b.n	9ae <serial_init+0x5e>
     a50:	4a1f      	ldr	r2, [pc, #124]	; (ad0 <serial_init+0x180>)
     a52:	4b21      	ldr	r3, [pc, #132]	; (ad8 <serial_init+0x188>)
     a54:	2180      	movs	r1, #128	; 0x80
     a56:	58d0      	ldr	r0, [r2, r3]
     a58:	0109      	lsls	r1, r1, #4
     a5a:	4301      	orrs	r1, r0
     a5c:	50d1      	str	r1, [r2, r3]
     a5e:	78e3      	ldrb	r3, [r4, #3]
     a60:	220c      	movs	r2, #12
     a62:	4393      	bics	r3, r2
     a64:	70e3      	strb	r3, [r4, #3]
     a66:	2301      	movs	r3, #1
     a68:	606b      	str	r3, [r5, #4]
     a6a:	e7a0      	b.n	9ae <serial_init+0x5e>
     a6c:	4a18      	ldr	r2, [pc, #96]	; (ad0 <serial_init+0x180>)
     a6e:	4b1a      	ldr	r3, [pc, #104]	; (ad8 <serial_init+0x188>)
     a70:	2180      	movs	r1, #128	; 0x80
     a72:	58d0      	ldr	r0, [r2, r3]
     a74:	0149      	lsls	r1, r1, #5
     a76:	4301      	orrs	r1, r0
     a78:	50d1      	str	r1, [r2, r3]
     a7a:	78e3      	ldrb	r3, [r4, #3]
     a7c:	220c      	movs	r2, #12
     a7e:	4393      	bics	r3, r2
     a80:	70e3      	strb	r3, [r4, #3]
     a82:	2302      	movs	r3, #2
     a84:	606b      	str	r3, [r5, #4]
     a86:	e792      	b.n	9ae <serial_init+0x5e>
     a88:	f7ff fe5c 	bl	744 <mcgpllfll_frequency.part.0>
     a8c:	2800      	cmp	r0, #0
     a8e:	d011      	beq.n	ab4 <serial_init+0x164>
     a90:	4b10      	ldr	r3, [pc, #64]	; (ad4 <serial_init+0x184>)
     a92:	4a0f      	ldr	r2, [pc, #60]	; (ad0 <serial_init+0x180>)
     a94:	2180      	movs	r1, #128	; 0x80
     a96:	58d0      	ldr	r0, [r2, r3]
     a98:	04c9      	lsls	r1, r1, #19
     a9a:	4301      	orrs	r1, r0
     a9c:	50d1      	str	r1, [r2, r3]
     a9e:	682b      	ldr	r3, [r5, #0]
     aa0:	e7c4      	b.n	a2c <serial_init+0xdc>
     aa2:	4b0e      	ldr	r3, [pc, #56]	; (adc <serial_init+0x18c>)
     aa4:	2201      	movs	r2, #1
     aa6:	601a      	str	r2, [r3, #0]
     aa8:	1c29      	adds	r1, r5, #0
     aaa:	2208      	movs	r2, #8
     aac:	480c      	ldr	r0, [pc, #48]	; (ae0 <serial_init+0x190>)
     aae:	f000 fe4d 	bl	174c <memcpy>
     ab2:	e7a3      	b.n	9fc <serial_init+0xac>
     ab4:	682b      	ldr	r3, [r5, #0]
     ab6:	e7ae      	b.n	a16 <serial_init+0xc6>
     ab8:	00003088 	.word	0x00003088
     abc:	0000301c 	.word	0x0000301c
     ac0:	4006b000 	.word	0x4006b000
     ac4:	4006c000 	.word	0x4006c000
     ac8:	4006a000 	.word	0x4006a000
     acc:	40064000 	.word	0x40064000
     ad0:	40047000 	.word	0x40047000
     ad4:	00001004 	.word	0x00001004
     ad8:	00001034 	.word	0x00001034
     adc:	1ffff258 	.word	0x1ffff258
     ae0:	1ffff278 	.word	0x1ffff278

00000ae4 <serial_getc>:
     ae4:	6803      	ldr	r3, [r0, #0]
     ae6:	b530      	push	{r4, r5, lr}
     ae8:	2120      	movs	r1, #32
     aea:	2508      	movs	r5, #8
     aec:	2408      	movs	r4, #8
     aee:	791a      	ldrb	r2, [r3, #4]
     af0:	4214      	tst	r4, r2
     af2:	d004      	beq.n	afe <serial_getc+0x1a>
     af4:	791a      	ldrb	r2, [r3, #4]
     af6:	432a      	orrs	r2, r5
     af8:	b2d2      	uxtb	r2, r2
     afa:	711a      	strb	r2, [r3, #4]
     afc:	6803      	ldr	r3, [r0, #0]
     afe:	791a      	ldrb	r2, [r3, #4]
     b00:	4211      	tst	r1, r2
     b02:	d0f4      	beq.n	aee <serial_getc+0xa>
     b04:	79d8      	ldrb	r0, [r3, #7]
     b06:	b2c0      	uxtb	r0, r0
     b08:	bd30      	pop	{r4, r5, pc}
     b0a:	46c0      	nop			; (mov r8, r8)

00000b0c <serial_putc>:
     b0c:	6803      	ldr	r3, [r0, #0]
     b0e:	b570      	push	{r4, r5, r6, lr}
     b10:	2608      	movs	r6, #8
     b12:	2508      	movs	r5, #8
     b14:	247f      	movs	r4, #127	; 0x7f
     b16:	791a      	ldrb	r2, [r3, #4]
     b18:	4215      	tst	r5, r2
     b1a:	d004      	beq.n	b26 <serial_putc+0x1a>
     b1c:	791a      	ldrb	r2, [r3, #4]
     b1e:	4332      	orrs	r2, r6
     b20:	b2d2      	uxtb	r2, r2
     b22:	711a      	strb	r2, [r3, #4]
     b24:	6803      	ldr	r3, [r0, #0]
     b26:	791a      	ldrb	r2, [r3, #4]
     b28:	43a2      	bics	r2, r4
     b2a:	d0f4      	beq.n	b16 <serial_putc+0xa>
     b2c:	b2c9      	uxtb	r1, r1
     b2e:	71d9      	strb	r1, [r3, #7]
     b30:	bd70      	pop	{r4, r5, r6, pc}
     b32:	46c0      	nop			; (mov r8, r8)

00000b34 <NVIC_SetVector>:
     b34:	4b0a      	ldr	r3, [pc, #40]	; (b60 <NVIC_SetVector+0x2c>)
     b36:	b530      	push	{r4, r5, lr}
     b38:	689c      	ldr	r4, [r3, #8]
     b3a:	689b      	ldr	r3, [r3, #8]
     b3c:	1c22      	adds	r2, r4, #0
     b3e:	2b00      	cmp	r3, #0
     b40:	d109      	bne.n	b56 <NVIC_SetVector+0x22>
     b42:	4d08      	ldr	r5, [pc, #32]	; (b64 <NVIC_SetVector+0x30>)
     b44:	195a      	adds	r2, r3, r5
     b46:	591d      	ldr	r5, [r3, r4]
     b48:	3304      	adds	r3, #4
     b4a:	6015      	str	r5, [r2, #0]
     b4c:	2bc0      	cmp	r3, #192	; 0xc0
     b4e:	d1f8      	bne.n	b42 <NVIC_SetVector+0xe>
     b50:	4a04      	ldr	r2, [pc, #16]	; (b64 <NVIC_SetVector+0x30>)
     b52:	4b03      	ldr	r3, [pc, #12]	; (b60 <NVIC_SetVector+0x2c>)
     b54:	609a      	str	r2, [r3, #8]
     b56:	3010      	adds	r0, #16
     b58:	0080      	lsls	r0, r0, #2
     b5a:	5081      	str	r1, [r0, r2]
     b5c:	bd30      	pop	{r4, r5, pc}
     b5e:	46c0      	nop			; (mov r8, r8)
     b60:	e000ed00 	.word	0xe000ed00
     b64:	1ffff000 	.word	0x1ffff000

00000b68 <SystemInit>:
     b68:	4b22      	ldr	r3, [pc, #136]	; (bf4 <SystemInit+0x8c>)
     b6a:	2188      	movs	r1, #136	; 0x88
     b6c:	2200      	movs	r2, #0
     b6e:	0149      	lsls	r1, r1, #5
     b70:	b510      	push	{r4, lr}
     b72:	505a      	str	r2, [r3, r1]
     b74:	4920      	ldr	r1, [pc, #128]	; (bf8 <SystemInit+0x90>)
     b76:	2080      	movs	r0, #128	; 0x80
     b78:	585c      	ldr	r4, [r3, r1]
     b7a:	0080      	lsls	r0, r0, #2
     b7c:	4320      	orrs	r0, r4
     b7e:	5058      	str	r0, [r3, r1]
     b80:	481e      	ldr	r0, [pc, #120]	; (bfc <SystemInit+0x94>)
     b82:	491f      	ldr	r1, [pc, #124]	; (c00 <SystemInit+0x98>)
     b84:	5058      	str	r0, [r3, r1]
     b86:	4b1f      	ldr	r3, [pc, #124]	; (c04 <SystemInit+0x9c>)
     b88:	491f      	ldr	r1, [pc, #124]	; (c08 <SystemInit+0xa0>)
     b8a:	6c98      	ldr	r0, [r3, #72]	; 0x48
     b8c:	4008      	ands	r0, r1
     b8e:	6498      	str	r0, [r3, #72]	; 0x48
     b90:	6cd8      	ldr	r0, [r3, #76]	; 0x4c
     b92:	4001      	ands	r1, r0
     b94:	64d9      	str	r1, [r3, #76]	; 0x4c
     b96:	4b1d      	ldr	r3, [pc, #116]	; (c0c <SystemInit+0xa4>)
     b98:	2189      	movs	r1, #137	; 0x89
     b9a:	7019      	strb	r1, [r3, #0]
     b9c:	491c      	ldr	r1, [pc, #112]	; (c10 <SystemInit+0xa8>)
     b9e:	2324      	movs	r3, #36	; 0x24
     ba0:	704b      	strb	r3, [r1, #1]
     ba2:	239a      	movs	r3, #154	; 0x9a
     ba4:	700b      	strb	r3, [r1, #0]
     ba6:	78cb      	ldrb	r3, [r1, #3]
     ba8:	201f      	movs	r0, #31
     baa:	4003      	ands	r3, r0
     bac:	70cb      	strb	r3, [r1, #3]
     bae:	2301      	movs	r3, #1
     bb0:	710b      	strb	r3, [r1, #4]
     bb2:	714a      	strb	r2, [r1, #5]
     bb4:	2210      	movs	r2, #16
     bb6:	798b      	ldrb	r3, [r1, #6]
     bb8:	421a      	tst	r2, r3
     bba:	d1fc      	bne.n	bb6 <SystemInit+0x4e>
     bbc:	4814      	ldr	r0, [pc, #80]	; (c10 <SystemInit+0xa8>)
     bbe:	210c      	movs	r1, #12
     bc0:	7983      	ldrb	r3, [r0, #6]
     bc2:	4a13      	ldr	r2, [pc, #76]	; (c10 <SystemInit+0xa8>)
     bc4:	400b      	ands	r3, r1
     bc6:	2b08      	cmp	r3, #8
     bc8:	d1fa      	bne.n	bc0 <SystemInit+0x58>
     bca:	2340      	movs	r3, #64	; 0x40
     bcc:	7153      	strb	r3, [r2, #5]
     bce:	210c      	movs	r1, #12
     bd0:	7993      	ldrb	r3, [r2, #6]
     bd2:	400b      	ands	r3, r1
     bd4:	2b08      	cmp	r3, #8
     bd6:	d1fb      	bne.n	bd0 <SystemInit+0x68>
     bd8:	480d      	ldr	r0, [pc, #52]	; (c10 <SystemInit+0xa8>)
     bda:	2140      	movs	r1, #64	; 0x40
     bdc:	7983      	ldrb	r3, [r0, #6]
     bde:	4a0c      	ldr	r2, [pc, #48]	; (c10 <SystemInit+0xa8>)
     be0:	4219      	tst	r1, r3
     be2:	d0fb      	beq.n	bdc <SystemInit+0x74>
     be4:	231a      	movs	r3, #26
     be6:	7013      	strb	r3, [r2, #0]
     be8:	210c      	movs	r1, #12
     bea:	7993      	ldrb	r3, [r2, #6]
     bec:	400b      	ands	r3, r1
     bee:	2b0c      	cmp	r3, #12
     bf0:	d1fb      	bne.n	bea <SystemInit+0x82>
     bf2:	bd10      	pop	{r4, pc}
     bf4:	40047000 	.word	0x40047000
     bf8:	00001038 	.word	0x00001038
     bfc:	10010000 	.word	0x10010000
     c00:	00001044 	.word	0x00001044
     c04:	40049000 	.word	0x40049000
     c08:	fefff8ff 	.word	0xfefff8ff
     c0c:	40065000 	.word	0x40065000
     c10:	40064000 	.word	0x40064000

00000c14 <mbed_die>:
     c14:	b500      	push	{lr}
     c16:	b087      	sub	sp, #28
     c18:	b672      	cpsid	i
     c1a:	4908      	ldr	r1, [pc, #32]	; (c3c <mbed_die+0x28>)
     c1c:	4668      	mov	r0, sp
     c1e:	f000 f821 	bl	c64 <gpio_init_out>
     c22:	9b03      	ldr	r3, [sp, #12]
     c24:	9a01      	ldr	r2, [sp, #4]
     c26:	2096      	movs	r0, #150	; 0x96
     c28:	601a      	str	r2, [r3, #0]
     c2a:	f000 f881 	bl	d30 <wait_ms>
     c2e:	9b04      	ldr	r3, [sp, #16]
     c30:	9a01      	ldr	r2, [sp, #4]
     c32:	2096      	movs	r0, #150	; 0x96
     c34:	601a      	str	r2, [r3, #0]
     c36:	f000 f87b 	bl	d30 <wait_ms>
     c3a:	e7f2      	b.n	c22 <mbed_die+0xe>
     c3c:	00001048 	.word	0x00001048

00000c40 <error>:
     c40:	b40f      	push	{r0, r1, r2, r3}
     c42:	b500      	push	{lr}
     c44:	b083      	sub	sp, #12
     c46:	aa04      	add	r2, sp, #16
     c48:	ca08      	ldmia	r2!, {r3}
     c4a:	4b05      	ldr	r3, [pc, #20]	; (c60 <error+0x20>)
     c4c:	9904      	ldr	r1, [sp, #16]
     c4e:	681b      	ldr	r3, [r3, #0]
     c50:	9201      	str	r2, [sp, #4]
     c52:	68d8      	ldr	r0, [r3, #12]
     c54:	f001 f90e 	bl	1e74 <vfiprintf>
     c58:	2001      	movs	r0, #1
     c5a:	f7ff fc81 	bl	560 <exit>
     c5e:	46c0      	nop			; (mov r8, r8)
     c60:	1ffff12c 	.word	0x1ffff12c

00000c64 <gpio_init_out>:
     c64:	b538      	push	{r3, r4, r5, lr}
     c66:	1c0d      	adds	r5, r1, #0
     c68:	1c04      	adds	r4, r0, #0
     c6a:	f000 f869 	bl	d40 <gpio_init>
     c6e:	3501      	adds	r5, #1
     c70:	d00a      	beq.n	c88 <gpio_init_out+0x24>
     c72:	6923      	ldr	r3, [r4, #16]
     c74:	6862      	ldr	r2, [r4, #4]
     c76:	1c20      	adds	r0, r4, #0
     c78:	2101      	movs	r1, #1
     c7a:	601a      	str	r2, [r3, #0]
     c7c:	f000 f884 	bl	d88 <gpio_dir>
     c80:	1c20      	adds	r0, r4, #0
     c82:	2100      	movs	r1, #0
     c84:	f000 f87a 	bl	d7c <gpio_mode>
     c88:	bd38      	pop	{r3, r4, r5, pc}
     c8a:	46c0      	nop			; (mov r8, r8)

00000c8c <pinmap_pinout>:
     c8c:	b510      	push	{r4, lr}
     c8e:	1c04      	adds	r4, r0, #0
     c90:	1c42      	adds	r2, r0, #1
     c92:	d103      	bne.n	c9c <pinmap_pinout+0x10>
     c94:	e009      	b.n	caa <pinmap_pinout+0x1e>
     c96:	429c      	cmp	r4, r3
     c98:	d008      	beq.n	cac <pinmap_pinout+0x20>
     c9a:	310c      	adds	r1, #12
     c9c:	2200      	movs	r2, #0
     c9e:	5e8b      	ldrsh	r3, [r1, r2]
     ca0:	1c5a      	adds	r2, r3, #1
     ca2:	d1f8      	bne.n	c96 <pinmap_pinout+0xa>
     ca4:	4806      	ldr	r0, [pc, #24]	; (cc0 <pinmap_pinout+0x34>)
     ca6:	f7ff ffcb 	bl	c40 <error>
     caa:	bd10      	pop	{r4, pc}
     cac:	1c20      	adds	r0, r4, #0
     cae:	6889      	ldr	r1, [r1, #8]
     cb0:	f000 f87a 	bl	da8 <pin_function>
     cb4:	1c20      	adds	r0, r4, #0
     cb6:	2100      	movs	r1, #0
     cb8:	f000 f898 	bl	dec <pin_mode>
     cbc:	e7f5      	b.n	caa <pinmap_pinout+0x1e>
     cbe:	46c0      	nop			; (mov r8, r8)
     cc0:	00002fd4 	.word	0x00002fd4

00000cc4 <pinmap_merge>:
     cc4:	b508      	push	{r3, lr}
     cc6:	4288      	cmp	r0, r1
     cc8:	d008      	beq.n	cdc <pinmap_merge+0x18>
     cca:	1c43      	adds	r3, r0, #1
     ccc:	d007      	beq.n	cde <pinmap_merge+0x1a>
     cce:	3101      	adds	r1, #1
     cd0:	d004      	beq.n	cdc <pinmap_merge+0x18>
     cd2:	4804      	ldr	r0, [pc, #16]	; (ce4 <pinmap_merge+0x20>)
     cd4:	f7ff ffb4 	bl	c40 <error>
     cd8:	2001      	movs	r0, #1
     cda:	4240      	negs	r0, r0
     cdc:	bd08      	pop	{r3, pc}
     cde:	1c08      	adds	r0, r1, #0
     ce0:	e7fc      	b.n	cdc <pinmap_merge+0x18>
     ce2:	46c0      	nop			; (mov r8, r8)
     ce4:	00002fe8 	.word	0x00002fe8

00000ce8 <pinmap_peripheral>:
     ce8:	1c02      	adds	r2, r0, #0
     cea:	b508      	push	{r3, lr}
     cec:	1c53      	adds	r3, r2, #1
     cee:	d103      	bne.n	cf8 <pinmap_peripheral+0x10>
     cf0:	e00b      	b.n	d0a <pinmap_peripheral+0x22>
     cf2:	429a      	cmp	r2, r3
     cf4:	d00a      	beq.n	d0c <pinmap_peripheral+0x24>
     cf6:	310c      	adds	r1, #12
     cf8:	2000      	movs	r0, #0
     cfa:	5e0b      	ldrsh	r3, [r1, r0]
     cfc:	1c58      	adds	r0, r3, #1
     cfe:	d1f8      	bne.n	cf2 <pinmap_peripheral+0xa>
     d00:	4804      	ldr	r0, [pc, #16]	; (d14 <pinmap_peripheral+0x2c>)
     d02:	f7ff ff9d 	bl	c40 <error>
     d06:	2001      	movs	r0, #1
     d08:	4240      	negs	r0, r0
     d0a:	bd08      	pop	{r3, pc}
     d0c:	6848      	ldr	r0, [r1, #4]
     d0e:	1c43      	adds	r3, r0, #1
     d10:	d1fb      	bne.n	d0a <pinmap_peripheral+0x22>
     d12:	e7f5      	b.n	d00 <pinmap_peripheral+0x18>
     d14:	00002ffc 	.word	0x00002ffc

00000d18 <wait_us>:
     d18:	b538      	push	{r3, r4, r5, lr}
     d1a:	1c05      	adds	r5, r0, #0
     d1c:	f000 f9b6 	bl	108c <us_ticker_read>
     d20:	1c04      	adds	r4, r0, #0
     d22:	f000 f9b3 	bl	108c <us_ticker_read>
     d26:	1b03      	subs	r3, r0, r4
     d28:	42ab      	cmp	r3, r5
     d2a:	d3fa      	bcc.n	d22 <wait_us+0xa>
     d2c:	bd38      	pop	{r3, r4, r5, pc}
     d2e:	46c0      	nop			; (mov r8, r8)

00000d30 <wait_ms>:
     d30:	b508      	push	{r3, lr}
     d32:	23fa      	movs	r3, #250	; 0xfa
     d34:	009b      	lsls	r3, r3, #2
     d36:	4358      	muls	r0, r3
     d38:	f7ff ffee 	bl	d18 <wait_us>
     d3c:	bd08      	pop	{r3, pc}
     d3e:	46c0      	nop			; (mov r8, r8)

00000d40 <gpio_init>:
     d40:	b538      	push	{r3, r4, r5, lr}
     d42:	1c04      	adds	r4, r0, #0
     d44:	1c0d      	adds	r5, r1, #0
     d46:	8021      	strh	r1, [r4, #0]
     d48:	1c4b      	adds	r3, r1, #1
     d4a:	d014      	beq.n	d76 <gpio_init+0x36>
     d4c:	1c08      	adds	r0, r1, #0
     d4e:	2101      	movs	r1, #1
     d50:	f000 f82a 	bl	da8 <pin_function>
     d54:	066b      	lsls	r3, r5, #25
     d56:	0edb      	lsrs	r3, r3, #27
     d58:	2201      	movs	r2, #1
     d5a:	409a      	lsls	r2, r3
     d5c:	4b06      	ldr	r3, [pc, #24]	; (d78 <gpio_init+0x38>)
     d5e:	0b2d      	lsrs	r5, r5, #12
     d60:	18ed      	adds	r5, r5, r3
     d62:	01ad      	lsls	r5, r5, #6
     d64:	1d2b      	adds	r3, r5, #4
     d66:	60e3      	str	r3, [r4, #12]
     d68:	3304      	adds	r3, #4
     d6a:	6123      	str	r3, [r4, #16]
     d6c:	3514      	adds	r5, #20
     d6e:	3308      	adds	r3, #8
     d70:	6062      	str	r2, [r4, #4]
     d72:	6163      	str	r3, [r4, #20]
     d74:	60a5      	str	r5, [r4, #8]
     d76:	bd38      	pop	{r3, r4, r5, pc}
     d78:	03e03fc0 	.word	0x03e03fc0

00000d7c <gpio_mode>:
     d7c:	b508      	push	{r3, lr}
     d7e:	2300      	movs	r3, #0
     d80:	5ec0      	ldrsh	r0, [r0, r3]
     d82:	f000 f833 	bl	dec <pin_mode>
     d86:	bd08      	pop	{r3, pc}

00000d88 <gpio_dir>:
     d88:	2900      	cmp	r1, #0
     d8a:	d007      	beq.n	d9c <gpio_dir+0x14>
     d8c:	2901      	cmp	r1, #1
     d8e:	d104      	bne.n	d9a <gpio_dir+0x12>
     d90:	6883      	ldr	r3, [r0, #8]
     d92:	6842      	ldr	r2, [r0, #4]
     d94:	6819      	ldr	r1, [r3, #0]
     d96:	430a      	orrs	r2, r1
     d98:	601a      	str	r2, [r3, #0]
     d9a:	4770      	bx	lr
     d9c:	6883      	ldr	r3, [r0, #8]
     d9e:	6841      	ldr	r1, [r0, #4]
     da0:	681a      	ldr	r2, [r3, #0]
     da2:	438a      	bics	r2, r1
     da4:	601a      	str	r2, [r3, #0]
     da6:	e7f8      	b.n	d9a <gpio_dir+0x12>

00000da8 <pin_function>:
     da8:	0b03      	lsrs	r3, r0, #12
     daa:	b5f0      	push	{r4, r5, r6, r7, lr}
     dac:	4a0b      	ldr	r2, [pc, #44]	; (ddc <pin_function+0x34>)
     dae:	4c0c      	ldr	r4, [pc, #48]	; (de0 <pin_function+0x38>)
     db0:	1c1d      	adds	r5, r3, #0
     db2:	3509      	adds	r5, #9
     db4:	2701      	movs	r7, #1
     db6:	58a6      	ldr	r6, [r4, r2]
     db8:	40af      	lsls	r7, r5
     dba:	1c3d      	adds	r5, r7, #0
     dbc:	4335      	orrs	r5, r6
     dbe:	50a5      	str	r5, [r4, r2]
     dc0:	4a08      	ldr	r2, [pc, #32]	; (de4 <pin_function+0x3c>)
     dc2:	189b      	adds	r3, r3, r2
     dc4:	227c      	movs	r2, #124	; 0x7c
     dc6:	031b      	lsls	r3, r3, #12
     dc8:	4010      	ands	r0, r2
     dca:	1818      	adds	r0, r3, r0
     dcc:	6802      	ldr	r2, [r0, #0]
     dce:	4b06      	ldr	r3, [pc, #24]	; (de8 <pin_function+0x40>)
     dd0:	401a      	ands	r2, r3
     dd2:	020b      	lsls	r3, r1, #8
     dd4:	1c11      	adds	r1, r2, #0
     dd6:	4319      	orrs	r1, r3
     dd8:	6001      	str	r1, [r0, #0]
     dda:	bdf0      	pop	{r4, r5, r6, r7, pc}
     ddc:	00001038 	.word	0x00001038
     de0:	40047000 	.word	0x40047000
     de4:	00040049 	.word	0x00040049
     de8:	fffff8ff 	.word	0xfffff8ff

00000dec <pin_mode>:
     dec:	4b03      	ldr	r3, [pc, #12]	; (dfc <pin_mode+0x10>)
     dee:	2203      	movs	r2, #3
     df0:	18c0      	adds	r0, r0, r3
     df2:	6803      	ldr	r3, [r0, #0]
     df4:	4393      	bics	r3, r2
     df6:	4319      	orrs	r1, r3
     df8:	6001      	str	r1, [r0, #0]
     dfa:	4770      	bx	lr
     dfc:	40049000 	.word	0x40049000

00000e00 <lptmr_isr>:
     e00:	4b15      	ldr	r3, [pc, #84]	; (e58 <lptmr_isr+0x58>)
     e02:	2280      	movs	r2, #128	; 0x80
     e04:	6819      	ldr	r1, [r3, #0]
     e06:	b510      	push	{r4, lr}
     e08:	430a      	orrs	r2, r1
     e0a:	4914      	ldr	r1, [pc, #80]	; (e5c <lptmr_isr+0x5c>)
     e0c:	601a      	str	r2, [r3, #0]
     e0e:	680a      	ldr	r2, [r1, #0]
     e10:	2a00      	cmp	r2, #0
     e12:	d112      	bne.n	e3a <lptmr_isr+0x3a>
     e14:	4912      	ldr	r1, [pc, #72]	; (e60 <lptmr_isr+0x60>)
     e16:	8808      	ldrh	r0, [r1, #0]
     e18:	2800      	cmp	r0, #0
     e1a:	d00b      	beq.n	e34 <lptmr_isr+0x34>
     e1c:	601a      	str	r2, [r3, #0]
     e1e:	6098      	str	r0, [r3, #8]
     e20:	681c      	ldr	r4, [r3, #0]
     e22:	2040      	movs	r0, #64	; 0x40
     e24:	4320      	orrs	r0, r4
     e26:	6018      	str	r0, [r3, #0]
     e28:	681c      	ldr	r4, [r3, #0]
     e2a:	2001      	movs	r0, #1
     e2c:	4320      	orrs	r0, r4
     e2e:	6018      	str	r0, [r3, #0]
     e30:	800a      	strh	r2, [r1, #0]
     e32:	bd10      	pop	{r4, pc}
     e34:	f000 f98a 	bl	114c <us_ticker_irq_handler>
     e38:	e7fb      	b.n	e32 <lptmr_isr+0x32>
     e3a:	2000      	movs	r0, #0
     e3c:	6018      	str	r0, [r3, #0]
     e3e:	4809      	ldr	r0, [pc, #36]	; (e64 <lptmr_isr+0x64>)
     e40:	3a01      	subs	r2, #1
     e42:	6098      	str	r0, [r3, #8]
     e44:	681c      	ldr	r4, [r3, #0]
     e46:	2040      	movs	r0, #64	; 0x40
     e48:	4320      	orrs	r0, r4
     e4a:	6018      	str	r0, [r3, #0]
     e4c:	681c      	ldr	r4, [r3, #0]
     e4e:	2001      	movs	r0, #1
     e50:	4320      	orrs	r0, r4
     e52:	6018      	str	r0, [r3, #0]
     e54:	600a      	str	r2, [r1, #0]
     e56:	e7ec      	b.n	e32 <lptmr_isr+0x32>
     e58:	40040000 	.word	0x40040000
     e5c:	1ffff25c 	.word	0x1ffff25c
     e60:	1ffff264 	.word	0x1ffff264
     e64:	0000ffff 	.word	0x0000ffff

00000e68 <us_ticker_init>:
     e68:	b5f8      	push	{r3, r4, r5, r6, r7, lr}
     e6a:	4b79      	ldr	r3, [pc, #484]	; (1050 <us_ticker_init+0x1e8>)
     e6c:	464f      	mov	r7, r9
     e6e:	681d      	ldr	r5, [r3, #0]
     e70:	4646      	mov	r6, r8
     e72:	b4c0      	push	{r6, r7}
     e74:	2d00      	cmp	r5, #0
     e76:	d003      	beq.n	e80 <us_ticker_init+0x18>
     e78:	bc0c      	pop	{r2, r3}
     e7a:	4690      	mov	r8, r2
     e7c:	4699      	mov	r9, r3
     e7e:	bdf8      	pop	{r3, r4, r5, r6, r7, pc}
     e80:	2701      	movs	r7, #1
     e82:	601f      	str	r7, [r3, #0]
     e84:	4e73      	ldr	r6, [pc, #460]	; (1054 <us_ticker_init+0x1ec>)
     e86:	4b74      	ldr	r3, [pc, #464]	; (1058 <us_ticker_init+0x1f0>)
     e88:	2280      	movs	r2, #128	; 0x80
     e8a:	58f1      	ldr	r1, [r6, r3]
     e8c:	0412      	lsls	r2, r2, #16
     e8e:	430a      	orrs	r2, r1
     e90:	50f2      	str	r2, [r6, r3]
     e92:	4c72      	ldr	r4, [pc, #456]	; (105c <us_ticker_init+0x1f4>)
     e94:	2201      	movs	r2, #1
     e96:	2388      	movs	r3, #136	; 0x88
     e98:	4252      	negs	r2, r2
     e9a:	005b      	lsls	r3, r3, #1
     e9c:	6025      	str	r5, [r4, #0]
     e9e:	50e2      	str	r2, [r4, r3]
     ea0:	238c      	movs	r3, #140	; 0x8c
     ea2:	005b      	lsls	r3, r3, #1
     ea4:	2204      	movs	r2, #4
     ea6:	50e2      	str	r2, [r4, r3]
     ea8:	58e2      	ldr	r2, [r4, r3]
     eaa:	496d      	ldr	r1, [pc, #436]	; (1060 <us_ticker_init+0x1f8>)
     eac:	433a      	orrs	r2, r7
     eae:	50e2      	str	r2, [r4, r3]
     eb0:	4689      	mov	r9, r1
     eb2:	5871      	ldr	r1, [r6, r1]
     eb4:	4b6b      	ldr	r3, [pc, #428]	; (1064 <us_ticker_init+0x1fc>)
     eb6:	0349      	lsls	r1, r1, #13
     eb8:	0f49      	lsrs	r1, r1, #29
     eba:	6818      	ldr	r0, [r3, #0]
     ebc:	3101      	adds	r1, #1
     ebe:	4698      	mov	r8, r3
     ec0:	f000 f97c 	bl	11bc <__aeabi_uidiv>
     ec4:	4b68      	ldr	r3, [pc, #416]	; (1068 <us_ticker_init+0x200>)
     ec6:	4969      	ldr	r1, [pc, #420]	; (106c <us_ticker_init+0x204>)
     ec8:	18c0      	adds	r0, r0, r3
     eca:	f000 f977 	bl	11bc <__aeabi_uidiv>
     ece:	2380      	movs	r3, #128	; 0x80
     ed0:	3801      	subs	r0, #1
     ed2:	005b      	lsls	r3, r3, #1
     ed4:	50e0      	str	r0, [r4, r3]
     ed6:	2384      	movs	r3, #132	; 0x84
     ed8:	005b      	lsls	r3, r3, #1
     eda:	50e7      	str	r7, [r4, r3]
     edc:	4b64      	ldr	r3, [pc, #400]	; (1070 <us_ticker_init+0x208>)
     ede:	201c      	movs	r0, #28
     ee0:	58f2      	ldr	r2, [r6, r3]
     ee2:	4964      	ldr	r1, [pc, #400]	; (1074 <us_ticker_init+0x20c>)
     ee4:	433a      	orrs	r2, r7
     ee6:	50f2      	str	r2, [r6, r3]
     ee8:	4b63      	ldr	r3, [pc, #396]	; (1078 <us_ticker_init+0x210>)
     eea:	601d      	str	r5, [r3, #0]
     eec:	f7ff fe22 	bl	b34 <NVIC_SetVector>
     ef0:	4b62      	ldr	r3, [pc, #392]	; (107c <us_ticker_init+0x214>)
     ef2:	2280      	movs	r2, #128	; 0x80
     ef4:	0552      	lsls	r2, r2, #21
     ef6:	601a      	str	r2, [r3, #0]
     ef8:	4649      	mov	r1, r9
     efa:	5873      	ldr	r3, [r6, r1]
     efc:	4642      	mov	r2, r8
     efe:	6810      	ldr	r0, [r2, #0]
     f00:	0f1b      	lsrs	r3, r3, #28
     f02:	3301      	adds	r3, #1
     f04:	4358      	muls	r0, r3
     f06:	4b5e      	ldr	r3, [pc, #376]	; (1080 <us_ticker_init+0x218>)
     f08:	223f      	movs	r2, #63	; 0x3f
     f0a:	7819      	ldrb	r1, [r3, #0]
     f0c:	4391      	bics	r1, r2
     f0e:	2980      	cmp	r1, #128	; 0x80
     f10:	d07a      	beq.n	1008 <us_ticker_init+0x1a0>
     f12:	7819      	ldrb	r1, [r3, #0]
     f14:	4391      	bics	r1, r2
     f16:	d120      	bne.n	f5a <us_ticker_init+0xf2>
     f18:	795a      	ldrb	r2, [r3, #5]
     f1a:	0651      	lsls	r1, r2, #25
     f1c:	d443      	bmi.n	fa6 <us_ticker_init+0x13e>
     f1e:	799a      	ldrb	r2, [r3, #6]
     f20:	06d1      	lsls	r1, r2, #27
     f22:	d41a      	bmi.n	f5a <us_ticker_init+0xf2>
     f24:	781a      	ldrb	r2, [r3, #0]
     f26:	785b      	ldrb	r3, [r3, #1]
     f28:	0692      	lsls	r2, r2, #26
     f2a:	0f52      	lsrs	r2, r2, #29
     f2c:	4097      	lsls	r7, r2
     f2e:	2230      	movs	r2, #48	; 0x30
     f30:	421a      	tst	r2, r3
     f32:	d16b      	bne.n	100c <us_ticker_init+0x1a4>
     f34:	4b52      	ldr	r3, [pc, #328]	; (1080 <us_ticker_init+0x218>)
     f36:	78da      	ldrb	r2, [r3, #3]
     f38:	231f      	movs	r3, #31
     f3a:	439a      	bics	r2, r3
     f3c:	2a60      	cmp	r2, #96	; 0x60
     f3e:	d07c      	beq.n	103a <us_ticker_init+0x1d2>
     f40:	d966      	bls.n	1010 <us_ticker_init+0x1a8>
     f42:	2aa0      	cmp	r2, #160	; 0xa0
     f44:	d076      	beq.n	1034 <us_ticker_init+0x1cc>
     f46:	2ac0      	cmp	r2, #192	; 0xc0
     f48:	d072      	beq.n	1030 <us_ticker_init+0x1c8>
     f4a:	2a80      	cmp	r2, #128	; 0x80
     f4c:	d069      	beq.n	1022 <us_ticker_init+0x1ba>
     f4e:	494d      	ldr	r1, [pc, #308]	; (1084 <us_ticker_init+0x21c>)
     f50:	4378      	muls	r0, r7
     f52:	f000 f933 	bl	11bc <__aeabi_uidiv>
     f56:	1c07      	adds	r7, r0, #0
     f58:	e032      	b.n	fc0 <us_ticker_init+0x158>
     f5a:	4b49      	ldr	r3, [pc, #292]	; (1080 <us_ticker_init+0x218>)
     f5c:	2202      	movs	r2, #2
     f5e:	7819      	ldrb	r1, [r3, #0]
     f60:	200e      	movs	r0, #14
     f62:	430a      	orrs	r2, r1
     f64:	701a      	strb	r2, [r3, #0]
     f66:	7859      	ldrb	r1, [r3, #1]
     f68:	2201      	movs	r2, #1
     f6a:	430a      	orrs	r2, r1
     f6c:	705a      	strb	r2, [r3, #1]
     f6e:	4a42      	ldr	r2, [pc, #264]	; (1078 <us_ticker_init+0x210>)
     f70:	2100      	movs	r1, #0
     f72:	6051      	str	r1, [r2, #4]
     f74:	7a19      	ldrb	r1, [r3, #8]
     f76:	4001      	ands	r1, r0
     f78:	d010      	beq.n	f9c <us_ticker_init+0x134>
     f7a:	2902      	cmp	r1, #2
     f7c:	d102      	bne.n	f84 <us_ticker_init+0x11c>
     f7e:	6853      	ldr	r3, [r2, #4]
     f80:	6053      	str	r3, [r2, #4]
     f82:	e779      	b.n	e78 <us_ticker_init+0x10>
     f84:	7a19      	ldrb	r1, [r3, #8]
     f86:	4381      	bics	r1, r0
     f88:	7219      	strb	r1, [r3, #8]
     f8a:	7a18      	ldrb	r0, [r3, #8]
     f8c:	2104      	movs	r1, #4
     f8e:	4301      	orrs	r1, r0
     f90:	7219      	strb	r1, [r3, #8]
     f92:	6851      	ldr	r1, [r2, #4]
     f94:	2304      	movs	r3, #4
     f96:	430b      	orrs	r3, r1
     f98:	6053      	str	r3, [r2, #4]
     f9a:	e76d      	b.n	e78 <us_ticker_init+0x10>
     f9c:	6851      	ldr	r1, [r2, #4]
     f9e:	2308      	movs	r3, #8
     fa0:	430b      	orrs	r3, r1
     fa2:	6053      	str	r3, [r2, #4]
     fa4:	e768      	b.n	e78 <us_ticker_init+0x10>
     fa6:	791c      	ldrb	r4, [r3, #4]
     fa8:	221f      	movs	r2, #31
     faa:	7959      	ldrb	r1, [r3, #5]
     fac:	1c13      	adds	r3, r2, #0
     fae:	4023      	ands	r3, r4
     fb0:	400a      	ands	r2, r1
     fb2:	3301      	adds	r3, #1
     fb4:	1c11      	adds	r1, r2, #0
     fb6:	4358      	muls	r0, r3
     fb8:	3118      	adds	r1, #24
     fba:	f000 f8ff 	bl	11bc <__aeabi_uidiv>
     fbe:	1c07      	adds	r7, r0, #0
     fc0:	2f00      	cmp	r7, #0
     fc2:	d0ca      	beq.n	f5a <us_ticker_init+0xf2>
     fc4:	1c38      	adds	r0, r7, #0
     fc6:	4929      	ldr	r1, [pc, #164]	; (106c <us_ticker_init+0x204>)
     fc8:	f000 f93c 	bl	1244 <__aeabi_uidivmod>
     fcc:	2900      	cmp	r1, #0
     fce:	d1c4      	bne.n	f5a <us_ticker_init+0xf2>
     fd0:	1c38      	adds	r0, r7, #0
     fd2:	4926      	ldr	r1, [pc, #152]	; (106c <us_ticker_init+0x204>)
     fd4:	f000 f8f2 	bl	11bc <__aeabi_uidiv>
     fd8:	2801      	cmp	r0, #1
     fda:	d025      	beq.n	1028 <us_ticker_init+0x1c0>
     fdc:	0840      	lsrs	r0, r0, #1
     fde:	2801      	cmp	r0, #1
     fe0:	d034      	beq.n	104c <us_ticker_init+0x1e4>
     fe2:	07c2      	lsls	r2, r0, #31
     fe4:	d4b9      	bmi.n	f5a <us_ticker_init+0xf2>
     fe6:	2300      	movs	r3, #0
     fe8:	2201      	movs	r2, #1
     fea:	e001      	b.n	ff0 <us_ticker_init+0x188>
     fec:	4202      	tst	r2, r0
     fee:	d1b4      	bne.n	f5a <us_ticker_init+0xf2>
     ff0:	3301      	adds	r3, #1
     ff2:	0840      	lsrs	r0, r0, #1
     ff4:	2801      	cmp	r0, #1
     ff6:	d1f9      	bne.n	fec <us_ticker_init+0x184>
     ff8:	2278      	movs	r2, #120	; 0x78
     ffa:	00db      	lsls	r3, r3, #3
     ffc:	4013      	ands	r3, r2
     ffe:	2203      	movs	r2, #3
    1000:	4313      	orrs	r3, r2
    1002:	4a1d      	ldr	r2, [pc, #116]	; (1078 <us_ticker_init+0x210>)
    1004:	6053      	str	r3, [r2, #4]
    1006:	e737      	b.n	e78 <us_ticker_init+0x10>
    1008:	1c07      	adds	r7, r0, #0
    100a:	e7d9      	b.n	fc0 <us_ticker_init+0x158>
    100c:	017f      	lsls	r7, r7, #5
    100e:	e791      	b.n	f34 <us_ticker_init+0xcc>
    1010:	2a20      	cmp	r2, #32
    1012:	d018      	beq.n	1046 <us_ticker_init+0x1de>
    1014:	2a40      	cmp	r2, #64	; 0x40
    1016:	d013      	beq.n	1040 <us_ticker_init+0x1d8>
    1018:	2a00      	cmp	r2, #0
    101a:	d198      	bne.n	f4e <us_ticker_init+0xe6>
    101c:	21a0      	movs	r1, #160	; 0xa0
    101e:	0089      	lsls	r1, r1, #2
    1020:	e796      	b.n	f50 <us_ticker_init+0xe8>
    1022:	21b7      	movs	r1, #183	; 0xb7
    1024:	0089      	lsls	r1, r1, #2
    1026:	e793      	b.n	f50 <us_ticker_init+0xe8>
    1028:	4b13      	ldr	r3, [pc, #76]	; (1078 <us_ticker_init+0x210>)
    102a:	2207      	movs	r2, #7
    102c:	605a      	str	r2, [r3, #4]
    102e:	e723      	b.n	e78 <us_ticker_init+0x10>
    1030:	4915      	ldr	r1, [pc, #84]	; (1088 <us_ticker_init+0x220>)
    1032:	e78d      	b.n	f50 <us_ticker_init+0xe8>
    1034:	21b7      	movs	r1, #183	; 0xb7
    1036:	00c9      	lsls	r1, r1, #3
    1038:	e78a      	b.n	f50 <us_ticker_init+0xe8>
    103a:	21a0      	movs	r1, #160	; 0xa0
    103c:	0109      	lsls	r1, r1, #4
    103e:	e787      	b.n	f50 <us_ticker_init+0xe8>
    1040:	21f0      	movs	r1, #240	; 0xf0
    1042:	00c9      	lsls	r1, r1, #3
    1044:	e784      	b.n	f50 <us_ticker_init+0xe8>
    1046:	21a0      	movs	r1, #160	; 0xa0
    1048:	00c9      	lsls	r1, r1, #3
    104a:	e781      	b.n	f50 <us_ticker_init+0xe8>
    104c:	2303      	movs	r3, #3
    104e:	e7d8      	b.n	1002 <us_ticker_init+0x19a>
    1050:	1ffff260 	.word	0x1ffff260
    1054:	40047000 	.word	0x40047000
    1058:	0000103c 	.word	0x0000103c
    105c:	40037000 	.word	0x40037000
    1060:	00001044 	.word	0x00001044
    1064:	1ffff0c8 	.word	0x1ffff0c8
    1068:	0007a120 	.word	0x0007a120
    106c:	000f4240 	.word	0x000f4240
    1070:	00001038 	.word	0x00001038
    1074:	00000e01 	.word	0x00000e01
    1078:	40040000 	.word	0x40040000
    107c:	e000e100 	.word	0xe000e100
    1080:	40064000 	.word	0x40064000
    1084:	00000b71 	.word	0x00000b71
    1088:	00000895 	.word	0x00000895

0000108c <us_ticker_read>:
    108c:	b508      	push	{r3, lr}
    108e:	4b06      	ldr	r3, [pc, #24]	; (10a8 <us_ticker_read+0x1c>)
    1090:	681b      	ldr	r3, [r3, #0]
    1092:	2b00      	cmp	r3, #0
    1094:	d101      	bne.n	109a <us_ticker_read+0xe>
    1096:	f7ff fee7 	bl	e68 <us_ticker_init>
    109a:	238a      	movs	r3, #138	; 0x8a
    109c:	4a03      	ldr	r2, [pc, #12]	; (10ac <us_ticker_read+0x20>)
    109e:	005b      	lsls	r3, r3, #1
    10a0:	58d0      	ldr	r0, [r2, r3]
    10a2:	43c0      	mvns	r0, r0
    10a4:	bd08      	pop	{r3, pc}
    10a6:	46c0      	nop			; (mov r8, r8)
    10a8:	1ffff260 	.word	0x1ffff260
    10ac:	40037000 	.word	0x40037000

000010b0 <us_ticker_disable_interrupt>:
    10b0:	4b02      	ldr	r3, [pc, #8]	; (10bc <us_ticker_disable_interrupt+0xc>)
    10b2:	2140      	movs	r1, #64	; 0x40
    10b4:	681a      	ldr	r2, [r3, #0]
    10b6:	438a      	bics	r2, r1
    10b8:	601a      	str	r2, [r3, #0]
    10ba:	4770      	bx	lr
    10bc:	40040000 	.word	0x40040000

000010c0 <us_ticker_clear_interrupt>:
    10c0:	4770      	bx	lr
    10c2:	46c0      	nop			; (mov r8, r8)

000010c4 <us_ticker_set_interrupt>:
    10c4:	4b1b      	ldr	r3, [pc, #108]	; (1134 <us_ticker_set_interrupt+0x70>)
    10c6:	b510      	push	{r4, lr}
    10c8:	681b      	ldr	r3, [r3, #0]
    10ca:	1c04      	adds	r4, r0, #0
    10cc:	2b00      	cmp	r3, #0
    10ce:	d02b      	beq.n	1128 <us_ticker_set_interrupt+0x64>
    10d0:	238a      	movs	r3, #138	; 0x8a
    10d2:	4a19      	ldr	r2, [pc, #100]	; (1138 <us_ticker_set_interrupt+0x74>)
    10d4:	005b      	lsls	r3, r3, #1
    10d6:	58d0      	ldr	r0, [r2, r3]
    10d8:	43c0      	mvns	r0, r0
    10da:	1a20      	subs	r0, r4, r0
    10dc:	2800      	cmp	r0, #0
    10de:	dd26      	ble.n	112e <us_ticker_set_interrupt+0x6a>
    10e0:	4c16      	ldr	r4, [pc, #88]	; (113c <us_ticker_set_interrupt+0x78>)
    10e2:	4917      	ldr	r1, [pc, #92]	; (1140 <us_ticker_set_interrupt+0x7c>)
    10e4:	1403      	asrs	r3, r0, #16
    10e6:	6023      	str	r3, [r4, #0]
    10e8:	8008      	strh	r0, [r1, #0]
    10ea:	4a16      	ldr	r2, [pc, #88]	; (1144 <us_ticker_set_interrupt+0x80>)
    10ec:	d10d      	bne.n	110a <us_ticker_set_interrupt+0x46>
    10ee:	0400      	lsls	r0, r0, #16
    10f0:	0c00      	lsrs	r0, r0, #16
    10f2:	6013      	str	r3, [r2, #0]
    10f4:	6090      	str	r0, [r2, #8]
    10f6:	6814      	ldr	r4, [r2, #0]
    10f8:	2040      	movs	r0, #64	; 0x40
    10fa:	4320      	orrs	r0, r4
    10fc:	6010      	str	r0, [r2, #0]
    10fe:	6814      	ldr	r4, [r2, #0]
    1100:	2001      	movs	r0, #1
    1102:	4320      	orrs	r0, r4
    1104:	6010      	str	r0, [r2, #0]
    1106:	800b      	strh	r3, [r1, #0]
    1108:	bd10      	pop	{r4, pc}
    110a:	2100      	movs	r1, #0
    110c:	6011      	str	r1, [r2, #0]
    110e:	490e      	ldr	r1, [pc, #56]	; (1148 <us_ticker_set_interrupt+0x84>)
    1110:	3b01      	subs	r3, #1
    1112:	6091      	str	r1, [r2, #8]
    1114:	6810      	ldr	r0, [r2, #0]
    1116:	2140      	movs	r1, #64	; 0x40
    1118:	4301      	orrs	r1, r0
    111a:	6011      	str	r1, [r2, #0]
    111c:	6810      	ldr	r0, [r2, #0]
    111e:	2101      	movs	r1, #1
    1120:	4301      	orrs	r1, r0
    1122:	6011      	str	r1, [r2, #0]
    1124:	6023      	str	r3, [r4, #0]
    1126:	e7ef      	b.n	1108 <us_ticker_set_interrupt+0x44>
    1128:	f7ff fe9e 	bl	e68 <us_ticker_init>
    112c:	e7d0      	b.n	10d0 <us_ticker_set_interrupt+0xc>
    112e:	f000 f80d 	bl	114c <us_ticker_irq_handler>
    1132:	e7e9      	b.n	1108 <us_ticker_set_interrupt+0x44>
    1134:	1ffff260 	.word	0x1ffff260
    1138:	40037000 	.word	0x40037000
    113c:	1ffff25c 	.word	0x1ffff25c
    1140:	1ffff264 	.word	0x1ffff264
    1144:	40040000 	.word	0x40040000
    1148:	0000ffff 	.word	0x0000ffff

0000114c <us_ticker_irq_handler>:
    114c:	b5f8      	push	{r3, r4, r5, r6, r7, lr}
    114e:	464f      	mov	r7, r9
    1150:	4646      	mov	r6, r8
    1152:	b4c0      	push	{r6, r7}
    1154:	f7ff ffb4 	bl	10c0 <us_ticker_clear_interrupt>
    1158:	4816      	ldr	r0, [pc, #88]	; (11b4 <us_ticker_irq_handler+0x68>)
    115a:	4a17      	ldr	r2, [pc, #92]	; (11b8 <us_ticker_irq_handler+0x6c>)
    115c:	4680      	mov	r8, r0
    115e:	4691      	mov	r9, r2
    1160:	4640      	mov	r0, r8
    1162:	6803      	ldr	r3, [r0, #0]
    1164:	e012      	b.n	118c <us_ticker_irq_handler+0x40>
    1166:	681c      	ldr	r4, [r3, #0]
    1168:	685d      	ldr	r5, [r3, #4]
    116a:	f7ff ff8f 	bl	108c <us_ticker_read>
    116e:	2700      	movs	r7, #0
    1170:	1c06      	adds	r6, r0, #0
    1172:	1ba4      	subs	r4, r4, r6
    1174:	41bd      	sbcs	r5, r7
    1176:	2d00      	cmp	r5, #0
    1178:	dc12      	bgt.n	11a0 <us_ticker_irq_handler+0x54>
    117a:	d00f      	beq.n	119c <us_ticker_irq_handler+0x50>
    117c:	4642      	mov	r2, r8
    117e:	6811      	ldr	r1, [r2, #0]
    1180:	4648      	mov	r0, r9
    1182:	68cb      	ldr	r3, [r1, #12]
    1184:	6013      	str	r3, [r2, #0]
    1186:	6802      	ldr	r2, [r0, #0]
    1188:	2a00      	cmp	r2, #0
    118a:	d110      	bne.n	11ae <us_ticker_irq_handler+0x62>
    118c:	2b00      	cmp	r3, #0
    118e:	d1ea      	bne.n	1166 <us_ticker_irq_handler+0x1a>
    1190:	f7ff ff8e 	bl	10b0 <us_ticker_disable_interrupt>
    1194:	bc0c      	pop	{r2, r3}
    1196:	4690      	mov	r8, r2
    1198:	4699      	mov	r9, r3
    119a:	bdf8      	pop	{r3, r4, r5, r6, r7, pc}
    119c:	2c00      	cmp	r4, #0
    119e:	d0ed      	beq.n	117c <us_ticker_irq_handler+0x30>
    11a0:	4642      	mov	r2, r8
    11a2:	6813      	ldr	r3, [r2, #0]
    11a4:	6818      	ldr	r0, [r3, #0]
    11a6:	6859      	ldr	r1, [r3, #4]
    11a8:	f7ff ff8c 	bl	10c4 <us_ticker_set_interrupt>
    11ac:	e7f2      	b.n	1194 <us_ticker_irq_handler+0x48>
    11ae:	6888      	ldr	r0, [r1, #8]
    11b0:	4790      	blx	r2
    11b2:	e7d5      	b.n	1160 <us_ticker_irq_handler+0x14>
    11b4:	1ffff268 	.word	0x1ffff268
    11b8:	1ffff26c 	.word	0x1ffff26c

000011bc <__aeabi_uidiv>:
    11bc:	2900      	cmp	r1, #0
    11be:	d034      	beq.n	122a <.udivsi3_skip_div0_test+0x6a>

000011c0 <.udivsi3_skip_div0_test>:
    11c0:	2301      	movs	r3, #1
    11c2:	2200      	movs	r2, #0
    11c4:	b410      	push	{r4}
    11c6:	4288      	cmp	r0, r1
    11c8:	d32c      	bcc.n	1224 <.udivsi3_skip_div0_test+0x64>
    11ca:	2401      	movs	r4, #1
    11cc:	0724      	lsls	r4, r4, #28
    11ce:	42a1      	cmp	r1, r4
    11d0:	d204      	bcs.n	11dc <.udivsi3_skip_div0_test+0x1c>
    11d2:	4281      	cmp	r1, r0
    11d4:	d202      	bcs.n	11dc <.udivsi3_skip_div0_test+0x1c>
    11d6:	0109      	lsls	r1, r1, #4
    11d8:	011b      	lsls	r3, r3, #4
    11da:	e7f8      	b.n	11ce <.udivsi3_skip_div0_test+0xe>
    11dc:	00e4      	lsls	r4, r4, #3
    11de:	42a1      	cmp	r1, r4
    11e0:	d204      	bcs.n	11ec <.udivsi3_skip_div0_test+0x2c>
    11e2:	4281      	cmp	r1, r0
    11e4:	d202      	bcs.n	11ec <.udivsi3_skip_div0_test+0x2c>
    11e6:	0049      	lsls	r1, r1, #1
    11e8:	005b      	lsls	r3, r3, #1
    11ea:	e7f8      	b.n	11de <.udivsi3_skip_div0_test+0x1e>
    11ec:	4288      	cmp	r0, r1
    11ee:	d301      	bcc.n	11f4 <.udivsi3_skip_div0_test+0x34>
    11f0:	1a40      	subs	r0, r0, r1
    11f2:	431a      	orrs	r2, r3
    11f4:	084c      	lsrs	r4, r1, #1
    11f6:	42a0      	cmp	r0, r4
    11f8:	d302      	bcc.n	1200 <.udivsi3_skip_div0_test+0x40>
    11fa:	1b00      	subs	r0, r0, r4
    11fc:	085c      	lsrs	r4, r3, #1
    11fe:	4322      	orrs	r2, r4
    1200:	088c      	lsrs	r4, r1, #2
    1202:	42a0      	cmp	r0, r4
    1204:	d302      	bcc.n	120c <.udivsi3_skip_div0_test+0x4c>
    1206:	1b00      	subs	r0, r0, r4
    1208:	089c      	lsrs	r4, r3, #2
    120a:	4322      	orrs	r2, r4
    120c:	08cc      	lsrs	r4, r1, #3
    120e:	42a0      	cmp	r0, r4
    1210:	d302      	bcc.n	1218 <.udivsi3_skip_div0_test+0x58>
    1212:	1b00      	subs	r0, r0, r4
    1214:	08dc      	lsrs	r4, r3, #3
    1216:	4322      	orrs	r2, r4
    1218:	2800      	cmp	r0, #0
    121a:	d003      	beq.n	1224 <.udivsi3_skip_div0_test+0x64>
    121c:	091b      	lsrs	r3, r3, #4
    121e:	d001      	beq.n	1224 <.udivsi3_skip_div0_test+0x64>
    1220:	0909      	lsrs	r1, r1, #4
    1222:	e7e3      	b.n	11ec <.udivsi3_skip_div0_test+0x2c>
    1224:	1c10      	adds	r0, r2, #0
    1226:	bc10      	pop	{r4}
    1228:	4770      	bx	lr
    122a:	2800      	cmp	r0, #0
    122c:	d001      	beq.n	1232 <.udivsi3_skip_div0_test+0x72>
    122e:	2000      	movs	r0, #0
    1230:	43c0      	mvns	r0, r0
    1232:	b407      	push	{r0, r1, r2}
    1234:	4802      	ldr	r0, [pc, #8]	; (1240 <.udivsi3_skip_div0_test+0x80>)
    1236:	a102      	add	r1, pc, #8	; (adr r1, 1240 <.udivsi3_skip_div0_test+0x80>)
    1238:	1840      	adds	r0, r0, r1
    123a:	9002      	str	r0, [sp, #8]
    123c:	bd03      	pop	{r0, r1, pc}
    123e:	46c0      	nop			; (mov r8, r8)
    1240:	00000019 	.word	0x00000019

00001244 <__aeabi_uidivmod>:
    1244:	2900      	cmp	r1, #0
    1246:	d0f0      	beq.n	122a <.udivsi3_skip_div0_test+0x6a>
    1248:	b503      	push	{r0, r1, lr}
    124a:	f7ff ffb9 	bl	11c0 <.udivsi3_skip_div0_test>
    124e:	bc0e      	pop	{r1, r2, r3}
    1250:	4342      	muls	r2, r0
    1252:	1a89      	subs	r1, r1, r2
    1254:	4718      	bx	r3
    1256:	46c0      	nop			; (mov r8, r8)

00001258 <__aeabi_idiv0>:
    1258:	4770      	bx	lr
    125a:	46c0      	nop			; (mov r8, r8)

0000125c <__errno>:
    125c:	4b01      	ldr	r3, [pc, #4]	; (1264 <__errno+0x8>)
    125e:	6818      	ldr	r0, [r3, #0]
    1260:	4770      	bx	lr
    1262:	46c0      	nop			; (mov r8, r8)
    1264:	1ffff12c 	.word	0x1ffff12c

00001268 <__sflush_r>:
    1268:	b5f7      	push	{r0, r1, r2, r4, r5, r6, r7, lr}
    126a:	898b      	ldrh	r3, [r1, #12]
    126c:	1c05      	adds	r5, r0, #0
    126e:	1c0c      	adds	r4, r1, #0
    1270:	0719      	lsls	r1, r3, #28
    1272:	d45e      	bmi.n	1332 <__sflush_r+0xca>
    1274:	6862      	ldr	r2, [r4, #4]
    1276:	2a00      	cmp	r2, #0
    1278:	dc02      	bgt.n	1280 <__sflush_r+0x18>
    127a:	6c27      	ldr	r7, [r4, #64]	; 0x40
    127c:	2f00      	cmp	r7, #0
    127e:	dd1a      	ble.n	12b6 <__sflush_r+0x4e>
    1280:	6ae7      	ldr	r7, [r4, #44]	; 0x2c
    1282:	2f00      	cmp	r7, #0
    1284:	d017      	beq.n	12b6 <__sflush_r+0x4e>
    1286:	2200      	movs	r2, #0
    1288:	682e      	ldr	r6, [r5, #0]
    128a:	602a      	str	r2, [r5, #0]
    128c:	2280      	movs	r2, #128	; 0x80
    128e:	0152      	lsls	r2, r2, #5
    1290:	401a      	ands	r2, r3
    1292:	d001      	beq.n	1298 <__sflush_r+0x30>
    1294:	6d62      	ldr	r2, [r4, #84]	; 0x54
    1296:	e015      	b.n	12c4 <__sflush_r+0x5c>
    1298:	1c28      	adds	r0, r5, #0
    129a:	6a21      	ldr	r1, [r4, #32]
    129c:	2301      	movs	r3, #1
    129e:	47b8      	blx	r7
    12a0:	1c02      	adds	r2, r0, #0
    12a2:	1c41      	adds	r1, r0, #1
    12a4:	d10e      	bne.n	12c4 <__sflush_r+0x5c>
    12a6:	682b      	ldr	r3, [r5, #0]
    12a8:	2b00      	cmp	r3, #0
    12aa:	d00b      	beq.n	12c4 <__sflush_r+0x5c>
    12ac:	2b1d      	cmp	r3, #29
    12ae:	d001      	beq.n	12b4 <__sflush_r+0x4c>
    12b0:	2b16      	cmp	r3, #22
    12b2:	d102      	bne.n	12ba <__sflush_r+0x52>
    12b4:	602e      	str	r6, [r5, #0]
    12b6:	2000      	movs	r0, #0
    12b8:	e05e      	b.n	1378 <__sflush_r+0x110>
    12ba:	89a3      	ldrh	r3, [r4, #12]
    12bc:	2140      	movs	r1, #64	; 0x40
    12be:	430b      	orrs	r3, r1
    12c0:	81a3      	strh	r3, [r4, #12]
    12c2:	e059      	b.n	1378 <__sflush_r+0x110>
    12c4:	89a3      	ldrh	r3, [r4, #12]
    12c6:	075f      	lsls	r7, r3, #29
    12c8:	d506      	bpl.n	12d8 <__sflush_r+0x70>
    12ca:	6861      	ldr	r1, [r4, #4]
    12cc:	6b63      	ldr	r3, [r4, #52]	; 0x34
    12ce:	1a52      	subs	r2, r2, r1
    12d0:	2b00      	cmp	r3, #0
    12d2:	d001      	beq.n	12d8 <__sflush_r+0x70>
    12d4:	6c27      	ldr	r7, [r4, #64]	; 0x40
    12d6:	1bd2      	subs	r2, r2, r7
    12d8:	1c28      	adds	r0, r5, #0
    12da:	6a21      	ldr	r1, [r4, #32]
    12dc:	2300      	movs	r3, #0
    12de:	6ae7      	ldr	r7, [r4, #44]	; 0x2c
    12e0:	47b8      	blx	r7
    12e2:	89a2      	ldrh	r2, [r4, #12]
    12e4:	1c41      	adds	r1, r0, #1
    12e6:	d106      	bne.n	12f6 <__sflush_r+0x8e>
    12e8:	682b      	ldr	r3, [r5, #0]
    12ea:	2b00      	cmp	r3, #0
    12ec:	d003      	beq.n	12f6 <__sflush_r+0x8e>
    12ee:	2b1d      	cmp	r3, #29
    12f0:	d001      	beq.n	12f6 <__sflush_r+0x8e>
    12f2:	2b16      	cmp	r3, #22
    12f4:	d119      	bne.n	132a <__sflush_r+0xc2>
    12f6:	2300      	movs	r3, #0
    12f8:	6063      	str	r3, [r4, #4]
    12fa:	6923      	ldr	r3, [r4, #16]
    12fc:	6023      	str	r3, [r4, #0]
    12fe:	04d7      	lsls	r7, r2, #19
    1300:	d505      	bpl.n	130e <__sflush_r+0xa6>
    1302:	1c41      	adds	r1, r0, #1
    1304:	d102      	bne.n	130c <__sflush_r+0xa4>
    1306:	682a      	ldr	r2, [r5, #0]
    1308:	2a00      	cmp	r2, #0
    130a:	d100      	bne.n	130e <__sflush_r+0xa6>
    130c:	6560      	str	r0, [r4, #84]	; 0x54
    130e:	6b61      	ldr	r1, [r4, #52]	; 0x34
    1310:	602e      	str	r6, [r5, #0]
    1312:	2900      	cmp	r1, #0
    1314:	d0cf      	beq.n	12b6 <__sflush_r+0x4e>
    1316:	1c23      	adds	r3, r4, #0
    1318:	3344      	adds	r3, #68	; 0x44
    131a:	4299      	cmp	r1, r3
    131c:	d002      	beq.n	1324 <__sflush_r+0xbc>
    131e:	1c28      	adds	r0, r5, #0
    1320:	f000 fa26 	bl	1770 <_free_r>
    1324:	2000      	movs	r0, #0
    1326:	6360      	str	r0, [r4, #52]	; 0x34
    1328:	e026      	b.n	1378 <__sflush_r+0x110>
    132a:	2340      	movs	r3, #64	; 0x40
    132c:	431a      	orrs	r2, r3
    132e:	81a2      	strh	r2, [r4, #12]
    1330:	e022      	b.n	1378 <__sflush_r+0x110>
    1332:	6926      	ldr	r6, [r4, #16]
    1334:	2e00      	cmp	r6, #0
    1336:	d0be      	beq.n	12b6 <__sflush_r+0x4e>
    1338:	6827      	ldr	r7, [r4, #0]
    133a:	2200      	movs	r2, #0
    133c:	1bbf      	subs	r7, r7, r6
    133e:	9701      	str	r7, [sp, #4]
    1340:	6026      	str	r6, [r4, #0]
    1342:	0799      	lsls	r1, r3, #30
    1344:	d100      	bne.n	1348 <__sflush_r+0xe0>
    1346:	6962      	ldr	r2, [r4, #20]
    1348:	60a2      	str	r2, [r4, #8]
    134a:	9f01      	ldr	r7, [sp, #4]
    134c:	2f00      	cmp	r7, #0
    134e:	ddb2      	ble.n	12b6 <__sflush_r+0x4e>
    1350:	1c28      	adds	r0, r5, #0
    1352:	6a21      	ldr	r1, [r4, #32]
    1354:	1c32      	adds	r2, r6, #0
    1356:	9b01      	ldr	r3, [sp, #4]
    1358:	6aa7      	ldr	r7, [r4, #40]	; 0x28
    135a:	47b8      	blx	r7
    135c:	2800      	cmp	r0, #0
    135e:	dc06      	bgt.n	136e <__sflush_r+0x106>
    1360:	89a3      	ldrh	r3, [r4, #12]
    1362:	2240      	movs	r2, #64	; 0x40
    1364:	4313      	orrs	r3, r2
    1366:	2001      	movs	r0, #1
    1368:	81a3      	strh	r3, [r4, #12]
    136a:	4240      	negs	r0, r0
    136c:	e004      	b.n	1378 <__sflush_r+0x110>
    136e:	9f01      	ldr	r7, [sp, #4]
    1370:	1836      	adds	r6, r6, r0
    1372:	1a3f      	subs	r7, r7, r0
    1374:	9701      	str	r7, [sp, #4]
    1376:	e7e8      	b.n	134a <__sflush_r+0xe2>
    1378:	bdfe      	pop	{r1, r2, r3, r4, r5, r6, r7, pc}
	...

0000137c <_fflush_r>:
    137c:	690a      	ldr	r2, [r1, #16]
    137e:	b538      	push	{r3, r4, r5, lr}
    1380:	1c05      	adds	r5, r0, #0
    1382:	1c0c      	adds	r4, r1, #0
    1384:	2a00      	cmp	r2, #0
    1386:	d101      	bne.n	138c <_fflush_r+0x10>
    1388:	2000      	movs	r0, #0
    138a:	e01c      	b.n	13c6 <_fflush_r+0x4a>
    138c:	2800      	cmp	r0, #0
    138e:	d004      	beq.n	139a <_fflush_r+0x1e>
    1390:	6983      	ldr	r3, [r0, #24]
    1392:	2b00      	cmp	r3, #0
    1394:	d101      	bne.n	139a <_fflush_r+0x1e>
    1396:	f000 f885 	bl	14a4 <__sinit>
    139a:	4b0b      	ldr	r3, [pc, #44]	; (13c8 <_fflush_r+0x4c>)
    139c:	429c      	cmp	r4, r3
    139e:	d101      	bne.n	13a4 <_fflush_r+0x28>
    13a0:	686c      	ldr	r4, [r5, #4]
    13a2:	e008      	b.n	13b6 <_fflush_r+0x3a>
    13a4:	4b09      	ldr	r3, [pc, #36]	; (13cc <_fflush_r+0x50>)
    13a6:	429c      	cmp	r4, r3
    13a8:	d101      	bne.n	13ae <_fflush_r+0x32>
    13aa:	68ac      	ldr	r4, [r5, #8]
    13ac:	e003      	b.n	13b6 <_fflush_r+0x3a>
    13ae:	4b08      	ldr	r3, [pc, #32]	; (13d0 <_fflush_r+0x54>)
    13b0:	429c      	cmp	r4, r3
    13b2:	d100      	bne.n	13b6 <_fflush_r+0x3a>
    13b4:	68ec      	ldr	r4, [r5, #12]
    13b6:	220c      	movs	r2, #12
    13b8:	5ea3      	ldrsh	r3, [r4, r2]
    13ba:	2b00      	cmp	r3, #0
    13bc:	d0e4      	beq.n	1388 <_fflush_r+0xc>
    13be:	1c28      	adds	r0, r5, #0
    13c0:	1c21      	adds	r1, r4, #0
    13c2:	f7ff ff51 	bl	1268 <__sflush_r>
    13c6:	bd38      	pop	{r3, r4, r5, pc}
    13c8:	000030f4 	.word	0x000030f4
    13cc:	00003114 	.word	0x00003114
    13d0:	00003134 	.word	0x00003134

000013d4 <fflush>:
    13d4:	b508      	push	{r3, lr}
    13d6:	1e01      	subs	r1, r0, #0
    13d8:	d105      	bne.n	13e6 <fflush+0x12>
    13da:	4b05      	ldr	r3, [pc, #20]	; (13f0 <fflush+0x1c>)
    13dc:	4905      	ldr	r1, [pc, #20]	; (13f4 <fflush+0x20>)
    13de:	6818      	ldr	r0, [r3, #0]
    13e0:	f000 f8fe 	bl	15e0 <_fwalk_reent>
    13e4:	e003      	b.n	13ee <fflush+0x1a>
    13e6:	4b04      	ldr	r3, [pc, #16]	; (13f8 <fflush+0x24>)
    13e8:	6818      	ldr	r0, [r3, #0]
    13ea:	f7ff ffc7 	bl	137c <_fflush_r>
    13ee:	bd08      	pop	{r3, pc}
    13f0:	00003158 	.word	0x00003158
    13f4:	0000137d 	.word	0x0000137d
    13f8:	1ffff12c 	.word	0x1ffff12c

000013fc <_cleanup_r>:
    13fc:	b5f8      	push	{r3, r4, r5, r6, r7, lr}
    13fe:	1c04      	adds	r4, r0, #0
    1400:	1c07      	adds	r7, r0, #0
    1402:	3448      	adds	r4, #72	; 0x48
    1404:	2c00      	cmp	r4, #0
    1406:	d012      	beq.n	142e <_cleanup_r+0x32>
    1408:	68a5      	ldr	r5, [r4, #8]
    140a:	6866      	ldr	r6, [r4, #4]
    140c:	3e01      	subs	r6, #1
    140e:	d40c      	bmi.n	142a <_cleanup_r+0x2e>
    1410:	89ab      	ldrh	r3, [r5, #12]
    1412:	2b01      	cmp	r3, #1
    1414:	d907      	bls.n	1426 <_cleanup_r+0x2a>
    1416:	220e      	movs	r2, #14
    1418:	5eab      	ldrsh	r3, [r5, r2]
    141a:	3301      	adds	r3, #1
    141c:	d003      	beq.n	1426 <_cleanup_r+0x2a>
    141e:	1c38      	adds	r0, r7, #0
    1420:	1c29      	adds	r1, r5, #0
    1422:	f7ff ffab 	bl	137c <_fflush_r>
    1426:	3568      	adds	r5, #104	; 0x68
    1428:	e7f0      	b.n	140c <_cleanup_r+0x10>
    142a:	6824      	ldr	r4, [r4, #0]
    142c:	e7ea      	b.n	1404 <_cleanup_r+0x8>
    142e:	bdf8      	pop	{r3, r4, r5, r6, r7, pc}

00001430 <std.isra.0>:
    1430:	2300      	movs	r3, #0
    1432:	b510      	push	{r4, lr}
    1434:	1c04      	adds	r4, r0, #0
    1436:	6003      	str	r3, [r0, #0]
    1438:	6043      	str	r3, [r0, #4]
    143a:	6083      	str	r3, [r0, #8]
    143c:	8181      	strh	r1, [r0, #12]
    143e:	6643      	str	r3, [r0, #100]	; 0x64
    1440:	81c2      	strh	r2, [r0, #14]
    1442:	6103      	str	r3, [r0, #16]
    1444:	6143      	str	r3, [r0, #20]
    1446:	6183      	str	r3, [r0, #24]
    1448:	1c19      	adds	r1, r3, #0
    144a:	2208      	movs	r2, #8
    144c:	305c      	adds	r0, #92	; 0x5c
    144e:	f000 f986 	bl	175e <memset>
    1452:	4b05      	ldr	r3, [pc, #20]	; (1468 <std.isra.0+0x38>)
    1454:	6224      	str	r4, [r4, #32]
    1456:	6263      	str	r3, [r4, #36]	; 0x24
    1458:	4b04      	ldr	r3, [pc, #16]	; (146c <std.isra.0+0x3c>)
    145a:	62a3      	str	r3, [r4, #40]	; 0x28
    145c:	4b04      	ldr	r3, [pc, #16]	; (1470 <std.isra.0+0x40>)
    145e:	62e3      	str	r3, [r4, #44]	; 0x2c
    1460:	4b04      	ldr	r3, [pc, #16]	; (1474 <std.isra.0+0x44>)
    1462:	6323      	str	r3, [r4, #48]	; 0x30
    1464:	bd10      	pop	{r4, pc}
    1466:	46c0      	nop			; (mov r8, r8)
    1468:	00001a0d 	.word	0x00001a0d
    146c:	00001a35 	.word	0x00001a35
    1470:	00001a6d 	.word	0x00001a6d
    1474:	00001a99 	.word	0x00001a99

00001478 <__sfmoreglue>:
    1478:	b570      	push	{r4, r5, r6, lr}
    147a:	1e4b      	subs	r3, r1, #1
    147c:	2568      	movs	r5, #104	; 0x68
    147e:	435d      	muls	r5, r3
    1480:	1c0e      	adds	r6, r1, #0
    1482:	1c29      	adds	r1, r5, #0
    1484:	3174      	adds	r1, #116	; 0x74
    1486:	f000 f9bb 	bl	1800 <_malloc_r>
    148a:	1e04      	subs	r4, r0, #0
    148c:	d008      	beq.n	14a0 <__sfmoreglue+0x28>
    148e:	2100      	movs	r1, #0
    1490:	6001      	str	r1, [r0, #0]
    1492:	6046      	str	r6, [r0, #4]
    1494:	1c2a      	adds	r2, r5, #0
    1496:	300c      	adds	r0, #12
    1498:	60a0      	str	r0, [r4, #8]
    149a:	3268      	adds	r2, #104	; 0x68
    149c:	f000 f95f 	bl	175e <memset>
    14a0:	1c20      	adds	r0, r4, #0
    14a2:	bd70      	pop	{r4, r5, r6, pc}

000014a4 <__sinit>:
    14a4:	6983      	ldr	r3, [r0, #24]
    14a6:	b513      	push	{r0, r1, r4, lr}
    14a8:	1c04      	adds	r4, r0, #0
    14aa:	2b00      	cmp	r3, #0
    14ac:	d127      	bne.n	14fe <__sinit+0x5a>
    14ae:	6483      	str	r3, [r0, #72]	; 0x48
    14b0:	64c3      	str	r3, [r0, #76]	; 0x4c
    14b2:	6503      	str	r3, [r0, #80]	; 0x50
    14b4:	4b12      	ldr	r3, [pc, #72]	; (1500 <__sinit+0x5c>)
    14b6:	4a13      	ldr	r2, [pc, #76]	; (1504 <__sinit+0x60>)
    14b8:	681b      	ldr	r3, [r3, #0]
    14ba:	6282      	str	r2, [r0, #40]	; 0x28
    14bc:	4298      	cmp	r0, r3
    14be:	d101      	bne.n	14c4 <__sinit+0x20>
    14c0:	2301      	movs	r3, #1
    14c2:	6183      	str	r3, [r0, #24]
    14c4:	1c20      	adds	r0, r4, #0
    14c6:	f000 f81f 	bl	1508 <__sfp>
    14ca:	6060      	str	r0, [r4, #4]
    14cc:	1c20      	adds	r0, r4, #0
    14ce:	f000 f81b 	bl	1508 <__sfp>
    14d2:	60a0      	str	r0, [r4, #8]
    14d4:	1c20      	adds	r0, r4, #0
    14d6:	f000 f817 	bl	1508 <__sfp>
    14da:	2104      	movs	r1, #4
    14dc:	60e0      	str	r0, [r4, #12]
    14de:	2200      	movs	r2, #0
    14e0:	6860      	ldr	r0, [r4, #4]
    14e2:	f7ff ffa5 	bl	1430 <std.isra.0>
    14e6:	68a0      	ldr	r0, [r4, #8]
    14e8:	2109      	movs	r1, #9
    14ea:	2201      	movs	r2, #1
    14ec:	f7ff ffa0 	bl	1430 <std.isra.0>
    14f0:	68e0      	ldr	r0, [r4, #12]
    14f2:	2112      	movs	r1, #18
    14f4:	2202      	movs	r2, #2
    14f6:	f7ff ff9b 	bl	1430 <std.isra.0>
    14fa:	2301      	movs	r3, #1
    14fc:	61a3      	str	r3, [r4, #24]
    14fe:	bd13      	pop	{r0, r1, r4, pc}
    1500:	00003158 	.word	0x00003158
    1504:	000013fd 	.word	0x000013fd

00001508 <__sfp>:
    1508:	b5f8      	push	{r3, r4, r5, r6, r7, lr}
    150a:	4b1d      	ldr	r3, [pc, #116]	; (1580 <__sfp+0x78>)
    150c:	1c07      	adds	r7, r0, #0
    150e:	681e      	ldr	r6, [r3, #0]
    1510:	69b2      	ldr	r2, [r6, #24]
    1512:	2a00      	cmp	r2, #0
    1514:	d102      	bne.n	151c <__sfp+0x14>
    1516:	1c30      	adds	r0, r6, #0
    1518:	f7ff ffc4 	bl	14a4 <__sinit>
    151c:	3648      	adds	r6, #72	; 0x48
    151e:	68b4      	ldr	r4, [r6, #8]
    1520:	6873      	ldr	r3, [r6, #4]
    1522:	3b01      	subs	r3, #1
    1524:	d405      	bmi.n	1532 <__sfp+0x2a>
    1526:	220c      	movs	r2, #12
    1528:	5ea5      	ldrsh	r5, [r4, r2]
    152a:	2d00      	cmp	r5, #0
    152c:	d010      	beq.n	1550 <__sfp+0x48>
    152e:	3468      	adds	r4, #104	; 0x68
    1530:	e7f7      	b.n	1522 <__sfp+0x1a>
    1532:	6833      	ldr	r3, [r6, #0]
    1534:	2b00      	cmp	r3, #0
    1536:	d106      	bne.n	1546 <__sfp+0x3e>
    1538:	1c38      	adds	r0, r7, #0
    153a:	2104      	movs	r1, #4
    153c:	f7ff ff9c 	bl	1478 <__sfmoreglue>
    1540:	6030      	str	r0, [r6, #0]
    1542:	2800      	cmp	r0, #0
    1544:	d001      	beq.n	154a <__sfp+0x42>
    1546:	6836      	ldr	r6, [r6, #0]
    1548:	e7e9      	b.n	151e <__sfp+0x16>
    154a:	230c      	movs	r3, #12
    154c:	603b      	str	r3, [r7, #0]
    154e:	e016      	b.n	157e <__sfp+0x76>
    1550:	2301      	movs	r3, #1
    1552:	425b      	negs	r3, r3
    1554:	81e3      	strh	r3, [r4, #14]
    1556:	1c20      	adds	r0, r4, #0
    1558:	2301      	movs	r3, #1
    155a:	81a3      	strh	r3, [r4, #12]
    155c:	6665      	str	r5, [r4, #100]	; 0x64
    155e:	6025      	str	r5, [r4, #0]
    1560:	60a5      	str	r5, [r4, #8]
    1562:	6065      	str	r5, [r4, #4]
    1564:	6125      	str	r5, [r4, #16]
    1566:	6165      	str	r5, [r4, #20]
    1568:	61a5      	str	r5, [r4, #24]
    156a:	305c      	adds	r0, #92	; 0x5c
    156c:	1c29      	adds	r1, r5, #0
    156e:	2208      	movs	r2, #8
    1570:	f000 f8f5 	bl	175e <memset>
    1574:	6365      	str	r5, [r4, #52]	; 0x34
    1576:	63a5      	str	r5, [r4, #56]	; 0x38
    1578:	64a5      	str	r5, [r4, #72]	; 0x48
    157a:	64e5      	str	r5, [r4, #76]	; 0x4c
    157c:	1c20      	adds	r0, r4, #0
    157e:	bdf8      	pop	{r3, r4, r5, r6, r7, pc}
    1580:	00003158 	.word	0x00003158

00001584 <fiscanf>:
    1584:	b40e      	push	{r1, r2, r3}
    1586:	b503      	push	{r0, r1, lr}
    1588:	ab03      	add	r3, sp, #12
    158a:	cb04      	ldmia	r3!, {r2}
    158c:	4a05      	ldr	r2, [pc, #20]	; (15a4 <fiscanf+0x20>)
    158e:	1c01      	adds	r1, r0, #0
    1590:	6810      	ldr	r0, [r2, #0]
    1592:	9a03      	ldr	r2, [sp, #12]
    1594:	9301      	str	r3, [sp, #4]
    1596:	f000 ff5d 	bl	2454 <_vfiscanf_r>
    159a:	b002      	add	sp, #8
    159c:	bc08      	pop	{r3}
    159e:	b003      	add	sp, #12
    15a0:	4718      	bx	r3
    15a2:	46c0      	nop			; (mov r8, r8)
    15a4:	1ffff12c 	.word	0x1ffff12c

000015a8 <_fwalk>:
    15a8:	b5f7      	push	{r0, r1, r2, r4, r5, r6, r7, lr}
    15aa:	1c04      	adds	r4, r0, #0
    15ac:	9101      	str	r1, [sp, #4]
    15ae:	3448      	adds	r4, #72	; 0x48
    15b0:	2600      	movs	r6, #0
    15b2:	2c00      	cmp	r4, #0
    15b4:	d012      	beq.n	15dc <_fwalk+0x34>
    15b6:	68a5      	ldr	r5, [r4, #8]
    15b8:	6867      	ldr	r7, [r4, #4]
    15ba:	3f01      	subs	r7, #1
    15bc:	d40c      	bmi.n	15d8 <_fwalk+0x30>
    15be:	89ab      	ldrh	r3, [r5, #12]
    15c0:	2b01      	cmp	r3, #1
    15c2:	d907      	bls.n	15d4 <_fwalk+0x2c>
    15c4:	220e      	movs	r2, #14
    15c6:	5eab      	ldrsh	r3, [r5, r2]
    15c8:	3301      	adds	r3, #1
    15ca:	d003      	beq.n	15d4 <_fwalk+0x2c>
    15cc:	1c28      	adds	r0, r5, #0
    15ce:	9b01      	ldr	r3, [sp, #4]
    15d0:	4798      	blx	r3
    15d2:	4306      	orrs	r6, r0
    15d4:	3568      	adds	r5, #104	; 0x68
    15d6:	e7f0      	b.n	15ba <_fwalk+0x12>
    15d8:	6824      	ldr	r4, [r4, #0]
    15da:	e7ea      	b.n	15b2 <_fwalk+0xa>
    15dc:	1c30      	adds	r0, r6, #0
    15de:	bdfe      	pop	{r1, r2, r3, r4, r5, r6, r7, pc}

000015e0 <_fwalk_reent>:
    15e0:	b5f7      	push	{r0, r1, r2, r4, r5, r6, r7, lr}
    15e2:	1c04      	adds	r4, r0, #0
    15e4:	1c07      	adds	r7, r0, #0
    15e6:	9101      	str	r1, [sp, #4]
    15e8:	3448      	adds	r4, #72	; 0x48
    15ea:	2600      	movs	r6, #0
    15ec:	2c00      	cmp	r4, #0
    15ee:	d016      	beq.n	161e <_fwalk_reent+0x3e>
    15f0:	6862      	ldr	r2, [r4, #4]
    15f2:	68a5      	ldr	r5, [r4, #8]
    15f4:	9200      	str	r2, [sp, #0]
    15f6:	9a00      	ldr	r2, [sp, #0]
    15f8:	3a01      	subs	r2, #1
    15fa:	9200      	str	r2, [sp, #0]
    15fc:	d40d      	bmi.n	161a <_fwalk_reent+0x3a>
    15fe:	89ab      	ldrh	r3, [r5, #12]
    1600:	2b01      	cmp	r3, #1
    1602:	d908      	bls.n	1616 <_fwalk_reent+0x36>
    1604:	220e      	movs	r2, #14
    1606:	5eab      	ldrsh	r3, [r5, r2]
    1608:	3301      	adds	r3, #1
    160a:	d004      	beq.n	1616 <_fwalk_reent+0x36>
    160c:	1c38      	adds	r0, r7, #0
    160e:	1c29      	adds	r1, r5, #0
    1610:	9b01      	ldr	r3, [sp, #4]
    1612:	4798      	blx	r3
    1614:	4306      	orrs	r6, r0
    1616:	3568      	adds	r5, #104	; 0x68
    1618:	e7ed      	b.n	15f6 <_fwalk_reent+0x16>
    161a:	6824      	ldr	r4, [r4, #0]
    161c:	e7e6      	b.n	15ec <_fwalk_reent+0xc>
    161e:	1c30      	adds	r0, r6, #0
    1620:	bdfe      	pop	{r1, r2, r3, r4, r5, r6, r7, pc}
	...

00001624 <_fwrite_r>:
    1624:	b5f7      	push	{r0, r1, r2, r4, r5, r6, r7, lr}
    1626:	4353      	muls	r3, r2
    1628:	1c05      	adds	r5, r0, #0
    162a:	9101      	str	r1, [sp, #4]
    162c:	1c17      	adds	r7, r2, #0
    162e:	9c08      	ldr	r4, [sp, #32]
    1630:	9300      	str	r3, [sp, #0]
    1632:	2800      	cmp	r0, #0
    1634:	d004      	beq.n	1640 <_fwrite_r+0x1c>
    1636:	6982      	ldr	r2, [r0, #24]
    1638:	2a00      	cmp	r2, #0
    163a:	d101      	bne.n	1640 <_fwrite_r+0x1c>
    163c:	f7ff ff32 	bl	14a4 <__sinit>
    1640:	4b24      	ldr	r3, [pc, #144]	; (16d4 <_fwrite_r+0xb0>)
    1642:	429c      	cmp	r4, r3
    1644:	d101      	bne.n	164a <_fwrite_r+0x26>
    1646:	686c      	ldr	r4, [r5, #4]
    1648:	e008      	b.n	165c <_fwrite_r+0x38>
    164a:	4b23      	ldr	r3, [pc, #140]	; (16d8 <_fwrite_r+0xb4>)
    164c:	429c      	cmp	r4, r3
    164e:	d101      	bne.n	1654 <_fwrite_r+0x30>
    1650:	68ac      	ldr	r4, [r5, #8]
    1652:	e003      	b.n	165c <_fwrite_r+0x38>
    1654:	4b21      	ldr	r3, [pc, #132]	; (16dc <_fwrite_r+0xb8>)
    1656:	429c      	cmp	r4, r3
    1658:	d100      	bne.n	165c <_fwrite_r+0x38>
    165a:	68ec      	ldr	r4, [r5, #12]
    165c:	89a3      	ldrh	r3, [r4, #12]
    165e:	071a      	lsls	r2, r3, #28
    1660:	d504      	bpl.n	166c <_fwrite_r+0x48>
    1662:	6923      	ldr	r3, [r4, #16]
    1664:	2b00      	cmp	r3, #0
    1666:	d001      	beq.n	166c <_fwrite_r+0x48>
    1668:	2600      	movs	r6, #0
    166a:	e01c      	b.n	16a6 <_fwrite_r+0x82>
    166c:	1c28      	adds	r0, r5, #0
    166e:	1c21      	adds	r1, r4, #0
    1670:	f001 f8e6 	bl	2840 <__swsetup_r>
    1674:	2600      	movs	r6, #0
    1676:	42b0      	cmp	r0, r6
    1678:	d0f6      	beq.n	1668 <_fwrite_r+0x44>
    167a:	e025      	b.n	16c8 <_fwrite_r+0xa4>
    167c:	68a3      	ldr	r3, [r4, #8]
    167e:	9a01      	ldr	r2, [sp, #4]
    1680:	3b01      	subs	r3, #1
    1682:	60a3      	str	r3, [r4, #8]
    1684:	5d91      	ldrb	r1, [r2, r6]
    1686:	2b00      	cmp	r3, #0
    1688:	da18      	bge.n	16bc <_fwrite_r+0x98>
    168a:	69a2      	ldr	r2, [r4, #24]
    168c:	4293      	cmp	r3, r2
    168e:	da0e      	bge.n	16ae <_fwrite_r+0x8a>
    1690:	1c28      	adds	r0, r5, #0
    1692:	1c22      	adds	r2, r4, #0
    1694:	f001 f868 	bl	2768 <__swbuf_r>
    1698:	3001      	adds	r0, #1
    169a:	4243      	negs	r3, r0
    169c:	4158      	adcs	r0, r3
    169e:	b2c0      	uxtb	r0, r0
    16a0:	2800      	cmp	r0, #0
    16a2:	d111      	bne.n	16c8 <_fwrite_r+0xa4>
    16a4:	3601      	adds	r6, #1
    16a6:	9b00      	ldr	r3, [sp, #0]
    16a8:	429e      	cmp	r6, r3
    16aa:	d1e7      	bne.n	167c <_fwrite_r+0x58>
    16ac:	e00c      	b.n	16c8 <_fwrite_r+0xa4>
    16ae:	6823      	ldr	r3, [r4, #0]
    16b0:	7019      	strb	r1, [r3, #0]
    16b2:	6823      	ldr	r3, [r4, #0]
    16b4:	7819      	ldrb	r1, [r3, #0]
    16b6:	290a      	cmp	r1, #10
    16b8:	d103      	bne.n	16c2 <_fwrite_r+0x9e>
    16ba:	e7e9      	b.n	1690 <_fwrite_r+0x6c>
    16bc:	6822      	ldr	r2, [r4, #0]
    16be:	7011      	strb	r1, [r2, #0]
    16c0:	6823      	ldr	r3, [r4, #0]
    16c2:	3301      	adds	r3, #1
    16c4:	6023      	str	r3, [r4, #0]
    16c6:	e7ed      	b.n	16a4 <_fwrite_r+0x80>
    16c8:	1c30      	adds	r0, r6, #0
    16ca:	1c39      	adds	r1, r7, #0
    16cc:	f7ff fd76 	bl	11bc <__aeabi_uidiv>
    16d0:	bdfe      	pop	{r1, r2, r3, r4, r5, r6, r7, pc}
    16d2:	46c0      	nop			; (mov r8, r8)
    16d4:	000030f4 	.word	0x000030f4
    16d8:	00003114 	.word	0x00003114
    16dc:	00003134 	.word	0x00003134

000016e0 <fwrite>:
    16e0:	b573      	push	{r0, r1, r4, r5, r6, lr}
    16e2:	1c14      	adds	r4, r2, #0
    16e4:	4a05      	ldr	r2, [pc, #20]	; (16fc <fwrite+0x1c>)
    16e6:	1c06      	adds	r6, r0, #0
    16e8:	1c0d      	adds	r5, r1, #0
    16ea:	6810      	ldr	r0, [r2, #0]
    16ec:	1c31      	adds	r1, r6, #0
    16ee:	9300      	str	r3, [sp, #0]
    16f0:	1c2a      	adds	r2, r5, #0
    16f2:	1c23      	adds	r3, r4, #0
    16f4:	f7ff ff96 	bl	1624 <_fwrite_r>
    16f8:	bd76      	pop	{r1, r2, r4, r5, r6, pc}
    16fa:	46c0      	nop			; (mov r8, r8)
    16fc:	1ffff12c 	.word	0x1ffff12c

00001700 <__libc_init_array>:
    1700:	b570      	push	{r4, r5, r6, lr}
    1702:	4b0e      	ldr	r3, [pc, #56]	; (173c <__libc_init_array+0x3c>)
    1704:	4d0e      	ldr	r5, [pc, #56]	; (1740 <__libc_init_array+0x40>)
    1706:	2400      	movs	r4, #0
    1708:	1aed      	subs	r5, r5, r3
    170a:	10ad      	asrs	r5, r5, #2
    170c:	1c1e      	adds	r6, r3, #0
    170e:	42ac      	cmp	r4, r5
    1710:	d004      	beq.n	171c <__libc_init_array+0x1c>
    1712:	00a3      	lsls	r3, r4, #2
    1714:	58f3      	ldr	r3, [r6, r3]
    1716:	4798      	blx	r3
    1718:	3401      	adds	r4, #1
    171a:	e7f8      	b.n	170e <__libc_init_array+0xe>
    171c:	f001 fbba 	bl	2e94 <_init>
    1720:	4b08      	ldr	r3, [pc, #32]	; (1744 <__libc_init_array+0x44>)
    1722:	4d09      	ldr	r5, [pc, #36]	; (1748 <__libc_init_array+0x48>)
    1724:	2400      	movs	r4, #0
    1726:	1aed      	subs	r5, r5, r3
    1728:	10ad      	asrs	r5, r5, #2
    172a:	1c1e      	adds	r6, r3, #0
    172c:	42ac      	cmp	r4, r5
    172e:	d004      	beq.n	173a <__libc_init_array+0x3a>
    1730:	00a3      	lsls	r3, r4, #2
    1732:	58f3      	ldr	r3, [r6, r3]
    1734:	4798      	blx	r3
    1736:	3401      	adds	r4, #1
    1738:	e7f8      	b.n	172c <__libc_init_array+0x2c>
    173a:	bd70      	pop	{r4, r5, r6, pc}
    173c:	1ffff134 	.word	0x1ffff134
    1740:	1ffff134 	.word	0x1ffff134
    1744:	1ffff134 	.word	0x1ffff134
    1748:	1ffff138 	.word	0x1ffff138

0000174c <memcpy>:
    174c:	b510      	push	{r4, lr}
    174e:	2300      	movs	r3, #0
    1750:	4293      	cmp	r3, r2
    1752:	d003      	beq.n	175c <memcpy+0x10>
    1754:	5ccc      	ldrb	r4, [r1, r3]
    1756:	54c4      	strb	r4, [r0, r3]
    1758:	3301      	adds	r3, #1
    175a:	e7f9      	b.n	1750 <memcpy+0x4>
    175c:	bd10      	pop	{r4, pc}

0000175e <memset>:
    175e:	1c03      	adds	r3, r0, #0
    1760:	1882      	adds	r2, r0, r2
    1762:	4293      	cmp	r3, r2
    1764:	d002      	beq.n	176c <memset+0xe>
    1766:	7019      	strb	r1, [r3, #0]
    1768:	3301      	adds	r3, #1
    176a:	e7fa      	b.n	1762 <memset+0x4>
    176c:	4770      	bx	lr
	...

00001770 <_free_r>:
    1770:	b530      	push	{r4, r5, lr}
    1772:	2900      	cmp	r1, #0
    1774:	d040      	beq.n	17f8 <_free_r+0x88>
    1776:	3904      	subs	r1, #4
    1778:	680b      	ldr	r3, [r1, #0]
    177a:	2b00      	cmp	r3, #0
    177c:	da00      	bge.n	1780 <_free_r+0x10>
    177e:	18c9      	adds	r1, r1, r3
    1780:	4a1e      	ldr	r2, [pc, #120]	; (17fc <_free_r+0x8c>)
    1782:	6813      	ldr	r3, [r2, #0]
    1784:	1c14      	adds	r4, r2, #0
    1786:	2b00      	cmp	r3, #0
    1788:	d102      	bne.n	1790 <_free_r+0x20>
    178a:	604b      	str	r3, [r1, #4]
    178c:	6011      	str	r1, [r2, #0]
    178e:	e033      	b.n	17f8 <_free_r+0x88>
    1790:	4299      	cmp	r1, r3
    1792:	d20f      	bcs.n	17b4 <_free_r+0x44>
    1794:	6808      	ldr	r0, [r1, #0]
    1796:	180a      	adds	r2, r1, r0
    1798:	429a      	cmp	r2, r3
    179a:	d105      	bne.n	17a8 <_free_r+0x38>
    179c:	6813      	ldr	r3, [r2, #0]
    179e:	6852      	ldr	r2, [r2, #4]
    17a0:	18c0      	adds	r0, r0, r3
    17a2:	6008      	str	r0, [r1, #0]
    17a4:	604a      	str	r2, [r1, #4]
    17a6:	e000      	b.n	17aa <_free_r+0x3a>
    17a8:	604b      	str	r3, [r1, #4]
    17aa:	6021      	str	r1, [r4, #0]
    17ac:	e024      	b.n	17f8 <_free_r+0x88>
    17ae:	428a      	cmp	r2, r1
    17b0:	d803      	bhi.n	17ba <_free_r+0x4a>
    17b2:	1c13      	adds	r3, r2, #0
    17b4:	685a      	ldr	r2, [r3, #4]
    17b6:	2a00      	cmp	r2, #0
    17b8:	d1f9      	bne.n	17ae <_free_r+0x3e>
    17ba:	681d      	ldr	r5, [r3, #0]
    17bc:	195c      	adds	r4, r3, r5
    17be:	428c      	cmp	r4, r1
    17c0:	d10b      	bne.n	17da <_free_r+0x6a>
    17c2:	6809      	ldr	r1, [r1, #0]
    17c4:	1869      	adds	r1, r5, r1
    17c6:	1858      	adds	r0, r3, r1
    17c8:	6019      	str	r1, [r3, #0]
    17ca:	4290      	cmp	r0, r2
    17cc:	d114      	bne.n	17f8 <_free_r+0x88>
    17ce:	6814      	ldr	r4, [r2, #0]
    17d0:	6852      	ldr	r2, [r2, #4]
    17d2:	1909      	adds	r1, r1, r4
    17d4:	6019      	str	r1, [r3, #0]
    17d6:	605a      	str	r2, [r3, #4]
    17d8:	e00e      	b.n	17f8 <_free_r+0x88>
    17da:	428c      	cmp	r4, r1
    17dc:	d902      	bls.n	17e4 <_free_r+0x74>
    17de:	230c      	movs	r3, #12
    17e0:	6003      	str	r3, [r0, #0]
    17e2:	e009      	b.n	17f8 <_free_r+0x88>
    17e4:	6808      	ldr	r0, [r1, #0]
    17e6:	180c      	adds	r4, r1, r0
    17e8:	4294      	cmp	r4, r2
    17ea:	d103      	bne.n	17f4 <_free_r+0x84>
    17ec:	6814      	ldr	r4, [r2, #0]
    17ee:	6852      	ldr	r2, [r2, #4]
    17f0:	1900      	adds	r0, r0, r4
    17f2:	6008      	str	r0, [r1, #0]
    17f4:	604a      	str	r2, [r1, #4]
    17f6:	6059      	str	r1, [r3, #4]
    17f8:	bd30      	pop	{r4, r5, pc}
    17fa:	46c0      	nop			; (mov r8, r8)
    17fc:	1ffff274 	.word	0x1ffff274

00001800 <_malloc_r>:
    1800:	b570      	push	{r4, r5, r6, lr}
    1802:	2303      	movs	r3, #3
    1804:	1ccd      	adds	r5, r1, #3
    1806:	439d      	bics	r5, r3
    1808:	3508      	adds	r5, #8
    180a:	1c06      	adds	r6, r0, #0
    180c:	2d0c      	cmp	r5, #12
    180e:	d201      	bcs.n	1814 <_malloc_r+0x14>
    1810:	250c      	movs	r5, #12
    1812:	e001      	b.n	1818 <_malloc_r+0x18>
    1814:	2d00      	cmp	r5, #0
    1816:	db3f      	blt.n	1898 <_malloc_r+0x98>
    1818:	428d      	cmp	r5, r1
    181a:	d33d      	bcc.n	1898 <_malloc_r+0x98>
    181c:	4b20      	ldr	r3, [pc, #128]	; (18a0 <_malloc_r+0xa0>)
    181e:	681c      	ldr	r4, [r3, #0]
    1820:	1c1a      	adds	r2, r3, #0
    1822:	1c21      	adds	r1, r4, #0
    1824:	2900      	cmp	r1, #0
    1826:	d013      	beq.n	1850 <_malloc_r+0x50>
    1828:	6808      	ldr	r0, [r1, #0]
    182a:	1b43      	subs	r3, r0, r5
    182c:	d40d      	bmi.n	184a <_malloc_r+0x4a>
    182e:	2b0b      	cmp	r3, #11
    1830:	d902      	bls.n	1838 <_malloc_r+0x38>
    1832:	600b      	str	r3, [r1, #0]
    1834:	18cc      	adds	r4, r1, r3
    1836:	e01e      	b.n	1876 <_malloc_r+0x76>
    1838:	428c      	cmp	r4, r1
    183a:	d102      	bne.n	1842 <_malloc_r+0x42>
    183c:	6863      	ldr	r3, [r4, #4]
    183e:	6013      	str	r3, [r2, #0]
    1840:	e01a      	b.n	1878 <_malloc_r+0x78>
    1842:	6848      	ldr	r0, [r1, #4]
    1844:	6060      	str	r0, [r4, #4]
    1846:	1c0c      	adds	r4, r1, #0
    1848:	e016      	b.n	1878 <_malloc_r+0x78>
    184a:	1c0c      	adds	r4, r1, #0
    184c:	6849      	ldr	r1, [r1, #4]
    184e:	e7e9      	b.n	1824 <_malloc_r+0x24>
    1850:	4c14      	ldr	r4, [pc, #80]	; (18a4 <_malloc_r+0xa4>)
    1852:	6820      	ldr	r0, [r4, #0]
    1854:	2800      	cmp	r0, #0
    1856:	d103      	bne.n	1860 <_malloc_r+0x60>
    1858:	1c30      	adds	r0, r6, #0
    185a:	f000 f8ab 	bl	19b4 <_sbrk_r>
    185e:	6020      	str	r0, [r4, #0]
    1860:	1c30      	adds	r0, r6, #0
    1862:	1c29      	adds	r1, r5, #0
    1864:	f000 f8a6 	bl	19b4 <_sbrk_r>
    1868:	1c43      	adds	r3, r0, #1
    186a:	d015      	beq.n	1898 <_malloc_r+0x98>
    186c:	1cc4      	adds	r4, r0, #3
    186e:	2303      	movs	r3, #3
    1870:	439c      	bics	r4, r3
    1872:	4284      	cmp	r4, r0
    1874:	d10a      	bne.n	188c <_malloc_r+0x8c>
    1876:	6025      	str	r5, [r4, #0]
    1878:	1c20      	adds	r0, r4, #0
    187a:	300b      	adds	r0, #11
    187c:	2207      	movs	r2, #7
    187e:	1d23      	adds	r3, r4, #4
    1880:	4390      	bics	r0, r2
    1882:	1ac3      	subs	r3, r0, r3
    1884:	d00b      	beq.n	189e <_malloc_r+0x9e>
    1886:	425a      	negs	r2, r3
    1888:	50e2      	str	r2, [r4, r3]
    188a:	e008      	b.n	189e <_malloc_r+0x9e>
    188c:	1a21      	subs	r1, r4, r0
    188e:	1c30      	adds	r0, r6, #0
    1890:	f000 f890 	bl	19b4 <_sbrk_r>
    1894:	3001      	adds	r0, #1
    1896:	d1ee      	bne.n	1876 <_malloc_r+0x76>
    1898:	230c      	movs	r3, #12
    189a:	6033      	str	r3, [r6, #0]
    189c:	2000      	movs	r0, #0
    189e:	bd70      	pop	{r4, r5, r6, pc}
    18a0:	1ffff274 	.word	0x1ffff274
    18a4:	1ffff270 	.word	0x1ffff270

000018a8 <iprintf>:
    18a8:	b40f      	push	{r0, r1, r2, r3}
    18aa:	4b0b      	ldr	r3, [pc, #44]	; (18d8 <iprintf+0x30>)
    18ac:	b513      	push	{r0, r1, r4, lr}
    18ae:	681c      	ldr	r4, [r3, #0]
    18b0:	2c00      	cmp	r4, #0
    18b2:	d005      	beq.n	18c0 <iprintf+0x18>
    18b4:	69a3      	ldr	r3, [r4, #24]
    18b6:	2b00      	cmp	r3, #0
    18b8:	d102      	bne.n	18c0 <iprintf+0x18>
    18ba:	1c20      	adds	r0, r4, #0
    18bc:	f7ff fdf2 	bl	14a4 <__sinit>
    18c0:	ab05      	add	r3, sp, #20
    18c2:	68a1      	ldr	r1, [r4, #8]
    18c4:	1c20      	adds	r0, r4, #0
    18c6:	9a04      	ldr	r2, [sp, #16]
    18c8:	9301      	str	r3, [sp, #4]
    18ca:	f000 f9cb 	bl	1c64 <_vfiprintf_r>
    18ce:	bc16      	pop	{r1, r2, r4}
    18d0:	bc08      	pop	{r3}
    18d2:	b004      	add	sp, #16
    18d4:	4718      	bx	r3
    18d6:	46c0      	nop			; (mov r8, r8)
    18d8:	1ffff12c 	.word	0x1ffff12c

000018dc <_puts_r>:
    18dc:	b570      	push	{r4, r5, r6, lr}
    18de:	1c05      	adds	r5, r0, #0
    18e0:	1c0e      	adds	r6, r1, #0
    18e2:	2800      	cmp	r0, #0
    18e4:	d004      	beq.n	18f0 <_puts_r+0x14>
    18e6:	6982      	ldr	r2, [r0, #24]
    18e8:	2a00      	cmp	r2, #0
    18ea:	d101      	bne.n	18f0 <_puts_r+0x14>
    18ec:	f7ff fdda 	bl	14a4 <__sinit>
    18f0:	68ac      	ldr	r4, [r5, #8]
    18f2:	89a3      	ldrh	r3, [r4, #12]
    18f4:	071a      	lsls	r2, r3, #28
    18f6:	d502      	bpl.n	18fe <_puts_r+0x22>
    18f8:	6923      	ldr	r3, [r4, #16]
    18fa:	2b00      	cmp	r3, #0
    18fc:	d119      	bne.n	1932 <_puts_r+0x56>
    18fe:	1c28      	adds	r0, r5, #0
    1900:	1c21      	adds	r1, r4, #0
    1902:	f000 ff9d 	bl	2840 <__swsetup_r>
    1906:	2800      	cmp	r0, #0
    1908:	d013      	beq.n	1932 <_puts_r+0x56>
    190a:	2001      	movs	r0, #1
    190c:	4240      	negs	r0, r0
    190e:	e045      	b.n	199c <_puts_r+0xc0>
    1910:	7831      	ldrb	r1, [r6, #0]
    1912:	2b00      	cmp	r3, #0
    1914:	da1b      	bge.n	194e <_puts_r+0x72>
    1916:	69a2      	ldr	r2, [r4, #24]
    1918:	4293      	cmp	r3, r2
    191a:	da11      	bge.n	1940 <_puts_r+0x64>
    191c:	1c28      	adds	r0, r5, #0
    191e:	1c22      	adds	r2, r4, #0
    1920:	f000 ff22 	bl	2768 <__swbuf_r>
    1924:	3001      	adds	r0, #1
    1926:	4243      	negs	r3, r0
    1928:	4158      	adcs	r0, r3
    192a:	b2c0      	uxtb	r0, r0
    192c:	2800      	cmp	r0, #0
    192e:	d1ec      	bne.n	190a <_puts_r+0x2e>
    1930:	3601      	adds	r6, #1
    1932:	68a3      	ldr	r3, [r4, #8]
    1934:	7832      	ldrb	r2, [r6, #0]
    1936:	3b01      	subs	r3, #1
    1938:	60a3      	str	r3, [r4, #8]
    193a:	2a00      	cmp	r2, #0
    193c:	d1e8      	bne.n	1910 <_puts_r+0x34>
    193e:	e00c      	b.n	195a <_puts_r+0x7e>
    1940:	6823      	ldr	r3, [r4, #0]
    1942:	7019      	strb	r1, [r3, #0]
    1944:	6823      	ldr	r3, [r4, #0]
    1946:	7819      	ldrb	r1, [r3, #0]
    1948:	290a      	cmp	r1, #10
    194a:	d103      	bne.n	1954 <_puts_r+0x78>
    194c:	e7e6      	b.n	191c <_puts_r+0x40>
    194e:	6822      	ldr	r2, [r4, #0]
    1950:	7011      	strb	r1, [r2, #0]
    1952:	6823      	ldr	r3, [r4, #0]
    1954:	3301      	adds	r3, #1
    1956:	6023      	str	r3, [r4, #0]
    1958:	e7ea      	b.n	1930 <_puts_r+0x54>
    195a:	2b00      	cmp	r3, #0
    195c:	da17      	bge.n	198e <_puts_r+0xb2>
    195e:	69a2      	ldr	r2, [r4, #24]
    1960:	4293      	cmp	r3, r2
    1962:	db08      	blt.n	1976 <_puts_r+0x9a>
    1964:	6822      	ldr	r2, [r4, #0]
    1966:	230a      	movs	r3, #10
    1968:	7013      	strb	r3, [r2, #0]
    196a:	6823      	ldr	r3, [r4, #0]
    196c:	7819      	ldrb	r1, [r3, #0]
    196e:	290a      	cmp	r1, #10
    1970:	d111      	bne.n	1996 <_puts_r+0xba>
    1972:	1c28      	adds	r0, r5, #0
    1974:	e001      	b.n	197a <_puts_r+0x9e>
    1976:	1c28      	adds	r0, r5, #0
    1978:	210a      	movs	r1, #10
    197a:	1c22      	adds	r2, r4, #0
    197c:	f000 fef4 	bl	2768 <__swbuf_r>
    1980:	3001      	adds	r0, #1
    1982:	4243      	negs	r3, r0
    1984:	4158      	adcs	r0, r3
    1986:	b2c0      	uxtb	r0, r0
    1988:	2800      	cmp	r0, #0
    198a:	d006      	beq.n	199a <_puts_r+0xbe>
    198c:	e7bd      	b.n	190a <_puts_r+0x2e>
    198e:	6822      	ldr	r2, [r4, #0]
    1990:	230a      	movs	r3, #10
    1992:	7013      	strb	r3, [r2, #0]
    1994:	6823      	ldr	r3, [r4, #0]
    1996:	3301      	adds	r3, #1
    1998:	6023      	str	r3, [r4, #0]
    199a:	200a      	movs	r0, #10
    199c:	bd70      	pop	{r4, r5, r6, pc}
	...

000019a0 <puts>:
    19a0:	b508      	push	{r3, lr}
    19a2:	4b03      	ldr	r3, [pc, #12]	; (19b0 <puts+0x10>)
    19a4:	1c01      	adds	r1, r0, #0
    19a6:	6818      	ldr	r0, [r3, #0]
    19a8:	f7ff ff98 	bl	18dc <_puts_r>
    19ac:	bd08      	pop	{r3, pc}
    19ae:	46c0      	nop			; (mov r8, r8)
    19b0:	1ffff12c 	.word	0x1ffff12c

000019b4 <_sbrk_r>:
    19b4:	b538      	push	{r3, r4, r5, lr}
    19b6:	4c07      	ldr	r4, [pc, #28]	; (19d4 <_sbrk_r+0x20>)
    19b8:	2300      	movs	r3, #0
    19ba:	1c05      	adds	r5, r0, #0
    19bc:	1c08      	adds	r0, r1, #0
    19be:	6023      	str	r3, [r4, #0]
    19c0:	f7fe fea6 	bl	710 <_sbrk>
    19c4:	1c43      	adds	r3, r0, #1
    19c6:	d103      	bne.n	19d0 <_sbrk_r+0x1c>
    19c8:	6823      	ldr	r3, [r4, #0]
    19ca:	2b00      	cmp	r3, #0
    19cc:	d000      	beq.n	19d0 <_sbrk_r+0x1c>
    19ce:	602b      	str	r3, [r5, #0]
    19d0:	bd38      	pop	{r3, r4, r5, pc}
    19d2:	46c0      	nop			; (mov r8, r8)
    19d4:	1ffff280 	.word	0x1ffff280

000019d8 <iscanf>:
    19d8:	b40f      	push	{r0, r1, r2, r3}
    19da:	4b0b      	ldr	r3, [pc, #44]	; (1a08 <iscanf+0x30>)
    19dc:	b513      	push	{r0, r1, r4, lr}
    19de:	681c      	ldr	r4, [r3, #0]
    19e0:	2c00      	cmp	r4, #0
    19e2:	d005      	beq.n	19f0 <iscanf+0x18>
    19e4:	69a3      	ldr	r3, [r4, #24]
    19e6:	2b00      	cmp	r3, #0
    19e8:	d102      	bne.n	19f0 <iscanf+0x18>
    19ea:	1c20      	adds	r0, r4, #0
    19ec:	f7ff fd5a 	bl	14a4 <__sinit>
    19f0:	ab05      	add	r3, sp, #20
    19f2:	6861      	ldr	r1, [r4, #4]
    19f4:	1c20      	adds	r0, r4, #0
    19f6:	9a04      	ldr	r2, [sp, #16]
    19f8:	9301      	str	r3, [sp, #4]
    19fa:	f000 fd2b 	bl	2454 <_vfiscanf_r>
    19fe:	bc16      	pop	{r1, r2, r4}
    1a00:	bc08      	pop	{r3}
    1a02:	b004      	add	sp, #16
    1a04:	4718      	bx	r3
    1a06:	46c0      	nop			; (mov r8, r8)
    1a08:	1ffff12c 	.word	0x1ffff12c

00001a0c <__sread>:
    1a0c:	b538      	push	{r3, r4, r5, lr}
    1a0e:	1c0c      	adds	r4, r1, #0
    1a10:	250e      	movs	r5, #14
    1a12:	5f49      	ldrsh	r1, [r1, r5]
    1a14:	f001 f82e 	bl	2a74 <_read_r>
    1a18:	2800      	cmp	r0, #0
    1a1a:	db03      	blt.n	1a24 <__sread+0x18>
    1a1c:	6d62      	ldr	r2, [r4, #84]	; 0x54
    1a1e:	1813      	adds	r3, r2, r0
    1a20:	6563      	str	r3, [r4, #84]	; 0x54
    1a22:	e003      	b.n	1a2c <__sread+0x20>
    1a24:	89a2      	ldrh	r2, [r4, #12]
    1a26:	4b02      	ldr	r3, [pc, #8]	; (1a30 <__sread+0x24>)
    1a28:	4013      	ands	r3, r2
    1a2a:	81a3      	strh	r3, [r4, #12]
    1a2c:	bd38      	pop	{r3, r4, r5, pc}
    1a2e:	46c0      	nop			; (mov r8, r8)
    1a30:	ffffefff 	.word	0xffffefff

00001a34 <__swrite>:
    1a34:	b5f8      	push	{r3, r4, r5, r6, r7, lr}
    1a36:	1c1e      	adds	r6, r3, #0
    1a38:	898b      	ldrh	r3, [r1, #12]
    1a3a:	1c05      	adds	r5, r0, #0
    1a3c:	1c0c      	adds	r4, r1, #0
    1a3e:	1c17      	adds	r7, r2, #0
    1a40:	05da      	lsls	r2, r3, #23
    1a42:	d505      	bpl.n	1a50 <__swrite+0x1c>
    1a44:	230e      	movs	r3, #14
    1a46:	5ec9      	ldrsh	r1, [r1, r3]
    1a48:	2200      	movs	r2, #0
    1a4a:	2302      	movs	r3, #2
    1a4c:	f000 ff7c 	bl	2948 <_lseek_r>
    1a50:	89a2      	ldrh	r2, [r4, #12]
    1a52:	4b05      	ldr	r3, [pc, #20]	; (1a68 <__swrite+0x34>)
    1a54:	1c28      	adds	r0, r5, #0
    1a56:	4013      	ands	r3, r2
    1a58:	81a3      	strh	r3, [r4, #12]
    1a5a:	220e      	movs	r2, #14
    1a5c:	5ea1      	ldrsh	r1, [r4, r2]
    1a5e:	1c33      	adds	r3, r6, #0
    1a60:	1c3a      	adds	r2, r7, #0
    1a62:	f000 fed9 	bl	2818 <_write_r>
    1a66:	bdf8      	pop	{r3, r4, r5, r6, r7, pc}
    1a68:	ffffefff 	.word	0xffffefff

00001a6c <__sseek>:
    1a6c:	b538      	push	{r3, r4, r5, lr}
    1a6e:	1c0c      	adds	r4, r1, #0
    1a70:	250e      	movs	r5, #14
    1a72:	5f49      	ldrsh	r1, [r1, r5]
    1a74:	f000 ff68 	bl	2948 <_lseek_r>
    1a78:	89a3      	ldrh	r3, [r4, #12]
    1a7a:	1c42      	adds	r2, r0, #1
    1a7c:	d103      	bne.n	1a86 <__sseek+0x1a>
    1a7e:	4a05      	ldr	r2, [pc, #20]	; (1a94 <__sseek+0x28>)
    1a80:	4013      	ands	r3, r2
    1a82:	81a3      	strh	r3, [r4, #12]
    1a84:	e004      	b.n	1a90 <__sseek+0x24>
    1a86:	2280      	movs	r2, #128	; 0x80
    1a88:	0152      	lsls	r2, r2, #5
    1a8a:	4313      	orrs	r3, r2
    1a8c:	81a3      	strh	r3, [r4, #12]
    1a8e:	6560      	str	r0, [r4, #84]	; 0x54
    1a90:	bd38      	pop	{r3, r4, r5, pc}
    1a92:	46c0      	nop			; (mov r8, r8)
    1a94:	ffffefff 	.word	0xffffefff

00001a98 <__sclose>:
    1a98:	b508      	push	{r3, lr}
    1a9a:	230e      	movs	r3, #14
    1a9c:	5ec9      	ldrsh	r1, [r1, r3]
    1a9e:	f000 ff41 	bl	2924 <_close_r>
    1aa2:	bd08      	pop	{r3, pc}

00001aa4 <strlen>:
    1aa4:	2300      	movs	r3, #0
    1aa6:	5cc2      	ldrb	r2, [r0, r3]
    1aa8:	3301      	adds	r3, #1
    1aaa:	2a00      	cmp	r2, #0
    1aac:	d1fb      	bne.n	1aa6 <strlen+0x2>
    1aae:	1e58      	subs	r0, r3, #1
    1ab0:	4770      	bx	lr
	...

00001ab4 <__submore>:
    1ab4:	b5f7      	push	{r0, r1, r2, r4, r5, r6, r7, lr}
    1ab6:	1c0b      	adds	r3, r1, #0
    1ab8:	6b4d      	ldr	r5, [r1, #52]	; 0x34
    1aba:	3344      	adds	r3, #68	; 0x44
    1abc:	1c0c      	adds	r4, r1, #0
    1abe:	429d      	cmp	r5, r3
    1ac0:	d11b      	bne.n	1afa <__submore+0x46>
    1ac2:	2680      	movs	r6, #128	; 0x80
    1ac4:	00f6      	lsls	r6, r6, #3
    1ac6:	1c31      	adds	r1, r6, #0
    1ac8:	f7ff fe9a 	bl	1800 <_malloc_r>
    1acc:	2800      	cmp	r0, #0
    1ace:	d102      	bne.n	1ad6 <__submore+0x22>
    1ad0:	2001      	movs	r0, #1
    1ad2:	4240      	negs	r0, r0
    1ad4:	e025      	b.n	1b22 <__submore+0x6e>
    1ad6:	1c23      	adds	r3, r4, #0
    1ad8:	6360      	str	r0, [r4, #52]	; 0x34
    1ada:	63a6      	str	r6, [r4, #56]	; 0x38
    1adc:	3346      	adds	r3, #70	; 0x46
    1ade:	781a      	ldrb	r2, [r3, #0]
    1ae0:	4b10      	ldr	r3, [pc, #64]	; (1b24 <__submore+0x70>)
    1ae2:	54c2      	strb	r2, [r0, r3]
    1ae4:	1c23      	adds	r3, r4, #0
    1ae6:	3345      	adds	r3, #69	; 0x45
    1ae8:	781a      	ldrb	r2, [r3, #0]
    1aea:	4b0f      	ldr	r3, [pc, #60]	; (1b28 <__submore+0x74>)
    1aec:	54c2      	strb	r2, [r0, r3]
    1aee:	782a      	ldrb	r2, [r5, #0]
    1af0:	4b0e      	ldr	r3, [pc, #56]	; (1b2c <__submore+0x78>)
    1af2:	54c2      	strb	r2, [r0, r3]
    1af4:	18c0      	adds	r0, r0, r3
    1af6:	6020      	str	r0, [r4, #0]
    1af8:	e012      	b.n	1b20 <__submore+0x6c>
    1afa:	6b8e      	ldr	r6, [r1, #56]	; 0x38
    1afc:	1c29      	adds	r1, r5, #0
    1afe:	0073      	lsls	r3, r6, #1
    1b00:	1c1a      	adds	r2, r3, #0
    1b02:	9301      	str	r3, [sp, #4]
    1b04:	f000 ff8f 	bl	2a26 <_realloc_r>
    1b08:	1e05      	subs	r5, r0, #0
    1b0a:	d0e1      	beq.n	1ad0 <__submore+0x1c>
    1b0c:	1987      	adds	r7, r0, r6
    1b0e:	1c38      	adds	r0, r7, #0
    1b10:	1c29      	adds	r1, r5, #0
    1b12:	1c32      	adds	r2, r6, #0
    1b14:	f7ff fe1a 	bl	174c <memcpy>
    1b18:	9b01      	ldr	r3, [sp, #4]
    1b1a:	6027      	str	r7, [r4, #0]
    1b1c:	6365      	str	r5, [r4, #52]	; 0x34
    1b1e:	63a3      	str	r3, [r4, #56]	; 0x38
    1b20:	2000      	movs	r0, #0
    1b22:	bdfe      	pop	{r1, r2, r3, r4, r5, r6, r7, pc}
    1b24:	000003ff 	.word	0x000003ff
    1b28:	000003fe 	.word	0x000003fe
    1b2c:	000003fd 	.word	0x000003fd

00001b30 <_ungetc_r>:
    1b30:	b5f8      	push	{r3, r4, r5, r6, r7, lr}
    1b32:	1c05      	adds	r5, r0, #0
    1b34:	1c0e      	adds	r6, r1, #0
    1b36:	1c14      	adds	r4, r2, #0
    1b38:	1c4a      	adds	r2, r1, #1
    1b3a:	d102      	bne.n	1b42 <_ungetc_r+0x12>
    1b3c:	2001      	movs	r0, #1
    1b3e:	4240      	negs	r0, r0
    1b40:	e061      	b.n	1c06 <_ungetc_r+0xd6>
    1b42:	2800      	cmp	r0, #0
    1b44:	d004      	beq.n	1b50 <_ungetc_r+0x20>
    1b46:	6983      	ldr	r3, [r0, #24]
    1b48:	2b00      	cmp	r3, #0
    1b4a:	d101      	bne.n	1b50 <_ungetc_r+0x20>
    1b4c:	f7ff fcaa 	bl	14a4 <__sinit>
    1b50:	4b2d      	ldr	r3, [pc, #180]	; (1c08 <_ungetc_r+0xd8>)
    1b52:	429c      	cmp	r4, r3
    1b54:	d101      	bne.n	1b5a <_ungetc_r+0x2a>
    1b56:	686c      	ldr	r4, [r5, #4]
    1b58:	e008      	b.n	1b6c <_ungetc_r+0x3c>
    1b5a:	4b2c      	ldr	r3, [pc, #176]	; (1c0c <_ungetc_r+0xdc>)
    1b5c:	429c      	cmp	r4, r3
    1b5e:	d101      	bne.n	1b64 <_ungetc_r+0x34>
    1b60:	68ac      	ldr	r4, [r5, #8]
    1b62:	e003      	b.n	1b6c <_ungetc_r+0x3c>
    1b64:	4b2a      	ldr	r3, [pc, #168]	; (1c10 <_ungetc_r+0xe0>)
    1b66:	429c      	cmp	r4, r3
    1b68:	d100      	bne.n	1b6c <_ungetc_r+0x3c>
    1b6a:	68ec      	ldr	r4, [r5, #12]
    1b6c:	89a3      	ldrh	r3, [r4, #12]
    1b6e:	2220      	movs	r2, #32
    1b70:	4393      	bics	r3, r2
    1b72:	81a3      	strh	r3, [r4, #12]
    1b74:	b29b      	uxth	r3, r3
    1b76:	075a      	lsls	r2, r3, #29
    1b78:	d413      	bmi.n	1ba2 <_ungetc_r+0x72>
    1b7a:	06da      	lsls	r2, r3, #27
    1b7c:	d5de      	bpl.n	1b3c <_ungetc_r+0xc>
    1b7e:	2708      	movs	r7, #8
    1b80:	423b      	tst	r3, r7
    1b82:	d00a      	beq.n	1b9a <_ungetc_r+0x6a>
    1b84:	1c28      	adds	r0, r5, #0
    1b86:	1c21      	adds	r1, r4, #0
    1b88:	f7ff fbf8 	bl	137c <_fflush_r>
    1b8c:	2800      	cmp	r0, #0
    1b8e:	d1d5      	bne.n	1b3c <_ungetc_r+0xc>
    1b90:	89a3      	ldrh	r3, [r4, #12]
    1b92:	60a0      	str	r0, [r4, #8]
    1b94:	43bb      	bics	r3, r7
    1b96:	81a3      	strh	r3, [r4, #12]
    1b98:	61a0      	str	r0, [r4, #24]
    1b9a:	89a3      	ldrh	r3, [r4, #12]
    1b9c:	2204      	movs	r2, #4
    1b9e:	4313      	orrs	r3, r2
    1ba0:	81a3      	strh	r3, [r4, #12]
    1ba2:	6b63      	ldr	r3, [r4, #52]	; 0x34
    1ba4:	b2f6      	uxtb	r6, r6
    1ba6:	6862      	ldr	r2, [r4, #4]
    1ba8:	2b00      	cmp	r3, #0
    1baa:	d010      	beq.n	1bce <_ungetc_r+0x9e>
    1bac:	6ba3      	ldr	r3, [r4, #56]	; 0x38
    1bae:	429a      	cmp	r2, r3
    1bb0:	da06      	bge.n	1bc0 <_ungetc_r+0x90>
    1bb2:	6823      	ldr	r3, [r4, #0]
    1bb4:	3b01      	subs	r3, #1
    1bb6:	6023      	str	r3, [r4, #0]
    1bb8:	701e      	strb	r6, [r3, #0]
    1bba:	6863      	ldr	r3, [r4, #4]
    1bbc:	3301      	adds	r3, #1
    1bbe:	e020      	b.n	1c02 <_ungetc_r+0xd2>
    1bc0:	1c28      	adds	r0, r5, #0
    1bc2:	1c21      	adds	r1, r4, #0
    1bc4:	f7ff ff76 	bl	1ab4 <__submore>
    1bc8:	2800      	cmp	r0, #0
    1bca:	d0f2      	beq.n	1bb2 <_ungetc_r+0x82>
    1bcc:	e7b6      	b.n	1b3c <_ungetc_r+0xc>
    1bce:	6921      	ldr	r1, [r4, #16]
    1bd0:	6823      	ldr	r3, [r4, #0]
    1bd2:	2900      	cmp	r1, #0
    1bd4:	d009      	beq.n	1bea <_ungetc_r+0xba>
    1bd6:	428b      	cmp	r3, r1
    1bd8:	d907      	bls.n	1bea <_ungetc_r+0xba>
    1bda:	1e59      	subs	r1, r3, #1
    1bdc:	7808      	ldrb	r0, [r1, #0]
    1bde:	42b0      	cmp	r0, r6
    1be0:	d103      	bne.n	1bea <_ungetc_r+0xba>
    1be2:	3201      	adds	r2, #1
    1be4:	6021      	str	r1, [r4, #0]
    1be6:	6062      	str	r2, [r4, #4]
    1be8:	e00d      	b.n	1c06 <_ungetc_r+0xd6>
    1bea:	63e3      	str	r3, [r4, #60]	; 0x3c
    1bec:	1c23      	adds	r3, r4, #0
    1bee:	3344      	adds	r3, #68	; 0x44
    1bf0:	6363      	str	r3, [r4, #52]	; 0x34
    1bf2:	2303      	movs	r3, #3
    1bf4:	63a3      	str	r3, [r4, #56]	; 0x38
    1bf6:	1c23      	adds	r3, r4, #0
    1bf8:	3346      	adds	r3, #70	; 0x46
    1bfa:	6422      	str	r2, [r4, #64]	; 0x40
    1bfc:	701e      	strb	r6, [r3, #0]
    1bfe:	6023      	str	r3, [r4, #0]
    1c00:	2301      	movs	r3, #1
    1c02:	6063      	str	r3, [r4, #4]
    1c04:	1c30      	adds	r0, r6, #0
    1c06:	bdf8      	pop	{r3, r4, r5, r6, r7, pc}
    1c08:	000030f4 	.word	0x000030f4
    1c0c:	00003114 	.word	0x00003114
    1c10:	00003134 	.word	0x00003134

00001c14 <__sfputc_r>:
    1c14:	6893      	ldr	r3, [r2, #8]
    1c16:	b510      	push	{r4, lr}
    1c18:	3b01      	subs	r3, #1
    1c1a:	6093      	str	r3, [r2, #8]
    1c1c:	2b00      	cmp	r3, #0
    1c1e:	da05      	bge.n	1c2c <__sfputc_r+0x18>
    1c20:	6994      	ldr	r4, [r2, #24]
    1c22:	42a3      	cmp	r3, r4
    1c24:	db08      	blt.n	1c38 <__sfputc_r+0x24>
    1c26:	b2cb      	uxtb	r3, r1
    1c28:	2b0a      	cmp	r3, #10
    1c2a:	d005      	beq.n	1c38 <__sfputc_r+0x24>
    1c2c:	6813      	ldr	r3, [r2, #0]
    1c2e:	1c58      	adds	r0, r3, #1
    1c30:	6010      	str	r0, [r2, #0]
    1c32:	7019      	strb	r1, [r3, #0]
    1c34:	b2c8      	uxtb	r0, r1
    1c36:	e001      	b.n	1c3c <__sfputc_r+0x28>
    1c38:	f000 fd96 	bl	2768 <__swbuf_r>
    1c3c:	bd10      	pop	{r4, pc}

00001c3e <__sfputs_r>:
    1c3e:	b5f8      	push	{r3, r4, r5, r6, r7, lr}
    1c40:	1c06      	adds	r6, r0, #0
    1c42:	1c0f      	adds	r7, r1, #0
    1c44:	1c14      	adds	r4, r2, #0
    1c46:	18d5      	adds	r5, r2, r3
    1c48:	42ac      	cmp	r4, r5
    1c4a:	d008      	beq.n	1c5e <__sfputs_r+0x20>
    1c4c:	7821      	ldrb	r1, [r4, #0]
    1c4e:	1c30      	adds	r0, r6, #0
    1c50:	1c3a      	adds	r2, r7, #0
    1c52:	f7ff ffdf 	bl	1c14 <__sfputc_r>
    1c56:	3401      	adds	r4, #1
    1c58:	1c43      	adds	r3, r0, #1
    1c5a:	d1f5      	bne.n	1c48 <__sfputs_r+0xa>
    1c5c:	e000      	b.n	1c60 <__sfputs_r+0x22>
    1c5e:	2000      	movs	r0, #0
    1c60:	bdf8      	pop	{r3, r4, r5, r6, r7, pc}
	...

00001c64 <_vfiprintf_r>:
    1c64:	b5f0      	push	{r4, r5, r6, r7, lr}
    1c66:	b09f      	sub	sp, #124	; 0x7c
    1c68:	1c06      	adds	r6, r0, #0
    1c6a:	1c0f      	adds	r7, r1, #0
    1c6c:	9203      	str	r2, [sp, #12]
    1c6e:	9305      	str	r3, [sp, #20]
    1c70:	2800      	cmp	r0, #0
    1c72:	d004      	beq.n	1c7e <_vfiprintf_r+0x1a>
    1c74:	6981      	ldr	r1, [r0, #24]
    1c76:	2900      	cmp	r1, #0
    1c78:	d101      	bne.n	1c7e <_vfiprintf_r+0x1a>
    1c7a:	f7ff fc13 	bl	14a4 <__sinit>
    1c7e:	4b75      	ldr	r3, [pc, #468]	; (1e54 <_vfiprintf_r+0x1f0>)
    1c80:	429f      	cmp	r7, r3
    1c82:	d101      	bne.n	1c88 <_vfiprintf_r+0x24>
    1c84:	6877      	ldr	r7, [r6, #4]
    1c86:	e008      	b.n	1c9a <_vfiprintf_r+0x36>
    1c88:	4b73      	ldr	r3, [pc, #460]	; (1e58 <_vfiprintf_r+0x1f4>)
    1c8a:	429f      	cmp	r7, r3
    1c8c:	d101      	bne.n	1c92 <_vfiprintf_r+0x2e>
    1c8e:	68b7      	ldr	r7, [r6, #8]
    1c90:	e003      	b.n	1c9a <_vfiprintf_r+0x36>
    1c92:	4b72      	ldr	r3, [pc, #456]	; (1e5c <_vfiprintf_r+0x1f8>)
    1c94:	429f      	cmp	r7, r3
    1c96:	d100      	bne.n	1c9a <_vfiprintf_r+0x36>
    1c98:	68f7      	ldr	r7, [r6, #12]
    1c9a:	89bb      	ldrh	r3, [r7, #12]
    1c9c:	071a      	lsls	r2, r3, #28
    1c9e:	d50a      	bpl.n	1cb6 <_vfiprintf_r+0x52>
    1ca0:	693b      	ldr	r3, [r7, #16]
    1ca2:	2b00      	cmp	r3, #0
    1ca4:	d007      	beq.n	1cb6 <_vfiprintf_r+0x52>
    1ca6:	ad06      	add	r5, sp, #24
    1ca8:	2300      	movs	r3, #0
    1caa:	616b      	str	r3, [r5, #20]
    1cac:	2320      	movs	r3, #32
    1cae:	766b      	strb	r3, [r5, #25]
    1cb0:	2330      	movs	r3, #48	; 0x30
    1cb2:	76ab      	strb	r3, [r5, #26]
    1cb4:	e03b      	b.n	1d2e <_vfiprintf_r+0xca>
    1cb6:	1c30      	adds	r0, r6, #0
    1cb8:	1c39      	adds	r1, r7, #0
    1cba:	f000 fdc1 	bl	2840 <__swsetup_r>
    1cbe:	2800      	cmp	r0, #0
    1cc0:	d0f1      	beq.n	1ca6 <_vfiprintf_r+0x42>
    1cc2:	2001      	movs	r0, #1
    1cc4:	4240      	negs	r0, r0
    1cc6:	e0c2      	b.n	1e4e <_vfiprintf_r+0x1ea>
    1cc8:	9a05      	ldr	r2, [sp, #20]
    1cca:	1d11      	adds	r1, r2, #4
    1ccc:	6812      	ldr	r2, [r2, #0]
    1cce:	9105      	str	r1, [sp, #20]
    1cd0:	2a00      	cmp	r2, #0
    1cd2:	db76      	blt.n	1dc2 <_vfiprintf_r+0x15e>
    1cd4:	9209      	str	r2, [sp, #36]	; 0x24
    1cd6:	3401      	adds	r4, #1
    1cd8:	7823      	ldrb	r3, [r4, #0]
    1cda:	2b2e      	cmp	r3, #46	; 0x2e
    1cdc:	d100      	bne.n	1ce0 <_vfiprintf_r+0x7c>
    1cde:	e081      	b.n	1de4 <_vfiprintf_r+0x180>
    1ce0:	7821      	ldrb	r1, [r4, #0]
    1ce2:	485f      	ldr	r0, [pc, #380]	; (1e60 <_vfiprintf_r+0x1fc>)
    1ce4:	2203      	movs	r2, #3
    1ce6:	f000 fe93 	bl	2a10 <memchr>
    1cea:	2800      	cmp	r0, #0
    1cec:	d007      	beq.n	1cfe <_vfiprintf_r+0x9a>
    1cee:	495c      	ldr	r1, [pc, #368]	; (1e60 <_vfiprintf_r+0x1fc>)
    1cf0:	682a      	ldr	r2, [r5, #0]
    1cf2:	1a43      	subs	r3, r0, r1
    1cf4:	2040      	movs	r0, #64	; 0x40
    1cf6:	4098      	lsls	r0, r3
    1cf8:	4310      	orrs	r0, r2
    1cfa:	6028      	str	r0, [r5, #0]
    1cfc:	3401      	adds	r4, #1
    1cfe:	7821      	ldrb	r1, [r4, #0]
    1d00:	1c63      	adds	r3, r4, #1
    1d02:	4858      	ldr	r0, [pc, #352]	; (1e64 <_vfiprintf_r+0x200>)
    1d04:	2206      	movs	r2, #6
    1d06:	9303      	str	r3, [sp, #12]
    1d08:	7629      	strb	r1, [r5, #24]
    1d0a:	f000 fe81 	bl	2a10 <memchr>
    1d0e:	2800      	cmp	r0, #0
    1d10:	d100      	bne.n	1d14 <_vfiprintf_r+0xb0>
    1d12:	e08a      	b.n	1e2a <_vfiprintf_r+0x1c6>
    1d14:	4b54      	ldr	r3, [pc, #336]	; (1e68 <_vfiprintf_r+0x204>)
    1d16:	2b00      	cmp	r3, #0
    1d18:	d17e      	bne.n	1e18 <_vfiprintf_r+0x1b4>
    1d1a:	9b05      	ldr	r3, [sp, #20]
    1d1c:	2207      	movs	r2, #7
    1d1e:	3307      	adds	r3, #7
    1d20:	4393      	bics	r3, r2
    1d22:	3308      	adds	r3, #8
    1d24:	9305      	str	r3, [sp, #20]
    1d26:	696a      	ldr	r2, [r5, #20]
    1d28:	9904      	ldr	r1, [sp, #16]
    1d2a:	1853      	adds	r3, r2, r1
    1d2c:	616b      	str	r3, [r5, #20]
    1d2e:	9c03      	ldr	r4, [sp, #12]
    1d30:	7823      	ldrb	r3, [r4, #0]
    1d32:	2b00      	cmp	r3, #0
    1d34:	d104      	bne.n	1d40 <_vfiprintf_r+0xdc>
    1d36:	9903      	ldr	r1, [sp, #12]
    1d38:	1a61      	subs	r1, r4, r1
    1d3a:	9102      	str	r1, [sp, #8]
    1d3c:	d010      	beq.n	1d60 <_vfiprintf_r+0xfc>
    1d3e:	e003      	b.n	1d48 <_vfiprintf_r+0xe4>
    1d40:	2b25      	cmp	r3, #37	; 0x25
    1d42:	d0f8      	beq.n	1d36 <_vfiprintf_r+0xd2>
    1d44:	3401      	adds	r4, #1
    1d46:	e7f3      	b.n	1d30 <_vfiprintf_r+0xcc>
    1d48:	1c30      	adds	r0, r6, #0
    1d4a:	1c39      	adds	r1, r7, #0
    1d4c:	9a03      	ldr	r2, [sp, #12]
    1d4e:	9b02      	ldr	r3, [sp, #8]
    1d50:	f7ff ff75 	bl	1c3e <__sfputs_r>
    1d54:	3001      	adds	r0, #1
    1d56:	d075      	beq.n	1e44 <_vfiprintf_r+0x1e0>
    1d58:	696a      	ldr	r2, [r5, #20]
    1d5a:	9902      	ldr	r1, [sp, #8]
    1d5c:	1853      	adds	r3, r2, r1
    1d5e:	616b      	str	r3, [r5, #20]
    1d60:	7823      	ldrb	r3, [r4, #0]
    1d62:	2b00      	cmp	r3, #0
    1d64:	d06e      	beq.n	1e44 <_vfiprintf_r+0x1e0>
    1d66:	2201      	movs	r2, #1
    1d68:	4252      	negs	r2, r2
    1d6a:	606a      	str	r2, [r5, #4]
    1d6c:	466a      	mov	r2, sp
    1d6e:	2300      	movs	r3, #0
    1d70:	325b      	adds	r2, #91	; 0x5b
    1d72:	3401      	adds	r4, #1
    1d74:	602b      	str	r3, [r5, #0]
    1d76:	60eb      	str	r3, [r5, #12]
    1d78:	60ab      	str	r3, [r5, #8]
    1d7a:	7013      	strb	r3, [r2, #0]
    1d7c:	65ab      	str	r3, [r5, #88]	; 0x58
    1d7e:	7821      	ldrb	r1, [r4, #0]
    1d80:	483a      	ldr	r0, [pc, #232]	; (1e6c <_vfiprintf_r+0x208>)
    1d82:	2205      	movs	r2, #5
    1d84:	f000 fe44 	bl	2a10 <memchr>
    1d88:	2800      	cmp	r0, #0
    1d8a:	d008      	beq.n	1d9e <_vfiprintf_r+0x13a>
    1d8c:	4a37      	ldr	r2, [pc, #220]	; (1e6c <_vfiprintf_r+0x208>)
    1d8e:	3401      	adds	r4, #1
    1d90:	1a83      	subs	r3, r0, r2
    1d92:	2001      	movs	r0, #1
    1d94:	4098      	lsls	r0, r3
    1d96:	682b      	ldr	r3, [r5, #0]
    1d98:	4318      	orrs	r0, r3
    1d9a:	6028      	str	r0, [r5, #0]
    1d9c:	e7ef      	b.n	1d7e <_vfiprintf_r+0x11a>
    1d9e:	682b      	ldr	r3, [r5, #0]
    1da0:	06d9      	lsls	r1, r3, #27
    1da2:	d503      	bpl.n	1dac <_vfiprintf_r+0x148>
    1da4:	466a      	mov	r2, sp
    1da6:	2120      	movs	r1, #32
    1da8:	325b      	adds	r2, #91	; 0x5b
    1daa:	7011      	strb	r1, [r2, #0]
    1dac:	071a      	lsls	r2, r3, #28
    1dae:	d503      	bpl.n	1db8 <_vfiprintf_r+0x154>
    1db0:	466a      	mov	r2, sp
    1db2:	212b      	movs	r1, #43	; 0x2b
    1db4:	325b      	adds	r2, #91	; 0x5b
    1db6:	7011      	strb	r1, [r2, #0]
    1db8:	7822      	ldrb	r2, [r4, #0]
    1dba:	2a2a      	cmp	r2, #42	; 0x2a
    1dbc:	d084      	beq.n	1cc8 <_vfiprintf_r+0x64>
    1dbe:	9b09      	ldr	r3, [sp, #36]	; 0x24
    1dc0:	e005      	b.n	1dce <_vfiprintf_r+0x16a>
    1dc2:	4252      	negs	r2, r2
    1dc4:	60ea      	str	r2, [r5, #12]
    1dc6:	2202      	movs	r2, #2
    1dc8:	4313      	orrs	r3, r2
    1dca:	602b      	str	r3, [r5, #0]
    1dcc:	e783      	b.n	1cd6 <_vfiprintf_r+0x72>
    1dce:	7822      	ldrb	r2, [r4, #0]
    1dd0:	3a30      	subs	r2, #48	; 0x30
    1dd2:	2a09      	cmp	r2, #9
    1dd4:	d804      	bhi.n	1de0 <_vfiprintf_r+0x17c>
    1dd6:	210a      	movs	r1, #10
    1dd8:	434b      	muls	r3, r1
    1dda:	3401      	adds	r4, #1
    1ddc:	189b      	adds	r3, r3, r2
    1dde:	e7f6      	b.n	1dce <_vfiprintf_r+0x16a>
    1de0:	9309      	str	r3, [sp, #36]	; 0x24
    1de2:	e779      	b.n	1cd8 <_vfiprintf_r+0x74>
    1de4:	7863      	ldrb	r3, [r4, #1]
    1de6:	2b2a      	cmp	r3, #42	; 0x2a
    1de8:	d109      	bne.n	1dfe <_vfiprintf_r+0x19a>
    1dea:	9b05      	ldr	r3, [sp, #20]
    1dec:	3402      	adds	r4, #2
    1dee:	1d1a      	adds	r2, r3, #4
    1df0:	681b      	ldr	r3, [r3, #0]
    1df2:	9205      	str	r2, [sp, #20]
    1df4:	2b00      	cmp	r3, #0
    1df6:	da0d      	bge.n	1e14 <_vfiprintf_r+0x1b0>
    1df8:	2301      	movs	r3, #1
    1dfa:	425b      	negs	r3, r3
    1dfc:	e00a      	b.n	1e14 <_vfiprintf_r+0x1b0>
    1dfe:	3401      	adds	r4, #1
    1e00:	2300      	movs	r3, #0
    1e02:	7822      	ldrb	r2, [r4, #0]
    1e04:	3a30      	subs	r2, #48	; 0x30
    1e06:	2a09      	cmp	r2, #9
    1e08:	d804      	bhi.n	1e14 <_vfiprintf_r+0x1b0>
    1e0a:	210a      	movs	r1, #10
    1e0c:	434b      	muls	r3, r1
    1e0e:	3401      	adds	r4, #1
    1e10:	189b      	adds	r3, r3, r2
    1e12:	e7f6      	b.n	1e02 <_vfiprintf_r+0x19e>
    1e14:	9307      	str	r3, [sp, #28]
    1e16:	e763      	b.n	1ce0 <_vfiprintf_r+0x7c>
    1e18:	ab05      	add	r3, sp, #20
    1e1a:	9300      	str	r3, [sp, #0]
    1e1c:	1c30      	adds	r0, r6, #0
    1e1e:	1c29      	adds	r1, r5, #0
    1e20:	1c3a      	adds	r2, r7, #0
    1e22:	4b13      	ldr	r3, [pc, #76]	; (1e70 <_vfiprintf_r+0x20c>)
    1e24:	e000      	b.n	1e28 <_vfiprintf_r+0x1c4>
    1e26:	bf00      	nop
    1e28:	e007      	b.n	1e3a <_vfiprintf_r+0x1d6>
    1e2a:	ab05      	add	r3, sp, #20
    1e2c:	9300      	str	r3, [sp, #0]
    1e2e:	1c30      	adds	r0, r6, #0
    1e30:	1c29      	adds	r1, r5, #0
    1e32:	1c3a      	adds	r2, r7, #0
    1e34:	4b0e      	ldr	r3, [pc, #56]	; (1e70 <_vfiprintf_r+0x20c>)
    1e36:	f000 f89f 	bl	1f78 <_printf_i>
    1e3a:	9004      	str	r0, [sp, #16]
    1e3c:	9904      	ldr	r1, [sp, #16]
    1e3e:	3101      	adds	r1, #1
    1e40:	d000      	beq.n	1e44 <_vfiprintf_r+0x1e0>
    1e42:	e770      	b.n	1d26 <_vfiprintf_r+0xc2>
    1e44:	89bb      	ldrh	r3, [r7, #12]
    1e46:	065a      	lsls	r2, r3, #25
    1e48:	d500      	bpl.n	1e4c <_vfiprintf_r+0x1e8>
    1e4a:	e73a      	b.n	1cc2 <_vfiprintf_r+0x5e>
    1e4c:	980b      	ldr	r0, [sp, #44]	; 0x2c
    1e4e:	b01f      	add	sp, #124	; 0x7c
    1e50:	bdf0      	pop	{r4, r5, r6, r7, pc}
    1e52:	46c0      	nop			; (mov r8, r8)
    1e54:	000030f4 	.word	0x000030f4
    1e58:	00003114 	.word	0x00003114
    1e5c:	00003134 	.word	0x00003134
    1e60:	00003162 	.word	0x00003162
    1e64:	00003166 	.word	0x00003166
    1e68:	00000000 	.word	0x00000000
    1e6c:	0000315c 	.word	0x0000315c
    1e70:	00001c3f 	.word	0x00001c3f

00001e74 <vfiprintf>:
    1e74:	b538      	push	{r3, r4, r5, lr}
    1e76:	1c13      	adds	r3, r2, #0
    1e78:	4a04      	ldr	r2, [pc, #16]	; (1e8c <vfiprintf+0x18>)
    1e7a:	1c05      	adds	r5, r0, #0
    1e7c:	1c0c      	adds	r4, r1, #0
    1e7e:	6810      	ldr	r0, [r2, #0]
    1e80:	1c29      	adds	r1, r5, #0
    1e82:	1c22      	adds	r2, r4, #0
    1e84:	f7ff feee 	bl	1c64 <_vfiprintf_r>
    1e88:	bd38      	pop	{r3, r4, r5, pc}
    1e8a:	46c0      	nop			; (mov r8, r8)
    1e8c:	1ffff12c 	.word	0x1ffff12c

00001e90 <_printf_common>:
    1e90:	b5f7      	push	{r0, r1, r2, r4, r5, r6, r7, lr}
    1e92:	1c15      	adds	r5, r2, #0
    1e94:	9301      	str	r3, [sp, #4]
    1e96:	690a      	ldr	r2, [r1, #16]
    1e98:	688b      	ldr	r3, [r1, #8]
    1e9a:	1c06      	adds	r6, r0, #0
    1e9c:	1c0c      	adds	r4, r1, #0
    1e9e:	4293      	cmp	r3, r2
    1ea0:	da00      	bge.n	1ea4 <_printf_common+0x14>
    1ea2:	1c13      	adds	r3, r2, #0
    1ea4:	1c22      	adds	r2, r4, #0
    1ea6:	602b      	str	r3, [r5, #0]
    1ea8:	3243      	adds	r2, #67	; 0x43
    1eaa:	7812      	ldrb	r2, [r2, #0]
    1eac:	2a00      	cmp	r2, #0
    1eae:	d001      	beq.n	1eb4 <_printf_common+0x24>
    1eb0:	3301      	adds	r3, #1
    1eb2:	602b      	str	r3, [r5, #0]
    1eb4:	6820      	ldr	r0, [r4, #0]
    1eb6:	0680      	lsls	r0, r0, #26
    1eb8:	d502      	bpl.n	1ec0 <_printf_common+0x30>
    1eba:	682b      	ldr	r3, [r5, #0]
    1ebc:	3302      	adds	r3, #2
    1ebe:	602b      	str	r3, [r5, #0]
    1ec0:	6821      	ldr	r1, [r4, #0]
    1ec2:	2706      	movs	r7, #6
    1ec4:	400f      	ands	r7, r1
    1ec6:	d01f      	beq.n	1f08 <_printf_common+0x78>
    1ec8:	1c23      	adds	r3, r4, #0
    1eca:	3343      	adds	r3, #67	; 0x43
    1ecc:	781b      	ldrb	r3, [r3, #0]
    1ece:	1e5a      	subs	r2, r3, #1
    1ed0:	4193      	sbcs	r3, r2
    1ed2:	6822      	ldr	r2, [r4, #0]
    1ed4:	0692      	lsls	r2, r2, #26
    1ed6:	d51f      	bpl.n	1f18 <_printf_common+0x88>
    1ed8:	18e1      	adds	r1, r4, r3
    1eda:	3140      	adds	r1, #64	; 0x40
    1edc:	2030      	movs	r0, #48	; 0x30
    1ede:	70c8      	strb	r0, [r1, #3]
    1ee0:	1c21      	adds	r1, r4, #0
    1ee2:	1c5a      	adds	r2, r3, #1
    1ee4:	3145      	adds	r1, #69	; 0x45
    1ee6:	7809      	ldrb	r1, [r1, #0]
    1ee8:	18a2      	adds	r2, r4, r2
    1eea:	3240      	adds	r2, #64	; 0x40
    1eec:	3302      	adds	r3, #2
    1eee:	70d1      	strb	r1, [r2, #3]
    1ef0:	e012      	b.n	1f18 <_printf_common+0x88>
    1ef2:	1c22      	adds	r2, r4, #0
    1ef4:	1c30      	adds	r0, r6, #0
    1ef6:	9901      	ldr	r1, [sp, #4]
    1ef8:	3219      	adds	r2, #25
    1efa:	2301      	movs	r3, #1
    1efc:	9f08      	ldr	r7, [sp, #32]
    1efe:	47b8      	blx	r7
    1f00:	3001      	adds	r0, #1
    1f02:	d011      	beq.n	1f28 <_printf_common+0x98>
    1f04:	9f00      	ldr	r7, [sp, #0]
    1f06:	3701      	adds	r7, #1
    1f08:	9700      	str	r7, [sp, #0]
    1f0a:	68e0      	ldr	r0, [r4, #12]
    1f0c:	6829      	ldr	r1, [r5, #0]
    1f0e:	9f00      	ldr	r7, [sp, #0]
    1f10:	1a43      	subs	r3, r0, r1
    1f12:	429f      	cmp	r7, r3
    1f14:	dbed      	blt.n	1ef2 <_printf_common+0x62>
    1f16:	e7d7      	b.n	1ec8 <_printf_common+0x38>
    1f18:	1c22      	adds	r2, r4, #0
    1f1a:	1c30      	adds	r0, r6, #0
    1f1c:	9901      	ldr	r1, [sp, #4]
    1f1e:	3243      	adds	r2, #67	; 0x43
    1f20:	9f08      	ldr	r7, [sp, #32]
    1f22:	47b8      	blx	r7
    1f24:	3001      	adds	r0, #1
    1f26:	d102      	bne.n	1f2e <_printf_common+0x9e>
    1f28:	2001      	movs	r0, #1
    1f2a:	4240      	negs	r0, r0
    1f2c:	e023      	b.n	1f76 <_printf_common+0xe6>
    1f2e:	6820      	ldr	r0, [r4, #0]
    1f30:	2106      	movs	r1, #6
    1f32:	682b      	ldr	r3, [r5, #0]
    1f34:	68e2      	ldr	r2, [r4, #12]
    1f36:	4001      	ands	r1, r0
    1f38:	2500      	movs	r5, #0
    1f3a:	2904      	cmp	r1, #4
    1f3c:	d103      	bne.n	1f46 <_printf_common+0xb6>
    1f3e:	1ad5      	subs	r5, r2, r3
    1f40:	43eb      	mvns	r3, r5
    1f42:	17db      	asrs	r3, r3, #31
    1f44:	401d      	ands	r5, r3
    1f46:	68a2      	ldr	r2, [r4, #8]
    1f48:	6923      	ldr	r3, [r4, #16]
    1f4a:	429a      	cmp	r2, r3
    1f4c:	dd01      	ble.n	1f52 <_printf_common+0xc2>
    1f4e:	1ad3      	subs	r3, r2, r3
    1f50:	18ed      	adds	r5, r5, r3
    1f52:	2700      	movs	r7, #0
    1f54:	9700      	str	r7, [sp, #0]
    1f56:	9f00      	ldr	r7, [sp, #0]
    1f58:	42af      	cmp	r7, r5
    1f5a:	da0b      	bge.n	1f74 <_printf_common+0xe4>
    1f5c:	1c22      	adds	r2, r4, #0
    1f5e:	1c30      	adds	r0, r6, #0
    1f60:	9901      	ldr	r1, [sp, #4]
    1f62:	321a      	adds	r2, #26
    1f64:	2301      	movs	r3, #1
    1f66:	9f08      	ldr	r7, [sp, #32]
    1f68:	47b8      	blx	r7
    1f6a:	3001      	adds	r0, #1
    1f6c:	d0dc      	beq.n	1f28 <_printf_common+0x98>
    1f6e:	9f00      	ldr	r7, [sp, #0]
    1f70:	3701      	adds	r7, #1
    1f72:	e7ef      	b.n	1f54 <_printf_common+0xc4>
    1f74:	2000      	movs	r0, #0
    1f76:	bdfe      	pop	{r1, r2, r3, r4, r5, r6, r7, pc}

00001f78 <_printf_i>:
    1f78:	b5f0      	push	{r4, r5, r6, r7, lr}
    1f7a:	1c0d      	adds	r5, r1, #0
    1f7c:	b08b      	sub	sp, #44	; 0x2c
    1f7e:	3543      	adds	r5, #67	; 0x43
    1f80:	9206      	str	r2, [sp, #24]
    1f82:	9005      	str	r0, [sp, #20]
    1f84:	9307      	str	r3, [sp, #28]
    1f86:	9504      	str	r5, [sp, #16]
    1f88:	7e0b      	ldrb	r3, [r1, #24]
    1f8a:	1c0c      	adds	r4, r1, #0
    1f8c:	9a10      	ldr	r2, [sp, #64]	; 0x40
    1f8e:	2b6e      	cmp	r3, #110	; 0x6e
    1f90:	d100      	bne.n	1f94 <_printf_i+0x1c>
    1f92:	e0a7      	b.n	20e4 <_printf_i+0x16c>
    1f94:	d811      	bhi.n	1fba <_printf_i+0x42>
    1f96:	2b63      	cmp	r3, #99	; 0x63
    1f98:	d022      	beq.n	1fe0 <_printf_i+0x68>
    1f9a:	d809      	bhi.n	1fb0 <_printf_i+0x38>
    1f9c:	2b00      	cmp	r3, #0
    1f9e:	d100      	bne.n	1fa2 <_printf_i+0x2a>
    1fa0:	e0b0      	b.n	2104 <_printf_i+0x18c>
    1fa2:	2b58      	cmp	r3, #88	; 0x58
    1fa4:	d000      	beq.n	1fa8 <_printf_i+0x30>
    1fa6:	e0c0      	b.n	212a <_printf_i+0x1b2>
    1fa8:	3145      	adds	r1, #69	; 0x45
    1faa:	700b      	strb	r3, [r1, #0]
    1fac:	4d7b      	ldr	r5, [pc, #492]	; (219c <_printf_i+0x224>)
    1fae:	e04e      	b.n	204e <_printf_i+0xd6>
    1fb0:	2b64      	cmp	r3, #100	; 0x64
    1fb2:	d01c      	beq.n	1fee <_printf_i+0x76>
    1fb4:	2b69      	cmp	r3, #105	; 0x69
    1fb6:	d01a      	beq.n	1fee <_printf_i+0x76>
    1fb8:	e0b7      	b.n	212a <_printf_i+0x1b2>
    1fba:	2b73      	cmp	r3, #115	; 0x73
    1fbc:	d100      	bne.n	1fc0 <_printf_i+0x48>
    1fbe:	e0a5      	b.n	210c <_printf_i+0x194>
    1fc0:	d809      	bhi.n	1fd6 <_printf_i+0x5e>
    1fc2:	2b6f      	cmp	r3, #111	; 0x6f
    1fc4:	d029      	beq.n	201a <_printf_i+0xa2>
    1fc6:	2b70      	cmp	r3, #112	; 0x70
    1fc8:	d000      	beq.n	1fcc <_printf_i+0x54>
    1fca:	e0ae      	b.n	212a <_printf_i+0x1b2>
    1fcc:	680e      	ldr	r6, [r1, #0]
    1fce:	2320      	movs	r3, #32
    1fd0:	4333      	orrs	r3, r6
    1fd2:	600b      	str	r3, [r1, #0]
    1fd4:	e036      	b.n	2044 <_printf_i+0xcc>
    1fd6:	2b75      	cmp	r3, #117	; 0x75
    1fd8:	d01f      	beq.n	201a <_printf_i+0xa2>
    1fda:	2b78      	cmp	r3, #120	; 0x78
    1fdc:	d032      	beq.n	2044 <_printf_i+0xcc>
    1fde:	e0a4      	b.n	212a <_printf_i+0x1b2>
    1fe0:	6813      	ldr	r3, [r2, #0]
    1fe2:	1c0d      	adds	r5, r1, #0
    1fe4:	1d19      	adds	r1, r3, #4
    1fe6:	3542      	adds	r5, #66	; 0x42
    1fe8:	6011      	str	r1, [r2, #0]
    1fea:	681b      	ldr	r3, [r3, #0]
    1fec:	e09f      	b.n	212e <_printf_i+0x1b6>
    1fee:	6821      	ldr	r1, [r4, #0]
    1ff0:	6813      	ldr	r3, [r2, #0]
    1ff2:	060e      	lsls	r6, r1, #24
    1ff4:	d503      	bpl.n	1ffe <_printf_i+0x86>
    1ff6:	1d19      	adds	r1, r3, #4
    1ff8:	6011      	str	r1, [r2, #0]
    1ffa:	681e      	ldr	r6, [r3, #0]
    1ffc:	e005      	b.n	200a <_printf_i+0x92>
    1ffe:	0648      	lsls	r0, r1, #25
    2000:	d5f9      	bpl.n	1ff6 <_printf_i+0x7e>
    2002:	1d19      	adds	r1, r3, #4
    2004:	6011      	str	r1, [r2, #0]
    2006:	2100      	movs	r1, #0
    2008:	5e5e      	ldrsh	r6, [r3, r1]
    200a:	4b64      	ldr	r3, [pc, #400]	; (219c <_printf_i+0x224>)
    200c:	2e00      	cmp	r6, #0
    200e:	da3b      	bge.n	2088 <_printf_i+0x110>
    2010:	9d04      	ldr	r5, [sp, #16]
    2012:	222d      	movs	r2, #45	; 0x2d
    2014:	4276      	negs	r6, r6
    2016:	702a      	strb	r2, [r5, #0]
    2018:	e036      	b.n	2088 <_printf_i+0x110>
    201a:	6821      	ldr	r1, [r4, #0]
    201c:	6813      	ldr	r3, [r2, #0]
    201e:	060e      	lsls	r6, r1, #24
    2020:	d503      	bpl.n	202a <_printf_i+0xb2>
    2022:	1d19      	adds	r1, r3, #4
    2024:	6011      	str	r1, [r2, #0]
    2026:	681e      	ldr	r6, [r3, #0]
    2028:	e004      	b.n	2034 <_printf_i+0xbc>
    202a:	0648      	lsls	r0, r1, #25
    202c:	d5f9      	bpl.n	2022 <_printf_i+0xaa>
    202e:	1d19      	adds	r1, r3, #4
    2030:	881e      	ldrh	r6, [r3, #0]
    2032:	6011      	str	r1, [r2, #0]
    2034:	4b59      	ldr	r3, [pc, #356]	; (219c <_printf_i+0x224>)
    2036:	7e22      	ldrb	r2, [r4, #24]
    2038:	9303      	str	r3, [sp, #12]
    203a:	2708      	movs	r7, #8
    203c:	2a6f      	cmp	r2, #111	; 0x6f
    203e:	d01e      	beq.n	207e <_printf_i+0x106>
    2040:	270a      	movs	r7, #10
    2042:	e01c      	b.n	207e <_printf_i+0x106>
    2044:	1c23      	adds	r3, r4, #0
    2046:	2178      	movs	r1, #120	; 0x78
    2048:	3345      	adds	r3, #69	; 0x45
    204a:	4d55      	ldr	r5, [pc, #340]	; (21a0 <_printf_i+0x228>)
    204c:	7019      	strb	r1, [r3, #0]
    204e:	6811      	ldr	r1, [r2, #0]
    2050:	6823      	ldr	r3, [r4, #0]
    2052:	1d08      	adds	r0, r1, #4
    2054:	9503      	str	r5, [sp, #12]
    2056:	6010      	str	r0, [r2, #0]
    2058:	061e      	lsls	r6, r3, #24
    205a:	d501      	bpl.n	2060 <_printf_i+0xe8>
    205c:	680e      	ldr	r6, [r1, #0]
    205e:	e002      	b.n	2066 <_printf_i+0xee>
    2060:	0658      	lsls	r0, r3, #25
    2062:	d5fb      	bpl.n	205c <_printf_i+0xe4>
    2064:	880e      	ldrh	r6, [r1, #0]
    2066:	07d9      	lsls	r1, r3, #31
    2068:	d502      	bpl.n	2070 <_printf_i+0xf8>
    206a:	2220      	movs	r2, #32
    206c:	4313      	orrs	r3, r2
    206e:	6023      	str	r3, [r4, #0]
    2070:	2710      	movs	r7, #16
    2072:	2e00      	cmp	r6, #0
    2074:	d103      	bne.n	207e <_printf_i+0x106>
    2076:	6822      	ldr	r2, [r4, #0]
    2078:	2320      	movs	r3, #32
    207a:	439a      	bics	r2, r3
    207c:	6022      	str	r2, [r4, #0]
    207e:	1c23      	adds	r3, r4, #0
    2080:	2200      	movs	r2, #0
    2082:	3343      	adds	r3, #67	; 0x43
    2084:	701a      	strb	r2, [r3, #0]
    2086:	e001      	b.n	208c <_printf_i+0x114>
    2088:	9303      	str	r3, [sp, #12]
    208a:	270a      	movs	r7, #10
    208c:	6863      	ldr	r3, [r4, #4]
    208e:	60a3      	str	r3, [r4, #8]
    2090:	2b00      	cmp	r3, #0
    2092:	db03      	blt.n	209c <_printf_i+0x124>
    2094:	6825      	ldr	r5, [r4, #0]
    2096:	2204      	movs	r2, #4
    2098:	4395      	bics	r5, r2
    209a:	6025      	str	r5, [r4, #0]
    209c:	2e00      	cmp	r6, #0
    209e:	d102      	bne.n	20a6 <_printf_i+0x12e>
    20a0:	9d04      	ldr	r5, [sp, #16]
    20a2:	2b00      	cmp	r3, #0
    20a4:	d00e      	beq.n	20c4 <_printf_i+0x14c>
    20a6:	9d04      	ldr	r5, [sp, #16]
    20a8:	1c30      	adds	r0, r6, #0
    20aa:	1c39      	adds	r1, r7, #0
    20ac:	f7ff f8ca 	bl	1244 <__aeabi_uidivmod>
    20b0:	9803      	ldr	r0, [sp, #12]
    20b2:	3d01      	subs	r5, #1
    20b4:	5c43      	ldrb	r3, [r0, r1]
    20b6:	1c30      	adds	r0, r6, #0
    20b8:	702b      	strb	r3, [r5, #0]
    20ba:	1c39      	adds	r1, r7, #0
    20bc:	f7ff f87e 	bl	11bc <__aeabi_uidiv>
    20c0:	1e06      	subs	r6, r0, #0
    20c2:	d1f1      	bne.n	20a8 <_printf_i+0x130>
    20c4:	2f08      	cmp	r7, #8
    20c6:	d109      	bne.n	20dc <_printf_i+0x164>
    20c8:	6821      	ldr	r1, [r4, #0]
    20ca:	07c9      	lsls	r1, r1, #31
    20cc:	d506      	bpl.n	20dc <_printf_i+0x164>
    20ce:	6862      	ldr	r2, [r4, #4]
    20d0:	6923      	ldr	r3, [r4, #16]
    20d2:	429a      	cmp	r2, r3
    20d4:	dc02      	bgt.n	20dc <_printf_i+0x164>
    20d6:	3d01      	subs	r5, #1
    20d8:	2330      	movs	r3, #48	; 0x30
    20da:	702b      	strb	r3, [r5, #0]
    20dc:	9e04      	ldr	r6, [sp, #16]
    20de:	1b73      	subs	r3, r6, r5
    20e0:	6123      	str	r3, [r4, #16]
    20e2:	e02a      	b.n	213a <_printf_i+0x1c2>
    20e4:	6808      	ldr	r0, [r1, #0]
    20e6:	6813      	ldr	r3, [r2, #0]
    20e8:	6949      	ldr	r1, [r1, #20]
    20ea:	0605      	lsls	r5, r0, #24
    20ec:	d504      	bpl.n	20f8 <_printf_i+0x180>
    20ee:	1d18      	adds	r0, r3, #4
    20f0:	6010      	str	r0, [r2, #0]
    20f2:	681b      	ldr	r3, [r3, #0]
    20f4:	6019      	str	r1, [r3, #0]
    20f6:	e005      	b.n	2104 <_printf_i+0x18c>
    20f8:	0646      	lsls	r6, r0, #25
    20fa:	d5f8      	bpl.n	20ee <_printf_i+0x176>
    20fc:	1d18      	adds	r0, r3, #4
    20fe:	6010      	str	r0, [r2, #0]
    2100:	681b      	ldr	r3, [r3, #0]
    2102:	8019      	strh	r1, [r3, #0]
    2104:	2300      	movs	r3, #0
    2106:	6123      	str	r3, [r4, #16]
    2108:	9d04      	ldr	r5, [sp, #16]
    210a:	e016      	b.n	213a <_printf_i+0x1c2>
    210c:	6813      	ldr	r3, [r2, #0]
    210e:	1d19      	adds	r1, r3, #4
    2110:	6011      	str	r1, [r2, #0]
    2112:	681d      	ldr	r5, [r3, #0]
    2114:	1c28      	adds	r0, r5, #0
    2116:	f7ff fcc5 	bl	1aa4 <strlen>
    211a:	6863      	ldr	r3, [r4, #4]
    211c:	6120      	str	r0, [r4, #16]
    211e:	4298      	cmp	r0, r3
    2120:	d900      	bls.n	2124 <_printf_i+0x1ac>
    2122:	6123      	str	r3, [r4, #16]
    2124:	6920      	ldr	r0, [r4, #16]
    2126:	6060      	str	r0, [r4, #4]
    2128:	e004      	b.n	2134 <_printf_i+0x1bc>
    212a:	1c25      	adds	r5, r4, #0
    212c:	3542      	adds	r5, #66	; 0x42
    212e:	702b      	strb	r3, [r5, #0]
    2130:	2301      	movs	r3, #1
    2132:	6123      	str	r3, [r4, #16]
    2134:	9e04      	ldr	r6, [sp, #16]
    2136:	2300      	movs	r3, #0
    2138:	7033      	strb	r3, [r6, #0]
    213a:	9e07      	ldr	r6, [sp, #28]
    213c:	9805      	ldr	r0, [sp, #20]
    213e:	9600      	str	r6, [sp, #0]
    2140:	1c21      	adds	r1, r4, #0
    2142:	aa09      	add	r2, sp, #36	; 0x24
    2144:	9b06      	ldr	r3, [sp, #24]
    2146:	f7ff fea3 	bl	1e90 <_printf_common>
    214a:	3001      	adds	r0, #1
    214c:	d102      	bne.n	2154 <_printf_i+0x1dc>
    214e:	2001      	movs	r0, #1
    2150:	4240      	negs	r0, r0
    2152:	e021      	b.n	2198 <_printf_i+0x220>
    2154:	1c2a      	adds	r2, r5, #0
    2156:	9805      	ldr	r0, [sp, #20]
    2158:	9906      	ldr	r1, [sp, #24]
    215a:	6923      	ldr	r3, [r4, #16]
    215c:	9d07      	ldr	r5, [sp, #28]
    215e:	47a8      	blx	r5
    2160:	3001      	adds	r0, #1
    2162:	d0f4      	beq.n	214e <_printf_i+0x1d6>
    2164:	6826      	ldr	r6, [r4, #0]
    2166:	07b6      	lsls	r6, r6, #30
    2168:	d405      	bmi.n	2176 <_printf_i+0x1fe>
    216a:	9b09      	ldr	r3, [sp, #36]	; 0x24
    216c:	68e0      	ldr	r0, [r4, #12]
    216e:	4298      	cmp	r0, r3
    2170:	da12      	bge.n	2198 <_printf_i+0x220>
    2172:	1c18      	adds	r0, r3, #0
    2174:	e010      	b.n	2198 <_printf_i+0x220>
    2176:	2500      	movs	r5, #0
    2178:	68e0      	ldr	r0, [r4, #12]
    217a:	9909      	ldr	r1, [sp, #36]	; 0x24
    217c:	1a43      	subs	r3, r0, r1
    217e:	429d      	cmp	r5, r3
    2180:	daf3      	bge.n	216a <_printf_i+0x1f2>
    2182:	1c22      	adds	r2, r4, #0
    2184:	9805      	ldr	r0, [sp, #20]
    2186:	9906      	ldr	r1, [sp, #24]
    2188:	3219      	adds	r2, #25
    218a:	2301      	movs	r3, #1
    218c:	9e07      	ldr	r6, [sp, #28]
    218e:	47b0      	blx	r6
    2190:	3001      	adds	r0, #1
    2192:	d0dc      	beq.n	214e <_printf_i+0x1d6>
    2194:	3501      	adds	r5, #1
    2196:	e7ef      	b.n	2178 <_printf_i+0x200>
    2198:	b00b      	add	sp, #44	; 0x2c
    219a:	bdf0      	pop	{r4, r5, r6, r7, pc}
    219c:	0000316d 	.word	0x0000316d
    21a0:	0000317e 	.word	0x0000317e

000021a4 <__svfiscanf_r>:
    21a4:	b5f0      	push	{r4, r5, r6, r7, lr}
    21a6:	4ca5      	ldr	r4, [pc, #660]	; (243c <__svfiscanf_r+0x298>)
    21a8:	1c07      	adds	r7, r0, #0
    21aa:	44a5      	add	sp, r4
    21ac:	9301      	str	r3, [sp, #4]
    21ae:	2300      	movs	r3, #0
    21b0:	9200      	str	r2, [sp, #0]
    21b2:	9346      	str	r3, [sp, #280]	; 0x118
    21b4:	4aa2      	ldr	r2, [pc, #648]	; (2440 <__svfiscanf_r+0x29c>)
    21b6:	9347      	str	r3, [sp, #284]	; 0x11c
    21b8:	23be      	movs	r3, #190	; 0xbe
    21ba:	005b      	lsls	r3, r3, #1
    21bc:	1c0c      	adds	r4, r1, #0
    21be:	a943      	add	r1, sp, #268	; 0x10c
    21c0:	50ca      	str	r2, [r1, r3]
    21c2:	4aa0      	ldr	r2, [pc, #640]	; (2444 <__svfiscanf_r+0x2a0>)
    21c4:	23c0      	movs	r3, #192	; 0xc0
    21c6:	a803      	add	r0, sp, #12
    21c8:	005b      	lsls	r3, r3, #1
    21ca:	9048      	str	r0, [sp, #288]	; 0x120
    21cc:	50ca      	str	r2, [r1, r3]
    21ce:	9a00      	ldr	r2, [sp, #0]
    21d0:	7815      	ldrb	r5, [r2, #0]
    21d2:	2d00      	cmp	r5, #0
    21d4:	d100      	bne.n	21d8 <__svfiscanf_r+0x34>
    21d6:	e128      	b.n	242a <__svfiscanf_r+0x286>
    21d8:	4e9b      	ldr	r6, [pc, #620]	; (2448 <__svfiscanf_r+0x2a4>)
    21da:	6830      	ldr	r0, [r6, #0]
    21dc:	1943      	adds	r3, r0, r5
    21de:	785a      	ldrb	r2, [r3, #1]
    21e0:	2308      	movs	r3, #8
    21e2:	4013      	ands	r3, r2
    21e4:	d01f      	beq.n	2226 <__svfiscanf_r+0x82>
    21e6:	6861      	ldr	r1, [r4, #4]
    21e8:	2900      	cmp	r1, #0
    21ea:	dd0f      	ble.n	220c <__svfiscanf_r+0x68>
    21ec:	6823      	ldr	r3, [r4, #0]
    21ee:	6830      	ldr	r0, [r6, #0]
    21f0:	781a      	ldrb	r2, [r3, #0]
    21f2:	1882      	adds	r2, r0, r2
    21f4:	7852      	ldrb	r2, [r2, #1]
    21f6:	0711      	lsls	r1, r2, #28
    21f8:	d511      	bpl.n	221e <__svfiscanf_r+0x7a>
    21fa:	9a47      	ldr	r2, [sp, #284]	; 0x11c
    21fc:	3301      	adds	r3, #1
    21fe:	3201      	adds	r2, #1
    2200:	9247      	str	r2, [sp, #284]	; 0x11c
    2202:	6862      	ldr	r2, [r4, #4]
    2204:	6023      	str	r3, [r4, #0]
    2206:	3a01      	subs	r2, #1
    2208:	6062      	str	r2, [r4, #4]
    220a:	e7ec      	b.n	21e6 <__svfiscanf_r+0x42>
    220c:	23c0      	movs	r3, #192	; 0xc0
    220e:	005b      	lsls	r3, r3, #1
    2210:	aa43      	add	r2, sp, #268	; 0x10c
    2212:	58d3      	ldr	r3, [r2, r3]
    2214:	1c38      	adds	r0, r7, #0
    2216:	1c21      	adds	r1, r4, #0
    2218:	4798      	blx	r3
    221a:	2800      	cmp	r0, #0
    221c:	d0e6      	beq.n	21ec <__svfiscanf_r+0x48>
    221e:	9e00      	ldr	r6, [sp, #0]
    2220:	3601      	adds	r6, #1
    2222:	9600      	str	r6, [sp, #0]
    2224:	e7d3      	b.n	21ce <__svfiscanf_r+0x2a>
    2226:	9e00      	ldr	r6, [sp, #0]
    2228:	3601      	adds	r6, #1
    222a:	2d25      	cmp	r5, #37	; 0x25
    222c:	d14c      	bne.n	22c8 <__svfiscanf_r+0x124>
    222e:	9800      	ldr	r0, [sp, #0]
    2230:	9345      	str	r3, [sp, #276]	; 0x114
    2232:	9343      	str	r3, [sp, #268]	; 0x10c
    2234:	7843      	ldrb	r3, [r0, #1]
    2236:	2b2a      	cmp	r3, #42	; 0x2a
    2238:	d103      	bne.n	2242 <__svfiscanf_r+0x9e>
    223a:	2310      	movs	r3, #16
    223c:	1c06      	adds	r6, r0, #0
    223e:	9343      	str	r3, [sp, #268]	; 0x10c
    2240:	3602      	adds	r6, #2
    2242:	1c35      	adds	r5, r6, #0
    2244:	7829      	ldrb	r1, [r5, #0]
    2246:	1c0b      	adds	r3, r1, #0
    2248:	3b30      	subs	r3, #48	; 0x30
    224a:	2b09      	cmp	r3, #9
    224c:	d807      	bhi.n	225e <__svfiscanf_r+0xba>
    224e:	9a45      	ldr	r2, [sp, #276]	; 0x114
    2250:	230a      	movs	r3, #10
    2252:	4353      	muls	r3, r2
    2254:	3b30      	subs	r3, #48	; 0x30
    2256:	1859      	adds	r1, r3, r1
    2258:	9145      	str	r1, [sp, #276]	; 0x114
    225a:	3501      	adds	r5, #1
    225c:	e7f2      	b.n	2244 <__svfiscanf_r+0xa0>
    225e:	4e7b      	ldr	r6, [pc, #492]	; (244c <__svfiscanf_r+0x2a8>)
    2260:	2203      	movs	r2, #3
    2262:	1c30      	adds	r0, r6, #0
    2264:	f000 fbd4 	bl	2a10 <memchr>
    2268:	2800      	cmp	r0, #0
    226a:	d006      	beq.n	227a <__svfiscanf_r+0xd6>
    226c:	1b86      	subs	r6, r0, r6
    226e:	9b43      	ldr	r3, [sp, #268]	; 0x10c
    2270:	2001      	movs	r0, #1
    2272:	40b0      	lsls	r0, r6
    2274:	4318      	orrs	r0, r3
    2276:	9043      	str	r0, [sp, #268]	; 0x10c
    2278:	3501      	adds	r5, #1
    227a:	1c6e      	adds	r6, r5, #1
    227c:	782d      	ldrb	r5, [r5, #0]
    227e:	2d67      	cmp	r5, #103	; 0x67
    2280:	d80f      	bhi.n	22a2 <__svfiscanf_r+0xfe>
    2282:	2d65      	cmp	r5, #101	; 0x65
    2284:	d277      	bcs.n	2376 <__svfiscanf_r+0x1d2>
    2286:	2d5b      	cmp	r5, #91	; 0x5b
    2288:	d051      	beq.n	232e <__svfiscanf_r+0x18a>
    228a:	d805      	bhi.n	2298 <__svfiscanf_r+0xf4>
    228c:	2d00      	cmp	r5, #0
    228e:	d100      	bne.n	2292 <__svfiscanf_r+0xee>
    2290:	e0cd      	b.n	242e <__svfiscanf_r+0x28a>
    2292:	2d25      	cmp	r5, #37	; 0x25
    2294:	d018      	beq.n	22c8 <__svfiscanf_r+0x124>
    2296:	e070      	b.n	237a <__svfiscanf_r+0x1d6>
    2298:	2d63      	cmp	r5, #99	; 0x63
    229a:	d054      	beq.n	2346 <__svfiscanf_r+0x1a2>
    229c:	2d64      	cmp	r5, #100	; 0x64
    229e:	d03d      	beq.n	231c <__svfiscanf_r+0x178>
    22a0:	e06b      	b.n	237a <__svfiscanf_r+0x1d6>
    22a2:	2d70      	cmp	r5, #112	; 0x70
    22a4:	d02f      	beq.n	2306 <__svfiscanf_r+0x162>
    22a6:	d807      	bhi.n	22b8 <__svfiscanf_r+0x114>
    22a8:	2d6e      	cmp	r5, #110	; 0x6e
    22aa:	d052      	beq.n	2352 <__svfiscanf_r+0x1ae>
    22ac:	d838      	bhi.n	2320 <__svfiscanf_r+0x17c>
    22ae:	2d69      	cmp	r5, #105	; 0x69
    22b0:	d163      	bne.n	237a <__svfiscanf_r+0x1d6>
    22b2:	2300      	movs	r3, #0
    22b4:	9344      	str	r3, [sp, #272]	; 0x110
    22b6:	e038      	b.n	232a <__svfiscanf_r+0x186>
    22b8:	2d75      	cmp	r5, #117	; 0x75
    22ba:	d02f      	beq.n	231c <__svfiscanf_r+0x178>
    22bc:	2d78      	cmp	r5, #120	; 0x78
    22be:	d026      	beq.n	230e <__svfiscanf_r+0x16a>
    22c0:	2d73      	cmp	r5, #115	; 0x73
    22c2:	d15a      	bne.n	237a <__svfiscanf_r+0x1d6>
    22c4:	2302      	movs	r3, #2
    22c6:	e03c      	b.n	2342 <__svfiscanf_r+0x19e>
    22c8:	6860      	ldr	r0, [r4, #4]
    22ca:	2800      	cmp	r0, #0
    22cc:	dd0d      	ble.n	22ea <__svfiscanf_r+0x146>
    22ce:	6823      	ldr	r3, [r4, #0]
    22d0:	781a      	ldrb	r2, [r3, #0]
    22d2:	42aa      	cmp	r2, r5
    22d4:	d000      	beq.n	22d8 <__svfiscanf_r+0x134>
    22d6:	e0a8      	b.n	242a <__svfiscanf_r+0x286>
    22d8:	3301      	adds	r3, #1
    22da:	6862      	ldr	r2, [r4, #4]
    22dc:	6023      	str	r3, [r4, #0]
    22de:	9b47      	ldr	r3, [sp, #284]	; 0x11c
    22e0:	3a01      	subs	r2, #1
    22e2:	3301      	adds	r3, #1
    22e4:	6062      	str	r2, [r4, #4]
    22e6:	9347      	str	r3, [sp, #284]	; 0x11c
    22e8:	e79b      	b.n	2222 <__svfiscanf_r+0x7e>
    22ea:	23c0      	movs	r3, #192	; 0xc0
    22ec:	a943      	add	r1, sp, #268	; 0x10c
    22ee:	005b      	lsls	r3, r3, #1
    22f0:	58cb      	ldr	r3, [r1, r3]
    22f2:	1c38      	adds	r0, r7, #0
    22f4:	1c21      	adds	r1, r4, #0
    22f6:	4798      	blx	r3
    22f8:	2800      	cmp	r0, #0
    22fa:	d0e8      	beq.n	22ce <__svfiscanf_r+0x12a>
    22fc:	9846      	ldr	r0, [sp, #280]	; 0x118
    22fe:	2800      	cmp	r0, #0
    2300:	d000      	beq.n	2304 <__svfiscanf_r+0x160>
    2302:	e08e      	b.n	2422 <__svfiscanf_r+0x27e>
    2304:	e093      	b.n	242e <__svfiscanf_r+0x28a>
    2306:	9a43      	ldr	r2, [sp, #268]	; 0x10c
    2308:	2320      	movs	r3, #32
    230a:	4313      	orrs	r3, r2
    230c:	9343      	str	r3, [sp, #268]	; 0x10c
    230e:	9843      	ldr	r0, [sp, #268]	; 0x10c
    2310:	2380      	movs	r3, #128	; 0x80
    2312:	009b      	lsls	r3, r3, #2
    2314:	4303      	orrs	r3, r0
    2316:	9343      	str	r3, [sp, #268]	; 0x10c
    2318:	2310      	movs	r3, #16
    231a:	e002      	b.n	2322 <__svfiscanf_r+0x17e>
    231c:	230a      	movs	r3, #10
    231e:	e000      	b.n	2322 <__svfiscanf_r+0x17e>
    2320:	2308      	movs	r3, #8
    2322:	9344      	str	r3, [sp, #272]	; 0x110
    2324:	2304      	movs	r3, #4
    2326:	2d6e      	cmp	r5, #110	; 0x6e
    2328:	dc0b      	bgt.n	2342 <__svfiscanf_r+0x19e>
    232a:	2303      	movs	r3, #3
    232c:	e009      	b.n	2342 <__svfiscanf_r+0x19e>
    232e:	1c31      	adds	r1, r6, #0
    2330:	a803      	add	r0, sp, #12
    2332:	f000 fc47 	bl	2bc4 <__sccl>
    2336:	9943      	ldr	r1, [sp, #268]	; 0x10c
    2338:	2340      	movs	r3, #64	; 0x40
    233a:	430b      	orrs	r3, r1
    233c:	9343      	str	r3, [sp, #268]	; 0x10c
    233e:	1c06      	adds	r6, r0, #0
    2340:	2301      	movs	r3, #1
    2342:	9349      	str	r3, [sp, #292]	; 0x124
    2344:	e01d      	b.n	2382 <__svfiscanf_r+0x1de>
    2346:	9a43      	ldr	r2, [sp, #268]	; 0x10c
    2348:	2340      	movs	r3, #64	; 0x40
    234a:	4313      	orrs	r3, r2
    234c:	9343      	str	r3, [sp, #268]	; 0x10c
    234e:	2300      	movs	r3, #0
    2350:	e7f7      	b.n	2342 <__svfiscanf_r+0x19e>
    2352:	9943      	ldr	r1, [sp, #268]	; 0x10c
    2354:	06cb      	lsls	r3, r1, #27
    2356:	d500      	bpl.n	235a <__svfiscanf_r+0x1b6>
    2358:	e763      	b.n	2222 <__svfiscanf_r+0x7e>
    235a:	9b01      	ldr	r3, [sp, #4]
    235c:	9a47      	ldr	r2, [sp, #284]	; 0x11c
    235e:	07c8      	lsls	r0, r1, #31
    2360:	d504      	bpl.n	236c <__svfiscanf_r+0x1c8>
    2362:	1d19      	adds	r1, r3, #4
    2364:	9101      	str	r1, [sp, #4]
    2366:	681b      	ldr	r3, [r3, #0]
    2368:	801a      	strh	r2, [r3, #0]
    236a:	e75a      	b.n	2222 <__svfiscanf_r+0x7e>
    236c:	1d19      	adds	r1, r3, #4
    236e:	9101      	str	r1, [sp, #4]
    2370:	681b      	ldr	r3, [r3, #0]
    2372:	601a      	str	r2, [r3, #0]
    2374:	e755      	b.n	2222 <__svfiscanf_r+0x7e>
    2376:	2305      	movs	r3, #5
    2378:	e7e3      	b.n	2342 <__svfiscanf_r+0x19e>
    237a:	2303      	movs	r3, #3
    237c:	9349      	str	r3, [sp, #292]	; 0x124
    237e:	230a      	movs	r3, #10
    2380:	9344      	str	r3, [sp, #272]	; 0x110
    2382:	6861      	ldr	r1, [r4, #4]
    2384:	2900      	cmp	r1, #0
    2386:	dd03      	ble.n	2390 <__svfiscanf_r+0x1ec>
    2388:	9a43      	ldr	r2, [sp, #268]	; 0x10c
    238a:	0652      	lsls	r2, r2, #25
    238c:	d514      	bpl.n	23b8 <__svfiscanf_r+0x214>
    238e:	e01b      	b.n	23c8 <__svfiscanf_r+0x224>
    2390:	23c0      	movs	r3, #192	; 0xc0
    2392:	a843      	add	r0, sp, #268	; 0x10c
    2394:	005b      	lsls	r3, r3, #1
    2396:	58c3      	ldr	r3, [r0, r3]
    2398:	1c21      	adds	r1, r4, #0
    239a:	1c38      	adds	r0, r7, #0
    239c:	4798      	blx	r3
    239e:	2800      	cmp	r0, #0
    23a0:	d0f2      	beq.n	2388 <__svfiscanf_r+0x1e4>
    23a2:	e7ab      	b.n	22fc <__svfiscanf_r+0x158>
    23a4:	9a47      	ldr	r2, [sp, #284]	; 0x11c
    23a6:	3201      	adds	r2, #1
    23a8:	9247      	str	r2, [sp, #284]	; 0x11c
    23aa:	6862      	ldr	r2, [r4, #4]
    23ac:	3a01      	subs	r2, #1
    23ae:	6062      	str	r2, [r4, #4]
    23b0:	2a00      	cmp	r2, #0
    23b2:	dd13      	ble.n	23dc <__svfiscanf_r+0x238>
    23b4:	3301      	adds	r3, #1
    23b6:	6023      	str	r3, [r4, #0]
    23b8:	6823      	ldr	r3, [r4, #0]
    23ba:	4923      	ldr	r1, [pc, #140]	; (2448 <__svfiscanf_r+0x2a4>)
    23bc:	781a      	ldrb	r2, [r3, #0]
    23be:	6809      	ldr	r1, [r1, #0]
    23c0:	188a      	adds	r2, r1, r2
    23c2:	7852      	ldrb	r2, [r2, #1]
    23c4:	0710      	lsls	r0, r2, #28
    23c6:	d4ed      	bmi.n	23a4 <__svfiscanf_r+0x200>
    23c8:	9b49      	ldr	r3, [sp, #292]	; 0x124
    23ca:	2b02      	cmp	r3, #2
    23cc:	dc10      	bgt.n	23f0 <__svfiscanf_r+0x24c>
    23ce:	1c38      	adds	r0, r7, #0
    23d0:	a943      	add	r1, sp, #268	; 0x10c
    23d2:	1c22      	adds	r2, r4, #0
    23d4:	ab01      	add	r3, sp, #4
    23d6:	f000 f865 	bl	24a4 <_scanf_chars>
    23da:	e01c      	b.n	2416 <__svfiscanf_r+0x272>
    23dc:	23c0      	movs	r3, #192	; 0xc0
    23de:	a943      	add	r1, sp, #268	; 0x10c
    23e0:	005b      	lsls	r3, r3, #1
    23e2:	58cb      	ldr	r3, [r1, r3]
    23e4:	1c38      	adds	r0, r7, #0
    23e6:	1c21      	adds	r1, r4, #0
    23e8:	4798      	blx	r3
    23ea:	2800      	cmp	r0, #0
    23ec:	d0e4      	beq.n	23b8 <__svfiscanf_r+0x214>
    23ee:	e785      	b.n	22fc <__svfiscanf_r+0x158>
    23f0:	2b04      	cmp	r3, #4
    23f2:	dc06      	bgt.n	2402 <__svfiscanf_r+0x25e>
    23f4:	1c38      	adds	r0, r7, #0
    23f6:	a943      	add	r1, sp, #268	; 0x10c
    23f8:	1c22      	adds	r2, r4, #0
    23fa:	ab01      	add	r3, sp, #4
    23fc:	f000 f8b6 	bl	256c <_scanf_i>
    2400:	e009      	b.n	2416 <__svfiscanf_r+0x272>
    2402:	4b13      	ldr	r3, [pc, #76]	; (2450 <__svfiscanf_r+0x2ac>)
    2404:	2b00      	cmp	r3, #0
    2406:	d100      	bne.n	240a <__svfiscanf_r+0x266>
    2408:	e70b      	b.n	2222 <__svfiscanf_r+0x7e>
    240a:	1c38      	adds	r0, r7, #0
    240c:	a943      	add	r1, sp, #268	; 0x10c
    240e:	1c22      	adds	r2, r4, #0
    2410:	ab01      	add	r3, sp, #4
    2412:	e000      	b.n	2416 <__svfiscanf_r+0x272>
    2414:	bf00      	nop
    2416:	2801      	cmp	r0, #1
    2418:	d007      	beq.n	242a <__svfiscanf_r+0x286>
    241a:	2802      	cmp	r0, #2
    241c:	d000      	beq.n	2420 <__svfiscanf_r+0x27c>
    241e:	e700      	b.n	2222 <__svfiscanf_r+0x7e>
    2420:	e76c      	b.n	22fc <__svfiscanf_r+0x158>
    2422:	89a3      	ldrh	r3, [r4, #12]
    2424:	0659      	lsls	r1, r3, #25
    2426:	d504      	bpl.n	2432 <__svfiscanf_r+0x28e>
    2428:	e001      	b.n	242e <__svfiscanf_r+0x28a>
    242a:	9846      	ldr	r0, [sp, #280]	; 0x118
    242c:	e001      	b.n	2432 <__svfiscanf_r+0x28e>
    242e:	2001      	movs	r0, #1
    2430:	4240      	negs	r0, r0
    2432:	23a5      	movs	r3, #165	; 0xa5
    2434:	009b      	lsls	r3, r3, #2
    2436:	449d      	add	sp, r3
    2438:	bdf0      	pop	{r4, r5, r6, r7, pc}
    243a:	46c0      	nop			; (mov r8, r8)
    243c:	fffffd6c 	.word	0xfffffd6c
    2440:	00001b31 	.word	0x00001b31
    2444:	00002ab5 	.word	0x00002ab5
    2448:	1ffff130 	.word	0x1ffff130
    244c:	00003162 	.word	0x00003162
    2450:	00000000 	.word	0x00000000

00002454 <_vfiscanf_r>:
    2454:	b5f8      	push	{r3, r4, r5, r6, r7, lr}
    2456:	1c05      	adds	r5, r0, #0
    2458:	1c0c      	adds	r4, r1, #0
    245a:	1c17      	adds	r7, r2, #0
    245c:	1c1e      	adds	r6, r3, #0
    245e:	2800      	cmp	r0, #0
    2460:	d004      	beq.n	246c <_vfiscanf_r+0x18>
    2462:	6983      	ldr	r3, [r0, #24]
    2464:	2b00      	cmp	r3, #0
    2466:	d101      	bne.n	246c <_vfiscanf_r+0x18>
    2468:	f7ff f81c 	bl	14a4 <__sinit>
    246c:	4b0a      	ldr	r3, [pc, #40]	; (2498 <_vfiscanf_r+0x44>)
    246e:	429c      	cmp	r4, r3
    2470:	d101      	bne.n	2476 <_vfiscanf_r+0x22>
    2472:	686c      	ldr	r4, [r5, #4]
    2474:	e008      	b.n	2488 <_vfiscanf_r+0x34>
    2476:	4b09      	ldr	r3, [pc, #36]	; (249c <_vfiscanf_r+0x48>)
    2478:	429c      	cmp	r4, r3
    247a:	d101      	bne.n	2480 <_vfiscanf_r+0x2c>
    247c:	68ac      	ldr	r4, [r5, #8]
    247e:	e003      	b.n	2488 <_vfiscanf_r+0x34>
    2480:	4b07      	ldr	r3, [pc, #28]	; (24a0 <_vfiscanf_r+0x4c>)
    2482:	429c      	cmp	r4, r3
    2484:	d100      	bne.n	2488 <_vfiscanf_r+0x34>
    2486:	68ec      	ldr	r4, [r5, #12]
    2488:	1c28      	adds	r0, r5, #0
    248a:	1c3a      	adds	r2, r7, #0
    248c:	1c33      	adds	r3, r6, #0
    248e:	1c21      	adds	r1, r4, #0
    2490:	f7ff fe88 	bl	21a4 <__svfiscanf_r>
    2494:	bdf8      	pop	{r3, r4, r5, r6, r7, pc}
    2496:	46c0      	nop			; (mov r8, r8)
    2498:	000030f4 	.word	0x000030f4
    249c:	00003114 	.word	0x00003114
    24a0:	00003134 	.word	0x00003134

000024a4 <_scanf_chars>:
    24a4:	b5f7      	push	{r0, r1, r2, r4, r5, r6, r7, lr}
    24a6:	1c15      	adds	r5, r2, #0
    24a8:	688a      	ldr	r2, [r1, #8]
    24aa:	9001      	str	r0, [sp, #4]
    24ac:	1c0c      	adds	r4, r1, #0
    24ae:	2a00      	cmp	r2, #0
    24b0:	d106      	bne.n	24c0 <_scanf_chars+0x1c>
    24b2:	698a      	ldr	r2, [r1, #24]
    24b4:	1e51      	subs	r1, r2, #1
    24b6:	418a      	sbcs	r2, r1
    24b8:	4252      	negs	r2, r2
    24ba:	2101      	movs	r1, #1
    24bc:	430a      	orrs	r2, r1
    24be:	60a2      	str	r2, [r4, #8]
    24c0:	6822      	ldr	r2, [r4, #0]
    24c2:	06d2      	lsls	r2, r2, #27
    24c4:	d403      	bmi.n	24ce <_scanf_chars+0x2a>
    24c6:	681a      	ldr	r2, [r3, #0]
    24c8:	1d11      	adds	r1, r2, #4
    24ca:	6019      	str	r1, [r3, #0]
    24cc:	6817      	ldr	r7, [r2, #0]
    24ce:	2600      	movs	r6, #0
    24d0:	69a0      	ldr	r0, [r4, #24]
    24d2:	2800      	cmp	r0, #0
    24d4:	d11d      	bne.n	2512 <_scanf_chars+0x6e>
    24d6:	6823      	ldr	r3, [r4, #0]
    24d8:	3601      	adds	r6, #1
    24da:	06db      	lsls	r3, r3, #27
    24dc:	d403      	bmi.n	24e6 <_scanf_chars+0x42>
    24de:	682a      	ldr	r2, [r5, #0]
    24e0:	7813      	ldrb	r3, [r2, #0]
    24e2:	703b      	strb	r3, [r7, #0]
    24e4:	3701      	adds	r7, #1
    24e6:	682a      	ldr	r2, [r5, #0]
    24e8:	686b      	ldr	r3, [r5, #4]
    24ea:	3201      	adds	r2, #1
    24ec:	602a      	str	r2, [r5, #0]
    24ee:	68a2      	ldr	r2, [r4, #8]
    24f0:	3b01      	subs	r3, #1
    24f2:	3a01      	subs	r2, #1
    24f4:	606b      	str	r3, [r5, #4]
    24f6:	60a2      	str	r2, [r4, #8]
    24f8:	2a00      	cmp	r2, #0
    24fa:	d025      	beq.n	2548 <_scanf_chars+0xa4>
    24fc:	2b00      	cmp	r3, #0
    24fe:	dce7      	bgt.n	24d0 <_scanf_chars+0x2c>
    2500:	23c0      	movs	r3, #192	; 0xc0
    2502:	005b      	lsls	r3, r3, #1
    2504:	58e3      	ldr	r3, [r4, r3]
    2506:	9801      	ldr	r0, [sp, #4]
    2508:	1c29      	adds	r1, r5, #0
    250a:	4798      	blx	r3
    250c:	2800      	cmp	r0, #0
    250e:	d0df      	beq.n	24d0 <_scanf_chars+0x2c>
    2510:	e01a      	b.n	2548 <_scanf_chars+0xa4>
    2512:	2801      	cmp	r0, #1
    2514:	d108      	bne.n	2528 <_scanf_chars+0x84>
    2516:	682a      	ldr	r2, [r5, #0]
    2518:	7813      	ldrb	r3, [r2, #0]
    251a:	6962      	ldr	r2, [r4, #20]
    251c:	5cd3      	ldrb	r3, [r2, r3]
    251e:	2b00      	cmp	r3, #0
    2520:	d1d9      	bne.n	24d6 <_scanf_chars+0x32>
    2522:	2e00      	cmp	r6, #0
    2524:	d01f      	beq.n	2566 <_scanf_chars+0xc2>
    2526:	e00f      	b.n	2548 <_scanf_chars+0xa4>
    2528:	2802      	cmp	r0, #2
    252a:	d002      	beq.n	2532 <_scanf_chars+0x8e>
    252c:	2e00      	cmp	r6, #0
    252e:	d009      	beq.n	2544 <_scanf_chars+0xa0>
    2530:	e00a      	b.n	2548 <_scanf_chars+0xa4>
    2532:	682a      	ldr	r2, [r5, #0]
    2534:	7813      	ldrb	r3, [r2, #0]
    2536:	4a0c      	ldr	r2, [pc, #48]	; (2568 <_scanf_chars+0xc4>)
    2538:	6812      	ldr	r2, [r2, #0]
    253a:	18d3      	adds	r3, r2, r3
    253c:	785b      	ldrb	r3, [r3, #1]
    253e:	071a      	lsls	r2, r3, #28
    2540:	d5c9      	bpl.n	24d6 <_scanf_chars+0x32>
    2542:	e7f3      	b.n	252c <_scanf_chars+0x88>
    2544:	2801      	cmp	r0, #1
    2546:	d00e      	beq.n	2566 <_scanf_chars+0xc2>
    2548:	6822      	ldr	r2, [r4, #0]
    254a:	2310      	movs	r3, #16
    254c:	4013      	ands	r3, r2
    254e:	d106      	bne.n	255e <_scanf_chars+0xba>
    2550:	68e2      	ldr	r2, [r4, #12]
    2552:	3201      	adds	r2, #1
    2554:	60e2      	str	r2, [r4, #12]
    2556:	69a2      	ldr	r2, [r4, #24]
    2558:	2a00      	cmp	r2, #0
    255a:	d000      	beq.n	255e <_scanf_chars+0xba>
    255c:	703b      	strb	r3, [r7, #0]
    255e:	6923      	ldr	r3, [r4, #16]
    2560:	2000      	movs	r0, #0
    2562:	199e      	adds	r6, r3, r6
    2564:	6126      	str	r6, [r4, #16]
    2566:	bdfe      	pop	{r1, r2, r3, r4, r5, r6, r7, pc}
    2568:	1ffff130 	.word	0x1ffff130

0000256c <_scanf_i>:
    256c:	b5f0      	push	{r4, r5, r6, r7, lr}
    256e:	1c15      	adds	r5, r2, #0
    2570:	b08b      	sub	sp, #44	; 0x2c
    2572:	4a77      	ldr	r2, [pc, #476]	; (2750 <_scanf_i+0x1e4>)
    2574:	9004      	str	r0, [sp, #16]
    2576:	9302      	str	r3, [sp, #8]
    2578:	ab07      	add	r3, sp, #28
    257a:	cac1      	ldmia	r2!, {r0, r6, r7}
    257c:	c3c1      	stmia	r3!, {r0, r6, r7}
    257e:	6988      	ldr	r0, [r1, #24]
    2580:	1c0c      	adds	r4, r1, #0
    2582:	2803      	cmp	r0, #3
    2584:	d102      	bne.n	258c <_scanf_i+0x20>
    2586:	4e73      	ldr	r6, [pc, #460]	; (2754 <_scanf_i+0x1e8>)
    2588:	9605      	str	r6, [sp, #20]
    258a:	e001      	b.n	2590 <_scanf_i+0x24>
    258c:	4f72      	ldr	r7, [pc, #456]	; (2758 <_scanf_i+0x1ec>)
    258e:	9705      	str	r7, [sp, #20]
    2590:	68a3      	ldr	r3, [r4, #8]
    2592:	2600      	movs	r6, #0
    2594:	22ae      	movs	r2, #174	; 0xae
    2596:	1e59      	subs	r1, r3, #1
    2598:	9603      	str	r6, [sp, #12]
    259a:	0052      	lsls	r2, r2, #1
    259c:	4291      	cmp	r1, r2
    259e:	d905      	bls.n	25ac <_scanf_i+0x40>
    25a0:	3b5e      	subs	r3, #94	; 0x5e
    25a2:	3bff      	subs	r3, #255	; 0xff
    25a4:	9303      	str	r3, [sp, #12]
    25a6:	235e      	movs	r3, #94	; 0x5e
    25a8:	33ff      	adds	r3, #255	; 0xff
    25aa:	60a3      	str	r3, [r4, #8]
    25ac:	6820      	ldr	r0, [r4, #0]
    25ae:	23d0      	movs	r3, #208	; 0xd0
    25b0:	1c27      	adds	r7, r4, #0
    25b2:	011b      	lsls	r3, r3, #4
    25b4:	371c      	adds	r7, #28
    25b6:	4303      	orrs	r3, r0
    25b8:	9701      	str	r7, [sp, #4]
    25ba:	9700      	str	r7, [sp, #0]
    25bc:	6023      	str	r3, [r4, #0]
    25be:	2700      	movs	r7, #0
    25c0:	aa07      	add	r2, sp, #28
    25c2:	00bb      	lsls	r3, r7, #2
    25c4:	5898      	ldr	r0, [r3, r2]
    25c6:	682a      	ldr	r2, [r5, #0]
    25c8:	7811      	ldrb	r1, [r2, #0]
    25ca:	2202      	movs	r2, #2
    25cc:	f000 fa20 	bl	2a10 <memchr>
    25d0:	2800      	cmp	r0, #0
    25d2:	d03a      	beq.n	264a <_scanf_i+0xde>
    25d4:	2f01      	cmp	r7, #1
    25d6:	d10d      	bne.n	25f4 <_scanf_i+0x88>
    25d8:	6863      	ldr	r3, [r4, #4]
    25da:	2b00      	cmp	r3, #0
    25dc:	d106      	bne.n	25ec <_scanf_i+0x80>
    25de:	2308      	movs	r3, #8
    25e0:	6826      	ldr	r6, [r4, #0]
    25e2:	6063      	str	r3, [r4, #4]
    25e4:	2380      	movs	r3, #128	; 0x80
    25e6:	009b      	lsls	r3, r3, #2
    25e8:	4333      	orrs	r3, r6
    25ea:	6023      	str	r3, [r4, #0]
    25ec:	4b5b      	ldr	r3, [pc, #364]	; (275c <_scanf_i+0x1f0>)
    25ee:	6820      	ldr	r0, [r4, #0]
    25f0:	4003      	ands	r3, r0
    25f2:	e00e      	b.n	2612 <_scanf_i+0xa6>
    25f4:	2f02      	cmp	r7, #2
    25f6:	d10d      	bne.n	2614 <_scanf_i+0xa8>
    25f8:	6823      	ldr	r3, [r4, #0]
    25fa:	21c0      	movs	r1, #192	; 0xc0
    25fc:	00c9      	lsls	r1, r1, #3
    25fe:	2280      	movs	r2, #128	; 0x80
    2600:	4019      	ands	r1, r3
    2602:	0092      	lsls	r2, r2, #2
    2604:	4291      	cmp	r1, r2
    2606:	d123      	bne.n	2650 <_scanf_i+0xe4>
    2608:	2210      	movs	r2, #16
    260a:	6062      	str	r2, [r4, #4]
    260c:	2280      	movs	r2, #128	; 0x80
    260e:	0052      	lsls	r2, r2, #1
    2610:	4313      	orrs	r3, r2
    2612:	6023      	str	r3, [r4, #0]
    2614:	68a3      	ldr	r3, [r4, #8]
    2616:	1e5a      	subs	r2, r3, #1
    2618:	60a2      	str	r2, [r4, #8]
    261a:	2b00      	cmp	r3, #0
    261c:	d015      	beq.n	264a <_scanf_i+0xde>
    261e:	682b      	ldr	r3, [r5, #0]
    2620:	9900      	ldr	r1, [sp, #0]
    2622:	1c5a      	adds	r2, r3, #1
    2624:	602a      	str	r2, [r5, #0]
    2626:	781b      	ldrb	r3, [r3, #0]
    2628:	9e00      	ldr	r6, [sp, #0]
    262a:	700b      	strb	r3, [r1, #0]
    262c:	686b      	ldr	r3, [r5, #4]
    262e:	3601      	adds	r6, #1
    2630:	3b01      	subs	r3, #1
    2632:	606b      	str	r3, [r5, #4]
    2634:	9600      	str	r6, [sp, #0]
    2636:	2b00      	cmp	r3, #0
    2638:	dc07      	bgt.n	264a <_scanf_i+0xde>
    263a:	23c0      	movs	r3, #192	; 0xc0
    263c:	005b      	lsls	r3, r3, #1
    263e:	58e3      	ldr	r3, [r4, r3]
    2640:	9804      	ldr	r0, [sp, #16]
    2642:	1c29      	adds	r1, r5, #0
    2644:	4798      	blx	r3
    2646:	2800      	cmp	r0, #0
    2648:	d143      	bne.n	26d2 <_scanf_i+0x166>
    264a:	3701      	adds	r7, #1
    264c:	2f03      	cmp	r7, #3
    264e:	d1b7      	bne.n	25c0 <_scanf_i+0x54>
    2650:	6862      	ldr	r2, [r4, #4]
    2652:	2a00      	cmp	r2, #0
    2654:	d101      	bne.n	265a <_scanf_i+0xee>
    2656:	230a      	movs	r3, #10
    2658:	6063      	str	r3, [r4, #4]
    265a:	6863      	ldr	r3, [r4, #4]
    265c:	2110      	movs	r1, #16
    265e:	1ac9      	subs	r1, r1, r3
    2660:	4b3f      	ldr	r3, [pc, #252]	; (2760 <_scanf_i+0x1f4>)
    2662:	6960      	ldr	r0, [r4, #20]
    2664:	18c9      	adds	r1, r1, r3
    2666:	f000 faad 	bl	2bc4 <__sccl>
    266a:	9e00      	ldr	r6, [sp, #0]
    266c:	2700      	movs	r7, #0
    266e:	68a3      	ldr	r3, [r4, #8]
    2670:	2b00      	cmp	r3, #0
    2672:	d02f      	beq.n	26d4 <_scanf_i+0x168>
    2674:	682a      	ldr	r2, [r5, #0]
    2676:	6961      	ldr	r1, [r4, #20]
    2678:	7810      	ldrb	r0, [r2, #0]
    267a:	5c09      	ldrb	r1, [r1, r0]
    267c:	2900      	cmp	r1, #0
    267e:	d029      	beq.n	26d4 <_scanf_i+0x168>
    2680:	6821      	ldr	r1, [r4, #0]
    2682:	2830      	cmp	r0, #48	; 0x30
    2684:	d10a      	bne.n	269c <_scanf_i+0x130>
    2686:	0508      	lsls	r0, r1, #20
    2688:	d508      	bpl.n	269c <_scanf_i+0x130>
    268a:	9903      	ldr	r1, [sp, #12]
    268c:	3701      	adds	r7, #1
    268e:	2900      	cmp	r1, #0
    2690:	d00a      	beq.n	26a8 <_scanf_i+0x13c>
    2692:	3901      	subs	r1, #1
    2694:	3301      	adds	r3, #1
    2696:	9103      	str	r1, [sp, #12]
    2698:	60a3      	str	r3, [r4, #8]
    269a:	e005      	b.n	26a8 <_scanf_i+0x13c>
    269c:	4b31      	ldr	r3, [pc, #196]	; (2764 <_scanf_i+0x1f8>)
    269e:	4019      	ands	r1, r3
    26a0:	6021      	str	r1, [r4, #0]
    26a2:	7813      	ldrb	r3, [r2, #0]
    26a4:	7033      	strb	r3, [r6, #0]
    26a6:	3601      	adds	r6, #1
    26a8:	686b      	ldr	r3, [r5, #4]
    26aa:	3b01      	subs	r3, #1
    26ac:	606b      	str	r3, [r5, #4]
    26ae:	2b00      	cmp	r3, #0
    26b0:	dd03      	ble.n	26ba <_scanf_i+0x14e>
    26b2:	682b      	ldr	r3, [r5, #0]
    26b4:	3301      	adds	r3, #1
    26b6:	602b      	str	r3, [r5, #0]
    26b8:	e007      	b.n	26ca <_scanf_i+0x15e>
    26ba:	23c0      	movs	r3, #192	; 0xc0
    26bc:	005b      	lsls	r3, r3, #1
    26be:	58e3      	ldr	r3, [r4, r3]
    26c0:	9804      	ldr	r0, [sp, #16]
    26c2:	1c29      	adds	r1, r5, #0
    26c4:	4798      	blx	r3
    26c6:	2800      	cmp	r0, #0
    26c8:	d104      	bne.n	26d4 <_scanf_i+0x168>
    26ca:	68a3      	ldr	r3, [r4, #8]
    26cc:	3b01      	subs	r3, #1
    26ce:	60a3      	str	r3, [r4, #8]
    26d0:	e7cd      	b.n	266e <_scanf_i+0x102>
    26d2:	2700      	movs	r7, #0
    26d4:	6822      	ldr	r2, [r4, #0]
    26d6:	05d2      	lsls	r2, r2, #23
    26d8:	d50d      	bpl.n	26f6 <_scanf_i+0x18a>
    26da:	9b01      	ldr	r3, [sp, #4]
    26dc:	429e      	cmp	r6, r3
    26de:	d907      	bls.n	26f0 <_scanf_i+0x184>
    26e0:	23be      	movs	r3, #190	; 0xbe
    26e2:	3e01      	subs	r6, #1
    26e4:	005b      	lsls	r3, r3, #1
    26e6:	7831      	ldrb	r1, [r6, #0]
    26e8:	58e3      	ldr	r3, [r4, r3]
    26ea:	9804      	ldr	r0, [sp, #16]
    26ec:	1c2a      	adds	r2, r5, #0
    26ee:	4798      	blx	r3
    26f0:	9d01      	ldr	r5, [sp, #4]
    26f2:	42ae      	cmp	r6, r5
    26f4:	d028      	beq.n	2748 <_scanf_i+0x1dc>
    26f6:	6820      	ldr	r0, [r4, #0]
    26f8:	2210      	movs	r2, #16
    26fa:	4002      	ands	r2, r0
    26fc:	d11c      	bne.n	2738 <_scanf_i+0x1cc>
    26fe:	7032      	strb	r2, [r6, #0]
    2700:	6863      	ldr	r3, [r4, #4]
    2702:	9d05      	ldr	r5, [sp, #20]
    2704:	9804      	ldr	r0, [sp, #16]
    2706:	9901      	ldr	r1, [sp, #4]
    2708:	47a8      	blx	r5
    270a:	9d02      	ldr	r5, [sp, #8]
    270c:	6822      	ldr	r2, [r4, #0]
    270e:	682b      	ldr	r3, [r5, #0]
    2710:	0691      	lsls	r1, r2, #26
    2712:	d501      	bpl.n	2718 <_scanf_i+0x1ac>
    2714:	1d1a      	adds	r2, r3, #4
    2716:	e009      	b.n	272c <_scanf_i+0x1c0>
    2718:	07d5      	lsls	r5, r2, #31
    271a:	d505      	bpl.n	2728 <_scanf_i+0x1bc>
    271c:	9d02      	ldr	r5, [sp, #8]
    271e:	1d1a      	adds	r2, r3, #4
    2720:	602a      	str	r2, [r5, #0]
    2722:	681b      	ldr	r3, [r3, #0]
    2724:	8018      	strh	r0, [r3, #0]
    2726:	e004      	b.n	2732 <_scanf_i+0x1c6>
    2728:	9d02      	ldr	r5, [sp, #8]
    272a:	1d1a      	adds	r2, r3, #4
    272c:	602a      	str	r2, [r5, #0]
    272e:	681b      	ldr	r3, [r3, #0]
    2730:	6018      	str	r0, [r3, #0]
    2732:	68e3      	ldr	r3, [r4, #12]
    2734:	3301      	adds	r3, #1
    2736:	60e3      	str	r3, [r4, #12]
    2738:	9d01      	ldr	r5, [sp, #4]
    273a:	2000      	movs	r0, #0
    273c:	1b76      	subs	r6, r6, r5
    273e:	19f7      	adds	r7, r6, r7
    2740:	6926      	ldr	r6, [r4, #16]
    2742:	19f7      	adds	r7, r6, r7
    2744:	6127      	str	r7, [r4, #16]
    2746:	e000      	b.n	274a <_scanf_i+0x1de>
    2748:	2001      	movs	r0, #1
    274a:	b00b      	add	sp, #44	; 0x2c
    274c:	bdf0      	pop	{r4, r5, r6, r7, pc}
    274e:	46c0      	nop			; (mov r8, r8)
    2750:	00003190 	.word	0x00003190
    2754:	00002c2d 	.word	0x00002c2d
    2758:	00002d41 	.word	0x00002d41
    275c:	fffffaff 	.word	0xfffffaff
    2760:	0000319c 	.word	0x0000319c
    2764:	fffff6ff 	.word	0xfffff6ff

00002768 <__swbuf_r>:
    2768:	b570      	push	{r4, r5, r6, lr}
    276a:	1c05      	adds	r5, r0, #0
    276c:	1c0e      	adds	r6, r1, #0
    276e:	1c14      	adds	r4, r2, #0
    2770:	2800      	cmp	r0, #0
    2772:	d004      	beq.n	277e <__swbuf_r+0x16>
    2774:	6982      	ldr	r2, [r0, #24]
    2776:	2a00      	cmp	r2, #0
    2778:	d101      	bne.n	277e <__swbuf_r+0x16>
    277a:	f7fe fe93 	bl	14a4 <__sinit>
    277e:	4b23      	ldr	r3, [pc, #140]	; (280c <__swbuf_r+0xa4>)
    2780:	429c      	cmp	r4, r3
    2782:	d101      	bne.n	2788 <__swbuf_r+0x20>
    2784:	686c      	ldr	r4, [r5, #4]
    2786:	e008      	b.n	279a <__swbuf_r+0x32>
    2788:	4b21      	ldr	r3, [pc, #132]	; (2810 <__swbuf_r+0xa8>)
    278a:	429c      	cmp	r4, r3
    278c:	d101      	bne.n	2792 <__swbuf_r+0x2a>
    278e:	68ac      	ldr	r4, [r5, #8]
    2790:	e003      	b.n	279a <__swbuf_r+0x32>
    2792:	4b20      	ldr	r3, [pc, #128]	; (2814 <__swbuf_r+0xac>)
    2794:	429c      	cmp	r4, r3
    2796:	d100      	bne.n	279a <__swbuf_r+0x32>
    2798:	68ec      	ldr	r4, [r5, #12]
    279a:	69a3      	ldr	r3, [r4, #24]
    279c:	60a3      	str	r3, [r4, #8]
    279e:	89a3      	ldrh	r3, [r4, #12]
    27a0:	071a      	lsls	r2, r3, #28
    27a2:	d50a      	bpl.n	27ba <__swbuf_r+0x52>
    27a4:	6923      	ldr	r3, [r4, #16]
    27a6:	2b00      	cmp	r3, #0
    27a8:	d007      	beq.n	27ba <__swbuf_r+0x52>
    27aa:	6822      	ldr	r2, [r4, #0]
    27ac:	6923      	ldr	r3, [r4, #16]
    27ae:	b2f6      	uxtb	r6, r6
    27b0:	1ad0      	subs	r0, r2, r3
    27b2:	6962      	ldr	r2, [r4, #20]
    27b4:	4290      	cmp	r0, r2
    27b6:	db0f      	blt.n	27d8 <__swbuf_r+0x70>
    27b8:	e008      	b.n	27cc <__swbuf_r+0x64>
    27ba:	1c28      	adds	r0, r5, #0
    27bc:	1c21      	adds	r1, r4, #0
    27be:	f000 f83f 	bl	2840 <__swsetup_r>
    27c2:	2800      	cmp	r0, #0
    27c4:	d0f1      	beq.n	27aa <__swbuf_r+0x42>
    27c6:	2001      	movs	r0, #1
    27c8:	4240      	negs	r0, r0
    27ca:	e01d      	b.n	2808 <__swbuf_r+0xa0>
    27cc:	1c28      	adds	r0, r5, #0
    27ce:	1c21      	adds	r1, r4, #0
    27d0:	f7fe fdd4 	bl	137c <_fflush_r>
    27d4:	2800      	cmp	r0, #0
    27d6:	d1f6      	bne.n	27c6 <__swbuf_r+0x5e>
    27d8:	68a3      	ldr	r3, [r4, #8]
    27da:	3001      	adds	r0, #1
    27dc:	3b01      	subs	r3, #1
    27de:	60a3      	str	r3, [r4, #8]
    27e0:	6823      	ldr	r3, [r4, #0]
    27e2:	1c5a      	adds	r2, r3, #1
    27e4:	6022      	str	r2, [r4, #0]
    27e6:	701e      	strb	r6, [r3, #0]
    27e8:	6963      	ldr	r3, [r4, #20]
    27ea:	4298      	cmp	r0, r3
    27ec:	d005      	beq.n	27fa <__swbuf_r+0x92>
    27ee:	89a3      	ldrh	r3, [r4, #12]
    27f0:	1c30      	adds	r0, r6, #0
    27f2:	07da      	lsls	r2, r3, #31
    27f4:	d508      	bpl.n	2808 <__swbuf_r+0xa0>
    27f6:	2e0a      	cmp	r6, #10
    27f8:	d106      	bne.n	2808 <__swbuf_r+0xa0>
    27fa:	1c28      	adds	r0, r5, #0
    27fc:	1c21      	adds	r1, r4, #0
    27fe:	f7fe fdbd 	bl	137c <_fflush_r>
    2802:	2800      	cmp	r0, #0
    2804:	d1df      	bne.n	27c6 <__swbuf_r+0x5e>
    2806:	1c30      	adds	r0, r6, #0
    2808:	bd70      	pop	{r4, r5, r6, pc}
    280a:	46c0      	nop			; (mov r8, r8)
    280c:	000030f4 	.word	0x000030f4
    2810:	00003114 	.word	0x00003114
    2814:	00003134 	.word	0x00003134

00002818 <_write_r>:
    2818:	b538      	push	{r3, r4, r5, lr}
    281a:	4c08      	ldr	r4, [pc, #32]	; (283c <_write_r+0x24>)
    281c:	1c05      	adds	r5, r0, #0
    281e:	2000      	movs	r0, #0
    2820:	6020      	str	r0, [r4, #0]
    2822:	1c08      	adds	r0, r1, #0
    2824:	1c11      	adds	r1, r2, #0
    2826:	1c1a      	adds	r2, r3, #0
    2828:	f7fd feea 	bl	600 <_write>
    282c:	1c43      	adds	r3, r0, #1
    282e:	d103      	bne.n	2838 <_write_r+0x20>
    2830:	6823      	ldr	r3, [r4, #0]
    2832:	2b00      	cmp	r3, #0
    2834:	d000      	beq.n	2838 <_write_r+0x20>
    2836:	602b      	str	r3, [r5, #0]
    2838:	bd38      	pop	{r3, r4, r5, pc}
    283a:	46c0      	nop			; (mov r8, r8)
    283c:	1ffff280 	.word	0x1ffff280

00002840 <__swsetup_r>:
    2840:	4b34      	ldr	r3, [pc, #208]	; (2914 <__swsetup_r+0xd4>)
    2842:	b570      	push	{r4, r5, r6, lr}
    2844:	681d      	ldr	r5, [r3, #0]
    2846:	1c06      	adds	r6, r0, #0
    2848:	1c0c      	adds	r4, r1, #0
    284a:	2d00      	cmp	r5, #0
    284c:	d005      	beq.n	285a <__swsetup_r+0x1a>
    284e:	69a9      	ldr	r1, [r5, #24]
    2850:	2900      	cmp	r1, #0
    2852:	d102      	bne.n	285a <__swsetup_r+0x1a>
    2854:	1c28      	adds	r0, r5, #0
    2856:	f7fe fe25 	bl	14a4 <__sinit>
    285a:	4b2f      	ldr	r3, [pc, #188]	; (2918 <__swsetup_r+0xd8>)
    285c:	429c      	cmp	r4, r3
    285e:	d101      	bne.n	2864 <__swsetup_r+0x24>
    2860:	686c      	ldr	r4, [r5, #4]
    2862:	e008      	b.n	2876 <__swsetup_r+0x36>
    2864:	4b2d      	ldr	r3, [pc, #180]	; (291c <__swsetup_r+0xdc>)
    2866:	429c      	cmp	r4, r3
    2868:	d101      	bne.n	286e <__swsetup_r+0x2e>
    286a:	68ac      	ldr	r4, [r5, #8]
    286c:	e003      	b.n	2876 <__swsetup_r+0x36>
    286e:	4b2c      	ldr	r3, [pc, #176]	; (2920 <__swsetup_r+0xe0>)
    2870:	429c      	cmp	r4, r3
    2872:	d100      	bne.n	2876 <__swsetup_r+0x36>
    2874:	68ec      	ldr	r4, [r5, #12]
    2876:	89a2      	ldrh	r2, [r4, #12]
    2878:	b293      	uxth	r3, r2
    287a:	0719      	lsls	r1, r3, #28
    287c:	d421      	bmi.n	28c2 <__swsetup_r+0x82>
    287e:	06d9      	lsls	r1, r3, #27
    2880:	d405      	bmi.n	288e <__swsetup_r+0x4e>
    2882:	2309      	movs	r3, #9
    2884:	6033      	str	r3, [r6, #0]
    2886:	2340      	movs	r3, #64	; 0x40
    2888:	431a      	orrs	r2, r3
    288a:	81a2      	strh	r2, [r4, #12]
    288c:	e03f      	b.n	290e <__swsetup_r+0xce>
    288e:	075a      	lsls	r2, r3, #29
    2890:	d513      	bpl.n	28ba <__swsetup_r+0x7a>
    2892:	6b61      	ldr	r1, [r4, #52]	; 0x34
    2894:	2900      	cmp	r1, #0
    2896:	d008      	beq.n	28aa <__swsetup_r+0x6a>
    2898:	1c23      	adds	r3, r4, #0
    289a:	3344      	adds	r3, #68	; 0x44
    289c:	4299      	cmp	r1, r3
    289e:	d002      	beq.n	28a6 <__swsetup_r+0x66>
    28a0:	1c30      	adds	r0, r6, #0
    28a2:	f7fe ff65 	bl	1770 <_free_r>
    28a6:	2300      	movs	r3, #0
    28a8:	6363      	str	r3, [r4, #52]	; 0x34
    28aa:	89a3      	ldrh	r3, [r4, #12]
    28ac:	2224      	movs	r2, #36	; 0x24
    28ae:	4393      	bics	r3, r2
    28b0:	81a3      	strh	r3, [r4, #12]
    28b2:	2300      	movs	r3, #0
    28b4:	6063      	str	r3, [r4, #4]
    28b6:	6923      	ldr	r3, [r4, #16]
    28b8:	6023      	str	r3, [r4, #0]
    28ba:	89a3      	ldrh	r3, [r4, #12]
    28bc:	2208      	movs	r2, #8
    28be:	4313      	orrs	r3, r2
    28c0:	81a3      	strh	r3, [r4, #12]
    28c2:	6921      	ldr	r1, [r4, #16]
    28c4:	2900      	cmp	r1, #0
    28c6:	d10b      	bne.n	28e0 <__swsetup_r+0xa0>
    28c8:	89a3      	ldrh	r3, [r4, #12]
    28ca:	22a0      	movs	r2, #160	; 0xa0
    28cc:	0092      	lsls	r2, r2, #2
    28ce:	401a      	ands	r2, r3
    28d0:	2380      	movs	r3, #128	; 0x80
    28d2:	009b      	lsls	r3, r3, #2
    28d4:	429a      	cmp	r2, r3
    28d6:	d003      	beq.n	28e0 <__swsetup_r+0xa0>
    28d8:	1c30      	adds	r0, r6, #0
    28da:	1c21      	adds	r1, r4, #0
    28dc:	f000 f848 	bl	2970 <__smakebuf_r>
    28e0:	89a3      	ldrh	r3, [r4, #12]
    28e2:	2201      	movs	r2, #1
    28e4:	401a      	ands	r2, r3
    28e6:	d005      	beq.n	28f4 <__swsetup_r+0xb4>
    28e8:	6961      	ldr	r1, [r4, #20]
    28ea:	2200      	movs	r2, #0
    28ec:	60a2      	str	r2, [r4, #8]
    28ee:	424a      	negs	r2, r1
    28f0:	61a2      	str	r2, [r4, #24]
    28f2:	e003      	b.n	28fc <__swsetup_r+0xbc>
    28f4:	0799      	lsls	r1, r3, #30
    28f6:	d400      	bmi.n	28fa <__swsetup_r+0xba>
    28f8:	6962      	ldr	r2, [r4, #20]
    28fa:	60a2      	str	r2, [r4, #8]
    28fc:	6922      	ldr	r2, [r4, #16]
    28fe:	2000      	movs	r0, #0
    2900:	4282      	cmp	r2, r0
    2902:	d106      	bne.n	2912 <__swsetup_r+0xd2>
    2904:	0619      	lsls	r1, r3, #24
    2906:	d504      	bpl.n	2912 <__swsetup_r+0xd2>
    2908:	2240      	movs	r2, #64	; 0x40
    290a:	4313      	orrs	r3, r2
    290c:	81a3      	strh	r3, [r4, #12]
    290e:	2001      	movs	r0, #1
    2910:	4240      	negs	r0, r0
    2912:	bd70      	pop	{r4, r5, r6, pc}
    2914:	1ffff12c 	.word	0x1ffff12c
    2918:	000030f4 	.word	0x000030f4
    291c:	00003114 	.word	0x00003114
    2920:	00003134 	.word	0x00003134

00002924 <_close_r>:
    2924:	b538      	push	{r3, r4, r5, lr}
    2926:	4c07      	ldr	r4, [pc, #28]	; (2944 <_close_r+0x20>)
    2928:	2300      	movs	r3, #0
    292a:	1c05      	adds	r5, r0, #0
    292c:	1c08      	adds	r0, r1, #0
    292e:	6023      	str	r3, [r4, #0]
    2930:	f7fd fe50 	bl	5d4 <_close>
    2934:	1c43      	adds	r3, r0, #1
    2936:	d103      	bne.n	2940 <_close_r+0x1c>
    2938:	6823      	ldr	r3, [r4, #0]
    293a:	2b00      	cmp	r3, #0
    293c:	d000      	beq.n	2940 <_close_r+0x1c>
    293e:	602b      	str	r3, [r5, #0]
    2940:	bd38      	pop	{r3, r4, r5, pc}
    2942:	46c0      	nop			; (mov r8, r8)
    2944:	1ffff280 	.word	0x1ffff280

00002948 <_lseek_r>:
    2948:	b538      	push	{r3, r4, r5, lr}
    294a:	4c08      	ldr	r4, [pc, #32]	; (296c <_lseek_r+0x24>)
    294c:	1c05      	adds	r5, r0, #0
    294e:	2000      	movs	r0, #0
    2950:	6020      	str	r0, [r4, #0]
    2952:	1c08      	adds	r0, r1, #0
    2954:	1c11      	adds	r1, r2, #0
    2956:	1c1a      	adds	r2, r3, #0
    2958:	f7fd feb6 	bl	6c8 <_lseek>
    295c:	1c43      	adds	r3, r0, #1
    295e:	d103      	bne.n	2968 <_lseek_r+0x20>
    2960:	6823      	ldr	r3, [r4, #0]
    2962:	2b00      	cmp	r3, #0
    2964:	d000      	beq.n	2968 <_lseek_r+0x20>
    2966:	602b      	str	r3, [r5, #0]
    2968:	bd38      	pop	{r3, r4, r5, pc}
    296a:	46c0      	nop			; (mov r8, r8)
    296c:	1ffff280 	.word	0x1ffff280

00002970 <__smakebuf_r>:
    2970:	b5f0      	push	{r4, r5, r6, r7, lr}
    2972:	898b      	ldrh	r3, [r1, #12]
    2974:	b091      	sub	sp, #68	; 0x44
    2976:	1c05      	adds	r5, r0, #0
    2978:	1c0c      	adds	r4, r1, #0
    297a:	079a      	lsls	r2, r3, #30
    297c:	d425      	bmi.n	29ca <__smakebuf_r+0x5a>
    297e:	230e      	movs	r3, #14
    2980:	5ec9      	ldrsh	r1, [r1, r3]
    2982:	2900      	cmp	r1, #0
    2984:	da06      	bge.n	2994 <__smakebuf_r+0x24>
    2986:	89a7      	ldrh	r7, [r4, #12]
    2988:	2380      	movs	r3, #128	; 0x80
    298a:	401f      	ands	r7, r3
    298c:	d00f      	beq.n	29ae <__smakebuf_r+0x3e>
    298e:	2700      	movs	r7, #0
    2990:	2640      	movs	r6, #64	; 0x40
    2992:	e00e      	b.n	29b2 <__smakebuf_r+0x42>
    2994:	aa01      	add	r2, sp, #4
    2996:	f000 fa4f 	bl	2e38 <_fstat_r>
    299a:	2800      	cmp	r0, #0
    299c:	dbf3      	blt.n	2986 <__smakebuf_r+0x16>
    299e:	9b02      	ldr	r3, [sp, #8]
    29a0:	27f0      	movs	r7, #240	; 0xf0
    29a2:	023f      	lsls	r7, r7, #8
    29a4:	4a18      	ldr	r2, [pc, #96]	; (2a08 <__smakebuf_r+0x98>)
    29a6:	401f      	ands	r7, r3
    29a8:	18bf      	adds	r7, r7, r2
    29aa:	427b      	negs	r3, r7
    29ac:	415f      	adcs	r7, r3
    29ae:	2680      	movs	r6, #128	; 0x80
    29b0:	00f6      	lsls	r6, r6, #3
    29b2:	1c28      	adds	r0, r5, #0
    29b4:	1c31      	adds	r1, r6, #0
    29b6:	f7fe ff23 	bl	1800 <_malloc_r>
    29ba:	2800      	cmp	r0, #0
    29bc:	d10c      	bne.n	29d8 <__smakebuf_r+0x68>
    29be:	89a3      	ldrh	r3, [r4, #12]
    29c0:	059a      	lsls	r2, r3, #22
    29c2:	d41f      	bmi.n	2a04 <__smakebuf_r+0x94>
    29c4:	2202      	movs	r2, #2
    29c6:	4313      	orrs	r3, r2
    29c8:	81a3      	strh	r3, [r4, #12]
    29ca:	1c23      	adds	r3, r4, #0
    29cc:	3347      	adds	r3, #71	; 0x47
    29ce:	6023      	str	r3, [r4, #0]
    29d0:	6123      	str	r3, [r4, #16]
    29d2:	2301      	movs	r3, #1
    29d4:	6163      	str	r3, [r4, #20]
    29d6:	e015      	b.n	2a04 <__smakebuf_r+0x94>
    29d8:	4b0c      	ldr	r3, [pc, #48]	; (2a0c <__smakebuf_r+0x9c>)
    29da:	2280      	movs	r2, #128	; 0x80
    29dc:	62ab      	str	r3, [r5, #40]	; 0x28
    29de:	89a3      	ldrh	r3, [r4, #12]
    29e0:	6020      	str	r0, [r4, #0]
    29e2:	4313      	orrs	r3, r2
    29e4:	81a3      	strh	r3, [r4, #12]
    29e6:	6120      	str	r0, [r4, #16]
    29e8:	6166      	str	r6, [r4, #20]
    29ea:	2f00      	cmp	r7, #0
    29ec:	d00a      	beq.n	2a04 <__smakebuf_r+0x94>
    29ee:	230e      	movs	r3, #14
    29f0:	5ee1      	ldrsh	r1, [r4, r3]
    29f2:	1c28      	adds	r0, r5, #0
    29f4:	f000 fa32 	bl	2e5c <_isatty_r>
    29f8:	2800      	cmp	r0, #0
    29fa:	d003      	beq.n	2a04 <__smakebuf_r+0x94>
    29fc:	89a3      	ldrh	r3, [r4, #12]
    29fe:	2201      	movs	r2, #1
    2a00:	4313      	orrs	r3, r2
    2a02:	81a3      	strh	r3, [r4, #12]
    2a04:	b011      	add	sp, #68	; 0x44
    2a06:	bdf0      	pop	{r4, r5, r6, r7, pc}
    2a08:	ffffe000 	.word	0xffffe000
    2a0c:	000013fd 	.word	0x000013fd

00002a10 <memchr>:
    2a10:	b2c9      	uxtb	r1, r1
    2a12:	1882      	adds	r2, r0, r2
    2a14:	4290      	cmp	r0, r2
    2a16:	d004      	beq.n	2a22 <memchr+0x12>
    2a18:	7803      	ldrb	r3, [r0, #0]
    2a1a:	428b      	cmp	r3, r1
    2a1c:	d002      	beq.n	2a24 <memchr+0x14>
    2a1e:	3001      	adds	r0, #1
    2a20:	e7f8      	b.n	2a14 <memchr+0x4>
    2a22:	2000      	movs	r0, #0
    2a24:	4770      	bx	lr

00002a26 <_realloc_r>:
    2a26:	b5f8      	push	{r3, r4, r5, r6, r7, lr}
    2a28:	1c06      	adds	r6, r0, #0
    2a2a:	1c0c      	adds	r4, r1, #0
    2a2c:	1c15      	adds	r5, r2, #0
    2a2e:	2900      	cmp	r1, #0
    2a30:	d104      	bne.n	2a3c <_realloc_r+0x16>
    2a32:	1c11      	adds	r1, r2, #0
    2a34:	f7fe fee4 	bl	1800 <_malloc_r>
    2a38:	1c04      	adds	r4, r0, #0
    2a3a:	e018      	b.n	2a6e <_realloc_r+0x48>
    2a3c:	2a00      	cmp	r2, #0
    2a3e:	d103      	bne.n	2a48 <_realloc_r+0x22>
    2a40:	f7fe fe96 	bl	1770 <_free_r>
    2a44:	1c2c      	adds	r4, r5, #0
    2a46:	e012      	b.n	2a6e <_realloc_r+0x48>
    2a48:	f000 fa1a 	bl	2e80 <_malloc_usable_size_r>
    2a4c:	42a8      	cmp	r0, r5
    2a4e:	d20e      	bcs.n	2a6e <_realloc_r+0x48>
    2a50:	1c30      	adds	r0, r6, #0
    2a52:	1c29      	adds	r1, r5, #0
    2a54:	f7fe fed4 	bl	1800 <_malloc_r>
    2a58:	1e07      	subs	r7, r0, #0
    2a5a:	d007      	beq.n	2a6c <_realloc_r+0x46>
    2a5c:	1c21      	adds	r1, r4, #0
    2a5e:	1c2a      	adds	r2, r5, #0
    2a60:	f7fe fe74 	bl	174c <memcpy>
    2a64:	1c30      	adds	r0, r6, #0
    2a66:	1c21      	adds	r1, r4, #0
    2a68:	f7fe fe82 	bl	1770 <_free_r>
    2a6c:	1c3c      	adds	r4, r7, #0
    2a6e:	1c20      	adds	r0, r4, #0
    2a70:	bdf8      	pop	{r3, r4, r5, r6, r7, pc}
	...

00002a74 <_read_r>:
    2a74:	b538      	push	{r3, r4, r5, lr}
    2a76:	4c08      	ldr	r4, [pc, #32]	; (2a98 <_read_r+0x24>)
    2a78:	1c05      	adds	r5, r0, #0
    2a7a:	2000      	movs	r0, #0
    2a7c:	6020      	str	r0, [r4, #0]
    2a7e:	1c08      	adds	r0, r1, #0
    2a80:	1c11      	adds	r1, r2, #0
    2a82:	1c1a      	adds	r2, r3, #0
    2a84:	f7fd fde8 	bl	658 <_read>
    2a88:	1c43      	adds	r3, r0, #1
    2a8a:	d103      	bne.n	2a94 <_read_r+0x20>
    2a8c:	6823      	ldr	r3, [r4, #0]
    2a8e:	2b00      	cmp	r3, #0
    2a90:	d000      	beq.n	2a94 <_read_r+0x20>
    2a92:	602b      	str	r3, [r5, #0]
    2a94:	bd38      	pop	{r3, r4, r5, pc}
    2a96:	46c0      	nop			; (mov r8, r8)
    2a98:	1ffff280 	.word	0x1ffff280

00002a9c <lflush>:
    2a9c:	b508      	push	{r3, lr}
    2a9e:	8982      	ldrh	r2, [r0, #12]
    2aa0:	2309      	movs	r3, #9
    2aa2:	401a      	ands	r2, r3
    2aa4:	2300      	movs	r3, #0
    2aa6:	2a09      	cmp	r2, #9
    2aa8:	d102      	bne.n	2ab0 <lflush+0x14>
    2aaa:	f7fe fc93 	bl	13d4 <fflush>
    2aae:	1c03      	adds	r3, r0, #0
    2ab0:	1c18      	adds	r0, r3, #0
    2ab2:	bd08      	pop	{r3, pc}

00002ab4 <__srefill_r>:
    2ab4:	b5f8      	push	{r3, r4, r5, r6, r7, lr}
    2ab6:	1c05      	adds	r5, r0, #0
    2ab8:	1c0c      	adds	r4, r1, #0
    2aba:	2800      	cmp	r0, #0
    2abc:	d004      	beq.n	2ac8 <__srefill_r+0x14>
    2abe:	6981      	ldr	r1, [r0, #24]
    2ac0:	2900      	cmp	r1, #0
    2ac2:	d101      	bne.n	2ac8 <__srefill_r+0x14>
    2ac4:	f7fe fcee 	bl	14a4 <__sinit>
    2ac8:	4b39      	ldr	r3, [pc, #228]	; (2bb0 <__srefill_r+0xfc>)
    2aca:	429c      	cmp	r4, r3
    2acc:	d101      	bne.n	2ad2 <__srefill_r+0x1e>
    2ace:	686c      	ldr	r4, [r5, #4]
    2ad0:	e008      	b.n	2ae4 <__srefill_r+0x30>
    2ad2:	4b38      	ldr	r3, [pc, #224]	; (2bb4 <__srefill_r+0x100>)
    2ad4:	429c      	cmp	r4, r3
    2ad6:	d101      	bne.n	2adc <__srefill_r+0x28>
    2ad8:	68ac      	ldr	r4, [r5, #8]
    2ada:	e003      	b.n	2ae4 <__srefill_r+0x30>
    2adc:	4b36      	ldr	r3, [pc, #216]	; (2bb8 <__srefill_r+0x104>)
    2ade:	429c      	cmp	r4, r3
    2ae0:	d100      	bne.n	2ae4 <__srefill_r+0x30>
    2ae2:	68ec      	ldr	r4, [r5, #12]
    2ae4:	89a2      	ldrh	r2, [r4, #12]
    2ae6:	2300      	movs	r3, #0
    2ae8:	6063      	str	r3, [r4, #4]
    2aea:	b293      	uxth	r3, r2
    2aec:	0699      	lsls	r1, r3, #26
    2aee:	d45c      	bmi.n	2baa <__srefill_r+0xf6>
    2af0:	0759      	lsls	r1, r3, #29
    2af2:	d417      	bmi.n	2b24 <__srefill_r+0x70>
    2af4:	06d9      	lsls	r1, r3, #27
    2af6:	d402      	bmi.n	2afe <__srefill_r+0x4a>
    2af8:	2309      	movs	r3, #9
    2afa:	602b      	str	r3, [r5, #0]
    2afc:	e052      	b.n	2ba4 <__srefill_r+0xf0>
    2afe:	2608      	movs	r6, #8
    2b00:	4233      	tst	r3, r6
    2b02:	d00a      	beq.n	2b1a <__srefill_r+0x66>
    2b04:	1c28      	adds	r0, r5, #0
    2b06:	1c21      	adds	r1, r4, #0
    2b08:	f7fe fc38 	bl	137c <_fflush_r>
    2b0c:	2800      	cmp	r0, #0
    2b0e:	d14c      	bne.n	2baa <__srefill_r+0xf6>
    2b10:	89a3      	ldrh	r3, [r4, #12]
    2b12:	60a0      	str	r0, [r4, #8]
    2b14:	43b3      	bics	r3, r6
    2b16:	81a3      	strh	r3, [r4, #12]
    2b18:	61a0      	str	r0, [r4, #24]
    2b1a:	89a3      	ldrh	r3, [r4, #12]
    2b1c:	2204      	movs	r2, #4
    2b1e:	4313      	orrs	r3, r2
    2b20:	81a3      	strh	r3, [r4, #12]
    2b22:	e012      	b.n	2b4a <__srefill_r+0x96>
    2b24:	6b61      	ldr	r1, [r4, #52]	; 0x34
    2b26:	2900      	cmp	r1, #0
    2b28:	d00f      	beq.n	2b4a <__srefill_r+0x96>
    2b2a:	1c23      	adds	r3, r4, #0
    2b2c:	3344      	adds	r3, #68	; 0x44
    2b2e:	4299      	cmp	r1, r3
    2b30:	d002      	beq.n	2b38 <__srefill_r+0x84>
    2b32:	1c28      	adds	r0, r5, #0
    2b34:	f7fe fe1c 	bl	1770 <_free_r>
    2b38:	6c23      	ldr	r3, [r4, #64]	; 0x40
    2b3a:	2000      	movs	r0, #0
    2b3c:	6360      	str	r0, [r4, #52]	; 0x34
    2b3e:	6063      	str	r3, [r4, #4]
    2b40:	4283      	cmp	r3, r0
    2b42:	d002      	beq.n	2b4a <__srefill_r+0x96>
    2b44:	6be3      	ldr	r3, [r4, #60]	; 0x3c
    2b46:	6023      	str	r3, [r4, #0]
    2b48:	e031      	b.n	2bae <__srefill_r+0xfa>
    2b4a:	6921      	ldr	r1, [r4, #16]
    2b4c:	2900      	cmp	r1, #0
    2b4e:	d103      	bne.n	2b58 <__srefill_r+0xa4>
    2b50:	1c28      	adds	r0, r5, #0
    2b52:	1c21      	adds	r1, r4, #0
    2b54:	f7ff ff0c 	bl	2970 <__smakebuf_r>
    2b58:	89a7      	ldrh	r7, [r4, #12]
    2b5a:	b2be      	uxth	r6, r7
    2b5c:	07b3      	lsls	r3, r6, #30
    2b5e:	d00f      	beq.n	2b80 <__srefill_r+0xcc>
    2b60:	2301      	movs	r3, #1
    2b62:	81a3      	strh	r3, [r4, #12]
    2b64:	4b15      	ldr	r3, [pc, #84]	; (2bbc <__srefill_r+0x108>)
    2b66:	4916      	ldr	r1, [pc, #88]	; (2bc0 <__srefill_r+0x10c>)
    2b68:	6818      	ldr	r0, [r3, #0]
    2b6a:	f7fe fd1d 	bl	15a8 <_fwalk>
    2b6e:	2309      	movs	r3, #9
    2b70:	81a7      	strh	r7, [r4, #12]
    2b72:	401e      	ands	r6, r3
    2b74:	429e      	cmp	r6, r3
    2b76:	d103      	bne.n	2b80 <__srefill_r+0xcc>
    2b78:	1c28      	adds	r0, r5, #0
    2b7a:	1c21      	adds	r1, r4, #0
    2b7c:	f7fe fb74 	bl	1268 <__sflush_r>
    2b80:	6922      	ldr	r2, [r4, #16]
    2b82:	1c28      	adds	r0, r5, #0
    2b84:	6963      	ldr	r3, [r4, #20]
    2b86:	6022      	str	r2, [r4, #0]
    2b88:	6a21      	ldr	r1, [r4, #32]
    2b8a:	6a65      	ldr	r5, [r4, #36]	; 0x24
    2b8c:	47a8      	blx	r5
    2b8e:	1c03      	adds	r3, r0, #0
    2b90:	6060      	str	r0, [r4, #4]
    2b92:	2000      	movs	r0, #0
    2b94:	4283      	cmp	r3, r0
    2b96:	dc0a      	bgt.n	2bae <__srefill_r+0xfa>
    2b98:	89a2      	ldrh	r2, [r4, #12]
    2b9a:	4283      	cmp	r3, r0
    2b9c:	d101      	bne.n	2ba2 <__srefill_r+0xee>
    2b9e:	2320      	movs	r3, #32
    2ba0:	e001      	b.n	2ba6 <__srefill_r+0xf2>
    2ba2:	6060      	str	r0, [r4, #4]
    2ba4:	2340      	movs	r3, #64	; 0x40
    2ba6:	431a      	orrs	r2, r3
    2ba8:	81a2      	strh	r2, [r4, #12]
    2baa:	2001      	movs	r0, #1
    2bac:	4240      	negs	r0, r0
    2bae:	bdf8      	pop	{r3, r4, r5, r6, r7, pc}
    2bb0:	000030f4 	.word	0x000030f4
    2bb4:	00003114 	.word	0x00003114
    2bb8:	00003134 	.word	0x00003134
    2bbc:	00003158 	.word	0x00003158
    2bc0:	00002a9d 	.word	0x00002a9d

00002bc4 <__sccl>:
    2bc4:	b5f0      	push	{r4, r5, r6, r7, lr}
    2bc6:	780b      	ldrb	r3, [r1, #0]
    2bc8:	2b5e      	cmp	r3, #94	; 0x5e
    2bca:	d002      	beq.n	2bd2 <__sccl+0xe>
    2bcc:	1c4c      	adds	r4, r1, #1
    2bce:	2100      	movs	r1, #0
    2bd0:	e002      	b.n	2bd8 <__sccl+0x14>
    2bd2:	1c8c      	adds	r4, r1, #2
    2bd4:	784b      	ldrb	r3, [r1, #1]
    2bd6:	2101      	movs	r1, #1
    2bd8:	2200      	movs	r2, #0
    2bda:	5481      	strb	r1, [r0, r2]
    2bdc:	2580      	movs	r5, #128	; 0x80
    2bde:	3201      	adds	r2, #1
    2be0:	006d      	lsls	r5, r5, #1
    2be2:	42aa      	cmp	r2, r5
    2be4:	d1f9      	bne.n	2bda <__sccl+0x16>
    2be6:	2b00      	cmp	r3, #0
    2be8:	d101      	bne.n	2bee <__sccl+0x2a>
    2bea:	1e60      	subs	r0, r4, #1
    2bec:	e01c      	b.n	2c28 <__sccl+0x64>
    2bee:	2701      	movs	r7, #1
    2bf0:	1a7f      	subs	r7, r7, r1
    2bf2:	b2fe      	uxtb	r6, r7
    2bf4:	54c6      	strb	r6, [r0, r3]
    2bf6:	1c22      	adds	r2, r4, #0
    2bf8:	7811      	ldrb	r1, [r2, #0]
    2bfa:	1c54      	adds	r4, r2, #1
    2bfc:	292d      	cmp	r1, #45	; 0x2d
    2bfe:	d005      	beq.n	2c0c <__sccl+0x48>
    2c00:	295d      	cmp	r1, #93	; 0x5d
    2c02:	d00e      	beq.n	2c22 <__sccl+0x5e>
    2c04:	2900      	cmp	r1, #0
    2c06:	d00e      	beq.n	2c26 <__sccl+0x62>
    2c08:	1c0b      	adds	r3, r1, #0
    2c0a:	e7f2      	b.n	2bf2 <__sccl+0x2e>
    2c0c:	7855      	ldrb	r5, [r2, #1]
    2c0e:	2d5d      	cmp	r5, #93	; 0x5d
    2c10:	d0fa      	beq.n	2c08 <__sccl+0x44>
    2c12:	429d      	cmp	r5, r3
    2c14:	dbf8      	blt.n	2c08 <__sccl+0x44>
    2c16:	3202      	adds	r2, #2
    2c18:	3301      	adds	r3, #1
    2c1a:	54c6      	strb	r6, [r0, r3]
    2c1c:	42ab      	cmp	r3, r5
    2c1e:	dbfb      	blt.n	2c18 <__sccl+0x54>
    2c20:	e7ea      	b.n	2bf8 <__sccl+0x34>
    2c22:	1c20      	adds	r0, r4, #0
    2c24:	e000      	b.n	2c28 <__sccl+0x64>
    2c26:	1c10      	adds	r0, r2, #0
    2c28:	bdf0      	pop	{r4, r5, r6, r7, pc}
	...

00002c2c <_strtol_r>:
    2c2c:	b5f0      	push	{r4, r5, r6, r7, lr}
    2c2e:	1c1d      	adds	r5, r3, #0
    2c30:	4b42      	ldr	r3, [pc, #264]	; (2d3c <_strtol_r+0x110>)
    2c32:	b087      	sub	sp, #28
    2c34:	681b      	ldr	r3, [r3, #0]
    2c36:	9005      	str	r0, [sp, #20]
    2c38:	9302      	str	r3, [sp, #8]
    2c3a:	9103      	str	r1, [sp, #12]
    2c3c:	9201      	str	r2, [sp, #4]
    2c3e:	1c0b      	adds	r3, r1, #0
    2c40:	781c      	ldrb	r4, [r3, #0]
    2c42:	9f02      	ldr	r7, [sp, #8]
    2c44:	1c5e      	adds	r6, r3, #1
    2c46:	193a      	adds	r2, r7, r4
    2c48:	7851      	ldrb	r1, [r2, #1]
    2c4a:	2208      	movs	r2, #8
    2c4c:	400a      	ands	r2, r1
    2c4e:	d001      	beq.n	2c54 <_strtol_r+0x28>
    2c50:	1c33      	adds	r3, r6, #0
    2c52:	e7f5      	b.n	2c40 <_strtol_r+0x14>
    2c54:	2c2d      	cmp	r4, #45	; 0x2d
    2c56:	d104      	bne.n	2c62 <_strtol_r+0x36>
    2c58:	2701      	movs	r7, #1
    2c5a:	1c9e      	adds	r6, r3, #2
    2c5c:	785c      	ldrb	r4, [r3, #1]
    2c5e:	9700      	str	r7, [sp, #0]
    2c60:	e004      	b.n	2c6c <_strtol_r+0x40>
    2c62:	9200      	str	r2, [sp, #0]
    2c64:	2c2b      	cmp	r4, #43	; 0x2b
    2c66:	d101      	bne.n	2c6c <_strtol_r+0x40>
    2c68:	785c      	ldrb	r4, [r3, #1]
    2c6a:	1c9e      	adds	r6, r3, #2
    2c6c:	2310      	movs	r3, #16
    2c6e:	1c2a      	adds	r2, r5, #0
    2c70:	439a      	bics	r2, r3
    2c72:	d111      	bne.n	2c98 <_strtol_r+0x6c>
    2c74:	2c30      	cmp	r4, #48	; 0x30
    2c76:	d108      	bne.n	2c8a <_strtol_r+0x5e>
    2c78:	7832      	ldrb	r2, [r6, #0]
    2c7a:	2120      	movs	r1, #32
    2c7c:	438a      	bics	r2, r1
    2c7e:	2a58      	cmp	r2, #88	; 0x58
    2c80:	d107      	bne.n	2c92 <_strtol_r+0x66>
    2c82:	7874      	ldrb	r4, [r6, #1]
    2c84:	1c1d      	adds	r5, r3, #0
    2c86:	3602      	adds	r6, #2
    2c88:	e006      	b.n	2c98 <_strtol_r+0x6c>
    2c8a:	2d00      	cmp	r5, #0
    2c8c:	d104      	bne.n	2c98 <_strtol_r+0x6c>
    2c8e:	250a      	movs	r5, #10
    2c90:	e002      	b.n	2c98 <_strtol_r+0x6c>
    2c92:	2d00      	cmp	r5, #0
    2c94:	d100      	bne.n	2c98 <_strtol_r+0x6c>
    2c96:	2508      	movs	r5, #8
    2c98:	9f00      	ldr	r7, [sp, #0]
    2c9a:	1c29      	adds	r1, r5, #0
    2c9c:	427b      	negs	r3, r7
    2c9e:	417b      	adcs	r3, r7
    2ca0:	2780      	movs	r7, #128	; 0x80
    2ca2:	063f      	lsls	r7, r7, #24
    2ca4:	1aff      	subs	r7, r7, r3
    2ca6:	1c38      	adds	r0, r7, #0
    2ca8:	f7fe facc 	bl	1244 <__aeabi_uidivmod>
    2cac:	1c38      	adds	r0, r7, #0
    2cae:	9104      	str	r1, [sp, #16]
    2cb0:	1c29      	adds	r1, r5, #0
    2cb2:	f7fe fa83 	bl	11bc <__aeabi_uidiv>
    2cb6:	2300      	movs	r3, #0
    2cb8:	1c02      	adds	r2, r0, #0
    2cba:	1c18      	adds	r0, r3, #0
    2cbc:	9f02      	ldr	r7, [sp, #8]
    2cbe:	1939      	adds	r1, r7, r4
    2cc0:	7849      	ldrb	r1, [r1, #1]
    2cc2:	074f      	lsls	r7, r1, #29
    2cc4:	d501      	bpl.n	2cca <_strtol_r+0x9e>
    2cc6:	3c30      	subs	r4, #48	; 0x30
    2cc8:	e007      	b.n	2cda <_strtol_r+0xae>
    2cca:	2703      	movs	r7, #3
    2ccc:	400f      	ands	r7, r1
    2cce:	d017      	beq.n	2d00 <_strtol_r+0xd4>
    2cd0:	2157      	movs	r1, #87	; 0x57
    2cd2:	2f01      	cmp	r7, #1
    2cd4:	d100      	bne.n	2cd8 <_strtol_r+0xac>
    2cd6:	2137      	movs	r1, #55	; 0x37
    2cd8:	1a64      	subs	r4, r4, r1
    2cda:	42ac      	cmp	r4, r5
    2cdc:	da10      	bge.n	2d00 <_strtol_r+0xd4>
    2cde:	1c59      	adds	r1, r3, #1
    2ce0:	d00b      	beq.n	2cfa <_strtol_r+0xce>
    2ce2:	4290      	cmp	r0, r2
    2ce4:	d807      	bhi.n	2cf6 <_strtol_r+0xca>
    2ce6:	d102      	bne.n	2cee <_strtol_r+0xc2>
    2ce8:	9f04      	ldr	r7, [sp, #16]
    2cea:	42bc      	cmp	r4, r7
    2cec:	dc03      	bgt.n	2cf6 <_strtol_r+0xca>
    2cee:	4368      	muls	r0, r5
    2cf0:	2301      	movs	r3, #1
    2cf2:	1820      	adds	r0, r4, r0
    2cf4:	e001      	b.n	2cfa <_strtol_r+0xce>
    2cf6:	2301      	movs	r3, #1
    2cf8:	425b      	negs	r3, r3
    2cfa:	7834      	ldrb	r4, [r6, #0]
    2cfc:	3601      	adds	r6, #1
    2cfe:	e7dd      	b.n	2cbc <_strtol_r+0x90>
    2d00:	9f00      	ldr	r7, [sp, #0]
    2d02:	1c59      	adds	r1, r3, #1
    2d04:	d10b      	bne.n	2d1e <_strtol_r+0xf2>
    2d06:	2080      	movs	r0, #128	; 0x80
    2d08:	427b      	negs	r3, r7
    2d0a:	417b      	adcs	r3, r7
    2d0c:	0600      	lsls	r0, r0, #24
    2d0e:	9f05      	ldr	r7, [sp, #20]
    2d10:	1ac0      	subs	r0, r0, r3
    2d12:	2322      	movs	r3, #34	; 0x22
    2d14:	603b      	str	r3, [r7, #0]
    2d16:	9f01      	ldr	r7, [sp, #4]
    2d18:	2f00      	cmp	r7, #0
    2d1a:	d109      	bne.n	2d30 <_strtol_r+0x104>
    2d1c:	e00b      	b.n	2d36 <_strtol_r+0x10a>
    2d1e:	2f00      	cmp	r7, #0
    2d20:	d000      	beq.n	2d24 <_strtol_r+0xf8>
    2d22:	4240      	negs	r0, r0
    2d24:	9f01      	ldr	r7, [sp, #4]
    2d26:	2f00      	cmp	r7, #0
    2d28:	d005      	beq.n	2d36 <_strtol_r+0x10a>
    2d2a:	9a03      	ldr	r2, [sp, #12]
    2d2c:	2b00      	cmp	r3, #0
    2d2e:	d000      	beq.n	2d32 <_strtol_r+0x106>
    2d30:	1e72      	subs	r2, r6, #1
    2d32:	9f01      	ldr	r7, [sp, #4]
    2d34:	603a      	str	r2, [r7, #0]
    2d36:	b007      	add	sp, #28
    2d38:	bdf0      	pop	{r4, r5, r6, r7, pc}
    2d3a:	46c0      	nop			; (mov r8, r8)
    2d3c:	1ffff130 	.word	0x1ffff130

00002d40 <_strtoul_r>:
    2d40:	b5f0      	push	{r4, r5, r6, r7, lr}
    2d42:	1c1d      	adds	r5, r3, #0
    2d44:	4b3b      	ldr	r3, [pc, #236]	; (2e34 <_strtoul_r+0xf4>)
    2d46:	b087      	sub	sp, #28
    2d48:	681b      	ldr	r3, [r3, #0]
    2d4a:	9005      	str	r0, [sp, #20]
    2d4c:	9302      	str	r3, [sp, #8]
    2d4e:	9104      	str	r1, [sp, #16]
    2d50:	1c17      	adds	r7, r2, #0
    2d52:	1c0b      	adds	r3, r1, #0
    2d54:	9902      	ldr	r1, [sp, #8]
    2d56:	781c      	ldrb	r4, [r3, #0]
    2d58:	1c5e      	adds	r6, r3, #1
    2d5a:	190a      	adds	r2, r1, r4
    2d5c:	7851      	ldrb	r1, [r2, #1]
    2d5e:	2208      	movs	r2, #8
    2d60:	400a      	ands	r2, r1
    2d62:	d001      	beq.n	2d68 <_strtoul_r+0x28>
    2d64:	1c33      	adds	r3, r6, #0
    2d66:	e7f5      	b.n	2d54 <_strtoul_r+0x14>
    2d68:	2c2d      	cmp	r4, #45	; 0x2d
    2d6a:	d104      	bne.n	2d76 <_strtoul_r+0x36>
    2d6c:	2201      	movs	r2, #1
    2d6e:	1c9e      	adds	r6, r3, #2
    2d70:	785c      	ldrb	r4, [r3, #1]
    2d72:	9201      	str	r2, [sp, #4]
    2d74:	e004      	b.n	2d80 <_strtoul_r+0x40>
    2d76:	9201      	str	r2, [sp, #4]
    2d78:	2c2b      	cmp	r4, #43	; 0x2b
    2d7a:	d101      	bne.n	2d80 <_strtoul_r+0x40>
    2d7c:	785c      	ldrb	r4, [r3, #1]
    2d7e:	1c9e      	adds	r6, r3, #2
    2d80:	2310      	movs	r3, #16
    2d82:	1c2a      	adds	r2, r5, #0
    2d84:	439a      	bics	r2, r3
    2d86:	d111      	bne.n	2dac <_strtoul_r+0x6c>
    2d88:	2c30      	cmp	r4, #48	; 0x30
    2d8a:	d108      	bne.n	2d9e <_strtoul_r+0x5e>
    2d8c:	7832      	ldrb	r2, [r6, #0]
    2d8e:	2120      	movs	r1, #32
    2d90:	438a      	bics	r2, r1
    2d92:	2a58      	cmp	r2, #88	; 0x58
    2d94:	d107      	bne.n	2da6 <_strtoul_r+0x66>
    2d96:	7874      	ldrb	r4, [r6, #1]
    2d98:	1c1d      	adds	r5, r3, #0
    2d9a:	3602      	adds	r6, #2
    2d9c:	e006      	b.n	2dac <_strtoul_r+0x6c>
    2d9e:	2d00      	cmp	r5, #0
    2da0:	d104      	bne.n	2dac <_strtoul_r+0x6c>
    2da2:	250a      	movs	r5, #10
    2da4:	e002      	b.n	2dac <_strtoul_r+0x6c>
    2da6:	2d00      	cmp	r5, #0
    2da8:	d100      	bne.n	2dac <_strtoul_r+0x6c>
    2daa:	2508      	movs	r5, #8
    2dac:	2001      	movs	r0, #1
    2dae:	1c29      	adds	r1, r5, #0
    2db0:	4240      	negs	r0, r0
    2db2:	f7fe fa03 	bl	11bc <__aeabi_uidiv>
    2db6:	9003      	str	r0, [sp, #12]
    2db8:	2001      	movs	r0, #1
    2dba:	4240      	negs	r0, r0
    2dbc:	1c29      	adds	r1, r5, #0
    2dbe:	f7fe fa41 	bl	1244 <__aeabi_uidivmod>
    2dc2:	2300      	movs	r3, #0
    2dc4:	468c      	mov	r12, r1
    2dc6:	1c18      	adds	r0, r3, #0
    2dc8:	9902      	ldr	r1, [sp, #8]
    2dca:	190a      	adds	r2, r1, r4
    2dcc:	7852      	ldrb	r2, [r2, #1]
    2dce:	0751      	lsls	r1, r2, #29
    2dd0:	d501      	bpl.n	2dd6 <_strtoul_r+0x96>
    2dd2:	3c30      	subs	r4, #48	; 0x30
    2dd4:	e007      	b.n	2de6 <_strtoul_r+0xa6>
    2dd6:	2103      	movs	r1, #3
    2dd8:	4011      	ands	r1, r2
    2dda:	d017      	beq.n	2e0c <_strtoul_r+0xcc>
    2ddc:	2257      	movs	r2, #87	; 0x57
    2dde:	2901      	cmp	r1, #1
    2de0:	d100      	bne.n	2de4 <_strtoul_r+0xa4>
    2de2:	2237      	movs	r2, #55	; 0x37
    2de4:	1aa4      	subs	r4, r4, r2
    2de6:	42ac      	cmp	r4, r5
    2de8:	da10      	bge.n	2e0c <_strtoul_r+0xcc>
    2dea:	2b00      	cmp	r3, #0
    2dec:	db09      	blt.n	2e02 <_strtoul_r+0xc2>
    2dee:	9a03      	ldr	r2, [sp, #12]
    2df0:	4290      	cmp	r0, r2
    2df2:	d806      	bhi.n	2e02 <_strtoul_r+0xc2>
    2df4:	d101      	bne.n	2dfa <_strtoul_r+0xba>
    2df6:	4564      	cmp	r4, r12
    2df8:	dc03      	bgt.n	2e02 <_strtoul_r+0xc2>
    2dfa:	4368      	muls	r0, r5
    2dfc:	2301      	movs	r3, #1
    2dfe:	1820      	adds	r0, r4, r0
    2e00:	e001      	b.n	2e06 <_strtoul_r+0xc6>
    2e02:	2301      	movs	r3, #1
    2e04:	425b      	negs	r3, r3
    2e06:	7834      	ldrb	r4, [r6, #0]
    2e08:	3601      	adds	r6, #1
    2e0a:	e7dd      	b.n	2dc8 <_strtoul_r+0x88>
    2e0c:	2b00      	cmp	r3, #0
    2e0e:	da04      	bge.n	2e1a <_strtoul_r+0xda>
    2e10:	9905      	ldr	r1, [sp, #20]
    2e12:	2222      	movs	r2, #34	; 0x22
    2e14:	600a      	str	r2, [r1, #0]
    2e16:	2001      	movs	r0, #1
    2e18:	e002      	b.n	2e20 <_strtoul_r+0xe0>
    2e1a:	9a01      	ldr	r2, [sp, #4]
    2e1c:	2a00      	cmp	r2, #0
    2e1e:	d000      	beq.n	2e22 <_strtoul_r+0xe2>
    2e20:	4240      	negs	r0, r0
    2e22:	2f00      	cmp	r7, #0
    2e24:	d004      	beq.n	2e30 <_strtoul_r+0xf0>
    2e26:	9a04      	ldr	r2, [sp, #16]
    2e28:	2b00      	cmp	r3, #0
    2e2a:	d000      	beq.n	2e2e <_strtoul_r+0xee>
    2e2c:	1e72      	subs	r2, r6, #1
    2e2e:	603a      	str	r2, [r7, #0]
    2e30:	b007      	add	sp, #28
    2e32:	bdf0      	pop	{r4, r5, r6, r7, pc}
    2e34:	1ffff130 	.word	0x1ffff130

00002e38 <_fstat_r>:
    2e38:	b538      	push	{r3, r4, r5, lr}
    2e3a:	4c07      	ldr	r4, [pc, #28]	; (2e58 <_fstat_r+0x20>)
    2e3c:	2300      	movs	r3, #0
    2e3e:	1c05      	adds	r5, r0, #0
    2e40:	1c08      	adds	r0, r1, #0
    2e42:	1c11      	adds	r1, r2, #0
    2e44:	6023      	str	r3, [r4, #0]
    2e46:	f7fd fc53 	bl	6f0 <_fstat>
    2e4a:	1c43      	adds	r3, r0, #1
    2e4c:	d103      	bne.n	2e56 <_fstat_r+0x1e>
    2e4e:	6823      	ldr	r3, [r4, #0]
    2e50:	2b00      	cmp	r3, #0
    2e52:	d000      	beq.n	2e56 <_fstat_r+0x1e>
    2e54:	602b      	str	r3, [r5, #0]
    2e56:	bd38      	pop	{r3, r4, r5, pc}
    2e58:	1ffff280 	.word	0x1ffff280

00002e5c <_isatty_r>:
    2e5c:	b538      	push	{r3, r4, r5, lr}
    2e5e:	4c07      	ldr	r4, [pc, #28]	; (2e7c <_isatty_r+0x20>)
    2e60:	2300      	movs	r3, #0
    2e62:	1c05      	adds	r5, r0, #0
    2e64:	1c08      	adds	r0, r1, #0
    2e66:	6023      	str	r3, [r4, #0]
    2e68:	f7fd fb70 	bl	54c <__wrap__isatty>
    2e6c:	1c43      	adds	r3, r0, #1
    2e6e:	d103      	bne.n	2e78 <_isatty_r+0x1c>
    2e70:	6823      	ldr	r3, [r4, #0]
    2e72:	2b00      	cmp	r3, #0
    2e74:	d000      	beq.n	2e78 <_isatty_r+0x1c>
    2e76:	602b      	str	r3, [r5, #0]
    2e78:	bd38      	pop	{r3, r4, r5, pc}
    2e7a:	46c0      	nop			; (mov r8, r8)
    2e7c:	1ffff280 	.word	0x1ffff280

00002e80 <_malloc_usable_size_r>:
    2e80:	3904      	subs	r1, #4
    2e82:	680b      	ldr	r3, [r1, #0]
    2e84:	1f18      	subs	r0, r3, #4
    2e86:	2b00      	cmp	r3, #0
    2e88:	da02      	bge.n	2e90 <_malloc_usable_size_r+0x10>
    2e8a:	58c8      	ldr	r0, [r1, r3]
    2e8c:	181b      	adds	r3, r3, r0
    2e8e:	1f18      	subs	r0, r3, #4
    2e90:	4770      	bx	lr
	...

00002e94 <_init>:
    2e94:	b5f8      	push	{r3, r4, r5, r6, r7, lr}
    2e96:	46c0      	nop			; (mov r8, r8)
    2e98:	bcf8      	pop	{r3, r4, r5, r6, r7}
    2e9a:	bc08      	pop	{r3}
    2e9c:	469e      	mov	lr, r3
    2e9e:	4770      	bx	lr

00002ea0 <_fini>:
    2ea0:	b5f8      	push	{r3, r4, r5, r6, r7, lr}
    2ea2:	46c0      	nop			; (mov r8, r8)
    2ea4:	bcf8      	pop	{r3, r4, r5, r6, r7}
    2ea6:	bc08      	pop	{r3}
    2ea8:	469e      	mov	lr, r3
    2eaa:	4770      	bx	lr
    2eac:	0a0d0a0d 	.word	0x0a0d0a0d
    2eb0:	34434347 	.word	0x34434347
    2eb4:	4445424d 	.word	0x4445424d
    2eb8:	73655420 	.word	0x73655420
    2ebc:	75532074 	.word	0x75532074
    2ec0:	0d657469 	.word	0x0d657469
    2ec4:	00000000 	.word	0x00000000
    2ec8:	6e617453 	.word	0x6e617453
    2ecc:	64726164 	.word	0x64726164
    2ed0:	4f2f4920 	.word	0x4f2f4920
    2ed4:	696e5520 	.word	0x696e5520
    2ed8:	65542074 	.word	0x65542074
    2edc:	0d737473 	.word	0x0d737473
    2ee0:	00000000 	.word	0x00000000
    2ee4:	74736554 	.word	0x74736554
    2ee8:	203a3120 	.word	0x203a3120
    2eec:	6e697270 	.word	0x6e697270
    2ef0:	29286674 	.word	0x29286674
    2ef4:	73657420 	.word	0x73657420
    2ef8:	00000d74 	.word	0x00000d74
    2efc:	74736554 	.word	0x74736554
    2f00:	203a3220 	.word	0x203a3220
    2f04:	6e616373 	.word	0x6e616373
    2f08:	20292866 	.word	0x20292866
    2f0c:	74736574 	.word	0x74736574
    2f10:	0000000d 	.word	0x0000000d
    2f14:	20202020 	.word	0x20202020
    2f18:	65707954 	.word	0x65707954
    2f1c:	6d756e20 	.word	0x6d756e20
    2f20:	20726562 	.word	0x20726562
    2f24:	20646e61 	.word	0x20646e61
    2f28:	73657270 	.word	0x73657270
    2f2c:	6e452073 	.word	0x6e452073
    2f30:	3a726574 	.word	0x3a726574
    2f34:	00000020 	.word	0x00000020
    2f38:	00006425 	.word	0x00006425
    2f3c:	2020200a 	.word	0x2020200a
    2f40:	756f5920 	.word	0x756f5920
    2f44:	61762072 	.word	0x61762072
    2f48:	2065756c 	.word	0x2065756c
    2f4c:	3a736177 	.word	0x3a736177
    2f50:	0d642520 	.word	0x0d642520
    2f54:	0000000a 	.word	0x0000000a
    2f58:	74736554 	.word	0x74736554
    2f5c:	203a3320 	.word	0x203a3320
    2f60:	69727066 	.word	0x69727066
    2f64:	2866746e 	.word	0x2866746e
    2f68:	6f647473 	.word	0x6f647473
    2f6c:	202c7475 	.word	0x202c7475
    2f70:	292e2e2e 	.word	0x292e2e2e
    2f74:	73657420 	.word	0x73657420
    2f78:	000a0d74 	.word	0x000a0d74
    2f7c:	74736554 	.word	0x74736554
    2f80:	203a3420 	.word	0x203a3420
    2f84:	69727066 	.word	0x69727066
    2f88:	2866746e 	.word	0x2866746e
    2f8c:	65647473 	.word	0x65647473
    2f90:	202c7272 	.word	0x202c7272
    2f94:	292e2e2e 	.word	0x292e2e2e
    2f98:	73657420 	.word	0x73657420
    2f9c:	000a0d74 	.word	0x000a0d74
    2fa0:	74736554 	.word	0x74736554
    2fa4:	203a3520 	.word	0x203a3520
    2fa8:	61637366 	.word	0x61637366
    2fac:	7328666e 	.word	0x7328666e
    2fb0:	6e696474 	.word	0x6e696474
    2fb4:	2e2e202c 	.word	0x2e2e202c
    2fb8:	7420292e 	.word	0x7420292e
    2fbc:	0d747365 	.word	0x0d747365
    2fc0:	00000000 	.word	0x00000000
    2fc4:	74736554 	.word	0x74736554
    2fc8:	6d6f6320 	.word	0x6d6f6320
    2fcc:	74656c70 	.word	0x74656c70
    2fd0:	00000d65 	.word	0x00000d65
    2fd4:	6c756f63 	.word	0x6c756f63
    2fd8:	6f6e2064 	.word	0x6f6e2064
    2fdc:	69702074 	.word	0x69702074
    2fe0:	74756f6e 	.word	0x74756f6e
    2fe4:	00000000 	.word	0x00000000
    2fe8:	6d6e6970 	.word	0x6d6e6970
    2fec:	6d207061 	.word	0x6d207061
    2ff0:	6d2d7369 	.word	0x6d2d7369
    2ff4:	68637461 	.word	0x68637461
    2ff8:	00000000 	.word	0x00000000
    2ffc:	6d6e6970 	.word	0x6d6e6970
    3000:	6e207061 	.word	0x6e207061
    3004:	6620746f 	.word	0x6620746f
    3008:	646e756f 	.word	0x646e756f
    300c:	726f6620 	.word	0x726f6620
    3010:	72657020 	.word	0x72657020
    3014:	65687069 	.word	0x65687069
    3018:	006c6172 	.word	0x006c6172

0000301c <PinMap_UART_RX>:
    301c:	0000200c 4006b000 00000003 00000004     . .....@........
    302c:	4006a000 00000002 00003010 4006c000     ...@.....0.....@
    303c:	00000003 00003008 4006c000 00000003     .....0.....@....
    304c:	00003018 4006a000 00000003 0000405c     .0.....@....\@..
    305c:	4006c000 00000004 00004054 4006a000     ...@....T@.....@
    306c:	00000004 00004004 4006b000 00000003     .....@.....@....
    307c:	0000ffff ffffffff 00000000              ............

00003088 <PinMap_UART_TX>:
    3088:	00002010 4006b000 00000003 00000008     . .....@........
    3098:	4006a000 00000002 00003014 4006c000     ...@.....0.....@
    30a8:	00000003 0000300c 4006c000 00000003     .....0.....@....
    30b8:	0000301c 4006a000 00000003 00004050     .0.....@....P@..
    30c8:	4006a000 00000004 00004058 4006c000     ...@....X@.....@
    30d8:	00000004 00004000 4006b000 00000003     .....@.....@....
    30e8:	0000ffff ffffffff 00000000              ............

000030f4 <__sf_fake_stdin>:
	...

00003114 <__sf_fake_stdout>:
	...

00003134 <__sf_fake_stderr>:
	...
    3154:	00000043                                C...

00003158 <_global_impure_ptr>:
    3158:	1ffff0cc 2b302d23 6c680020 6665004c     ....#-0+ .hlL.ef
    3168:	47464567 32313000 36353433 41393837     gEFG.0123456789A
    3178:	45444342 31300046 35343332 39383736     BCDEF.0123456789
    3188:	64636261 00006665 000031ae 000031b1     abcdef...1...1..
    3198:	000031b4 61462d41 3938662d 33323130     .1..A-Fa-f890123
    31a8:	37363534 2d2b005d 00303000 00005878              4567].+-.00.xX.

000031b7 <_ctype_>:
    31b7:	20202000 20202020 28282020 20282828     .         ((((( 
    31c7:	20202020 20202020 20202020 20202020                     
    31d7:	10108820 10101010 10101010 10101010      ...............
    31e7:	04040410 04040404 10040404 10101010     ................
    31f7:	41411010 41414141 01010101 01010101     ..AAAAAA........
    3207:	01010101 01010101 01010101 10101010     ................
    3217:	42421010 42424242 02020202 02020202     ..BBBBBB........
    3227:	02020202 02020202 02020202 10101010     ................
    3237:	00000020 00000000 00000000 00000000      ...............
	...

000032b8 <__EH_FRAME_BEGIN__>:
    32b8:	00000000                                ....
