
LPC1768/TCPSocket_HelloWorld.elf:     file format elf32-littlearm
architecture: arm, flags 0x00000112:
EXEC_P, HAS_SYMS, D_PAGED
start address 0x0000b261


Disassembly of section .text:

00000000 <__isr_vector>:
       0:	10008000 	.word	0x10008000
       4:	0000b261 	.word	0x0000b261
       8:	0000b291 	.word	0x0000b291
       c:	0000b293 	.word	0x0000b293
      10:	0000b295 	.word	0x0000b295
      14:	0000b297 	.word	0x0000b297
      18:	0000b299 	.word	0x0000b299
	...
      2c:	0000aac1 	.word	0x0000aac1
      30:	0000b29d 	.word	0x0000b29d
      34:	00000000 	.word	0x00000000
      38:	0000ab2f 	.word	0x0000ab2f
      3c:	0000ab67 	.word	0x0000ab67
      40:	0000b2a3 	.word	0x0000b2a3
      44:	0000b2a3 	.word	0x0000b2a3
      48:	0000b2a3 	.word	0x0000b2a3
      4c:	0000b2a3 	.word	0x0000b2a3
      50:	0000b2a3 	.word	0x0000b2a3
      54:	0000b2a3 	.word	0x0000b2a3
      58:	0000b2a3 	.word	0x0000b2a3
      5c:	0000b2a3 	.word	0x0000b2a3
      60:	0000b2a3 	.word	0x0000b2a3
      64:	0000b2a3 	.word	0x0000b2a3
      68:	0000b2a3 	.word	0x0000b2a3
      6c:	0000b2a3 	.word	0x0000b2a3
      70:	0000b2a3 	.word	0x0000b2a3
      74:	0000b2a3 	.word	0x0000b2a3
      78:	0000b2a3 	.word	0x0000b2a3
      7c:	0000b2a3 	.word	0x0000b2a3
      80:	0000b2a3 	.word	0x0000b2a3
      84:	0000b2a3 	.word	0x0000b2a3
      88:	0000b2a3 	.word	0x0000b2a3
      8c:	0000b2a3 	.word	0x0000b2a3
      90:	0000b2a3 	.word	0x0000b2a3
      94:	0000b2a3 	.word	0x0000b2a3
      98:	0000b2a3 	.word	0x0000b2a3
      9c:	0000b2a3 	.word	0x0000b2a3
      a0:	0000b2a3 	.word	0x0000b2a3
      a4:	0000b2a3 	.word	0x0000b2a3
      a8:	0000b2a3 	.word	0x0000b2a3
      ac:	0000b2a3 	.word	0x0000b2a3
      b0:	00008c79 	.word	0x00008c79
      b4:	0000b2a3 	.word	0x0000b2a3
      b8:	0000b2a3 	.word	0x0000b2a3
      bc:	0000b2a3 	.word	0x0000b2a3
      c0:	0000b2a3 	.word	0x0000b2a3
      c4:	0000b2a3 	.word	0x0000b2a3
      c8:	0000b2a3 	.word	0x0000b2a3

000000cc <__do_global_dtors_aux>:
      cc:	b510      	push	{r4, lr}
      ce:	4c05      	ldr	r4, [pc, #20]	; (e4 <__do_global_dtors_aux+0x18>)
      d0:	7823      	ldrb	r3, [r4, #0]
      d2:	b933      	cbnz	r3, e2 <__do_global_dtors_aux+0x16>
      d4:	4b04      	ldr	r3, [pc, #16]	; (e8 <__do_global_dtors_aux+0x1c>)
      d6:	b113      	cbz	r3, de <__do_global_dtors_aux+0x12>
      d8:	4804      	ldr	r0, [pc, #16]	; (ec <__do_global_dtors_aux+0x20>)
      da:	f3af 8000 	nop.w
      de:	2301      	movs	r3, #1
      e0:	7023      	strb	r3, [r4, #0]
      e2:	bd10      	pop	{r4, pc}
      e4:	100001e8 	.word	0x100001e8
      e8:	00000000 	.word	0x00000000
      ec:	0000df30 	.word	0x0000df30

000000f0 <frame_dummy>:
      f0:	b508      	push	{r3, lr}
      f2:	4b06      	ldr	r3, [pc, #24]	; (10c <frame_dummy+0x1c>)
      f4:	b11b      	cbz	r3, fe <frame_dummy+0xe>
      f6:	4806      	ldr	r0, [pc, #24]	; (110 <frame_dummy+0x20>)
      f8:	4906      	ldr	r1, [pc, #24]	; (114 <frame_dummy+0x24>)
      fa:	f3af 8000 	nop.w
      fe:	4806      	ldr	r0, [pc, #24]	; (118 <frame_dummy+0x28>)
     100:	6803      	ldr	r3, [r0, #0]
     102:	b113      	cbz	r3, 10a <frame_dummy+0x1a>
     104:	4b05      	ldr	r3, [pc, #20]	; (11c <frame_dummy+0x2c>)
     106:	b103      	cbz	r3, 10a <frame_dummy+0x1a>
     108:	4798      	blx	r3
     10a:	bd08      	pop	{r3, pc}
     10c:	00000000 	.word	0x00000000
     110:	0000df30 	.word	0x0000df30
     114:	100001ec 	.word	0x100001ec
     118:	100001e8 	.word	0x100001e8
     11c:	00000000 	.word	0x00000000

00000120 <main>:
     120:	b530      	push	{r4, r5, lr}
     122:	b0e7      	sub	sp, #412	; 0x19c
     124:	f008 fad2 	bl	86cc <EthernetInterface::init()>
     128:	f643 2098 	movw	r0, #15000	; 0x3a98
     12c:	f008 fade 	bl	86ec <EthernetInterface::connect(unsigned int)>
     130:	f008 fb18 	bl	8764 <EthernetInterface::getIPAddress()>
     134:	4601      	mov	r1, r0
     136:	481a      	ldr	r0, [pc, #104]	; (1a0 <main+0x80>)
     138:	f00c f812 	bl	c160 <iprintf>
     13c:	4d19      	ldr	r5, [pc, #100]	; (1a4 <main+0x84>)
     13e:	4668      	mov	r0, sp
     140:	f000 f8e2 	bl	308 <TCPSocketConnection::TCPSocketConnection()>
     144:	ac0d      	add	r4, sp, #52	; 0x34
     146:	4918      	ldr	r1, [pc, #96]	; (1a8 <main+0x88>)
     148:	2250      	movs	r2, #80	; 0x50
     14a:	4668      	mov	r0, sp
     14c:	f000 f8ea 	bl	324 <TCPSocketConnection::connect(char const*, int)>
     150:	cd0f      	ldmia	r5!, {r0, r1, r2, r3}
     152:	c40f      	stmia	r4!, {r0, r1, r2, r3}
     154:	cd0f      	ldmia	r5!, {r0, r1, r2, r3}
     156:	c40f      	stmia	r4!, {r0, r1, r2, r3}
     158:	cd0f      	ldmia	r5!, {r0, r1, r2, r3}
     15a:	c40f      	stmia	r4!, {r0, r1, r2, r3}
     15c:	e895 0003 	ldmia.w	r5, {r0, r1}
     160:	f844 0b04 	str.w	r0, [r4], #4
     164:	8021      	strh	r1, [r4, #0]
     166:	4668      	mov	r0, sp
     168:	a90d      	add	r1, sp, #52	; 0x34
     16a:	2235      	movs	r2, #53	; 0x35
     16c:	f000 f900 	bl	370 <TCPSocketConnection::send_all(char*, int)>
     170:	ac1b      	add	r4, sp, #108	; 0x6c
     172:	2500      	movs	r5, #0
     174:	e005      	b.n	182 <main+0x62>
     176:	4619      	mov	r1, r3
     178:	480c      	ldr	r0, [pc, #48]	; (1ac <main+0x8c>)
     17a:	4622      	mov	r2, r4
     17c:	54e5      	strb	r5, [r4, r3]
     17e:	f00b ffef 	bl	c160 <iprintf>
     182:	4668      	mov	r0, sp
     184:	4621      	mov	r1, r4
     186:	f240 122b 	movw	r2, #299	; 0x12b
     18a:	f000 f925 	bl	3d8 <TCPSocketConnection::receive(char*, int)>
     18e:	1e03      	subs	r3, r0, #0
     190:	dcf1      	bgt.n	176 <main+0x56>
     192:	2101      	movs	r1, #1
     194:	4668      	mov	r0, sp
     196:	f000 f88f 	bl	2b8 <Socket::close(bool)>
     19a:	f008 facb 	bl	8734 <EthernetInterface::disconnect()>
     19e:	e7fe      	b.n	19e <main+0x7e>
     1a0:	0000d8f4 	.word	0x0000d8f4
     1a4:	0000d938 	.word	0x0000d938
     1a8:	0000d908 	.word	0x0000d908
     1ac:	0000d914 	.word	0x0000d914

000001b0 <_start>:
     1b0:	4807      	ldr	r0, [pc, #28]	; (1d0 <_start+0x20>)
     1b2:	4a08      	ldr	r2, [pc, #32]	; (1d4 <_start+0x24>)
     1b4:	b508      	push	{r3, lr}
     1b6:	1a12      	subs	r2, r2, r0
     1b8:	2100      	movs	r1, #0
     1ba:	f00b ff31 	bl	c020 <memset>
     1be:	f00a fd2f 	bl	ac20 <software_init_hook>
     1c2:	f00b feff 	bl	bfc4 <__libc_init_array>
     1c6:	f7ff ffab 	bl	120 <main>
     1ca:	f00a fe99 	bl	af00 <exit>
     1ce:	bf00      	nop
     1d0:	100001e8 	.word	0x100001e8
     1d4:	10001bbc 	.word	0x10001bbc

000001d8 <__wrap__isatty>:
     1d8:	2802      	cmp	r0, #2
     1da:	dc01      	bgt.n	1e0 <__wrap__isatty+0x8>
     1dc:	2001      	movs	r0, #1
     1de:	4770      	bx	lr
     1e0:	f00a bff2 	b.w	b1c8 <_isatty>

000001e4 <__wrap_malloc>:
     1e4:	f3ef 8305 	mrs	r3, IPSR
     1e8:	b103      	cbz	r3, 1ec <__wrap_malloc+0x8>
     1ea:	be00      	bkpt	0x0000
     1ec:	f00b bf10 	b.w	c010 <malloc>

000001f0 <Socket::Socket()>:
     1f0:	b410      	push	{r4}
     1f2:	f04f 34ff 	mov.w	r4, #4294967295	; 0xffffffff
     1f6:	2101      	movs	r1, #1
     1f8:	f240 52dc 	movw	r2, #1500	; 0x5dc
     1fc:	6004      	str	r4, [r0, #0]
     1fe:	7101      	strb	r1, [r0, #4]
     200:	6082      	str	r2, [r0, #8]
     202:	f85d 4b04 	ldr.w	r4, [sp], #4
     206:	4770      	bx	lr

00000208 <Socket::init_socket(int)>:
     208:	6803      	ldr	r3, [r0, #0]
     20a:	b510      	push	{r4, lr}
     20c:	3301      	adds	r3, #1
     20e:	4604      	mov	r4, r0
     210:	d108      	bne.n	224 <Socket::init_socket(int)+0x1c>
     212:	2002      	movs	r0, #2
     214:	2200      	movs	r2, #0
     216:	f000 fc9d 	bl	b54 <lwip_socket>
     21a:	2800      	cmp	r0, #0
     21c:	db02      	blt.n	224 <Socket::init_socket(int)+0x1c>
     21e:	6020      	str	r0, [r4, #0]
     220:	2000      	movs	r0, #0
     222:	bd10      	pop	{r4, pc}
     224:	f04f 30ff 	mov.w	r0, #4294967295	; 0xffffffff
     228:	bd10      	pop	{r4, pc}
     22a:	bf00      	nop

0000022c <Socket::select(timeval*, bool, bool)>:
     22c:	b570      	push	{r4, r5, r6, lr}
     22e:	6804      	ldr	r4, [r0, #0]
     230:	2600      	movs	r6, #0
     232:	42b4      	cmp	r4, r6
     234:	b084      	sub	sp, #16
     236:	f88d 600c 	strb.w	r6, [sp, #12]
     23a:	4605      	mov	r5, r0
     23c:	f04f 0601 	mov.w	r6, #1
     240:	4620      	mov	r0, r4
     242:	bfb8      	it	lt
     244:	1de0      	addlt	r0, r4, #7
     246:	f004 0407 	and.w	r4, r4, #7
     24a:	fa06 f404 	lsl.w	r4, r6, r4
     24e:	ae04      	add	r6, sp, #16
     250:	eb06 00e0 	add.w	r0, r6, r0, asr #3
     254:	f800 4c04 	strb.w	r4, [r0, #-4]
     258:	b1f2      	cbz	r2, 298 <Socket::select(timeval*, bool, bool)+0x6c>
     25a:	a803      	add	r0, sp, #12
     25c:	b1fb      	cbz	r3, 29e <Socket::select(timeval*, bool, bool)+0x72>
     25e:	aa03      	add	r2, sp, #12
     260:	9100      	str	r1, [sp, #0]
     262:	2300      	movs	r3, #0
     264:	4601      	mov	r1, r0
     266:	2004      	movs	r0, #4
     268:	f000 fcb2 	bl	bd0 <lwip_select>
     26c:	2800      	cmp	r0, #0
     26e:	dd18      	ble.n	2a2 <Socket::select(timeval*, bool, bool)+0x76>
     270:	682b      	ldr	r3, [r5, #0]
     272:	a904      	add	r1, sp, #16
     274:	2b00      	cmp	r3, #0
     276:	461a      	mov	r2, r3
     278:	bfb8      	it	lt
     27a:	1dda      	addlt	r2, r3, #7
     27c:	eb01 02e2 	add.w	r2, r1, r2, asr #3
     280:	f812 0c04 	ldrb.w	r0, [r2, #-4]
     284:	f003 0307 	and.w	r3, r3, #7
     288:	4118      	asrs	r0, r3
     28a:	f000 0001 	and.w	r0, r0, #1
     28e:	f080 0001 	eor.w	r0, r0, #1
     292:	4240      	negs	r0, r0
     294:	b004      	add	sp, #16
     296:	bd70      	pop	{r4, r5, r6, pc}
     298:	4610      	mov	r0, r2
     29a:	2b00      	cmp	r3, #0
     29c:	d1df      	bne.n	25e <Socket::select(timeval*, bool, bool)+0x32>
     29e:	461a      	mov	r2, r3
     2a0:	e7de      	b.n	260 <Socket::select(timeval*, bool, bool)+0x34>
     2a2:	f04f 30ff 	mov.w	r0, #4294967295	; 0xffffffff
     2a6:	e7f5      	b.n	294 <Socket::select(timeval*, bool, bool)+0x68>

000002a8 <Socket::wait_readable(TimeInterval&)>:
     2a8:	2201      	movs	r2, #1
     2aa:	2300      	movs	r3, #0
     2ac:	f7ff bfbe 	b.w	22c <Socket::select(timeval*, bool, bool)>

000002b0 <Socket::wait_writable(TimeInterval&)>:
     2b0:	2200      	movs	r2, #0
     2b2:	2301      	movs	r3, #1
     2b4:	f7ff bfba 	b.w	22c <Socket::select(timeval*, bool, bool)>

000002b8 <Socket::close(bool)>:
     2b8:	b510      	push	{r4, lr}
     2ba:	4604      	mov	r4, r0
     2bc:	6800      	ldr	r0, [r0, #0]
     2be:	2800      	cmp	r0, #0
     2c0:	db0c      	blt.n	2dc <Socket::close(bool)+0x24>
     2c2:	b931      	cbnz	r1, 2d2 <Socket::close(bool)+0x1a>
     2c4:	f000 fa18 	bl	6f8 <lwip_close>
     2c8:	f04f 33ff 	mov.w	r3, #4294967295	; 0xffffffff
     2cc:	6023      	str	r3, [r4, #0]
     2ce:	2000      	movs	r0, #0
     2d0:	bd10      	pop	{r4, pc}
     2d2:	2102      	movs	r1, #2
     2d4:	f000 fdba 	bl	e4c <lwip_shutdown>
     2d8:	6820      	ldr	r0, [r4, #0]
     2da:	e7f3      	b.n	2c4 <Socket::close(bool)+0xc>
     2dc:	f04f 30ff 	mov.w	r0, #4294967295	; 0xffffffff
     2e0:	bd10      	pop	{r4, pc}
     2e2:	bf00      	nop

000002e4 <TimeInterval::TimeInterval(unsigned int)>:
     2e4:	4a06      	ldr	r2, [pc, #24]	; (300 <TimeInterval::TimeInterval(unsigned int)+0x1c>)
     2e6:	fba2 3201 	umull	r3, r2, r2, r1
     2ea:	4b06      	ldr	r3, [pc, #24]	; (304 <TimeInterval::TimeInterval(unsigned int)+0x20>)
     2ec:	0992      	lsrs	r2, r2, #6
     2ee:	fb03 1102 	mla	r1, r3, r2, r1
     2f2:	f44f 737a 	mov.w	r3, #1000	; 0x3e8
     2f6:	fb03 f101 	mul.w	r1, r3, r1
     2fa:	6002      	str	r2, [r0, #0]
     2fc:	6041      	str	r1, [r0, #4]
     2fe:	4770      	bx	lr
     300:	10624dd3 	.word	0x10624dd3
     304:	fffffc18 	.word	0xfffffc18

00000308 <TCPSocketConnection::TCPSocketConnection()>:
     308:	b510      	push	{r4, lr}
     30a:	4604      	mov	r4, r0
     30c:	f7ff ff70 	bl	1f0 <Socket::Socket()>
     310:	f104 000c 	add.w	r0, r4, #12
     314:	f004 fa9c 	bl	4850 <Endpoint::Endpoint()>
     318:	2300      	movs	r3, #0
     31a:	f884 3030 	strb.w	r3, [r4, #48]	; 0x30
     31e:	4620      	mov	r0, r4
     320:	bd10      	pop	{r4, pc}
     322:	bf00      	nop

00000324 <TCPSocketConnection::connect(char const*, int)>:
     324:	b570      	push	{r4, r5, r6, lr}
     326:	460d      	mov	r5, r1
     328:	2101      	movs	r1, #1
     32a:	4616      	mov	r6, r2
     32c:	4604      	mov	r4, r0
     32e:	f7ff ff6b 	bl	208 <Socket::init_socket(int)>
     332:	2800      	cmp	r0, #0
     334:	db18      	blt.n	368 <TCPSocketConnection::connect(char const*, int)+0x44>
     336:	4629      	mov	r1, r5
     338:	4632      	mov	r2, r6
     33a:	f104 000c 	add.w	r0, r4, #12
     33e:	f004 fa93 	bl	4868 <Endpoint::set_address(char const*, int)>
     342:	4605      	mov	r5, r0
     344:	b980      	cbnz	r0, 368 <TCPSocketConnection::connect(char const*, int)+0x44>
     346:	4621      	mov	r1, r4
     348:	f851 0b20 	ldr.w	r0, [r1], #32
     34c:	2210      	movs	r2, #16
     34e:	f000 fa09 	bl	764 <lwip_connect>
     352:	2800      	cmp	r0, #0
     354:	db04      	blt.n	360 <TCPSocketConnection::connect(char const*, int)+0x3c>
     356:	2301      	movs	r3, #1
     358:	f884 3030 	strb.w	r3, [r4, #48]	; 0x30
     35c:	4628      	mov	r0, r5
     35e:	bd70      	pop	{r4, r5, r6, pc}
     360:	4620      	mov	r0, r4
     362:	2101      	movs	r1, #1
     364:	f7ff ffa8 	bl	2b8 <Socket::close(bool)>
     368:	f04f 35ff 	mov.w	r5, #4294967295	; 0xffffffff
     36c:	4628      	mov	r0, r5
     36e:	bd70      	pop	{r4, r5, r6, pc}

00000370 <TCPSocketConnection::send_all(char*, int)>:
     370:	b5f0      	push	{r4, r5, r6, r7, lr}
     372:	6803      	ldr	r3, [r0, #0]
     374:	b083      	sub	sp, #12
     376:	2b00      	cmp	r3, #0
     378:	4605      	mov	r5, r0
     37a:	460f      	mov	r7, r1
     37c:	4616      	mov	r6, r2
     37e:	db25      	blt.n	3cc <TCPSocketConnection::send_all(char*, int)+0x5c>
     380:	f890 3030 	ldrb.w	r3, [r0, #48]	; 0x30
     384:	b313      	cbz	r3, 3cc <TCPSocketConnection::send_all(char*, int)+0x5c>
     386:	4668      	mov	r0, sp
     388:	68a9      	ldr	r1, [r5, #8]
     38a:	f7ff ffab 	bl	2e4 <TimeInterval::TimeInterval(unsigned int)>
     38e:	2e00      	cmp	r6, #0
     390:	dd20      	ble.n	3d4 <TCPSocketConnection::send_all(char*, int)+0x64>
     392:	2400      	movs	r4, #0
     394:	e002      	b.n	39c <TCPSocketConnection::send_all(char*, int)+0x2c>
     396:	4404      	add	r4, r0
     398:	42a6      	cmp	r6, r4
     39a:	dd14      	ble.n	3c6 <TCPSocketConnection::send_all(char*, int)+0x56>
     39c:	792b      	ldrb	r3, [r5, #4]
     39e:	4669      	mov	r1, sp
     3a0:	4628      	mov	r0, r5
     3a2:	b913      	cbnz	r3, 3aa <TCPSocketConnection::send_all(char*, int)+0x3a>
     3a4:	f7ff ff84 	bl	2b0 <Socket::wait_writable(TimeInterval&)>
     3a8:	b968      	cbnz	r0, 3c6 <TCPSocketConnection::send_all(char*, int)+0x56>
     3aa:	6828      	ldr	r0, [r5, #0]
     3ac:	1939      	adds	r1, r7, r4
     3ae:	1b32      	subs	r2, r6, r4
     3b0:	2300      	movs	r3, #0
     3b2:	f000 fb7d 	bl	ab0 <lwip_send>
     3b6:	2800      	cmp	r0, #0
     3b8:	dced      	bgt.n	396 <TCPSocketConnection::send_all(char*, int)+0x26>
     3ba:	d107      	bne.n	3cc <TCPSocketConnection::send_all(char*, int)+0x5c>
     3bc:	f885 0030 	strb.w	r0, [r5, #48]	; 0x30
     3c0:	4620      	mov	r0, r4
     3c2:	b003      	add	sp, #12
     3c4:	bdf0      	pop	{r4, r5, r6, r7, pc}
     3c6:	4620      	mov	r0, r4
     3c8:	b003      	add	sp, #12
     3ca:	bdf0      	pop	{r4, r5, r6, r7, pc}
     3cc:	f04f 30ff 	mov.w	r0, #4294967295	; 0xffffffff
     3d0:	b003      	add	sp, #12
     3d2:	bdf0      	pop	{r4, r5, r6, r7, pc}
     3d4:	2000      	movs	r0, #0
     3d6:	e7f7      	b.n	3c8 <TCPSocketConnection::send_all(char*, int)+0x58>

000003d8 <TCPSocketConnection::receive(char*, int)>:
     3d8:	b570      	push	{r4, r5, r6, lr}
     3da:	4604      	mov	r4, r0
     3dc:	6800      	ldr	r0, [r0, #0]
     3de:	b082      	sub	sp, #8
     3e0:	2800      	cmp	r0, #0
     3e2:	460d      	mov	r5, r1
     3e4:	4616      	mov	r6, r2
     3e6:	db1a      	blt.n	41e <TCPSocketConnection::receive(char*, int)+0x46>
     3e8:	f894 3030 	ldrb.w	r3, [r4, #48]	; 0x30
     3ec:	b1bb      	cbz	r3, 41e <TCPSocketConnection::receive(char*, int)+0x46>
     3ee:	7923      	ldrb	r3, [r4, #4]
     3f0:	b94b      	cbnz	r3, 406 <TCPSocketConnection::receive(char*, int)+0x2e>
     3f2:	68a1      	ldr	r1, [r4, #8]
     3f4:	4668      	mov	r0, sp
     3f6:	f7ff ff75 	bl	2e4 <TimeInterval::TimeInterval(unsigned int)>
     3fa:	4620      	mov	r0, r4
     3fc:	4669      	mov	r1, sp
     3fe:	f7ff ff53 	bl	2a8 <Socket::wait_readable(TimeInterval&)>
     402:	b960      	cbnz	r0, 41e <TCPSocketConnection::receive(char*, int)+0x46>
     404:	6820      	ldr	r0, [r4, #0]
     406:	2300      	movs	r3, #0
     408:	4629      	mov	r1, r5
     40a:	4632      	mov	r2, r6
     40c:	f000 fade 	bl	9cc <lwip_recv>
     410:	1c03      	adds	r3, r0, #0
     412:	bf18      	it	ne
     414:	2301      	movne	r3, #1
     416:	f884 3030 	strb.w	r3, [r4, #48]	; 0x30
     41a:	b002      	add	sp, #8
     41c:	bd70      	pop	{r4, r5, r6, pc}
     41e:	f04f 30ff 	mov.w	r0, #4294967295	; 0xffffffff
     422:	e7fa      	b.n	41a <TCPSocketConnection::receive(char*, int)+0x42>

00000424 <alloc_socket>:
     424:	e92d 47f0 	stmdb	sp!, {r4, r5, r6, r7, r8, r9, r10, lr}
     428:	2400      	movs	r4, #0
     42a:	4f1c      	ldr	r7, [pc, #112]	; (49c <alloc_socket+0x78>)
     42c:	4680      	mov	r8, r0
     42e:	4689      	mov	r9, r1
     430:	4625      	mov	r5, r4
     432:	f004 fbc7 	bl	4bc4 <sys_arch_protect>
     436:	593e      	ldr	r6, [r7, r4]
     438:	4b18      	ldr	r3, [pc, #96]	; (49c <alloc_socket+0x78>)
     43a:	3418      	adds	r4, #24
     43c:	b146      	cbz	r6, 450 <alloc_socket+0x2c>
     43e:	3501      	adds	r5, #1
     440:	f004 fbd2 	bl	4be8 <sys_arch_unprotect>
     444:	2d04      	cmp	r5, #4
     446:	d1f4      	bne.n	432 <alloc_socket+0xe>
     448:	f04f 30ff 	mov.w	r0, #4294967295	; 0xffffffff
     44c:	e8bd 87f0 	ldmia.w	sp!, {r4, r5, r6, r7, r8, r9, r10, pc}
     450:	ea4f 0a45 	mov.w	r10, r5, lsl #1
     454:	eb0a 0405 	add.w	r4, r10, r5
     458:	00e4      	lsls	r4, r4, #3
     45a:	f843 8004 	str.w	r8, [r3, r4]
     45e:	441c      	add	r4, r3
     460:	f004 fbc2 	bl	4be8 <sys_arch_unprotect>
     464:	f898 3000 	ldrb.w	r3, [r8]
     468:	6066      	str	r6, [r4, #4]
     46a:	2b10      	cmp	r3, #16
     46c:	8126      	strh	r6, [r4, #8]
     46e:	8166      	strh	r6, [r4, #10]
     470:	d00e      	beq.n	490 <alloc_socket+0x6c>
     472:	f04f 0901 	mov.w	r9, #1
     476:	44aa      	add	r10, r5
     478:	eb07 07ca 	add.w	r7, r7, r10, lsl #3
     47c:	2300      	movs	r3, #0
     47e:	f8a7 900c 	strh.w	r9, [r7, #12]
     482:	81fb      	strh	r3, [r7, #14]
     484:	f847 3f10 	str.w	r3, [r7, #16]!
     488:	4628      	mov	r0, r5
     48a:	607b      	str	r3, [r7, #4]
     48c:	e8bd 87f0 	ldmia.w	sp!, {r4, r5, r6, r7, r8, r9, r10, pc}
     490:	f119 0900 	adds.w	r9, r9, #0
     494:	bf18      	it	ne
     496:	f04f 0901 	movne.w	r9, #1
     49a:	e7ec      	b.n	476 <alloc_socket+0x52>
     49c:	10000208 	.word	0x10000208

000004a0 <lwip_selscan>:
     4a0:	e92d 4ff0 	stmdb	sp!, {r4, r5, r6, r7, r8, r9, r10, r11, lr}
     4a4:	2800      	cmp	r0, #0
     4a6:	b089      	sub	sp, #36	; 0x24
     4a8:	f04f 0700 	mov.w	r7, #0
     4ac:	9102      	str	r1, [sp, #8]
     4ae:	4691      	mov	r9, r2
     4b0:	469a      	mov	r10, r3
     4b2:	f88d 7014 	strb.w	r7, [sp, #20]
     4b6:	f88d 7018 	strb.w	r7, [sp, #24]
     4ba:	f88d 701c 	strb.w	r7, [sp, #28]
     4be:	9003      	str	r0, [sp, #12]
     4c0:	9701      	str	r7, [sp, #4]
     4c2:	dd62      	ble.n	58a <lwip_selscan+0xea>
     4c4:	4d44      	ldr	r5, [pc, #272]	; (5d8 <lwip_selscan+0x138>)
     4c6:	463c      	mov	r4, r7
     4c8:	f004 fb7c 	bl	4bc4 <sys_arch_protect>
     4cc:	2c03      	cmp	r4, #3
     4ce:	d970      	bls.n	5b2 <lwip_selscan+0x112>
     4d0:	2600      	movs	r6, #0
     4d2:	46b3      	mov	r11, r6
     4d4:	4637      	mov	r7, r6
     4d6:	46b0      	mov	r8, r6
     4d8:	f004 fb86 	bl	4be8 <sys_arch_unprotect>
     4dc:	9902      	ldr	r1, [sp, #8]
     4de:	b1d1      	cbz	r1, 516 <lwip_selscan+0x76>
     4e0:	9a02      	ldr	r2, [sp, #8]
     4e2:	10e1      	asrs	r1, r4, #3
     4e4:	f812 c001 	ldrb.w	r12, [r2, r1]
     4e8:	f004 0007 	and.w	r0, r4, #7
     4ec:	fa4c fc00 	asr.w	r12, r12, r0
     4f0:	f01c 0f01 	tst.w	r12, #1
     4f4:	d00f      	beq.n	516 <lwip_selscan+0x76>
     4f6:	f1b8 0f00 	cmp.w	r8, #0
     4fa:	d056      	beq.n	5aa <lwip_selscan+0x10a>
     4fc:	2301      	movs	r3, #1
     4fe:	fa03 f000 	lsl.w	r0, r3, r0
     502:	aa08      	add	r2, sp, #32
     504:	4411      	add	r1, r2
     506:	f811 2c0c 	ldrb.w	r2, [r1, #-12]
     50a:	9b01      	ldr	r3, [sp, #4]
     50c:	4310      	orrs	r0, r2
     50e:	3301      	adds	r3, #1
     510:	9301      	str	r3, [sp, #4]
     512:	f801 0c0c 	strb.w	r0, [r1, #-12]
     516:	f1b9 0f00 	cmp.w	r9, #0
     51a:	d017      	beq.n	54c <lwip_selscan+0xac>
     51c:	10e2      	asrs	r2, r4, #3
     51e:	f819 0002 	ldrb.w	r0, [r9, r2]
     522:	f004 0107 	and.w	r1, r4, #7
     526:	4108      	asrs	r0, r1
     528:	07c0      	lsls	r0, r0, #31
     52a:	d50f      	bpl.n	54c <lwip_selscan+0xac>
     52c:	f1bb 0f00 	cmp.w	r11, #0
     530:	d00c      	beq.n	54c <lwip_selscan+0xac>
     532:	2001      	movs	r0, #1
     534:	fa00 f101 	lsl.w	r1, r0, r1
     538:	ab08      	add	r3, sp, #32
     53a:	441a      	add	r2, r3
     53c:	f812 3c08 	ldrb.w	r3, [r2, #-8]
     540:	9801      	ldr	r0, [sp, #4]
     542:	4319      	orrs	r1, r3
     544:	3001      	adds	r0, #1
     546:	9001      	str	r0, [sp, #4]
     548:	f802 1c08 	strb.w	r1, [r2, #-8]
     54c:	f1ba 0f00 	cmp.w	r10, #0
     550:	d015      	beq.n	57e <lwip_selscan+0xde>
     552:	10e3      	asrs	r3, r4, #3
     554:	f81a 1003 	ldrb.w	r1, [r10, r3]
     558:	f004 0207 	and.w	r2, r4, #7
     55c:	4111      	asrs	r1, r2
     55e:	07c9      	lsls	r1, r1, #31
     560:	d50d      	bpl.n	57e <lwip_selscan+0xde>
     562:	b166      	cbz	r6, 57e <lwip_selscan+0xde>
     564:	2101      	movs	r1, #1
     566:	fa01 f202 	lsl.w	r2, r1, r2
     56a:	a808      	add	r0, sp, #32
     56c:	4403      	add	r3, r0
     56e:	f813 1c04 	ldrb.w	r1, [r3, #-4]
     572:	9801      	ldr	r0, [sp, #4]
     574:	430a      	orrs	r2, r1
     576:	3001      	adds	r0, #1
     578:	9001      	str	r0, [sp, #4]
     57a:	f803 2c04 	strb.w	r2, [r3, #-4]
     57e:	9903      	ldr	r1, [sp, #12]
     580:	3401      	adds	r4, #1
     582:	428c      	cmp	r4, r1
     584:	f105 0518 	add.w	r5, r5, #24
     588:	d19e      	bne.n	4c8 <lwip_selscan+0x28>
     58a:	f89d 1014 	ldrb.w	r1, [sp, #20]
     58e:	9c12      	ldr	r4, [sp, #72]	; 0x48
     590:	f89d 2018 	ldrb.w	r2, [sp, #24]
     594:	7021      	strb	r1, [r4, #0]
     596:	9913      	ldr	r1, [sp, #76]	; 0x4c
     598:	f89d 301c 	ldrb.w	r3, [sp, #28]
     59c:	700a      	strb	r2, [r1, #0]
     59e:	9801      	ldr	r0, [sp, #4]
     5a0:	9a14      	ldr	r2, [sp, #80]	; 0x50
     5a2:	7013      	strb	r3, [r2, #0]
     5a4:	b009      	add	sp, #36	; 0x24
     5a6:	e8bd 8ff0 	ldmia.w	sp!, {r4, r5, r6, r7, r8, r9, r10, r11, pc}
     5aa:	b23f      	sxth	r7, r7
     5ac:	2f00      	cmp	r7, #0
     5ae:	dca5      	bgt.n	4fc <lwip_selscan+0x5c>
     5b0:	e7b1      	b.n	516 <lwip_selscan+0x76>
     5b2:	682e      	ldr	r6, [r5, #0]
     5b4:	b13e      	cbz	r6, 5c6 <lwip_selscan+0x126>
     5b6:	b155      	cbz	r5, 5ce <lwip_selscan+0x12e>
     5b8:	f8d5 8004 	ldr.w	r8, [r5, #4]
     5bc:	896f      	ldrh	r7, [r5, #10]
     5be:	f8b5 b00c 	ldrh.w	r11, [r5, #12]
     5c2:	89ee      	ldrh	r6, [r5, #14]
     5c4:	e788      	b.n	4d8 <lwip_selscan+0x38>
     5c6:	46b3      	mov	r11, r6
     5c8:	4637      	mov	r7, r6
     5ca:	46b0      	mov	r8, r6
     5cc:	e784      	b.n	4d8 <lwip_selscan+0x38>
     5ce:	462e      	mov	r6, r5
     5d0:	46ab      	mov	r11, r5
     5d2:	462f      	mov	r7, r5
     5d4:	46a8      	mov	r8, r5
     5d6:	e77f      	b.n	4d8 <lwip_selscan+0x38>
     5d8:	10000208 	.word	0x10000208

000005dc <event_callback>:
     5dc:	e92d 4ff8 	stmdb	sp!, {r3, r4, r5, r6, r7, r8, r9, r10, r11, lr}
     5e0:	4605      	mov	r5, r0
     5e2:	460e      	mov	r6, r1
     5e4:	b1b8      	cbz	r0, 616 <event_callback+0x3a>
     5e6:	f8d0 4094 	ldr.w	r4, [r0, #148]	; 0x94
     5ea:	2c00      	cmp	r4, #0
     5ec:	db68      	blt.n	6c0 <event_callback+0xe4>
     5ee:	2c03      	cmp	r4, #3
     5f0:	d811      	bhi.n	616 <event_callback+0x3a>
     5f2:	4f3d      	ldr	r7, [pc, #244]	; (6e8 <event_callback+0x10c>)
     5f4:	eb04 0344 	add.w	r3, r4, r4, lsl #1
     5f8:	00db      	lsls	r3, r3, #3
     5fa:	58fa      	ldr	r2, [r7, r3]
     5fc:	441f      	add	r7, r3
     5fe:	b152      	cbz	r2, 616 <event_callback+0x3a>
     600:	b14f      	cbz	r7, 616 <event_callback+0x3a>
     602:	f004 fadf 	bl	4bc4 <sys_arch_protect>
     606:	4605      	mov	r5, r0
     608:	2e04      	cmp	r6, #4
     60a:	d809      	bhi.n	620 <event_callback+0x44>
     60c:	e8df f006 	tbb	[pc, r6]
     610:	4e515405 	.word	0x4e515405
     614:	4b          	.byte	0x4b
     615:	00          	.byte	0x00
     616:	e8bd 8ff8 	ldmia.w	sp!, {r3, r4, r5, r6, r7, r8, r9, r10, r11, pc}
     61a:	897b      	ldrh	r3, [r7, #10]
     61c:	3301      	adds	r3, #1
     61e:	817b      	strh	r3, [r7, #10]
     620:	697b      	ldr	r3, [r7, #20]
     622:	2b00      	cmp	r3, #0
     624:	d033      	beq.n	68e <event_callback+0xb2>
     626:	f04f 0901 	mov.w	r9, #1
     62a:	fa09 f804 	lsl.w	r8, r9, r4
     62e:	f8df a0c0 	ldr.w	r10, [pc, #192]	; 6f0 <event_callback+0x114>
     632:	4e2e      	ldr	r6, [pc, #184]	; (6ec <event_callback+0x110>)
     634:	f8da 4000 	ldr.w	r4, [r10]
     638:	b34c      	cbz	r4, 68e <event_callback+0xb2>
     63a:	6963      	ldr	r3, [r4, #20]
     63c:	b9cb      	cbnz	r3, 672 <event_callback+0x96>
     63e:	f9b7 300a 	ldrsh.w	r3, [r7, #10]
     642:	2b00      	cmp	r3, #0
     644:	dd05      	ble.n	652 <event_callback+0x76>
     646:	68a3      	ldr	r3, [r4, #8]
     648:	b11b      	cbz	r3, 652 <event_callback+0x76>
     64a:	781b      	ldrb	r3, [r3, #0]
     64c:	ea13 0f08 	tst.w	r3, r8
     650:	d122      	bne.n	698 <event_callback+0xbc>
     652:	89bb      	ldrh	r3, [r7, #12]
     654:	b12b      	cbz	r3, 662 <event_callback+0x86>
     656:	68e3      	ldr	r3, [r4, #12]
     658:	b11b      	cbz	r3, 662 <event_callback+0x86>
     65a:	781b      	ldrb	r3, [r3, #0]
     65c:	ea13 0f08 	tst.w	r3, r8
     660:	d11a      	bne.n	698 <event_callback+0xbc>
     662:	89fb      	ldrh	r3, [r7, #14]
     664:	b12b      	cbz	r3, 672 <event_callback+0x96>
     666:	6923      	ldr	r3, [r4, #16]
     668:	b11b      	cbz	r3, 672 <event_callback+0x96>
     66a:	781b      	ldrb	r3, [r3, #0]
     66c:	ea13 0f08 	tst.w	r3, r8
     670:	d112      	bne.n	698 <event_callback+0xbc>
     672:	4628      	mov	r0, r5
     674:	f8d6 b000 	ldr.w	r11, [r6]
     678:	f004 fab6 	bl	4be8 <sys_arch_unprotect>
     67c:	f004 faa2 	bl	4bc4 <sys_arch_protect>
     680:	6833      	ldr	r3, [r6, #0]
     682:	4605      	mov	r5, r0
     684:	459b      	cmp	r11, r3
     686:	d1d5      	bne.n	634 <event_callback+0x58>
     688:	6824      	ldr	r4, [r4, #0]
     68a:	2c00      	cmp	r4, #0
     68c:	d1d5      	bne.n	63a <event_callback+0x5e>
     68e:	4628      	mov	r0, r5
     690:	e8bd 4ff8 	ldmia.w	sp!, {r3, r4, r5, r6, r7, r8, r9, r10, r11, lr}
     694:	f004 baa8 	b.w	4be8 <sys_arch_unprotect>
     698:	f8c4 9014 	str.w	r9, [r4, #20]
     69c:	f104 0018 	add.w	r0, r4, #24
     6a0:	f004 fa34 	bl	4b0c <sys_sem_signal>
     6a4:	e7e5      	b.n	672 <event_callback+0x96>
     6a6:	2301      	movs	r3, #1
     6a8:	81fb      	strh	r3, [r7, #14]
     6aa:	e7b9      	b.n	620 <event_callback+0x44>
     6ac:	2300      	movs	r3, #0
     6ae:	81bb      	strh	r3, [r7, #12]
     6b0:	e7b6      	b.n	620 <event_callback+0x44>
     6b2:	2301      	movs	r3, #1
     6b4:	81bb      	strh	r3, [r7, #12]
     6b6:	e7b3      	b.n	620 <event_callback+0x44>
     6b8:	897b      	ldrh	r3, [r7, #10]
     6ba:	3b01      	subs	r3, #1
     6bc:	817b      	strh	r3, [r7, #10]
     6be:	e7af      	b.n	620 <event_callback+0x44>
     6c0:	f004 fa80 	bl	4bc4 <sys_arch_protect>
     6c4:	f8d5 4094 	ldr.w	r4, [r5, #148]	; 0x94
     6c8:	4603      	mov	r3, r0
     6ca:	2c00      	cmp	r4, #0
     6cc:	db02      	blt.n	6d4 <event_callback+0xf8>
     6ce:	f004 fa8b 	bl	4be8 <sys_arch_unprotect>
     6d2:	e78c      	b.n	5ee <event_callback+0x12>
     6d4:	b916      	cbnz	r6, 6dc <event_callback+0x100>
     6d6:	3c01      	subs	r4, #1
     6d8:	f8c5 4094 	str.w	r4, [r5, #148]	; 0x94
     6dc:	4618      	mov	r0, r3
     6de:	e8bd 4ff8 	ldmia.w	sp!, {r3, r4, r5, r6, r7, r8, r9, r10, r11, lr}
     6e2:	f004 ba81 	b.w	4be8 <sys_arch_unprotect>
     6e6:	bf00      	nop
     6e8:	10000208 	.word	0x10000208
     6ec:	10000268 	.word	0x10000268
     6f0:	10000204 	.word	0x10000204

000006f4 <lwip_socket_init>:
     6f4:	4770      	bx	lr
     6f6:	bf00      	nop

000006f8 <lwip_close>:
     6f8:	2803      	cmp	r0, #3
     6fa:	e92d 43f8 	stmdb	sp!, {r3, r4, r5, r6, r7, r8, r9, lr}
     6fe:	d824      	bhi.n	74a <lwip_close+0x52>
     700:	f8df 805c 	ldr.w	r8, [pc, #92]	; 760 <lwip_close+0x68>
     704:	eb00 0040 	add.w	r0, r0, r0, lsl #1
     708:	00c7      	lsls	r7, r0, #3
     70a:	f858 3007 	ldr.w	r3, [r8, r7]
     70e:	eb08 0507 	add.w	r5, r8, r7
     712:	b1d3      	cbz	r3, 74a <lwip_close+0x52>
     714:	b1cd      	cbz	r5, 74a <lwip_close+0x52>
     716:	2400      	movs	r4, #0
     718:	4618      	mov	r0, r3
     71a:	f893 9000 	ldrb.w	r9, [r3]
     71e:	f004 fb67 	bl	4df0 <netconn_delete>
     722:	686e      	ldr	r6, [r5, #4]
     724:	812c      	strh	r4, [r5, #8]
     726:	606c      	str	r4, [r5, #4]
     728:	612c      	str	r4, [r5, #16]
     72a:	f004 fa4b 	bl	4bc4 <sys_arch_protect>
     72e:	f848 4007 	str.w	r4, [r8, r7]
     732:	f004 fa59 	bl	4be8 <sys_arch_unprotect>
     736:	4630      	mov	r0, r6
     738:	b186      	cbz	r6, 75c <lwip_close+0x64>
     73a:	f1b9 0f10 	cmp.w	r9, #16
     73e:	d008      	beq.n	752 <lwip_close+0x5a>
     740:	f005 f9a8 	bl	5a94 <netbuf_delete>
     744:	4620      	mov	r0, r4
     746:	e8bd 83f8 	ldmia.w	sp!, {r3, r4, r5, r6, r7, r8, r9, pc}
     74a:	f04f 30ff 	mov.w	r0, #4294967295	; 0xffffffff
     74e:	e8bd 83f8 	ldmia.w	sp!, {r3, r4, r5, r6, r7, r8, r9, pc}
     752:	f000 ffe3 	bl	171c <pbuf_free>
     756:	4620      	mov	r0, r4
     758:	e8bd 83f8 	ldmia.w	sp!, {r3, r4, r5, r6, r7, r8, r9, pc}
     75c:	e8bd 83f8 	ldmia.w	sp!, {r3, r4, r5, r6, r7, r8, r9, pc}
     760:	10000208 	.word	0x10000208

00000764 <lwip_connect>:
     764:	b530      	push	{r4, r5, lr}
     766:	2803      	cmp	r0, #3
     768:	b083      	sub	sp, #12
     76a:	d81c      	bhi.n	7a6 <lwip_connect+0x42>
     76c:	eb00 0040 	add.w	r0, r0, r0, lsl #1
     770:	4b15      	ldr	r3, [pc, #84]	; (7c8 <lwip_connect+0x64>)
     772:	00c4      	lsls	r4, r0, #3
     774:	5918      	ldr	r0, [r3, r4]
     776:	441c      	add	r4, r3
     778:	b1a8      	cbz	r0, 7a6 <lwip_connect+0x42>
     77a:	b1a4      	cbz	r4, 7a6 <lwip_connect+0x42>
     77c:	2a10      	cmp	r2, #16
     77e:	d116      	bne.n	7ae <lwip_connect+0x4a>
     780:	784b      	ldrb	r3, [r1, #1]
     782:	2b02      	cmp	r3, #2
     784:	d113      	bne.n	7ae <lwip_connect+0x4a>
     786:	078b      	lsls	r3, r1, #30
     788:	d111      	bne.n	7ae <lwip_connect+0x4a>
     78a:	684d      	ldr	r5, [r1, #4]
     78c:	ab02      	add	r3, sp, #8
     78e:	884a      	ldrh	r2, [r1, #2]
     790:	f843 5d04 	str.w	r5, [r3, #-4]!
     794:	ba52      	rev16	r2, r2
     796:	4619      	mov	r1, r3
     798:	b292      	uxth	r2, r2
     79a:	f004 fb5d 	bl	4e58 <netconn_connect>
     79e:	b960      	cbnz	r0, 7ba <lwip_connect+0x56>
     7a0:	6120      	str	r0, [r4, #16]
     7a2:	b003      	add	sp, #12
     7a4:	bd30      	pop	{r4, r5, pc}
     7a6:	f04f 30ff 	mov.w	r0, #4294967295	; 0xffffffff
     7aa:	b003      	add	sp, #12
     7ac:	bd30      	pop	{r4, r5, pc}
     7ae:	2305      	movs	r3, #5
     7b0:	f04f 30ff 	mov.w	r0, #4294967295	; 0xffffffff
     7b4:	6123      	str	r3, [r4, #16]
     7b6:	b003      	add	sp, #12
     7b8:	bd30      	pop	{r4, r5, pc}
     7ba:	4240      	negs	r0, r0
     7bc:	280f      	cmp	r0, #15
     7be:	d8f6      	bhi.n	7ae <lwip_connect+0x4a>
     7c0:	4b02      	ldr	r3, [pc, #8]	; (7cc <lwip_connect+0x68>)
     7c2:	f853 3020 	ldr.w	r3, [r3, r0, lsl #2]
     7c6:	e7f3      	b.n	7b0 <lwip_connect+0x4c>
     7c8:	10000208 	.word	0x10000208
     7cc:	0000d970 	.word	0x0000d970

000007d0 <lwip_recvfrom>:
     7d0:	e92d 4ff0 	stmdb	sp!, {r4, r5, r6, r7, r8, r9, r10, r11, lr}
     7d4:	2803      	cmp	r0, #3
     7d6:	b08d      	sub	sp, #52	; 0x34
     7d8:	f04f 0700 	mov.w	r7, #0
     7dc:	468b      	mov	r11, r1
     7de:	4692      	mov	r10, r2
     7e0:	4699      	mov	r9, r3
     7e2:	9706      	str	r7, [sp, #24]
     7e4:	d85d      	bhi.n	8a2 <Heap_Size+0xa2>
     7e6:	4977      	ldr	r1, [pc, #476]	; (9c4 <Heap_Size+0x1c4>)
     7e8:	eb00 0040 	add.w	r0, r0, r0, lsl #1
     7ec:	00c0      	lsls	r0, r0, #3
     7ee:	580b      	ldr	r3, [r1, r0]
     7f0:	460c      	mov	r4, r1
     7f2:	9003      	str	r0, [sp, #12]
     7f4:	4404      	add	r4, r0
     7f6:	2b00      	cmp	r3, #0
     7f8:	d053      	beq.n	8a2 <Heap_Size+0xa2>
     7fa:	2c00      	cmp	r4, #0
     7fc:	d051      	beq.n	8a2 <Heap_Size+0xa2>
     7fe:	f009 0208 	and.w	r2, r9, #8
     802:	f8cd 9004 	str.w	r9, [sp, #4]
     806:	46b9      	mov	r9, r7
     808:	9f16      	ldr	r7, [sp, #88]	; 0x58
     80a:	9202      	str	r2, [sp, #8]
     80c:	6865      	ldr	r5, [r4, #4]
     80e:	2d00      	cmp	r5, #0
     810:	f000 8089 	beq.w	926 <Heap_Size+0x126>
     814:	9506      	str	r5, [sp, #24]
     816:	6823      	ldr	r3, [r4, #0]
     818:	eb0b 0109 	add.w	r1, r11, r9
     81c:	781b      	ldrb	r3, [r3, #0]
     81e:	2b10      	cmp	r3, #16
     820:	bf18      	it	ne
     822:	682d      	ldrne	r5, [r5, #0]
     824:	8923      	ldrh	r3, [r4, #8]
     826:	f8b5 8008 	ldrh.w	r8, [r5, #8]
     82a:	4628      	mov	r0, r5
     82c:	ebc3 0808 	rsb	r8, r3, r8
     830:	fa1f f888 	uxth.w	r8, r8
     834:	45c2      	cmp	r10, r8
     836:	bf94      	ite	ls
     838:	fa1f f68a 	uxthls.w	r6, r10
     83c:	4646      	movhi	r6, r8
     83e:	4632      	mov	r2, r6
     840:	f001 f8e8 	bl	1a14 <pbuf_copy_partial>
     844:	6820      	ldr	r0, [r4, #0]
     846:	44b1      	add	r9, r6
     848:	7803      	ldrb	r3, [r0, #0]
     84a:	2b10      	cmp	r3, #16
     84c:	d167      	bne.n	91e <Heap_Size+0x11e>
     84e:	ebba 0a06 	subs.w	r10, r10, r6
     852:	d02b      	beq.n	8ac <Heap_Size+0xac>
     854:	7b6a      	ldrb	r2, [r5, #13]
     856:	07d2      	lsls	r2, r2, #31
     858:	d461      	bmi.n	91e <Heap_Size+0x11e>
     85a:	f9b4 200a 	ldrsh.w	r2, [r4, #10]
     85e:	2a00      	cmp	r2, #0
     860:	dd24      	ble.n	8ac <Heap_Size+0xac>
     862:	9901      	ldr	r1, [sp, #4]
     864:	f011 0201 	ands.w	r2, r1, #1
     868:	d157      	bne.n	91a <Heap_Size+0x11a>
     86a:	4615      	mov	r5, r2
     86c:	ebc6 0808 	rsb	r8, r6, r8
     870:	f1b8 0f00 	cmp.w	r8, #0
     874:	f340 808b 	ble.w	98e <Heap_Size+0x18e>
     878:	8922      	ldrh	r2, [r4, #8]
     87a:	9b06      	ldr	r3, [sp, #24]
     87c:	4416      	add	r6, r2
     87e:	8126      	strh	r6, [r4, #8]
     880:	6063      	str	r3, [r4, #4]
     882:	2d00      	cmp	r5, #0
     884:	d0c2      	beq.n	80c <Heap_Size+0xc>
     886:	464f      	mov	r7, r9
     888:	b12f      	cbz	r7, 896 <Heap_Size+0x96>
     88a:	4b4e      	ldr	r3, [pc, #312]	; (9c4 <Heap_Size+0x1c4>)
     88c:	9a03      	ldr	r2, [sp, #12]
     88e:	5898      	ldr	r0, [r3, r2]
     890:	4639      	mov	r1, r7
     892:	f004 fb4b 	bl	4f2c <netconn_recved>
     896:	2300      	movs	r3, #0
     898:	4638      	mov	r0, r7
     89a:	6123      	str	r3, [r4, #16]
     89c:	b00d      	add	sp, #52	; 0x34
     89e:	e8bd 8ff0 	ldmia.w	sp!, {r4, r5, r6, r7, r8, r9, r10, r11, pc}
     8a2:	f04f 30ff 	mov.w	r0, #4294967295	; 0xffffffff
     8a6:	b00d      	add	sp, #52	; 0x34
     8a8:	e8bd 8ff0 	ldmia.w	sp!, {r4, r5, r6, r7, r8, r9, r10, r11, pc}
     8ac:	9a01      	ldr	r2, [sp, #4]
     8ae:	f002 0501 	and.w	r5, r2, #1
     8b2:	b32f      	cbz	r7, 900 <Heap_Size+0x100>
     8b4:	9a17      	ldr	r2, [sp, #92]	; 0x5c
     8b6:	b31a      	cbz	r2, 900 <Heap_Size+0x100>
     8b8:	2b10      	cmp	r3, #16
     8ba:	d04a      	beq.n	952 <Heap_Size+0x152>
     8bc:	9a06      	ldr	r2, [sp, #24]
     8be:	8993      	ldrh	r3, [r2, #12]
     8c0:	3208      	adds	r2, #8
     8c2:	f8ad 3016 	strh.w	r3, [sp, #22]
     8c6:	4619      	mov	r1, r3
     8c8:	2300      	movs	r3, #0
     8ca:	9308      	str	r3, [sp, #32]
     8cc:	2002      	movs	r0, #2
     8ce:	9309      	str	r3, [sp, #36]	; 0x24
     8d0:	930a      	str	r3, [sp, #40]	; 0x28
     8d2:	930b      	str	r3, [sp, #44]	; 0x2c
     8d4:	f04f 0310 	mov.w	r3, #16
     8d8:	f88d 3020 	strb.w	r3, [sp, #32]
     8dc:	f88d 0021 	strb.w	r0, [sp, #33]	; 0x21
     8e0:	ba4b      	rev16	r3, r1
     8e2:	9817      	ldr	r0, [sp, #92]	; 0x5c
     8e4:	6811      	ldr	r1, [r2, #0]
     8e6:	6802      	ldr	r2, [r0, #0]
     8e8:	9109      	str	r1, [sp, #36]	; 0x24
     8ea:	2a10      	cmp	r2, #16
     8ec:	f8ad 3022 	strh.w	r3, [sp, #34]	; 0x22
     8f0:	d902      	bls.n	8f8 <Heap_Size+0xf8>
     8f2:	2110      	movs	r1, #16
     8f4:	6001      	str	r1, [r0, #0]
     8f6:	460a      	mov	r2, r1
     8f8:	a908      	add	r1, sp, #32
     8fa:	4638      	mov	r0, r7
     8fc:	f004 f824 	bl	4948 <thumb2_memcpy>
     900:	2d00      	cmp	r5, #0
     902:	d1c0      	bne.n	886 <Heap_Size+0x86>
     904:	6823      	ldr	r3, [r4, #0]
     906:	781b      	ldrb	r3, [r3, #0]
     908:	2b10      	cmp	r3, #16
     90a:	d059      	beq.n	9c0 <Heap_Size+0x1c0>
     90c:	9806      	ldr	r0, [sp, #24]
     90e:	6065      	str	r5, [r4, #4]
     910:	8125      	strh	r5, [r4, #8]
     912:	464f      	mov	r7, r9
     914:	f005 f8be 	bl	5a94 <netbuf_delete>
     918:	e7b6      	b.n	888 <Heap_Size+0x88>
     91a:	2501      	movs	r5, #1
     91c:	e7c9      	b.n	8b2 <Heap_Size+0xb2>
     91e:	9901      	ldr	r1, [sp, #4]
     920:	f001 0501 	and.w	r5, r1, #1
     924:	e7c5      	b.n	8b2 <Heap_Size+0xb2>
     926:	9b02      	ldr	r3, [sp, #8]
     928:	b923      	cbnz	r3, 934 <Heap_Size+0x134>
     92a:	6820      	ldr	r0, [r4, #0]
     92c:	f890 309c 	ldrb.w	r3, [r0, #156]	; 0x9c
     930:	0799      	lsls	r1, r3, #30
     932:	d504      	bpl.n	93e <Heap_Size+0x13e>
     934:	f9b4 300a 	ldrsh.w	r3, [r4, #10]
     938:	2b00      	cmp	r3, #0
     93a:	dd32      	ble.n	9a2 <Heap_Size+0x1a2>
     93c:	6820      	ldr	r0, [r4, #0]
     93e:	7803      	ldrb	r3, [r0, #0]
     940:	a906      	add	r1, sp, #24
     942:	2b10      	cmp	r3, #16
     944:	d00f      	beq.n	966 <Heap_Size+0x166>
     946:	f004 fab1 	bl	4eac <netconn_recv>
     94a:	b980      	cbnz	r0, 96e <Heap_Size+0x16e>
     94c:	9d06      	ldr	r5, [sp, #24]
     94e:	6065      	str	r5, [r4, #4]
     950:	e761      	b.n	816 <Heap_Size+0x16>
     952:	a907      	add	r1, sp, #28
     954:	f10d 0216 	add.w	r2, sp, #22
     958:	2300      	movs	r3, #0
     95a:	f004 fa5b 	bl	4e14 <netconn_getaddr>
     95e:	aa07      	add	r2, sp, #28
     960:	f8bd 1016 	ldrh.w	r1, [sp, #22]
     964:	e7b0      	b.n	8c8 <Heap_Size+0xc8>
     966:	f004 fa97 	bl	4e98 <netconn_recv_tcp_pbuf>
     96a:	2800      	cmp	r0, #0
     96c:	d0ee      	beq.n	94c <Heap_Size+0x14c>
     96e:	464f      	mov	r7, r9
     970:	b9ef      	cbnz	r7, 9ae <Heap_Size+0x1ae>
     972:	b240      	sxtb	r0, r0
     974:	4243      	negs	r3, r0
     976:	2b0f      	cmp	r3, #15
     978:	bf96      	itet	ls
     97a:	4a13      	ldrls	r2, [pc, #76]	; (9c8 <Heap_Size+0x1c8>)
     97c:	2305      	movhi	r3, #5
     97e:	f852 3023 	ldrls.w	r3, [r2, r3, lsl #2]
     982:	300c      	adds	r0, #12
     984:	bf18      	it	ne
     986:	2001      	movne	r0, #1
     988:	4240      	negs	r0, r0
     98a:	6123      	str	r3, [r4, #16]
     98c:	e78b      	b.n	8a6 <Heap_Size+0xa6>
     98e:	2300      	movs	r3, #0
     990:	9806      	ldr	r0, [sp, #24]
     992:	6063      	str	r3, [r4, #4]
     994:	8123      	strh	r3, [r4, #8]
     996:	f000 fec1 	bl	171c <pbuf_free>
     99a:	2d00      	cmp	r5, #0
     99c:	f43f af36 	beq.w	80c <Heap_Size+0xc>
     9a0:	e771      	b.n	886 <Heap_Size+0x86>
     9a2:	464f      	mov	r7, r9
     9a4:	b13f      	cbz	r7, 9b6 <Heap_Size+0x1b6>
     9a6:	4a07      	ldr	r2, [pc, #28]	; (9c4 <Heap_Size+0x1c4>)
     9a8:	9903      	ldr	r1, [sp, #12]
     9aa:	5850      	ldr	r0, [r2, r1]
     9ac:	e770      	b.n	890 <Heap_Size+0x90>
     9ae:	4905      	ldr	r1, [pc, #20]	; (9c4 <Heap_Size+0x1c4>)
     9b0:	9b03      	ldr	r3, [sp, #12]
     9b2:	58c8      	ldr	r0, [r1, r3]
     9b4:	e76c      	b.n	890 <Heap_Size+0x90>
     9b6:	230b      	movs	r3, #11
     9b8:	6123      	str	r3, [r4, #16]
     9ba:	f04f 30ff 	mov.w	r0, #4294967295	; 0xffffffff
     9be:	e772      	b.n	8a6 <Heap_Size+0xa6>
     9c0:	2501      	movs	r5, #1
     9c2:	e753      	b.n	86c <Heap_Size+0x6c>
     9c4:	10000208 	.word	0x10000208
     9c8:	0000d970 	.word	0x0000d970

000009cc <lwip_recv>:
     9cc:	b510      	push	{r4, lr}
     9ce:	2400      	movs	r4, #0
     9d0:	b082      	sub	sp, #8
     9d2:	9400      	str	r4, [sp, #0]
     9d4:	9401      	str	r4, [sp, #4]
     9d6:	f7ff fefb 	bl	7d0 <lwip_recvfrom>
     9da:	b002      	add	sp, #8
     9dc:	bd10      	pop	{r4, pc}
     9de:	bf00      	nop

000009e0 <lwip_sendto>:
     9e0:	e92d 47f0 	stmdb	sp!, {r4, r5, r6, r7, r8, r9, r10, lr}
     9e4:	2803      	cmp	r0, #3
     9e6:	b086      	sub	sp, #24
     9e8:	468c      	mov	r12, r1
     9ea:	9c0e      	ldr	r4, [sp, #56]	; 0x38
     9ec:	9e0f      	ldr	r6, [sp, #60]	; 0x3c
     9ee:	d841      	bhi.n	a74 <lwip_sendto+0x94>
     9f0:	eb00 0540 	add.w	r5, r0, r0, lsl #1
     9f4:	f8df 80b4 	ldr.w	r8, [pc, #180]	; aac <lwip_sendto+0xcc>
     9f8:	ea4f 09c5 	mov.w	r9, r5, lsl #3
     9fc:	f858 7009 	ldr.w	r7, [r8, r9]
     a00:	eb08 0509 	add.w	r5, r8, r9
     a04:	2f00      	cmp	r7, #0
     a06:	d035      	beq.n	a74 <lwip_sendto+0x94>
     a08:	2d00      	cmp	r5, #0
     a0a:	d033      	beq.n	a74 <lwip_sendto+0x94>
     a0c:	783f      	ldrb	r7, [r7, #0]
     a0e:	2f10      	cmp	r7, #16
     a10:	d047      	beq.n	aa2 <lwip_sendto+0xc2>
     a12:	b297      	uxth	r7, r2
     a14:	2c00      	cmp	r4, #0
     a16:	d039      	beq.n	a8c <lwip_sendto+0xac>
     a18:	2e10      	cmp	r6, #16
     a1a:	d129      	bne.n	a70 <lwip_sendto+0x90>
     a1c:	7863      	ldrb	r3, [r4, #1]
     a1e:	2b02      	cmp	r3, #2
     a20:	d126      	bne.n	a70 <lwip_sendto+0x90>
     a22:	f014 0303 	ands.w	r3, r4, #3
     a26:	d123      	bne.n	a70 <lwip_sendto+0x90>
     a28:	9302      	str	r3, [sp, #8]
     a2a:	9301      	str	r3, [sp, #4]
     a2c:	f88d 3012 	strb.w	r3, [sp, #18]
     a30:	2c00      	cmp	r4, #0
     a32:	d031      	beq.n	a98 <lwip_sendto+0xb8>
     a34:	6863      	ldr	r3, [r4, #4]
     a36:	8862      	ldrh	r2, [r4, #2]
     a38:	9303      	str	r3, [sp, #12]
     a3a:	ba53      	rev16	r3, r2
     a3c:	f8ad 3010 	strh.w	r3, [sp, #16]
     a40:	4661      	mov	r1, r12
     a42:	a801      	add	r0, sp, #4
     a44:	463a      	mov	r2, r7
     a46:	f005 f843 	bl	5ad0 <netbuf_ref>
     a4a:	4604      	mov	r4, r0
     a4c:	b1b8      	cbz	r0, a7e <lwip_sendto+0x9e>
     a4e:	a801      	add	r0, sp, #4
     a50:	f005 f832 	bl	5ab8 <netbuf_free>
     a54:	b263      	sxtb	r3, r4
     a56:	425b      	negs	r3, r3
     a58:	2b0f      	cmp	r3, #15
     a5a:	bf96      	itet	ls
     a5c:	4a12      	ldrls	r2, [pc, #72]	; (aa8 <lwip_sendto+0xc8>)
     a5e:	2305      	movhi	r3, #5
     a60:	f852 3023 	ldrls.w	r3, [r2, r3, lsl #2]
     a64:	612b      	str	r3, [r5, #16]
     a66:	b92c      	cbnz	r4, a74 <lwip_sendto+0x94>
     a68:	4638      	mov	r0, r7
     a6a:	b006      	add	sp, #24
     a6c:	e8bd 87f0 	ldmia.w	sp!, {r4, r5, r6, r7, r8, r9, r10, pc}
     a70:	2305      	movs	r3, #5
     a72:	612b      	str	r3, [r5, #16]
     a74:	f04f 30ff 	mov.w	r0, #4294967295	; 0xffffffff
     a78:	b006      	add	sp, #24
     a7a:	e8bd 87f0 	ldmia.w	sp!, {r4, r5, r6, r7, r8, r9, r10, pc}
     a7e:	f858 0009 	ldr.w	r0, [r8, r9]
     a82:	a901      	add	r1, sp, #4
     a84:	f004 fa6c 	bl	4f60 <netconn_send>
     a88:	4604      	mov	r4, r0
     a8a:	e7e0      	b.n	a4e <lwip_sendto+0x6e>
     a8c:	2e00      	cmp	r6, #0
     a8e:	d1c3      	bne.n	a18 <lwip_sendto+0x38>
     a90:	9602      	str	r6, [sp, #8]
     a92:	9601      	str	r6, [sp, #4]
     a94:	f88d 6012 	strb.w	r6, [sp, #18]
     a98:	2300      	movs	r3, #0
     a9a:	9303      	str	r3, [sp, #12]
     a9c:	f8ad 3010 	strh.w	r3, [sp, #16]
     aa0:	e7ce      	b.n	a40 <lwip_sendto+0x60>
     aa2:	f000 f805 	bl	ab0 <lwip_send>
     aa6:	e7e7      	b.n	a78 <lwip_sendto+0x98>
     aa8:	0000d970 	.word	0x0000d970
     aac:	10000208 	.word	0x10000208

00000ab0 <lwip_send>:
     ab0:	e92d 41f0 	stmdb	sp!, {r4, r5, r6, r7, r8, lr}
     ab4:	2803      	cmp	r0, #3
     ab6:	b082      	sub	sp, #8
     ab8:	4688      	mov	r8, r1
     aba:	4617      	mov	r7, r2
     abc:	461e      	mov	r6, r3
     abe:	d837      	bhi.n	b30 <lwip_send+0x80>
     ac0:	f8df c08c 	ldr.w	r12, [pc, #140]	; b50 <lwip_send+0xa0>
     ac4:	eb00 0440 	add.w	r4, r0, r0, lsl #1
     ac8:	00e4      	lsls	r4, r4, #3
     aca:	f85c 5004 	ldr.w	r5, [r12, r4]
     ace:	4464      	add	r4, r12
     ad0:	b375      	cbz	r5, b30 <lwip_send+0x80>
     ad2:	b36c      	cbz	r4, b30 <lwip_send+0x80>
     ad4:	f895 c000 	ldrb.w	r12, [r5]
     ad8:	f1bc 0f10 	cmp.w	r12, #16
     adc:	d12d      	bne.n	b3a <lwip_send+0x8a>
     ade:	f013 0208 	ands.w	r2, r3, #8
     ae2:	d11f      	bne.n	b24 <lwip_send+0x74>
     ae4:	f895 309c 	ldrb.w	r3, [r5, #156]	; 0x9c
     ae8:	079b      	lsls	r3, r3, #30
     aea:	d41b      	bmi.n	b24 <lwip_send+0x74>
     aec:	f016 0f10 	tst.w	r6, #16
     af0:	bf0c      	ite	eq
     af2:	2301      	moveq	r3, #1
     af4:	2303      	movne	r3, #3
     af6:	2a00      	cmp	r2, #0
     af8:	bf0c      	ite	eq
     afa:	2200      	moveq	r2, #0
     afc:	2204      	movne	r2, #4
     afe:	4313      	orrs	r3, r2
     b00:	4628      	mov	r0, r5
     b02:	463a      	mov	r2, r7
     b04:	4641      	mov	r1, r8
     b06:	f004 fa49 	bl	4f9c <netconn_write>
     b0a:	4243      	negs	r3, r0
     b0c:	2b0f      	cmp	r3, #15
     b0e:	bf96      	itet	ls
     b10:	4a0e      	ldrls	r2, [pc, #56]	; (b4c <lwip_send+0x9c>)
     b12:	2305      	movhi	r3, #5
     b14:	f852 3023 	ldrls.w	r3, [r2, r3, lsl #2]
     b18:	6123      	str	r3, [r4, #16]
     b1a:	b948      	cbnz	r0, b30 <lwip_send+0x80>
     b1c:	4638      	mov	r0, r7
     b1e:	b002      	add	sp, #8
     b20:	e8bd 81f0 	ldmia.w	sp!, {r4, r5, r6, r7, r8, pc}
     b24:	f640 3368 	movw	r3, #2920	; 0xb68
     b28:	429f      	cmp	r7, r3
     b2a:	d9df      	bls.n	aec <lwip_send+0x3c>
     b2c:	235a      	movs	r3, #90	; 0x5a
     b2e:	6123      	str	r3, [r4, #16]
     b30:	f04f 30ff 	mov.w	r0, #4294967295	; 0xffffffff
     b34:	b002      	add	sp, #8
     b36:	e8bd 81f0 	ldmia.w	sp!, {r4, r5, r6, r7, r8, pc}
     b3a:	2400      	movs	r4, #0
     b3c:	9400      	str	r4, [sp, #0]
     b3e:	9401      	str	r4, [sp, #4]
     b40:	f7ff ff4e 	bl	9e0 <lwip_sendto>
     b44:	b002      	add	sp, #8
     b46:	e8bd 81f0 	ldmia.w	sp!, {r4, r5, r6, r7, r8, pc}
     b4a:	bf00      	nop
     b4c:	0000d970 	.word	0x0000d970
     b50:	10000208 	.word	0x10000208

00000b54 <lwip_socket>:
     b54:	2902      	cmp	r1, #2
     b56:	b538      	push	{r3, r4, r5, lr}
     b58:	d027      	beq.n	baa <lwip_socket+0x56>
     b5a:	2903      	cmp	r1, #3
     b5c:	d01c      	beq.n	b98 <lwip_socket+0x44>
     b5e:	2901      	cmp	r1, #1
     b60:	d002      	beq.n	b68 <lwip_socket+0x14>
     b62:	f04f 30ff 	mov.w	r0, #4294967295	; 0xffffffff
     b66:	bd38      	pop	{r3, r4, r5, pc}
     b68:	2010      	movs	r0, #16
     b6a:	2100      	movs	r1, #0
     b6c:	4a17      	ldr	r2, [pc, #92]	; (bcc <lwip_socket+0x78>)
     b6e:	f004 f919 	bl	4da4 <netconn_new_with_proto_and_callback>
     b72:	4604      	mov	r4, r0
     b74:	2800      	cmp	r0, #0
     b76:	d0f4      	beq.n	b62 <lwip_socket+0xe>
     b78:	f890 309c 	ldrb.w	r3, [r0, #156]	; 0x9c
     b7c:	f043 0308 	orr.w	r3, r3, #8
     b80:	f880 309c 	strb.w	r3, [r0, #156]	; 0x9c
     b84:	4620      	mov	r0, r4
     b86:	2100      	movs	r1, #0
     b88:	f7ff fc4c 	bl	424 <alloc_socket>
     b8c:	1c43      	adds	r3, r0, #1
     b8e:	4605      	mov	r5, r0
     b90:	d017      	beq.n	bc2 <lwip_socket+0x6e>
     b92:	f8c4 0094 	str.w	r0, [r4, #148]	; 0x94
     b96:	bd38      	pop	{r3, r4, r5, pc}
     b98:	b2d1      	uxtb	r1, r2
     b9a:	2040      	movs	r0, #64	; 0x40
     b9c:	4a0b      	ldr	r2, [pc, #44]	; (bcc <lwip_socket+0x78>)
     b9e:	f004 f901 	bl	4da4 <netconn_new_with_proto_and_callback>
     ba2:	4604      	mov	r4, r0
     ba4:	2c00      	cmp	r4, #0
     ba6:	d1ed      	bne.n	b84 <lwip_socket+0x30>
     ba8:	e7db      	b.n	b62 <lwip_socket+0xe>
     baa:	2a88      	cmp	r2, #136	; 0x88
     bac:	bf14      	ite	ne
     bae:	2020      	movne	r0, #32
     bb0:	2021      	moveq	r0, #33	; 0x21
     bb2:	2100      	movs	r1, #0
     bb4:	4a05      	ldr	r2, [pc, #20]	; (bcc <lwip_socket+0x78>)
     bb6:	f004 f8f5 	bl	4da4 <netconn_new_with_proto_and_callback>
     bba:	4604      	mov	r4, r0
     bbc:	2c00      	cmp	r4, #0
     bbe:	d1e1      	bne.n	b84 <lwip_socket+0x30>
     bc0:	e7cf      	b.n	b62 <lwip_socket+0xe>
     bc2:	4620      	mov	r0, r4
     bc4:	f004 f914 	bl	4df0 <netconn_delete>
     bc8:	4628      	mov	r0, r5
     bca:	bd38      	pop	{r3, r4, r5, pc}
     bcc:	000005dd 	.word	0x000005dd

00000bd0 <lwip_select>:
     bd0:	e92d 4ff0 	stmdb	sp!, {r4, r5, r6, r7, r8, r9, r10, r11, lr}
     bd4:	b095      	sub	sp, #84	; 0x54
     bd6:	ac07      	add	r4, sp, #28
     bd8:	9400      	str	r4, [sp, #0]
     bda:	ae08      	add	r6, sp, #32
     bdc:	ac09      	add	r4, sp, #36	; 0x24
     bde:	9601      	str	r6, [sp, #4]
     be0:	9402      	str	r4, [sp, #8]
     be2:	4680      	mov	r8, r0
     be4:	460c      	mov	r4, r1
     be6:	4615      	mov	r5, r2
     be8:	4699      	mov	r9, r3
     bea:	9e1e      	ldr	r6, [sp, #120]	; 0x78
     bec:	f7ff fc58 	bl	4a0 <lwip_selscan>
     bf0:	4682      	mov	r10, r0
     bf2:	2800      	cmp	r0, #0
     bf4:	f040 80d0 	bne.w	d98 <Stack_Size+0x198>
     bf8:	b12e      	cbz	r6, c06 <Stack_Size+0x6>
     bfa:	6833      	ldr	r3, [r6, #0]
     bfc:	b91b      	cbnz	r3, c06 <Stack_Size+0x6>
     bfe:	6873      	ldr	r3, [r6, #4]
     c00:	2b00      	cmp	r3, #0
     c02:	f000 80c9 	beq.w	d98 <Stack_Size+0x198>
     c06:	2300      	movs	r3, #0
     c08:	aa0a      	add	r2, sp, #40	; 0x28
     c0a:	4619      	mov	r1, r3
     c0c:	a810      	add	r0, sp, #64	; 0x40
     c0e:	940c      	str	r4, [sp, #48]	; 0x30
     c10:	950d      	str	r5, [sp, #52]	; 0x34
     c12:	f8cd 9038 	str.w	r9, [sp, #56]	; 0x38
     c16:	930a      	str	r3, [sp, #40]	; 0x28
     c18:	930b      	str	r3, [sp, #44]	; 0x2c
     c1a:	930f      	str	r3, [sp, #60]	; 0x3c
     c1c:	9204      	str	r2, [sp, #16]
     c1e:	f003 ff3b 	bl	4a98 <sys_sem_new>
     c22:	2800      	cmp	r0, #0
     c24:	f040 80f8 	bne.w	e18 <Stack_Size+0x218>
     c28:	f003 ffcc 	bl	4bc4 <sys_arch_protect>
     c2c:	4983      	ldr	r1, [pc, #524]	; (e3c <Stack_Size+0x23c>)
     c2e:	680b      	ldr	r3, [r1, #0]
     c30:	930a      	str	r3, [sp, #40]	; 0x28
     c32:	b10b      	cbz	r3, c38 <Stack_Size+0x38>
     c34:	aa0a      	add	r2, sp, #40	; 0x28
     c36:	605a      	str	r2, [r3, #4]
     c38:	4981      	ldr	r1, [pc, #516]	; (e40 <Stack_Size+0x240>)
     c3a:	aa0a      	add	r2, sp, #40	; 0x28
     c3c:	680b      	ldr	r3, [r1, #0]
     c3e:	497f      	ldr	r1, [pc, #508]	; (e3c <Stack_Size+0x23c>)
     c40:	3301      	adds	r3, #1
     c42:	600a      	str	r2, [r1, #0]
     c44:	4a7e      	ldr	r2, [pc, #504]	; (e40 <Stack_Size+0x240>)
     c46:	6013      	str	r3, [r2, #0]
     c48:	f003 ffce 	bl	4be8 <sys_arch_unprotect>
     c4c:	f1b8 0f00 	cmp.w	r8, #0
     c50:	dd23      	ble.n	c9a <Stack_Size+0x9a>
     c52:	f8df b1f4 	ldr.w	r11, [pc, #500]	; e48 <Stack_Size+0x248>
     c56:	f04f 0a00 	mov.w	r10, #0
     c5a:	2c00      	cmp	r4, #0
     c5c:	f000 80af 	beq.w	dbe <Stack_Size+0x1be>
     c60:	ea4f 03ea 	mov.w	r3, r10, asr #3
     c64:	5ce2      	ldrb	r2, [r4, r3]
     c66:	f00a 0307 	and.w	r3, r10, #7
     c6a:	fa42 f303 	asr.w	r3, r2, r3
     c6e:	07db      	lsls	r3, r3, #31
     c70:	f140 80a5 	bpl.w	dbe <Stack_Size+0x1be>
     c74:	f1ba 0f03 	cmp.w	r10, #3
     c78:	bf88      	it	hi
     c7a:	2700      	movhi	r7, #0
     c7c:	f240 80d7 	bls.w	e2e <Stack_Size+0x22e>
     c80:	f003 ffa0 	bl	4bc4 <sys_arch_protect>
     c84:	697b      	ldr	r3, [r7, #20]
     c86:	3301      	adds	r3, #1
     c88:	617b      	str	r3, [r7, #20]
     c8a:	f003 ffad 	bl	4be8 <sys_arch_unprotect>
     c8e:	f10a 0a01 	add.w	r10, r10, #1
     c92:	45c2      	cmp	r10, r8
     c94:	f10b 0b18 	add.w	r11, r11, #24
     c98:	d1df      	bne.n	c5a <Stack_Size+0x5a>
     c9a:	ab07      	add	r3, sp, #28
     c9c:	a908      	add	r1, sp, #32
     c9e:	aa09      	add	r2, sp, #36	; 0x24
     ca0:	9300      	str	r3, [sp, #0]
     ca2:	9101      	str	r1, [sp, #4]
     ca4:	9202      	str	r2, [sp, #8]
     ca6:	4640      	mov	r0, r8
     ca8:	4621      	mov	r1, r4
     caa:	462a      	mov	r2, r5
     cac:	464b      	mov	r3, r9
     cae:	f7ff fbf7 	bl	4a0 <lwip_selscan>
     cb2:	4682      	mov	r10, r0
     cb4:	b9c0      	cbnz	r0, ce8 <Stack_Size+0xe8>
     cb6:	2e00      	cmp	r6, #0
     cb8:	f000 80b1 	beq.w	e1e <Stack_Size+0x21e>
     cbc:	6873      	ldr	r3, [r6, #4]
     cbe:	4961      	ldr	r1, [pc, #388]	; (e44 <Stack_Size+0x244>)
     cc0:	f503 73fa 	add.w	r3, r3, #500	; 0x1f4
     cc4:	fb81 2103 	smull	r2, r1, r1, r3
     cc8:	6832      	ldr	r2, [r6, #0]
     cca:	17db      	asrs	r3, r3, #31
     ccc:	ebc3 13a1 	rsb	r3, r3, r1, asr #6
     cd0:	f44f 717a 	mov.w	r1, #1000	; 0x3e8
     cd4:	fb01 3102 	mla	r1, r1, r2, r3
     cd8:	2900      	cmp	r1, #0
     cda:	bf08      	it	eq
     cdc:	2101      	moveq	r1, #1
     cde:	a810      	add	r0, sp, #64	; 0x40
     ce0:	f003 fef6 	bl	4ad0 <sys_arch_sem_wait>
     ce4:	9005      	str	r0, [sp, #20]
     ce6:	e001      	b.n	cec <Stack_Size+0xec>
     ce8:	2300      	movs	r3, #0
     cea:	9305      	str	r3, [sp, #20]
     cec:	f1b8 0f00 	cmp.w	r8, #0
     cf0:	dd29      	ble.n	d46 <Stack_Size+0x146>
     cf2:	4e55      	ldr	r6, [pc, #340]	; (e48 <Stack_Size+0x248>)
     cf4:	f04f 0b00 	mov.w	r11, #0
     cf8:	b144      	cbz	r4, d0c <Stack_Size+0x10c>
     cfa:	ea4f 03eb 	mov.w	r3, r11, asr #3
     cfe:	5ce2      	ldrb	r2, [r4, r3]
     d00:	f00b 0307 	and.w	r3, r11, #7
     d04:	fa42 f303 	asr.w	r3, r2, r3
     d08:	07d9      	lsls	r1, r3, #31
     d0a:	d40a      	bmi.n	d22 <Stack_Size+0x122>
     d0c:	2d00      	cmp	r5, #0
     d0e:	d071      	beq.n	df4 <Stack_Size+0x1f4>
     d10:	ea4f 03eb 	mov.w	r3, r11, asr #3
     d14:	5cea      	ldrb	r2, [r5, r3]
     d16:	f00b 0307 	and.w	r3, r11, #7
     d1a:	fa42 f303 	asr.w	r3, r2, r3
     d1e:	07da      	lsls	r2, r3, #31
     d20:	d568      	bpl.n	df4 <Stack_Size+0x1f4>
     d22:	f1bb 0f03 	cmp.w	r11, #3
     d26:	bf88      	it	hi
     d28:	2700      	movhi	r7, #0
     d2a:	d97a      	bls.n	e22 <Stack_Size+0x222>
     d2c:	f003 ff4a 	bl	4bc4 <sys_arch_protect>
     d30:	697b      	ldr	r3, [r7, #20]
     d32:	3b01      	subs	r3, #1
     d34:	617b      	str	r3, [r7, #20]
     d36:	f003 ff57 	bl	4be8 <sys_arch_unprotect>
     d3a:	f10b 0b01 	add.w	r11, r11, #1
     d3e:	45c3      	cmp	r11, r8
     d40:	f106 0618 	add.w	r6, r6, #24
     d44:	d1d8      	bne.n	cf8 <Stack_Size+0xf8>
     d46:	f003 ff3d 	bl	4bc4 <sys_arch_protect>
     d4a:	9b0a      	ldr	r3, [sp, #40]	; 0x28
     d4c:	b10b      	cbz	r3, d52 <Stack_Size+0x152>
     d4e:	9a0b      	ldr	r2, [sp, #44]	; 0x2c
     d50:	605a      	str	r2, [r3, #4]
     d52:	4e3a      	ldr	r6, [pc, #232]	; (e3c <Stack_Size+0x23c>)
     d54:	6832      	ldr	r2, [r6, #0]
     d56:	4631      	mov	r1, r6
     d58:	9e04      	ldr	r6, [sp, #16]
     d5a:	42b2      	cmp	r2, r6
     d5c:	bf0c      	ite	eq
     d5e:	600b      	streq	r3, [r1, #0]
     d60:	9a0b      	ldrne	r2, [sp, #44]	; 0x2c
     d62:	4937      	ldr	r1, [pc, #220]	; (e40 <Stack_Size+0x240>)
     d64:	bf18      	it	ne
     d66:	6013      	strne	r3, [r2, #0]
     d68:	680b      	ldr	r3, [r1, #0]
     d6a:	3301      	adds	r3, #1
     d6c:	600b      	str	r3, [r1, #0]
     d6e:	f003 ff3b 	bl	4be8 <sys_arch_unprotect>
     d72:	a810      	add	r0, sp, #64	; 0x40
     d74:	f003 fed4 	bl	4b20 <sys_sem_free>
     d78:	9a05      	ldr	r2, [sp, #20]
     d7a:	3201      	adds	r2, #1
     d7c:	d00c      	beq.n	d98 <Stack_Size+0x198>
     d7e:	ab07      	add	r3, sp, #28
     d80:	a909      	add	r1, sp, #36	; 0x24
     d82:	ae08      	add	r6, sp, #32
     d84:	9300      	str	r3, [sp, #0]
     d86:	9102      	str	r1, [sp, #8]
     d88:	9601      	str	r6, [sp, #4]
     d8a:	4640      	mov	r0, r8
     d8c:	4621      	mov	r1, r4
     d8e:	462a      	mov	r2, r5
     d90:	464b      	mov	r3, r9
     d92:	f7ff fb85 	bl	4a0 <lwip_selscan>
     d96:	4682      	mov	r10, r0
     d98:	b114      	cbz	r4, da0 <Stack_Size+0x1a0>
     d9a:	f89d 301c 	ldrb.w	r3, [sp, #28]
     d9e:	7023      	strb	r3, [r4, #0]
     da0:	b115      	cbz	r5, da8 <Stack_Size+0x1a8>
     da2:	f89d 3020 	ldrb.w	r3, [sp, #32]
     da6:	702b      	strb	r3, [r5, #0]
     da8:	f1b9 0f00 	cmp.w	r9, #0
     dac:	d030      	beq.n	e10 <Stack_Size+0x210>
     dae:	f89d 3024 	ldrb.w	r3, [sp, #36]	; 0x24
     db2:	4650      	mov	r0, r10
     db4:	f889 3000 	strb.w	r3, [r9]
     db8:	b015      	add	sp, #84	; 0x54
     dba:	e8bd 8ff0 	ldmia.w	sp!, {r4, r5, r6, r7, r8, r9, r10, r11, pc}
     dbe:	b14d      	cbz	r5, dd4 <Stack_Size+0x1d4>
     dc0:	ea4f 03ea 	mov.w	r3, r10, asr #3
     dc4:	5cea      	ldrb	r2, [r5, r3]
     dc6:	f00a 0307 	and.w	r3, r10, #7
     dca:	fa42 f303 	asr.w	r3, r2, r3
     dce:	07df      	lsls	r7, r3, #31
     dd0:	f53f af50 	bmi.w	c74 <Stack_Size+0x74>
     dd4:	f1b9 0f00 	cmp.w	r9, #0
     dd8:	f43f af59 	beq.w	c8e <Stack_Size+0x8e>
     ddc:	ea4f 03ea 	mov.w	r3, r10, asr #3
     de0:	f819 2003 	ldrb.w	r2, [r9, r3]
     de4:	f00a 0307 	and.w	r3, r10, #7
     de8:	fa42 f303 	asr.w	r3, r2, r3
     dec:	07d8      	lsls	r0, r3, #31
     dee:	f57f af4e 	bpl.w	c8e <Stack_Size+0x8e>
     df2:	e73f      	b.n	c74 <Stack_Size+0x74>
     df4:	f1b9 0f00 	cmp.w	r9, #0
     df8:	d09f      	beq.n	d3a <Stack_Size+0x13a>
     dfa:	ea4f 03eb 	mov.w	r3, r11, asr #3
     dfe:	f819 2003 	ldrb.w	r2, [r9, r3]
     e02:	f00b 0307 	and.w	r3, r11, #7
     e06:	fa42 f303 	asr.w	r3, r2, r3
     e0a:	07db      	lsls	r3, r3, #31
     e0c:	d595      	bpl.n	d3a <Stack_Size+0x13a>
     e0e:	e788      	b.n	d22 <Stack_Size+0x122>
     e10:	4650      	mov	r0, r10
     e12:	b015      	add	sp, #84	; 0x54
     e14:	e8bd 8ff0 	ldmia.w	sp!, {r4, r5, r6, r7, r8, r9, r10, r11, pc}
     e18:	f04f 30ff 	mov.w	r0, #4294967295	; 0xffffffff
     e1c:	e7cc      	b.n	db8 <Stack_Size+0x1b8>
     e1e:	4601      	mov	r1, r0
     e20:	e75d      	b.n	cde <Stack_Size+0xde>
     e22:	6833      	ldr	r3, [r6, #0]
     e24:	2b00      	cmp	r3, #0
     e26:	bf14      	ite	ne
     e28:	4637      	movne	r7, r6
     e2a:	2700      	moveq	r7, #0
     e2c:	e77e      	b.n	d2c <Stack_Size+0x12c>
     e2e:	f8db 3000 	ldr.w	r3, [r11]
     e32:	2b00      	cmp	r3, #0
     e34:	bf14      	ite	ne
     e36:	465f      	movne	r7, r11
     e38:	2700      	moveq	r7, #0
     e3a:	e721      	b.n	c80 <Stack_Size+0x80>
     e3c:	10000204 	.word	0x10000204
     e40:	10000268 	.word	0x10000268
     e44:	10624dd3 	.word	0x10624dd3
     e48:	10000208 	.word	0x10000208

00000e4c <lwip_shutdown>:
     e4c:	2803      	cmp	r0, #3
     e4e:	b510      	push	{r4, lr}
     e50:	d80d      	bhi.n	e6e <lwip_shutdown+0x22>
     e52:	eb00 0040 	add.w	r0, r0, r0, lsl #1
     e56:	4b17      	ldr	r3, [pc, #92]	; (eb4 <lwip_shutdown+0x68>)
     e58:	00c4      	lsls	r4, r0, #3
     e5a:	5918      	ldr	r0, [r3, r4]
     e5c:	441c      	add	r4, r3
     e5e:	b130      	cbz	r0, e6e <lwip_shutdown+0x22>
     e60:	b12c      	cbz	r4, e6e <lwip_shutdown+0x22>
     e62:	7803      	ldrb	r3, [r0, #0]
     e64:	2b10      	cmp	r3, #16
     e66:	d005      	beq.n	e74 <lwip_shutdown+0x28>
     e68:	205f      	movs	r0, #95	; 0x5f
     e6a:	6120      	str	r0, [r4, #16]
     e6c:	bd10      	pop	{r4, pc}
     e6e:	f04f 30ff 	mov.w	r0, #4294967295	; 0xffffffff
     e72:	bd10      	pop	{r4, pc}
     e74:	b131      	cbz	r1, e84 <lwip_shutdown+0x38>
     e76:	2901      	cmp	r1, #1
     e78:	d015      	beq.n	ea6 <lwip_shutdown+0x5a>
     e7a:	2902      	cmp	r1, #2
     e7c:	d016      	beq.n	eac <lwip_shutdown+0x60>
     e7e:	2016      	movs	r0, #22
     e80:	6120      	str	r0, [r4, #16]
     e82:	bd10      	pop	{r4, pc}
     e84:	460a      	mov	r2, r1
     e86:	2101      	movs	r1, #1
     e88:	f004 f8b2 	bl	4ff0 <netconn_shutdown>
     e8c:	4243      	negs	r3, r0
     e8e:	2b0f      	cmp	r3, #15
     e90:	bf96      	itet	ls
     e92:	4a09      	ldrls	r2, [pc, #36]	; (eb8 <lwip_shutdown+0x6c>)
     e94:	2305      	movhi	r3, #5
     e96:	f852 3023 	ldrls.w	r3, [r2, r3, lsl #2]
     e9a:	3000      	adds	r0, #0
     e9c:	bf18      	it	ne
     e9e:	2001      	movne	r0, #1
     ea0:	4240      	negs	r0, r0
     ea2:	6123      	str	r3, [r4, #16]
     ea4:	bd10      	pop	{r4, pc}
     ea6:	460a      	mov	r2, r1
     ea8:	2100      	movs	r1, #0
     eaa:	e7ed      	b.n	e88 <lwip_shutdown+0x3c>
     eac:	2201      	movs	r2, #1
     eae:	4611      	mov	r1, r2
     eb0:	e7ea      	b.n	e88 <lwip_shutdown+0x3c>
     eb2:	bf00      	nop
     eb4:	10000208 	.word	0x10000208
     eb8:	0000d970 	.word	0x0000d970

00000ebc <tcpip_thread>:
     ebc:	b500      	push	{lr}
     ebe:	4b23      	ldr	r3, [pc, #140]	; (f4c <tcpip_thread+0x90>)
     ec0:	b083      	sub	sp, #12
     ec2:	681b      	ldr	r3, [r3, #0]
     ec4:	b113      	cbz	r3, ecc <tcpip_thread+0x10>
     ec6:	4a22      	ldr	r2, [pc, #136]	; (f50 <tcpip_thread+0x94>)
     ec8:	6810      	ldr	r0, [r2, #0]
     eca:	4798      	blx	r3
     ecc:	4821      	ldr	r0, [pc, #132]	; (f54 <tcpip_thread+0x98>)
     ece:	a901      	add	r1, sp, #4
     ed0:	f002 f948 	bl	3164 <sys_timeouts_mbox_fetch>
     ed4:	9b01      	ldr	r3, [sp, #4]
     ed6:	781a      	ldrb	r2, [r3, #0]
     ed8:	2a04      	cmp	r2, #4
     eda:	d8f7      	bhi.n	ecc <tcpip_thread+0x10>
     edc:	e8df f002 	tbb	[pc, r2]
     ee0:	0b141e2d 	.word	0x0b141e2d
     ee4:	03          	.byte	0x03
     ee5:	00          	.byte	0x00
     ee6:	68d8      	ldr	r0, [r3, #12]
     ee8:	689a      	ldr	r2, [r3, #8]
     eea:	4790      	blx	r2
     eec:	2008      	movs	r0, #8
     eee:	9901      	ldr	r1, [sp, #4]
     ef0:	f000 faaa 	bl	1448 <memp_free>
     ef4:	e7ea      	b.n	ecc <tcpip_thread+0x10>
     ef6:	68d8      	ldr	r0, [r3, #12]
     ef8:	6919      	ldr	r1, [r3, #16]
     efa:	f002 f90f 	bl	311c <sys_untimeout>
     efe:	2008      	movs	r0, #8
     f00:	9901      	ldr	r1, [sp, #4]
     f02:	f000 faa1 	bl	1448 <memp_free>
     f06:	e7e1      	b.n	ecc <tcpip_thread+0x10>
     f08:	f103 0008 	add.w	r0, r3, #8
     f0c:	c807      	ldmia	r0, {r0, r1, r2}
     f0e:	f002 f80d 	bl	2f2c <sys_timeout>
     f12:	2008      	movs	r0, #8
     f14:	9901      	ldr	r1, [sp, #4]
     f16:	f000 fa97 	bl	1448 <memp_free>
     f1a:	e7d7      	b.n	ecc <tcpip_thread+0x10>
     f1c:	68da      	ldr	r2, [r3, #12]
     f1e:	f892 0039 	ldrb.w	r0, [r2, #57]	; 0x39
     f22:	4611      	mov	r1, r2
     f24:	f010 0f60 	tst.w	r0, #96	; 0x60
     f28:	6898      	ldr	r0, [r3, #8]
     f2a:	d00b      	beq.n	f44 <tcpip_thread+0x88>
     f2c:	f003 fbd0 	bl	46d0 <ethernet_input>
     f30:	2009      	movs	r0, #9
     f32:	9901      	ldr	r1, [sp, #4]
     f34:	f000 fa88 	bl	1448 <memp_free>
     f38:	e7c8      	b.n	ecc <tcpip_thread+0x10>
     f3a:	6898      	ldr	r0, [r3, #8]
     f3c:	6803      	ldr	r3, [r0, #0]
     f3e:	3004      	adds	r0, #4
     f40:	4798      	blx	r3
     f42:	e7c3      	b.n	ecc <tcpip_thread+0x10>
     f44:	f002 fbae 	bl	36a4 <ip_input>
     f48:	e7f2      	b.n	f30 <tcpip_thread+0x74>
     f4a:	bf00      	nop
     f4c:	100002ac 	.word	0x100002ac
     f50:	100002a8 	.word	0x100002a8
     f54:	1000026c 	.word	0x1000026c

00000f58 <tcpip_input>:
     f58:	b5f8      	push	{r3, r4, r5, r6, r7, lr}
     f5a:	4d0f      	ldr	r5, [pc, #60]	; (f98 <tcpip_input+0x40>)
     f5c:	4606      	mov	r6, r0
     f5e:	682b      	ldr	r3, [r5, #0]
     f60:	460f      	mov	r7, r1
     f62:	b17b      	cbz	r3, f84 <tcpip_input+0x2c>
     f64:	2009      	movs	r0, #9
     f66:	f000 fa59 	bl	141c <memp_malloc>
     f6a:	4604      	mov	r4, r0
     f6c:	b160      	cbz	r0, f88 <tcpip_input+0x30>
     f6e:	2301      	movs	r3, #1
     f70:	6086      	str	r6, [r0, #8]
     f72:	60c7      	str	r7, [r0, #12]
     f74:	4621      	mov	r1, r4
     f76:	4628      	mov	r0, r5
     f78:	7023      	strb	r3, [r4, #0]
     f7a:	f003 fd49 	bl	4a10 <sys_mbox_trypost>
     f7e:	b928      	cbnz	r0, f8c <tcpip_input+0x34>
     f80:	b240      	sxtb	r0, r0
     f82:	bdf8      	pop	{r3, r4, r5, r6, r7, pc}
     f84:	20fa      	movs	r0, #250	; 0xfa
     f86:	e7fb      	b.n	f80 <tcpip_input+0x28>
     f88:	20ff      	movs	r0, #255	; 0xff
     f8a:	e7f9      	b.n	f80 <tcpip_input+0x28>
     f8c:	2009      	movs	r0, #9
     f8e:	4621      	mov	r1, r4
     f90:	f000 fa5a 	bl	1448 <memp_free>
     f94:	20ff      	movs	r0, #255	; 0xff
     f96:	e7f3      	b.n	f80 <tcpip_input+0x28>
     f98:	1000026c 	.word	0x1000026c

00000f9c <tcpip_callback_with_block>:
     f9c:	e92d 41f0 	stmdb	sp!, {r4, r5, r6, r7, r8, lr}
     fa0:	4d14      	ldr	r5, [pc, #80]	; (ff4 <tcpip_callback_with_block+0x58>)
     fa2:	4606      	mov	r6, r0
     fa4:	682b      	ldr	r3, [r5, #0]
     fa6:	460f      	mov	r7, r1
     fa8:	4690      	mov	r8, r2
     faa:	b1cb      	cbz	r3, fe0 <tcpip_callback_with_block+0x44>
     fac:	2008      	movs	r0, #8
     fae:	f000 fa35 	bl	141c <memp_malloc>
     fb2:	4604      	mov	r4, r0
     fb4:	b1e0      	cbz	r0, ff0 <tcpip_callback_with_block+0x54>
     fb6:	2304      	movs	r3, #4
     fb8:	6086      	str	r6, [r0, #8]
     fba:	60c7      	str	r7, [r0, #12]
     fbc:	7003      	strb	r3, [r0, #0]
     fbe:	4621      	mov	r1, r4
     fc0:	4628      	mov	r0, r5
     fc2:	f1b8 0f00 	cmp.w	r8, #0
     fc6:	d105      	bne.n	fd4 <tcpip_callback_with_block+0x38>
     fc8:	f003 fd22 	bl	4a10 <sys_mbox_trypost>
     fcc:	b950      	cbnz	r0, fe4 <tcpip_callback_with_block+0x48>
     fce:	b240      	sxtb	r0, r0
     fd0:	e8bd 81f0 	ldmia.w	sp!, {r4, r5, r6, r7, r8, pc}
     fd4:	f003 fd0c 	bl	49f0 <sys_mbox_post>
     fd8:	2000      	movs	r0, #0
     fda:	b240      	sxtb	r0, r0
     fdc:	e8bd 81f0 	ldmia.w	sp!, {r4, r5, r6, r7, r8, pc}
     fe0:	20fa      	movs	r0, #250	; 0xfa
     fe2:	e7f4      	b.n	fce <tcpip_callback_with_block+0x32>
     fe4:	2008      	movs	r0, #8
     fe6:	4621      	mov	r1, r4
     fe8:	f000 fa2e 	bl	1448 <memp_free>
     fec:	20ff      	movs	r0, #255	; 0xff
     fee:	e7ee      	b.n	fce <tcpip_callback_with_block+0x32>
     ff0:	20ff      	movs	r0, #255	; 0xff
     ff2:	e7ec      	b.n	fce <tcpip_callback_with_block+0x32>
     ff4:	1000026c 	.word	0x1000026c

00000ff8 <tcpip_apimsg>:
     ff8:	b530      	push	{r4, r5, lr}
     ffa:	4b0c      	ldr	r3, [pc, #48]	; (102c <tcpip_apimsg+0x34>)
     ffc:	b087      	sub	sp, #28
     ffe:	681a      	ldr	r2, [r3, #0]
    1000:	4604      	mov	r4, r0
    1002:	b182      	cbz	r2, 1026 <tcpip_apimsg+0x2e>
    1004:	4618      	mov	r0, r3
    1006:	2500      	movs	r5, #0
    1008:	a901      	add	r1, sp, #4
    100a:	9403      	str	r4, [sp, #12]
    100c:	f88d 5004 	strb.w	r5, [sp, #4]
    1010:	f003 fcee 	bl	49f0 <sys_mbox_post>
    1014:	6860      	ldr	r0, [r4, #4]
    1016:	4629      	mov	r1, r5
    1018:	300c      	adds	r0, #12
    101a:	f003 fd59 	bl	4ad0 <sys_arch_sem_wait>
    101e:	7a20      	ldrb	r0, [r4, #8]
    1020:	b240      	sxtb	r0, r0
    1022:	b007      	add	sp, #28
    1024:	bd30      	pop	{r4, r5, pc}
    1026:	20fa      	movs	r0, #250	; 0xfa
    1028:	e7fa      	b.n	1020 <tcpip_apimsg+0x28>
    102a:	bf00      	nop
    102c:	1000026c 	.word	0x1000026c

00001030 <tcpip_init>:
    1030:	b530      	push	{r4, r5, lr}
    1032:	b083      	sub	sp, #12
    1034:	4605      	mov	r5, r0
    1036:	460c      	mov	r4, r1
    1038:	f000 f81c 	bl	1074 <lwip_init>
    103c:	4a08      	ldr	r2, [pc, #32]	; (1060 <tcpip_init+0x30>)
    103e:	4b09      	ldr	r3, [pc, #36]	; (1064 <tcpip_init+0x34>)
    1040:	2108      	movs	r1, #8
    1042:	4809      	ldr	r0, [pc, #36]	; (1068 <tcpip_init+0x38>)
    1044:	6015      	str	r5, [r2, #0]
    1046:	601c      	str	r4, [r3, #0]
    1048:	f003 fc9c 	bl	4984 <sys_mbox_new>
    104c:	2200      	movs	r2, #0
    104e:	9200      	str	r2, [sp, #0]
    1050:	4906      	ldr	r1, [pc, #24]	; (106c <tcpip_init+0x3c>)
    1052:	f44f 6380 	mov.w	r3, #1024	; 0x400
    1056:	4806      	ldr	r0, [pc, #24]	; (1070 <tcpip_init+0x40>)
    1058:	f003 fdd6 	bl	4c08 <sys_thread_new>
    105c:	b003      	add	sp, #12
    105e:	bd30      	pop	{r4, r5, pc}
    1060:	100002ac 	.word	0x100002ac
    1064:	100002a8 	.word	0x100002a8
    1068:	1000026c 	.word	0x1000026c
    106c:	00000ebd 	.word	0x00000ebd
    1070:	0000d9b0 	.word	0x0000d9b0

00001074 <lwip_init>:
    1074:	b508      	push	{r3, lr}
    1076:	f003 fd8f 	bl	4b98 <sys_init>
    107a:	f000 f80f 	bl	109c <mem_init>
    107e:	f000 f991 	bl	13a4 <memp_init>
    1082:	f000 f9f5 	bl	1470 <netif_init>
    1086:	f7ff fb35 	bl	6f4 <lwip_socket_init>
    108a:	f002 f937 	bl	32fc <igmp_init>
    108e:	f005 ff79 	bl	6f84 <dns_init>
    1092:	e8bd 4008 	ldmia.w	sp!, {r3, lr}
    1096:	f001 bfbd 	b.w	3014 <sys_timeouts_init>
    109a:	bf00      	nop

0000109c <mem_init>:
    109c:	b4f0      	push	{r4, r5, r6, r7}
    109e:	4b0d      	ldr	r3, [pc, #52]	; (10d4 <mem_init+0x38>)
    10a0:	f643 72ec 	movw	r2, #16364	; 0x3fec
    10a4:	f023 0303 	bic.w	r3, r3, #3
    10a8:	1899      	adds	r1, r3, r2
    10aa:	2400      	movs	r4, #0
    10ac:	4f0a      	ldr	r7, [pc, #40]	; (10d8 <mem_init+0x3c>)
    10ae:	4e0b      	ldr	r6, [pc, #44]	; (10dc <mem_init+0x40>)
    10b0:	2501      	movs	r5, #1
    10b2:	805c      	strh	r4, [r3, #2]
    10b4:	711c      	strb	r4, [r3, #4]
    10b6:	801a      	strh	r2, [r3, #0]
    10b8:	f8df c028 	ldr.w	r12, [pc, #40]	; 10e4 <mem_init+0x48>
    10bc:	710d      	strb	r5, [r1, #4]
    10be:	603b      	str	r3, [r7, #0]
    10c0:	6031      	str	r1, [r6, #0]
    10c2:	529a      	strh	r2, [r3, r2]
    10c4:	4806      	ldr	r0, [pc, #24]	; (10e0 <mem_init+0x44>)
    10c6:	804a      	strh	r2, [r1, #2]
    10c8:	bcf0      	pop	{r4, r5, r6, r7}
    10ca:	f8cc 3000 	str.w	r3, [r12]
    10ce:	f003 bd29 	b.w	4b24 <sys_mutex_new>
    10d2:	bf00      	nop
    10d4:	2007c003 	.word	0x2007c003
    10d8:	100002b0 	.word	0x100002b0
    10dc:	100002b4 	.word	0x100002b4
    10e0:	100002b8 	.word	0x100002b8
    10e4:	100002cc 	.word	0x100002cc

000010e8 <mem_free>:
    10e8:	b5f8      	push	{r3, r4, r5, r6, r7, lr}
    10ea:	4604      	mov	r4, r0
    10ec:	2800      	cmp	r0, #0
    10ee:	d04c      	beq.n	118a <mem_free+0xa2>
    10f0:	4d26      	ldr	r5, [pc, #152]	; (118c <mem_free+0xa4>)
    10f2:	682b      	ldr	r3, [r5, #0]
    10f4:	4298      	cmp	r0, r3
    10f6:	d303      	bcc.n	1100 <mem_free+0x18>
    10f8:	4e25      	ldr	r6, [pc, #148]	; (1190 <mem_free+0xa8>)
    10fa:	6833      	ldr	r3, [r6, #0]
    10fc:	4298      	cmp	r0, r3
    10fe:	d305      	bcc.n	110c <mem_free+0x24>
    1100:	f003 fd60 	bl	4bc4 <sys_arch_protect>
    1104:	e8bd 40f8 	ldmia.w	sp!, {r3, r4, r5, r6, r7, lr}
    1108:	f003 bd6e 	b.w	4be8 <sys_arch_unprotect>
    110c:	4821      	ldr	r0, [pc, #132]	; (1194 <mem_free+0xac>)
    110e:	f003 fd25 	bl	4b5c <sys_mutex_lock>
    1112:	4821      	ldr	r0, [pc, #132]	; (1198 <mem_free+0xb0>)
    1114:	f1a4 0208 	sub.w	r2, r4, #8
    1118:	6803      	ldr	r3, [r0, #0]
    111a:	2100      	movs	r1, #0
    111c:	429a      	cmp	r2, r3
    111e:	682b      	ldr	r3, [r5, #0]
    1120:	f834 5c08 	ldrh.w	r5, [r4, #-8]
    1124:	f804 1c04 	strb.w	r1, [r4, #-4]
    1128:	eb03 0105 	add.w	r1, r3, r5
    112c:	bf38      	it	cc
    112e:	6002      	strcc	r2, [r0, #0]
    1130:	428a      	cmp	r2, r1
    1132:	d011      	beq.n	1158 <mem_free+0x70>
    1134:	790f      	ldrb	r7, [r1, #4]
    1136:	b97f      	cbnz	r7, 1158 <mem_free+0x70>
    1138:	6836      	ldr	r6, [r6, #0]
    113a:	42b1      	cmp	r1, r6
    113c:	d00c      	beq.n	1158 <mem_free+0x70>
    113e:	6806      	ldr	r6, [r0, #0]
    1140:	4f15      	ldr	r7, [pc, #84]	; (1198 <mem_free+0xb0>)
    1142:	42b1      	cmp	r1, r6
    1144:	5b59      	ldrh	r1, [r3, r5]
    1146:	ebc3 0602 	rsb	r6, r3, r2
    114a:	f824 1c08 	strh.w	r1, [r4, #-8]
    114e:	5b59      	ldrh	r1, [r3, r5]
    1150:	bf08      	it	eq
    1152:	603a      	streq	r2, [r7, #0]
    1154:	4419      	add	r1, r3
    1156:	804e      	strh	r6, [r1, #2]
    1158:	f834 5c06 	ldrh.w	r5, [r4, #-6]
    115c:	1959      	adds	r1, r3, r5
    115e:	428a      	cmp	r2, r1
    1160:	d00e      	beq.n	1180 <mem_free+0x98>
    1162:	790e      	ldrb	r6, [r1, #4]
    1164:	b966      	cbnz	r6, 1180 <mem_free+0x98>
    1166:	6800      	ldr	r0, [r0, #0]
    1168:	4e0b      	ldr	r6, [pc, #44]	; (1198 <mem_free+0xb0>)
    116a:	4282      	cmp	r2, r0
    116c:	f834 2c08 	ldrh.w	r2, [r4, #-8]
    1170:	bf08      	it	eq
    1172:	6031      	streq	r1, [r6, #0]
    1174:	535a      	strh	r2, [r3, r5]
    1176:	f834 2c08 	ldrh.w	r2, [r4, #-8]
    117a:	1ac9      	subs	r1, r1, r3
    117c:	4413      	add	r3, r2
    117e:	8059      	strh	r1, [r3, #2]
    1180:	4804      	ldr	r0, [pc, #16]	; (1194 <mem_free+0xac>)
    1182:	e8bd 40f8 	ldmia.w	sp!, {r3, r4, r5, r6, r7, lr}
    1186:	f003 bcf9 	b.w	4b7c <sys_mutex_unlock>
    118a:	bdf8      	pop	{r3, r4, r5, r6, r7, pc}
    118c:	100002cc 	.word	0x100002cc
    1190:	100002b4 	.word	0x100002b4
    1194:	100002b8 	.word	0x100002b8
    1198:	100002b0 	.word	0x100002b0

0000119c <mem_trim>:
    119c:	e92d 41f0 	stmdb	sp!, {r4, r5, r6, r7, r8, lr}
    11a0:	3103      	adds	r1, #3
    11a2:	f64f 74fc 	movw	r4, #65532	; 0xfffc
    11a6:	400c      	ands	r4, r1
    11a8:	2c0b      	cmp	r4, #11
    11aa:	4605      	mov	r5, r0
    11ac:	d945      	bls.n	123a <mem_trim+0x9e>
    11ae:	f643 73ec 	movw	r3, #16364	; 0x3fec
    11b2:	429c      	cmp	r4, r3
    11b4:	d868      	bhi.n	1288 <mem_trim+0xec>
    11b6:	4e37      	ldr	r6, [pc, #220]	; (1294 <mem_trim+0xf8>)
    11b8:	6833      	ldr	r3, [r6, #0]
    11ba:	42ab      	cmp	r3, r5
    11bc:	d842      	bhi.n	1244 <mem_trim+0xa8>
    11be:	4a36      	ldr	r2, [pc, #216]	; (1298 <mem_trim+0xfc>)
    11c0:	6812      	ldr	r2, [r2, #0]
    11c2:	4295      	cmp	r5, r2
    11c4:	d23e      	bcs.n	1244 <mem_trim+0xa8>
    11c6:	f1a5 0808 	sub.w	r8, r5, #8
    11ca:	f835 7c08 	ldrh.w	r7, [r5, #-8]
    11ce:	ebc3 0308 	rsb	r3, r3, r8
    11d2:	fa1f f883 	uxth.w	r8, r3
    11d6:	3f08      	subs	r7, #8
    11d8:	ebc8 0707 	rsb	r7, r8, r7
    11dc:	b2bf      	uxth	r7, r7
    11de:	42a7      	cmp	r7, r4
    11e0:	d352      	bcc.n	1288 <mem_trim+0xec>
    11e2:	42bc      	cmp	r4, r7
    11e4:	d053      	beq.n	128e <mem_trim+0xf2>
    11e6:	482d      	ldr	r0, [pc, #180]	; (129c <mem_trim+0x100>)
    11e8:	f003 fcb8 	bl	4b5c <sys_mutex_lock>
    11ec:	6833      	ldr	r3, [r6, #0]
    11ee:	f835 2c08 	ldrh.w	r2, [r5, #-8]
    11f2:	1899      	adds	r1, r3, r2
    11f4:	7908      	ldrb	r0, [r1, #4]
    11f6:	bb60      	cbnz	r0, 1252 <mem_trim+0xb6>
    11f8:	4e29      	ldr	r6, [pc, #164]	; (12a0 <mem_trim+0x104>)
    11fa:	f108 0708 	add.w	r7, r8, #8
    11fe:	6830      	ldr	r0, [r6, #0]
    1200:	443c      	add	r4, r7
    1202:	b2a4      	uxth	r4, r4
    1204:	5a9f      	ldrh	r7, [r3, r2]
    1206:	4288      	cmp	r0, r1
    1208:	eb03 0204 	add.w	r2, r3, r4
    120c:	f04f 0100 	mov.w	r1, #0
    1210:	7111      	strb	r1, [r2, #4]
    1212:	8017      	strh	r7, [r2, #0]
    1214:	f8a2 8002 	strh.w	r8, [r2, #2]
    1218:	f825 4c08 	strh.w	r4, [r5, #-8]
    121c:	bf08      	it	eq
    121e:	6032      	streq	r2, [r6, #0]
    1220:	8812      	ldrh	r2, [r2, #0]
    1222:	f643 71ec 	movw	r1, #16364	; 0x3fec
    1226:	428a      	cmp	r2, r1
    1228:	d001      	beq.n	122e <mem_trim+0x92>
    122a:	4413      	add	r3, r2
    122c:	805c      	strh	r4, [r3, #2]
    122e:	481b      	ldr	r0, [pc, #108]	; (129c <mem_trim+0x100>)
    1230:	f003 fca4 	bl	4b7c <sys_mutex_unlock>
    1234:	4628      	mov	r0, r5
    1236:	e8bd 81f0 	ldmia.w	sp!, {r4, r5, r6, r7, r8, pc}
    123a:	4e16      	ldr	r6, [pc, #88]	; (1294 <mem_trim+0xf8>)
    123c:	240c      	movs	r4, #12
    123e:	6833      	ldr	r3, [r6, #0]
    1240:	42ab      	cmp	r3, r5
    1242:	d9bc      	bls.n	11be <mem_trim+0x22>
    1244:	f003 fcbe 	bl	4bc4 <sys_arch_protect>
    1248:	f003 fcce 	bl	4be8 <sys_arch_unprotect>
    124c:	4628      	mov	r0, r5
    124e:	e8bd 81f0 	ldmia.w	sp!, {r4, r5, r6, r7, r8, pc}
    1252:	f104 0114 	add.w	r1, r4, #20
    1256:	42b9      	cmp	r1, r7
    1258:	d8e9      	bhi.n	122e <mem_trim+0x92>
    125a:	4811      	ldr	r0, [pc, #68]	; (12a0 <mem_trim+0x104>)
    125c:	f108 0108 	add.w	r1, r8, #8
    1260:	440c      	add	r4, r1
    1262:	b2a4      	uxth	r4, r4
    1264:	6806      	ldr	r6, [r0, #0]
    1266:	1919      	adds	r1, r3, r4
    1268:	42b1      	cmp	r1, r6
    126a:	bf38      	it	cc
    126c:	6001      	strcc	r1, [r0, #0]
    126e:	2000      	movs	r0, #0
    1270:	7108      	strb	r0, [r1, #4]
    1272:	531a      	strh	r2, [r3, r4]
    1274:	f8a1 8002 	strh.w	r8, [r1, #2]
    1278:	f825 4c08 	strh.w	r4, [r5, #-8]
    127c:	5b1a      	ldrh	r2, [r3, r4]
    127e:	f643 71ec 	movw	r1, #16364	; 0x3fec
    1282:	428a      	cmp	r2, r1
    1284:	d1d1      	bne.n	122a <mem_trim+0x8e>
    1286:	e7d2      	b.n	122e <mem_trim+0x92>
    1288:	2000      	movs	r0, #0
    128a:	e8bd 81f0 	ldmia.w	sp!, {r4, r5, r6, r7, r8, pc}
    128e:	4628      	mov	r0, r5
    1290:	e8bd 81f0 	ldmia.w	sp!, {r4, r5, r6, r7, r8, pc}
    1294:	100002cc 	.word	0x100002cc
    1298:	100002b4 	.word	0x100002b4
    129c:	100002b8 	.word	0x100002b8
    12a0:	100002b0 	.word	0x100002b0

000012a4 <mem_malloc>:
    12a4:	e92d 41f0 	stmdb	sp!, {r4, r5, r6, r7, r8, lr}
    12a8:	b378      	cbz	r0, 130a <mem_malloc+0x66>
    12aa:	3003      	adds	r0, #3
    12ac:	f64f 77fc 	movw	r7, #65532	; 0xfffc
    12b0:	4007      	ands	r7, r0
    12b2:	2f0b      	cmp	r7, #11
    12b4:	d92b      	bls.n	130e <mem_malloc+0x6a>
    12b6:	f643 73ec 	movw	r3, #16364	; 0x3fec
    12ba:	429f      	cmp	r7, r3
    12bc:	d824      	bhi.n	1308 <mem_malloc+0x64>
    12be:	f5c7 557f 	rsb	r5, r7, #16320	; 0x3fc0
    12c2:	352c      	adds	r5, #44	; 0x2c
    12c4:	4833      	ldr	r0, [pc, #204]	; (1394 <mem_malloc+0xf0>)
    12c6:	f003 fc49 	bl	4b5c <sys_mutex_lock>
    12ca:	f8df 80d0 	ldr.w	r8, [pc, #208]	; 139c <mem_malloc+0xf8>
    12ce:	f8df c0d0 	ldr.w	r12, [pc, #208]	; 13a0 <mem_malloc+0xfc>
    12d2:	f8d8 2000 	ldr.w	r2, [r8]
    12d6:	f8dc e000 	ldr.w	lr, [r12]
    12da:	ebc2 030e 	rsb	r3, r2, lr
    12de:	b29b      	uxth	r3, r3
    12e0:	42ab      	cmp	r3, r5
    12e2:	da0b      	bge.n	12fc <mem_malloc+0x58>
    12e4:	18d4      	adds	r4, r2, r3
    12e6:	7921      	ldrb	r1, [r4, #4]
    12e8:	b9a9      	cbnz	r1, 1316 <mem_malloc+0x72>
    12ea:	5ad0      	ldrh	r0, [r2, r3]
    12ec:	f1a0 0608 	sub.w	r6, r0, #8
    12f0:	1af6      	subs	r6, r6, r3
    12f2:	42be      	cmp	r6, r7
    12f4:	d211      	bcs.n	131a <mem_malloc+0x76>
    12f6:	4603      	mov	r3, r0
    12f8:	42ab      	cmp	r3, r5
    12fa:	dbf3      	blt.n	12e4 <mem_malloc+0x40>
    12fc:	4825      	ldr	r0, [pc, #148]	; (1394 <mem_malloc+0xf0>)
    12fe:	f003 fc3d 	bl	4b7c <sys_mutex_unlock>
    1302:	2000      	movs	r0, #0
    1304:	e8bd 81f0 	ldmia.w	sp!, {r4, r5, r6, r7, r8, pc}
    1308:	2000      	movs	r0, #0
    130a:	e8bd 81f0 	ldmia.w	sp!, {r4, r5, r6, r7, r8, pc}
    130e:	f643 75e0 	movw	r5, #16352	; 0x3fe0
    1312:	270c      	movs	r7, #12
    1314:	e7d6      	b.n	12c4 <mem_malloc+0x20>
    1316:	5ad3      	ldrh	r3, [r2, r3]
    1318:	e7e2      	b.n	12e0 <mem_malloc+0x3c>
    131a:	f107 0514 	add.w	r5, r7, #20
    131e:	42b5      	cmp	r5, r6
    1320:	d90a      	bls.n	1338 <mem_malloc+0x94>
    1322:	2301      	movs	r3, #1
    1324:	7123      	strb	r3, [r4, #4]
    1326:	45a6      	cmp	lr, r4
    1328:	d019      	beq.n	135e <mem_malloc+0xba>
    132a:	481a      	ldr	r0, [pc, #104]	; (1394 <mem_malloc+0xf0>)
    132c:	f003 fc26 	bl	4b7c <sys_mutex_unlock>
    1330:	f104 0008 	add.w	r0, r4, #8
    1334:	e8bd 81f0 	ldmia.w	sp!, {r4, r5, r6, r7, r8, pc}
    1338:	f107 0508 	add.w	r5, r7, #8
    133c:	441d      	add	r5, r3
    133e:	b2ad      	uxth	r5, r5
    1340:	1956      	adds	r6, r2, r5
    1342:	7131      	strb	r1, [r6, #4]
    1344:	5350      	strh	r0, [r2, r5]
    1346:	8073      	strh	r3, [r6, #2]
    1348:	8025      	strh	r5, [r4, #0]
    134a:	5b53      	ldrh	r3, [r2, r5]
    134c:	f643 71ec 	movw	r1, #16364	; 0x3fec
    1350:	2001      	movs	r0, #1
    1352:	428b      	cmp	r3, r1
    1354:	7120      	strb	r0, [r4, #4]
    1356:	d0e6      	beq.n	1326 <mem_malloc+0x82>
    1358:	4413      	add	r3, r2
    135a:	805d      	strh	r5, [r3, #2]
    135c:	e7e3      	b.n	1326 <mem_malloc+0x82>
    135e:	f89e 3004 	ldrb.w	r3, [lr, #4]
    1362:	2b00      	cmp	r3, #0
    1364:	d0e1      	beq.n	132a <mem_malloc+0x86>
    1366:	4b0c      	ldr	r3, [pc, #48]	; (1398 <mem_malloc+0xf4>)
    1368:	6819      	ldr	r1, [r3, #0]
    136a:	458e      	cmp	lr, r1
    136c:	d0dd      	beq.n	132a <mem_malloc+0x86>
    136e:	f8d8 0000 	ldr.w	r0, [r8]
    1372:	e001      	b.n	1378 <mem_malloc+0xd4>
    1374:	428b      	cmp	r3, r1
    1376:	d009      	beq.n	138c <mem_malloc+0xe8>
    1378:	f8be 3000 	ldrh.w	r3, [lr]
    137c:	4403      	add	r3, r0
    137e:	791a      	ldrb	r2, [r3, #4]
    1380:	469e      	mov	lr, r3
    1382:	2a00      	cmp	r2, #0
    1384:	d1f6      	bne.n	1374 <mem_malloc+0xd0>
    1386:	f8cc 3000 	str.w	r3, [r12]
    138a:	e7ce      	b.n	132a <mem_malloc+0x86>
    138c:	f8cc 1000 	str.w	r1, [r12]
    1390:	e7cb      	b.n	132a <mem_malloc+0x86>
    1392:	bf00      	nop
    1394:	100002b8 	.word	0x100002b8
    1398:	100002b4 	.word	0x100002b4
    139c:	100002cc 	.word	0x100002cc
    13a0:	100002b0 	.word	0x100002b0

000013a4 <memp_init>:
    13a4:	4b19      	ldr	r3, [pc, #100]	; (140c <memp_init+0x68>)
    13a6:	f8df c068 	ldr.w	r12, [pc, #104]	; 1410 <memp_init+0x6c>
    13aa:	e92d 0ff0 	stmdb	sp!, {r4, r5, r6, r7, r8, r9, r10, r11}
    13ae:	f8df b064 	ldr.w	r11, [pc, #100]	; 1414 <memp_init+0x70>
    13b2:	f8df 9064 	ldr.w	r9, [pc, #100]	; 1418 <memp_init+0x74>
    13b6:	2700      	movs	r7, #0
    13b8:	f023 0803 	bic.w	r8, r3, #3
    13bc:	f10c 0a3c 	add.w	r10, r12, #60	; 0x3c
    13c0:	f83b 6007 	ldrh.w	r6, [r11, r7]
    13c4:	2300      	movs	r3, #0
    13c6:	f84c 3b04 	str.w	r3, [r12], #4
    13ca:	b1be      	cbz	r6, 13fc <memp_init+0x58>
    13cc:	461a      	mov	r2, r3
    13ce:	4618      	mov	r0, r3
    13d0:	f837 5009 	ldrh.w	r5, [r7, r9]
    13d4:	4643      	mov	r3, r8
    13d6:	e001      	b.n	13dc <memp_init+0x38>
    13d8:	4618      	mov	r0, r3
    13da:	4623      	mov	r3, r4
    13dc:	3201      	adds	r2, #1
    13de:	b291      	uxth	r1, r2
    13e0:	428e      	cmp	r6, r1
    13e2:	6018      	str	r0, [r3, #0]
    13e4:	eb03 0405 	add.w	r4, r3, r5
    13e8:	d8f6      	bhi.n	13d8 <memp_init+0x34>
    13ea:	3e01      	subs	r6, #1
    13ec:	b2b6      	uxth	r6, r6
    13ee:	fb06 5305 	mla	r3, r6, r5, r5
    13f2:	fb05 8506 	mla	r5, r5, r6, r8
    13f6:	4498      	add	r8, r3
    13f8:	f84c 5c04 	str.w	r5, [r12, #-4]
    13fc:	45d4      	cmp	r12, r10
    13fe:	f107 0702 	add.w	r7, r7, #2
    1402:	d1dd      	bne.n	13c0 <memp_init+0x1c>
    1404:	e8bd 0ff0 	ldmia.w	sp!, {r4, r5, r6, r7, r8, r9, r10, r11}
    1408:	4770      	bx	lr
    140a:	bf00      	nop
    140c:	20080003 	.word	0x20080003
    1410:	100002d0 	.word	0x100002d0
    1414:	0000d9c0 	.word	0x0000d9c0
    1418:	0000d9e0 	.word	0x0000d9e0

0000141c <memp_malloc>:
    141c:	280e      	cmp	r0, #14
    141e:	b538      	push	{r3, r4, r5, lr}
    1420:	4604      	mov	r4, r0
    1422:	d80c      	bhi.n	143e <memp_malloc+0x22>
    1424:	f003 fbce 	bl	4bc4 <sys_arch_protect>
    1428:	4b06      	ldr	r3, [pc, #24]	; (1444 <memp_malloc+0x28>)
    142a:	f853 5024 	ldr.w	r5, [r3, r4, lsl #2]
    142e:	b115      	cbz	r5, 1436 <memp_malloc+0x1a>
    1430:	682a      	ldr	r2, [r5, #0]
    1432:	f843 2024 	str.w	r2, [r3, r4, lsl #2]
    1436:	f003 fbd7 	bl	4be8 <sys_arch_unprotect>
    143a:	4628      	mov	r0, r5
    143c:	bd38      	pop	{r3, r4, r5, pc}
    143e:	2000      	movs	r0, #0
    1440:	bd38      	pop	{r3, r4, r5, pc}
    1442:	bf00      	nop
    1444:	100002d0 	.word	0x100002d0

00001448 <memp_free>:
    1448:	b538      	push	{r3, r4, r5, lr}
    144a:	460c      	mov	r4, r1
    144c:	4605      	mov	r5, r0
    144e:	b159      	cbz	r1, 1468 <memp_free+0x20>
    1450:	f003 fbb8 	bl	4bc4 <sys_arch_protect>
    1454:	4b05      	ldr	r3, [pc, #20]	; (146c <memp_free+0x24>)
    1456:	f853 2025 	ldr.w	r2, [r3, r5, lsl #2]
    145a:	6022      	str	r2, [r4, #0]
    145c:	f843 4025 	str.w	r4, [r3, r5, lsl #2]
    1460:	e8bd 4038 	ldmia.w	sp!, {r3, r4, r5, lr}
    1464:	f003 bbc0 	b.w	4be8 <sys_arch_unprotect>
    1468:	bd38      	pop	{r3, r4, r5, pc}
    146a:	bf00      	nop
    146c:	100002d0 	.word	0x100002d0

00001470 <netif_init>:
    1470:	4770      	bx	lr
    1472:	bf00      	nop

00001474 <netif_set_ipaddr>:
    1474:	b570      	push	{r4, r5, r6, lr}
    1476:	4e19      	ldr	r6, [pc, #100]	; (14dc <netif_set_ipaddr+0x68>)
    1478:	6842      	ldr	r2, [r0, #4]
    147a:	2900      	cmp	r1, #0
    147c:	bf18      	it	ne
    147e:	460e      	movne	r6, r1
    1480:	6833      	ldr	r3, [r6, #0]
    1482:	4605      	mov	r5, r0
    1484:	4293      	cmp	r3, r2
    1486:	d023      	beq.n	14d0 <netif_set_ipaddr+0x5c>
    1488:	4b15      	ldr	r3, [pc, #84]	; (14e0 <netif_set_ipaddr+0x6c>)
    148a:	6818      	ldr	r0, [r3, #0]
    148c:	b170      	cbz	r0, 14ac <netif_set_ipaddr+0x38>
    148e:	6804      	ldr	r4, [r0, #0]
    1490:	42a2      	cmp	r2, r4
    1492:	d005      	beq.n	14a0 <netif_set_ipaddr+0x2c>
    1494:	68c0      	ldr	r0, [r0, #12]
    1496:	b148      	cbz	r0, 14ac <netif_set_ipaddr+0x38>
    1498:	686a      	ldr	r2, [r5, #4]
    149a:	6804      	ldr	r4, [r0, #0]
    149c:	42a2      	cmp	r2, r4
    149e:	d1f9      	bne.n	1494 <netif_set_ipaddr+0x20>
    14a0:	68c4      	ldr	r4, [r0, #12]
    14a2:	f000 fecd 	bl	2240 <tcp_abort>
    14a6:	4620      	mov	r0, r4
    14a8:	2800      	cmp	r0, #0
    14aa:	d1f5      	bne.n	1498 <netif_set_ipaddr+0x24>
    14ac:	4b0d      	ldr	r3, [pc, #52]	; (14e4 <netif_set_ipaddr+0x70>)
    14ae:	681b      	ldr	r3, [r3, #0]
    14b0:	b913      	cbnz	r3, 14b8 <netif_set_ipaddr+0x44>
    14b2:	e00d      	b.n	14d0 <netif_set_ipaddr+0x5c>
    14b4:	68db      	ldr	r3, [r3, #12]
    14b6:	b15b      	cbz	r3, 14d0 <netif_set_ipaddr+0x5c>
    14b8:	681a      	ldr	r2, [r3, #0]
    14ba:	2a00      	cmp	r2, #0
    14bc:	d0fa      	beq.n	14b4 <netif_set_ipaddr+0x40>
    14be:	6868      	ldr	r0, [r5, #4]
    14c0:	4282      	cmp	r2, r0
    14c2:	d1f7      	bne.n	14b4 <netif_set_ipaddr+0x40>
    14c4:	b146      	cbz	r6, 14d8 <netif_set_ipaddr+0x64>
    14c6:	6832      	ldr	r2, [r6, #0]
    14c8:	601a      	str	r2, [r3, #0]
    14ca:	68db      	ldr	r3, [r3, #12]
    14cc:	2b00      	cmp	r3, #0
    14ce:	d1f3      	bne.n	14b8 <netif_set_ipaddr+0x44>
    14d0:	b106      	cbz	r6, 14d4 <netif_set_ipaddr+0x60>
    14d2:	6836      	ldr	r6, [r6, #0]
    14d4:	606e      	str	r6, [r5, #4]
    14d6:	bd70      	pop	{r4, r5, r6, pc}
    14d8:	4632      	mov	r2, r6
    14da:	e7f5      	b.n	14c8 <netif_set_ipaddr+0x54>
    14dc:	0000da2c 	.word	0x0000da2c
    14e0:	10000fbc 	.word	0x10000fbc
    14e4:	10000fc4 	.word	0x10000fc4

000014e8 <netif_add>:
    14e8:	b5f8      	push	{r3, r4, r5, r6, r7, lr}
    14ea:	4f1c      	ldr	r7, [pc, #112]	; (155c <netif_add+0x74>)
    14ec:	4616      	mov	r6, r2
    14ee:	9a06      	ldr	r2, [sp, #24]
    14f0:	f897 c000 	ldrb.w	r12, [r7]
    14f4:	6242      	str	r2, [r0, #36]	; 0x24
    14f6:	9a08      	ldr	r2, [sp, #32]
    14f8:	2500      	movs	r5, #0
    14fa:	f10c 0e01 	add.w	lr, r12, #1
    14fe:	6045      	str	r5, [r0, #4]
    1500:	6085      	str	r5, [r0, #8]
    1502:	60c5      	str	r5, [r0, #12]
    1504:	f880 5039 	strb.w	r5, [r0, #57]	; 0x39
    1508:	6285      	str	r5, [r0, #40]	; 0x28
    150a:	61c5      	str	r5, [r0, #28]
    150c:	6205      	str	r5, [r0, #32]
    150e:	6405      	str	r5, [r0, #64]	; 0x40
    1510:	f880 c03c 	strb.w	r12, [r0, #60]	; 0x3c
    1514:	6102      	str	r2, [r0, #16]
    1516:	f887 e000 	strb.w	lr, [r7]
    151a:	4604      	mov	r4, r0
    151c:	461d      	mov	r5, r3
    151e:	9f07      	ldr	r7, [sp, #28]
    1520:	f7ff ffa8 	bl	1474 <netif_set_ipaddr>
    1524:	b18e      	cbz	r6, 154a <netif_add+0x62>
    1526:	6833      	ldr	r3, [r6, #0]
    1528:	60a3      	str	r3, [r4, #8]
    152a:	b105      	cbz	r5, 152e <netif_add+0x46>
    152c:	682d      	ldr	r5, [r5, #0]
    152e:	60e5      	str	r5, [r4, #12]
    1530:	4620      	mov	r0, r4
    1532:	47b8      	blx	r7
    1534:	b978      	cbnz	r0, 1556 <netif_add+0x6e>
    1536:	4b0a      	ldr	r3, [pc, #40]	; (1560 <netif_add+0x78>)
    1538:	f994 1039 	ldrsb.w	r1, [r4, #57]	; 0x39
    153c:	681a      	ldr	r2, [r3, #0]
    153e:	2900      	cmp	r1, #0
    1540:	6022      	str	r2, [r4, #0]
    1542:	4620      	mov	r0, r4
    1544:	601c      	str	r4, [r3, #0]
    1546:	db02      	blt.n	154e <netif_add+0x66>
    1548:	bdf8      	pop	{r3, r4, r5, r6, r7, pc}
    154a:	4633      	mov	r3, r6
    154c:	e7ec      	b.n	1528 <netif_add+0x40>
    154e:	f001 fee5 	bl	331c <igmp_start>
    1552:	4620      	mov	r0, r4
    1554:	bdf8      	pop	{r3, r4, r5, r6, r7, pc}
    1556:	2000      	movs	r0, #0
    1558:	bdf8      	pop	{r3, r4, r5, r6, r7, pc}
    155a:	bf00      	nop
    155c:	1000030c 	.word	0x1000030c
    1560:	10000fb4 	.word	0x10000fb4

00001564 <netif_set_gw>:
    1564:	b101      	cbz	r1, 1568 <netif_set_gw+0x4>
    1566:	6809      	ldr	r1, [r1, #0]
    1568:	60c1      	str	r1, [r0, #12]
    156a:	4770      	bx	lr

0000156c <netif_set_netmask>:
    156c:	b101      	cbz	r1, 1570 <netif_set_netmask+0x4>
    156e:	6809      	ldr	r1, [r1, #0]
    1570:	6081      	str	r1, [r0, #8]
    1572:	4770      	bx	lr

00001574 <netif_set_default>:
    1574:	4b01      	ldr	r3, [pc, #4]	; (157c <netif_set_default+0x8>)
    1576:	6018      	str	r0, [r3, #0]
    1578:	4770      	bx	lr
    157a:	bf00      	nop
    157c:	10000fb8 	.word	0x10000fb8

00001580 <netif_set_up>:
    1580:	b510      	push	{r4, lr}
    1582:	f890 3039 	ldrb.w	r3, [r0, #57]	; 0x39
    1586:	4604      	mov	r4, r0
    1588:	07da      	lsls	r2, r3, #31
    158a:	d40e      	bmi.n	15aa <netif_set_up+0x2a>
    158c:	69c2      	ldr	r2, [r0, #28]
    158e:	f043 0301 	orr.w	r3, r3, #1
    1592:	f880 3039 	strb.w	r3, [r0, #57]	; 0x39
    1596:	b112      	cbz	r2, 159e <netif_set_up+0x1e>
    1598:	4790      	blx	r2
    159a:	f894 3039 	ldrb.w	r3, [r4, #57]	; 0x39
    159e:	06d9      	lsls	r1, r3, #27
    15a0:	d503      	bpl.n	15aa <netif_set_up+0x2a>
    15a2:	069a      	lsls	r2, r3, #26
    15a4:	d407      	bmi.n	15b6 <netif_set_up+0x36>
    15a6:	061b      	lsls	r3, r3, #24
    15a8:	d400      	bmi.n	15ac <netif_set_up+0x2c>
    15aa:	bd10      	pop	{r4, pc}
    15ac:	4620      	mov	r0, r4
    15ae:	e8bd 4010 	ldmia.w	sp!, {r4, lr}
    15b2:	f001 becf 	b.w	3354 <igmp_report_groups>
    15b6:	4620      	mov	r0, r4
    15b8:	1d21      	adds	r1, r4, #4
    15ba:	f002 ff43 	bl	4444 <etharp_request>
    15be:	f894 3039 	ldrb.w	r3, [r4, #57]	; 0x39
    15c2:	e7f0      	b.n	15a6 <netif_set_up+0x26>

000015c4 <netif_set_down>:
    15c4:	f890 2039 	ldrb.w	r2, [r0, #57]	; 0x39
    15c8:	b508      	push	{r3, lr}
    15ca:	07d1      	lsls	r1, r2, #31
    15cc:	d506      	bpl.n	15dc <netif_set_down+0x18>
    15ce:	69c1      	ldr	r1, [r0, #28]
    15d0:	f022 0201 	bic.w	r2, r2, #1
    15d4:	f880 2039 	strb.w	r2, [r0, #57]	; 0x39
    15d8:	b101      	cbz	r1, 15dc <netif_set_down+0x18>
    15da:	4788      	blx	r1
    15dc:	bd08      	pop	{r3, pc}
    15de:	bf00      	nop

000015e0 <netif_set_status_callback>:
    15e0:	b100      	cbz	r0, 15e4 <netif_set_status_callback+0x4>
    15e2:	61c1      	str	r1, [r0, #28]
    15e4:	4770      	bx	lr
    15e6:	bf00      	nop

000015e8 <netif_set_link_up>:
    15e8:	b510      	push	{r4, lr}
    15ea:	f890 3039 	ldrb.w	r3, [r0, #57]	; 0x39
    15ee:	4604      	mov	r4, r0
    15f0:	06da      	lsls	r2, r3, #27
    15f2:	d413      	bmi.n	161c <netif_set_link_up+0x34>
    15f4:	6a82      	ldr	r2, [r0, #40]	; 0x28
    15f6:	f043 0310 	orr.w	r3, r3, #16
    15fa:	f880 3039 	strb.w	r3, [r0, #57]	; 0x39
    15fe:	b11a      	cbz	r2, 1608 <netif_set_link_up+0x20>
    1600:	f005 f8b6 	bl	6770 <dhcp_network_changed>
    1604:	f894 3039 	ldrb.w	r3, [r4, #57]	; 0x39
    1608:	07d9      	lsls	r1, r3, #31
    160a:	d503      	bpl.n	1614 <netif_set_link_up+0x2c>
    160c:	069a      	lsls	r2, r3, #26
    160e:	d406      	bmi.n	161e <netif_set_link_up+0x36>
    1610:	061b      	lsls	r3, r3, #24
    1612:	d40b      	bmi.n	162c <netif_set_link_up+0x44>
    1614:	6a23      	ldr	r3, [r4, #32]
    1616:	b10b      	cbz	r3, 161c <netif_set_link_up+0x34>
    1618:	4620      	mov	r0, r4
    161a:	4798      	blx	r3
    161c:	bd10      	pop	{r4, pc}
    161e:	4620      	mov	r0, r4
    1620:	1d21      	adds	r1, r4, #4
    1622:	f002 ff0f 	bl	4444 <etharp_request>
    1626:	f894 3039 	ldrb.w	r3, [r4, #57]	; 0x39
    162a:	e7f1      	b.n	1610 <netif_set_link_up+0x28>
    162c:	4620      	mov	r0, r4
    162e:	f001 fe91 	bl	3354 <igmp_report_groups>
    1632:	e7ef      	b.n	1614 <netif_set_link_up+0x2c>

00001634 <netif_set_link_down>:
    1634:	f890 2039 	ldrb.w	r2, [r0, #57]	; 0x39
    1638:	b508      	push	{r3, lr}
    163a:	06d1      	lsls	r1, r2, #27
    163c:	d506      	bpl.n	164c <netif_set_link_down+0x18>
    163e:	6a01      	ldr	r1, [r0, #32]
    1640:	f022 0210 	bic.w	r2, r2, #16
    1644:	f880 2039 	strb.w	r2, [r0, #57]	; 0x39
    1648:	b101      	cbz	r1, 164c <netif_set_link_down+0x18>
    164a:	4788      	blx	r1
    164c:	bd08      	pop	{r3, pc}
    164e:	bf00      	nop

00001650 <netif_set_link_callback>:
    1650:	b100      	cbz	r0, 1654 <netif_set_link_callback+0x4>
    1652:	6201      	str	r1, [r0, #32]
    1654:	4770      	bx	lr
    1656:	bf00      	nop

00001658 <pbuf_alloced_custom>:
    1658:	b470      	push	{r4, r5, r6}
    165a:	9c03      	ldr	r4, [sp, #12]
    165c:	f8bd 5010 	ldrh.w	r5, [sp, #16]
    1660:	2803      	cmp	r0, #3
    1662:	d823      	bhi.n	16ac <pbuf_alloced_custom+0x54>
    1664:	e8df f000 	tbb	[pc, r0]
    1668:	02171d1a 	.word	0x02171d1a
    166c:	2000      	movs	r0, #0
    166e:	4606      	mov	r6, r0
    1670:	4408      	add	r0, r1
    1672:	42a8      	cmp	r0, r5
    1674:	f04f 0000 	mov.w	r0, #0
    1678:	db0b      	blt.n	1692 <pbuf_alloced_custom+0x3a>
    167a:	6018      	str	r0, [r3, #0]
    167c:	b1a4      	cbz	r4, 16a8 <pbuf_alloced_custom+0x50>
    167e:	4434      	add	r4, r6
    1680:	605c      	str	r4, [r3, #4]
    1682:	2001      	movs	r0, #1
    1684:	2402      	movs	r4, #2
    1686:	81d8      	strh	r0, [r3, #14]
    1688:	8119      	strh	r1, [r3, #8]
    168a:	8159      	strh	r1, [r3, #10]
    168c:	731a      	strb	r2, [r3, #12]
    168e:	735c      	strb	r4, [r3, #13]
    1690:	4618      	mov	r0, r3
    1692:	bc70      	pop	{r4, r5, r6}
    1694:	4770      	bx	lr
    1696:	2010      	movs	r0, #16
    1698:	260e      	movs	r6, #14
    169a:	e7e9      	b.n	1670 <pbuf_alloced_custom+0x18>
    169c:	2038      	movs	r0, #56	; 0x38
    169e:	2636      	movs	r6, #54	; 0x36
    16a0:	e7e6      	b.n	1670 <pbuf_alloced_custom+0x18>
    16a2:	2024      	movs	r0, #36	; 0x24
    16a4:	2622      	movs	r6, #34	; 0x22
    16a6:	e7e3      	b.n	1670 <pbuf_alloced_custom+0x18>
    16a8:	605c      	str	r4, [r3, #4]
    16aa:	e7ea      	b.n	1682 <pbuf_alloced_custom+0x2a>
    16ac:	2000      	movs	r0, #0
    16ae:	e7f0      	b.n	1692 <pbuf_alloced_custom+0x3a>

000016b0 <pbuf_header>:
    16b0:	b410      	push	{r4}
    16b2:	b1e1      	cbz	r1, 16ee <pbuf_header+0x3e>
    16b4:	b158      	cbz	r0, 16ce <pbuf_header+0x1e>
    16b6:	2900      	cmp	r1, #0
    16b8:	db1d      	blt.n	16f6 <pbuf_header+0x46>
    16ba:	b28c      	uxth	r4, r1
    16bc:	7b03      	ldrb	r3, [r0, #12]
    16be:	6842      	ldr	r2, [r0, #4]
    16c0:	b143      	cbz	r3, 16d4 <pbuf_header+0x24>
    16c2:	2b03      	cmp	r3, #3
    16c4:	d006      	beq.n	16d4 <pbuf_header+0x24>
    16c6:	3b01      	subs	r3, #1
    16c8:	2b01      	cmp	r3, #1
    16ca:	d91f      	bls.n	170c <pbuf_header+0x5c>
    16cc:	2001      	movs	r0, #1
    16ce:	f85d 4b04 	ldr.w	r4, [sp], #4
    16d2:	4770      	bx	lr
    16d4:	1a53      	subs	r3, r2, r1
    16d6:	f100 0410 	add.w	r4, r0, #16
    16da:	42a3      	cmp	r3, r4
    16dc:	6043      	str	r3, [r0, #4]
    16de:	d310      	bcc.n	1702 <pbuf_header+0x52>
    16e0:	8943      	ldrh	r3, [r0, #10]
    16e2:	8902      	ldrh	r2, [r0, #8]
    16e4:	b289      	uxth	r1, r1
    16e6:	440b      	add	r3, r1
    16e8:	4411      	add	r1, r2
    16ea:	8143      	strh	r3, [r0, #10]
    16ec:	8101      	strh	r1, [r0, #8]
    16ee:	2000      	movs	r0, #0
    16f0:	f85d 4b04 	ldr.w	r4, [sp], #4
    16f4:	4770      	bx	lr
    16f6:	424c      	negs	r4, r1
    16f8:	8943      	ldrh	r3, [r0, #10]
    16fa:	b2a4      	uxth	r4, r4
    16fc:	42a3      	cmp	r3, r4
    16fe:	d2dd      	bcs.n	16bc <pbuf_header+0xc>
    1700:	e7e4      	b.n	16cc <pbuf_header+0x1c>
    1702:	6042      	str	r2, [r0, #4]
    1704:	f85d 4b04 	ldr.w	r4, [sp], #4
    1708:	2001      	movs	r0, #1
    170a:	4770      	bx	lr
    170c:	2900      	cmp	r1, #0
    170e:	dadd      	bge.n	16cc <pbuf_header+0x1c>
    1710:	8943      	ldrh	r3, [r0, #10]
    1712:	429c      	cmp	r4, r3
    1714:	d8da      	bhi.n	16cc <pbuf_header+0x1c>
    1716:	1a52      	subs	r2, r2, r1
    1718:	6042      	str	r2, [r0, #4]
    171a:	e7e2      	b.n	16e2 <pbuf_header+0x32>

0000171c <pbuf_free>:
    171c:	b570      	push	{r4, r5, r6, lr}
    171e:	4604      	mov	r4, r0
    1720:	2800      	cmp	r0, #0
    1722:	d02f      	beq.n	1784 <pbuf_free+0x68>
    1724:	2600      	movs	r6, #0
    1726:	f003 fa4d 	bl	4bc4 <sys_arch_protect>
    172a:	89e5      	ldrh	r5, [r4, #14]
    172c:	3d01      	subs	r5, #1
    172e:	b2ad      	uxth	r5, r5
    1730:	81e5      	strh	r5, [r4, #14]
    1732:	f003 fa59 	bl	4be8 <sys_arch_unprotect>
    1736:	b9cd      	cbnz	r5, 176c <pbuf_free+0x50>
    1738:	7b62      	ldrb	r2, [r4, #13]
    173a:	7b23      	ldrb	r3, [r4, #12]
    173c:	f012 0f02 	tst.w	r2, #2
    1740:	6825      	ldr	r5, [r4, #0]
    1742:	f103 32ff 	add.w	r2, r3, #4294967295	; 0xffffffff
    1746:	4620      	mov	r0, r4
    1748:	d10a      	bne.n	1760 <pbuf_free+0x44>
    174a:	2b03      	cmp	r3, #3
    174c:	d015      	beq.n	177a <pbuf_free+0x5e>
    174e:	2a01      	cmp	r2, #1
    1750:	d90e      	bls.n	1770 <pbuf_free+0x54>
    1752:	f7ff fcc9 	bl	10e8 <mem_free>
    1756:	3601      	adds	r6, #1
    1758:	b2f6      	uxtb	r6, r6
    175a:	b13d      	cbz	r5, 176c <pbuf_free+0x50>
    175c:	462c      	mov	r4, r5
    175e:	e7e2      	b.n	1726 <pbuf_free+0xa>
    1760:	6923      	ldr	r3, [r4, #16]
    1762:	3601      	adds	r6, #1
    1764:	4798      	blx	r3
    1766:	b2f6      	uxtb	r6, r6
    1768:	2d00      	cmp	r5, #0
    176a:	d1f7      	bne.n	175c <pbuf_free+0x40>
    176c:	4630      	mov	r0, r6
    176e:	bd70      	pop	{r4, r5, r6, pc}
    1770:	4621      	mov	r1, r4
    1772:	200d      	movs	r0, #13
    1774:	f7ff fe68 	bl	1448 <memp_free>
    1778:	e7ed      	b.n	1756 <pbuf_free+0x3a>
    177a:	4621      	mov	r1, r4
    177c:	200e      	movs	r0, #14
    177e:	f7ff fe63 	bl	1448 <memp_free>
    1782:	e7e8      	b.n	1756 <pbuf_free+0x3a>
    1784:	bd70      	pop	{r4, r5, r6, pc}
    1786:	bf00      	nop

00001788 <pbuf_alloc>:
    1788:	e92d 41f0 	stmdb	sp!, {r4, r5, r6, r7, r8, lr}
    178c:	460c      	mov	r4, r1
    178e:	b082      	sub	sp, #8
    1790:	2803      	cmp	r0, #3
    1792:	f200 808b 	bhi.w	18ac <pbuf_alloc+0x124>
    1796:	e8df f000 	tbb	[pc, r0]
    179a:	8785      	.short	0x8785
    179c:	0283      	.short	0x0283
    179e:	2500      	movs	r5, #0
    17a0:	2a03      	cmp	r2, #3
    17a2:	f200 8083 	bhi.w	18ac <pbuf_alloc+0x124>
    17a6:	e8df f002 	tbb	[pc, r2]
    17aa:	4e5c      	.short	0x4e5c
    17ac:	024e      	.short	0x024e
    17ae:	200e      	movs	r0, #14
    17b0:	f7ff fe34 	bl	141c <memp_malloc>
    17b4:	4606      	mov	r6, r0
    17b6:	2800      	cmp	r0, #0
    17b8:	d078      	beq.n	18ac <pbuf_alloc+0x124>
    17ba:	1ceb      	adds	r3, r5, #3
    17bc:	f023 0303 	bic.w	r3, r3, #3
    17c0:	f5c3 63bd 	rsb	r3, r3, #1512	; 0x5e8
    17c4:	3304      	adds	r3, #4
    17c6:	1947      	adds	r7, r0, r5
    17c8:	42a3      	cmp	r3, r4
    17ca:	bfa8      	it	ge
    17cc:	4623      	movge	r3, r4
    17ce:	2100      	movs	r1, #0
    17d0:	3713      	adds	r7, #19
    17d2:	1ae5      	subs	r5, r4, r3
    17d4:	f027 0703 	bic.w	r7, r7, #3
    17d8:	2003      	movs	r0, #3
    17da:	2201      	movs	r2, #1
    17dc:	428d      	cmp	r5, r1
    17de:	8134      	strh	r4, [r6, #8]
    17e0:	8173      	strh	r3, [r6, #10]
    17e2:	6077      	str	r7, [r6, #4]
    17e4:	7330      	strb	r0, [r6, #12]
    17e6:	6031      	str	r1, [r6, #0]
    17e8:	81f2      	strh	r2, [r6, #14]
    17ea:	dd51      	ble.n	1890 <pbuf_alloc+0x108>
    17ec:	4637      	mov	r7, r6
    17ee:	e016      	b.n	181e <pbuf_alloc+0x96>
    17f0:	4563      	cmp	r3, r12
    17f2:	bf98      	it	ls
    17f4:	4619      	movls	r1, r3
    17f6:	ebc1 0505 	rsb	r5, r1, r5
    17fa:	bf88      	it	hi
    17fc:	460a      	movhi	r2, r1
    17fe:	f884 800c 	strb.w	r8, [r4, #12]
    1802:	7360      	strb	r0, [r4, #13]
    1804:	6020      	str	r0, [r4, #0]
    1806:	f104 0110 	add.w	r1, r4, #16
    180a:	603c      	str	r4, [r7, #0]
    180c:	2d00      	cmp	r5, #0
    180e:	8123      	strh	r3, [r4, #8]
    1810:	f04f 0301 	mov.w	r3, #1
    1814:	8162      	strh	r2, [r4, #10]
    1816:	6061      	str	r1, [r4, #4]
    1818:	81e3      	strh	r3, [r4, #14]
    181a:	dd39      	ble.n	1890 <pbuf_alloc+0x108>
    181c:	4627      	mov	r7, r4
    181e:	200e      	movs	r0, #14
    1820:	f7ff fdfc 	bl	141c <memp_malloc>
    1824:	b2ab      	uxth	r3, r5
    1826:	4604      	mov	r4, r0
    1828:	f04f 0803 	mov.w	r8, #3
    182c:	2000      	movs	r0, #0
    182e:	f240 5ceb 	movw	r12, #1515	; 0x5eb
    1832:	f240 51ec 	movw	r1, #1516	; 0x5ec
    1836:	461a      	mov	r2, r3
    1838:	2c00      	cmp	r4, #0
    183a:	d1d9      	bne.n	17f0 <pbuf_alloc+0x68>
    183c:	4630      	mov	r0, r6
    183e:	f7ff ff6d 	bl	171c <pbuf_free>
    1842:	4620      	mov	r0, r4
    1844:	e029      	b.n	189a <pbuf_alloc+0x112>
    1846:	200d      	movs	r0, #13
    1848:	9201      	str	r2, [sp, #4]
    184a:	f7ff fde7 	bl	141c <memp_malloc>
    184e:	9a01      	ldr	r2, [sp, #4]
    1850:	4606      	mov	r6, r0
    1852:	b358      	cbz	r0, 18ac <pbuf_alloc+0x124>
    1854:	2300      	movs	r3, #0
    1856:	8104      	strh	r4, [r0, #8]
    1858:	8144      	strh	r4, [r0, #10]
    185a:	7302      	strb	r2, [r0, #12]
    185c:	6043      	str	r3, [r0, #4]
    185e:	6003      	str	r3, [r0, #0]
    1860:	e016      	b.n	1890 <pbuf_alloc+0x108>
    1862:	f105 0013 	add.w	r0, r5, #19
    1866:	1ce3      	adds	r3, r4, #3
    1868:	f023 0303 	bic.w	r3, r3, #3
    186c:	f020 0003 	bic.w	r0, r0, #3
    1870:	4418      	add	r0, r3
    1872:	b280      	uxth	r0, r0
    1874:	f7ff fd16 	bl	12a4 <mem_malloc>
    1878:	4606      	mov	r6, r0
    187a:	b1b8      	cbz	r0, 18ac <pbuf_alloc+0x124>
    187c:	4405      	add	r5, r0
    187e:	3513      	adds	r5, #19
    1880:	2300      	movs	r3, #0
    1882:	f025 0503 	bic.w	r5, r5, #3
    1886:	6045      	str	r5, [r0, #4]
    1888:	8104      	strh	r4, [r0, #8]
    188a:	8144      	strh	r4, [r0, #10]
    188c:	6003      	str	r3, [r0, #0]
    188e:	7303      	strb	r3, [r0, #12]
    1890:	2201      	movs	r2, #1
    1892:	2300      	movs	r3, #0
    1894:	81f2      	strh	r2, [r6, #14]
    1896:	7373      	strb	r3, [r6, #13]
    1898:	4630      	mov	r0, r6
    189a:	b002      	add	sp, #8
    189c:	e8bd 81f0 	ldmia.w	sp!, {r4, r5, r6, r7, r8, pc}
    18a0:	250e      	movs	r5, #14
    18a2:	e77d      	b.n	17a0 <pbuf_alloc+0x18>
    18a4:	2536      	movs	r5, #54	; 0x36
    18a6:	e77b      	b.n	17a0 <pbuf_alloc+0x18>
    18a8:	2522      	movs	r5, #34	; 0x22
    18aa:	e779      	b.n	17a0 <pbuf_alloc+0x18>
    18ac:	2000      	movs	r0, #0
    18ae:	e7f4      	b.n	189a <pbuf_alloc+0x112>

000018b0 <pbuf_realloc>:
    18b0:	8902      	ldrh	r2, [r0, #8]
    18b2:	b538      	push	{r3, r4, r5, lr}
    18b4:	428a      	cmp	r2, r1
    18b6:	4604      	mov	r4, r0
    18b8:	460d      	mov	r5, r1
    18ba:	d922      	bls.n	1902 <pbuf_realloc+0x52>
    18bc:	8943      	ldrh	r3, [r0, #10]
    18be:	1a89      	subs	r1, r1, r2
    18c0:	429d      	cmp	r5, r3
    18c2:	d90a      	bls.n	18da <pbuf_realloc+0x2a>
    18c4:	b289      	uxth	r1, r1
    18c6:	e000      	b.n	18ca <pbuf_realloc+0x1a>
    18c8:	8922      	ldrh	r2, [r4, #8]
    18ca:	440a      	add	r2, r1
    18cc:	8122      	strh	r2, [r4, #8]
    18ce:	6824      	ldr	r4, [r4, #0]
    18d0:	1aed      	subs	r5, r5, r3
    18d2:	8963      	ldrh	r3, [r4, #10]
    18d4:	b2ad      	uxth	r5, r5
    18d6:	42ab      	cmp	r3, r5
    18d8:	d3f6      	bcc.n	18c8 <pbuf_realloc+0x18>
    18da:	7b22      	ldrb	r2, [r4, #12]
    18dc:	b94a      	cbnz	r2, 18f2 <pbuf_realloc+0x42>
    18de:	429d      	cmp	r5, r3
    18e0:	d007      	beq.n	18f2 <pbuf_realloc+0x42>
    18e2:	6863      	ldr	r3, [r4, #4]
    18e4:	4620      	mov	r0, r4
    18e6:	1b1b      	subs	r3, r3, r4
    18e8:	18e9      	adds	r1, r5, r3
    18ea:	b289      	uxth	r1, r1
    18ec:	f7ff fc56 	bl	119c <mem_trim>
    18f0:	4604      	mov	r4, r0
    18f2:	6820      	ldr	r0, [r4, #0]
    18f4:	8165      	strh	r5, [r4, #10]
    18f6:	8125      	strh	r5, [r4, #8]
    18f8:	b108      	cbz	r0, 18fe <pbuf_realloc+0x4e>
    18fa:	f7ff ff0f 	bl	171c <pbuf_free>
    18fe:	2300      	movs	r3, #0
    1900:	6023      	str	r3, [r4, #0]
    1902:	bd38      	pop	{r3, r4, r5, pc}

00001904 <pbuf_clen>:
    1904:	4603      	mov	r3, r0
    1906:	b130      	cbz	r0, 1916 <pbuf_clen+0x12>
    1908:	2000      	movs	r0, #0
    190a:	681b      	ldr	r3, [r3, #0]
    190c:	3001      	adds	r0, #1
    190e:	b2c0      	uxtb	r0, r0
    1910:	2b00      	cmp	r3, #0
    1912:	d1fa      	bne.n	190a <pbuf_clen+0x6>
    1914:	4770      	bx	lr
    1916:	4770      	bx	lr

00001918 <pbuf_ref>:
    1918:	b510      	push	{r4, lr}
    191a:	4604      	mov	r4, r0
    191c:	b140      	cbz	r0, 1930 <pbuf_ref+0x18>
    191e:	f003 f951 	bl	4bc4 <sys_arch_protect>
    1922:	89e3      	ldrh	r3, [r4, #14]
    1924:	3301      	adds	r3, #1
    1926:	81e3      	strh	r3, [r4, #14]
    1928:	e8bd 4010 	ldmia.w	sp!, {r4, lr}
    192c:	f003 b95c 	b.w	4be8 <sys_arch_unprotect>
    1930:	bd10      	pop	{r4, pc}
    1932:	bf00      	nop

00001934 <pbuf_cat>:
    1934:	b430      	push	{r4, r5}
    1936:	b188      	cbz	r0, 195c <pbuf_cat+0x28>
    1938:	b181      	cbz	r1, 195c <pbuf_cat+0x28>
    193a:	6803      	ldr	r3, [r0, #0]
    193c:	b913      	cbnz	r3, 1944 <pbuf_cat+0x10>
    193e:	e00f      	b.n	1960 <pbuf_cat+0x2c>
    1940:	4618      	mov	r0, r3
    1942:	4613      	mov	r3, r2
    1944:	890d      	ldrh	r5, [r1, #8]
    1946:	8904      	ldrh	r4, [r0, #8]
    1948:	681a      	ldr	r2, [r3, #0]
    194a:	442c      	add	r4, r5
    194c:	8104      	strh	r4, [r0, #8]
    194e:	2a00      	cmp	r2, #0
    1950:	d1f6      	bne.n	1940 <pbuf_cat+0xc>
    1952:	8908      	ldrh	r0, [r1, #8]
    1954:	891a      	ldrh	r2, [r3, #8]
    1956:	6019      	str	r1, [r3, #0]
    1958:	4402      	add	r2, r0
    195a:	811a      	strh	r2, [r3, #8]
    195c:	bc30      	pop	{r4, r5}
    195e:	4770      	bx	lr
    1960:	4603      	mov	r3, r0
    1962:	e7f6      	b.n	1952 <pbuf_cat+0x1e>

00001964 <pbuf_chain>:
    1964:	b510      	push	{r4, lr}
    1966:	460c      	mov	r4, r1
    1968:	f7ff ffe4 	bl	1934 <pbuf_cat>
    196c:	4620      	mov	r0, r4
    196e:	e8bd 4010 	ldmia.w	sp!, {r4, lr}
    1972:	f7ff bfd1 	b.w	1918 <pbuf_ref>
    1976:	bf00      	nop

00001978 <pbuf_copy>:
    1978:	e92d 41f0 	stmdb	sp!, {r4, r5, r6, r7, r8, lr}
    197c:	4605      	mov	r5, r0
    197e:	460c      	mov	r4, r1
    1980:	2800      	cmp	r0, #0
    1982:	d045      	beq.n	1a10 <pbuf_copy+0x98>
    1984:	2900      	cmp	r1, #0
    1986:	d043      	beq.n	1a10 <pbuf_copy+0x98>
    1988:	8902      	ldrh	r2, [r0, #8]
    198a:	890b      	ldrh	r3, [r1, #8]
    198c:	429a      	cmp	r2, r3
    198e:	d33f      	bcc.n	1a10 <pbuf_copy+0x98>
    1990:	2600      	movs	r6, #0
    1992:	4637      	mov	r7, r6
    1994:	896b      	ldrh	r3, [r5, #10]
    1996:	f8b4 800a 	ldrh.w	r8, [r4, #10]
    199a:	1bdb      	subs	r3, r3, r7
    199c:	ebc6 0808 	rsb	r8, r6, r8
    19a0:	4543      	cmp	r3, r8
    19a2:	6868      	ldr	r0, [r5, #4]
    19a4:	6861      	ldr	r1, [r4, #4]
    19a6:	bfb4      	ite	lt
    19a8:	fa1f f883 	uxthlt.w	r8, r3
    19ac:	fa1f f888 	uxthge.w	r8, r8
    19b0:	4438      	add	r0, r7
    19b2:	4431      	add	r1, r6
    19b4:	4642      	mov	r2, r8
    19b6:	f002 ffc7 	bl	4948 <thumb2_memcpy>
    19ba:	4447      	add	r7, r8
    19bc:	896b      	ldrh	r3, [r5, #10]
    19be:	b2bf      	uxth	r7, r7
    19c0:	42bb      	cmp	r3, r7
    19c2:	4446      	add	r6, r8
    19c4:	8963      	ldrh	r3, [r4, #10]
    19c6:	b2b6      	uxth	r6, r6
    19c8:	bf04      	itt	eq
    19ca:	682d      	ldreq	r5, [r5, #0]
    19cc:	2700      	moveq	r7, #0
    19ce:	42b3      	cmp	r3, r6
    19d0:	bf9c      	itt	ls
    19d2:	6824      	ldrls	r4, [r4, #0]
    19d4:	2600      	movls	r6, #0
    19d6:	b11c      	cbz	r4, 19e0 <pbuf_copy+0x68>
    19d8:	8962      	ldrh	r2, [r4, #10]
    19da:	8923      	ldrh	r3, [r4, #8]
    19dc:	429a      	cmp	r2, r3
    19de:	d00a      	beq.n	19f6 <pbuf_copy+0x7e>
    19e0:	b11d      	cbz	r5, 19ea <pbuf_copy+0x72>
    19e2:	896a      	ldrh	r2, [r5, #10]
    19e4:	892b      	ldrh	r3, [r5, #8]
    19e6:	429a      	cmp	r2, r3
    19e8:	d00c      	beq.n	1a04 <pbuf_copy+0x8c>
    19ea:	2c00      	cmp	r4, #0
    19ec:	d1d2      	bne.n	1994 <pbuf_copy+0x1c>
    19ee:	4620      	mov	r0, r4
    19f0:	b240      	sxtb	r0, r0
    19f2:	e8bd 81f0 	ldmia.w	sp!, {r4, r5, r6, r7, r8, pc}
    19f6:	6823      	ldr	r3, [r4, #0]
    19f8:	2b00      	cmp	r3, #0
    19fa:	d0f1      	beq.n	19e0 <pbuf_copy+0x68>
    19fc:	20fa      	movs	r0, #250	; 0xfa
    19fe:	b240      	sxtb	r0, r0
    1a00:	e8bd 81f0 	ldmia.w	sp!, {r4, r5, r6, r7, r8, pc}
    1a04:	682b      	ldr	r3, [r5, #0]
    1a06:	2b00      	cmp	r3, #0
    1a08:	d1f8      	bne.n	19fc <pbuf_copy+0x84>
    1a0a:	2c00      	cmp	r4, #0
    1a0c:	d1c2      	bne.n	1994 <pbuf_copy+0x1c>
    1a0e:	e7ee      	b.n	19ee <pbuf_copy+0x76>
    1a10:	20f2      	movs	r0, #242	; 0xf2
    1a12:	e7ed      	b.n	19f0 <pbuf_copy+0x78>

00001a14 <pbuf_copy_partial>:
    1a14:	e92d 43f8 	stmdb	sp!, {r3, r4, r5, r6, r7, r8, r9, lr}
    1a18:	4604      	mov	r4, r0
    1a1a:	4688      	mov	r8, r1
    1a1c:	4616      	mov	r6, r2
    1a1e:	b348      	cbz	r0, 1a74 <pbuf_copy_partial+0x60>
    1a20:	b351      	cbz	r1, 1a78 <pbuf_copy_partial+0x64>
    1a22:	b362      	cbz	r2, 1a7e <pbuf_copy_partial+0x6a>
    1a24:	f04f 0900 	mov.w	r9, #0
    1a28:	464f      	mov	r7, r9
    1a2a:	e006      	b.n	1a3a <pbuf_copy_partial+0x26>
    1a2c:	429d      	cmp	r5, r3
    1a2e:	d809      	bhi.n	1a44 <pbuf_copy_partial+0x30>
    1a30:	1b5b      	subs	r3, r3, r5
    1a32:	b29b      	uxth	r3, r3
    1a34:	6824      	ldr	r4, [r4, #0]
    1a36:	b1d6      	cbz	r6, 1a6e <pbuf_copy_partial+0x5a>
    1a38:	b1cc      	cbz	r4, 1a6e <pbuf_copy_partial+0x5a>
    1a3a:	eb08 0007 	add.w	r0, r8, r7
    1a3e:	8965      	ldrh	r5, [r4, #10]
    1a40:	2b00      	cmp	r3, #0
    1a42:	d1f3      	bne.n	1a2c <pbuf_copy_partial+0x18>
    1a44:	1aed      	subs	r5, r5, r3
    1a46:	b2ad      	uxth	r5, r5
    1a48:	42b5      	cmp	r5, r6
    1a4a:	bf28      	it	cs
    1a4c:	4635      	movcs	r5, r6
    1a4e:	6861      	ldr	r1, [r4, #4]
    1a50:	1b76      	subs	r6, r6, r5
    1a52:	4419      	add	r1, r3
    1a54:	462a      	mov	r2, r5
    1a56:	44a9      	add	r9, r5
    1a58:	442f      	add	r7, r5
    1a5a:	b2b6      	uxth	r6, r6
    1a5c:	f002 ff74 	bl	4948 <thumb2_memcpy>
    1a60:	fa1f f989 	uxth.w	r9, r9
    1a64:	b2bf      	uxth	r7, r7
    1a66:	2300      	movs	r3, #0
    1a68:	6824      	ldr	r4, [r4, #0]
    1a6a:	2e00      	cmp	r6, #0
    1a6c:	d1e4      	bne.n	1a38 <pbuf_copy_partial+0x24>
    1a6e:	4648      	mov	r0, r9
    1a70:	e8bd 83f8 	ldmia.w	sp!, {r3, r4, r5, r6, r7, r8, r9, pc}
    1a74:	e8bd 83f8 	ldmia.w	sp!, {r3, r4, r5, r6, r7, r8, r9, pc}
    1a78:	4608      	mov	r0, r1
    1a7a:	e8bd 83f8 	ldmia.w	sp!, {r3, r4, r5, r6, r7, r8, r9, pc}
    1a7e:	4610      	mov	r0, r2
    1a80:	e8bd 83f8 	ldmia.w	sp!, {r3, r4, r5, r6, r7, r8, r9, pc}

00001a84 <tcp_new_port>:
    1a84:	b470      	push	{r4, r5, r6}
    1a86:	4e0e      	ldr	r6, [pc, #56]	; (1ac0 <tcp_new_port+0x3c>)
    1a88:	4d0e      	ldr	r5, [pc, #56]	; (1ac4 <tcp_new_port+0x40>)
    1a8a:	8830      	ldrh	r0, [r6, #0]
    1a8c:	f64f 74ff 	movw	r4, #65535	; 0xffff
    1a90:	42a0      	cmp	r0, r4
    1a92:	bf18      	it	ne
    1a94:	3001      	addne	r0, #1
    1a96:	490c      	ldr	r1, [pc, #48]	; (1ac8 <tcp_new_port+0x44>)
    1a98:	bf14      	ite	ne
    1a9a:	b280      	uxthne	r0, r0
    1a9c:	f44f 4040 	moveq.w	r0, #49152	; 0xc000
    1aa0:	f851 3f04 	ldr.w	r3, [r1, #4]!
    1aa4:	681b      	ldr	r3, [r3, #0]
    1aa6:	b12b      	cbz	r3, 1ab4 <tcp_new_port+0x30>
    1aa8:	8b9a      	ldrh	r2, [r3, #28]
    1aaa:	4282      	cmp	r2, r0
    1aac:	d0f0      	beq.n	1a90 <tcp_new_port+0xc>
    1aae:	68db      	ldr	r3, [r3, #12]
    1ab0:	2b00      	cmp	r3, #0
    1ab2:	d1f9      	bne.n	1aa8 <tcp_new_port+0x24>
    1ab4:	42a9      	cmp	r1, r5
    1ab6:	d1f3      	bne.n	1aa0 <tcp_new_port+0x1c>
    1ab8:	8030      	strh	r0, [r6, #0]
    1aba:	bc70      	pop	{r4, r5, r6}
    1abc:	4770      	bx	lr
    1abe:	bf00      	nop
    1ac0:	100000d0 	.word	0x100000d0
    1ac4:	0000da0c 	.word	0x0000da0c
    1ac8:	0000d9fc 	.word	0x0000d9fc

00001acc <tcp_update_rcv_ann_wnd>:
    1acc:	b470      	push	{r4, r5, r6}
    1ace:	8d02      	ldrh	r2, [r0, #40]	; 0x28
    1ad0:	6ac4      	ldr	r4, [r0, #44]	; 0x2c
    1ad2:	6a41      	ldr	r1, [r0, #36]	; 0x24
    1ad4:	8f06      	ldrh	r6, [r0, #56]	; 0x38
    1ad6:	4603      	mov	r3, r0
    1ad8:	f240 55b4 	movw	r5, #1460	; 0x5b4
    1adc:	1b10      	subs	r0, r2, r4
    1ade:	42ae      	cmp	r6, r5
    1ae0:	bf38      	it	cc
    1ae2:	4635      	movcc	r5, r6
    1ae4:	4408      	add	r0, r1
    1ae6:	1b45      	subs	r5, r0, r5
    1ae8:	2d00      	cmp	r5, #0
    1aea:	db02      	blt.n	1af2 <tcp_update_rcv_ann_wnd+0x26>
    1aec:	bc70      	pop	{r4, r5, r6}
    1aee:	855a      	strh	r2, [r3, #42]	; 0x2a
    1af0:	4770      	bx	lr
    1af2:	1b0a      	subs	r2, r1, r4
    1af4:	2a00      	cmp	r2, #0
    1af6:	dd03      	ble.n	1b00 <tcp_update_rcv_ann_wnd+0x34>
    1af8:	bc70      	pop	{r4, r5, r6}
    1afa:	2000      	movs	r0, #0
    1afc:	8558      	strh	r0, [r3, #42]	; 0x2a
    1afe:	4770      	bx	lr
    1b00:	1a61      	subs	r1, r4, r1
    1b02:	2000      	movs	r0, #0
    1b04:	8559      	strh	r1, [r3, #42]	; 0x2a
    1b06:	bc70      	pop	{r4, r5, r6}
    1b08:	4770      	bx	lr
    1b0a:	bf00      	nop

00001b0c <tcp_recved>:
    1b0c:	8d02      	ldrh	r2, [r0, #40]	; 0x28
    1b0e:	f640 3368 	movw	r3, #2920	; 0xb68
    1b12:	4411      	add	r1, r2
    1b14:	b289      	uxth	r1, r1
    1b16:	4299      	cmp	r1, r3
    1b18:	b510      	push	{r4, lr}
    1b1a:	bf8c      	ite	hi
    1b1c:	8503      	strhhi	r3, [r0, #40]	; 0x28
    1b1e:	8501      	strhls	r1, [r0, #40]	; 0x28
    1b20:	4604      	mov	r4, r0
    1b22:	f7ff ffd3 	bl	1acc <tcp_update_rcv_ann_wnd>
    1b26:	f240 23d9 	movw	r3, #729	; 0x2d9
    1b2a:	4298      	cmp	r0, r3
    1b2c:	dc00      	bgt.n	1b30 <tcp_recved+0x24>
    1b2e:	bd10      	pop	{r4, pc}
    1b30:	f894 3020 	ldrb.w	r3, [r4, #32]
    1b34:	4620      	mov	r0, r4
    1b36:	f043 0302 	orr.w	r3, r3, #2
    1b3a:	f884 3020 	strb.w	r3, [r4, #32]
    1b3e:	e8bd 4010 	ldmia.w	sp!, {r4, lr}
    1b42:	f000 bf7d 	b.w	2a40 <tcp_output>
    1b46:	bf00      	nop

00001b48 <tcp_seg_free>:
    1b48:	b510      	push	{r4, lr}
    1b4a:	4604      	mov	r4, r0
    1b4c:	b148      	cbz	r0, 1b62 <tcp_seg_free+0x1a>
    1b4e:	6840      	ldr	r0, [r0, #4]
    1b50:	b108      	cbz	r0, 1b56 <tcp_seg_free+0xe>
    1b52:	f7ff fde3 	bl	171c <pbuf_free>
    1b56:	4621      	mov	r1, r4
    1b58:	2003      	movs	r0, #3
    1b5a:	e8bd 4010 	ldmia.w	sp!, {r4, lr}
    1b5e:	f7ff bc73 	b.w	1448 <memp_free>
    1b62:	bd10      	pop	{r4, pc}

00001b64 <tcp_segs_free>:
    1b64:	b510      	push	{r4, lr}
    1b66:	b908      	cbnz	r0, 1b6c <tcp_segs_free+0x8>
    1b68:	e005      	b.n	1b76 <tcp_segs_free+0x12>
    1b6a:	4620      	mov	r0, r4
    1b6c:	6804      	ldr	r4, [r0, #0]
    1b6e:	f7ff ffeb 	bl	1b48 <tcp_seg_free>
    1b72:	2c00      	cmp	r4, #0
    1b74:	d1f9      	bne.n	1b6a <tcp_segs_free+0x6>
    1b76:	bd10      	pop	{r4, pc}

00001b78 <tcp_arg>:
    1b78:	6141      	str	r1, [r0, #20]
    1b7a:	4770      	bx	lr

00001b7c <tcp_recv>:
    1b7c:	f8c0 1084 	str.w	r1, [r0, #132]	; 0x84
    1b80:	4770      	bx	lr
    1b82:	bf00      	nop

00001b84 <tcp_sent>:
    1b84:	f8c0 1080 	str.w	r1, [r0, #128]	; 0x80
    1b88:	4770      	bx	lr
    1b8a:	bf00      	nop

00001b8c <tcp_err>:
    1b8c:	f8c0 1090 	str.w	r1, [r0, #144]	; 0x90
    1b90:	4770      	bx	lr
    1b92:	bf00      	nop

00001b94 <tcp_accept>:
    1b94:	6181      	str	r1, [r0, #24]
    1b96:	4770      	bx	lr

00001b98 <tcp_poll>:
    1b98:	f8c0 108c 	str.w	r1, [r0, #140]	; 0x8c
    1b9c:	f880 2035 	strb.w	r2, [r0, #53]	; 0x35
    1ba0:	4770      	bx	lr
    1ba2:	bf00      	nop

00001ba4 <tcp_pcb_purge>:
    1ba4:	b538      	push	{r3, r4, r5, lr}
    1ba6:	7c03      	ldrb	r3, [r0, #16]
    1ba8:	4605      	mov	r5, r0
    1baa:	2b01      	cmp	r3, #1
    1bac:	d920      	bls.n	1bf0 <tcp_pcb_purge+0x4c>
    1bae:	2b0a      	cmp	r3, #10
    1bb0:	d01e      	beq.n	1bf0 <tcp_pcb_purge+0x4c>
    1bb2:	6fc0      	ldr	r0, [r0, #124]	; 0x7c
    1bb4:	b118      	cbz	r0, 1bbe <tcp_pcb_purge+0x1a>
    1bb6:	f7ff fdb1 	bl	171c <pbuf_free>
    1bba:	2300      	movs	r3, #0
    1bbc:	67eb      	str	r3, [r5, #124]	; 0x7c
    1bbe:	6f68      	ldr	r0, [r5, #116]	; 0x74
    1bc0:	f64f 73ff 	movw	r3, #65535	; 0xffff
    1bc4:	86eb      	strh	r3, [r5, #54]	; 0x36
    1bc6:	b908      	cbnz	r0, 1bcc <tcp_pcb_purge+0x28>
    1bc8:	e005      	b.n	1bd6 <tcp_pcb_purge+0x32>
    1bca:	4620      	mov	r0, r4
    1bcc:	6804      	ldr	r4, [r0, #0]
    1bce:	f7ff ffbb 	bl	1b48 <tcp_seg_free>
    1bd2:	2c00      	cmp	r4, #0
    1bd4:	d1f9      	bne.n	1bca <tcp_pcb_purge+0x26>
    1bd6:	6fa8      	ldr	r0, [r5, #120]	; 0x78
    1bd8:	b908      	cbnz	r0, 1bde <tcp_pcb_purge+0x3a>
    1bda:	e005      	b.n	1be8 <tcp_pcb_purge+0x44>
    1bdc:	4620      	mov	r0, r4
    1bde:	6804      	ldr	r4, [r0, #0]
    1be0:	f7ff ffb2 	bl	1b48 <tcp_seg_free>
    1be4:	2c00      	cmp	r4, #0
    1be6:	d1f9      	bne.n	1bdc <tcp_pcb_purge+0x38>
    1be8:	2300      	movs	r3, #0
    1bea:	676b      	str	r3, [r5, #116]	; 0x74
    1bec:	67ab      	str	r3, [r5, #120]	; 0x78
    1bee:	bd38      	pop	{r3, r4, r5, pc}
    1bf0:	bd38      	pop	{r3, r4, r5, pc}
    1bf2:	bf00      	nop

00001bf4 <tcp_slowtmr>:
    1bf4:	e92d 4ff0 	stmdb	sp!, {r4, r5, r6, r7, r8, r9, r10, r11, lr}
    1bf8:	4da8      	ldr	r5, [pc, #672]	; (1e9c <tcp_slowtmr+0x2a8>)
    1bfa:	f8df 92ac 	ldr.w	r9, [pc, #684]	; 1ea8 <tcp_slowtmr+0x2b4>
    1bfe:	682b      	ldr	r3, [r5, #0]
    1c00:	f8d9 4000 	ldr.w	r4, [r9]
    1c04:	3301      	adds	r3, #1
    1c06:	b085      	sub	sp, #20
    1c08:	602b      	str	r3, [r5, #0]
    1c0a:	2c00      	cmp	r4, #0
    1c0c:	f000 8089 	beq.w	1d22 <tcp_slowtmr+0x12e>
    1c10:	7c23      	ldrb	r3, [r4, #16]
    1c12:	f8df 8298 	ldr.w	r8, [pc, #664]	; 1eac <tcp_slowtmr+0x2b8>
    1c16:	2b02      	cmp	r3, #2
    1c18:	f04f 0600 	mov.w	r6, #0
    1c1c:	f894 104a 	ldrb.w	r1, [r4, #74]	; 0x4a
    1c20:	d059      	beq.n	1cd6 <tcp_slowtmr+0xe2>
    1c22:	290c      	cmp	r1, #12
    1c24:	f000 80ea 	beq.w	1dfc <tcp_slowtmr+0x208>
    1c28:	f894 20a4 	ldrb.w	r2, [r4, #164]	; 0xa4
    1c2c:	2a00      	cmp	r2, #0
    1c2e:	f000 8097 	beq.w	1d60 <tcp_slowtmr+0x16c>
    1c32:	f8d4 10a0 	ldr.w	r1, [r4, #160]	; 0xa0
    1c36:	eb08 0002 	add.w	r0, r8, r2
    1c3a:	f810 0c01 	ldrb.w	r0, [r0, #-1]
    1c3e:	3101      	adds	r1, #1
    1c40:	4281      	cmp	r1, r0
    1c42:	f8c4 10a0 	str.w	r1, [r4, #160]	; 0xa0
    1c46:	f0c0 80ce 	bcc.w	1de6 <tcp_slowtmr+0x1f2>
    1c4a:	2a06      	cmp	r2, #6
    1c4c:	f04f 0300 	mov.w	r3, #0
    1c50:	bf98      	it	ls
    1c52:	3201      	addls	r2, #1
    1c54:	f8c4 30a0 	str.w	r3, [r4, #160]	; 0xa0
    1c58:	bf98      	it	ls
    1c5a:	f884 20a4 	strbls.w	r2, [r4, #164]	; 0xa4
    1c5e:	4620      	mov	r0, r4
    1c60:	f001 f90c 	bl	2e7c <tcp_zero_window_probe>
    1c64:	7c23      	ldrb	r3, [r4, #16]
    1c66:	2200      	movs	r2, #0
    1c68:	2b06      	cmp	r3, #6
    1c6a:	f000 80b2 	beq.w	1dd2 <tcp_slowtmr+0x1de>
    1c6e:	7a21      	ldrb	r1, [r4, #8]
    1c70:	0709      	lsls	r1, r1, #28
    1c72:	d505      	bpl.n	1c80 <tcp_slowtmr+0x8c>
    1c74:	2b04      	cmp	r3, #4
    1c76:	f000 80c3 	beq.w	1e00 <tcp_slowtmr+0x20c>
    1c7a:	2b07      	cmp	r3, #7
    1c7c:	f000 80c0 	beq.w	1e00 <tcp_slowtmr+0x20c>
    1c80:	f04f 0b00 	mov.w	r11, #0
    1c84:	2b03      	cmp	r3, #3
    1c86:	f000 80b0 	beq.w	1dea <tcp_slowtmr+0x1f6>
    1c8a:	2b09      	cmp	r3, #9
    1c8c:	d027      	beq.n	1cde <tcp_slowtmr+0xea>
    1c8e:	bb5a      	cbnz	r2, 1ce8 <tcp_slowtmr+0xf4>
    1c90:	f894 3034 	ldrb.w	r3, [r4, #52]	; 0x34
    1c94:	f894 1035 	ldrb.w	r1, [r4, #53]	; 0x35
    1c98:	3301      	adds	r3, #1
    1c9a:	b2db      	uxtb	r3, r3
    1c9c:	4299      	cmp	r1, r3
    1c9e:	f884 3034 	strb.w	r3, [r4, #52]	; 0x34
    1ca2:	f8d4 b00c 	ldr.w	r11, [r4, #12]
    1ca6:	d80c      	bhi.n	1cc2 <tcp_slowtmr+0xce>
    1ca8:	f8d4 308c 	ldr.w	r3, [r4, #140]	; 0x8c
    1cac:	f884 2034 	strb.w	r2, [r4, #52]	; 0x34
    1cb0:	2b00      	cmp	r3, #0
    1cb2:	f000 80d6 	beq.w	1e62 <tcp_slowtmr+0x26e>
    1cb6:	6960      	ldr	r0, [r4, #20]
    1cb8:	4621      	mov	r1, r4
    1cba:	4798      	blx	r3
    1cbc:	2800      	cmp	r0, #0
    1cbe:	f000 80d0 	beq.w	1e62 <tcp_slowtmr+0x26e>
    1cc2:	f1bb 0f00 	cmp.w	r11, #0
    1cc6:	d02c      	beq.n	1d22 <tcp_slowtmr+0x12e>
    1cc8:	4626      	mov	r6, r4
    1cca:	465c      	mov	r4, r11
    1ccc:	7c23      	ldrb	r3, [r4, #16]
    1cce:	f894 104a 	ldrb.w	r1, [r4, #74]	; 0x4a
    1cd2:	2b02      	cmp	r3, #2
    1cd4:	d1a5      	bne.n	1c22 <tcp_slowtmr+0x2e>
    1cd6:	2906      	cmp	r1, #6
    1cd8:	d1a3      	bne.n	1c22 <tcp_slowtmr+0x2e>
    1cda:	2201      	movs	r2, #1
    1cdc:	e7d0      	b.n	1c80 <tcp_slowtmr+0x8c>
    1cde:	6829      	ldr	r1, [r5, #0]
    1ce0:	6b23      	ldr	r3, [r4, #48]	; 0x30
    1ce2:	1acb      	subs	r3, r1, r3
    1ce4:	2bf0      	cmp	r3, #240	; 0xf0
    1ce6:	d9d2      	bls.n	1c8e <tcp_slowtmr+0x9a>
    1ce8:	4620      	mov	r0, r4
    1cea:	f7ff ff5b 	bl	1ba4 <tcp_pcb_purge>
    1cee:	68e3      	ldr	r3, [r4, #12]
    1cf0:	2e00      	cmp	r6, #0
    1cf2:	f000 80cb 	beq.w	1e8c <tcp_slowtmr+0x298>
    1cf6:	60f3      	str	r3, [r6, #12]
    1cf8:	f8d4 3090 	ldr.w	r3, [r4, #144]	; 0x90
    1cfc:	b11b      	cbz	r3, 1d06 <tcp_slowtmr+0x112>
    1cfe:	6960      	ldr	r0, [r4, #20]
    1d00:	f06f 0109 	mvn.w	r1, #9
    1d04:	4798      	blx	r3
    1d06:	f1bb 0f00 	cmp.w	r11, #0
    1d0a:	f040 80b4 	bne.w	1e76 <tcp_slowtmr+0x282>
    1d0e:	f8d4 b00c 	ldr.w	r11, [r4, #12]
    1d12:	4621      	mov	r1, r4
    1d14:	2001      	movs	r0, #1
    1d16:	f7ff fb97 	bl	1448 <memp_free>
    1d1a:	4634      	mov	r4, r6
    1d1c:	f1bb 0f00 	cmp.w	r11, #0
    1d20:	d1d2      	bne.n	1cc8 <tcp_slowtmr+0xd4>
    1d22:	f8df 818c 	ldr.w	r8, [pc, #396]	; 1eb0 <tcp_slowtmr+0x2bc>
    1d26:	2600      	movs	r6, #0
    1d28:	f8d8 4000 	ldr.w	r4, [r8]
    1d2c:	b1ac      	cbz	r4, 1d5a <tcp_slowtmr+0x166>
    1d2e:	682a      	ldr	r2, [r5, #0]
    1d30:	6b23      	ldr	r3, [r4, #48]	; 0x30
    1d32:	4620      	mov	r0, r4
    1d34:	1ad3      	subs	r3, r2, r3
    1d36:	2bf0      	cmp	r3, #240	; 0xf0
    1d38:	f240 8097 	bls.w	1e6a <tcp_slowtmr+0x276>
    1d3c:	f7ff ff32 	bl	1ba4 <tcp_pcb_purge>
    1d40:	2e00      	cmp	r6, #0
    1d42:	f000 80a6 	beq.w	1e92 <tcp_slowtmr+0x29e>
    1d46:	68e3      	ldr	r3, [r4, #12]
    1d48:	60f3      	str	r3, [r6, #12]
    1d4a:	68e7      	ldr	r7, [r4, #12]
    1d4c:	4621      	mov	r1, r4
    1d4e:	2001      	movs	r0, #1
    1d50:	463c      	mov	r4, r7
    1d52:	f7ff fb79 	bl	1448 <memp_free>
    1d56:	2c00      	cmp	r4, #0
    1d58:	d1e9      	bne.n	1d2e <tcp_slowtmr+0x13a>
    1d5a:	b005      	add	sp, #20
    1d5c:	e8bd 8ff0 	ldmia.w	sp!, {r4, r5, r6, r7, r8, r9, r10, r11, pc}
    1d60:	8ee2      	ldrh	r2, [r4, #54]	; 0x36
    1d62:	0410      	lsls	r0, r2, #16
    1d64:	bf5c      	itt	pl
    1d66:	3201      	addpl	r2, #1
    1d68:	86e2      	strhpl	r2, [r4, #54]	; 0x36
    1d6a:	6fa2      	ldr	r2, [r4, #120]	; 0x78
    1d6c:	2a00      	cmp	r2, #0
    1d6e:	f43f af7b 	beq.w	1c68 <tcp_slowtmr+0x74>
    1d72:	f9b4 0036 	ldrsh.w	r0, [r4, #54]	; 0x36
    1d76:	f9b4 2048 	ldrsh.w	r2, [r4, #72]	; 0x48
    1d7a:	4290      	cmp	r0, r2
    1d7c:	db33      	blt.n	1de6 <tcp_slowtmr+0x1f2>
    1d7e:	2b02      	cmp	r3, #2
    1d80:	d00a      	beq.n	1d98 <tcp_slowtmr+0x1a4>
    1d82:	4f47      	ldr	r7, [pc, #284]	; (1ea0 <tcp_slowtmr+0x2ac>)
    1d84:	f9b4 0044 	ldrsh.w	r0, [r4, #68]	; 0x44
    1d88:	f9b4 3046 	ldrsh.w	r3, [r4, #70]	; 0x46
    1d8c:	5c7a      	ldrb	r2, [r7, r1]
    1d8e:	eb03 03e0 	add.w	r3, r3, r0, asr #3
    1d92:	4093      	lsls	r3, r2
    1d94:	f8a4 3048 	strh.w	r3, [r4, #72]	; 0x48
    1d98:	f8b4 1052 	ldrh.w	r1, [r4, #82]	; 0x52
    1d9c:	f8b4 205c 	ldrh.w	r2, [r4, #92]	; 0x5c
    1da0:	8f23      	ldrh	r3, [r4, #56]	; 0x38
    1da2:	4291      	cmp	r1, r2
    1da4:	bf38      	it	cc
    1da6:	460a      	movcc	r2, r1
    1da8:	0852      	lsrs	r2, r2, #1
    1daa:	0059      	lsls	r1, r3, #1
    1dac:	428a      	cmp	r2, r1
    1dae:	f04f 0000 	mov.w	r0, #0
    1db2:	f8a4 2054 	strh.w	r2, [r4, #84]	; 0x54
    1db6:	86e0      	strh	r0, [r4, #54]	; 0x36
    1db8:	bfb8      	it	lt
    1dba:	f8a4 1054 	strhlt.w	r1, [r4, #84]	; 0x54
    1dbe:	f8a4 3052 	strh.w	r3, [r4, #82]	; 0x52
    1dc2:	4620      	mov	r0, r4
    1dc4:	f000 ffce 	bl	2d64 <tcp_rexmit_rto>
    1dc8:	7c23      	ldrb	r3, [r4, #16]
    1dca:	2200      	movs	r2, #0
    1dcc:	2b06      	cmp	r3, #6
    1dce:	f47f af4e 	bne.w	1c6e <tcp_slowtmr+0x7a>
    1dd2:	6829      	ldr	r1, [r5, #0]
    1dd4:	6b23      	ldr	r3, [r4, #48]	; 0x30
    1dd6:	1acb      	subs	r3, r1, r3
    1dd8:	2b28      	cmp	r3, #40	; 0x28
    1dda:	d901      	bls.n	1de0 <tcp_slowtmr+0x1ec>
    1ddc:	3201      	adds	r2, #1
    1dde:	b2d2      	uxtb	r2, r2
    1de0:	f04f 0b00 	mov.w	r11, #0
    1de4:	e753      	b.n	1c8e <tcp_slowtmr+0x9a>
    1de6:	2200      	movs	r2, #0
    1de8:	e73e      	b.n	1c68 <tcp_slowtmr+0x74>
    1dea:	6829      	ldr	r1, [r5, #0]
    1dec:	6b23      	ldr	r3, [r4, #48]	; 0x30
    1dee:	1acb      	subs	r3, r1, r3
    1df0:	2b28      	cmp	r3, #40	; 0x28
    1df2:	f67f af4c 	bls.w	1c8e <tcp_slowtmr+0x9a>
    1df6:	3201      	adds	r2, #1
    1df8:	b2d2      	uxtb	r2, r2
    1dfa:	e748      	b.n	1c8e <tcp_slowtmr+0x9a>
    1dfc:	2201      	movs	r2, #1
    1dfe:	e733      	b.n	1c68 <tcp_slowtmr+0x74>
    1e00:	f8d4 709c 	ldr.w	r7, [r4, #156]	; 0x9c
    1e04:	f8d4 1094 	ldr.w	r1, [r4, #148]	; 0x94
    1e08:	f8d4 c098 	ldr.w	r12, [r4, #152]	; 0x98
    1e0c:	f8df a094 	ldr.w	r10, [pc, #148]	; 1ea4 <tcp_slowtmr+0x2b0>
    1e10:	fb07 100c 	mla	r0, r7, r12, r1
    1e14:	fbaa ab00 	umull	r10, r11, r10, r0
    1e18:	6b27      	ldr	r7, [r4, #48]	; 0x30
    1e1a:	6828      	ldr	r0, [r5, #0]
    1e1c:	ebc7 0a00 	rsb	r10, r7, r0
    1e20:	ebba 1f5b 	cmp.w	r10, r11, lsr #5
    1e24:	d904      	bls.n	1e30 <tcp_slowtmr+0x23c>
    1e26:	3201      	adds	r2, #1
    1e28:	b2d2      	uxtb	r2, r2
    1e2a:	f04f 0b01 	mov.w	r11, #1
    1e2e:	e729      	b.n	1c84 <tcp_slowtmr+0x90>
    1e30:	f894 b0a5 	ldrb.w	r11, [r4, #165]	; 0xa5
    1e34:	481b      	ldr	r0, [pc, #108]	; (1ea4 <tcp_slowtmr+0x2b0>)
    1e36:	fb0c 110b 	mla	r1, r12, r11, r1
    1e3a:	fba0 0101 	umull	r0, r1, r0, r1
    1e3e:	ebba 1f51 	cmp.w	r10, r1, lsr #5
    1e42:	f67f af1d 	bls.w	1c80 <tcp_slowtmr+0x8c>
    1e46:	4620      	mov	r0, r4
    1e48:	9203      	str	r2, [sp, #12]
    1e4a:	f000 ffef 	bl	2e2c <tcp_keepalive>
    1e4e:	f894 10a5 	ldrb.w	r1, [r4, #165]	; 0xa5
    1e52:	7c23      	ldrb	r3, [r4, #16]
    1e54:	3101      	adds	r1, #1
    1e56:	f884 10a5 	strb.w	r1, [r4, #165]	; 0xa5
    1e5a:	f04f 0b00 	mov.w	r11, #0
    1e5e:	9a03      	ldr	r2, [sp, #12]
    1e60:	e710      	b.n	1c84 <tcp_slowtmr+0x90>
    1e62:	4620      	mov	r0, r4
    1e64:	f000 fdec 	bl	2a40 <tcp_output>
    1e68:	e72b      	b.n	1cc2 <tcp_slowtmr+0xce>
    1e6a:	4626      	mov	r6, r4
    1e6c:	68e4      	ldr	r4, [r4, #12]
    1e6e:	2c00      	cmp	r4, #0
    1e70:	f47f af5d 	bne.w	1d2e <tcp_slowtmr+0x13a>
    1e74:	e771      	b.n	1d5a <tcp_slowtmr+0x166>
    1e76:	8ba3      	ldrh	r3, [r4, #28]
    1e78:	6da0      	ldr	r0, [r4, #88]	; 0x58
    1e7a:	6a61      	ldr	r1, [r4, #36]	; 0x24
    1e7c:	9300      	str	r3, [sp, #0]
    1e7e:	8be3      	ldrh	r3, [r4, #30]
    1e80:	4622      	mov	r2, r4
    1e82:	9301      	str	r3, [sp, #4]
    1e84:	1d23      	adds	r3, r4, #4
    1e86:	f000 ff23 	bl	2cd0 <tcp_rst>
    1e8a:	e740      	b.n	1d0e <tcp_slowtmr+0x11a>
    1e8c:	f8c9 3000 	str.w	r3, [r9]
    1e90:	e732      	b.n	1cf8 <tcp_slowtmr+0x104>
    1e92:	68e7      	ldr	r7, [r4, #12]
    1e94:	f8c8 7000 	str.w	r7, [r8]
    1e98:	e758      	b.n	1d4c <tcp_slowtmr+0x158>
    1e9a:	bf00      	nop
    1e9c:	10000fc0 	.word	0x10000fc0
    1ea0:	0000da10 	.word	0x0000da10
    1ea4:	10624dd3 	.word	0x10624dd3
    1ea8:	10000fbc 	.word	0x10000fbc
    1eac:	0000da20 	.word	0x0000da20
    1eb0:	10000fd0 	.word	0x10000fd0

00001eb4 <tcp_pcb_remove>:
    1eb4:	6802      	ldr	r2, [r0, #0]
    1eb6:	b510      	push	{r4, lr}
    1eb8:	428a      	cmp	r2, r1
    1eba:	460c      	mov	r4, r1
    1ebc:	d02c      	beq.n	1f18 <tcp_pcb_remove+0x64>
    1ebe:	4919      	ldr	r1, [pc, #100]	; (1f24 <tcp_pcb_remove+0x70>)
    1ec0:	600a      	str	r2, [r1, #0]
    1ec2:	b152      	cbz	r2, 1eda <tcp_pcb_remove+0x26>
    1ec4:	68d3      	ldr	r3, [r2, #12]
    1ec6:	42a3      	cmp	r3, r4
    1ec8:	d029      	beq.n	1f1e <tcp_pcb_remove+0x6a>
    1eca:	b12b      	cbz	r3, 1ed8 <tcp_pcb_remove+0x24>
    1ecc:	68da      	ldr	r2, [r3, #12]
    1ece:	42a2      	cmp	r2, r4
    1ed0:	d01e      	beq.n	1f10 <tcp_pcb_remove+0x5c>
    1ed2:	4613      	mov	r3, r2
    1ed4:	2b00      	cmp	r3, #0
    1ed6:	d1f9      	bne.n	1ecc <tcp_pcb_remove+0x18>
    1ed8:	600b      	str	r3, [r1, #0]
    1eda:	2300      	movs	r3, #0
    1edc:	60e3      	str	r3, [r4, #12]
    1ede:	4620      	mov	r0, r4
    1ee0:	f7ff fe60 	bl	1ba4 <tcp_pcb_purge>
    1ee4:	7c23      	ldrb	r3, [r4, #16]
    1ee6:	2b0a      	cmp	r3, #10
    1ee8:	d005      	beq.n	1ef6 <tcp_pcb_remove+0x42>
    1eea:	2b01      	cmp	r3, #1
    1eec:	d003      	beq.n	1ef6 <tcp_pcb_remove+0x42>
    1eee:	f894 3020 	ldrb.w	r3, [r4, #32]
    1ef2:	07da      	lsls	r2, r3, #31
    1ef4:	d402      	bmi.n	1efc <tcp_pcb_remove+0x48>
    1ef6:	2300      	movs	r3, #0
    1ef8:	7423      	strb	r3, [r4, #16]
    1efa:	bd10      	pop	{r4, pc}
    1efc:	f043 0302 	orr.w	r3, r3, #2
    1f00:	f884 3020 	strb.w	r3, [r4, #32]
    1f04:	4620      	mov	r0, r4
    1f06:	f000 fd9b 	bl	2a40 <tcp_output>
    1f0a:	2300      	movs	r3, #0
    1f0c:	7423      	strb	r3, [r4, #16]
    1f0e:	bd10      	pop	{r4, pc}
    1f10:	600b      	str	r3, [r1, #0]
    1f12:	68e1      	ldr	r1, [r4, #12]
    1f14:	60d9      	str	r1, [r3, #12]
    1f16:	e7e0      	b.n	1eda <tcp_pcb_remove+0x26>
    1f18:	68cb      	ldr	r3, [r1, #12]
    1f1a:	6003      	str	r3, [r0, #0]
    1f1c:	e7dd      	b.n	1eda <tcp_pcb_remove+0x26>
    1f1e:	4613      	mov	r3, r2
    1f20:	e7f7      	b.n	1f12 <tcp_pcb_remove+0x5e>
    1f22:	bf00      	nop
    1f24:	10000fc8 	.word	0x10000fc8

00001f28 <tcp_close_shutdown>:
    1f28:	b510      	push	{r4, lr}
    1f2a:	7c03      	ldrb	r3, [r0, #16]
    1f2c:	b082      	sub	sp, #8
    1f2e:	4604      	mov	r4, r0
    1f30:	2900      	cmp	r1, #0
    1f32:	d034      	beq.n	1f9e <tcp_close_shutdown+0x76>
    1f34:	2b01      	cmp	r3, #1
    1f36:	d053      	beq.n	1fe0 <tcp_close_shutdown+0xb8>
    1f38:	6fc2      	ldr	r2, [r0, #124]	; 0x7c
    1f3a:	2a00      	cmp	r2, #0
    1f3c:	d02a      	beq.n	1f94 <tcp_close_shutdown+0x6c>
    1f3e:	8ba2      	ldrh	r2, [r4, #28]
    1f40:	8be3      	ldrh	r3, [r4, #30]
    1f42:	6da0      	ldr	r0, [r4, #88]	; 0x58
    1f44:	6a61      	ldr	r1, [r4, #36]	; 0x24
    1f46:	e88d 000c 	stmia.w	sp, {r2, r3}
    1f4a:	4622      	mov	r2, r4
    1f4c:	1d23      	adds	r3, r4, #4
    1f4e:	f000 febf 	bl	2cd0 <tcp_rst>
    1f52:	4620      	mov	r0, r4
    1f54:	f7ff fe26 	bl	1ba4 <tcp_pcb_purge>
    1f58:	4b3e      	ldr	r3, [pc, #248]	; (2054 <tcp_close_shutdown+0x12c>)
    1f5a:	681a      	ldr	r2, [r3, #0]
    1f5c:	42a2      	cmp	r2, r4
    1f5e:	d06f      	beq.n	2040 <tcp_close_shutdown+0x118>
    1f60:	493d      	ldr	r1, [pc, #244]	; (2058 <tcp_close_shutdown+0x130>)
    1f62:	600a      	str	r2, [r1, #0]
    1f64:	b152      	cbz	r2, 1f7c <tcp_close_shutdown+0x54>
    1f66:	68d3      	ldr	r3, [r2, #12]
    1f68:	42a3      	cmp	r3, r4
    1f6a:	d061      	beq.n	2030 <tcp_close_shutdown+0x108>
    1f6c:	b12b      	cbz	r3, 1f7a <tcp_close_shutdown+0x52>
    1f6e:	68da      	ldr	r2, [r3, #12]
    1f70:	42a2      	cmp	r2, r4
    1f72:	d059      	beq.n	2028 <tcp_close_shutdown+0x100>
    1f74:	4613      	mov	r3, r2
    1f76:	2b00      	cmp	r3, #0
    1f78:	d1f9      	bne.n	1f6e <tcp_close_shutdown+0x46>
    1f7a:	600b      	str	r3, [r1, #0]
    1f7c:	4b37      	ldr	r3, [pc, #220]	; (205c <tcp_close_shutdown+0x134>)
    1f7e:	210a      	movs	r1, #10
    1f80:	681a      	ldr	r2, [r3, #0]
    1f82:	7421      	strb	r1, [r4, #16]
    1f84:	60e2      	str	r2, [r4, #12]
    1f86:	601c      	str	r4, [r3, #0]
    1f88:	f001 f808 	bl	2f9c <tcp_timer_needed>
    1f8c:	2000      	movs	r0, #0
    1f8e:	b240      	sxtb	r0, r0
    1f90:	b002      	add	sp, #8
    1f92:	bd10      	pop	{r4, pc}
    1f94:	8d01      	ldrh	r1, [r0, #40]	; 0x28
    1f96:	f640 3268 	movw	r2, #2920	; 0xb68
    1f9a:	4291      	cmp	r1, r2
    1f9c:	d1cf      	bne.n	1f3e <tcp_close_shutdown+0x16>
    1f9e:	2b07      	cmp	r3, #7
    1fa0:	d80d      	bhi.n	1fbe <tcp_close_shutdown+0x96>
    1fa2:	e8df f003 	tbb	[pc, r3]
    1fa6:	1d2e      	.short	0x1d2e
    1fa8:	0c101004 	.word	0x0c101004
    1fac:	260c      	.short	0x260c
    1fae:	4829      	ldr	r0, [pc, #164]	; (2054 <tcp_close_shutdown+0x12c>)
    1fb0:	4621      	mov	r1, r4
    1fb2:	f7ff ff7f 	bl	1eb4 <tcp_pcb_remove>
    1fb6:	4621      	mov	r1, r4
    1fb8:	2001      	movs	r0, #1
    1fba:	f7ff fa45 	bl	1448 <memp_free>
    1fbe:	2000      	movs	r0, #0
    1fc0:	b240      	sxtb	r0, r0
    1fc2:	b002      	add	sp, #8
    1fc4:	bd10      	pop	{r4, pc}
    1fc6:	4620      	mov	r0, r4
    1fc8:	f000 fcf6 	bl	29b8 <tcp_send_fin>
    1fcc:	2800      	cmp	r0, #0
    1fce:	d1f7      	bne.n	1fc0 <tcp_close_shutdown+0x98>
    1fd0:	2305      	movs	r3, #5
    1fd2:	7423      	strb	r3, [r4, #16]
    1fd4:	2c00      	cmp	r4, #0
    1fd6:	d0f2      	beq.n	1fbe <tcp_close_shutdown+0x96>
    1fd8:	4620      	mov	r0, r4
    1fda:	f000 fd31 	bl	2a40 <tcp_output>
    1fde:	e7ee      	b.n	1fbe <tcp_close_shutdown+0x96>
    1fe0:	4621      	mov	r1, r4
    1fe2:	481f      	ldr	r0, [pc, #124]	; (2060 <tcp_close_shutdown+0x138>)
    1fe4:	f7ff ff66 	bl	1eb4 <tcp_pcb_remove>
    1fe8:	4621      	mov	r1, r4
    1fea:	2002      	movs	r0, #2
    1fec:	f7ff fa2c 	bl	1448 <memp_free>
    1ff0:	e7e5      	b.n	1fbe <tcp_close_shutdown+0x96>
    1ff2:	4620      	mov	r0, r4
    1ff4:	f000 fce0 	bl	29b8 <tcp_send_fin>
    1ff8:	2800      	cmp	r0, #0
    1ffa:	d1e1      	bne.n	1fc0 <tcp_close_shutdown+0x98>
    1ffc:	2309      	movs	r3, #9
    1ffe:	7423      	strb	r3, [r4, #16]
    2000:	e7e8      	b.n	1fd4 <tcp_close_shutdown+0xac>
    2002:	8ba3      	ldrh	r3, [r4, #28]
    2004:	2b00      	cmp	r3, #0
    2006:	d0d6      	beq.n	1fb6 <tcp_close_shutdown+0x8e>
    2008:	4b16      	ldr	r3, [pc, #88]	; (2064 <tcp_close_shutdown+0x13c>)
    200a:	681a      	ldr	r2, [r3, #0]
    200c:	42a2      	cmp	r2, r4
    200e:	d01e      	beq.n	204e <tcp_close_shutdown+0x126>
    2010:	4911      	ldr	r1, [pc, #68]	; (2058 <tcp_close_shutdown+0x130>)
    2012:	600a      	str	r2, [r1, #0]
    2014:	b18a      	cbz	r2, 203a <tcp_close_shutdown+0x112>
    2016:	68d3      	ldr	r3, [r2, #12]
    2018:	42a3      	cmp	r3, r4
    201a:	d00b      	beq.n	2034 <tcp_close_shutdown+0x10c>
    201c:	b19b      	cbz	r3, 2046 <tcp_close_shutdown+0x11e>
    201e:	68da      	ldr	r2, [r3, #12]
    2020:	42a2      	cmp	r2, r4
    2022:	d012      	beq.n	204a <tcp_close_shutdown+0x122>
    2024:	4613      	mov	r3, r2
    2026:	e7f9      	b.n	201c <tcp_close_shutdown+0xf4>
    2028:	600b      	str	r3, [r1, #0]
    202a:	68e1      	ldr	r1, [r4, #12]
    202c:	60d9      	str	r1, [r3, #12]
    202e:	e7a5      	b.n	1f7c <tcp_close_shutdown+0x54>
    2030:	4613      	mov	r3, r2
    2032:	e7fa      	b.n	202a <tcp_close_shutdown+0x102>
    2034:	4613      	mov	r3, r2
    2036:	68e1      	ldr	r1, [r4, #12]
    2038:	60d9      	str	r1, [r3, #12]
    203a:	2300      	movs	r3, #0
    203c:	60e3      	str	r3, [r4, #12]
    203e:	e7ba      	b.n	1fb6 <tcp_close_shutdown+0x8e>
    2040:	68e2      	ldr	r2, [r4, #12]
    2042:	601a      	str	r2, [r3, #0]
    2044:	e79a      	b.n	1f7c <tcp_close_shutdown+0x54>
    2046:	600b      	str	r3, [r1, #0]
    2048:	e7f7      	b.n	203a <tcp_close_shutdown+0x112>
    204a:	600b      	str	r3, [r1, #0]
    204c:	e7f3      	b.n	2036 <tcp_close_shutdown+0x10e>
    204e:	68e2      	ldr	r2, [r4, #12]
    2050:	601a      	str	r2, [r3, #0]
    2052:	e7f2      	b.n	203a <tcp_close_shutdown+0x112>
    2054:	10000fbc 	.word	0x10000fbc
    2058:	10000fc8 	.word	0x10000fc8
    205c:	10000fd0 	.word	0x10000fd0
    2060:	10000fc4 	.word	0x10000fc4
    2064:	10000fcc 	.word	0x10000fcc

00002068 <tcp_close>:
    2068:	7c03      	ldrb	r3, [r0, #16]
    206a:	2b01      	cmp	r3, #1
    206c:	d005      	beq.n	207a <tcp_close+0x12>
    206e:	f890 3020 	ldrb.w	r3, [r0, #32]
    2072:	f043 0310 	orr.w	r3, r3, #16
    2076:	f880 3020 	strb.w	r3, [r0, #32]
    207a:	2101      	movs	r1, #1
    207c:	f7ff bf54 	b.w	1f28 <tcp_close_shutdown>

00002080 <tcp_recv_null>:
    2080:	b510      	push	{r4, lr}
    2082:	4614      	mov	r4, r2
    2084:	b142      	cbz	r2, 2098 <tcp_recv_null+0x18>
    2086:	4608      	mov	r0, r1
    2088:	8911      	ldrh	r1, [r2, #8]
    208a:	f7ff fd3f 	bl	1b0c <tcp_recved>
    208e:	4620      	mov	r0, r4
    2090:	f7ff fb44 	bl	171c <pbuf_free>
    2094:	2000      	movs	r0, #0
    2096:	bd10      	pop	{r4, pc}
    2098:	2b00      	cmp	r3, #0
    209a:	d1fb      	bne.n	2094 <tcp_recv_null+0x14>
    209c:	4608      	mov	r0, r1
    209e:	e8bd 4010 	ldmia.w	sp!, {r4, lr}
    20a2:	f7ff bfe1 	b.w	2068 <tcp_close>
    20a6:	bf00      	nop

000020a8 <tcp_fasttmr>:
    20a8:	4b18      	ldr	r3, [pc, #96]	; (210c <tcp_fasttmr+0x64>)
    20aa:	b570      	push	{r4, r5, r6, lr}
    20ac:	681c      	ldr	r4, [r3, #0]
    20ae:	b30c      	cbz	r4, 20f4 <tcp_fasttmr+0x4c>
    20b0:	6fe2      	ldr	r2, [r4, #124]	; 0x7c
    20b2:	68e5      	ldr	r5, [r4, #12]
    20b4:	b142      	cbz	r2, 20c8 <tcp_fasttmr+0x20>
    20b6:	f8d4 6084 	ldr.w	r6, [r4, #132]	; 0x84
    20ba:	b306      	cbz	r6, 20fe <tcp_fasttmr+0x56>
    20bc:	6960      	ldr	r0, [r4, #20]
    20be:	4621      	mov	r1, r4
    20c0:	2300      	movs	r3, #0
    20c2:	47b0      	blx	r6
    20c4:	b9b8      	cbnz	r0, 20f6 <tcp_fasttmr+0x4e>
    20c6:	67e0      	str	r0, [r4, #124]	; 0x7c
    20c8:	f894 3020 	ldrb.w	r3, [r4, #32]
    20cc:	07da      	lsls	r2, r3, #31
    20ce:	d402      	bmi.n	20d6 <tcp_fasttmr+0x2e>
    20d0:	b185      	cbz	r5, 20f4 <tcp_fasttmr+0x4c>
    20d2:	462c      	mov	r4, r5
    20d4:	e7ec      	b.n	20b0 <tcp_fasttmr+0x8>
    20d6:	f043 0302 	orr.w	r3, r3, #2
    20da:	f884 3020 	strb.w	r3, [r4, #32]
    20de:	4620      	mov	r0, r4
    20e0:	f000 fcae 	bl	2a40 <tcp_output>
    20e4:	f894 3020 	ldrb.w	r3, [r4, #32]
    20e8:	f023 0303 	bic.w	r3, r3, #3
    20ec:	f884 3020 	strb.w	r3, [r4, #32]
    20f0:	2d00      	cmp	r5, #0
    20f2:	d1ee      	bne.n	20d2 <tcp_fasttmr+0x2a>
    20f4:	bd70      	pop	{r4, r5, r6, pc}
    20f6:	b240      	sxtb	r0, r0
    20f8:	300a      	adds	r0, #10
    20fa:	d1e5      	bne.n	20c8 <tcp_fasttmr+0x20>
    20fc:	e7e8      	b.n	20d0 <tcp_fasttmr+0x28>
    20fe:	4630      	mov	r0, r6
    2100:	4633      	mov	r3, r6
    2102:	4621      	mov	r1, r4
    2104:	f7ff ffbc 	bl	2080 <tcp_recv_null>
    2108:	e7dc      	b.n	20c4 <tcp_fasttmr+0x1c>
    210a:	bf00      	nop
    210c:	10000fbc 	.word	0x10000fbc

00002110 <tcp_tmr>:
    2110:	b508      	push	{r3, lr}
    2112:	f7ff ffc9 	bl	20a8 <tcp_fasttmr>
    2116:	4a06      	ldr	r2, [pc, #24]	; (2130 <tcp_tmr+0x20>)
    2118:	7813      	ldrb	r3, [r2, #0]
    211a:	3301      	adds	r3, #1
    211c:	b2db      	uxtb	r3, r3
    211e:	7013      	strb	r3, [r2, #0]
    2120:	07db      	lsls	r3, r3, #31
    2122:	d400      	bmi.n	2126 <tcp_tmr+0x16>
    2124:	bd08      	pop	{r3, pc}
    2126:	e8bd 4008 	ldmia.w	sp!, {r3, lr}
    212a:	f7ff bd63 	b.w	1bf4 <tcp_slowtmr>
    212e:	bf00      	nop
    2130:	1000030d 	.word	0x1000030d

00002134 <tcp_shutdown>:
    2134:	b538      	push	{r3, r4, r5, lr}
    2136:	7c03      	ldrb	r3, [r0, #16]
    2138:	4604      	mov	r4, r0
    213a:	2b01      	cmp	r3, #1
    213c:	4615      	mov	r5, r2
    213e:	d024      	beq.n	218a <tcp_shutdown+0x56>
    2140:	b159      	cbz	r1, 215a <tcp_shutdown+0x26>
    2142:	6fc0      	ldr	r0, [r0, #124]	; 0x7c
    2144:	b118      	cbz	r0, 214e <tcp_shutdown+0x1a>
    2146:	f7ff fae9 	bl	171c <pbuf_free>
    214a:	2300      	movs	r3, #0
    214c:	67e3      	str	r3, [r4, #124]	; 0x7c
    214e:	f894 3020 	ldrb.w	r3, [r4, #32]
    2152:	f043 0310 	orr.w	r3, r3, #16
    2156:	f884 3020 	strb.w	r3, [r4, #32]
    215a:	b155      	cbz	r5, 2172 <tcp_shutdown+0x3e>
    215c:	7c23      	ldrb	r3, [r4, #16]
    215e:	3b03      	subs	r3, #3
    2160:	b2db      	uxtb	r3, r3
    2162:	2b04      	cmp	r3, #4
    2164:	d808      	bhi.n	2178 <tcp_shutdown+0x44>
    2166:	2501      	movs	r5, #1
    2168:	fa05 f303 	lsl.w	r3, r5, r3
    216c:	f013 0513 	ands.w	r5, r3, #19
    2170:	d105      	bne.n	217e <tcp_shutdown+0x4a>
    2172:	4628      	mov	r0, r5
    2174:	b240      	sxtb	r0, r0
    2176:	bd38      	pop	{r3, r4, r5, pc}
    2178:	2000      	movs	r0, #0
    217a:	b240      	sxtb	r0, r0
    217c:	bd38      	pop	{r3, r4, r5, pc}
    217e:	4620      	mov	r0, r4
    2180:	2100      	movs	r1, #0
    2182:	e8bd 4038 	ldmia.w	sp!, {r3, r4, r5, lr}
    2186:	f7ff becf 	b.w	1f28 <tcp_close_shutdown>
    218a:	20f3      	movs	r0, #243	; 0xf3
    218c:	e7f2      	b.n	2174 <tcp_shutdown+0x40>
    218e:	bf00      	nop

00002190 <tcp_abandon>:
    2190:	e92d 4ff0 	stmdb	sp!, {r4, r5, r6, r7, r8, r9, r10, r11, lr}
    2194:	7c03      	ldrb	r3, [r0, #16]
    2196:	b087      	sub	sp, #28
    2198:	2b0a      	cmp	r3, #10
    219a:	4604      	mov	r4, r0
    219c:	460e      	mov	r6, r1
    219e:	d03f      	beq.n	2220 <tcp_abandon+0x90>
    21a0:	e890 000c 	ldmia.w	r0, {r2, r3}
    21a4:	9304      	str	r3, [sp, #16]
    21a6:	6963      	ldr	r3, [r4, #20]
    21a8:	4823      	ldr	r0, [pc, #140]	; (2238 <tcp_abandon+0xa8>)
    21aa:	4621      	mov	r1, r4
    21ac:	9205      	str	r2, [sp, #20]
    21ae:	f8d4 9058 	ldr.w	r9, [r4, #88]	; 0x58
    21b2:	f8d4 8024 	ldr.w	r8, [r4, #36]	; 0x24
    21b6:	f8b4 b01c 	ldrh.w	r11, [r4, #28]
    21ba:	f8b4 a01e 	ldrh.w	r10, [r4, #30]
    21be:	f8d4 5090 	ldr.w	r5, [r4, #144]	; 0x90
    21c2:	9303      	str	r3, [sp, #12]
    21c4:	f7ff fe76 	bl	1eb4 <tcp_pcb_remove>
    21c8:	6fa0      	ldr	r0, [r4, #120]	; 0x78
    21ca:	b908      	cbnz	r0, 21d0 <tcp_abandon+0x40>
    21cc:	e005      	b.n	21da <tcp_abandon+0x4a>
    21ce:	4638      	mov	r0, r7
    21d0:	6807      	ldr	r7, [r0, #0]
    21d2:	f7ff fcb9 	bl	1b48 <tcp_seg_free>
    21d6:	2f00      	cmp	r7, #0
    21d8:	d1f9      	bne.n	21ce <tcp_abandon+0x3e>
    21da:	6f60      	ldr	r0, [r4, #116]	; 0x74
    21dc:	b908      	cbnz	r0, 21e2 <tcp_abandon+0x52>
    21de:	e005      	b.n	21ec <tcp_abandon+0x5c>
    21e0:	4638      	mov	r0, r7
    21e2:	6807      	ldr	r7, [r0, #0]
    21e4:	f7ff fcb0 	bl	1b48 <tcp_seg_free>
    21e8:	2f00      	cmp	r7, #0
    21ea:	d1f9      	bne.n	21e0 <tcp_abandon+0x50>
    21ec:	4621      	mov	r1, r4
    21ee:	2001      	movs	r0, #1
    21f0:	f7ff f92a 	bl	1448 <memp_free>
    21f4:	b11d      	cbz	r5, 21fe <tcp_abandon+0x6e>
    21f6:	9803      	ldr	r0, [sp, #12]
    21f8:	f06f 0109 	mvn.w	r1, #9
    21fc:	47a8      	blx	r5
    21fe:	b916      	cbnz	r6, 2206 <tcp_abandon+0x76>
    2200:	b007      	add	sp, #28
    2202:	e8bd 8ff0 	ldmia.w	sp!, {r4, r5, r6, r7, r8, r9, r10, r11, pc}
    2206:	f8cd b000 	str.w	r11, [sp]
    220a:	f8cd a004 	str.w	r10, [sp, #4]
    220e:	4648      	mov	r0, r9
    2210:	4641      	mov	r1, r8
    2212:	aa05      	add	r2, sp, #20
    2214:	ab04      	add	r3, sp, #16
    2216:	f000 fd5b 	bl	2cd0 <tcp_rst>
    221a:	b007      	add	sp, #28
    221c:	e8bd 8ff0 	ldmia.w	sp!, {r4, r5, r6, r7, r8, r9, r10, r11, pc}
    2220:	4621      	mov	r1, r4
    2222:	4806      	ldr	r0, [pc, #24]	; (223c <tcp_abandon+0xac>)
    2224:	f7ff fe46 	bl	1eb4 <tcp_pcb_remove>
    2228:	4621      	mov	r1, r4
    222a:	2001      	movs	r0, #1
    222c:	f7ff f90c 	bl	1448 <memp_free>
    2230:	b007      	add	sp, #28
    2232:	e8bd 8ff0 	ldmia.w	sp!, {r4, r5, r6, r7, r8, r9, r10, r11, pc}
    2236:	bf00      	nop
    2238:	10000fbc 	.word	0x10000fbc
    223c:	10000fd0 	.word	0x10000fd0

00002240 <tcp_abort>:
    2240:	2101      	movs	r1, #1
    2242:	f7ff bfa5 	b.w	2190 <tcp_abandon>
    2246:	bf00      	nop

00002248 <tcp_alloc>:
    2248:	e92d 4ff8 	stmdb	sp!, {r3, r4, r5, r6, r7, r8, r9, r10, r11, lr}
    224c:	4607      	mov	r7, r0
    224e:	2001      	movs	r0, #1
    2250:	f7ff f8e4 	bl	141c <memp_malloc>
    2254:	4604      	mov	r4, r0
    2256:	2800      	cmp	r0, #0
    2258:	d045      	beq.n	22e6 <tcp_alloc+0x9e>
    225a:	2100      	movs	r1, #0
    225c:	22a8      	movs	r2, #168	; 0xa8
    225e:	4620      	mov	r0, r4
    2260:	f009 fede 	bl	c020 <memset>
    2264:	4e3d      	ldr	r6, [pc, #244]	; (235c <tcp_alloc+0x114>)
    2266:	4b3e      	ldr	r3, [pc, #248]	; (2360 <tcp_alloc+0x118>)
    2268:	6832      	ldr	r2, [r6, #0]
    226a:	6818      	ldr	r0, [r3, #0]
    226c:	f8df b100 	ldr.w	r11, [pc, #256]	; 2370 <tcp_alloc+0x128>
    2270:	4402      	add	r2, r0
    2272:	f8df a100 	ldr.w	r10, [pc, #256]	; 2374 <tcp_alloc+0x12c>
    2276:	6032      	str	r2, [r6, #0]
    2278:	6662      	str	r2, [r4, #100]	; 0x64
    227a:	65a2      	str	r2, [r4, #88]	; 0x58
    227c:	64e2      	str	r2, [r4, #76]	; 0x4c
    227e:	66a2      	str	r2, [r4, #104]	; 0x68
    2280:	4a38      	ldr	r2, [pc, #224]	; (2364 <tcp_alloc+0x11c>)
    2282:	2300      	movs	r3, #0
    2284:	f640 3168 	movw	r1, #2920	; 0xb68
    2288:	2506      	movs	r5, #6
    228a:	f04f 08ff 	mov.w	r8, #255	; 0xff
    228e:	f44f 7c06 	mov.w	r12, #536	; 0x218
    2292:	f64f 79ff 	movw	r9, #65535	; 0xffff
    2296:	7467      	strb	r7, [r4, #17]
    2298:	6320      	str	r0, [r4, #48]	; 0x30
    229a:	2701      	movs	r7, #1
    229c:	2009      	movs	r0, #9
    229e:	f8c4 b084 	str.w	r11, [r4, #132]	; 0x84
    22a2:	f8c4 a094 	str.w	r10, [r4, #148]	; 0x94
    22a6:	f8c4 2098 	str.w	r2, [r4, #152]	; 0x98
    22aa:	f8a4 106e 	strh.w	r1, [r4, #110]	; 0x6e
    22ae:	8521      	strh	r1, [r4, #40]	; 0x28
    22b0:	8561      	strh	r1, [r4, #42]	; 0x2a
    22b2:	f8a4 3070 	strh.w	r3, [r4, #112]	; 0x70
    22b6:	7263      	strb	r3, [r4, #9]
    22b8:	f8a4 3044 	strh.w	r3, [r4, #68]	; 0x44
    22bc:	f884 3034 	strb.w	r3, [r4, #52]	; 0x34
    22c0:	f884 30a5 	strb.w	r3, [r4, #165]	; 0xa5
    22c4:	f884 800a 	strb.w	r8, [r4, #10]
    22c8:	f8a4 c038 	strh.w	r12, [r4, #56]	; 0x38
    22cc:	f8a4 5048 	strh.w	r5, [r4, #72]	; 0x48
    22d0:	f8a4 5046 	strh.w	r5, [r4, #70]	; 0x46
    22d4:	f8a4 9036 	strh.w	r9, [r4, #54]	; 0x36
    22d8:	f8a4 7052 	strh.w	r7, [r4, #82]	; 0x52
    22dc:	f8c4 009c 	str.w	r0, [r4, #156]	; 0x9c
    22e0:	4620      	mov	r0, r4
    22e2:	e8bd 8ff8 	ldmia.w	sp!, {r3, r4, r5, r6, r7, r8, r9, r10, r11, pc}
    22e6:	4b20      	ldr	r3, [pc, #128]	; (2368 <tcp_alloc+0x120>)
    22e8:	681b      	ldr	r3, [r3, #0]
    22ea:	b18b      	cbz	r3, 2310 <tcp_alloc+0xc8>
    22ec:	4a1c      	ldr	r2, [pc, #112]	; (2360 <tcp_alloc+0x118>)
    22ee:	6b19      	ldr	r1, [r3, #48]	; 0x30
    22f0:	6814      	ldr	r4, [r2, #0]
    22f2:	4618      	mov	r0, r3
    22f4:	1a61      	subs	r1, r4, r1
    22f6:	e005      	b.n	2304 <tcp_alloc+0xbc>
    22f8:	6b1a      	ldr	r2, [r3, #48]	; 0x30
    22fa:	1aa2      	subs	r2, r4, r2
    22fc:	428a      	cmp	r2, r1
    22fe:	bf24      	itt	cs
    2300:	4611      	movcs	r1, r2
    2302:	4618      	movcs	r0, r3
    2304:	68db      	ldr	r3, [r3, #12]
    2306:	2b00      	cmp	r3, #0
    2308:	d1f6      	bne.n	22f8 <tcp_alloc+0xb0>
    230a:	2101      	movs	r1, #1
    230c:	f7ff ff40 	bl	2190 <tcp_abandon>
    2310:	2001      	movs	r0, #1
    2312:	f7ff f883 	bl	141c <memp_malloc>
    2316:	4604      	mov	r4, r0
    2318:	2800      	cmp	r0, #0
    231a:	d19e      	bne.n	225a <tcp_alloc+0x12>
    231c:	4b13      	ldr	r3, [pc, #76]	; (236c <tcp_alloc+0x124>)
    231e:	681b      	ldr	r3, [r3, #0]
    2320:	b1ab      	cbz	r3, 234e <tcp_alloc+0x106>
    2322:	4a0f      	ldr	r2, [pc, #60]	; (2360 <tcp_alloc+0x118>)
    2324:	217f      	movs	r1, #127	; 0x7f
    2326:	6816      	ldr	r6, [r2, #0]
    2328:	7c5a      	ldrb	r2, [r3, #17]
    232a:	4297      	cmp	r7, r2
    232c:	d308      	bcc.n	2340 <tcp_alloc+0xf8>
    232e:	428a      	cmp	r2, r1
    2330:	d806      	bhi.n	2340 <tcp_alloc+0xf8>
    2332:	6b1d      	ldr	r5, [r3, #48]	; 0x30
    2334:	1b75      	subs	r5, r6, r5
    2336:	42a5      	cmp	r5, r4
    2338:	d302      	bcc.n	2340 <tcp_alloc+0xf8>
    233a:	4611      	mov	r1, r2
    233c:	462c      	mov	r4, r5
    233e:	4618      	mov	r0, r3
    2340:	68db      	ldr	r3, [r3, #12]
    2342:	2b00      	cmp	r3, #0
    2344:	d1f0      	bne.n	2328 <tcp_alloc+0xe0>
    2346:	b110      	cbz	r0, 234e <tcp_alloc+0x106>
    2348:	2101      	movs	r1, #1
    234a:	f7ff ff21 	bl	2190 <tcp_abandon>
    234e:	2001      	movs	r0, #1
    2350:	f7ff f864 	bl	141c <memp_malloc>
    2354:	4604      	mov	r4, r0
    2356:	2800      	cmp	r0, #0
    2358:	d0c2      	beq.n	22e0 <tcp_alloc+0x98>
    235a:	e77e      	b.n	225a <tcp_alloc+0x12>
    235c:	100000cc 	.word	0x100000cc
    2360:	10000fc0 	.word	0x10000fc0
    2364:	000124f8 	.word	0x000124f8
    2368:	10000fd0 	.word	0x10000fd0
    236c:	10000fbc 	.word	0x10000fbc
    2370:	00002081 	.word	0x00002081
    2374:	006ddd00 	.word	0x006ddd00

00002378 <tcp_new>:
    2378:	2040      	movs	r0, #64	; 0x40
    237a:	f7ff bf65 	b.w	2248 <tcp_alloc>
    237e:	bf00      	nop

00002380 <tcp_eff_send_mss>:
    2380:	b510      	push	{r4, lr}
    2382:	4604      	mov	r4, r0
    2384:	4608      	mov	r0, r1
    2386:	f001 f969 	bl	365c <ip_route>
    238a:	b130      	cbz	r0, 239a <tcp_eff_send_mss+0x1a>
    238c:	8e03      	ldrh	r3, [r0, #48]	; 0x30
    238e:	b123      	cbz	r3, 239a <tcp_eff_send_mss+0x1a>
    2390:	3b28      	subs	r3, #40	; 0x28
    2392:	b29b      	uxth	r3, r3
    2394:	429c      	cmp	r4, r3
    2396:	bf28      	it	cs
    2398:	461c      	movcs	r4, r3
    239a:	4620      	mov	r0, r4
    239c:	bd10      	pop	{r4, pc}
    239e:	bf00      	nop

000023a0 <tcp_connect>:
    23a0:	e92d 43f8 	stmdb	sp!, {r3, r4, r5, r6, r7, r8, r9, lr}
    23a4:	4604      	mov	r4, r0
    23a6:	7c00      	ldrb	r0, [r0, #16]
    23a8:	460d      	mov	r5, r1
    23aa:	4699      	mov	r9, r3
    23ac:	2800      	cmp	r0, #0
    23ae:	d170      	bne.n	2492 <tcp_connect+0xf2>
    23b0:	2900      	cmp	r1, #0
    23b2:	d052      	beq.n	245a <tcp_connect+0xba>
    23b4:	680b      	ldr	r3, [r1, #0]
    23b6:	83e2      	strh	r2, [r4, #30]
    23b8:	6063      	str	r3, [r4, #4]
    23ba:	b10c      	cbz	r4, 23c0 <tcp_connect+0x20>
    23bc:	6823      	ldr	r3, [r4, #0]
    23be:	b933      	cbnz	r3, 23ce <tcp_connect+0x2e>
    23c0:	1d20      	adds	r0, r4, #4
    23c2:	f001 f94b 	bl	365c <ip_route>
    23c6:	2800      	cmp	r0, #0
    23c8:	d068      	beq.n	249c <tcp_connect+0xfc>
    23ca:	6843      	ldr	r3, [r0, #4]
    23cc:	6023      	str	r3, [r4, #0]
    23ce:	f8b4 801c 	ldrh.w	r8, [r4, #28]
    23d2:	f1b8 0f00 	cmp.w	r8, #0
    23d6:	d054      	beq.n	2482 <tcp_connect+0xe2>
    23d8:	4b31      	ldr	r3, [pc, #196]	; (24a0 <tcp_connect+0x100>)
    23da:	4f32      	ldr	r7, [pc, #200]	; (24a4 <tcp_connect+0x104>)
    23dc:	6819      	ldr	r1, [r3, #0]
    23de:	683a      	ldr	r2, [r7, #0]
    23e0:	2300      	movs	r3, #0
    23e2:	440a      	add	r2, r1
    23e4:	f102 3eff 	add.w	lr, r2, #4294967295	; 0xffffffff
    23e8:	f640 3668 	movw	r6, #2920	; 0xb68
    23ec:	f44f 7006 	mov.w	r0, #536	; 0x218
    23f0:	4629      	mov	r1, r5
    23f2:	65a2      	str	r2, [r4, #88]	; 0x58
    23f4:	6263      	str	r3, [r4, #36]	; 0x24
    23f6:	62e3      	str	r3, [r4, #44]	; 0x2c
    23f8:	f8c4 e04c 	str.w	lr, [r4, #76]	; 0x4c
    23fc:	f8c4 e068 	str.w	lr, [r4, #104]	; 0x68
    2400:	8526      	strh	r6, [r4, #40]	; 0x28
    2402:	8566      	strh	r6, [r4, #42]	; 0x2a
    2404:	f8a4 605c 	strh.w	r6, [r4, #92]	; 0x5c
    2408:	8720      	strh	r0, [r4, #56]	; 0x38
    240a:	603a      	str	r2, [r7, #0]
    240c:	f7ff ffb8 	bl	2380 <tcp_eff_send_mss>
    2410:	eb00 0280 	add.w	r2, r0, r0, lsl #2
    2414:	0052      	lsls	r2, r2, #1
    2416:	2301      	movs	r3, #1
    2418:	8720      	strh	r0, [r4, #56]	; 0x38
    241a:	f8a4 2054 	strh.w	r2, [r4, #84]	; 0x54
    241e:	f8c4 9088 	str.w	r9, [r4, #136]	; 0x88
    2422:	f8a4 3052 	strh.w	r3, [r4, #82]	; 0x52
    2426:	4620      	mov	r0, r4
    2428:	2102      	movs	r1, #2
    242a:	f000 fa6b 	bl	2904 <tcp_enqueue_flags>
    242e:	b9a8      	cbnz	r0, 245c <tcp_connect+0xbc>
    2430:	2302      	movs	r3, #2
    2432:	7423      	strb	r3, [r4, #16]
    2434:	f1b8 0f00 	cmp.w	r8, #0
    2438:	d016      	beq.n	2468 <tcp_connect+0xc8>
    243a:	4b1b      	ldr	r3, [pc, #108]	; (24a8 <tcp_connect+0x108>)
    243c:	681a      	ldr	r2, [r3, #0]
    243e:	42a2      	cmp	r2, r4
    2440:	d029      	beq.n	2496 <tcp_connect+0xf6>
    2442:	491a      	ldr	r1, [pc, #104]	; (24ac <tcp_connect+0x10c>)
    2444:	600a      	str	r2, [r1, #0]
    2446:	b17a      	cbz	r2, 2468 <tcp_connect+0xc8>
    2448:	68d3      	ldr	r3, [r2, #12]
    244a:	42a3      	cmp	r3, r4
    244c:	d01f      	beq.n	248e <tcp_connect+0xee>
    244e:	b1e3      	cbz	r3, 248a <tcp_connect+0xea>
    2450:	68da      	ldr	r2, [r3, #12]
    2452:	42a2      	cmp	r2, r4
    2454:	d005      	beq.n	2462 <tcp_connect+0xc2>
    2456:	4613      	mov	r3, r2
    2458:	e7f9      	b.n	244e <tcp_connect+0xae>
    245a:	20fa      	movs	r0, #250	; 0xfa
    245c:	b240      	sxtb	r0, r0
    245e:	e8bd 83f8 	ldmia.w	sp!, {r3, r4, r5, r6, r7, r8, r9, pc}
    2462:	600b      	str	r3, [r1, #0]
    2464:	68e1      	ldr	r1, [r4, #12]
    2466:	60d9      	str	r1, [r3, #12]
    2468:	4b11      	ldr	r3, [pc, #68]	; (24b0 <tcp_connect+0x110>)
    246a:	681a      	ldr	r2, [r3, #0]
    246c:	601c      	str	r4, [r3, #0]
    246e:	60e2      	str	r2, [r4, #12]
    2470:	f000 fd94 	bl	2f9c <tcp_timer_needed>
    2474:	4620      	mov	r0, r4
    2476:	f000 fae3 	bl	2a40 <tcp_output>
    247a:	2000      	movs	r0, #0
    247c:	b240      	sxtb	r0, r0
    247e:	e8bd 83f8 	ldmia.w	sp!, {r3, r4, r5, r6, r7, r8, r9, pc}
    2482:	f7ff faff 	bl	1a84 <tcp_new_port>
    2486:	83a0      	strh	r0, [r4, #28]
    2488:	e7a6      	b.n	23d8 <tcp_connect+0x38>
    248a:	600b      	str	r3, [r1, #0]
    248c:	e7ec      	b.n	2468 <tcp_connect+0xc8>
    248e:	4613      	mov	r3, r2
    2490:	e7e8      	b.n	2464 <tcp_connect+0xc4>
    2492:	20f7      	movs	r0, #247	; 0xf7
    2494:	e7e2      	b.n	245c <tcp_connect+0xbc>
    2496:	68e2      	ldr	r2, [r4, #12]
    2498:	601a      	str	r2, [r3, #0]
    249a:	e7e5      	b.n	2468 <tcp_connect+0xc8>
    249c:	20fc      	movs	r0, #252	; 0xfc
    249e:	e7dd      	b.n	245c <tcp_connect+0xbc>
    24a0:	10000fc0 	.word	0x10000fc0
    24a4:	100000cc 	.word	0x100000cc
    24a8:	10000fcc 	.word	0x10000fcc
    24ac:	10000fc8 	.word	0x10000fc8
    24b0:	10000fbc 	.word	0x10000fbc

000024b4 <tcp_create_segment.isra.0>:
    24b4:	e92d 47f0 	stmdb	sp!, {r4, r5, r6, r7, r8, r9, r10, lr}
    24b8:	f89d 5024 	ldrb.w	r5, [sp, #36]	; 0x24
    24bc:	4682      	mov	r10, r0
    24be:	f015 0f01 	tst.w	r5, #1
    24c2:	bf0c      	ite	eq
    24c4:	2400      	moveq	r4, #0
    24c6:	2404      	movne	r4, #4
    24c8:	2003      	movs	r0, #3
    24ca:	f015 0f02 	tst.w	r5, #2
    24ce:	bf0c      	ite	eq
    24d0:	2700      	moveq	r7, #0
    24d2:	270c      	movne	r7, #12
    24d4:	4689      	mov	r9, r1
    24d6:	4616      	mov	r6, r2
    24d8:	4698      	mov	r8, r3
    24da:	f7fe ff9f 	bl	141c <memp_malloc>
    24de:	4427      	add	r7, r4
    24e0:	4604      	mov	r4, r0
    24e2:	b380      	cbz	r0, 2546 <tcp_create_segment.isra.0+0x92>
    24e4:	7345      	strb	r5, [r0, #13]
    24e6:	8933      	ldrh	r3, [r6, #8]
    24e8:	2500      	movs	r5, #0
    24ea:	1bdb      	subs	r3, r3, r7
    24ec:	6046      	str	r6, [r0, #4]
    24ee:	8103      	strh	r3, [r0, #8]
    24f0:	2114      	movs	r1, #20
    24f2:	4630      	mov	r0, r6
    24f4:	6025      	str	r5, [r4, #0]
    24f6:	8165      	strh	r5, [r4, #10]
    24f8:	7325      	strb	r5, [r4, #12]
    24fa:	f7ff f8d9 	bl	16b0 <pbuf_header>
    24fe:	b9e0      	cbnz	r0, 253a <tcp_create_segment.isra.0+0x86>
    2500:	6863      	ldr	r3, [r4, #4]
    2502:	f8ba 1000 	ldrh.w	r1, [r10]
    2506:	685a      	ldr	r2, [r3, #4]
    2508:	6122      	str	r2, [r4, #16]
    250a:	ba4b      	rev16	r3, r1
    250c:	8013      	strh	r3, [r2, #0]
    250e:	f8b9 1000 	ldrh.w	r1, [r9]
    2512:	ba49      	rev16	r1, r1
    2514:	9808      	ldr	r0, [sp, #32]
    2516:	02bf      	lsls	r7, r7, #10
    2518:	f507 47a0 	add.w	r7, r7, #20480	; 0x5000
    251c:	ba03      	rev	r3, r0
    251e:	ea47 0808 	orr.w	r8, r7, r8
    2522:	8051      	strh	r1, [r2, #2]
    2524:	6053      	str	r3, [r2, #4]
    2526:	fa98 f898 	rev16.w	r8, r8
    252a:	2300      	movs	r3, #0
    252c:	f8a2 800c 	strh.w	r8, [r2, #12]
    2530:	4620      	mov	r0, r4
    2532:	7493      	strb	r3, [r2, #18]
    2534:	74d3      	strb	r3, [r2, #19]
    2536:	e8bd 87f0 	ldmia.w	sp!, {r4, r5, r6, r7, r8, r9, r10, pc}
    253a:	4620      	mov	r0, r4
    253c:	f7ff fb04 	bl	1b48 <tcp_seg_free>
    2540:	4628      	mov	r0, r5
    2542:	e8bd 87f0 	ldmia.w	sp!, {r4, r5, r6, r7, r8, r9, r10, pc}
    2546:	4630      	mov	r0, r6
    2548:	f7ff f8e8 	bl	171c <pbuf_free>
    254c:	4620      	mov	r0, r4
    254e:	e8bd 87f0 	ldmia.w	sp!, {r4, r5, r6, r7, r8, r9, r10, pc}
    2552:	bf00      	nop

00002554 <tcp_output_alloc_header.constprop.1>:
    2554:	3114      	adds	r1, #20
    2556:	b570      	push	{r4, r5, r6, lr}
    2558:	b289      	uxth	r1, r1
    255a:	4604      	mov	r4, r0
    255c:	4615      	mov	r5, r2
    255e:	2001      	movs	r0, #1
    2560:	2200      	movs	r2, #0
    2562:	f7ff f911 	bl	1788 <pbuf_alloc>
    2566:	b1c0      	cbz	r0, 259a <tcp_output_alloc_header.constprop.1+0x46>
    2568:	6843      	ldr	r3, [r0, #4]
    256a:	8ba2      	ldrh	r2, [r4, #28]
    256c:	ba52      	rev16	r2, r2
    256e:	801a      	strh	r2, [r3, #0]
    2570:	8be2      	ldrh	r2, [r4, #30]
    2572:	ba52      	rev16	r2, r2
    2574:	6a61      	ldr	r1, [r4, #36]	; 0x24
    2576:	805a      	strh	r2, [r3, #2]
    2578:	ba0a      	rev	r2, r1
    257a:	609a      	str	r2, [r3, #8]
    257c:	605d      	str	r5, [r3, #4]
    257e:	f245 0210 	movw	r2, #20496	; 0x5010
    2582:	ba52      	rev16	r2, r2
    2584:	819a      	strh	r2, [r3, #12]
    2586:	8d65      	ldrh	r5, [r4, #42]	; 0x2a
    2588:	ba6e      	rev16	r6, r5
    258a:	2200      	movs	r2, #0
    258c:	4429      	add	r1, r5
    258e:	81de      	strh	r6, [r3, #14]
    2590:	741a      	strb	r2, [r3, #16]
    2592:	745a      	strb	r2, [r3, #17]
    2594:	749a      	strb	r2, [r3, #18]
    2596:	74da      	strb	r2, [r3, #19]
    2598:	62e1      	str	r1, [r4, #44]	; 0x2c
    259a:	bd70      	pop	{r4, r5, r6, pc}

0000259c <tcp_write>:
    259c:	e92d 4ff0 	stmdb	sp!, {r4, r5, r6, r7, r8, r9, r10, r11, lr}
    25a0:	b08f      	sub	sp, #60	; 0x3c
    25a2:	9105      	str	r1, [sp, #20]
    25a4:	4607      	mov	r7, r0
    25a6:	9203      	str	r2, [sp, #12]
    25a8:	9309      	str	r3, [sp, #36]	; 0x24
    25aa:	2900      	cmp	r1, #0
    25ac:	f000 81a0 	beq.w	28f0 <tcp_write+0x354>
    25b0:	7c03      	ldrb	r3, [r0, #16]
    25b2:	2b07      	cmp	r3, #7
    25b4:	d007      	beq.n	25c6 <tcp_write+0x2a>
    25b6:	3b02      	subs	r3, #2
    25b8:	2b02      	cmp	r3, #2
    25ba:	d904      	bls.n	25c6 <tcp_write+0x2a>
    25bc:	20f3      	movs	r0, #243	; 0xf3
    25be:	b240      	sxtb	r0, r0
    25c0:	b00f      	add	sp, #60	; 0x3c
    25c2:	e8bd 8ff0 	ldmia.w	sp!, {r4, r5, r6, r7, r8, r9, r10, r11, pc}
    25c6:	9c03      	ldr	r4, [sp, #12]
    25c8:	2c00      	cmp	r4, #0
    25ca:	f000 8113 	beq.w	27f4 <tcp_write+0x258>
    25ce:	f8b7 306e 	ldrh.w	r3, [r7, #110]	; 0x6e
    25d2:	42a3      	cmp	r3, r4
    25d4:	f0c0 816a 	bcc.w	28ac <tcp_write+0x310>
    25d8:	f8b7 9070 	ldrh.w	r9, [r7, #112]	; 0x70
    25dc:	f1b9 0f03 	cmp.w	r9, #3
    25e0:	f200 8164 	bhi.w	28ac <tcp_write+0x310>
    25e4:	6f7c      	ldr	r4, [r7, #116]	; 0x74
    25e6:	9408      	str	r4, [sp, #32]
    25e8:	2c00      	cmp	r4, #0
    25ea:	f000 810a 	beq.w	2802 <tcp_write+0x266>
    25ee:	9b08      	ldr	r3, [sp, #32]
    25f0:	e000      	b.n	25f4 <tcp_write+0x58>
    25f2:	4633      	mov	r3, r6
    25f4:	681e      	ldr	r6, [r3, #0]
    25f6:	2e00      	cmp	r6, #0
    25f8:	d1fb      	bne.n	25f2 <tcp_write+0x56>
    25fa:	9308      	str	r3, [sp, #32]
    25fc:	7b5b      	ldrb	r3, [r3, #13]
    25fe:	9c08      	ldr	r4, [sp, #32]
    2600:	f013 0f01 	tst.w	r3, #1
    2604:	bf0c      	ite	eq
    2606:	2100      	moveq	r1, #0
    2608:	2104      	movne	r1, #4
    260a:	f013 0f02 	tst.w	r3, #2
    260e:	8923      	ldrh	r3, [r4, #8]
    2610:	9c03      	ldr	r4, [sp, #12]
    2612:	8f38      	ldrh	r0, [r7, #56]	; 0x38
    2614:	bf0c      	ite	eq
    2616:	2200      	moveq	r2, #0
    2618:	220c      	movne	r2, #12
    261a:	bb1c      	cbnz	r4, 2664 <tcp_write+0xc8>
    261c:	9b03      	ldr	r3, [sp, #12]
    261e:	9c08      	ldr	r4, [sp, #32]
    2620:	2c00      	cmp	r4, #0
    2622:	f000 8163 	beq.w	28ec <tcp_write+0x350>
    2626:	9c08      	ldr	r4, [sp, #32]
    2628:	6026      	str	r6, [r4, #0]
    262a:	6eba      	ldr	r2, [r7, #104]	; 0x68
    262c:	f8b7 106e 	ldrh.w	r1, [r7, #110]	; 0x6e
    2630:	9c03      	ldr	r4, [sp, #12]
    2632:	f8a7 9070 	strh.w	r9, [r7, #112]	; 0x70
    2636:	4422      	add	r2, r4
    2638:	1b09      	subs	r1, r1, r4
    263a:	66ba      	str	r2, [r7, #104]	; 0x68
    263c:	f8a7 106e 	strh.w	r1, [r7, #110]	; 0x6e
    2640:	2b00      	cmp	r3, #0
    2642:	f000 812c 	beq.w	289e <tcp_write+0x302>
    2646:	691b      	ldr	r3, [r3, #16]
    2648:	2b00      	cmp	r3, #0
    264a:	f000 8128 	beq.w	289e <tcp_write+0x302>
    264e:	9c09      	ldr	r4, [sp, #36]	; 0x24
    2650:	07a2      	lsls	r2, r4, #30
    2652:	f100 8124 	bmi.w	289e <tcp_write+0x302>
    2656:	2208      	movs	r2, #8
    2658:	ba52      	rev16	r2, r2
    265a:	8999      	ldrh	r1, [r3, #12]
    265c:	2000      	movs	r0, #0
    265e:	430a      	orrs	r2, r1
    2660:	819a      	strh	r2, [r3, #12]
    2662:	e7ac      	b.n	25be <tcp_write+0x22>
    2664:	1ac0      	subs	r0, r0, r3
    2666:	1a41      	subs	r1, r0, r1
    2668:	1a8a      	subs	r2, r1, r2
    266a:	b292      	uxth	r2, r2
    266c:	2a00      	cmp	r2, #0
    266e:	f040 80e0 	bne.w	2832 <tcp_write+0x296>
    2672:	960d      	str	r6, [sp, #52]	; 0x34
    2674:	960c      	str	r6, [sp, #48]	; 0x30
    2676:	960b      	str	r6, [sp, #44]	; 0x2c
    2678:	960a      	str	r6, [sp, #40]	; 0x28
    267a:	9c03      	ldr	r4, [sp, #12]
    267c:	980b      	ldr	r0, [sp, #44]	; 0x2c
    267e:	4284      	cmp	r4, r0
    2680:	f240 813c 	bls.w	28fc <tcp_write+0x360>
    2684:	9c09      	ldr	r4, [sp, #36]	; 0x24
    2686:	2600      	movs	r6, #0
    2688:	f004 0801 	and.w	r8, r4, #1
    268c:	4604      	mov	r4, r0
    268e:	f107 001c 	add.w	r0, r7, #28
    2692:	9604      	str	r6, [sp, #16]
    2694:	9606      	str	r6, [sp, #24]
    2696:	9007      	str	r0, [sp, #28]
    2698:	4646      	mov	r6, r8
    269a:	e044      	b.n	2726 <tcp_write+0x18a>
    269c:	2000      	movs	r0, #0
    269e:	4602      	mov	r2, r0
    26a0:	4629      	mov	r1, r5
    26a2:	f7ff f871 	bl	1788 <pbuf_alloc>
    26a6:	4683      	mov	r11, r0
    26a8:	2800      	cmp	r0, #0
    26aa:	f000 80ac 	beq.w	2806 <tcp_write+0x26a>
    26ae:	9905      	ldr	r1, [sp, #20]
    26b0:	6840      	ldr	r0, [r0, #4]
    26b2:	4421      	add	r1, r4
    26b4:	462a      	mov	r2, r5
    26b6:	f000 ffc5 	bl	3644 <lwip_chksum_copy>
    26ba:	f015 0a01 	ands.w	r10, r5, #1
    26be:	4680      	mov	r8, r0
    26c0:	d005      	beq.n	26ce <tcp_write+0x132>
    26c2:	fa90 f890 	rev16.w	r8, r0
    26c6:	f04f 0a01 	mov.w	r10, #1
    26ca:	fa1f f888 	uxth.w	r8, r8
    26ce:	4658      	mov	r0, r11
    26d0:	f7ff f918 	bl	1904 <pbuf_clen>
    26d4:	4448      	add	r0, r9
    26d6:	fa1f f980 	uxth.w	r9, r0
    26da:	f1b9 0f04 	cmp.w	r9, #4
    26de:	f200 80d4 	bhi.w	288a <tcp_write+0x2ee>
    26e2:	6eb9      	ldr	r1, [r7, #104]	; 0x68
    26e4:	2200      	movs	r2, #0
    26e6:	4421      	add	r1, r4
    26e8:	9201      	str	r2, [sp, #4]
    26ea:	9100      	str	r1, [sp, #0]
    26ec:	465a      	mov	r2, r11
    26ee:	9807      	ldr	r0, [sp, #28]
    26f0:	f107 011e 	add.w	r1, r7, #30
    26f4:	2300      	movs	r3, #0
    26f6:	f7ff fedd 	bl	24b4 <tcp_create_segment.isra.0>
    26fa:	2800      	cmp	r0, #0
    26fc:	f000 8083 	beq.w	2806 <tcp_write+0x26a>
    2700:	7b43      	ldrb	r3, [r0, #13]
    2702:	f8a0 800a 	strh.w	r8, [r0, #10]
    2706:	f043 0304 	orr.w	r3, r3, #4
    270a:	7343      	strb	r3, [r0, #13]
    270c:	9b06      	ldr	r3, [sp, #24]
    270e:	f880 a00c 	strb.w	r10, [r0, #12]
    2712:	2b00      	cmp	r3, #0
    2714:	d033      	beq.n	277e <tcp_write+0x1e2>
    2716:	442c      	add	r4, r5
    2718:	9a03      	ldr	r2, [sp, #12]
    271a:	9904      	ldr	r1, [sp, #16]
    271c:	b2a4      	uxth	r4, r4
    271e:	42a2      	cmp	r2, r4
    2720:	6008      	str	r0, [r1, #0]
    2722:	d932      	bls.n	278a <tcp_write+0x1ee>
    2724:	9004      	str	r0, [sp, #16]
    2726:	9903      	ldr	r1, [sp, #12]
    2728:	8f3b      	ldrh	r3, [r7, #56]	; 0x38
    272a:	1b0d      	subs	r5, r1, r4
    272c:	b2ad      	uxth	r5, r5
    272e:	429d      	cmp	r5, r3
    2730:	bf28      	it	cs
    2732:	461d      	movcs	r5, r3
    2734:	2e00      	cmp	r6, #0
    2736:	d1b1      	bne.n	269c <tcp_write+0x100>
    2738:	4630      	mov	r0, r6
    273a:	4629      	mov	r1, r5
    273c:	2201      	movs	r2, #1
    273e:	f7ff f823 	bl	1788 <pbuf_alloc>
    2742:	4682      	mov	r10, r0
    2744:	2800      	cmp	r0, #0
    2746:	d05e      	beq.n	2806 <tcp_write+0x26a>
    2748:	f8dd 8014 	ldr.w	r8, [sp, #20]
    274c:	4629      	mov	r1, r5
    274e:	44a0      	add	r8, r4
    2750:	4640      	mov	r0, r8
    2752:	f000 ff4f 	bl	35f4 <inet_chksum>
    2756:	f8ca 8004 	str.w	r8, [r10, #4]
    275a:	4631      	mov	r1, r6
    275c:	ea6f 0800 	mvn.w	r8, r0
    2760:	4632      	mov	r2, r6
    2762:	4630      	mov	r0, r6
    2764:	f7ff f810 	bl	1788 <pbuf_alloc>
    2768:	fa1f f888 	uxth.w	r8, r8
    276c:	4683      	mov	r11, r0
    276e:	2800      	cmp	r0, #0
    2770:	f000 8097 	beq.w	28a2 <tcp_write+0x306>
    2774:	4651      	mov	r1, r10
    2776:	f7ff f8dd 	bl	1934 <pbuf_cat>
    277a:	46b2      	mov	r10, r6
    277c:	e7a7      	b.n	26ce <tcp_write+0x132>
    277e:	442c      	add	r4, r5
    2780:	9a03      	ldr	r2, [sp, #12]
    2782:	b2a4      	uxth	r4, r4
    2784:	42a2      	cmp	r2, r4
    2786:	9006      	str	r0, [sp, #24]
    2788:	d8cc      	bhi.n	2724 <tcp_write+0x188>
    278a:	9e06      	ldr	r6, [sp, #24]
    278c:	4603      	mov	r3, r0
    278e:	9c0a      	ldr	r4, [sp, #40]	; 0x28
    2790:	2c00      	cmp	r4, #0
    2792:	f43f af44 	beq.w	261e <tcp_write+0x82>
    2796:	9c08      	ldr	r4, [sp, #32]
    2798:	990a      	ldr	r1, [sp, #40]	; 0x28
    279a:	6860      	ldr	r0, [r4, #4]
    279c:	9302      	str	r3, [sp, #8]
    279e:	f7ff f8c9 	bl	1934 <pbuf_cat>
    27a2:	9c0a      	ldr	r4, [sp, #40]	; 0x28
    27a4:	9b02      	ldr	r3, [sp, #8]
    27a6:	8921      	ldrh	r1, [r4, #8]
    27a8:	9c08      	ldr	r4, [sp, #32]
    27aa:	8922      	ldrh	r2, [r4, #8]
    27ac:	440a      	add	r2, r1
    27ae:	8122      	strh	r2, [r4, #8]
    27b0:	9c0b      	ldr	r4, [sp, #44]	; 0x2c
    27b2:	2c00      	cmp	r4, #0
    27b4:	f43f af33 	beq.w	261e <tcp_write+0x82>
    27b8:	9c0d      	ldr	r4, [sp, #52]	; 0x34
    27ba:	b11c      	cbz	r4, 27c4 <tcp_write+0x228>
    27bc:	9c0c      	ldr	r4, [sp, #48]	; 0x30
    27be:	ba62      	rev16	r2, r4
    27c0:	b292      	uxth	r2, r2
    27c2:	920c      	str	r2, [sp, #48]	; 0x30
    27c4:	9c08      	ldr	r4, [sp, #32]
    27c6:	8962      	ldrh	r2, [r4, #10]
    27c8:	9c0c      	ldr	r4, [sp, #48]	; 0x30
    27ca:	4422      	add	r2, r4
    27cc:	9c0b      	ldr	r4, [sp, #44]	; 0x2c
    27ce:	eb02 4212 	add.w	r2, r2, r2, lsr #16
    27d2:	07e1      	lsls	r1, r4, #31
    27d4:	b292      	uxth	r2, r2
    27d6:	d506      	bpl.n	27e6 <tcp_write+0x24a>
    27d8:	9c08      	ldr	r4, [sp, #32]
    27da:	7b21      	ldrb	r1, [r4, #12]
    27dc:	f1c1 0101 	rsb	r1, r1, #1
    27e0:	7321      	strb	r1, [r4, #12]
    27e2:	ba52      	rev16	r2, r2
    27e4:	b292      	uxth	r2, r2
    27e6:	9c08      	ldr	r4, [sp, #32]
    27e8:	7b61      	ldrb	r1, [r4, #13]
    27ea:	8162      	strh	r2, [r4, #10]
    27ec:	f041 0204 	orr.w	r2, r1, #4
    27f0:	7362      	strb	r2, [r4, #13]
    27f2:	e714      	b.n	261e <tcp_write+0x82>
    27f4:	6f7c      	ldr	r4, [r7, #116]	; 0x74
    27f6:	f8b7 9070 	ldrh.w	r9, [r7, #112]	; 0x70
    27fa:	9408      	str	r4, [sp, #32]
    27fc:	2c00      	cmp	r4, #0
    27fe:	f47f aef6 	bne.w	25ee <tcp_write+0x52>
    2802:	9e08      	ldr	r6, [sp, #32]
    2804:	e735      	b.n	2672 <tcp_write+0xd6>
    2806:	9e06      	ldr	r6, [sp, #24]
    2808:	f897 3020 	ldrb.w	r3, [r7, #32]
    280c:	9c0a      	ldr	r4, [sp, #40]	; 0x28
    280e:	f063 037f 	orn	r3, r3, #127	; 0x7f
    2812:	f887 3020 	strb.w	r3, [r7, #32]
    2816:	b114      	cbz	r4, 281e <tcp_write+0x282>
    2818:	4620      	mov	r0, r4
    281a:	f7fe ff7f 	bl	171c <pbuf_free>
    281e:	2e00      	cmp	r6, #0
    2820:	d038      	beq.n	2894 <tcp_write+0x2f8>
    2822:	4630      	mov	r0, r6
    2824:	f7ff f99e 	bl	1b64 <tcp_segs_free>
    2828:	20ff      	movs	r0, #255	; 0xff
    282a:	b240      	sxtb	r0, r0
    282c:	b00f      	add	sp, #60	; 0x3c
    282e:	e8bd 8ff0 	ldmia.w	sp!, {r4, r5, r6, r7, r8, r9, r10, r11, pc}
    2832:	2b00      	cmp	r3, #0
    2834:	f43f af1d 	beq.w	2672 <tcp_write+0xd6>
    2838:	42a2      	cmp	r2, r4
    283a:	bfb8      	it	lt
    283c:	4614      	movlt	r4, r2
    283e:	940b      	str	r4, [sp, #44]	; 0x2c
    2840:	9c09      	ldr	r4, [sp, #36]	; 0x24
    2842:	07e0      	lsls	r0, r4, #31
    2844:	d43a      	bmi.n	28bc <tcp_write+0x320>
    2846:	2003      	movs	r0, #3
    2848:	990b      	ldr	r1, [sp, #44]	; 0x2c
    284a:	2201      	movs	r2, #1
    284c:	f7fe ff9c 	bl	1788 <pbuf_alloc>
    2850:	900a      	str	r0, [sp, #40]	; 0x28
    2852:	b358      	cbz	r0, 28ac <tcp_write+0x310>
    2854:	9805      	ldr	r0, [sp, #20]
    2856:	990b      	ldr	r1, [sp, #44]	; 0x2c
    2858:	f000 fecc 	bl	35f4 <inet_chksum>
    285c:	9c0b      	ldr	r4, [sp, #44]	; 0x2c
    285e:	43c0      	mvns	r0, r0
    2860:	b280      	uxth	r0, r0
    2862:	f014 0301 	ands.w	r3, r4, #1
    2866:	900c      	str	r0, [sp, #48]	; 0x30
    2868:	d044      	beq.n	28f4 <tcp_write+0x358>
    286a:	ba43      	rev16	r3, r0
    286c:	2401      	movs	r4, #1
    286e:	b29b      	uxth	r3, r3
    2870:	940d      	str	r4, [sp, #52]	; 0x34
    2872:	930c      	str	r3, [sp, #48]	; 0x30
    2874:	9c05      	ldr	r4, [sp, #20]
    2876:	980a      	ldr	r0, [sp, #40]	; 0x28
    2878:	6044      	str	r4, [r0, #4]
    287a:	980a      	ldr	r0, [sp, #40]	; 0x28
    287c:	f7ff f842 	bl	1904 <pbuf_clen>
    2880:	4448      	add	r0, r9
    2882:	fa1f f980 	uxth.w	r9, r0
    2886:	9e08      	ldr	r6, [sp, #32]
    2888:	e6f7      	b.n	267a <tcp_write+0xde>
    288a:	4658      	mov	r0, r11
    288c:	9e06      	ldr	r6, [sp, #24]
    288e:	f7fe ff45 	bl	171c <pbuf_free>
    2892:	e7b9      	b.n	2808 <tcp_write+0x26c>
    2894:	20ff      	movs	r0, #255	; 0xff
    2896:	b240      	sxtb	r0, r0
    2898:	b00f      	add	sp, #60	; 0x3c
    289a:	e8bd 8ff0 	ldmia.w	sp!, {r4, r5, r6, r7, r8, r9, r10, r11, pc}
    289e:	2000      	movs	r0, #0
    28a0:	e68d      	b.n	25be <tcp_write+0x22>
    28a2:	4650      	mov	r0, r10
    28a4:	9e06      	ldr	r6, [sp, #24]
    28a6:	f7fe ff39 	bl	171c <pbuf_free>
    28aa:	e7ad      	b.n	2808 <tcp_write+0x26c>
    28ac:	f897 3020 	ldrb.w	r3, [r7, #32]
    28b0:	20ff      	movs	r0, #255	; 0xff
    28b2:	f063 037f 	orn	r3, r3, #127	; 0x7f
    28b6:	f887 3020 	strb.w	r3, [r7, #32]
    28ba:	e680      	b.n	25be <tcp_write+0x22>
    28bc:	4632      	mov	r2, r6
    28be:	2003      	movs	r0, #3
    28c0:	990b      	ldr	r1, [sp, #44]	; 0x2c
    28c2:	f7fe ff61 	bl	1788 <pbuf_alloc>
    28c6:	900a      	str	r0, [sp, #40]	; 0x28
    28c8:	2800      	cmp	r0, #0
    28ca:	d0ef      	beq.n	28ac <tcp_write+0x310>
    28cc:	6840      	ldr	r0, [r0, #4]
    28ce:	9905      	ldr	r1, [sp, #20]
    28d0:	9a0b      	ldr	r2, [sp, #44]	; 0x2c
    28d2:	f000 feb7 	bl	3644 <lwip_chksum_copy>
    28d6:	9c0b      	ldr	r4, [sp, #44]	; 0x2c
    28d8:	900c      	str	r0, [sp, #48]	; 0x30
    28da:	f014 0301 	ands.w	r3, r4, #1
    28de:	d00b      	beq.n	28f8 <tcp_write+0x35c>
    28e0:	ba43      	rev16	r3, r0
    28e2:	2401      	movs	r4, #1
    28e4:	b29b      	uxth	r3, r3
    28e6:	940d      	str	r4, [sp, #52]	; 0x34
    28e8:	930c      	str	r3, [sp, #48]	; 0x30
    28ea:	e7c6      	b.n	287a <tcp_write+0x2de>
    28ec:	677e      	str	r6, [r7, #116]	; 0x74
    28ee:	e69c      	b.n	262a <tcp_write+0x8e>
    28f0:	20f2      	movs	r0, #242	; 0xf2
    28f2:	e664      	b.n	25be <tcp_write+0x22>
    28f4:	930d      	str	r3, [sp, #52]	; 0x34
    28f6:	e7bd      	b.n	2874 <tcp_write+0x2d8>
    28f8:	930d      	str	r3, [sp, #52]	; 0x34
    28fa:	e7be      	b.n	287a <tcp_write+0x2de>
    28fc:	4633      	mov	r3, r6
    28fe:	2600      	movs	r6, #0
    2900:	e745      	b.n	278e <tcp_write+0x1f2>
    2902:	bf00      	nop

00002904 <tcp_enqueue_flags>:
    2904:	b570      	push	{r4, r5, r6, lr}
    2906:	f8b0 3070 	ldrh.w	r3, [r0, #112]	; 0x70
    290a:	b082      	sub	sp, #8
    290c:	2b03      	cmp	r3, #3
    290e:	4605      	mov	r5, r0
    2910:	460e      	mov	r6, r1
    2912:	d849      	bhi.n	29a8 <tcp_enqueue_flags+0xa4>
    2914:	f001 0302 	and.w	r3, r1, #2
    2918:	f003 04ff 	and.w	r4, r3, #255	; 0xff
    291c:	2b00      	cmp	r3, #0
    291e:	d13c      	bne.n	299a <tcp_enqueue_flags+0x96>
    2920:	4621      	mov	r1, r4
    2922:	f8b5 306e 	ldrh.w	r3, [r5, #110]	; 0x6e
    2926:	2b00      	cmp	r3, #0
    2928:	d03c      	beq.n	29a4 <tcp_enqueue_flags+0xa0>
    292a:	2000      	movs	r0, #0
    292c:	4602      	mov	r2, r0
    292e:	f7fe ff2b 	bl	1788 <pbuf_alloc>
    2932:	2800      	cmp	r0, #0
    2934:	d038      	beq.n	29a8 <tcp_enqueue_flags+0xa4>
    2936:	6eab      	ldr	r3, [r5, #104]	; 0x68
    2938:	4602      	mov	r2, r0
    293a:	9300      	str	r3, [sp, #0]
    293c:	9401      	str	r4, [sp, #4]
    293e:	f105 001c 	add.w	r0, r5, #28
    2942:	f105 011e 	add.w	r1, r5, #30
    2946:	4633      	mov	r3, r6
    2948:	f7ff fdb4 	bl	24b4 <tcp_create_segment.isra.0>
    294c:	b360      	cbz	r0, 29a8 <tcp_enqueue_flags+0xa4>
    294e:	6f6c      	ldr	r4, [r5, #116]	; 0x74
    2950:	b90c      	cbnz	r4, 2956 <tcp_enqueue_flags+0x52>
    2952:	e025      	b.n	29a0 <tcp_enqueue_flags+0x9c>
    2954:	4614      	mov	r4, r2
    2956:	6822      	ldr	r2, [r4, #0]
    2958:	2a00      	cmp	r2, #0
    295a:	d1fb      	bne.n	2954 <tcp_enqueue_flags+0x50>
    295c:	6020      	str	r0, [r4, #0]
    295e:	07b2      	lsls	r2, r6, #30
    2960:	d007      	beq.n	2972 <tcp_enqueue_flags+0x6e>
    2962:	6eab      	ldr	r3, [r5, #104]	; 0x68
    2964:	f8b5 206e 	ldrh.w	r2, [r5, #110]	; 0x6e
    2968:	3301      	adds	r3, #1
    296a:	3a01      	subs	r2, #1
    296c:	66ab      	str	r3, [r5, #104]	; 0x68
    296e:	f8a5 206e 	strh.w	r2, [r5, #110]	; 0x6e
    2972:	07f3      	lsls	r3, r6, #31
    2974:	d505      	bpl.n	2982 <tcp_enqueue_flags+0x7e>
    2976:	f895 3020 	ldrb.w	r3, [r5, #32]
    297a:	f043 0320 	orr.w	r3, r3, #32
    297e:	f885 3020 	strb.w	r3, [r5, #32]
    2982:	6840      	ldr	r0, [r0, #4]
    2984:	f8b5 4070 	ldrh.w	r4, [r5, #112]	; 0x70
    2988:	f7fe ffbc 	bl	1904 <pbuf_clen>
    298c:	4420      	add	r0, r4
    298e:	f8a5 0070 	strh.w	r0, [r5, #112]	; 0x70
    2992:	2000      	movs	r0, #0
    2994:	b240      	sxtb	r0, r0
    2996:	b002      	add	sp, #8
    2998:	bd70      	pop	{r4, r5, r6, pc}
    299a:	2401      	movs	r4, #1
    299c:	2104      	movs	r1, #4
    299e:	e7c0      	b.n	2922 <tcp_enqueue_flags+0x1e>
    29a0:	6768      	str	r0, [r5, #116]	; 0x74
    29a2:	e7dc      	b.n	295e <tcp_enqueue_flags+0x5a>
    29a4:	20ff      	movs	r0, #255	; 0xff
    29a6:	e7f5      	b.n	2994 <tcp_enqueue_flags+0x90>
    29a8:	f895 3020 	ldrb.w	r3, [r5, #32]
    29ac:	20ff      	movs	r0, #255	; 0xff
    29ae:	f063 037f 	orn	r3, r3, #127	; 0x7f
    29b2:	f885 3020 	strb.w	r3, [r5, #32]
    29b6:	e7ed      	b.n	2994 <tcp_enqueue_flags+0x90>

000029b8 <tcp_send_fin>:
    29b8:	6f42      	ldr	r2, [r0, #116]	; 0x74
    29ba:	b90a      	cbnz	r2, 29c0 <tcp_send_fin+0x8>
    29bc:	e008      	b.n	29d0 <tcp_send_fin+0x18>
    29be:	461a      	mov	r2, r3
    29c0:	6813      	ldr	r3, [r2, #0]
    29c2:	2b00      	cmp	r3, #0
    29c4:	d1fb      	bne.n	29be <tcp_send_fin+0x6>
    29c6:	6913      	ldr	r3, [r2, #16]
    29c8:	899a      	ldrh	r2, [r3, #12]
    29ca:	ba51      	rev16	r1, r2
    29cc:	0749      	lsls	r1, r1, #29
    29ce:	d002      	beq.n	29d6 <tcp_send_fin+0x1e>
    29d0:	2101      	movs	r1, #1
    29d2:	f7ff bf97 	b.w	2904 <tcp_enqueue_flags>
    29d6:	2101      	movs	r1, #1
    29d8:	ba49      	rev16	r1, r1
    29da:	430a      	orrs	r2, r1
    29dc:	819a      	strh	r2, [r3, #12]
    29de:	2000      	movs	r0, #0
    29e0:	4770      	bx	lr
    29e2:	bf00      	nop

000029e4 <tcp_send_empty_ack>:
    29e4:	b5f0      	push	{r4, r5, r6, r7, lr}
    29e6:	6d82      	ldr	r2, [r0, #88]	; 0x58
    29e8:	b083      	sub	sp, #12
    29ea:	2100      	movs	r1, #0
    29ec:	ba12      	rev	r2, r2
    29ee:	4604      	mov	r4, r0
    29f0:	f7ff fdb0 	bl	2554 <tcp_output_alloc_header.constprop.1>
    29f4:	4605      	mov	r5, r0
    29f6:	b300      	cbz	r0, 2a3a <tcp_send_empty_ack+0x56>
    29f8:	f894 3020 	ldrb.w	r3, [r4, #32]
    29fc:	6847      	ldr	r7, [r0, #4]
    29fe:	f023 0303 	bic.w	r3, r3, #3
    2a02:	f884 3020 	strb.w	r3, [r4, #32]
    2a06:	8903      	ldrh	r3, [r0, #8]
    2a08:	1d26      	adds	r6, r4, #4
    2a0a:	9300      	str	r3, [sp, #0]
    2a0c:	4632      	mov	r2, r6
    2a0e:	4621      	mov	r1, r4
    2a10:	2306      	movs	r3, #6
    2a12:	f000 fd5b 	bl	34cc <inet_chksum_pseudo>
    2a16:	8238      	strh	r0, [r7, #16]
    2a18:	7a61      	ldrb	r1, [r4, #9]
    2a1a:	2006      	movs	r0, #6
    2a1c:	7aa3      	ldrb	r3, [r4, #10]
    2a1e:	4632      	mov	r2, r6
    2a20:	9100      	str	r1, [sp, #0]
    2a22:	9001      	str	r0, [sp, #4]
    2a24:	4621      	mov	r1, r4
    2a26:	4628      	mov	r0, r5
    2a28:	f000 ffe6 	bl	39f8 <ip_output>
    2a2c:	4628      	mov	r0, r5
    2a2e:	f7fe fe75 	bl	171c <pbuf_free>
    2a32:	2000      	movs	r0, #0
    2a34:	b240      	sxtb	r0, r0
    2a36:	b003      	add	sp, #12
    2a38:	bdf0      	pop	{r4, r5, r6, r7, pc}
    2a3a:	20fe      	movs	r0, #254	; 0xfe
    2a3c:	e7fa      	b.n	2a34 <tcp_send_empty_ack+0x50>
    2a3e:	bf00      	nop

00002a40 <tcp_output>:
    2a40:	e92d 4ff0 	stmdb	sp!, {r4, r5, r6, r7, r8, r9, r10, r11, lr}
    2a44:	4b9f      	ldr	r3, [pc, #636]	; (2cc4 <tcp_output+0x284>)
    2a46:	b085      	sub	sp, #20
    2a48:	681b      	ldr	r3, [r3, #0]
    2a4a:	4604      	mov	r4, r0
    2a4c:	4283      	cmp	r3, r0
    2a4e:	f000 80ff 	beq.w	2c50 <tcp_output+0x210>
    2a52:	f8b0 705c 	ldrh.w	r7, [r0, #92]	; 0x5c
    2a56:	f8b0 3052 	ldrh.w	r3, [r0, #82]	; 0x52
    2a5a:	f890 2020 	ldrb.w	r2, [r0, #32]
    2a5e:	429f      	cmp	r7, r3
    2a60:	bf28      	it	cs
    2a62:	461f      	movcs	r7, r3
    2a64:	6f45      	ldr	r5, [r0, #116]	; 0x74
    2a66:	0790      	lsls	r0, r2, #30
    2a68:	9703      	str	r7, [sp, #12]
    2a6a:	f100 8116 	bmi.w	2c9a <tcp_output+0x25a>
    2a6e:	6fa6      	ldr	r6, [r4, #120]	; 0x78
    2a70:	b90e      	cbnz	r6, 2a76 <tcp_output+0x36>
    2a72:	e003      	b.n	2a7c <tcp_output+0x3c>
    2a74:	461e      	mov	r6, r3
    2a76:	6833      	ldr	r3, [r6, #0]
    2a78:	2b00      	cmp	r3, #0
    2a7a:	d1fb      	bne.n	2a74 <tcp_output+0x34>
    2a7c:	2d00      	cmp	r5, #0
    2a7e:	f000 80e3 	beq.w	2c48 <tcp_output+0x208>
    2a82:	f04f 0810 	mov.w	r8, #16
    2a86:	f8df 9240 	ldr.w	r9, [pc, #576]	; 2cc8 <tcp_output+0x288>
    2a8a:	f8df a240 	ldr.w	r10, [pc, #576]	; 2ccc <tcp_output+0x28c>
    2a8e:	e042      	b.n	2b16 <tcp_output+0xd6>
    2a90:	896b      	ldrh	r3, [r5, #10]
    2a92:	43db      	mvns	r3, r3
    2a94:	b29b      	uxth	r3, r3
    2a96:	4418      	add	r0, r3
    2a98:	692b      	ldr	r3, [r5, #16]
    2a9a:	eb00 4010 	add.w	r0, r0, r0, lsr #16
    2a9e:	8218      	strh	r0, [r3, #16]
    2aa0:	f894 e009 	ldrb.w	lr, [r4, #9]
    2aa4:	2106      	movs	r1, #6
    2aa6:	7aa3      	ldrb	r3, [r4, #10]
    2aa8:	6868      	ldr	r0, [r5, #4]
    2aaa:	465a      	mov	r2, r11
    2aac:	9101      	str	r1, [sp, #4]
    2aae:	f8cd e000 	str.w	lr, [sp]
    2ab2:	4621      	mov	r1, r4
    2ab4:	f000 ffa0 	bl	39f8 <ip_output>
    2ab8:	692b      	ldr	r3, [r5, #16]
    2aba:	8928      	ldrh	r0, [r5, #8]
    2abc:	685a      	ldr	r2, [r3, #4]
    2abe:	899b      	ldrh	r3, [r3, #12]
    2ac0:	ba12      	rev	r2, r2
    2ac2:	ba59      	rev16	r1, r3
    2ac4:	f011 0103 	ands.w	r1, r1, #3
    2ac8:	bf18      	it	ne
    2aca:	2101      	movne	r1, #1
    2acc:	6da7      	ldr	r7, [r4, #88]	; 0x58
    2ace:	4401      	add	r1, r0
    2ad0:	4411      	add	r1, r2
    2ad2:	ebc1 0c07 	rsb	r12, r1, r7
    2ad6:	f1bc 0f00 	cmp.w	r12, #0
    2ada:	bfb8      	it	lt
    2adc:	65a1      	strlt	r1, [r4, #88]	; 0x58
    2ade:	ba5b      	rev16	r3, r3
    2ae0:	f013 0303 	ands.w	r3, r3, #3
    2ae4:	bf18      	it	ne
    2ae6:	2301      	movne	r3, #1
    2ae8:	4403      	add	r3, r0
    2aea:	2b00      	cmp	r3, #0
    2aec:	f000 80b4 	beq.w	2c58 <tcp_output+0x218>
    2af0:	6fa3      	ldr	r3, [r4, #120]	; 0x78
    2af2:	2100      	movs	r1, #0
    2af4:	6029      	str	r1, [r5, #0]
    2af6:	2b00      	cmp	r3, #0
    2af8:	f000 80b2 	beq.w	2c60 <tcp_output+0x220>
    2afc:	6931      	ldr	r1, [r6, #16]
    2afe:	6849      	ldr	r1, [r1, #4]
    2b00:	ba09      	rev	r1, r1
    2b02:	1a51      	subs	r1, r2, r1
    2b04:	2900      	cmp	r1, #0
    2b06:	f2c0 808b 	blt.w	2c20 <tcp_output+0x1e0>
    2b0a:	6035      	str	r5, [r6, #0]
    2b0c:	462e      	mov	r6, r5
    2b0e:	6f65      	ldr	r5, [r4, #116]	; 0x74
    2b10:	2d00      	cmp	r5, #0
    2b12:	f000 8097 	beq.w	2c44 <tcp_output+0x204>
    2b16:	692b      	ldr	r3, [r5, #16]
    2b18:	8929      	ldrh	r1, [r5, #8]
    2b1a:	f8d3 c004 	ldr.w	r12, [r3, #4]
    2b1e:	6ce2      	ldr	r2, [r4, #76]	; 0x4c
    2b20:	fa9c fc8c 	rev.w	r12, r12
    2b24:	1a8a      	subs	r2, r1, r2
    2b26:	9f03      	ldr	r7, [sp, #12]
    2b28:	4494      	add	r12, r2
    2b2a:	4567      	cmp	r7, r12
    2b2c:	f0c0 80c6 	bcc.w	2cbc <tcp_output+0x27c>
    2b30:	6fa2      	ldr	r2, [r4, #120]	; 0x78
    2b32:	b15a      	cbz	r2, 2b4c <tcp_output+0x10c>
    2b34:	f894 2020 	ldrb.w	r2, [r4, #32]
    2b38:	f012 0f44 	tst.w	r2, #68	; 0x44
    2b3c:	d106      	bne.n	2b4c <tcp_output+0x10c>
    2b3e:	2d00      	cmp	r5, #0
    2b40:	f000 8095 	beq.w	2c6e <tcp_output+0x22e>
    2b44:	6828      	ldr	r0, [r5, #0]
    2b46:	2800      	cmp	r0, #0
    2b48:	f000 808d 	beq.w	2c66 <tcp_output+0x226>
    2b4c:	7c21      	ldrb	r1, [r4, #16]
    2b4e:	682a      	ldr	r2, [r5, #0]
    2b50:	2902      	cmp	r1, #2
    2b52:	6762      	str	r2, [r4, #116]	; 0x74
    2b54:	d00b      	beq.n	2b6e <tcp_output+0x12e>
    2b56:	fa98 f298 	rev16.w	r2, r8
    2b5a:	8999      	ldrh	r1, [r3, #12]
    2b5c:	430a      	orrs	r2, r1
    2b5e:	819a      	strh	r2, [r3, #12]
    2b60:	f894 3020 	ldrb.w	r3, [r4, #32]
    2b64:	f023 0303 	bic.w	r3, r3, #3
    2b68:	f884 3020 	strb.w	r3, [r4, #32]
    2b6c:	692b      	ldr	r3, [r5, #16]
    2b6e:	6a61      	ldr	r1, [r4, #36]	; 0x24
    2b70:	461a      	mov	r2, r3
    2b72:	ba08      	rev	r0, r1
    2b74:	6098      	str	r0, [r3, #8]
    2b76:	8d60      	ldrh	r0, [r4, #42]	; 0x2a
    2b78:	fa90 fe90 	rev16.w	lr, r0
    2b7c:	4401      	add	r1, r0
    2b7e:	f8a3 e00e 	strh.w	lr, [r3, #14]
    2b82:	62e1      	str	r1, [r4, #44]	; 0x2c
    2b84:	7b69      	ldrb	r1, [r5, #13]
    2b86:	f104 0b04 	add.w	r11, r4, #4
    2b8a:	07c9      	lsls	r1, r1, #31
    2b8c:	bf48      	it	mi
    2b8e:	f8c3 9014 	strmi.w	r9, [r3, #20]
    2b92:	f9b4 3036 	ldrsh.w	r3, [r4, #54]	; 0x36
    2b96:	3301      	adds	r3, #1
    2b98:	bf04      	itt	eq
    2b9a:	2300      	moveq	r3, #0
    2b9c:	86e3      	strheq	r3, [r4, #54]	; 0x36
    2b9e:	b10c      	cbz	r4, 2ba4 <tcp_output+0x164>
    2ba0:	6823      	ldr	r3, [r4, #0]
    2ba2:	b93b      	cbnz	r3, 2bb4 <tcp_output+0x174>
    2ba4:	4658      	mov	r0, r11
    2ba6:	f000 fd59 	bl	365c <ip_route>
    2baa:	2800      	cmp	r0, #0
    2bac:	d084      	beq.n	2ab8 <tcp_output+0x78>
    2bae:	6843      	ldr	r3, [r0, #4]
    2bb0:	692a      	ldr	r2, [r5, #16]
    2bb2:	6023      	str	r3, [r4, #0]
    2bb4:	6be3      	ldr	r3, [r4, #60]	; 0x3c
    2bb6:	b92b      	cbnz	r3, 2bc4 <tcp_output+0x184>
    2bb8:	f8da 3000 	ldr.w	r3, [r10]
    2bbc:	63e3      	str	r3, [r4, #60]	; 0x3c
    2bbe:	6853      	ldr	r3, [r2, #4]
    2bc0:	ba1b      	rev	r3, r3
    2bc2:	6423      	str	r3, [r4, #64]	; 0x40
    2bc4:	6868      	ldr	r0, [r5, #4]
    2bc6:	2100      	movs	r1, #0
    2bc8:	6847      	ldr	r7, [r0, #4]
    2bca:	8903      	ldrh	r3, [r0, #8]
    2bcc:	ebc7 0e02 	rsb	lr, r7, r2
    2bd0:	f8b0 c00a 	ldrh.w	r12, [r0, #10]
    2bd4:	fa1f fe8e 	uxth.w	lr, lr
    2bd8:	ebce 0303 	rsb	r3, lr, r3
    2bdc:	b29b      	uxth	r3, r3
    2bde:	ebce 0e0c 	rsb	lr, lr, r12
    2be2:	6042      	str	r2, [r0, #4]
    2be4:	f8a0 e00a 	strh.w	lr, [r0, #10]
    2be8:	8103      	strh	r3, [r0, #8]
    2bea:	f8b2 e00c 	ldrh.w	lr, [r2, #12]
    2bee:	7411      	strb	r1, [r2, #16]
    2bf0:	7451      	strb	r1, [r2, #17]
    2bf2:	fa9e f29e 	rev16.w	r2, lr
    2bf6:	0b12      	lsrs	r2, r2, #12
    2bf8:	0092      	lsls	r2, r2, #2
    2bfa:	b292      	uxth	r2, r2
    2bfc:	9201      	str	r2, [sp, #4]
    2bfe:	9300      	str	r3, [sp, #0]
    2c00:	4621      	mov	r1, r4
    2c02:	2306      	movs	r3, #6
    2c04:	465a      	mov	r2, r11
    2c06:	f000 fc9f 	bl	3548 <inet_chksum_pseudo_partial>
    2c0a:	7b2b      	ldrb	r3, [r5, #12]
    2c0c:	2b00      	cmp	r3, #0
    2c0e:	f43f af3f 	beq.w	2a90 <tcp_output+0x50>
    2c12:	896b      	ldrh	r3, [r5, #10]
    2c14:	ba5b      	rev16	r3, r3
    2c16:	2200      	movs	r2, #0
    2c18:	b29b      	uxth	r3, r3
    2c1a:	816b      	strh	r3, [r5, #10]
    2c1c:	732a      	strb	r2, [r5, #12]
    2c1e:	e738      	b.n	2a92 <tcp_output+0x52>
    2c20:	f104 0078 	add.w	r0, r4, #120	; 0x78
    2c24:	e002      	b.n	2c2c <tcp_output+0x1ec>
    2c26:	4618      	mov	r0, r3
    2c28:	681b      	ldr	r3, [r3, #0]
    2c2a:	b12b      	cbz	r3, 2c38 <tcp_output+0x1f8>
    2c2c:	6919      	ldr	r1, [r3, #16]
    2c2e:	6849      	ldr	r1, [r1, #4]
    2c30:	ba09      	rev	r1, r1
    2c32:	1a89      	subs	r1, r1, r2
    2c34:	2900      	cmp	r1, #0
    2c36:	dbf6      	blt.n	2c26 <tcp_output+0x1e6>
    2c38:	602b      	str	r3, [r5, #0]
    2c3a:	6005      	str	r5, [r0, #0]
    2c3c:	6f65      	ldr	r5, [r4, #116]	; 0x74
    2c3e:	2d00      	cmp	r5, #0
    2c40:	f47f af69 	bne.w	2b16 <tcp_output+0xd6>
    2c44:	f894 2020 	ldrb.w	r2, [r4, #32]
    2c48:	f002 027f 	and.w	r2, r2, #127	; 0x7f
    2c4c:	f884 2020 	strb.w	r2, [r4, #32]
    2c50:	2000      	movs	r0, #0
    2c52:	b005      	add	sp, #20
    2c54:	e8bd 8ff0 	ldmia.w	sp!, {r4, r5, r6, r7, r8, r9, r10, r11, pc}
    2c58:	4628      	mov	r0, r5
    2c5a:	f7fe ff75 	bl	1b48 <tcp_seg_free>
    2c5e:	e756      	b.n	2b0e <tcp_output+0xce>
    2c60:	67a5      	str	r5, [r4, #120]	; 0x78
    2c62:	462e      	mov	r6, r5
    2c64:	e753      	b.n	2b0e <tcp_output+0xce>
    2c66:	8f20      	ldrh	r0, [r4, #56]	; 0x38
    2c68:	4281      	cmp	r1, r0
    2c6a:	f4bf af6f 	bcs.w	2b4c <tcp_output+0x10c>
    2c6e:	f012 0fa0 	tst.w	r2, #160	; 0xa0
    2c72:	f47f af6b 	bne.w	2b4c <tcp_output+0x10c>
    2c76:	f894 30a4 	ldrb.w	r3, [r4, #164]	; 0xa4
    2c7a:	2b00      	cmp	r3, #0
    2c7c:	d1e4      	bne.n	2c48 <tcp_output+0x208>
    2c7e:	f8b4 105c 	ldrh.w	r1, [r4, #92]	; 0x5c
    2c82:	4561      	cmp	r1, r12
    2c84:	d2e0      	bcs.n	2c48 <tcp_output+0x208>
    2c86:	2101      	movs	r1, #1
    2c88:	f002 027f 	and.w	r2, r2, #127	; 0x7f
    2c8c:	f8c4 30a0 	str.w	r3, [r4, #160]	; 0xa0
    2c90:	f884 10a4 	strb.w	r1, [r4, #164]	; 0xa4
    2c94:	f884 2020 	strb.w	r2, [r4, #32]
    2c98:	e7da      	b.n	2c50 <tcp_output+0x210>
    2c9a:	b14d      	cbz	r5, 2cb0 <tcp_output+0x270>
    2c9c:	6929      	ldr	r1, [r5, #16]
    2c9e:	8928      	ldrh	r0, [r5, #8]
    2ca0:	6849      	ldr	r1, [r1, #4]
    2ca2:	6ce3      	ldr	r3, [r4, #76]	; 0x4c
    2ca4:	ba09      	rev	r1, r1
    2ca6:	1ac3      	subs	r3, r0, r3
    2ca8:	440b      	add	r3, r1
    2caa:	429f      	cmp	r7, r3
    2cac:	f4bf aedf 	bcs.w	2a6e <tcp_output+0x2e>
    2cb0:	4620      	mov	r0, r4
    2cb2:	b005      	add	sp, #20
    2cb4:	e8bd 4ff0 	ldmia.w	sp!, {r4, r5, r6, r7, r8, r9, r10, r11, lr}
    2cb8:	f7ff be94 	b.w	29e4 <tcp_send_empty_ack>
    2cbc:	f894 2020 	ldrb.w	r2, [r4, #32]
    2cc0:	e7d9      	b.n	2c76 <tcp_output+0x236>
    2cc2:	bf00      	nop
    2cc4:	1000102c 	.word	0x1000102c
    2cc8:	b4050402 	.word	0xb4050402
    2ccc:	10000fc0 	.word	0x10000fc0

00002cd0 <tcp_rst>:
    2cd0:	e92d 4ff0 	stmdb	sp!, {r4, r5, r6, r7, r8, r9, r10, r11, lr}
    2cd4:	4681      	mov	r9, r0
    2cd6:	b083      	sub	sp, #12
    2cd8:	460e      	mov	r6, r1
    2cda:	4690      	mov	r8, r2
    2cdc:	2001      	movs	r0, #1
    2cde:	2114      	movs	r1, #20
    2ce0:	2200      	movs	r2, #0
    2ce2:	461f      	mov	r7, r3
    2ce4:	f8bd b030 	ldrh.w	r11, [sp, #48]	; 0x30
    2ce8:	f8bd a034 	ldrh.w	r10, [sp, #52]	; 0x34
    2cec:	f7fe fd4c 	bl	1788 <pbuf_alloc>
    2cf0:	4605      	mov	r5, r0
    2cf2:	2800      	cmp	r0, #0
    2cf4:	d033      	beq.n	2d5e <tcp_rst+0x8e>
    2cf6:	6844      	ldr	r4, [r0, #4]
    2cf8:	fa9b fb9b 	rev16.w	r11, r11
    2cfc:	f8a4 b000 	strh.w	r11, [r4]
    2d00:	fa9a fa9a 	rev16.w	r10, r10
    2d04:	fa99 f989 	rev.w	r9, r9
    2d08:	ba36      	rev	r6, r6
    2d0a:	f8c4 9004 	str.w	r9, [r4, #4]
    2d0e:	60a6      	str	r6, [r4, #8]
    2d10:	f8a4 a002 	strh.w	r10, [r4, #2]
    2d14:	f245 0014 	movw	r0, #20500	; 0x5014
    2d18:	ba40      	rev16	r0, r0
    2d1a:	892b      	ldrh	r3, [r5, #8]
    2d1c:	2600      	movs	r6, #0
    2d1e:	210b      	movs	r1, #11
    2d20:	2268      	movs	r2, #104	; 0x68
    2d22:	81a0      	strh	r0, [r4, #12]
    2d24:	73a1      	strb	r1, [r4, #14]
    2d26:	73e2      	strb	r2, [r4, #15]
    2d28:	7426      	strb	r6, [r4, #16]
    2d2a:	7466      	strb	r6, [r4, #17]
    2d2c:	74a6      	strb	r6, [r4, #18]
    2d2e:	74e6      	strb	r6, [r4, #19]
    2d30:	4641      	mov	r1, r8
    2d32:	9300      	str	r3, [sp, #0]
    2d34:	463a      	mov	r2, r7
    2d36:	4628      	mov	r0, r5
    2d38:	2306      	movs	r3, #6
    2d3a:	f000 fbc7 	bl	34cc <inet_chksum_pseudo>
    2d3e:	2306      	movs	r3, #6
    2d40:	8220      	strh	r0, [r4, #16]
    2d42:	4641      	mov	r1, r8
    2d44:	9301      	str	r3, [sp, #4]
    2d46:	9600      	str	r6, [sp, #0]
    2d48:	463a      	mov	r2, r7
    2d4a:	4628      	mov	r0, r5
    2d4c:	23ff      	movs	r3, #255	; 0xff
    2d4e:	f000 fe53 	bl	39f8 <ip_output>
    2d52:	4628      	mov	r0, r5
    2d54:	b003      	add	sp, #12
    2d56:	e8bd 4ff0 	ldmia.w	sp!, {r4, r5, r6, r7, r8, r9, r10, r11, lr}
    2d5a:	f7fe bcdf 	b.w	171c <pbuf_free>
    2d5e:	b003      	add	sp, #12
    2d60:	e8bd 8ff0 	ldmia.w	sp!, {r4, r5, r6, r7, r8, r9, r10, r11, pc}

00002d64 <tcp_rexmit_rto>:
    2d64:	b430      	push	{r4, r5}
    2d66:	6f84      	ldr	r4, [r0, #120]	; 0x78
    2d68:	4601      	mov	r1, r0
    2d6a:	b19c      	cbz	r4, 2d94 <tcp_rexmit_rto+0x30>
    2d6c:	4622      	mov	r2, r4
    2d6e:	e000      	b.n	2d72 <tcp_rexmit_rto+0xe>
    2d70:	461a      	mov	r2, r3
    2d72:	6813      	ldr	r3, [r2, #0]
    2d74:	2b00      	cmp	r3, #0
    2d76:	d1fb      	bne.n	2d70 <tcp_rexmit_rto+0xc>
    2d78:	6f4d      	ldr	r5, [r1, #116]	; 0x74
    2d7a:	4608      	mov	r0, r1
    2d7c:	6015      	str	r5, [r2, #0]
    2d7e:	f891 204a 	ldrb.w	r2, [r1, #74]	; 0x4a
    2d82:	674c      	str	r4, [r1, #116]	; 0x74
    2d84:	3201      	adds	r2, #1
    2d86:	f881 204a 	strb.w	r2, [r1, #74]	; 0x4a
    2d8a:	678b      	str	r3, [r1, #120]	; 0x78
    2d8c:	63cb      	str	r3, [r1, #60]	; 0x3c
    2d8e:	bc30      	pop	{r4, r5}
    2d90:	f7ff be56 	b.w	2a40 <tcp_output>
    2d94:	bc30      	pop	{r4, r5}
    2d96:	4770      	bx	lr

00002d98 <tcp_rexmit>:
    2d98:	b430      	push	{r4, r5}
    2d9a:	6f85      	ldr	r5, [r0, #120]	; 0x78
    2d9c:	b1dd      	cbz	r5, 2dd6 <tcp_rexmit+0x3e>
    2d9e:	682a      	ldr	r2, [r5, #0]
    2da0:	6f43      	ldr	r3, [r0, #116]	; 0x74
    2da2:	6782      	str	r2, [r0, #120]	; 0x78
    2da4:	f100 0174 	add.w	r1, r0, #116	; 0x74
    2da8:	b163      	cbz	r3, 2dc4 <tcp_rexmit+0x2c>
    2daa:	692a      	ldr	r2, [r5, #16]
    2dac:	6854      	ldr	r4, [r2, #4]
    2dae:	ba24      	rev	r4, r4
    2db0:	e002      	b.n	2db8 <tcp_rexmit+0x20>
    2db2:	4619      	mov	r1, r3
    2db4:	681b      	ldr	r3, [r3, #0]
    2db6:	b12b      	cbz	r3, 2dc4 <tcp_rexmit+0x2c>
    2db8:	691a      	ldr	r2, [r3, #16]
    2dba:	6852      	ldr	r2, [r2, #4]
    2dbc:	ba12      	rev	r2, r2
    2dbe:	1b12      	subs	r2, r2, r4
    2dc0:	2a00      	cmp	r2, #0
    2dc2:	dbf6      	blt.n	2db2 <tcp_rexmit+0x1a>
    2dc4:	602b      	str	r3, [r5, #0]
    2dc6:	600d      	str	r5, [r1, #0]
    2dc8:	f890 204a 	ldrb.w	r2, [r0, #74]	; 0x4a
    2dcc:	2300      	movs	r3, #0
    2dce:	3201      	adds	r2, #1
    2dd0:	f880 204a 	strb.w	r2, [r0, #74]	; 0x4a
    2dd4:	63c3      	str	r3, [r0, #60]	; 0x3c
    2dd6:	bc30      	pop	{r4, r5}
    2dd8:	4770      	bx	lr
    2dda:	bf00      	nop

00002ddc <tcp_rexmit_fast>:
    2ddc:	6f83      	ldr	r3, [r0, #120]	; 0x78
    2dde:	b510      	push	{r4, lr}
    2de0:	4604      	mov	r4, r0
    2de2:	b30b      	cbz	r3, 2e28 <tcp_rexmit_fast+0x4c>
    2de4:	f890 3020 	ldrb.w	r3, [r0, #32]
    2de8:	075b      	lsls	r3, r3, #29
    2dea:	d41d      	bmi.n	2e28 <tcp_rexmit_fast+0x4c>
    2dec:	f7ff ffd4 	bl	2d98 <tcp_rexmit>
    2df0:	f8b4 3052 	ldrh.w	r3, [r4, #82]	; 0x52
    2df4:	f8b4 205c 	ldrh.w	r2, [r4, #92]	; 0x5c
    2df8:	8f21      	ldrh	r1, [r4, #56]	; 0x38
    2dfa:	4293      	cmp	r3, r2
    2dfc:	bf8c      	ite	hi
    2dfe:	0853      	lsrhi	r3, r2, #1
    2e00:	085b      	lsrls	r3, r3, #1
    2e02:	004a      	lsls	r2, r1, #1
    2e04:	4293      	cmp	r3, r2
    2e06:	f894 0020 	ldrb.w	r0, [r4, #32]
    2e0a:	f8a4 3054 	strh.w	r3, [r4, #84]	; 0x54
    2e0e:	bfb8      	it	lt
    2e10:	b293      	uxthlt	r3, r2
    2e12:	440a      	add	r2, r1
    2e14:	bfb8      	it	lt
    2e16:	f8a4 3054 	strhlt.w	r3, [r4, #84]	; 0x54
    2e1a:	f040 0004 	orr.w	r0, r0, #4
    2e1e:	4413      	add	r3, r2
    2e20:	f8a4 3052 	strh.w	r3, [r4, #82]	; 0x52
    2e24:	f884 0020 	strb.w	r0, [r4, #32]
    2e28:	bd10      	pop	{r4, pc}
    2e2a:	bf00      	nop

00002e2c <tcp_keepalive>:
    2e2c:	b5f0      	push	{r4, r5, r6, r7, lr}
    2e2e:	6d82      	ldr	r2, [r0, #88]	; 0x58
    2e30:	b083      	sub	sp, #12
    2e32:	3a01      	subs	r2, #1
    2e34:	2100      	movs	r1, #0
    2e36:	ba12      	rev	r2, r2
    2e38:	4604      	mov	r4, r0
    2e3a:	f7ff fb8b 	bl	2554 <tcp_output_alloc_header.constprop.1>
    2e3e:	4605      	mov	r5, r0
    2e40:	b1c8      	cbz	r0, 2e76 <tcp_keepalive+0x4a>
    2e42:	8903      	ldrh	r3, [r0, #8]
    2e44:	1d26      	adds	r6, r4, #4
    2e46:	6847      	ldr	r7, [r0, #4]
    2e48:	4632      	mov	r2, r6
    2e4a:	9300      	str	r3, [sp, #0]
    2e4c:	4621      	mov	r1, r4
    2e4e:	2306      	movs	r3, #6
    2e50:	f000 fb3c 	bl	34cc <inet_chksum_pseudo>
    2e54:	8238      	strh	r0, [r7, #16]
    2e56:	2700      	movs	r7, #0
    2e58:	2006      	movs	r0, #6
    2e5a:	7aa3      	ldrb	r3, [r4, #10]
    2e5c:	4632      	mov	r2, r6
    2e5e:	9001      	str	r0, [sp, #4]
    2e60:	4621      	mov	r1, r4
    2e62:	9700      	str	r7, [sp, #0]
    2e64:	4628      	mov	r0, r5
    2e66:	f000 fdc7 	bl	39f8 <ip_output>
    2e6a:	4628      	mov	r0, r5
    2e6c:	b003      	add	sp, #12
    2e6e:	e8bd 40f0 	ldmia.w	sp!, {r4, r5, r6, r7, lr}
    2e72:	f7fe bc53 	b.w	171c <pbuf_free>
    2e76:	b003      	add	sp, #12
    2e78:	bdf0      	pop	{r4, r5, r6, r7, pc}
    2e7a:	bf00      	nop

00002e7c <tcp_zero_window_probe>:
    2e7c:	e92d 41f0 	stmdb	sp!, {r4, r5, r6, r7, r8, lr}
    2e80:	6f86      	ldr	r6, [r0, #120]	; 0x78
    2e82:	b082      	sub	sp, #8
    2e84:	4604      	mov	r4, r0
    2e86:	2e00      	cmp	r6, #0
    2e88:	d049      	beq.n	2f1e <tcp_zero_window_probe+0xa2>
    2e8a:	6933      	ldr	r3, [r6, #16]
    2e8c:	899a      	ldrh	r2, [r3, #12]
    2e8e:	ba52      	rev16	r2, r2
    2e90:	f012 0801 	ands.w	r8, r2, #1
    2e94:	d12c      	bne.n	2ef0 <tcp_zero_window_probe+0x74>
    2e96:	2101      	movs	r1, #1
    2e98:	685a      	ldr	r2, [r3, #4]
    2e9a:	4620      	mov	r0, r4
    2e9c:	f7ff fb5a 	bl	2554 <tcp_output_alloc_header.constprop.1>
    2ea0:	4605      	mov	r5, r0
    2ea2:	2800      	cmp	r0, #0
    2ea4:	d03e      	beq.n	2f24 <tcp_zero_window_probe+0xa8>
    2ea6:	6847      	ldr	r7, [r0, #4]
    2ea8:	f1b8 0f00 	cmp.w	r8, #0
    2eac:	d026      	beq.n	2efc <tcp_zero_window_probe+0x80>
    2eae:	2211      	movs	r2, #17
    2eb0:	ba52      	rev16	r2, r2
    2eb2:	89bb      	ldrh	r3, [r7, #12]
    2eb4:	f423 537c 	bic.w	r3, r3, #16128	; 0x3f00
    2eb8:	4313      	orrs	r3, r2
    2eba:	81bb      	strh	r3, [r7, #12]
    2ebc:	892b      	ldrh	r3, [r5, #8]
    2ebe:	1d26      	adds	r6, r4, #4
    2ec0:	9300      	str	r3, [sp, #0]
    2ec2:	4632      	mov	r2, r6
    2ec4:	4621      	mov	r1, r4
    2ec6:	4628      	mov	r0, r5
    2ec8:	2306      	movs	r3, #6
    2eca:	f000 faff 	bl	34cc <inet_chksum_pseudo>
    2ece:	8238      	strh	r0, [r7, #16]
    2ed0:	2700      	movs	r7, #0
    2ed2:	2006      	movs	r0, #6
    2ed4:	7aa3      	ldrb	r3, [r4, #10]
    2ed6:	4632      	mov	r2, r6
    2ed8:	9001      	str	r0, [sp, #4]
    2eda:	4621      	mov	r1, r4
    2edc:	9700      	str	r7, [sp, #0]
    2ede:	4628      	mov	r0, r5
    2ee0:	f000 fd8a 	bl	39f8 <ip_output>
    2ee4:	4628      	mov	r0, r5
    2ee6:	b002      	add	sp, #8
    2ee8:	e8bd 41f0 	ldmia.w	sp!, {r4, r5, r6, r7, r8, lr}
    2eec:	f7fe bc16 	b.w	171c <pbuf_free>
    2ef0:	8931      	ldrh	r1, [r6, #8]
    2ef2:	b189      	cbz	r1, 2f18 <tcp_zero_window_probe+0x9c>
    2ef4:	2101      	movs	r1, #1
    2ef6:	f04f 0800 	mov.w	r8, #0
    2efa:	e7cd      	b.n	2e98 <tcp_zero_window_probe+0x1c>
    2efc:	6870      	ldr	r0, [r6, #4]
    2efe:	6843      	ldr	r3, [r0, #4]
    2f00:	899a      	ldrh	r2, [r3, #12]
    2f02:	ba52      	rev16	r2, r2
    2f04:	f64f 73fc 	movw	r3, #65532	; 0xfffc
    2f08:	0a92      	lsrs	r2, r2, #10
    2f0a:	4013      	ands	r3, r2
    2f0c:	f107 0114 	add.w	r1, r7, #20
    2f10:	2201      	movs	r2, #1
    2f12:	f7fe fd7f 	bl	1a14 <pbuf_copy_partial>
    2f16:	e7d1      	b.n	2ebc <tcp_zero_window_probe+0x40>
    2f18:	f04f 0801 	mov.w	r8, #1
    2f1c:	e7bc      	b.n	2e98 <tcp_zero_window_probe+0x1c>
    2f1e:	6f46      	ldr	r6, [r0, #116]	; 0x74
    2f20:	2e00      	cmp	r6, #0
    2f22:	d1b2      	bne.n	2e8a <tcp_zero_window_probe+0xe>
    2f24:	b002      	add	sp, #8
    2f26:	e8bd 81f0 	ldmia.w	sp!, {r4, r5, r6, r7, r8, pc}
    2f2a:	bf00      	nop

00002f2c <sys_timeout>:
    2f2c:	e92d 41f0 	stmdb	sp!, {r4, r5, r6, r7, r8, lr}
    2f30:	4606      	mov	r6, r0
    2f32:	200b      	movs	r0, #11
    2f34:	4688      	mov	r8, r1
    2f36:	4617      	mov	r7, r2
    2f38:	f7fe fa70 	bl	141c <memp_malloc>
    2f3c:	4605      	mov	r5, r0
    2f3e:	b1d0      	cbz	r0, 2f76 <sys_timeout+0x4a>
    2f40:	4815      	ldr	r0, [pc, #84]	; (2f98 <sys_timeout+0x6c>)
    2f42:	2300      	movs	r3, #0
    2f44:	6804      	ldr	r4, [r0, #0]
    2f46:	f8c5 8008 	str.w	r8, [r5, #8]
    2f4a:	60ef      	str	r7, [r5, #12]
    2f4c:	e885 0048 	stmia.w	r5, {r3, r6}
    2f50:	b1fc      	cbz	r4, 2f92 <sys_timeout+0x66>
    2f52:	6861      	ldr	r1, [r4, #4]
    2f54:	428e      	cmp	r6, r1
    2f56:	d310      	bcc.n	2f7a <sys_timeout+0x4e>
    2f58:	4633      	mov	r3, r6
    2f5a:	e003      	b.n	2f64 <sys_timeout+0x38>
    2f5c:	6851      	ldr	r1, [r2, #4]
    2f5e:	428b      	cmp	r3, r1
    2f60:	d311      	bcc.n	2f86 <sys_timeout+0x5a>
    2f62:	4614      	mov	r4, r2
    2f64:	6822      	ldr	r2, [r4, #0]
    2f66:	1a5b      	subs	r3, r3, r1
    2f68:	606b      	str	r3, [r5, #4]
    2f6a:	2a00      	cmp	r2, #0
    2f6c:	d1f6      	bne.n	2f5c <sys_timeout+0x30>
    2f6e:	602a      	str	r2, [r5, #0]
    2f70:	6025      	str	r5, [r4, #0]
    2f72:	e8bd 81f0 	ldmia.w	sp!, {r4, r5, r6, r7, r8, pc}
    2f76:	e8bd 81f0 	ldmia.w	sp!, {r4, r5, r6, r7, r8, pc}
    2f7a:	1b89      	subs	r1, r1, r6
    2f7c:	6061      	str	r1, [r4, #4]
    2f7e:	6005      	str	r5, [r0, #0]
    2f80:	602c      	str	r4, [r5, #0]
    2f82:	e8bd 81f0 	ldmia.w	sp!, {r4, r5, r6, r7, r8, pc}
    2f86:	1acb      	subs	r3, r1, r3
    2f88:	6053      	str	r3, [r2, #4]
    2f8a:	602a      	str	r2, [r5, #0]
    2f8c:	6025      	str	r5, [r4, #0]
    2f8e:	e8bd 81f0 	ldmia.w	sp!, {r4, r5, r6, r7, r8, pc}
    2f92:	6005      	str	r5, [r0, #0]
    2f94:	e8bd 81f0 	ldmia.w	sp!, {r4, r5, r6, r7, r8, pc}
    2f98:	10000314 	.word	0x10000314

00002f9c <tcp_timer_needed>:
    2f9c:	4b0b      	ldr	r3, [pc, #44]	; (2fcc <tcp_timer_needed+0x30>)
    2f9e:	b410      	push	{r4}
    2fa0:	681a      	ldr	r2, [r3, #0]
    2fa2:	b97a      	cbnz	r2, 2fc4 <tcp_timer_needed+0x28>
    2fa4:	4a0a      	ldr	r2, [pc, #40]	; (2fd0 <tcp_timer_needed+0x34>)
    2fa6:	6812      	ldr	r2, [r2, #0]
    2fa8:	b142      	cbz	r2, 2fbc <tcp_timer_needed+0x20>
    2faa:	2401      	movs	r4, #1
    2fac:	601c      	str	r4, [r3, #0]
    2fae:	20fa      	movs	r0, #250	; 0xfa
    2fb0:	4908      	ldr	r1, [pc, #32]	; (2fd4 <tcp_timer_needed+0x38>)
    2fb2:	2200      	movs	r2, #0
    2fb4:	f85d 4b04 	ldr.w	r4, [sp], #4
    2fb8:	f7ff bfb8 	b.w	2f2c <sys_timeout>
    2fbc:	4a06      	ldr	r2, [pc, #24]	; (2fd8 <tcp_timer_needed+0x3c>)
    2fbe:	6812      	ldr	r2, [r2, #0]
    2fc0:	2a00      	cmp	r2, #0
    2fc2:	d1f2      	bne.n	2faa <tcp_timer_needed+0xe>
    2fc4:	f85d 4b04 	ldr.w	r4, [sp], #4
    2fc8:	4770      	bx	lr
    2fca:	bf00      	nop
    2fcc:	10000310 	.word	0x10000310
    2fd0:	10000fbc 	.word	0x10000fbc
    2fd4:	00002fdd 	.word	0x00002fdd
    2fd8:	10000fd0 	.word	0x10000fd0

00002fdc <tcpip_tcp_timer>:
    2fdc:	b508      	push	{r3, lr}
    2fde:	f7ff f897 	bl	2110 <tcp_tmr>
    2fe2:	4b08      	ldr	r3, [pc, #32]	; (3004 <tcpip_tcp_timer+0x28>)
    2fe4:	681b      	ldr	r3, [r3, #0]
    2fe6:	b133      	cbz	r3, 2ff6 <tcpip_tcp_timer+0x1a>
    2fe8:	20fa      	movs	r0, #250	; 0xfa
    2fea:	4907      	ldr	r1, [pc, #28]	; (3008 <tcpip_tcp_timer+0x2c>)
    2fec:	2200      	movs	r2, #0
    2fee:	e8bd 4008 	ldmia.w	sp!, {r3, lr}
    2ff2:	f7ff bf9b 	b.w	2f2c <sys_timeout>
    2ff6:	4b05      	ldr	r3, [pc, #20]	; (300c <tcpip_tcp_timer+0x30>)
    2ff8:	681b      	ldr	r3, [r3, #0]
    2ffa:	2b00      	cmp	r3, #0
    2ffc:	d1f4      	bne.n	2fe8 <tcpip_tcp_timer+0xc>
    2ffe:	4a04      	ldr	r2, [pc, #16]	; (3010 <tcpip_tcp_timer+0x34>)
    3000:	6013      	str	r3, [r2, #0]
    3002:	bd08      	pop	{r3, pc}
    3004:	10000fbc 	.word	0x10000fbc
    3008:	00002fdd 	.word	0x00002fdd
    300c:	10000fd0 	.word	0x10000fd0
    3010:	10000310 	.word	0x10000310

00003014 <sys_timeouts_init>:
    3014:	b508      	push	{r3, lr}
    3016:	f44f 707a 	mov.w	r0, #1000	; 0x3e8
    301a:	4911      	ldr	r1, [pc, #68]	; (3060 <sys_timeouts_init+0x4c>)
    301c:	2200      	movs	r2, #0
    301e:	f7ff ff85 	bl	2f2c <sys_timeout>
    3022:	f241 3088 	movw	r0, #5000	; 0x1388
    3026:	490f      	ldr	r1, [pc, #60]	; (3064 <sys_timeouts_init+0x50>)
    3028:	2200      	movs	r2, #0
    302a:	f7ff ff7f 	bl	2f2c <sys_timeout>
    302e:	f64e 2060 	movw	r0, #60000	; 0xea60
    3032:	490d      	ldr	r1, [pc, #52]	; (3068 <sys_timeouts_init+0x54>)
    3034:	2200      	movs	r2, #0
    3036:	f7ff ff79 	bl	2f2c <sys_timeout>
    303a:	f44f 70fa 	mov.w	r0, #500	; 0x1f4
    303e:	490b      	ldr	r1, [pc, #44]	; (306c <sys_timeouts_init+0x58>)
    3040:	2200      	movs	r2, #0
    3042:	f7ff ff73 	bl	2f2c <sys_timeout>
    3046:	2064      	movs	r0, #100	; 0x64
    3048:	4909      	ldr	r1, [pc, #36]	; (3070 <sys_timeouts_init+0x5c>)
    304a:	2200      	movs	r2, #0
    304c:	f7ff ff6e 	bl	2f2c <sys_timeout>
    3050:	e8bd 4008 	ldmia.w	sp!, {r3, lr}
    3054:	f44f 707a 	mov.w	r0, #1000	; 0x3e8
    3058:	4906      	ldr	r1, [pc, #24]	; (3074 <sys_timeouts_init+0x60>)
    305a:	2200      	movs	r2, #0
    305c:	f7ff bf66 	b.w	2f2c <sys_timeout>
    3060:	00003101 	.word	0x00003101
    3064:	000030e5 	.word	0x000030e5
    3068:	000030c9 	.word	0x000030c9
    306c:	000030ad 	.word	0x000030ad
    3070:	00003095 	.word	0x00003095
    3074:	00003079 	.word	0x00003079

00003078 <dns_timer>:
    3078:	b508      	push	{r3, lr}
    307a:	f003 ffc9 	bl	7010 <dns_tmr>
    307e:	e8bd 4008 	ldmia.w	sp!, {r3, lr}
    3082:	f44f 707a 	mov.w	r0, #1000	; 0x3e8
    3086:	4902      	ldr	r1, [pc, #8]	; (3090 <dns_timer+0x18>)
    3088:	2200      	movs	r2, #0
    308a:	f7ff bf4f 	b.w	2f2c <sys_timeout>
    308e:	bf00      	nop
    3090:	00003079 	.word	0x00003079

00003094 <igmp_timer>:
    3094:	b508      	push	{r3, lr}
    3096:	f000 fa01 	bl	349c <igmp_tmr>
    309a:	e8bd 4008 	ldmia.w	sp!, {r3, lr}
    309e:	2064      	movs	r0, #100	; 0x64
    30a0:	4901      	ldr	r1, [pc, #4]	; (30a8 <igmp_timer+0x14>)
    30a2:	2200      	movs	r2, #0
    30a4:	f7ff bf42 	b.w	2f2c <sys_timeout>
    30a8:	00003095 	.word	0x00003095

000030ac <dhcp_timer_fine>:
    30ac:	b508      	push	{r3, lr}
    30ae:	f003 fce1 	bl	6a74 <dhcp_fine_tmr>
    30b2:	e8bd 4008 	ldmia.w	sp!, {r3, lr}
    30b6:	f44f 70fa 	mov.w	r0, #500	; 0x1f4
    30ba:	4902      	ldr	r1, [pc, #8]	; (30c4 <dhcp_timer_fine+0x18>)
    30bc:	2200      	movs	r2, #0
    30be:	f7ff bf35 	b.w	2f2c <sys_timeout>
    30c2:	bf00      	nop
    30c4:	000030ad 	.word	0x000030ad

000030c8 <dhcp_timer_coarse>:
    30c8:	b508      	push	{r3, lr}
    30ca:	f003 fc49 	bl	6960 <dhcp_coarse_tmr>
    30ce:	e8bd 4008 	ldmia.w	sp!, {r3, lr}
    30d2:	f64e 2060 	movw	r0, #60000	; 0xea60
    30d6:	4902      	ldr	r1, [pc, #8]	; (30e0 <dhcp_timer_coarse+0x18>)
    30d8:	2200      	movs	r2, #0
    30da:	f7ff bf27 	b.w	2f2c <sys_timeout>
    30de:	bf00      	nop
    30e0:	000030c9 	.word	0x000030c9

000030e4 <arp_timer>:
    30e4:	b508      	push	{r3, lr}
    30e6:	f001 f981 	bl	43ec <etharp_tmr>
    30ea:	e8bd 4008 	ldmia.w	sp!, {r3, lr}
    30ee:	f241 3088 	movw	r0, #5000	; 0x1388
    30f2:	4902      	ldr	r1, [pc, #8]	; (30fc <arp_timer+0x18>)
    30f4:	2200      	movs	r2, #0
    30f6:	f7ff bf19 	b.w	2f2c <sys_timeout>
    30fa:	bf00      	nop
    30fc:	000030e5 	.word	0x000030e5

00003100 <ip_reass_timer>:
    3100:	b508      	push	{r3, lr}
    3102:	f000 fe55 	bl	3db0 <ip_reass_tmr>
    3106:	e8bd 4008 	ldmia.w	sp!, {r3, lr}
    310a:	f44f 707a 	mov.w	r0, #1000	; 0x3e8
    310e:	4902      	ldr	r1, [pc, #8]	; (3118 <ip_reass_timer+0x18>)
    3110:	2200      	movs	r2, #0
    3112:	f7ff bf0b 	b.w	2f2c <sys_timeout>
    3116:	bf00      	nop
    3118:	00003101 	.word	0x00003101

0000311c <sys_untimeout>:
    311c:	b430      	push	{r4, r5}
    311e:	4d10      	ldr	r5, [pc, #64]	; (3160 <sys_untimeout+0x44>)
    3120:	682b      	ldr	r3, [r5, #0]
    3122:	b1cb      	cbz	r3, 3158 <sys_untimeout+0x3c>
    3124:	2400      	movs	r4, #0
    3126:	e003      	b.n	3130 <sys_untimeout+0x14>
    3128:	681a      	ldr	r2, [r3, #0]
    312a:	461c      	mov	r4, r3
    312c:	b1a2      	cbz	r2, 3158 <sys_untimeout+0x3c>
    312e:	4613      	mov	r3, r2
    3130:	689a      	ldr	r2, [r3, #8]
    3132:	4282      	cmp	r2, r0
    3134:	d1f8      	bne.n	3128 <sys_untimeout+0xc>
    3136:	68da      	ldr	r2, [r3, #12]
    3138:	428a      	cmp	r2, r1
    313a:	d1f5      	bne.n	3128 <sys_untimeout+0xc>
    313c:	681a      	ldr	r2, [r3, #0]
    313e:	b16c      	cbz	r4, 315c <sys_untimeout+0x40>
    3140:	6022      	str	r2, [r4, #0]
    3142:	681a      	ldr	r2, [r3, #0]
    3144:	b11a      	cbz	r2, 314e <sys_untimeout+0x32>
    3146:	6850      	ldr	r0, [r2, #4]
    3148:	6859      	ldr	r1, [r3, #4]
    314a:	4401      	add	r1, r0
    314c:	6051      	str	r1, [r2, #4]
    314e:	4619      	mov	r1, r3
    3150:	200b      	movs	r0, #11
    3152:	bc30      	pop	{r4, r5}
    3154:	f7fe b978 	b.w	1448 <memp_free>
    3158:	bc30      	pop	{r4, r5}
    315a:	4770      	bx	lr
    315c:	602a      	str	r2, [r5, #0]
    315e:	e7f1      	b.n	3144 <sys_untimeout+0x28>
    3160:	10000314 	.word	0x10000314

00003164 <sys_timeouts_mbox_fetch>:
    3164:	e92d 47f0 	stmdb	sp!, {r4, r5, r6, r7, r8, r9, r10, lr}
    3168:	4c19      	ldr	r4, [pc, #100]	; (31d0 <sys_timeouts_mbox_fetch+0x6c>)
    316a:	4606      	mov	r6, r0
    316c:	460d      	mov	r5, r1
    316e:	46a2      	mov	r10, r4
    3170:	e009      	b.n	3186 <sys_timeouts_mbox_fetch+0x22>
    3172:	681a      	ldr	r2, [r3, #0]
    3174:	689f      	ldr	r7, [r3, #8]
    3176:	200b      	movs	r0, #11
    3178:	4619      	mov	r1, r3
    317a:	6022      	str	r2, [r4, #0]
    317c:	f8d3 900c 	ldr.w	r9, [r3, #12]
    3180:	f7fe f962 	bl	1448 <memp_free>
    3184:	bb0f      	cbnz	r7, 31ca <sys_timeouts_mbox_fetch+0x66>
    3186:	6823      	ldr	r3, [r4, #0]
    3188:	f8df 8044 	ldr.w	r8, [pc, #68]	; 31d0 <sys_timeouts_mbox_fetch+0x6c>
    318c:	b15b      	cbz	r3, 31a6 <sys_timeouts_mbox_fetch+0x42>
    318e:	685a      	ldr	r2, [r3, #4]
    3190:	2a00      	cmp	r2, #0
    3192:	d0ee      	beq.n	3172 <sys_timeouts_mbox_fetch+0xe>
    3194:	4630      	mov	r0, r6
    3196:	4629      	mov	r1, r5
    3198:	f001 fc44 	bl	4a24 <sys_arch_mbox_fetch>
    319c:	1c43      	adds	r3, r0, #1
    319e:	d109      	bne.n	31b4 <sys_timeouts_mbox_fetch+0x50>
    31a0:	f8da 3000 	ldr.w	r3, [r10]
    31a4:	e7e5      	b.n	3172 <sys_timeouts_mbox_fetch+0xe>
    31a6:	4630      	mov	r0, r6
    31a8:	4629      	mov	r1, r5
    31aa:	461a      	mov	r2, r3
    31ac:	e8bd 47f0 	ldmia.w	sp!, {r4, r5, r6, r7, r8, r9, r10, lr}
    31b0:	f001 bc38 	b.w	4a24 <sys_arch_mbox_fetch>
    31b4:	f8d8 3000 	ldr.w	r3, [r8]
    31b8:	685a      	ldr	r2, [r3, #4]
    31ba:	4282      	cmp	r2, r0
    31bc:	bf8c      	ite	hi
    31be:	ebc0 0202 	rsbhi	r2, r0, r2
    31c2:	2200      	movls	r2, #0
    31c4:	605a      	str	r2, [r3, #4]
    31c6:	e8bd 87f0 	ldmia.w	sp!, {r4, r5, r6, r7, r8, r9, r10, pc}
    31ca:	4648      	mov	r0, r9
    31cc:	47b8      	blx	r7
    31ce:	e7da      	b.n	3186 <sys_timeouts_mbox_fetch+0x22>
    31d0:	10000314 	.word	0x10000314

000031d4 <igmp_send>:
    31d4:	e92d 43f0 	stmdb	sp!, {r4, r5, r6, r7, r8, r9, lr}
    31d8:	4b25      	ldr	r3, [pc, #148]	; (3270 <igmp_send+0x9c>)
    31da:	4606      	mov	r6, r0
    31dc:	681b      	ldr	r3, [r3, #0]
    31de:	2000      	movs	r0, #0
    31e0:	b089      	sub	sp, #36	; 0x24
    31e2:	460f      	mov	r7, r1
    31e4:	4602      	mov	r2, r0
    31e6:	2108      	movs	r1, #8
    31e8:	9306      	str	r3, [sp, #24]
    31ea:	f7fe facd 	bl	1788 <pbuf_alloc>
    31ee:	4604      	mov	r4, r0
    31f0:	b150      	cbz	r0, 3208 <igmp_send+0x34>
    31f2:	6873      	ldr	r3, [r6, #4]
    31f4:	2f16      	cmp	r7, #22
    31f6:	685b      	ldr	r3, [r3, #4]
    31f8:	6845      	ldr	r5, [r0, #4]
    31fa:	9306      	str	r3, [sp, #24]
    31fc:	d007      	beq.n	320e <igmp_send+0x3a>
    31fe:	2f17      	cmp	r7, #23
    3200:	d030      	beq.n	3264 <igmp_send+0x90>
    3202:	4620      	mov	r0, r4
    3204:	f7fe fa8a 	bl	171c <pbuf_free>
    3208:	b009      	add	sp, #36	; 0x24
    320a:	e8bd 83f0 	ldmia.w	sp!, {r4, r5, r6, r7, r8, r9, pc}
    320e:	68b3      	ldr	r3, [r6, #8]
    3210:	2201      	movs	r2, #1
    3212:	606b      	str	r3, [r5, #4]
    3214:	f106 0908 	add.w	r9, r6, #8
    3218:	7332      	strb	r2, [r6, #12]
    321a:	f04f 0800 	mov.w	r8, #0
    321e:	702f      	strb	r7, [r5, #0]
    3220:	f885 8001 	strb.w	r8, [r5, #1]
    3224:	f885 8002 	strb.w	r8, [r5, #2]
    3228:	f885 8003 	strb.w	r8, [r5, #3]
    322c:	4628      	mov	r0, r5
    322e:	2108      	movs	r1, #8
    3230:	f000 f9e0 	bl	35f4 <inet_chksum>
    3234:	6877      	ldr	r7, [r6, #4]
    3236:	a907      	add	r1, sp, #28
    3238:	2602      	movs	r6, #2
    323a:	2304      	movs	r3, #4
    323c:	8068      	strh	r0, [r5, #2]
    323e:	464a      	mov	r2, r9
    3240:	9103      	str	r1, [sp, #12]
    3242:	9304      	str	r3, [sp, #16]
    3244:	f240 4594 	movw	r5, #1172	; 0x494
    3248:	f8cd 8000 	str.w	r8, [sp]
    324c:	9702      	str	r7, [sp, #8]
    324e:	9601      	str	r6, [sp, #4]
    3250:	4620      	mov	r0, r4
    3252:	a906      	add	r1, sp, #24
    3254:	2301      	movs	r3, #1
    3256:	f8ad 801e 	strh.w	r8, [sp, #30]
    325a:	f8ad 501c 	strh.w	r5, [sp, #28]
    325e:	f000 fb03 	bl	3868 <ip_output_if_opt>
    3262:	e7ce      	b.n	3202 <igmp_send+0x2e>
    3264:	68b3      	ldr	r3, [r6, #8]
    3266:	f8df 900c 	ldr.w	r9, [pc, #12]	; 3274 <igmp_send+0xa0>
    326a:	606b      	str	r3, [r5, #4]
    326c:	e7d5      	b.n	321a <igmp_send+0x46>
    326e:	bf00      	nop
    3270:	0000da2c 	.word	0x0000da2c
    3274:	1000031c 	.word	0x1000031c

00003278 <igmp_delaying_member>:
    3278:	b538      	push	{r3, r4, r5, lr}
    327a:	7b43      	ldrb	r3, [r0, #13]
    327c:	4604      	mov	r4, r0
    327e:	2b02      	cmp	r3, #2
    3280:	d004      	beq.n	328c <igmp_delaying_member+0x14>
    3282:	2b01      	cmp	r3, #1
    3284:	d000      	beq.n	3288 <igmp_delaying_member+0x10>
    3286:	bd38      	pop	{r3, r4, r5, pc}
    3288:	89c3      	ldrh	r3, [r0, #14]
    328a:	b973      	cbnz	r3, 32aa <igmp_delaying_member+0x32>
    328c:	b159      	cbz	r1, 32a6 <igmp_delaying_member+0x2e>
    328e:	1e4d      	subs	r5, r1, #1
    3290:	f008 ff7e 	bl	c190 <rand>
    3294:	fb90 f1f5 	sdiv	r1, r0, r5
    3298:	fb01 0015 	mls	r0, r1, r5, r0
    329c:	2301      	movs	r3, #1
    329e:	18c1      	adds	r1, r0, r3
    32a0:	7363      	strb	r3, [r4, #13]
    32a2:	81e1      	strh	r1, [r4, #14]
    32a4:	bd38      	pop	{r3, r4, r5, pc}
    32a6:	460d      	mov	r5, r1
    32a8:	e7f2      	b.n	3290 <igmp_delaying_member+0x18>
    32aa:	428b      	cmp	r3, r1
    32ac:	d8ee      	bhi.n	328c <igmp_delaying_member+0x14>
    32ae:	e7ea      	b.n	3286 <igmp_delaying_member+0xe>

000032b0 <igmp_lookup_group>:
    32b0:	b570      	push	{r4, r5, r6, lr}
    32b2:	4e11      	ldr	r6, [pc, #68]	; (32f8 <igmp_lookup_group+0x48>)
    32b4:	4604      	mov	r4, r0
    32b6:	6833      	ldr	r3, [r6, #0]
    32b8:	460d      	mov	r5, r1
    32ba:	b913      	cbnz	r3, 32c2 <igmp_lookup_group+0x12>
    32bc:	e00a      	b.n	32d4 <igmp_lookup_group+0x24>
    32be:	681b      	ldr	r3, [r3, #0]
    32c0:	b143      	cbz	r3, 32d4 <igmp_lookup_group+0x24>
    32c2:	685a      	ldr	r2, [r3, #4]
    32c4:	4294      	cmp	r4, r2
    32c6:	d1fa      	bne.n	32be <igmp_lookup_group+0xe>
    32c8:	6898      	ldr	r0, [r3, #8]
    32ca:	682a      	ldr	r2, [r5, #0]
    32cc:	4290      	cmp	r0, r2
    32ce:	d1f6      	bne.n	32be <igmp_lookup_group+0xe>
    32d0:	4618      	mov	r0, r3
    32d2:	bd70      	pop	{r4, r5, r6, pc}
    32d4:	200a      	movs	r0, #10
    32d6:	f7fe f8a1 	bl	141c <memp_malloc>
    32da:	b160      	cbz	r0, 32f6 <igmp_lookup_group+0x46>
    32dc:	6044      	str	r4, [r0, #4]
    32de:	b105      	cbz	r5, 32e2 <igmp_lookup_group+0x32>
    32e0:	682d      	ldr	r5, [r5, #0]
    32e2:	2300      	movs	r3, #0
    32e4:	6832      	ldr	r2, [r6, #0]
    32e6:	7343      	strb	r3, [r0, #13]
    32e8:	7303      	strb	r3, [r0, #12]
    32ea:	7403      	strb	r3, [r0, #16]
    32ec:	6085      	str	r5, [r0, #8]
    32ee:	6002      	str	r2, [r0, #0]
    32f0:	6030      	str	r0, [r6, #0]
    32f2:	81c3      	strh	r3, [r0, #14]
    32f4:	bd70      	pop	{r4, r5, r6, pc}
    32f6:	bd70      	pop	{r4, r5, r6, pc}
    32f8:	10000320 	.word	0x10000320

000032fc <igmp_init>:
    32fc:	4903      	ldr	r1, [pc, #12]	; (330c <igmp_init+0x10>)
    32fe:	4804      	ldr	r0, [pc, #16]	; (3310 <igmp_init+0x14>)
    3300:	4b04      	ldr	r3, [pc, #16]	; (3314 <igmp_init+0x18>)
    3302:	4a05      	ldr	r2, [pc, #20]	; (3318 <igmp_init+0x1c>)
    3304:	6008      	str	r0, [r1, #0]
    3306:	601a      	str	r2, [r3, #0]
    3308:	4770      	bx	lr
    330a:	bf00      	nop
    330c:	10000318 	.word	0x10000318
    3310:	010000e0 	.word	0x010000e0
    3314:	1000031c 	.word	0x1000031c
    3318:	020000e0 	.word	0x020000e0

0000331c <igmp_start>:
    331c:	b510      	push	{r4, lr}
    331e:	490c      	ldr	r1, [pc, #48]	; (3350 <igmp_start+0x34>)
    3320:	4604      	mov	r4, r0
    3322:	f7ff ffc5 	bl	32b0 <igmp_lookup_group>
    3326:	b180      	cbz	r0, 334a <igmp_start+0x2e>
    3328:	7c01      	ldrb	r1, [r0, #16]
    332a:	2202      	movs	r2, #2
    332c:	3101      	adds	r1, #1
    332e:	7401      	strb	r1, [r0, #16]
    3330:	7342      	strb	r2, [r0, #13]
    3332:	6c23      	ldr	r3, [r4, #64]	; 0x40
    3334:	b133      	cbz	r3, 3344 <igmp_start+0x28>
    3336:	4620      	mov	r0, r4
    3338:	4905      	ldr	r1, [pc, #20]	; (3350 <igmp_start+0x34>)
    333a:	2201      	movs	r2, #1
    333c:	4798      	blx	r3
    333e:	2000      	movs	r0, #0
    3340:	b240      	sxtb	r0, r0
    3342:	bd10      	pop	{r4, pc}
    3344:	4618      	mov	r0, r3
    3346:	b240      	sxtb	r0, r0
    3348:	bd10      	pop	{r4, pc}
    334a:	20ff      	movs	r0, #255	; 0xff
    334c:	e7f8      	b.n	3340 <igmp_start+0x24>
    334e:	bf00      	nop
    3350:	10000318 	.word	0x10000318

00003354 <igmp_report_groups>:
    3354:	b538      	push	{r3, r4, r5, lr}
    3356:	4b08      	ldr	r3, [pc, #32]	; (3378 <igmp_report_groups+0x24>)
    3358:	4605      	mov	r5, r0
    335a:	681c      	ldr	r4, [r3, #0]
    335c:	b12c      	cbz	r4, 336a <igmp_report_groups+0x16>
    335e:	6863      	ldr	r3, [r4, #4]
    3360:	42ab      	cmp	r3, r5
    3362:	d003      	beq.n	336c <igmp_report_groups+0x18>
    3364:	6824      	ldr	r4, [r4, #0]
    3366:	2c00      	cmp	r4, #0
    3368:	d1f9      	bne.n	335e <igmp_report_groups+0xa>
    336a:	bd38      	pop	{r3, r4, r5, pc}
    336c:	4620      	mov	r0, r4
    336e:	2105      	movs	r1, #5
    3370:	f7ff ff82 	bl	3278 <igmp_delaying_member>
    3374:	e7f6      	b.n	3364 <igmp_report_groups+0x10>
    3376:	bf00      	nop
    3378:	10000320 	.word	0x10000320

0000337c <igmp_lookfor_group>:
    337c:	b410      	push	{r4}
    337e:	4b07      	ldr	r3, [pc, #28]	; (339c <igmp_lookfor_group+0x20>)
    3380:	681b      	ldr	r3, [r3, #0]
    3382:	b133      	cbz	r3, 3392 <igmp_lookfor_group+0x16>
    3384:	685a      	ldr	r2, [r3, #4]
    3386:	4282      	cmp	r2, r0
    3388:	d1fa      	bne.n	3380 <igmp_lookfor_group+0x4>
    338a:	689c      	ldr	r4, [r3, #8]
    338c:	680a      	ldr	r2, [r1, #0]
    338e:	4294      	cmp	r4, r2
    3390:	d1f6      	bne.n	3380 <igmp_lookfor_group+0x4>
    3392:	4618      	mov	r0, r3
    3394:	f85d 4b04 	ldr.w	r4, [sp], #4
    3398:	4770      	bx	lr
    339a:	bf00      	nop
    339c:	10000320 	.word	0x10000320

000033a0 <igmp_input>:
    33a0:	e92d 41f0 	stmdb	sp!, {r4, r5, r6, r7, r8, lr}
    33a4:	6843      	ldr	r3, [r0, #4]
    33a6:	b082      	sub	sp, #8
    33a8:	460d      	mov	r5, r1
    33aa:	4606      	mov	r6, r0
    33ac:	4617      	mov	r7, r2
    33ae:	8819      	ldrh	r1, [r3, #0]
    33b0:	ba49      	rev16	r1, r1
    33b2:	f3c1 2103 	ubfx	r1, r1, #8, #4
    33b6:	0089      	lsls	r1, r1, #2
    33b8:	4249      	negs	r1, r1
    33ba:	f7fe f979 	bl	16b0 <pbuf_header>
    33be:	b910      	cbnz	r0, 33c6 <igmp_input+0x26>
    33c0:	8971      	ldrh	r1, [r6, #10]
    33c2:	2907      	cmp	r1, #7
    33c4:	d805      	bhi.n	33d2 <igmp_input+0x32>
    33c6:	4630      	mov	r0, r6
    33c8:	b002      	add	sp, #8
    33ca:	e8bd 41f0 	ldmia.w	sp!, {r4, r5, r6, r7, r8, lr}
    33ce:	f7fe b9a5 	b.w	171c <pbuf_free>
    33d2:	f8d6 8004 	ldr.w	r8, [r6, #4]
    33d6:	4640      	mov	r0, r8
    33d8:	f000 f90c 	bl	35f4 <inet_chksum>
    33dc:	2800      	cmp	r0, #0
    33de:	d1f2      	bne.n	33c6 <igmp_input+0x26>
    33e0:	4b2c      	ldr	r3, [pc, #176]	; (3494 <igmp_input+0xf4>)
    33e2:	681a      	ldr	r2, [r3, #0]
    33e4:	2a00      	cmp	r2, #0
    33e6:	d0ee      	beq.n	33c6 <igmp_input+0x26>
    33e8:	4613      	mov	r3, r2
    33ea:	e002      	b.n	33f2 <igmp_input+0x52>
    33ec:	681b      	ldr	r3, [r3, #0]
    33ee:	2b00      	cmp	r3, #0
    33f0:	d0e9      	beq.n	33c6 <igmp_input+0x26>
    33f2:	685c      	ldr	r4, [r3, #4]
    33f4:	42a5      	cmp	r5, r4
    33f6:	d1f9      	bne.n	33ec <igmp_input+0x4c>
    33f8:	6899      	ldr	r1, [r3, #8]
    33fa:	683c      	ldr	r4, [r7, #0]
    33fc:	42a1      	cmp	r1, r4
    33fe:	d1f5      	bne.n	33ec <igmp_input+0x4c>
    3400:	f898 0000 	ldrb.w	r0, [r8]
    3404:	2811      	cmp	r0, #17
    3406:	d00a      	beq.n	341e <igmp_input+0x7e>
    3408:	2816      	cmp	r0, #22
    340a:	d1dc      	bne.n	33c6 <igmp_input+0x26>
    340c:	7b5a      	ldrb	r2, [r3, #13]
    340e:	2a01      	cmp	r2, #1
    3410:	d1d9      	bne.n	33c6 <igmp_input+0x26>
    3412:	2200      	movs	r2, #0
    3414:	2102      	movs	r1, #2
    3416:	81da      	strh	r2, [r3, #14]
    3418:	731a      	strb	r2, [r3, #12]
    341a:	7359      	strb	r1, [r3, #13]
    341c:	e7d3      	b.n	33c6 <igmp_input+0x26>
    341e:	4c1e      	ldr	r4, [pc, #120]	; (3498 <igmp_input+0xf8>)
    3420:	6820      	ldr	r0, [r4, #0]
    3422:	4288      	cmp	r0, r1
    3424:	d00c      	beq.n	3440 <igmp_input+0xa0>
    3426:	f118 0f04 	cmn.w	r8, #4
    342a:	d0cc      	beq.n	33c6 <igmp_input+0x26>
    342c:	f8d8 1004 	ldr.w	r1, [r8, #4]
    3430:	2900      	cmp	r1, #0
    3432:	d0c8      	beq.n	33c6 <igmp_input+0x26>
    3434:	4618      	mov	r0, r3
    3436:	f898 1001 	ldrb.w	r1, [r8, #1]
    343a:	f7ff ff1d 	bl	3278 <igmp_delaying_member>
    343e:	e7c2      	b.n	33c6 <igmp_input+0x26>
    3440:	f118 0f04 	cmn.w	r8, #4
    3444:	d002      	beq.n	344c <igmp_input+0xac>
    3446:	f8d8 1004 	ldr.w	r1, [r8, #4]
    344a:	b9d9      	cbnz	r1, 3484 <igmp_input+0xe4>
    344c:	f898 3001 	ldrb.w	r3, [r8, #1]
    3450:	b933      	cbnz	r3, 3460 <igmp_input+0xc0>
    3452:	230a      	movs	r3, #10
    3454:	f888 3001 	strb.w	r3, [r8, #1]
    3458:	e002      	b.n	3460 <igmp_input+0xc0>
    345a:	6812      	ldr	r2, [r2, #0]
    345c:	2a00      	cmp	r2, #0
    345e:	d0b2      	beq.n	33c6 <igmp_input+0x26>
    3460:	6853      	ldr	r3, [r2, #4]
    3462:	42ab      	cmp	r3, r5
    3464:	d1f9      	bne.n	345a <igmp_input+0xba>
    3466:	6891      	ldr	r1, [r2, #8]
    3468:	6823      	ldr	r3, [r4, #0]
    346a:	4610      	mov	r0, r2
    346c:	4299      	cmp	r1, r3
    346e:	d0f4      	beq.n	345a <igmp_input+0xba>
    3470:	f898 1001 	ldrb.w	r1, [r8, #1]
    3474:	9201      	str	r2, [sp, #4]
    3476:	f7ff feff 	bl	3278 <igmp_delaying_member>
    347a:	9a01      	ldr	r2, [sp, #4]
    347c:	e7ed      	b.n	345a <igmp_input+0xba>
    347e:	6812      	ldr	r2, [r2, #0]
    3480:	2a00      	cmp	r2, #0
    3482:	d0a0      	beq.n	33c6 <igmp_input+0x26>
    3484:	6853      	ldr	r3, [r2, #4]
    3486:	429d      	cmp	r5, r3
    3488:	d1f9      	bne.n	347e <igmp_input+0xde>
    348a:	6893      	ldr	r3, [r2, #8]
    348c:	4299      	cmp	r1, r3
    348e:	d1f6      	bne.n	347e <igmp_input+0xde>
    3490:	4613      	mov	r3, r2
    3492:	e7cf      	b.n	3434 <igmp_input+0x94>
    3494:	10000320 	.word	0x10000320
    3498:	10000318 	.word	0x10000318

0000349c <igmp_tmr>:
    349c:	4b0a      	ldr	r3, [pc, #40]	; (34c8 <igmp_tmr+0x2c>)
    349e:	b510      	push	{r4, lr}
    34a0:	681c      	ldr	r4, [r3, #0]
    34a2:	b15c      	cbz	r4, 34bc <igmp_tmr+0x20>
    34a4:	89e3      	ldrh	r3, [r4, #14]
    34a6:	1e5a      	subs	r2, r3, #1
    34a8:	b292      	uxth	r2, r2
    34aa:	b123      	cbz	r3, 34b6 <igmp_tmr+0x1a>
    34ac:	81e2      	strh	r2, [r4, #14]
    34ae:	b912      	cbnz	r2, 34b6 <igmp_tmr+0x1a>
    34b0:	7b63      	ldrb	r3, [r4, #13]
    34b2:	2b01      	cmp	r3, #1
    34b4:	d003      	beq.n	34be <igmp_tmr+0x22>
    34b6:	6824      	ldr	r4, [r4, #0]
    34b8:	2c00      	cmp	r4, #0
    34ba:	d1f3      	bne.n	34a4 <igmp_tmr+0x8>
    34bc:	bd10      	pop	{r4, pc}
    34be:	4620      	mov	r0, r4
    34c0:	2116      	movs	r1, #22
    34c2:	f7ff fe87 	bl	31d4 <igmp_send>
    34c6:	e7f6      	b.n	34b6 <igmp_tmr+0x1a>
    34c8:	10000320 	.word	0x10000320

000034cc <inet_chksum_pseudo>:
    34cc:	e92d 47f0 	stmdb	sp!, {r4, r5, r6, r7, r8, r9, r10, lr}
    34d0:	4604      	mov	r4, r0
    34d2:	468a      	mov	r10, r1
    34d4:	4691      	mov	r9, r2
    34d6:	4698      	mov	r8, r3
    34d8:	f8bd 7020 	ldrh.w	r7, [sp, #32]
    34dc:	2800      	cmp	r0, #0
    34de:	d030      	beq.n	3542 <inet_chksum_pseudo+0x76>
    34e0:	2600      	movs	r6, #0
    34e2:	4635      	mov	r5, r6
    34e4:	6860      	ldr	r0, [r4, #4]
    34e6:	8961      	ldrh	r1, [r4, #10]
    34e8:	f001 f9f0 	bl	48cc <thumb2_checksum>
    34ec:	8963      	ldrh	r3, [r4, #10]
    34ee:	4428      	add	r0, r5
    34f0:	b285      	uxth	r5, r0
    34f2:	07db      	lsls	r3, r3, #31
    34f4:	eb05 4510 	add.w	r5, r5, r0, lsr #16
    34f8:	d503      	bpl.n	3502 <inet_chksum_pseudo+0x36>
    34fa:	f1c6 0601 	rsb	r6, r6, #1
    34fe:	b2f6      	uxtb	r6, r6
    3500:	ba6d      	rev16	r5, r5
    3502:	6824      	ldr	r4, [r4, #0]
    3504:	2c00      	cmp	r4, #0
    3506:	d1ed      	bne.n	34e4 <inet_chksum_pseudo+0x18>
    3508:	b106      	cbz	r6, 350c <inet_chksum_pseudo+0x40>
    350a:	ba6d      	rev16	r5, r5
    350c:	f8da 2000 	ldr.w	r2, [r10]
    3510:	f8d9 3000 	ldr.w	r3, [r9]
    3514:	b291      	uxth	r1, r2
    3516:	eb01 4212 	add.w	r2, r1, r2, lsr #16
    351a:	b299      	uxth	r1, r3
    351c:	440a      	add	r2, r1
    351e:	eb02 4313 	add.w	r3, r2, r3, lsr #16
    3522:	441d      	add	r5, r3
    3524:	fa98 f898 	rev16.w	r8, r8
    3528:	4445      	add	r5, r8
    352a:	ba7f      	rev16	r7, r7
    352c:	442f      	add	r7, r5
    352e:	b2bb      	uxth	r3, r7
    3530:	eb03 4717 	add.w	r7, r3, r7, lsr #16
    3534:	b2b8      	uxth	r0, r7
    3536:	eb00 4717 	add.w	r7, r0, r7, lsr #16
    353a:	43f8      	mvns	r0, r7
    353c:	b280      	uxth	r0, r0
    353e:	e8bd 87f0 	ldmia.w	sp!, {r4, r5, r6, r7, r8, r9, r10, pc}
    3542:	4605      	mov	r5, r0
    3544:	e7e2      	b.n	350c <inet_chksum_pseudo+0x40>
    3546:	bf00      	nop

00003548 <inet_chksum_pseudo_partial>:
    3548:	e92d 4ff0 	stmdb	sp!, {r4, r5, r6, r7, r8, r9, r10, r11, lr}
    354c:	b083      	sub	sp, #12
    354e:	4699      	mov	r9, r3
    3550:	f8bd 3030 	ldrh.w	r3, [sp, #48]	; 0x30
    3554:	4604      	mov	r4, r0
    3556:	468b      	mov	r11, r1
    3558:	4692      	mov	r10, r2
    355a:	9301      	str	r3, [sp, #4]
    355c:	f8bd 5034 	ldrh.w	r5, [sp, #52]	; 0x34
    3560:	2800      	cmp	r0, #0
    3562:	d042      	beq.n	35ea <inet_chksum_pseudo_partial+0xa2>
    3564:	2d00      	cmp	r5, #0
    3566:	d042      	beq.n	35ee <inet_chksum_pseudo_partial+0xa6>
    3568:	2700      	movs	r7, #0
    356a:	463e      	mov	r6, r7
    356c:	e000      	b.n	3570 <inet_chksum_pseudo_partial+0x28>
    356e:	b1cd      	cbz	r5, 35a4 <inet_chksum_pseudo_partial+0x5c>
    3570:	8963      	ldrh	r3, [r4, #10]
    3572:	6860      	ldr	r0, [r4, #4]
    3574:	429d      	cmp	r5, r3
    3576:	bf34      	ite	cc
    3578:	46a8      	movcc	r8, r5
    357a:	4698      	movcs	r8, r3
    357c:	4641      	mov	r1, r8
    357e:	f001 f9a5 	bl	48cc <thumb2_checksum>
    3582:	8962      	ldrh	r2, [r4, #10]
    3584:	4430      	add	r0, r6
    3586:	ebc8 0505 	rsb	r5, r8, r5
    358a:	b286      	uxth	r6, r0
    358c:	07d3      	lsls	r3, r2, #31
    358e:	b2ad      	uxth	r5, r5
    3590:	eb06 4610 	add.w	r6, r6, r0, lsr #16
    3594:	d503      	bpl.n	359e <inet_chksum_pseudo_partial+0x56>
    3596:	f1c7 0701 	rsb	r7, r7, #1
    359a:	b2ff      	uxtb	r7, r7
    359c:	ba76      	rev16	r6, r6
    359e:	6824      	ldr	r4, [r4, #0]
    35a0:	2c00      	cmp	r4, #0
    35a2:	d1e4      	bne.n	356e <inet_chksum_pseudo_partial+0x26>
    35a4:	b107      	cbz	r7, 35a8 <inet_chksum_pseudo_partial+0x60>
    35a6:	ba76      	rev16	r6, r6
    35a8:	f8db 2000 	ldr.w	r2, [r11]
    35ac:	f8da 3000 	ldr.w	r3, [r10]
    35b0:	b291      	uxth	r1, r2
    35b2:	eb01 4212 	add.w	r2, r1, r2, lsr #16
    35b6:	b299      	uxth	r1, r3
    35b8:	440a      	add	r2, r1
    35ba:	eb02 4313 	add.w	r3, r2, r3, lsr #16
    35be:	441e      	add	r6, r3
    35c0:	fa99 f999 	rev16.w	r9, r9
    35c4:	444e      	add	r6, r9
    35c6:	9b01      	ldr	r3, [sp, #4]
    35c8:	fa93 f893 	rev16.w	r8, r3
    35cc:	44b0      	add	r8, r6
    35ce:	fa1f f388 	uxth.w	r3, r8
    35d2:	eb03 4818 	add.w	r8, r3, r8, lsr #16
    35d6:	fa1f f088 	uxth.w	r0, r8
    35da:	eb00 4818 	add.w	r8, r0, r8, lsr #16
    35de:	ea6f 0008 	mvn.w	r0, r8
    35e2:	b280      	uxth	r0, r0
    35e4:	b003      	add	sp, #12
    35e6:	e8bd 8ff0 	ldmia.w	sp!, {r4, r5, r6, r7, r8, r9, r10, r11, pc}
    35ea:	4606      	mov	r6, r0
    35ec:	e7dc      	b.n	35a8 <inet_chksum_pseudo_partial+0x60>
    35ee:	462e      	mov	r6, r5
    35f0:	e7da      	b.n	35a8 <inet_chksum_pseudo_partial+0x60>
    35f2:	bf00      	nop

000035f4 <inet_chksum>:
    35f4:	b508      	push	{r3, lr}
    35f6:	f001 f969 	bl	48cc <thumb2_checksum>
    35fa:	43c0      	mvns	r0, r0
    35fc:	b280      	uxth	r0, r0
    35fe:	bd08      	pop	{r3, pc}

00003600 <inet_chksum_pbuf>:
    3600:	b570      	push	{r4, r5, r6, lr}
    3602:	4604      	mov	r4, r0
    3604:	b1d8      	cbz	r0, 363e <inet_chksum_pbuf+0x3e>
    3606:	2600      	movs	r6, #0
    3608:	4635      	mov	r5, r6
    360a:	6860      	ldr	r0, [r4, #4]
    360c:	8961      	ldrh	r1, [r4, #10]
    360e:	f001 f95d 	bl	48cc <thumb2_checksum>
    3612:	8963      	ldrh	r3, [r4, #10]
    3614:	4428      	add	r0, r5
    3616:	b285      	uxth	r5, r0
    3618:	07db      	lsls	r3, r3, #31
    361a:	eb05 4510 	add.w	r5, r5, r0, lsr #16
    361e:	d503      	bpl.n	3628 <inet_chksum_pbuf+0x28>
    3620:	f1c6 0601 	rsb	r6, r6, #1
    3624:	b2f6      	uxtb	r6, r6
    3626:	ba6d      	rev16	r5, r5
    3628:	6824      	ldr	r4, [r4, #0]
    362a:	2c00      	cmp	r4, #0
    362c:	d1ed      	bne.n	360a <inet_chksum_pbuf+0xa>
    362e:	b11e      	cbz	r6, 3638 <inet_chksum_pbuf+0x38>
    3630:	ba68      	rev16	r0, r5
    3632:	43c0      	mvns	r0, r0
    3634:	b280      	uxth	r0, r0
    3636:	bd70      	pop	{r4, r5, r6, pc}
    3638:	43e8      	mvns	r0, r5
    363a:	b280      	uxth	r0, r0
    363c:	bd70      	pop	{r4, r5, r6, pc}
    363e:	f64f 70ff 	movw	r0, #65535	; 0xffff
    3642:	bd70      	pop	{r4, r5, r6, pc}

00003644 <lwip_chksum_copy>:
    3644:	b538      	push	{r3, r4, r5, lr}
    3646:	4605      	mov	r5, r0
    3648:	4614      	mov	r4, r2
    364a:	f001 f97d 	bl	4948 <thumb2_memcpy>
    364e:	4628      	mov	r0, r5
    3650:	4621      	mov	r1, r4
    3652:	e8bd 4038 	ldmia.w	sp!, {r3, r4, r5, lr}
    3656:	f001 b939 	b.w	48cc <thumb2_checksum>
    365a:	bf00      	nop

0000365c <ip_route>:
    365c:	b410      	push	{r4}
    365e:	4b0f      	ldr	r3, [pc, #60]	; (369c <ip_route+0x40>)
    3660:	681b      	ldr	r3, [r3, #0]
    3662:	b16b      	cbz	r3, 3680 <ip_route+0x24>
    3664:	f893 2039 	ldrb.w	r2, [r3, #57]	; 0x39
    3668:	07d2      	lsls	r2, r2, #31
    366a:	d5f9      	bpl.n	3660 <ip_route+0x4>
    366c:	685c      	ldr	r4, [r3, #4]
    366e:	6801      	ldr	r1, [r0, #0]
    3670:	689a      	ldr	r2, [r3, #8]
    3672:	4061      	eors	r1, r4
    3674:	4211      	tst	r1, r2
    3676:	d1f3      	bne.n	3660 <ip_route+0x4>
    3678:	4618      	mov	r0, r3
    367a:	f85d 4b04 	ldr.w	r4, [sp], #4
    367e:	4770      	bx	lr
    3680:	4b07      	ldr	r3, [pc, #28]	; (36a0 <ip_route+0x44>)
    3682:	681b      	ldr	r3, [r3, #0]
    3684:	2b00      	cmp	r3, #0
    3686:	d0f7      	beq.n	3678 <ip_route+0x1c>
    3688:	f893 2039 	ldrb.w	r2, [r3, #57]	; 0x39
    368c:	f85d 4b04 	ldr.w	r4, [sp], #4
    3690:	f012 0f01 	tst.w	r2, #1
    3694:	bf14      	ite	ne
    3696:	4618      	movne	r0, r3
    3698:	2000      	moveq	r0, #0
    369a:	4770      	bx	lr
    369c:	10000fb4 	.word	0x10000fb4
    36a0:	10000fb8 	.word	0x10000fb8

000036a4 <ip_input>:
    36a4:	e92d 4ff8 	stmdb	sp!, {r3, r4, r5, r6, r7, r8, r9, r10, r11, lr}
    36a8:	6847      	ldr	r7, [r0, #4]
    36aa:	4605      	mov	r5, r0
    36ac:	468b      	mov	r11, r1
    36ae:	f8b7 8000 	ldrh.w	r8, [r7]
    36b2:	fa98 f398 	rev16.w	r3, r8
    36b6:	0b1b      	lsrs	r3, r3, #12
    36b8:	2b04      	cmp	r3, #4
    36ba:	d10e      	bne.n	36da <ip_input+0x36>
    36bc:	fa98 f898 	rev16.w	r8, r8
    36c0:	f3c8 2803 	ubfx	r8, r8, #8, #4
    36c4:	ea4f 0888 	mov.w	r8, r8, lsl #2
    36c8:	8879      	ldrh	r1, [r7, #2]
    36ca:	ba49      	rev16	r1, r1
    36cc:	8943      	ldrh	r3, [r0, #10]
    36ce:	b28c      	uxth	r4, r1
    36d0:	4543      	cmp	r3, r8
    36d2:	d302      	bcc.n	36da <ip_input+0x36>
    36d4:	8903      	ldrh	r3, [r0, #8]
    36d6:	42a3      	cmp	r3, r4
    36d8:	d205      	bcs.n	36e6 <ip_input+0x42>
    36da:	4628      	mov	r0, r5
    36dc:	f7fe f81e 	bl	171c <pbuf_free>
    36e0:	2000      	movs	r0, #0
    36e2:	e8bd 8ff8 	ldmia.w	sp!, {r3, r4, r5, r6, r7, r8, r9, r10, r11, pc}
    36e6:	4638      	mov	r0, r7
    36e8:	4641      	mov	r1, r8
    36ea:	f7ff ff83 	bl	35f4 <inet_chksum>
    36ee:	2800      	cmp	r0, #0
    36f0:	d1f3      	bne.n	36da <ip_input+0x36>
    36f2:	4621      	mov	r1, r4
    36f4:	4628      	mov	r0, r5
    36f6:	f7fe f8db 	bl	18b0 <pbuf_realloc>
    36fa:	f8df 9164 	ldr.w	r9, [pc, #356]	; 3860 <ip_input+0x1bc>
    36fe:	693b      	ldr	r3, [r7, #16]
    3700:	4954      	ldr	r1, [pc, #336]	; (3854 <ip_input+0x1b0>)
    3702:	f8c9 3000 	str.w	r3, [r9]
    3706:	68fa      	ldr	r2, [r7, #12]
    3708:	f003 03f0 	and.w	r3, r3, #240	; 0xf0
    370c:	2be0      	cmp	r3, #224	; 0xe0
    370e:	600a      	str	r2, [r1, #0]
    3710:	f000 8086 	beq.w	3820 <ip_input+0x17c>
    3714:	f8df a14c 	ldr.w	r10, [pc, #332]	; 3864 <ip_input+0x1c0>
    3718:	465c      	mov	r4, r11
    371a:	2601      	movs	r6, #1
    371c:	f894 3039 	ldrb.w	r3, [r4, #57]	; 0x39
    3720:	07da      	lsls	r2, r3, #31
    3722:	d50b      	bpl.n	373c <ip_input+0x98>
    3724:	1d23      	adds	r3, r4, #4
    3726:	d009      	beq.n	373c <ip_input+0x98>
    3728:	6863      	ldr	r3, [r4, #4]
    372a:	b13b      	cbz	r3, 373c <ip_input+0x98>
    372c:	f8d9 0000 	ldr.w	r0, [r9]
    3730:	4283      	cmp	r3, r0
    3732:	d016      	beq.n	3762 <ip_input+0xbe>
    3734:	4621      	mov	r1, r4
    3736:	f000 f981 	bl	3a3c <ip4_addr_isbroadcast>
    373a:	b990      	cbnz	r0, 3762 <ip_input+0xbe>
    373c:	b146      	cbz	r6, 3750 <ip_input+0xac>
    373e:	f8da 4000 	ldr.w	r4, [r10]
    3742:	455c      	cmp	r4, r11
    3744:	bf08      	it	eq
    3746:	6824      	ldreq	r4, [r4, #0]
    3748:	2c00      	cmp	r4, #0
    374a:	d06d      	beq.n	3828 <ip_input+0x184>
    374c:	2600      	movs	r6, #0
    374e:	e7e5      	b.n	371c <ip_input+0x78>
    3750:	6824      	ldr	r4, [r4, #0]
    3752:	e7f6      	b.n	3742 <ip_input+0x9e>
    3754:	4658      	mov	r0, r11
    3756:	4649      	mov	r1, r9
    3758:	f7ff fe10 	bl	337c <igmp_lookfor_group>
    375c:	2800      	cmp	r0, #0
    375e:	d063      	beq.n	3828 <ip_input+0x184>
    3760:	465c      	mov	r4, r11
    3762:	2c00      	cmp	r4, #0
    3764:	d060      	beq.n	3828 <ip_input+0x184>
    3766:	4a3b      	ldr	r2, [pc, #236]	; (3854 <ip_input+0x1b0>)
    3768:	6810      	ldr	r0, [r2, #0]
    376a:	4616      	mov	r6, r2
    376c:	b9d0      	cbnz	r0, 37a4 <ip_input+0x100>
    376e:	2c00      	cmp	r4, #0
    3770:	d0b3      	beq.n	36da <ip_input+0x36>
    3772:	88fb      	ldrh	r3, [r7, #6]
    3774:	f023 03c0 	bic.w	r3, r3, #192	; 0xc0
    3778:	2b00      	cmp	r3, #0
    377a:	d15a      	bne.n	3832 <ip_input+0x18e>
    377c:	7a7b      	ldrb	r3, [r7, #9]
    377e:	4e36      	ldr	r6, [pc, #216]	; (3858 <ip_input+0x1b4>)
    3780:	4c36      	ldr	r4, [pc, #216]	; (385c <ip_input+0x1b8>)
    3782:	3b01      	subs	r3, #1
    3784:	f8c6 b000 	str.w	r11, [r6]
    3788:	6027      	str	r7, [r4, #0]
    378a:	2b10      	cmp	r3, #16
    378c:	d831      	bhi.n	37f2 <ip_input+0x14e>
    378e:	e8df f003 	tbb	[pc, r3]
    3792:	252b      	.short	0x252b
    3794:	20303030 	.word	0x20303030
    3798:	30303030 	.word	0x30303030
    379c:	30303030 	.word	0x30303030
    37a0:	3030      	.short	0x3030
    37a2:	14          	.byte	0x14
    37a3:	00          	.byte	0x00
    37a4:	4659      	mov	r1, r11
    37a6:	f000 f949 	bl	3a3c <ip4_addr_isbroadcast>
    37aa:	2800      	cmp	r0, #0
    37ac:	d195      	bne.n	36da <ip_input+0x36>
    37ae:	6833      	ldr	r3, [r6, #0]
    37b0:	f003 03f0 	and.w	r3, r3, #240	; 0xf0
    37b4:	2be0      	cmp	r3, #224	; 0xe0
    37b6:	d1da      	bne.n	376e <ip_input+0xca>
    37b8:	e78f      	b.n	36da <ip_input+0x36>
    37ba:	4628      	mov	r0, r5
    37bc:	4659      	mov	r1, r11
    37be:	f004 fb9b 	bl	7ef8 <udp_input>
    37c2:	4924      	ldr	r1, [pc, #144]	; (3854 <ip_input+0x1b0>)
    37c4:	2300      	movs	r3, #0
    37c6:	6033      	str	r3, [r6, #0]
    37c8:	6023      	str	r3, [r4, #0]
    37ca:	600b      	str	r3, [r1, #0]
    37cc:	f8c9 3000 	str.w	r3, [r9]
    37d0:	e786      	b.n	36e0 <ip_input+0x3c>
    37d2:	4628      	mov	r0, r5
    37d4:	4659      	mov	r1, r11
    37d6:	f003 ff33 	bl	7640 <tcp_input>
    37da:	e7f2      	b.n	37c2 <ip_input+0x11e>
    37dc:	4628      	mov	r0, r5
    37de:	4659      	mov	r1, r11
    37e0:	4a1f      	ldr	r2, [pc, #124]	; (3860 <ip_input+0x1bc>)
    37e2:	f7ff fddd 	bl	33a0 <igmp_input>
    37e6:	e7ec      	b.n	37c2 <ip_input+0x11e>
    37e8:	4628      	mov	r0, r5
    37ea:	4659      	mov	r1, r11
    37ec:	f004 fe3a 	bl	8464 <icmp_input>
    37f0:	e7e7      	b.n	37c2 <ip_input+0x11e>
    37f2:	4659      	mov	r1, r11
    37f4:	f8d9 0000 	ldr.w	r0, [r9]
    37f8:	f8df 8064 	ldr.w	r8, [pc, #100]	; 3860 <ip_input+0x1bc>
    37fc:	f000 f91e 	bl	3a3c <ip4_addr_isbroadcast>
    3800:	b950      	cbnz	r0, 3818 <ip_input+0x174>
    3802:	f8d8 3000 	ldr.w	r3, [r8]
    3806:	f003 03f0 	and.w	r3, r3, #240	; 0xf0
    380a:	2be0      	cmp	r3, #224	; 0xe0
    380c:	d004      	beq.n	3818 <ip_input+0x174>
    380e:	606f      	str	r7, [r5, #4]
    3810:	4628      	mov	r0, r5
    3812:	2102      	movs	r1, #2
    3814:	f004 feb2 	bl	857c <icmp_dest_unreach>
    3818:	4628      	mov	r0, r5
    381a:	f7fd ff7f 	bl	171c <pbuf_free>
    381e:	e7d0      	b.n	37c2 <ip_input+0x11e>
    3820:	f99b 3039 	ldrsb.w	r3, [r11, #57]	; 0x39
    3824:	2b00      	cmp	r3, #0
    3826:	db95      	blt.n	3754 <ip_input+0xb0>
    3828:	7a7b      	ldrb	r3, [r7, #9]
    382a:	2b11      	cmp	r3, #17
    382c:	d00a      	beq.n	3844 <ip_input+0x1a0>
    382e:	2400      	movs	r4, #0
    3830:	e799      	b.n	3766 <ip_input+0xc2>
    3832:	4628      	mov	r0, r5
    3834:	f000 fad4 	bl	3de0 <ip_reass>
    3838:	4605      	mov	r5, r0
    383a:	2800      	cmp	r0, #0
    383c:	f43f af50 	beq.w	36e0 <ip_input+0x3c>
    3840:	6847      	ldr	r7, [r0, #4]
    3842:	e79b      	b.n	377c <ip_input+0xd8>
    3844:	44b8      	add	r8, r7
    3846:	f8b8 3002 	ldrh.w	r3, [r8, #2]
    384a:	f5b3 4f88 	cmp.w	r3, #17408	; 0x4400
    384e:	d1ee      	bne.n	382e <ip_input+0x18a>
    3850:	465c      	mov	r4, r11
    3852:	e78c      	b.n	376e <ip_input+0xca>
    3854:	10000fd4 	.word	0x10000fd4
    3858:	10000fd8 	.word	0x10000fd8
    385c:	10000fe0 	.word	0x10000fe0
    3860:	10000fdc 	.word	0x10000fdc
    3864:	10000fb4 	.word	0x10000fb4

00003868 <ip_output_if_opt>:
    3868:	e92d 4ff0 	stmdb	sp!, {r4, r5, r6, r7, r8, r9, r10, r11, lr}
    386c:	b087      	sub	sp, #28
    386e:	4615      	mov	r5, r2
    3870:	468a      	mov	r10, r1
    3872:	4698      	mov	r8, r3
    3874:	4604      	mov	r4, r0
    3876:	f89d b040 	ldrb.w	r11, [sp, #64]	; 0x40
    387a:	f89d 9044 	ldrb.w	r9, [sp, #68]	; 0x44
    387e:	9e12      	ldr	r6, [sp, #72]	; 0x48
    3880:	f8bd 7050 	ldrh.w	r7, [sp, #80]	; 0x50
    3884:	2a00      	cmp	r2, #0
    3886:	f000 808a 	beq.w	399e <ip_output_if_opt+0x136>
    388a:	2f00      	cmp	r7, #0
    388c:	d15a      	bne.n	3944 <ip_output_if_opt+0xdc>
    388e:	2314      	movs	r3, #20
    3890:	9303      	str	r3, [sp, #12]
    3892:	4620      	mov	r0, r4
    3894:	2114      	movs	r1, #20
    3896:	f7fd ff0b 	bl	16b0 <pbuf_header>
    389a:	2800      	cmp	r0, #0
    389c:	f040 8096 	bne.w	39cc <ip_output_if_opt+0x164>
    38a0:	6863      	ldr	r3, [r4, #4]
    38a2:	9903      	ldr	r1, [sp, #12]
    38a4:	f883 8008 	strb.w	r8, [r3, #8]
    38a8:	f883 9009 	strb.w	r9, [r3, #9]
    38ac:	682a      	ldr	r2, [r5, #0]
    38ae:	f44b 4e80 	orr.w	lr, r11, #16384	; 0x4000
    38b2:	ea48 2809 	orr.w	r8, r8, r9, lsl #8
    38b6:	ea4e 1e81 	orr.w	lr, lr, r1, lsl #6
    38ba:	611a      	str	r2, [r3, #16]
    38bc:	fa1f fc82 	uxth.w	r12, r2
    38c0:	ea4f 4912 	mov.w	r9, r2, lsr #16
    38c4:	fa9e fe9e 	rev16.w	lr, lr
    38c8:	f8a3 e000 	strh.w	lr, [r3]
    38cc:	8920      	ldrh	r0, [r4, #8]
    38ce:	fa1f fe8e 	uxth.w	lr, lr
    38d2:	ba40      	rev16	r0, r0
    38d4:	493e      	ldr	r1, [pc, #248]	; (39d0 <ip_output_if_opt+0x168>)
    38d6:	2200      	movs	r2, #0
    38d8:	8058      	strh	r0, [r3, #2]
    38da:	719a      	strb	r2, [r3, #6]
    38dc:	b280      	uxth	r0, r0
    38de:	71da      	strb	r2, [r3, #7]
    38e0:	f8b1 b000 	ldrh.w	r11, [r1]
    38e4:	fa9b f19b 	rev16.w	r1, r11
    38e8:	4a39      	ldr	r2, [pc, #228]	; (39d0 <ip_output_if_opt+0x168>)
    38ea:	f10b 0b01 	add.w	r11, r11, #1
    38ee:	8099      	strh	r1, [r3, #4]
    38f0:	f8a2 b000 	strh.w	r11, [r2]
    38f4:	b289      	uxth	r1, r1
    38f6:	f1ba 0f00 	cmp.w	r10, #0
    38fa:	d04d      	beq.n	3998 <ip_output_if_opt+0x130>
    38fc:	f8da 2000 	ldr.w	r2, [r10]
    3900:	2a00      	cmp	r2, #0
    3902:	d049      	beq.n	3998 <ip_output_if_opt+0x130>
    3904:	60da      	str	r2, [r3, #12]
    3906:	44cc      	add	r12, r9
    3908:	44e0      	add	r8, r12
    390a:	4447      	add	r7, r8
    390c:	44be      	add	lr, r7
    390e:	4470      	add	r0, lr
    3910:	b297      	uxth	r7, r2
    3912:	4401      	add	r1, r0
    3914:	4439      	add	r1, r7
    3916:	eb01 4212 	add.w	r2, r1, r2, lsr #16
    391a:	b291      	uxth	r1, r2
    391c:	eb01 4212 	add.w	r2, r1, r2, lsr #16
    3920:	eb02 4212 	add.w	r2, r2, r2, lsr #16
    3924:	43d2      	mvns	r2, r2
    3926:	815a      	strh	r2, [r3, #10]
    3928:	8e33      	ldrh	r3, [r6, #48]	; 0x30
    392a:	b113      	cbz	r3, 3932 <ip_output_if_opt+0xca>
    392c:	8922      	ldrh	r2, [r4, #8]
    392e:	429a      	cmp	r2, r3
    3930:	d83b      	bhi.n	39aa <ip_output_if_opt+0x142>
    3932:	4621      	mov	r1, r4
    3934:	462a      	mov	r2, r5
    3936:	6973      	ldr	r3, [r6, #20]
    3938:	4630      	mov	r0, r6
    393a:	4798      	blx	r3
    393c:	b240      	sxtb	r0, r0
    393e:	b007      	add	sp, #28
    3940:	e8bd 8ff0 	ldmia.w	sp!, {r4, r5, r6, r7, r8, r9, r10, r11, pc}
    3944:	1cfb      	adds	r3, r7, #3
    3946:	f023 0303 	bic.w	r3, r3, #3
    394a:	b29b      	uxth	r3, r3
    394c:	f103 0214 	add.w	r2, r3, #20
    3950:	b219      	sxth	r1, r3
    3952:	b292      	uxth	r2, r2
    3954:	9301      	str	r3, [sp, #4]
    3956:	9203      	str	r2, [sp, #12]
    3958:	f7fd feaa 	bl	16b0 <pbuf_header>
    395c:	9b01      	ldr	r3, [sp, #4]
    395e:	4684      	mov	r12, r0
    3960:	2800      	cmp	r0, #0
    3962:	d133      	bne.n	39cc <ip_output_if_opt+0x164>
    3964:	6860      	ldr	r0, [r4, #4]
    3966:	9913      	ldr	r1, [sp, #76]	; 0x4c
    3968:	463a      	mov	r2, r7
    396a:	9301      	str	r3, [sp, #4]
    396c:	f8cd c008 	str.w	r12, [sp, #8]
    3970:	f000 ffea 	bl	4948 <thumb2_memcpy>
    3974:	9b01      	ldr	r3, [sp, #4]
    3976:	f8dd c008 	ldr.w	r12, [sp, #8]
    397a:	429f      	cmp	r7, r3
    397c:	d31e      	bcc.n	39bc <ip_output_if_opt+0x154>
    397e:	085f      	lsrs	r7, r3, #1
    3980:	2b00      	cmp	r3, #0
    3982:	d086      	beq.n	3892 <ip_output_if_opt+0x2a>
    3984:	2300      	movs	r3, #0
    3986:	6860      	ldr	r0, [r4, #4]
    3988:	0079      	lsls	r1, r7, #1
    398a:	461f      	mov	r7, r3
    398c:	5ac2      	ldrh	r2, [r0, r3]
    398e:	3302      	adds	r3, #2
    3990:	428b      	cmp	r3, r1
    3992:	4417      	add	r7, r2
    3994:	d1fa      	bne.n	398c <ip_output_if_opt+0x124>
    3996:	e77c      	b.n	3892 <ip_output_if_opt+0x2a>
    3998:	6872      	ldr	r2, [r6, #4]
    399a:	60da      	str	r2, [r3, #12]
    399c:	e7b3      	b.n	3906 <ip_output_if_opt+0x9e>
    399e:	6843      	ldr	r3, [r0, #4]
    39a0:	ad06      	add	r5, sp, #24
    39a2:	691b      	ldr	r3, [r3, #16]
    39a4:	f845 3d04 	str.w	r3, [r5, #-4]!
    39a8:	e7be      	b.n	3928 <ip_output_if_opt+0xc0>
    39aa:	4620      	mov	r0, r4
    39ac:	4631      	mov	r1, r6
    39ae:	462a      	mov	r2, r5
    39b0:	f000 fb94 	bl	40dc <ip_frag>
    39b4:	b240      	sxtb	r0, r0
    39b6:	b007      	add	sp, #28
    39b8:	e8bd 8ff0 	ldmia.w	sp!, {r4, r5, r6, r7, r8, r9, r10, r11, pc}
    39bc:	6860      	ldr	r0, [r4, #4]
    39be:	1bda      	subs	r2, r3, r7
    39c0:	4661      	mov	r1, r12
    39c2:	4438      	add	r0, r7
    39c4:	f008 fb2c 	bl	c020 <memset>
    39c8:	9b01      	ldr	r3, [sp, #4]
    39ca:	e7d8      	b.n	397e <ip_output_if_opt+0x116>
    39cc:	20fe      	movs	r0, #254	; 0xfe
    39ce:	e7b5      	b.n	393c <ip_output_if_opt+0xd4>
    39d0:	10000324 	.word	0x10000324

000039d4 <ip_output_if>:
    39d4:	b5f0      	push	{r4, r5, r6, r7, lr}
    39d6:	b087      	sub	sp, #28
    39d8:	f89d 7030 	ldrb.w	r7, [sp, #48]	; 0x30
    39dc:	f89d 6034 	ldrb.w	r6, [sp, #52]	; 0x34
    39e0:	9d0e      	ldr	r5, [sp, #56]	; 0x38
    39e2:	2400      	movs	r4, #0
    39e4:	9700      	str	r7, [sp, #0]
    39e6:	9601      	str	r6, [sp, #4]
    39e8:	9502      	str	r5, [sp, #8]
    39ea:	9403      	str	r4, [sp, #12]
    39ec:	9404      	str	r4, [sp, #16]
    39ee:	f7ff ff3b 	bl	3868 <ip_output_if_opt>
    39f2:	b007      	add	sp, #28
    39f4:	bdf0      	pop	{r4, r5, r6, r7, pc}
    39f6:	bf00      	nop

000039f8 <ip_output>:
    39f8:	e92d 41f0 	stmdb	sp!, {r4, r5, r6, r7, r8, lr}
    39fc:	4606      	mov	r6, r0
    39fe:	b086      	sub	sp, #24
    3a00:	4610      	mov	r0, r2
    3a02:	4688      	mov	r8, r1
    3a04:	461f      	mov	r7, r3
    3a06:	4614      	mov	r4, r2
    3a08:	f7ff fe28 	bl	365c <ip_route>
    3a0c:	f89d 1030 	ldrb.w	r1, [sp, #48]	; 0x30
    3a10:	f89d 3034 	ldrb.w	r3, [sp, #52]	; 0x34
    3a14:	b178      	cbz	r0, 3a36 <ip_output+0x3e>
    3a16:	2500      	movs	r5, #0
    3a18:	e88d 000a 	stmia.w	sp, {r1, r3}
    3a1c:	9002      	str	r0, [sp, #8]
    3a1e:	4641      	mov	r1, r8
    3a20:	4630      	mov	r0, r6
    3a22:	4622      	mov	r2, r4
    3a24:	463b      	mov	r3, r7
    3a26:	9503      	str	r5, [sp, #12]
    3a28:	9504      	str	r5, [sp, #16]
    3a2a:	f7ff ff1d 	bl	3868 <ip_output_if_opt>
    3a2e:	b240      	sxtb	r0, r0
    3a30:	b006      	add	sp, #24
    3a32:	e8bd 81f0 	ldmia.w	sp!, {r4, r5, r6, r7, r8, pc}
    3a36:	20fc      	movs	r0, #252	; 0xfc
    3a38:	e7f9      	b.n	3a2e <ip_output+0x36>
    3a3a:	bf00      	nop

00003a3c <ip4_addr_isbroadcast>:
    3a3c:	1e42      	subs	r2, r0, #1
    3a3e:	3203      	adds	r2, #3
    3a40:	4603      	mov	r3, r0
    3a42:	d815      	bhi.n	3a70 <ip4_addr_isbroadcast+0x34>
    3a44:	f891 2039 	ldrb.w	r2, [r1, #57]	; 0x39
    3a48:	f002 0202 	and.w	r2, r2, #2
    3a4c:	f002 00ff 	and.w	r0, r2, #255	; 0xff
    3a50:	b16a      	cbz	r2, 3a6e <ip4_addr_isbroadcast+0x32>
    3a52:	684a      	ldr	r2, [r1, #4]
    3a54:	429a      	cmp	r2, r3
    3a56:	d009      	beq.n	3a6c <ip4_addr_isbroadcast+0x30>
    3a58:	6888      	ldr	r0, [r1, #8]
    3a5a:	405a      	eors	r2, r3
    3a5c:	4202      	tst	r2, r0
    3a5e:	d105      	bne.n	3a6c <ip4_addr_isbroadcast+0x30>
    3a60:	43c0      	mvns	r0, r0
    3a62:	4003      	ands	r3, r0
    3a64:	1ac3      	subs	r3, r0, r3
    3a66:	4258      	negs	r0, r3
    3a68:	4158      	adcs	r0, r3
    3a6a:	4770      	bx	lr
    3a6c:	2000      	movs	r0, #0
    3a6e:	4770      	bx	lr
    3a70:	2001      	movs	r0, #1
    3a72:	4770      	bx	lr

00003a74 <ipaddr_aton>:
    3a74:	e92d 03f0 	stmdb	sp!, {r4, r5, r6, r7, r8, r9}
    3a78:	7803      	ldrb	r3, [r0, #0]
    3a7a:	b084      	sub	sp, #16
    3a7c:	f1a3 0230 	sub.w	r2, r3, #48	; 0x30
    3a80:	b2d4      	uxtb	r4, r2
    3a82:	2c09      	cmp	r4, #9
    3a84:	d835      	bhi.n	3af2 <ipaddr_aton+0x7e>
    3a86:	46e9      	mov	r9, sp
    3a88:	46ec      	mov	r12, sp
    3a8a:	f10d 080c 	add.w	r8, sp, #12
    3a8e:	2b30      	cmp	r3, #48	; 0x30
    3a90:	d034      	beq.n	3afc <ipaddr_aton+0x88>
    3a92:	270a      	movs	r7, #10
    3a94:	2400      	movs	r4, #0
    3a96:	e006      	b.n	3aa6 <ipaddr_aton+0x32>
    3a98:	fb07 3404 	mla	r4, r7, r4, r3
    3a9c:	7843      	ldrb	r3, [r0, #1]
    3a9e:	3c30      	subs	r4, #48	; 0x30
    3aa0:	3001      	adds	r0, #1
    3aa2:	f1a3 0230 	sub.w	r2, r3, #48	; 0x30
    3aa6:	b2d5      	uxtb	r5, r2
    3aa8:	f023 0620 	bic.w	r6, r3, #32
    3aac:	3e41      	subs	r6, #65	; 0x41
    3aae:	f1a3 0261 	sub.w	r2, r3, #97	; 0x61
    3ab2:	2d09      	cmp	r5, #9
    3ab4:	b2f6      	uxtb	r6, r6
    3ab6:	b2d2      	uxtb	r2, r2
    3ab8:	d9ee      	bls.n	3a98 <ipaddr_aton+0x24>
    3aba:	2f10      	cmp	r7, #16
    3abc:	d10c      	bne.n	3ad8 <ipaddr_aton+0x64>
    3abe:	2e05      	cmp	r6, #5
    3ac0:	d80a      	bhi.n	3ad8 <ipaddr_aton+0x64>
    3ac2:	2a19      	cmp	r2, #25
    3ac4:	f103 030a 	add.w	r3, r3, #10
    3ac8:	bf8c      	ite	hi
    3aca:	2241      	movhi	r2, #65	; 0x41
    3acc:	2261      	movls	r2, #97	; 0x61
    3ace:	1a9b      	subs	r3, r3, r2
    3ad0:	ea43 1404 	orr.w	r4, r3, r4, lsl #4
    3ad4:	7843      	ldrb	r3, [r0, #1]
    3ad6:	e7e3      	b.n	3aa0 <ipaddr_aton+0x2c>
    3ad8:	2b2e      	cmp	r3, #46	; 0x2e
    3ada:	d11f      	bne.n	3b1c <ipaddr_aton+0xa8>
    3adc:	45c4      	cmp	r12, r8
    3ade:	d008      	beq.n	3af2 <ipaddr_aton+0x7e>
    3ae0:	f84c 4b04 	str.w	r4, [r12], #4
    3ae4:	7843      	ldrb	r3, [r0, #1]
    3ae6:	3001      	adds	r0, #1
    3ae8:	f1a3 0230 	sub.w	r2, r3, #48	; 0x30
    3aec:	b2d4      	uxtb	r4, r2
    3aee:	2c09      	cmp	r4, #9
    3af0:	d9cd      	bls.n	3a8e <ipaddr_aton+0x1a>
    3af2:	2000      	movs	r0, #0
    3af4:	b004      	add	sp, #16
    3af6:	e8bd 03f0 	ldmia.w	sp!, {r4, r5, r6, r7, r8, r9}
    3afa:	4770      	bx	lr
    3afc:	7843      	ldrb	r3, [r0, #1]
    3afe:	f003 02df 	and.w	r2, r3, #223	; 0xdf
    3b02:	2a58      	cmp	r2, #88	; 0x58
    3b04:	d004      	beq.n	3b10 <ipaddr_aton+0x9c>
    3b06:	3001      	adds	r0, #1
    3b08:	2708      	movs	r7, #8
    3b0a:	f1a3 0230 	sub.w	r2, r3, #48	; 0x30
    3b0e:	e7c1      	b.n	3a94 <ipaddr_aton+0x20>
    3b10:	7883      	ldrb	r3, [r0, #2]
    3b12:	2710      	movs	r7, #16
    3b14:	3002      	adds	r0, #2
    3b16:	f1a3 0230 	sub.w	r2, r3, #48	; 0x30
    3b1a:	e7bb      	b.n	3a94 <ipaddr_aton+0x20>
    3b1c:	f013 0fdf 	tst.w	r3, #223	; 0xdf
    3b20:	d002      	beq.n	3b28 <ipaddr_aton+0xb4>
    3b22:	3b09      	subs	r3, #9
    3b24:	2b04      	cmp	r3, #4
    3b26:	d8e4      	bhi.n	3af2 <ipaddr_aton+0x7e>
    3b28:	ebc9 000c 	rsb	r0, r9, r12
    3b2c:	1080      	asrs	r0, r0, #2
    3b2e:	3001      	adds	r0, #1
    3b30:	2804      	cmp	r0, #4
    3b32:	d818      	bhi.n	3b66 <ipaddr_aton+0xf2>
    3b34:	a301      	add	r3, pc, #4	; (adr r3, 3b3c <ipaddr_aton+0xc8>)
    3b36:	f853 f020 	ldr.w	pc, [r3, r0, lsl #2]
    3b3a:	bf00      	nop
    3b3c:	00003af5 	.word	0x00003af5
    3b40:	00003b67 	.word	0x00003b67
    3b44:	00003b85 	.word	0x00003b85
    3b48:	00003b71 	.word	0x00003b71
    3b4c:	00003b51 	.word	0x00003b51
    3b50:	2cff      	cmp	r4, #255	; 0xff
    3b52:	d8ce      	bhi.n	3af2 <ipaddr_aton+0x7e>
    3b54:	9b00      	ldr	r3, [sp, #0]
    3b56:	9a01      	ldr	r2, [sp, #4]
    3b58:	0618      	lsls	r0, r3, #24
    3b5a:	9b02      	ldr	r3, [sp, #8]
    3b5c:	ea40 4202 	orr.w	r2, r0, r2, lsl #16
    3b60:	ea42 2303 	orr.w	r3, r2, r3, lsl #8
    3b64:	431c      	orrs	r4, r3
    3b66:	b1a1      	cbz	r1, 3b92 <ipaddr_aton+0x11e>
    3b68:	ba24      	rev	r4, r4
    3b6a:	600c      	str	r4, [r1, #0]
    3b6c:	2001      	movs	r0, #1
    3b6e:	e7c1      	b.n	3af4 <ipaddr_aton+0x80>
    3b70:	f5b4 3f80 	cmp.w	r4, #65536	; 0x10000
    3b74:	d2bd      	bcs.n	3af2 <ipaddr_aton+0x7e>
    3b76:	e89d 000c 	ldmia.w	sp, {r2, r3}
    3b7a:	0612      	lsls	r2, r2, #24
    3b7c:	ea42 4303 	orr.w	r3, r2, r3, lsl #16
    3b80:	431c      	orrs	r4, r3
    3b82:	e7f0      	b.n	3b66 <ipaddr_aton+0xf2>
    3b84:	f1b4 7f80 	cmp.w	r4, #16777216	; 0x1000000
    3b88:	d2b3      	bcs.n	3af2 <ipaddr_aton+0x7e>
    3b8a:	9b00      	ldr	r3, [sp, #0]
    3b8c:	ea44 6403 	orr.w	r4, r4, r3, lsl #24
    3b90:	e7e9      	b.n	3b66 <ipaddr_aton+0xf2>
    3b92:	2001      	movs	r0, #1
    3b94:	e7ae      	b.n	3af4 <ipaddr_aton+0x80>
    3b96:	bf00      	nop

00003b98 <ipaddr_addr>:
    3b98:	b500      	push	{lr}
    3b9a:	b083      	sub	sp, #12
    3b9c:	a901      	add	r1, sp, #4
    3b9e:	f7ff ff69 	bl	3a74 <ipaddr_aton>
    3ba2:	b920      	cbnz	r0, 3bae <ipaddr_addr+0x16>
    3ba4:	f04f 30ff 	mov.w	r0, #4294967295	; 0xffffffff
    3ba8:	b003      	add	sp, #12
    3baa:	f85d fb04 	ldr.w	pc, [sp], #4
    3bae:	9801      	ldr	r0, [sp, #4]
    3bb0:	b003      	add	sp, #12
    3bb2:	f85d fb04 	ldr.w	pc, [sp], #4
    3bb6:	bf00      	nop

00003bb8 <ipaddr_ntoa_r>:
    3bb8:	e92d 0ff0 	stmdb	sp!, {r4, r5, r6, r7, r8, r9, r10, r11}
    3bbc:	6803      	ldr	r3, [r0, #0]
    3bbe:	b082      	sub	sp, #8
    3bc0:	f8df c0b0 	ldr.w	r12, [pc, #176]	; 3c74 <ipaddr_ntoa_r+0xbc>
    3bc4:	9301      	str	r3, [sp, #4]
    3bc6:	460f      	mov	r7, r1
    3bc8:	f102 0801 	add.w	r8, r2, #1
    3bcc:	f10d 0903 	add.w	r9, sp, #3
    3bd0:	f10d 0b07 	add.w	r11, sp, #7
    3bd4:	f04f 0a00 	mov.w	r10, #0
    3bd8:	f899 4001 	ldrb.w	r4, [r9, #1]
    3bdc:	2500      	movs	r5, #0
    3bde:	e000      	b.n	3be2 <ipaddr_ntoa_r+0x2a>
    3be0:	4635      	mov	r5, r6
    3be2:	fbac 0304 	umull	r0, r3, r12, r4
    3be6:	08db      	lsrs	r3, r3, #3
    3be8:	eb03 0083 	add.w	r0, r3, r3, lsl #2
    3bec:	eba4 0040 	sub.w	r0, r4, r0, lsl #1
    3bf0:	3030      	adds	r0, #48	; 0x30
    3bf2:	ac02      	add	r4, sp, #8
    3bf4:	442c      	add	r4, r5
    3bf6:	f000 00ff 	and.w	r0, r0, #255	; 0xff
    3bfa:	1c6e      	adds	r6, r5, #1
    3bfc:	f804 0c08 	strb.w	r0, [r4, #-8]
    3c00:	b2f6      	uxtb	r6, r6
    3c02:	f003 04ff 	and.w	r4, r3, #255	; 0xff
    3c06:	2b00      	cmp	r3, #0
    3c08:	d1ea      	bne.n	3be0 <ipaddr_ntoa_r+0x28>
    3c0a:	f809 4f01 	strb.w	r4, [r9, #1]!
    3c0e:	b376      	cbz	r6, 3c6e <ipaddr_ntoa_r+0xb6>
    3c10:	4552      	cmp	r2, r10
    3c12:	f10a 0401 	add.w	r4, r10, #1
    3c16:	dd23      	ble.n	3c60 <ipaddr_ntoa_r+0xa8>
    3c18:	1e6b      	subs	r3, r5, #1
    3c1a:	b2db      	uxtb	r3, r3
    3c1c:	4605      	mov	r5, r0
    3c1e:	e007      	b.n	3c30 <ipaddr_ntoa_r+0x78>
    3c20:	3401      	adds	r4, #1
    3c22:	4544      	cmp	r4, r8
    3c24:	d01c      	beq.n	3c60 <ipaddr_ntoa_r+0xa8>
    3c26:	ad02      	add	r5, sp, #8
    3c28:	442b      	add	r3, r5
    3c2a:	f813 5c08 	ldrb.w	r5, [r3, #-8]
    3c2e:	4603      	mov	r3, r0
    3c30:	1e58      	subs	r0, r3, #1
    3c32:	2bff      	cmp	r3, #255	; 0xff
    3c34:	f807 5b01 	strb.w	r5, [r7], #1
    3c38:	b2c0      	uxtb	r0, r0
    3c3a:	d1f1      	bne.n	3c20 <ipaddr_ntoa_r+0x68>
    3c3c:	42a2      	cmp	r2, r4
    3c3e:	f104 0a01 	add.w	r10, r4, #1
    3c42:	dd0d      	ble.n	3c60 <ipaddr_ntoa_r+0xa8>
    3c44:	f04f 002e 	mov.w	r0, #46	; 0x2e
    3c48:	45d9      	cmp	r9, r11
    3c4a:	7038      	strb	r0, [r7, #0]
    3c4c:	f107 0301 	add.w	r3, r7, #1
    3c50:	d10b      	bne.n	3c6a <ipaddr_ntoa_r+0xb2>
    3c52:	2300      	movs	r3, #0
    3c54:	4608      	mov	r0, r1
    3c56:	703b      	strb	r3, [r7, #0]
    3c58:	b002      	add	sp, #8
    3c5a:	e8bd 0ff0 	ldmia.w	sp!, {r4, r5, r6, r7, r8, r9, r10, r11}
    3c5e:	4770      	bx	lr
    3c60:	2000      	movs	r0, #0
    3c62:	b002      	add	sp, #8
    3c64:	e8bd 0ff0 	ldmia.w	sp!, {r4, r5, r6, r7, r8, r9, r10, r11}
    3c68:	4770      	bx	lr
    3c6a:	461f      	mov	r7, r3
    3c6c:	e7b4      	b.n	3bd8 <ipaddr_ntoa_r+0x20>
    3c6e:	4654      	mov	r4, r10
    3c70:	e7e4      	b.n	3c3c <ipaddr_ntoa_r+0x84>
    3c72:	bf00      	nop
    3c74:	cccccccd 	.word	0xcccccccd

00003c78 <ipaddr_ntoa>:
    3c78:	4901      	ldr	r1, [pc, #4]	; (3c80 <ipaddr_ntoa+0x8>)
    3c7a:	2210      	movs	r2, #16
    3c7c:	f7ff bf9c 	b.w	3bb8 <ipaddr_ntoa_r>
    3c80:	10000328 	.word	0x10000328

00003c84 <ipfrag_free_pbuf_custom>:
    3c84:	b510      	push	{r4, lr}
    3c86:	4604      	mov	r4, r0
    3c88:	6940      	ldr	r0, [r0, #20]
    3c8a:	b108      	cbz	r0, 3c90 <ipfrag_free_pbuf_custom+0xc>
    3c8c:	f7fd fd46 	bl	171c <pbuf_free>
    3c90:	4621      	mov	r1, r4
    3c92:	2005      	movs	r0, #5
    3c94:	e8bd 4010 	ldmia.w	sp!, {r4, lr}
    3c98:	f7fd bbd6 	b.w	1448 <memp_free>

00003c9c <ip_reass_free_complete_datagram>:
    3c9c:	e92d 41f0 	stmdb	sp!, {r4, r5, r6, r7, r8, lr}
    3ca0:	6844      	ldr	r4, [r0, #4]
    3ca2:	4607      	mov	r7, r0
    3ca4:	6863      	ldr	r3, [r4, #4]
    3ca6:	4688      	mov	r8, r1
    3ca8:	889a      	ldrh	r2, [r3, #4]
    3caa:	b31a      	cbz	r2, 3cf4 <ip_reass_free_complete_datagram+0x58>
    3cac:	2600      	movs	r6, #0
    3cae:	b90c      	cbnz	r4, 3cb4 <ip_reass_free_complete_datagram+0x18>
    3cb0:	e00c      	b.n	3ccc <ip_reass_free_complete_datagram+0x30>
    3cb2:	462c      	mov	r4, r5
    3cb4:	6863      	ldr	r3, [r4, #4]
    3cb6:	4620      	mov	r0, r4
    3cb8:	681d      	ldr	r5, [r3, #0]
    3cba:	f7fd fe23 	bl	1904 <pbuf_clen>
    3cbe:	4406      	add	r6, r0
    3cc0:	4620      	mov	r0, r4
    3cc2:	b2b6      	uxth	r6, r6
    3cc4:	f7fd fd2a 	bl	171c <pbuf_free>
    3cc8:	2d00      	cmp	r5, #0
    3cca:	d1f2      	bne.n	3cb2 <ip_reass_free_complete_datagram+0x16>
    3ccc:	4b18      	ldr	r3, [pc, #96]	; (3d30 <ip_reass_free_complete_datagram+0x94>)
    3cce:	4639      	mov	r1, r7
    3cd0:	681a      	ldr	r2, [r3, #0]
    3cd2:	2004      	movs	r0, #4
    3cd4:	4297      	cmp	r7, r2
    3cd6:	bf15      	itete	ne
    3cd8:	683b      	ldrne	r3, [r7, #0]
    3cda:	683a      	ldreq	r2, [r7, #0]
    3cdc:	f8c8 3000 	strne.w	r3, [r8]
    3ce0:	601a      	streq	r2, [r3, #0]
    3ce2:	f7fd fbb1 	bl	1448 <memp_free>
    3ce6:	4b13      	ldr	r3, [pc, #76]	; (3d34 <ip_reass_free_complete_datagram+0x98>)
    3ce8:	4630      	mov	r0, r6
    3cea:	881a      	ldrh	r2, [r3, #0]
    3cec:	1b96      	subs	r6, r2, r6
    3cee:	801e      	strh	r6, [r3, #0]
    3cf0:	e8bd 81f0 	ldmia.w	sp!, {r4, r5, r6, r7, r8, pc}
    3cf4:	6819      	ldr	r1, [r3, #0]
    3cf6:	4602      	mov	r2, r0
    3cf8:	6041      	str	r1, [r0, #4]
    3cfa:	f852 5f08 	ldr.w	r5, [r2, #8]!
    3cfe:	4620      	mov	r0, r4
    3d00:	6896      	ldr	r6, [r2, #8]
    3d02:	68d1      	ldr	r1, [r2, #12]
    3d04:	f8d2 e004 	ldr.w	lr, [r2, #4]
    3d08:	609e      	str	r6, [r3, #8]
    3d0a:	60d9      	str	r1, [r3, #12]
    3d0c:	601d      	str	r5, [r3, #0]
    3d0e:	f8c3 e004 	str.w	lr, [r3, #4]
    3d12:	6915      	ldr	r5, [r2, #16]
    3d14:	2101      	movs	r1, #1
    3d16:	611d      	str	r5, [r3, #16]
    3d18:	f004 fc36 	bl	8588 <icmp_time_exceeded>
    3d1c:	4620      	mov	r0, r4
    3d1e:	f7fd fdf1 	bl	1904 <pbuf_clen>
    3d22:	4606      	mov	r6, r0
    3d24:	4620      	mov	r0, r4
    3d26:	f7fd fcf9 	bl	171c <pbuf_free>
    3d2a:	687c      	ldr	r4, [r7, #4]
    3d2c:	e7bf      	b.n	3cae <ip_reass_free_complete_datagram+0x12>
    3d2e:	bf00      	nop
    3d30:	10000338 	.word	0x10000338
    3d34:	1000033c 	.word	0x1000033c

00003d38 <ip_reass_remove_oldest_datagram>:
    3d38:	e92d 43f8 	stmdb	sp!, {r3, r4, r5, r6, r7, r8, r9, lr}
    3d3c:	4e1b      	ldr	r6, [pc, #108]	; (3dac <ip_reass_remove_oldest_datagram+0x74>)
    3d3e:	4607      	mov	r7, r0
    3d40:	460d      	mov	r5, r1
    3d42:	f04f 0800 	mov.w	r8, #0
    3d46:	6833      	ldr	r3, [r6, #0]
    3d48:	b36b      	cbz	r3, 3da6 <ip_reass_remove_oldest_datagram+0x6e>
    3d4a:	2400      	movs	r4, #0
    3d4c:	f8d7 c00c 	ldr.w	r12, [r7, #12]
    3d50:	4621      	mov	r1, r4
    3d52:	4620      	mov	r0, r4
    3d54:	e00b      	b.n	3d6e <ip_reass_remove_oldest_datagram+0x36>
    3d56:	3401      	adds	r4, #1
    3d58:	b1c8      	cbz	r0, 3d8e <ip_reass_remove_oldest_datagram+0x56>
    3d5a:	f893 901f 	ldrb.w	r9, [r3, #31]
    3d5e:	7fc2      	ldrb	r2, [r0, #31]
    3d60:	4591      	cmp	r9, r2
    3d62:	bf98      	it	ls
    3d64:	4618      	movls	r0, r3
    3d66:	681a      	ldr	r2, [r3, #0]
    3d68:	b1aa      	cbz	r2, 3d96 <ip_reass_remove_oldest_datagram+0x5e>
    3d6a:	4619      	mov	r1, r3
    3d6c:	4613      	mov	r3, r2
    3d6e:	695a      	ldr	r2, [r3, #20]
    3d70:	4594      	cmp	r12, r2
    3d72:	d1f0      	bne.n	3d56 <ip_reass_remove_oldest_datagram+0x1e>
    3d74:	f8d7 9010 	ldr.w	r9, [r7, #16]
    3d78:	699a      	ldr	r2, [r3, #24]
    3d7a:	454a      	cmp	r2, r9
    3d7c:	d1eb      	bne.n	3d56 <ip_reass_remove_oldest_datagram+0x1e>
    3d7e:	f8b3 900c 	ldrh.w	r9, [r3, #12]
    3d82:	88ba      	ldrh	r2, [r7, #4]
    3d84:	4591      	cmp	r9, r2
    3d86:	d0ee      	beq.n	3d66 <ip_reass_remove_oldest_datagram+0x2e>
    3d88:	3401      	adds	r4, #1
    3d8a:	2800      	cmp	r0, #0
    3d8c:	d1e5      	bne.n	3d5a <ip_reass_remove_oldest_datagram+0x22>
    3d8e:	681a      	ldr	r2, [r3, #0]
    3d90:	4618      	mov	r0, r3
    3d92:	2a00      	cmp	r2, #0
    3d94:	d1e9      	bne.n	3d6a <ip_reass_remove_oldest_datagram+0x32>
    3d96:	b110      	cbz	r0, 3d9e <ip_reass_remove_oldest_datagram+0x66>
    3d98:	f7ff ff80 	bl	3c9c <ip_reass_free_complete_datagram>
    3d9c:	4480      	add	r8, r0
    3d9e:	45a8      	cmp	r8, r5
    3da0:	da01      	bge.n	3da6 <ip_reass_remove_oldest_datagram+0x6e>
    3da2:	2c01      	cmp	r4, #1
    3da4:	dccf      	bgt.n	3d46 <ip_reass_remove_oldest_datagram+0xe>
    3da6:	4640      	mov	r0, r8
    3da8:	e8bd 83f8 	ldmia.w	sp!, {r3, r4, r5, r6, r7, r8, r9, pc}
    3dac:	10000338 	.word	0x10000338

00003db0 <ip_reass_tmr>:
    3db0:	b538      	push	{r3, r4, r5, lr}
    3db2:	4b0a      	ldr	r3, [pc, #40]	; (3ddc <ip_reass_tmr+0x2c>)
    3db4:	6818      	ldr	r0, [r3, #0]
    3db6:	b140      	cbz	r0, 3dca <ip_reass_tmr+0x1a>
    3db8:	2400      	movs	r4, #0
    3dba:	7fc3      	ldrb	r3, [r0, #31]
    3dbc:	1e5a      	subs	r2, r3, #1
    3dbe:	b12b      	cbz	r3, 3dcc <ip_reass_tmr+0x1c>
    3dc0:	77c2      	strb	r2, [r0, #31]
    3dc2:	4604      	mov	r4, r0
    3dc4:	6800      	ldr	r0, [r0, #0]
    3dc6:	2800      	cmp	r0, #0
    3dc8:	d1f7      	bne.n	3dba <ip_reass_tmr+0xa>
    3dca:	bd38      	pop	{r3, r4, r5, pc}
    3dcc:	6805      	ldr	r5, [r0, #0]
    3dce:	4621      	mov	r1, r4
    3dd0:	f7ff ff64 	bl	3c9c <ip_reass_free_complete_datagram>
    3dd4:	4628      	mov	r0, r5
    3dd6:	2800      	cmp	r0, #0
    3dd8:	d1ef      	bne.n	3dba <ip_reass_tmr+0xa>
    3dda:	e7f6      	b.n	3dca <ip_reass_tmr+0x1a>
    3ddc:	10000338 	.word	0x10000338

00003de0 <ip_reass>:
    3de0:	e92d 4ff0 	stmdb	sp!, {r4, r5, r6, r7, r8, r9, r10, r11, lr}
    3de4:	6845      	ldr	r5, [r0, #4]
    3de6:	b083      	sub	sp, #12
    3de8:	4681      	mov	r9, r0
    3dea:	882e      	ldrh	r6, [r5, #0]
    3dec:	ba73      	rev16	r3, r6
    3dee:	f3c3 2303 	ubfx	r3, r3, #8, #4
    3df2:	2b05      	cmp	r3, #5
    3df4:	f040 80eb 	bne.w	3fce <ip_reass+0x1ee>
    3df8:	88eb      	ldrh	r3, [r5, #6]
    3dfa:	ba58      	rev16	r0, r3
    3dfc:	9001      	str	r0, [sp, #4]
    3dfe:	f8b5 b002 	ldrh.w	r11, [r5, #2]
    3e02:	fa9b fb9b 	rev16.w	r11, r11
    3e06:	ba76      	rev16	r6, r6
    3e08:	4648      	mov	r0, r9
    3e0a:	f7fd fd7b 	bl	1904 <pbuf_clen>
    3e0e:	f8df 82c8 	ldr.w	r8, [pc, #712]	; 40d8 <ip_reass+0x2f8>
    3e12:	4682      	mov	r10, r0
    3e14:	f8b8 3000 	ldrh.w	r3, [r8]
    3e18:	4403      	add	r3, r0
    3e1a:	2b0a      	cmp	r3, #10
    3e1c:	f300 80cc 	bgt.w	3fb8 <ip_reass+0x1d8>
    3e20:	49ac      	ldr	r1, [pc, #688]	; (40d4 <ip_reass+0x2f4>)
    3e22:	680c      	ldr	r4, [r1, #0]
    3e24:	2c00      	cmp	r4, #0
    3e26:	d07d      	beq.n	3f24 <ip_reass+0x144>
    3e28:	68ea      	ldr	r2, [r5, #12]
    3e2a:	2700      	movs	r7, #0
    3e2c:	e004      	b.n	3e38 <ip_reass+0x58>
    3e2e:	6823      	ldr	r3, [r4, #0]
    3e30:	4627      	mov	r7, r4
    3e32:	2b00      	cmp	r3, #0
    3e34:	d076      	beq.n	3f24 <ip_reass+0x144>
    3e36:	461c      	mov	r4, r3
    3e38:	6963      	ldr	r3, [r4, #20]
    3e3a:	4293      	cmp	r3, r2
    3e3c:	d1f7      	bne.n	3e2e <ip_reass+0x4e>
    3e3e:	6929      	ldr	r1, [r5, #16]
    3e40:	69a3      	ldr	r3, [r4, #24]
    3e42:	428b      	cmp	r3, r1
    3e44:	d1f3      	bne.n	3e2e <ip_reass+0x4e>
    3e46:	89a1      	ldrh	r1, [r4, #12]
    3e48:	88ab      	ldrh	r3, [r5, #4]
    3e4a:	4299      	cmp	r1, r3
    3e4c:	d1ef      	bne.n	3e2e <ip_reass+0x4e>
    3e4e:	88ea      	ldrh	r2, [r5, #6]
    3e50:	ba53      	rev16	r3, r2
    3e52:	f3c3 030c 	ubfx	r3, r3, #0, #13
    3e56:	b98b      	cbnz	r3, 3e7c <ip_reass+0x9c>
    3e58:	89e3      	ldrh	r3, [r4, #14]
    3e5a:	ba5b      	rev16	r3, r3
    3e5c:	f3c3 030c 	ubfx	r3, r3, #0, #13
    3e60:	b163      	cbz	r3, 3e7c <ip_reass+0x9c>
    3e62:	682a      	ldr	r2, [r5, #0]
    3e64:	6869      	ldr	r1, [r5, #4]
    3e66:	68a8      	ldr	r0, [r5, #8]
    3e68:	f8d5 c00c 	ldr.w	r12, [r5, #12]
    3e6c:	60a2      	str	r2, [r4, #8]
    3e6e:	60e1      	str	r1, [r4, #12]
    3e70:	6120      	str	r0, [r4, #16]
    3e72:	f8c4 c014 	str.w	r12, [r4, #20]
    3e76:	692a      	ldr	r2, [r5, #16]
    3e78:	61a2      	str	r2, [r4, #24]
    3e7a:	88ea      	ldrh	r2, [r5, #6]
    3e7c:	f8b8 3000 	ldrh.w	r3, [r8]
    3e80:	0692      	lsls	r2, r2, #26
    3e82:	449a      	add	r10, r3
    3e84:	fa1f fa8a 	uxth.w	r10, r10
    3e88:	f8a8 a000 	strh.w	r10, [r8]
    3e8c:	d56f      	bpl.n	3f6e <ip_reass+0x18e>
    3e8e:	f8d9 0004 	ldr.w	r0, [r9, #4]
    3e92:	f8b0 b002 	ldrh.w	r11, [r0, #2]
    3e96:	fa9b fb9b 	rev16.w	r11, r11
    3e9a:	8802      	ldrh	r2, [r0, #0]
    3e9c:	ba52      	rev16	r2, r2
    3e9e:	88c6      	ldrh	r6, [r0, #6]
    3ea0:	ba76      	rev16	r6, r6
    3ea2:	f3c6 060c 	ubfx	r6, r6, #0, #13
    3ea6:	2300      	movs	r3, #0
    3ea8:	00f6      	lsls	r6, r6, #3
    3eaa:	f3c2 2203 	ubfx	r2, r2, #8, #4
    3eae:	44b3      	add	r11, r6
    3eb0:	7003      	strb	r3, [r0, #0]
    3eb2:	7043      	strb	r3, [r0, #1]
    3eb4:	7083      	strb	r3, [r0, #2]
    3eb6:	70c3      	strb	r3, [r0, #3]
    3eb8:	ebab 0b82 	sub.w	r11, r11, r2, lsl #2
    3ebc:	6862      	ldr	r2, [r4, #4]
    3ebe:	fa1f fb8b 	uxth.w	r11, r11
    3ec2:	f8a0 b006 	strh.w	r11, [r0, #6]
    3ec6:	8086      	strh	r6, [r0, #4]
    3ec8:	2a00      	cmp	r2, #0
    3eca:	f000 8087 	beq.w	3fdc <ip_reass+0x1fc>
    3ece:	6853      	ldr	r3, [r2, #4]
    3ed0:	8899      	ldrh	r1, [r3, #4]
    3ed2:	428e      	cmp	r6, r1
    3ed4:	f0c0 80eb 	bcc.w	40ae <ip_reass+0x2ce>
    3ed8:	d060      	beq.n	3f9c <ip_reass+0x1bc>
    3eda:	88da      	ldrh	r2, [r3, #6]
    3edc:	42b2      	cmp	r2, r6
    3ede:	d85d      	bhi.n	3f9c <ip_reass+0x1bc>
    3ee0:	f04f 0c01 	mov.w	r12, #1
    3ee4:	e00e      	b.n	3f04 <ip_reass+0x124>
    3ee6:	684a      	ldr	r2, [r1, #4]
    3ee8:	8895      	ldrh	r5, [r2, #4]
    3eea:	42ae      	cmp	r6, r5
    3eec:	d34e      	bcc.n	3f8c <ip_reass+0x1ac>
    3eee:	d055      	beq.n	3f9c <ip_reass+0x1bc>
    3ef0:	88d1      	ldrh	r1, [r2, #6]
    3ef2:	42b1      	cmp	r1, r6
    3ef4:	d852      	bhi.n	3f9c <ip_reass+0x1bc>
    3ef6:	b123      	cbz	r3, 3f02 <ip_reass+0x122>
    3ef8:	88db      	ldrh	r3, [r3, #6]
    3efa:	42ab      	cmp	r3, r5
    3efc:	bf18      	it	ne
    3efe:	f04f 0c00 	movne.w	r12, #0
    3f02:	4613      	mov	r3, r2
    3f04:	6819      	ldr	r1, [r3, #0]
    3f06:	2900      	cmp	r1, #0
    3f08:	d1ed      	bne.n	3ee6 <ip_reass+0x106>
    3f0a:	2b00      	cmp	r3, #0
    3f0c:	d068      	beq.n	3fe0 <ip_reass+0x200>
    3f0e:	88da      	ldrh	r2, [r3, #6]
    3f10:	f8c3 9000 	str.w	r9, [r3]
    3f14:	42b2      	cmp	r2, r6
    3f16:	d065      	beq.n	3fe4 <ip_reass+0x204>
    3f18:	7fa3      	ldrb	r3, [r4, #30]
    3f1a:	f013 0301 	ands.w	r3, r3, #1
    3f1e:	d147      	bne.n	3fb0 <ip_reass+0x1d0>
    3f20:	4618      	mov	r0, r3
    3f22:	e046      	b.n	3fb2 <ip_reass+0x1d2>
    3f24:	2004      	movs	r0, #4
    3f26:	f7fd fa79 	bl	141c <memp_malloc>
    3f2a:	4603      	mov	r3, r0
    3f2c:	2800      	cmp	r0, #0
    3f2e:	f000 80c2 	beq.w	40b6 <ip_reass+0x2d6>
    3f32:	4618      	mov	r0, r3
    3f34:	2100      	movs	r1, #0
    3f36:	2220      	movs	r2, #32
    3f38:	9300      	str	r3, [sp, #0]
    3f3a:	f008 f871 	bl	c020 <memset>
    3f3e:	4865      	ldr	r0, [pc, #404]	; (40d4 <ip_reass+0x2f4>)
    3f40:	9b00      	ldr	r3, [sp, #0]
    3f42:	6802      	ldr	r2, [r0, #0]
    3f44:	2103      	movs	r1, #3
    3f46:	601a      	str	r2, [r3, #0]
    3f48:	77d9      	strb	r1, [r3, #31]
    3f4a:	6829      	ldr	r1, [r5, #0]
    3f4c:	68af      	ldr	r7, [r5, #8]
    3f4e:	68e8      	ldr	r0, [r5, #12]
    3f50:	f8d5 c004 	ldr.w	r12, [r5, #4]
    3f54:	611f      	str	r7, [r3, #16]
    3f56:	6158      	str	r0, [r3, #20]
    3f58:	6099      	str	r1, [r3, #8]
    3f5a:	f8c3 c00c 	str.w	r12, [r3, #12]
    3f5e:	6929      	ldr	r1, [r5, #16]
    3f60:	485c      	ldr	r0, [pc, #368]	; (40d4 <ip_reass+0x2f4>)
    3f62:	6199      	str	r1, [r3, #24]
    3f64:	6003      	str	r3, [r0, #0]
    3f66:	4627      	mov	r7, r4
    3f68:	88ea      	ldrh	r2, [r5, #6]
    3f6a:	461c      	mov	r4, r3
    3f6c:	e786      	b.n	3e7c <ip_reass+0x9c>
    3f6e:	9b01      	ldr	r3, [sp, #4]
    3f70:	f3c6 2603 	ubfx	r6, r6, #8, #4
    3f74:	f3c3 020c 	ubfx	r2, r3, #0, #13
    3f78:	7fa3      	ldrb	r3, [r4, #30]
    3f7a:	eb0b 0bc2 	add.w	r11, r11, r2, lsl #3
    3f7e:	ebab 0686 	sub.w	r6, r11, r6, lsl #2
    3f82:	f043 0301 	orr.w	r3, r3, #1
    3f86:	83a6      	strh	r6, [r4, #28]
    3f88:	77a3      	strb	r3, [r4, #30]
    3f8a:	e780      	b.n	3e8e <ip_reass+0xae>
    3f8c:	6001      	str	r1, [r0, #0]
    3f8e:	b33b      	cbz	r3, 3fe0 <ip_reass+0x200>
    3f90:	88da      	ldrh	r2, [r3, #6]
    3f92:	42b2      	cmp	r2, r6
    3f94:	d802      	bhi.n	3f9c <ip_reass+0x1bc>
    3f96:	45ab      	cmp	r11, r5
    3f98:	f240 8086 	bls.w	40a8 <ip_reass+0x2c8>
    3f9c:	4648      	mov	r0, r9
    3f9e:	f7fd fcb1 	bl	1904 <pbuf_clen>
    3fa2:	ebc0 0a0a 	rsb	r10, r0, r10
    3fa6:	4648      	mov	r0, r9
    3fa8:	f8a8 a000 	strh.w	r10, [r8]
    3fac:	f7fd fbb6 	bl	171c <pbuf_free>
    3fb0:	2000      	movs	r0, #0
    3fb2:	b003      	add	sp, #12
    3fb4:	e8bd 8ff0 	ldmia.w	sp!, {r4, r5, r6, r7, r8, r9, r10, r11, pc}
    3fb8:	4628      	mov	r0, r5
    3fba:	4651      	mov	r1, r10
    3fbc:	f7ff febc 	bl	3d38 <ip_reass_remove_oldest_datagram>
    3fc0:	b128      	cbz	r0, 3fce <ip_reass+0x1ee>
    3fc2:	f8b8 3000 	ldrh.w	r3, [r8]
    3fc6:	4453      	add	r3, r10
    3fc8:	2b0a      	cmp	r3, #10
    3fca:	f77f af29 	ble.w	3e20 <ip_reass+0x40>
    3fce:	4648      	mov	r0, r9
    3fd0:	f7fd fba4 	bl	171c <pbuf_free>
    3fd4:	2000      	movs	r0, #0
    3fd6:	b003      	add	sp, #12
    3fd8:	e8bd 8ff0 	ldmia.w	sp!, {r4, r5, r6, r7, r8, r9, r10, r11, pc}
    3fdc:	f04f 0c01 	mov.w	r12, #1
    3fe0:	f8c4 9004 	str.w	r9, [r4, #4]
    3fe4:	7fa3      	ldrb	r3, [r4, #30]
    3fe6:	07db      	lsls	r3, r3, #31
    3fe8:	d5e2      	bpl.n	3fb0 <ip_reass+0x1d0>
    3fea:	f1bc 0f00 	cmp.w	r12, #0
    3fee:	d0df      	beq.n	3fb0 <ip_reass+0x1d0>
    3ff0:	6863      	ldr	r3, [r4, #4]
    3ff2:	685e      	ldr	r6, [r3, #4]
    3ff4:	88b3      	ldrh	r3, [r6, #4]
    3ff6:	2b00      	cmp	r3, #0
    3ff8:	d1da      	bne.n	3fb0 <ip_reass+0x1d0>
    3ffa:	6803      	ldr	r3, [r0, #0]
    3ffc:	b173      	cbz	r3, 401c <ip_reass+0x23c>
    3ffe:	685b      	ldr	r3, [r3, #4]
    4000:	88c1      	ldrh	r1, [r0, #6]
    4002:	889a      	ldrh	r2, [r3, #4]
    4004:	4291      	cmp	r1, r2
    4006:	d006      	beq.n	4016 <ip_reass+0x236>
    4008:	e7d2      	b.n	3fb0 <ip_reass+0x1d0>
    400a:	6852      	ldr	r2, [r2, #4]
    400c:	88d8      	ldrh	r0, [r3, #6]
    400e:	8891      	ldrh	r1, [r2, #4]
    4010:	4613      	mov	r3, r2
    4012:	4288      	cmp	r0, r1
    4014:	d1cc      	bne.n	3fb0 <ip_reass+0x1d0>
    4016:	681a      	ldr	r2, [r3, #0]
    4018:	2a00      	cmp	r2, #0
    401a:	d1f6      	bne.n	400a <ip_reass+0x22a>
    401c:	8ba2      	ldrh	r2, [r4, #28]
    401e:	4623      	mov	r3, r4
    4020:	3214      	adds	r2, #20
    4022:	83a2      	strh	r2, [r4, #28]
    4024:	f853 2f08 	ldr.w	r2, [r3, #8]!
    4028:	6835      	ldr	r5, [r6, #0]
    402a:	f8d3 e004 	ldr.w	lr, [r3, #4]
    402e:	6898      	ldr	r0, [r3, #8]
    4030:	68d9      	ldr	r1, [r3, #12]
    4032:	f8c6 e004 	str.w	lr, [r6, #4]
    4036:	60b0      	str	r0, [r6, #8]
    4038:	60f1      	str	r1, [r6, #12]
    403a:	6032      	str	r2, [r6, #0]
    403c:	691a      	ldr	r2, [r3, #16]
    403e:	6132      	str	r2, [r6, #16]
    4040:	8ba2      	ldrh	r2, [r4, #28]
    4042:	ba52      	rev16	r2, r2
    4044:	2300      	movs	r3, #0
    4046:	8072      	strh	r2, [r6, #2]
    4048:	71b3      	strb	r3, [r6, #6]
    404a:	71f3      	strb	r3, [r6, #7]
    404c:	72b3      	strb	r3, [r6, #10]
    404e:	72f3      	strb	r3, [r6, #11]
    4050:	4630      	mov	r0, r6
    4052:	2114      	movs	r1, #20
    4054:	f7ff face 	bl	35f4 <inet_chksum>
    4058:	f8d4 9004 	ldr.w	r9, [r4, #4]
    405c:	8170      	strh	r0, [r6, #10]
    405e:	b165      	cbz	r5, 407a <ip_reass+0x29a>
    4060:	686e      	ldr	r6, [r5, #4]
    4062:	4628      	mov	r0, r5
    4064:	f06f 0113 	mvn.w	r1, #19
    4068:	f7fd fb22 	bl	16b0 <pbuf_header>
    406c:	4629      	mov	r1, r5
    406e:	4648      	mov	r0, r9
    4070:	f7fd fc60 	bl	1934 <pbuf_cat>
    4074:	6835      	ldr	r5, [r6, #0]
    4076:	2d00      	cmp	r5, #0
    4078:	d1f2      	bne.n	4060 <ip_reass+0x280>
    407a:	4816      	ldr	r0, [pc, #88]	; (40d4 <ip_reass+0x2f4>)
    407c:	4621      	mov	r1, r4
    407e:	6803      	ldr	r3, [r0, #0]
    4080:	429c      	cmp	r4, r3
    4082:	6823      	ldr	r3, [r4, #0]
    4084:	bf0c      	ite	eq
    4086:	6003      	streq	r3, [r0, #0]
    4088:	603b      	strne	r3, [r7, #0]
    408a:	2004      	movs	r0, #4
    408c:	f7fd f9dc 	bl	1448 <memp_free>
    4090:	4648      	mov	r0, r9
    4092:	f8b8 4000 	ldrh.w	r4, [r8]
    4096:	f7fd fc35 	bl	1904 <pbuf_clen>
    409a:	1a20      	subs	r0, r4, r0
    409c:	f8a8 0000 	strh.w	r0, [r8]
    40a0:	4648      	mov	r0, r9
    40a2:	b003      	add	sp, #12
    40a4:	e8bd 8ff0 	ldmia.w	sp!, {r4, r5, r6, r7, r8, r9, r10, r11, pc}
    40a8:	f8c3 9000 	str.w	r9, [r3]
    40ac:	e79a      	b.n	3fe4 <ip_reass+0x204>
    40ae:	6002      	str	r2, [r0, #0]
    40b0:	f04f 0c01 	mov.w	r12, #1
    40b4:	e794      	b.n	3fe0 <ip_reass+0x200>
    40b6:	4628      	mov	r0, r5
    40b8:	4651      	mov	r1, r10
    40ba:	f7ff fe3d 	bl	3d38 <ip_reass_remove_oldest_datagram>
    40be:	4582      	cmp	r10, r0
    40c0:	dc85      	bgt.n	3fce <ip_reass+0x1ee>
    40c2:	2004      	movs	r0, #4
    40c4:	f7fd f9aa 	bl	141c <memp_malloc>
    40c8:	4603      	mov	r3, r0
    40ca:	2800      	cmp	r0, #0
    40cc:	f47f af31 	bne.w	3f32 <ip_reass+0x152>
    40d0:	e77d      	b.n	3fce <ip_reass+0x1ee>
    40d2:	bf00      	nop
    40d4:	10000338 	.word	0x10000338
    40d8:	1000033c 	.word	0x1000033c

000040dc <ip_frag>:
    40dc:	e92d 4ff0 	stmdb	sp!, {r4, r5, r6, r7, r8, r9, r10, r11, lr}
    40e0:	f8d0 9004 	ldr.w	r9, [r0, #4]
    40e4:	b08f      	sub	sp, #60	; 0x3c
    40e6:	9108      	str	r1, [sp, #32]
    40e8:	920c      	str	r2, [sp, #48]	; 0x30
    40ea:	4604      	mov	r4, r0
    40ec:	f8b9 2006 	ldrh.w	r2, [r9, #6]
    40f0:	ba52      	rev16	r2, r2
    40f2:	8901      	ldrh	r1, [r0, #8]
    40f4:	9f08      	ldr	r7, [sp, #32]
    40f6:	b292      	uxth	r2, r2
    40f8:	8e3b      	ldrh	r3, [r7, #48]	; 0x30
    40fa:	3914      	subs	r1, #20
    40fc:	f402 5000 	and.w	r0, r2, #8192	; 0x2000
    4100:	b289      	uxth	r1, r1
    4102:	f3c2 020c 	ubfx	r2, r2, #0, #13
    4106:	9206      	str	r2, [sp, #24]
    4108:	9105      	str	r1, [sp, #20]
    410a:	f1b3 0214 	subs.w	r2, r3, #20
    410e:	bf48      	it	mi
    4110:	f1a3 020d 	submi.w	r2, r3, #13
    4114:	9f05      	ldr	r7, [sp, #20]
    4116:	b280      	uxth	r0, r0
    4118:	f3c2 02cf 	ubfx	r2, r2, #3, #16
    411c:	900a      	str	r0, [sp, #40]	; 0x28
    411e:	9209      	str	r2, [sp, #36]	; 0x24
    4120:	2f00      	cmp	r7, #0
    4122:	f000 80b8 	beq.w	4296 <ip_frag+0x1ba>
    4126:	9f09      	ldr	r7, [sp, #36]	; 0x24
    4128:	3b13      	subs	r3, #19
    412a:	00fa      	lsls	r2, r7, #3
    412c:	930b      	str	r3, [sp, #44]	; 0x2c
    412e:	f8df 816c 	ldr.w	r8, [pc, #364]	; 429c <ip_frag+0x1c0>
    4132:	b293      	uxth	r3, r2
    4134:	930d      	str	r3, [sp, #52]	; 0x34
    4136:	2500      	movs	r5, #0
    4138:	2614      	movs	r6, #20
    413a:	9f06      	ldr	r7, [sp, #24]
    413c:	980b      	ldr	r0, [sp, #44]	; 0x2c
    413e:	f3c7 030c 	ubfx	r3, r7, #0, #13
    4142:	9f0a      	ldr	r7, [sp, #40]	; 0x28
    4144:	2114      	movs	r1, #20
    4146:	433b      	orrs	r3, r7
    4148:	9f05      	ldr	r7, [sp, #20]
    414a:	9307      	str	r3, [sp, #28]
    414c:	4287      	cmp	r7, r0
    414e:	bfaa      	itet	ge
    4150:	9f0d      	ldrge	r7, [sp, #52]	; 0x34
    4152:	9f05      	ldrlt	r7, [sp, #20]
    4154:	f443 5300 	orrge.w	r3, r3, #8192	; 0x2000
    4158:	f04f 0002 	mov.w	r0, #2
    415c:	f04f 0200 	mov.w	r2, #0
    4160:	9704      	str	r7, [sp, #16]
    4162:	bfa8      	it	ge
    4164:	9307      	strge	r3, [sp, #28]
    4166:	f7fd fb0f 	bl	1788 <pbuf_alloc>
    416a:	4607      	mov	r7, r0
    416c:	2800      	cmp	r0, #0
    416e:	f000 8090 	beq.w	4292 <ip_frag+0x1b6>
    4172:	6843      	ldr	r3, [r0, #4]
    4174:	f8d9 2000 	ldr.w	r2, [r9]
    4178:	f8d9 0008 	ldr.w	r0, [r9, #8]
    417c:	f8d9 100c 	ldr.w	r1, [r9, #12]
    4180:	f8d9 e004 	ldr.w	lr, [r9, #4]
    4184:	60d9      	str	r1, [r3, #12]
    4186:	601a      	str	r2, [r3, #0]
    4188:	f8c3 e004 	str.w	lr, [r3, #4]
    418c:	6098      	str	r0, [r3, #8]
    418e:	f8d9 2010 	ldr.w	r2, [r9, #16]
    4192:	9904      	ldr	r1, [sp, #16]
    4194:	611a      	str	r2, [r3, #16]
    4196:	8963      	ldrh	r3, [r4, #10]
    4198:	6862      	ldr	r2, [r4, #4]
    419a:	6878      	ldr	r0, [r7, #4]
    419c:	1b9b      	subs	r3, r3, r6
    419e:	b29b      	uxth	r3, r3
    41a0:	4432      	add	r2, r6
    41a2:	9003      	str	r0, [sp, #12]
    41a4:	8163      	strh	r3, [r4, #10]
    41a6:	6062      	str	r2, [r4, #4]
    41a8:	2900      	cmp	r1, #0
    41aa:	d031      	beq.n	4210 <ip_frag+0x134>
    41ac:	460e      	mov	r6, r1
    41ae:	461d      	mov	r5, r3
    41b0:	9702      	str	r7, [sp, #8]
    41b2:	e002      	b.n	41ba <ip_frag+0xde>
    41b4:	6824      	ldr	r4, [r4, #0]
    41b6:	b356      	cbz	r6, 420e <ip_frag+0x132>
    41b8:	8965      	ldrh	r5, [r4, #10]
    41ba:	42b5      	cmp	r5, r6
    41bc:	bf28      	it	cs
    41be:	4635      	movcs	r5, r6
    41c0:	b2ad      	uxth	r5, r5
    41c2:	2d00      	cmp	r5, #0
    41c4:	d0f6      	beq.n	41b4 <ip_frag+0xd8>
    41c6:	2005      	movs	r0, #5
    41c8:	f7fd f928 	bl	141c <memp_malloc>
    41cc:	4683      	mov	r11, r0
    41ce:	4603      	mov	r3, r0
    41d0:	4629      	mov	r1, r5
    41d2:	2202      	movs	r2, #2
    41d4:	2003      	movs	r0, #3
    41d6:	f1bb 0f00 	cmp.w	r11, #0
    41da:	d044      	beq.n	4266 <ip_frag+0x18a>
    41dc:	6867      	ldr	r7, [r4, #4]
    41de:	9501      	str	r5, [sp, #4]
    41e0:	9700      	str	r7, [sp, #0]
    41e2:	f7fd fa39 	bl	1658 <pbuf_alloced_custom>
    41e6:	4682      	mov	r10, r0
    41e8:	4620      	mov	r0, r4
    41ea:	f1ba 0f00 	cmp.w	r10, #0
    41ee:	d043      	beq.n	4278 <ip_frag+0x19c>
    41f0:	1b76      	subs	r6, r6, r5
    41f2:	f7fd fb91 	bl	1918 <pbuf_ref>
    41f6:	b2b6      	uxth	r6, r6
    41f8:	f8cb 4014 	str.w	r4, [r11, #20]
    41fc:	f8cb 8010 	str.w	r8, [r11, #16]
    4200:	4651      	mov	r1, r10
    4202:	9802      	ldr	r0, [sp, #8]
    4204:	f7fd fb96 	bl	1934 <pbuf_cat>
    4208:	b10e      	cbz	r6, 420e <ip_frag+0x132>
    420a:	6824      	ldr	r4, [r4, #0]
    420c:	e7d4      	b.n	41b8 <ip_frag+0xdc>
    420e:	9f02      	ldr	r7, [sp, #8]
    4210:	9807      	ldr	r0, [sp, #28]
    4212:	ba43      	rev16	r3, r0
    4214:	9903      	ldr	r1, [sp, #12]
    4216:	80cb      	strh	r3, [r1, #6]
    4218:	9b04      	ldr	r3, [sp, #16]
    421a:	f103 0214 	add.w	r2, r3, #20
    421e:	ba52      	rev16	r2, r2
    4220:	2300      	movs	r3, #0
    4222:	804a      	strh	r2, [r1, #2]
    4224:	728b      	strb	r3, [r1, #10]
    4226:	72cb      	strb	r3, [r1, #11]
    4228:	9803      	ldr	r0, [sp, #12]
    422a:	2114      	movs	r1, #20
    422c:	f7ff f9e2 	bl	35f4 <inet_chksum>
    4230:	9908      	ldr	r1, [sp, #32]
    4232:	9a03      	ldr	r2, [sp, #12]
    4234:	694b      	ldr	r3, [r1, #20]
    4236:	8150      	strh	r0, [r2, #10]
    4238:	4639      	mov	r1, r7
    423a:	9a0c      	ldr	r2, [sp, #48]	; 0x30
    423c:	9808      	ldr	r0, [sp, #32]
    423e:	4798      	blx	r3
    4240:	4638      	mov	r0, r7
    4242:	f7fd fa6b 	bl	171c <pbuf_free>
    4246:	9f05      	ldr	r7, [sp, #20]
    4248:	9804      	ldr	r0, [sp, #16]
    424a:	9b06      	ldr	r3, [sp, #24]
    424c:	ebc0 0b07 	rsb	r11, r0, r7
    4250:	fa1f f78b 	uxth.w	r7, r11
    4254:	9705      	str	r7, [sp, #20]
    4256:	9f09      	ldr	r7, [sp, #36]	; 0x24
    4258:	443b      	add	r3, r7
    425a:	9f05      	ldr	r7, [sp, #20]
    425c:	b29b      	uxth	r3, r3
    425e:	9306      	str	r3, [sp, #24]
    4260:	b1cf      	cbz	r7, 4296 <ip_frag+0x1ba>
    4262:	462e      	mov	r6, r5
    4264:	e769      	b.n	413a <ip_frag+0x5e>
    4266:	9f02      	ldr	r7, [sp, #8]
    4268:	4638      	mov	r0, r7
    426a:	f7fd fa57 	bl	171c <pbuf_free>
    426e:	20ff      	movs	r0, #255	; 0xff
    4270:	b240      	sxtb	r0, r0
    4272:	b00f      	add	sp, #60	; 0x3c
    4274:	e8bd 8ff0 	ldmia.w	sp!, {r4, r5, r6, r7, r8, r9, r10, r11, pc}
    4278:	9f02      	ldr	r7, [sp, #8]
    427a:	4659      	mov	r1, r11
    427c:	2005      	movs	r0, #5
    427e:	f7fd f8e3 	bl	1448 <memp_free>
    4282:	4638      	mov	r0, r7
    4284:	f7fd fa4a 	bl	171c <pbuf_free>
    4288:	20ff      	movs	r0, #255	; 0xff
    428a:	b240      	sxtb	r0, r0
    428c:	b00f      	add	sp, #60	; 0x3c
    428e:	e8bd 8ff0 	ldmia.w	sp!, {r4, r5, r6, r7, r8, r9, r10, r11, pc}
    4292:	20ff      	movs	r0, #255	; 0xff
    4294:	e7ec      	b.n	4270 <ip_frag+0x194>
    4296:	2000      	movs	r0, #0
    4298:	e7ea      	b.n	4270 <ip_frag+0x194>
    429a:	bf00      	nop
    429c:	00003c85 	.word	0x00003c85

000042a0 <find_entry>:
    42a0:	e92d 4ff0 	stmdb	sp!, {r4, r5, r6, r7, r8, r9, r10, r11, lr}
    42a4:	4c46      	ldr	r4, [pc, #280]	; (43c0 <find_entry+0x120>)
    42a6:	b085      	sub	sp, #20
    42a8:	2300      	movs	r3, #0
    42aa:	f04f 0c0a 	mov.w	r12, #10
    42ae:	f1a4 080e 	sub.w	r8, r4, #14
    42b2:	4607      	mov	r7, r0
    42b4:	4642      	mov	r2, r8
    42b6:	4699      	mov	r9, r3
    42b8:	469b      	mov	r11, r3
    42ba:	9303      	str	r3, [sp, #12]
    42bc:	4665      	mov	r5, r12
    42be:	46e2      	mov	r10, r12
    42c0:	f8cd c008 	str.w	r12, [sp, #8]
    42c4:	9101      	str	r1, [sp, #4]
    42c6:	e006      	b.n	42d6 <find_entry+0x36>
    42c8:	3301      	adds	r3, #1
    42ca:	2b0a      	cmp	r3, #10
    42cc:	f104 0410 	add.w	r4, r4, #16
    42d0:	f102 0210 	add.w	r2, r2, #16
    42d4:	d01d      	beq.n	4312 <find_entry+0x72>
    42d6:	b2d9      	uxtb	r1, r3
    42d8:	2d0a      	cmp	r5, #10
    42da:	9100      	str	r1, [sp, #0]
    42dc:	7b90      	ldrb	r0, [r2, #14]
    42de:	d02e      	beq.n	433e <find_entry+0x9e>
    42e0:	2800      	cmp	r0, #0
    42e2:	d0f1      	beq.n	42c8 <find_entry+0x28>
    42e4:	b127      	cbz	r7, 42f0 <find_entry+0x50>
    42e6:	683e      	ldr	r6, [r7, #0]
    42e8:	f854 1c0a 	ldr.w	r1, [r4, #-10]
    42ec:	428e      	cmp	r6, r1
    42ee:	d05e      	beq.n	43ae <find_entry+0x10e>
    42f0:	2801      	cmp	r0, #1
    42f2:	d028      	beq.n	4346 <find_entry+0xa6>
    42f4:	2802      	cmp	r0, #2
    42f6:	d1e7      	bne.n	42c8 <find_entry+0x28>
    42f8:	7bd0      	ldrb	r0, [r2, #15]
    42fa:	3301      	adds	r3, #1
    42fc:	4558      	cmp	r0, r11
    42fe:	bf24      	itt	cs
    4300:	f8dd a000 	ldrcs.w	r10, [sp]
    4304:	4683      	movcs	r11, r0
    4306:	2b0a      	cmp	r3, #10
    4308:	f104 0410 	add.w	r4, r4, #16
    430c:	f102 0210 	add.w	r2, r2, #16
    4310:	d1e1      	bne.n	42d6 <find_entry+0x36>
    4312:	9901      	ldr	r1, [sp, #4]
    4314:	078a      	lsls	r2, r1, #30
    4316:	d450      	bmi.n	43ba <find_entry+0x11a>
    4318:	b26b      	sxtb	r3, r5
    431a:	2b0a      	cmp	r3, #10
    431c:	d01d      	beq.n	435a <find_entry+0xba>
    431e:	b2ed      	uxtb	r5, r5
    4320:	461c      	mov	r4, r3
    4322:	0123      	lsls	r3, r4, #4
    4324:	b11f      	cbz	r7, 432e <find_entry+0x8e>
    4326:	6839      	ldr	r1, [r7, #0]
    4328:	eb08 0203 	add.w	r2, r8, r3
    432c:	6051      	str	r1, [r2, #4]
    432e:	4443      	add	r3, r8
    4330:	2200      	movs	r2, #0
    4332:	b2e8      	uxtb	r0, r5
    4334:	73da      	strb	r2, [r3, #15]
    4336:	b240      	sxtb	r0, r0
    4338:	b005      	add	sp, #20
    433a:	e8bd 8ff0 	ldmia.w	sp!, {r4, r5, r6, r7, r8, r9, r10, r11, pc}
    433e:	2800      	cmp	r0, #0
    4340:	d1d0      	bne.n	42e4 <find_entry+0x44>
    4342:	460d      	mov	r5, r1
    4344:	e7c0      	b.n	42c8 <find_entry+0x28>
    4346:	f854 0c0e 	ldr.w	r0, [r4, #-14]
    434a:	b340      	cbz	r0, 439e <find_entry+0xfe>
    434c:	7bd0      	ldrb	r0, [r2, #15]
    434e:	4548      	cmp	r0, r9
    4350:	d3ba      	bcc.n	42c8 <find_entry+0x28>
    4352:	f8dd c000 	ldr.w	r12, [sp]
    4356:	4681      	mov	r9, r0
    4358:	e7b6      	b.n	42c8 <find_entry+0x28>
    435a:	07cb      	lsls	r3, r1, #31
    435c:	d52d      	bpl.n	43ba <find_entry+0x11a>
    435e:	f1ba 0f0a 	cmp.w	r10, #10
    4362:	d011      	beq.n	4388 <find_entry+0xe8>
    4364:	fa5f f58a 	uxtb.w	r5, r10
    4368:	012e      	lsls	r6, r5, #4
    436a:	f858 0006 	ldr.w	r0, [r8, r6]
    436e:	462c      	mov	r4, r5
    4370:	f8df 9050 	ldr.w	r9, [pc, #80]	; 43c4 <find_entry+0x124>
    4374:	b120      	cbz	r0, 4380 <find_entry+0xe0>
    4376:	f7fd f9d1 	bl	171c <pbuf_free>
    437a:	2300      	movs	r3, #0
    437c:	f849 3006 	str.w	r3, [r9, r6]
    4380:	4446      	add	r6, r8
    4382:	2300      	movs	r3, #0
    4384:	73b3      	strb	r3, [r6, #14]
    4386:	e7cc      	b.n	4322 <find_entry+0x82>
    4388:	9b02      	ldr	r3, [sp, #8]
    438a:	2b0a      	cmp	r3, #10
    438c:	d105      	bne.n	439a <find_entry+0xfa>
    438e:	f1bc 0f0a 	cmp.w	r12, #10
    4392:	d012      	beq.n	43ba <find_entry+0x11a>
    4394:	fa5f f58c 	uxtb.w	r5, r12
    4398:	e7e6      	b.n	4368 <find_entry+0xc8>
    439a:	b2dd      	uxtb	r5, r3
    439c:	e7e4      	b.n	4368 <find_entry+0xc8>
    439e:	7bd0      	ldrb	r0, [r2, #15]
    43a0:	9e03      	ldr	r6, [sp, #12]
    43a2:	42b0      	cmp	r0, r6
    43a4:	d390      	bcc.n	42c8 <find_entry+0x28>
    43a6:	9900      	ldr	r1, [sp, #0]
    43a8:	9003      	str	r0, [sp, #12]
    43aa:	9102      	str	r1, [sp, #8]
    43ac:	e78c      	b.n	42c8 <find_entry+0x28>
    43ae:	9e00      	ldr	r6, [sp, #0]
    43b0:	b2f0      	uxtb	r0, r6
    43b2:	b240      	sxtb	r0, r0
    43b4:	b005      	add	sp, #20
    43b6:	e8bd 8ff0 	ldmia.w	sp!, {r4, r5, r6, r7, r8, r9, r10, r11, pc}
    43ba:	20ff      	movs	r0, #255	; 0xff
    43bc:	e7bb      	b.n	4336 <find_entry+0x96>
    43be:	bf00      	nop
    43c0:	1000034e 	.word	0x1000034e
    43c4:	10000340 	.word	0x10000340

000043c8 <etharp_send_ip>:
    43c8:	b570      	push	{r4, r5, r6, lr}
    43ca:	684c      	ldr	r4, [r1, #4]
    43cc:	681d      	ldr	r5, [r3, #0]
    43ce:	6025      	str	r5, [r4, #0]
    43d0:	889b      	ldrh	r3, [r3, #4]
    43d2:	2508      	movs	r5, #8
    43d4:	80a3      	strh	r3, [r4, #4]
    43d6:	6816      	ldr	r6, [r2, #0]
    43d8:	2300      	movs	r3, #0
    43da:	f8c4 6006 	str.w	r6, [r4, #6]
    43de:	8892      	ldrh	r2, [r2, #4]
    43e0:	7363      	strb	r3, [r4, #13]
    43e2:	8162      	strh	r2, [r4, #10]
    43e4:	7325      	strb	r5, [r4, #12]
    43e6:	6983      	ldr	r3, [r0, #24]
    43e8:	4798      	blx	r3
    43ea:	bd70      	pop	{r4, r5, r6, pc}

000043ec <etharp_tmr>:
    43ec:	b5f8      	push	{r3, r4, r5, r6, r7, lr}
    43ee:	4d14      	ldr	r5, [pc, #80]	; (4440 <etharp_tmr+0x54>)
    43f0:	2700      	movs	r7, #0
    43f2:	f1a5 040e 	sub.w	r4, r5, #14
    43f6:	f104 06a0 	add.w	r6, r4, #160	; 0xa0
    43fa:	e006      	b.n	440a <etharp_tmr+0x1e>
    43fc:	2b01      	cmp	r3, #1
    43fe:	d01c      	beq.n	443a <etharp_tmr+0x4e>
    4400:	3410      	adds	r4, #16
    4402:	42b4      	cmp	r4, r6
    4404:	f105 0510 	add.w	r5, r5, #16
    4408:	d016      	beq.n	4438 <etharp_tmr+0x4c>
    440a:	7ba3      	ldrb	r3, [r4, #14]
    440c:	2b00      	cmp	r3, #0
    440e:	d0f7      	beq.n	4400 <etharp_tmr+0x14>
    4410:	7be2      	ldrb	r2, [r4, #15]
    4412:	3201      	adds	r2, #1
    4414:	b2d2      	uxtb	r2, r2
    4416:	2aef      	cmp	r2, #239	; 0xef
    4418:	73e2      	strb	r2, [r4, #15]
    441a:	d9ef      	bls.n	43fc <etharp_tmr+0x10>
    441c:	f855 3c0e 	ldr.w	r3, [r5, #-14]
    4420:	4618      	mov	r0, r3
    4422:	b11b      	cbz	r3, 442c <etharp_tmr+0x40>
    4424:	f7fd f97a 	bl	171c <pbuf_free>
    4428:	f845 7c0e 	str.w	r7, [r5, #-14]
    442c:	73a7      	strb	r7, [r4, #14]
    442e:	3410      	adds	r4, #16
    4430:	42b4      	cmp	r4, r6
    4432:	f105 0510 	add.w	r5, r5, #16
    4436:	d1e8      	bne.n	440a <etharp_tmr+0x1e>
    4438:	bdf8      	pop	{r3, r4, r5, r6, r7, pc}
    443a:	2a01      	cmp	r2, #1
    443c:	d8ee      	bhi.n	441c <etharp_tmr+0x30>
    443e:	e7df      	b.n	4400 <etharp_tmr+0x14>
    4440:	1000034e 	.word	0x1000034e

00004444 <etharp_request>:
    4444:	e92d 41f0 	stmdb	sp!, {r4, r5, r6, r7, r8, lr}
    4448:	2200      	movs	r2, #0
    444a:	4604      	mov	r4, r0
    444c:	4688      	mov	r8, r1
    444e:	2003      	movs	r0, #3
    4450:	212a      	movs	r1, #42	; 0x2a
    4452:	f7fd f999 	bl	1788 <pbuf_alloc>
    4456:	f104 0233 	add.w	r2, r4, #51	; 0x33
    445a:	4605      	mov	r5, r0
    445c:	1d21      	adds	r1, r4, #4
    445e:	2800      	cmp	r0, #0
    4460:	d03b      	beq.n	44da <etharp_request+0x96>
    4462:	6843      	ldr	r3, [r0, #4]
    4464:	2001      	movs	r0, #1
    4466:	ba40      	rev16	r0, r0
    4468:	4f1d      	ldr	r7, [pc, #116]	; (44e0 <etharp_request+0x9c>)
    446a:	8298      	strh	r0, [r3, #20]
    446c:	f8d2 e000 	ldr.w	lr, [r2]
    4470:	6838      	ldr	r0, [r7, #0]
    4472:	4e1c      	ldr	r6, [pc, #112]	; (44e4 <etharp_request+0xa0>)
    4474:	f8c3 e016 	str.w	lr, [r3, #22]
    4478:	f8b2 c004 	ldrh.w	r12, [r2, #4]
    447c:	f8b7 e004 	ldrh.w	lr, [r7, #4]
    4480:	6218      	str	r0, [r3, #32]
    4482:	88b7      	ldrh	r7, [r6, #4]
    4484:	6830      	ldr	r0, [r6, #0]
    4486:	809f      	strh	r7, [r3, #4]
    4488:	f8a3 c01a 	strh.w	r12, [r3, #26]
    448c:	f8a3 e024 	strh.w	lr, [r3, #36]	; 0x24
    4490:	6018      	str	r0, [r3, #0]
    4492:	6810      	ldr	r0, [r2, #0]
    4494:	2704      	movs	r7, #4
    4496:	f8c3 0006 	str.w	r0, [r3, #6]
    449a:	8892      	ldrh	r2, [r2, #4]
    449c:	2006      	movs	r0, #6
    449e:	815a      	strh	r2, [r3, #10]
    44a0:	680a      	ldr	r2, [r1, #0]
    44a2:	2601      	movs	r6, #1
    44a4:	61da      	str	r2, [r3, #28]
    44a6:	f8d8 2000 	ldr.w	r2, [r8]
    44aa:	2100      	movs	r1, #0
    44ac:	f8c3 2026 	str.w	r2, [r3, #38]	; 0x26
    44b0:	7498      	strb	r0, [r3, #18]
    44b2:	2208      	movs	r2, #8
    44b4:	74df      	strb	r7, [r3, #19]
    44b6:	73de      	strb	r6, [r3, #15]
    44b8:	7358      	strb	r0, [r3, #13]
    44ba:	69a6      	ldr	r6, [r4, #24]
    44bc:	4620      	mov	r0, r4
    44be:	7399      	strb	r1, [r3, #14]
    44c0:	7459      	strb	r1, [r3, #17]
    44c2:	741a      	strb	r2, [r3, #16]
    44c4:	731a      	strb	r2, [r3, #12]
    44c6:	4629      	mov	r1, r5
    44c8:	47b0      	blx	r6
    44ca:	4604      	mov	r4, r0
    44cc:	4628      	mov	r0, r5
    44ce:	f7fd f925 	bl	171c <pbuf_free>
    44d2:	4620      	mov	r0, r4
    44d4:	b240      	sxtb	r0, r0
    44d6:	e8bd 81f0 	ldmia.w	sp!, {r4, r5, r6, r7, r8, pc}
    44da:	20ff      	movs	r0, #255	; 0xff
    44dc:	e7fa      	b.n	44d4 <etharp_request+0x90>
    44de:	bf00      	nop
    44e0:	0000da38 	.word	0x0000da38
    44e4:	0000da30 	.word	0x0000da30

000044e8 <etharp_query>:
    44e8:	e92d 47f0 	stmdb	sp!, {r4, r5, r6, r7, r8, r9, r10, lr}
    44ec:	4605      	mov	r5, r0
    44ee:	460c      	mov	r4, r1
    44f0:	6808      	ldr	r0, [r1, #0]
    44f2:	4629      	mov	r1, r5
    44f4:	4690      	mov	r8, r2
    44f6:	f7ff faa1 	bl	3a3c <ip4_addr_isbroadcast>
    44fa:	2800      	cmp	r0, #0
    44fc:	d15a      	bne.n	45b4 <etharp_query+0xcc>
    44fe:	6823      	ldr	r3, [r4, #0]
    4500:	f003 02f0 	and.w	r2, r3, #240	; 0xf0
    4504:	2ae0      	cmp	r2, #224	; 0xe0
    4506:	d055      	beq.n	45b4 <etharp_query+0xcc>
    4508:	2c00      	cmp	r4, #0
    450a:	d053      	beq.n	45b4 <etharp_query+0xcc>
    450c:	2b00      	cmp	r3, #0
    450e:	d051      	beq.n	45b4 <etharp_query+0xcc>
    4510:	4620      	mov	r0, r4
    4512:	2101      	movs	r1, #1
    4514:	f7ff fec4 	bl	42a0 <find_entry>
    4518:	f1b0 0900 	subs.w	r9, r0, #0
    451c:	db32      	blt.n	4584 <etharp_query+0x9c>
    451e:	4f34      	ldr	r7, [pc, #208]	; (45f0 <etharp_query+0x108>)
    4520:	ea4f 1609 	mov.w	r6, r9, lsl #4
    4524:	19ba      	adds	r2, r7, r6
    4526:	7b93      	ldrb	r3, [r2, #14]
    4528:	3208      	adds	r2, #8
    452a:	b37b      	cbz	r3, 458c <etharp_query+0xa4>
    452c:	2b01      	cmp	r3, #1
    452e:	d02f      	beq.n	4590 <etharp_query+0xa8>
    4530:	f1b8 0f00 	cmp.w	r8, #0
    4534:	d044      	beq.n	45c0 <etharp_query+0xd8>
    4536:	2b02      	cmp	r3, #2
    4538:	d157      	bne.n	45ea <etharp_query+0x102>
    453a:	4c2e      	ldr	r4, [pc, #184]	; (45f4 <etharp_query+0x10c>)
    453c:	f106 0308 	add.w	r3, r6, #8
    4540:	f884 9000 	strb.w	r9, [r4]
    4544:	4628      	mov	r0, r5
    4546:	443b      	add	r3, r7
    4548:	4641      	mov	r1, r8
    454a:	f105 0233 	add.w	r2, r5, #51	; 0x33
    454e:	e8bd 47f0 	ldmia.w	sp!, {r4, r5, r6, r7, r8, r9, r10, lr}
    4552:	f7ff bf39 	b.w	43c8 <etharp_send_ip>
    4556:	f898 300c 	ldrb.w	r3, [r8, #12]
    455a:	4644      	mov	r4, r8
    455c:	2b01      	cmp	r3, #1
    455e:	d003      	beq.n	4568 <etharp_query+0x80>
    4560:	e034      	b.n	45cc <etharp_query+0xe4>
    4562:	7b25      	ldrb	r5, [r4, #12]
    4564:	2d01      	cmp	r5, #1
    4566:	d131      	bne.n	45cc <etharp_query+0xe4>
    4568:	6824      	ldr	r4, [r4, #0]
    456a:	2c00      	cmp	r4, #0
    456c:	d1f9      	bne.n	4562 <etharp_query+0x7a>
    456e:	4640      	mov	r0, r8
    4570:	f7fd f9d2 	bl	1918 <pbuf_ref>
    4574:	4644      	mov	r4, r8
    4576:	59b8      	ldr	r0, [r7, r6]
    4578:	b108      	cbz	r0, 457e <etharp_query+0x96>
    457a:	f7fd f8cf 	bl	171c <pbuf_free>
    457e:	51bc      	str	r4, [r7, r6]
    4580:	f04f 0900 	mov.w	r9, #0
    4584:	fa4f f089 	sxtb.w	r0, r9
    4588:	e8bd 87f0 	ldmia.w	sp!, {r4, r5, r6, r7, r8, r9, r10, pc}
    458c:	2301      	movs	r3, #1
    458e:	7193      	strb	r3, [r2, #6]
    4590:	4621      	mov	r1, r4
    4592:	4628      	mov	r0, r5
    4594:	f7ff ff56 	bl	4444 <etharp_request>
    4598:	f1b8 0f00 	cmp.w	r8, #0
    459c:	d005      	beq.n	45aa <etharp_query+0xc2>
    459e:	19bb      	adds	r3, r7, r6
    45a0:	7b9b      	ldrb	r3, [r3, #14]
    45a2:	2b02      	cmp	r3, #2
    45a4:	d0c9      	beq.n	453a <etharp_query+0x52>
    45a6:	2b01      	cmp	r3, #1
    45a8:	d0d5      	beq.n	4556 <etharp_query+0x6e>
    45aa:	4681      	mov	r9, r0
    45ac:	fa4f f089 	sxtb.w	r0, r9
    45b0:	e8bd 87f0 	ldmia.w	sp!, {r4, r5, r6, r7, r8, r9, r10, pc}
    45b4:	f04f 09f2 	mov.w	r9, #242	; 0xf2
    45b8:	fa4f f089 	sxtb.w	r0, r9
    45bc:	e8bd 87f0 	ldmia.w	sp!, {r4, r5, r6, r7, r8, r9, r10, pc}
    45c0:	4628      	mov	r0, r5
    45c2:	4621      	mov	r1, r4
    45c4:	e8bd 47f0 	ldmia.w	sp!, {r4, r5, r6, r7, r8, r9, r10, lr}
    45c8:	f7ff bf3c 	b.w	4444 <etharp_request>
    45cc:	8921      	ldrh	r1, [r4, #8]
    45ce:	2003      	movs	r0, #3
    45d0:	2200      	movs	r2, #0
    45d2:	f7fd f8d9 	bl	1788 <pbuf_alloc>
    45d6:	4604      	mov	r4, r0
    45d8:	b138      	cbz	r0, 45ea <etharp_query+0x102>
    45da:	4641      	mov	r1, r8
    45dc:	f7fd f9cc 	bl	1978 <pbuf_copy>
    45e0:	2800      	cmp	r0, #0
    45e2:	d0c8      	beq.n	4576 <etharp_query+0x8e>
    45e4:	4620      	mov	r0, r4
    45e6:	f7fd f899 	bl	171c <pbuf_free>
    45ea:	f04f 09ff 	mov.w	r9, #255	; 0xff
    45ee:	e7c9      	b.n	4584 <etharp_query+0x9c>
    45f0:	10000340 	.word	0x10000340
    45f4:	1000033e 	.word	0x1000033e

000045f8 <etharp_output>:
    45f8:	b5f0      	push	{r4, r5, r6, r7, lr}
    45fa:	460e      	mov	r6, r1
    45fc:	b083      	sub	sp, #12
    45fe:	4604      	mov	r4, r0
    4600:	210e      	movs	r1, #14
    4602:	4630      	mov	r0, r6
    4604:	4615      	mov	r5, r2
    4606:	f7fd f853 	bl	16b0 <pbuf_header>
    460a:	2800      	cmp	r0, #0
    460c:	d14c      	bne.n	46a8 <etharp_output+0xb0>
    460e:	6828      	ldr	r0, [r5, #0]
    4610:	4621      	mov	r1, r4
    4612:	f7ff fa13 	bl	3a3c <ip4_addr_isbroadcast>
    4616:	bb40      	cbnz	r0, 466a <etharp_output+0x72>
    4618:	682b      	ldr	r3, [r5, #0]
    461a:	f003 02f0 	and.w	r2, r3, #240	; 0xf0
    461e:	2ae0      	cmp	r2, #224	; 0xe0
    4620:	d02d      	beq.n	467e <etharp_output+0x86>
    4622:	6861      	ldr	r1, [r4, #4]
    4624:	68a2      	ldr	r2, [r4, #8]
    4626:	4059      	eors	r1, r3
    4628:	4211      	tst	r1, r2
    462a:	d00a      	beq.n	4642 <etharp_output+0x4a>
    462c:	b29b      	uxth	r3, r3
    462e:	f64f 62a9 	movw	r2, #65193	; 0xfea9
    4632:	4293      	cmp	r3, r2
    4634:	d005      	beq.n	4642 <etharp_output+0x4a>
    4636:	f114 050c 	adds.w	r5, r4, #12
    463a:	d037      	beq.n	46ac <etharp_output+0xb4>
    463c:	68e3      	ldr	r3, [r4, #12]
    463e:	2b00      	cmp	r3, #0
    4640:	d034      	beq.n	46ac <etharp_output+0xb4>
    4642:	4a20      	ldr	r2, [pc, #128]	; (46c4 <etharp_output+0xcc>)
    4644:	4b20      	ldr	r3, [pc, #128]	; (46c8 <etharp_output+0xd0>)
    4646:	7811      	ldrb	r1, [r2, #0]
    4648:	0109      	lsls	r1, r1, #4
    464a:	185a      	adds	r2, r3, r1
    464c:	7b90      	ldrb	r0, [r2, #14]
    464e:	2802      	cmp	r0, #2
    4650:	d103      	bne.n	465a <etharp_output+0x62>
    4652:	6850      	ldr	r0, [r2, #4]
    4654:	682a      	ldr	r2, [r5, #0]
    4656:	4282      	cmp	r2, r0
    4658:	d02a      	beq.n	46b0 <etharp_output+0xb8>
    465a:	4620      	mov	r0, r4
    465c:	4629      	mov	r1, r5
    465e:	4632      	mov	r2, r6
    4660:	f7ff ff42 	bl	44e8 <etharp_query>
    4664:	b240      	sxtb	r0, r0
    4666:	b003      	add	sp, #12
    4668:	bdf0      	pop	{r4, r5, r6, r7, pc}
    466a:	4b18      	ldr	r3, [pc, #96]	; (46cc <etharp_output+0xd4>)
    466c:	4620      	mov	r0, r4
    466e:	4631      	mov	r1, r6
    4670:	f104 0233 	add.w	r2, r4, #51	; 0x33
    4674:	f7ff fea8 	bl	43c8 <etharp_send_ip>
    4678:	b240      	sxtb	r0, r0
    467a:	b003      	add	sp, #12
    467c:	bdf0      	pop	{r4, r5, r6, r7, pc}
    467e:	786b      	ldrb	r3, [r5, #1]
    4680:	78af      	ldrb	r7, [r5, #2]
    4682:	78e9      	ldrb	r1, [r5, #3]
    4684:	2201      	movs	r2, #1
    4686:	f003 057f 	and.w	r5, r3, #127	; 0x7f
    468a:	235e      	movs	r3, #94	; 0x5e
    468c:	f88d 3002 	strb.w	r3, [sp, #2]
    4690:	f88d 0001 	strb.w	r0, [sp, #1]
    4694:	f88d 5003 	strb.w	r5, [sp, #3]
    4698:	f88d 7004 	strb.w	r7, [sp, #4]
    469c:	f88d 1005 	strb.w	r1, [sp, #5]
    46a0:	f88d 2000 	strb.w	r2, [sp]
    46a4:	466b      	mov	r3, sp
    46a6:	e7e1      	b.n	466c <etharp_output+0x74>
    46a8:	20fe      	movs	r0, #254	; 0xfe
    46aa:	e7db      	b.n	4664 <etharp_output+0x6c>
    46ac:	20fc      	movs	r0, #252	; 0xfc
    46ae:	e7d9      	b.n	4664 <etharp_output+0x6c>
    46b0:	3108      	adds	r1, #8
    46b2:	440b      	add	r3, r1
    46b4:	4620      	mov	r0, r4
    46b6:	4631      	mov	r1, r6
    46b8:	f104 0233 	add.w	r2, r4, #51	; 0x33
    46bc:	f7ff fe84 	bl	43c8 <etharp_send_ip>
    46c0:	e7d0      	b.n	4664 <etharp_output+0x6c>
    46c2:	bf00      	nop
    46c4:	1000033e 	.word	0x1000033e
    46c8:	10000340 	.word	0x10000340
    46cc:	0000da30 	.word	0x0000da30

000046d0 <ethernet_input>:
    46d0:	e92d 4ff0 	stmdb	sp!, {r4, r5, r6, r7, r8, r9, r10, r11, lr}
    46d4:	8943      	ldrh	r3, [r0, #10]
    46d6:	b085      	sub	sp, #20
    46d8:	2b0e      	cmp	r3, #14
    46da:	4604      	mov	r4, r0
    46dc:	460d      	mov	r5, r1
    46de:	d90a      	bls.n	46f6 <ethernet_input+0x26>
    46e0:	6846      	ldr	r6, [r0, #4]
    46e2:	89b2      	ldrh	r2, [r6, #12]
    46e4:	2a08      	cmp	r2, #8
    46e6:	d00d      	beq.n	4704 <ethernet_input+0x34>
    46e8:	f5b2 6fc1 	cmp.w	r2, #1544	; 0x608
    46ec:	d103      	bne.n	46f6 <ethernet_input+0x26>
    46ee:	f891 2039 	ldrb.w	r2, [r1, #57]	; 0x39
    46f2:	0692      	lsls	r2, r2, #26
    46f4:	d415      	bmi.n	4722 <ethernet_input+0x52>
    46f6:	4620      	mov	r0, r4
    46f8:	f7fd f810 	bl	171c <pbuf_free>
    46fc:	2000      	movs	r0, #0
    46fe:	b005      	add	sp, #20
    4700:	e8bd 8ff0 	ldmia.w	sp!, {r4, r5, r6, r7, r8, r9, r10, r11, pc}
    4704:	f891 3039 	ldrb.w	r3, [r1, #57]	; 0x39
    4708:	0699      	lsls	r1, r3, #26
    470a:	d5f4      	bpl.n	46f6 <ethernet_input+0x26>
    470c:	f06f 010d 	mvn.w	r1, #13
    4710:	f7fc ffce 	bl	16b0 <pbuf_header>
    4714:	2800      	cmp	r0, #0
    4716:	d1ee      	bne.n	46f6 <ethernet_input+0x26>
    4718:	4620      	mov	r0, r4
    471a:	4629      	mov	r1, r5
    471c:	f7fe ffc2 	bl	36a4 <ip_input>
    4720:	e7ec      	b.n	46fc <ethernet_input+0x2c>
    4722:	2900      	cmp	r1, #0
    4724:	d0ea      	beq.n	46fc <ethernet_input+0x2c>
    4726:	2b29      	cmp	r3, #41	; 0x29
    4728:	d9e5      	bls.n	46f6 <ethernet_input+0x26>
    472a:	89f3      	ldrh	r3, [r6, #14]
    472c:	f5b3 7f80 	cmp.w	r3, #256	; 0x100
    4730:	d1e1      	bne.n	46f6 <ethernet_input+0x26>
    4732:	7cb3      	ldrb	r3, [r6, #18]
    4734:	2b06      	cmp	r3, #6
    4736:	d1de      	bne.n	46f6 <ethernet_input+0x26>
    4738:	7cf3      	ldrb	r3, [r6, #19]
    473a:	2b04      	cmp	r3, #4
    473c:	d1db      	bne.n	46f6 <ethernet_input+0x26>
    473e:	8a33      	ldrh	r3, [r6, #16]
    4740:	2b08      	cmp	r3, #8
    4742:	d1d8      	bne.n	46f6 <ethernet_input+0x26>
    4744:	46b2      	mov	r10, r6
    4746:	f85a 0f1c 	ldr.w	r0, [r10, #28]!
    474a:	684b      	ldr	r3, [r1, #4]
    474c:	9002      	str	r0, [sp, #8]
    474e:	f8d6 0026 	ldr.w	r0, [r6, #38]	; 0x26
    4752:	9003      	str	r0, [sp, #12]
    4754:	2b00      	cmp	r3, #0
    4756:	d04c      	beq.n	47f2 <ethernet_input+0x122>
    4758:	9a03      	ldr	r2, [sp, #12]
    475a:	f106 0716 	add.w	r7, r6, #22
    475e:	4293      	cmp	r3, r2
    4760:	bf07      	ittee	eq
    4762:	f04f 0901 	moveq.w	r9, #1
    4766:	46cb      	moveq	r11, r9
    4768:	f04f 0900 	movne.w	r9, #0
    476c:	f04f 0b02 	movne.w	r11, #2
    4770:	9802      	ldr	r0, [sp, #8]
    4772:	f105 0833 	add.w	r8, r5, #51	; 0x33
    4776:	b380      	cbz	r0, 47da <ethernet_input+0x10a>
    4778:	4629      	mov	r1, r5
    477a:	f7ff f95f 	bl	3a3c <ip4_addr_isbroadcast>
    477e:	4603      	mov	r3, r0
    4780:	bb58      	cbnz	r0, 47da <ethernet_input+0x10a>
    4782:	9a02      	ldr	r2, [sp, #8]
    4784:	f002 02f0 	and.w	r2, r2, #240	; 0xf0
    4788:	2ae0      	cmp	r2, #224	; 0xe0
    478a:	d026      	beq.n	47da <ethernet_input+0x10a>
    478c:	4659      	mov	r1, r11
    478e:	a802      	add	r0, sp, #8
    4790:	9301      	str	r3, [sp, #4]
    4792:	f7ff fd85 	bl	42a0 <find_entry>
    4796:	2800      	cmp	r0, #0
    4798:	9b01      	ldr	r3, [sp, #4]
    479a:	db1e      	blt.n	47da <ethernet_input+0x10a>
    479c:	f8df c0ac 	ldr.w	r12, [pc, #172]	; 484c <ethernet_input+0x17c>
    47a0:	ea4f 1e00 	mov.w	lr, r0, lsl #4
    47a4:	eb0c 010e 	add.w	r1, r12, lr
    47a8:	2002      	movs	r0, #2
    47aa:	7388      	strb	r0, [r1, #14]
    47ac:	6838      	ldr	r0, [r7, #0]
    47ae:	f85c b00e 	ldr.w	r11, [r12, lr]
    47b2:	6088      	str	r0, [r1, #8]
    47b4:	f101 0208 	add.w	r2, r1, #8
    47b8:	88b9      	ldrh	r1, [r7, #4]
    47ba:	71d3      	strb	r3, [r2, #7]
    47bc:	8091      	strh	r1, [r2, #4]
    47be:	f1bb 0f00 	cmp.w	r11, #0
    47c2:	d00a      	beq.n	47da <ethernet_input+0x10a>
    47c4:	f84c 300e 	str.w	r3, [r12, lr]
    47c8:	4628      	mov	r0, r5
    47ca:	4659      	mov	r1, r11
    47cc:	4642      	mov	r2, r8
    47ce:	463b      	mov	r3, r7
    47d0:	f7ff fdfa 	bl	43c8 <etharp_send_ip>
    47d4:	4658      	mov	r0, r11
    47d6:	f7fc ffa1 	bl	171c <pbuf_free>
    47da:	8ab3      	ldrh	r3, [r6, #20]
    47dc:	f5b3 7f80 	cmp.w	r3, #256	; 0x100
    47e0:	d00d      	beq.n	47fe <ethernet_input+0x12e>
    47e2:	f5b3 7f00 	cmp.w	r3, #512	; 0x200
    47e6:	d186      	bne.n	46f6 <ethernet_input+0x26>
    47e8:	4628      	mov	r0, r5
    47ea:	a902      	add	r1, sp, #8
    47ec:	f001 ffe0 	bl	67b0 <dhcp_arp_reply>
    47f0:	e781      	b.n	46f6 <ethernet_input+0x26>
    47f2:	4699      	mov	r9, r3
    47f4:	f106 0716 	add.w	r7, r6, #22
    47f8:	f04f 0b02 	mov.w	r11, #2
    47fc:	e7b8      	b.n	4770 <ethernet_input+0xa0>
    47fe:	f1b9 0f00 	cmp.w	r9, #0
    4802:	f43f af78 	beq.w	46f6 <ethernet_input+0x26>
    4806:	2302      	movs	r3, #2
    4808:	ba5b      	rev16	r3, r3
    480a:	82b3      	strh	r3, [r6, #20]
    480c:	f8da 3000 	ldr.w	r3, [r10]
    4810:	4628      	mov	r0, r5
    4812:	f8c6 3026 	str.w	r3, [r6, #38]	; 0x26
    4816:	686b      	ldr	r3, [r5, #4]
    4818:	4621      	mov	r1, r4
    481a:	61f3      	str	r3, [r6, #28]
    481c:	683b      	ldr	r3, [r7, #0]
    481e:	6233      	str	r3, [r6, #32]
    4820:	88bb      	ldrh	r3, [r7, #4]
    4822:	84b3      	strh	r3, [r6, #36]	; 0x24
    4824:	683b      	ldr	r3, [r7, #0]
    4826:	6033      	str	r3, [r6, #0]
    4828:	88bb      	ldrh	r3, [r7, #4]
    482a:	80b3      	strh	r3, [r6, #4]
    482c:	f8d8 3000 	ldr.w	r3, [r8]
    4830:	603b      	str	r3, [r7, #0]
    4832:	f8b8 3004 	ldrh.w	r3, [r8, #4]
    4836:	80bb      	strh	r3, [r7, #4]
    4838:	f8d8 3000 	ldr.w	r3, [r8]
    483c:	f8c6 3006 	str.w	r3, [r6, #6]
    4840:	f8b8 3004 	ldrh.w	r3, [r8, #4]
    4844:	8173      	strh	r3, [r6, #10]
    4846:	69ab      	ldr	r3, [r5, #24]
    4848:	4798      	blx	r3
    484a:	e754      	b.n	46f6 <ethernet_input+0x26>
    484c:	10000340 	.word	0x10000340

00004850 <Endpoint::Endpoint()>:
    4850:	b510      	push	{r4, lr}
    4852:	2100      	movs	r1, #0
    4854:	4604      	mov	r4, r0
    4856:	2210      	movs	r2, #16
    4858:	3014      	adds	r0, #20
    485a:	f007 fbe1 	bl	c020 <memset>
    485e:	2300      	movs	r3, #0
    4860:	7023      	strb	r3, [r4, #0]
    4862:	4620      	mov	r0, r4
    4864:	bd10      	pop	{r4, pc}
    4866:	bf00      	nop

00004868 <Endpoint::set_address(char const*, int)>:
    4868:	b570      	push	{r4, r5, r6, lr}
    486a:	4604      	mov	r4, r0
    486c:	b084      	sub	sp, #16
    486e:	460d      	mov	r5, r1
    4870:	4616      	mov	r6, r2
    4872:	2100      	movs	r1, #0
    4874:	2210      	movs	r2, #16
    4876:	3014      	adds	r0, #20
    4878:	f007 fbd2 	bl	c020 <memset>
    487c:	2000      	movs	r0, #0
    487e:	f10d 010a 	add.w	r1, sp, #10
    4882:	f10d 030b 	add.w	r3, sp, #11
    4886:	7020      	strb	r0, [r4, #0]
    4888:	aa02      	add	r2, sp, #8
    488a:	e88d 000a 	stmia.w	sp, {r1, r3}
    488e:	4628      	mov	r0, r5
    4890:	490d      	ldr	r1, [pc, #52]	; (48c8 <Endpoint::set_address(char const*, int)+0x60>)
    4892:	f10d 0309 	add.w	r3, sp, #9
    4896:	f007 fcf7 	bl	c288 <siscanf>
    489a:	2804      	cmp	r0, #4
    489c:	d00e      	beq.n	48bc <Endpoint::set_address(char const*, int)+0x54>
    489e:	4628      	mov	r0, r5
    48a0:	f001 f934 	bl	5b0c <lwip_gethostbyname>
    48a4:	b160      	cbz	r0, 48c0 <Endpoint::set_address(char const*, int)+0x58>
    48a6:	6903      	ldr	r3, [r0, #16]
    48a8:	681b      	ldr	r3, [r3, #0]
    48aa:	681a      	ldr	r2, [r3, #0]
    48ac:	2302      	movs	r3, #2
    48ae:	61a2      	str	r2, [r4, #24]
    48b0:	7563      	strb	r3, [r4, #21]
    48b2:	ba76      	rev16	r6, r6
    48b4:	2000      	movs	r0, #0
    48b6:	82e6      	strh	r6, [r4, #22]
    48b8:	b004      	add	sp, #16
    48ba:	bd70      	pop	{r4, r5, r6, pc}
    48bc:	ab02      	add	r3, sp, #8
    48be:	e7f4      	b.n	48aa <Endpoint::set_address(char const*, int)+0x42>
    48c0:	f04f 30ff 	mov.w	r0, #4294967295	; 0xffffffff
    48c4:	e7f8      	b.n	48b8 <Endpoint::set_address(char const*, int)+0x50>
    48c6:	bf00      	nop
    48c8:	0000da40 	.word	0x0000da40

000048cc <thumb2_checksum>:
    48cc:	b510      	push	{r4, lr}
    48ce:	2200      	movs	r2, #0
    48d0:	f010 0301 	ands.w	r3, r0, #1
    48d4:	d004      	beq.n	48e0 <thumb2_checksum+0x14>
    48d6:	b3a1      	cbz	r1, 4942 <thumb2_checksum+0x76>
    48d8:	f810 2b01 	ldrb.w	r2, [r0], #1
    48dc:	0212      	lsls	r2, r2, #8
    48de:	3901      	subs	r1, #1
    48e0:	f010 0403 	ands.w	r4, r0, #3
    48e4:	d005      	beq.n	48f2 <thumb2_checksum+0x26>
    48e6:	2902      	cmp	r1, #2
    48e8:	db1a      	blt.n	4920 <thumb2_checksum+0x54>
    48ea:	f830 4b02 	ldrh.w	r4, [r0], #2
    48ee:	1912      	adds	r2, r2, r4
    48f0:	3902      	subs	r1, #2
    48f2:	2908      	cmp	r1, #8
    48f4:	db0b      	blt.n	490e <thumb2_checksum+0x42>
    48f6:	f850 4b04 	ldr.w	r4, [r0], #4
    48fa:	1912      	adds	r2, r2, r4
    48fc:	f142 0200 	adc.w	r2, r2, #0
    4900:	f850 4b04 	ldr.w	r4, [r0], #4
    4904:	1912      	adds	r2, r2, r4
    4906:	f142 0200 	adc.w	r2, r2, #0
    490a:	3908      	subs	r1, #8
    490c:	e7f1      	b.n	48f2 <thumb2_checksum+0x26>
    490e:	2902      	cmp	r1, #2
    4910:	db06      	blt.n	4920 <thumb2_checksum+0x54>
    4912:	f830 4b02 	ldrh.w	r4, [r0], #2
    4916:	1912      	adds	r2, r2, r4
    4918:	f142 0200 	adc.w	r2, r2, #0
    491c:	3902      	subs	r1, #2
    491e:	e7f6      	b.n	490e <thumb2_checksum+0x42>
    4920:	b119      	cbz	r1, 492a <thumb2_checksum+0x5e>
    4922:	7804      	ldrb	r4, [r0, #0]
    4924:	1912      	adds	r2, r2, r4
    4926:	f142 0200 	adc.w	r2, r2, #0
    492a:	f3c2 440f 	ubfx	r4, r2, #16, #16
    492e:	f3c2 020f 	ubfx	r2, r2, #0, #16
    4932:	1912      	adds	r2, r2, r4
    4934:	f3c2 440f 	ubfx	r4, r2, #16, #16
    4938:	f3c2 020f 	ubfx	r2, r2, #0, #16
    493c:	1912      	adds	r2, r2, r4
    493e:	b103      	cbz	r3, 4942 <thumb2_checksum+0x76>
    4940:	ba52      	rev16	r2, r2
    4942:	4610      	mov	r0, r2
    4944:	bd10      	pop	{r4, pc}
    4946:	bf00      	nop

00004948 <thumb2_memcpy>:
    4948:	0913      	lsrs	r3, r2, #4
    494a:	d011      	beq.n	4970 <thumb2_memcpy+0x28>
    494c:	f851 cb04 	ldr.w	r12, [r1], #4
    4950:	f840 cb04 	str.w	r12, [r0], #4
    4954:	f851 cb04 	ldr.w	r12, [r1], #4
    4958:	f840 cb04 	str.w	r12, [r0], #4
    495c:	f851 cb04 	ldr.w	r12, [r1], #4
    4960:	f840 cb04 	str.w	r12, [r0], #4
    4964:	f851 cb04 	ldr.w	r12, [r1], #4
    4968:	f840 cb04 	str.w	r12, [r0], #4
    496c:	3b01      	subs	r3, #1
    496e:	d1ed      	bne.n	494c <thumb2_memcpy+0x4>
    4970:	f012 030f 	ands.w	r3, r2, #15
    4974:	d005      	beq.n	4982 <thumb2_memcpy+0x3a>
    4976:	f811 cb01 	ldrb.w	r12, [r1], #1
    497a:	f800 cb01 	strb.w	r12, [r0], #1
    497e:	3b01      	subs	r3, #1
    4980:	d1f9      	bne.n	4976 <thumb2_memcpy+0x2e>
    4982:	4770      	bx	lr

00004984 <sys_mbox_new>:
    4984:	2908      	cmp	r1, #8
    4986:	b570      	push	{r4, r5, r6, lr}
    4988:	460d      	mov	r5, r1
    498a:	4604      	mov	r4, r0
    498c:	dc14      	bgt.n	49b8 <sys_mbox_new+0x34>
    498e:	f104 060c 	add.w	r6, r4, #12
    4992:	2230      	movs	r2, #48	; 0x30
    4994:	4630      	mov	r0, r6
    4996:	2100      	movs	r1, #0
    4998:	f007 fb42 	bl	c020 <memset>
    499c:	4620      	mov	r0, r4
    499e:	60a6      	str	r6, [r4, #8]
    49a0:	2100      	movs	r1, #0
    49a2:	f840 5f04 	str.w	r5, [r0, #4]!
    49a6:	f005 f917 	bl	9bd8 <osMessageCreate>
    49aa:	f1d0 0301 	rsbs	r3, r0, #1
    49ae:	bf38      	it	cc
    49b0:	2300      	movcc	r3, #0
    49b2:	6020      	str	r0, [r4, #0]
    49b4:	4258      	negs	r0, r3
    49b6:	bd70      	pop	{r4, r5, r6, pc}
    49b8:	4801      	ldr	r0, [pc, #4]	; (49c0 <sys_mbox_new+0x3c>)
    49ba:	f006 fa8f 	bl	aedc <error>
    49be:	e7e6      	b.n	498e <sys_mbox_new+0xa>
    49c0:	0000da50 	.word	0x0000da50

000049c4 <sys_mbox_free>:
    49c4:	b500      	push	{lr}
    49c6:	b085      	sub	sp, #20
    49c8:	6801      	ldr	r1, [r0, #0]
    49ca:	2200      	movs	r2, #0
    49cc:	a801      	add	r0, sp, #4
    49ce:	f005 f943 	bl	9c58 <osMessageGet>
    49d2:	9b01      	ldr	r3, [sp, #4]
    49d4:	2b10      	cmp	r3, #16
    49d6:	d002      	beq.n	49de <sys_mbox_free+0x1a>
    49d8:	b005      	add	sp, #20
    49da:	f85d fb04 	ldr.w	pc, [sp], #4
    49de:	4803      	ldr	r0, [pc, #12]	; (49ec <sys_mbox_free+0x28>)
    49e0:	b005      	add	sp, #20
    49e2:	f85d eb04 	ldr.w	lr, [sp], #4
    49e6:	f006 ba79 	b.w	aedc <error>
    49ea:	bf00      	nop
    49ec:	0000da6c 	.word	0x0000da6c

000049f0 <sys_mbox_post>:
    49f0:	b508      	push	{r3, lr}
    49f2:	6800      	ldr	r0, [r0, #0]
    49f4:	f04f 32ff 	mov.w	r2, #4294967295	; 0xffffffff
    49f8:	f005 f908 	bl	9c0c <osMessagePut>
    49fc:	b900      	cbnz	r0, 4a00 <sys_mbox_post+0x10>
    49fe:	bd08      	pop	{r3, pc}
    4a00:	4802      	ldr	r0, [pc, #8]	; (4a0c <sys_mbox_post+0x1c>)
    4a02:	e8bd 4008 	ldmia.w	sp!, {r3, lr}
    4a06:	f006 ba69 	b.w	aedc <error>
    4a0a:	bf00      	nop
    4a0c:	0000da84 	.word	0x0000da84

00004a10 <sys_mbox_trypost>:
    4a10:	b508      	push	{r3, lr}
    4a12:	2200      	movs	r2, #0
    4a14:	6800      	ldr	r0, [r0, #0]
    4a16:	f005 f8f9 	bl	9c0c <osMessagePut>
    4a1a:	3000      	adds	r0, #0
    4a1c:	bf18      	it	ne
    4a1e:	2001      	movne	r0, #1
    4a20:	4240      	negs	r0, r0
    4a22:	bd08      	pop	{r3, pc}

00004a24 <sys_arch_mbox_fetch>:
    4a24:	b5f0      	push	{r4, r5, r6, r7, lr}
    4a26:	b085      	sub	sp, #20
    4a28:	4614      	mov	r4, r2
    4a2a:	4605      	mov	r5, r0
    4a2c:	460f      	mov	r7, r1
    4a2e:	f006 f97b 	bl	ad28 <us_ticker_read>
    4a32:	2c00      	cmp	r4, #0
    4a34:	bf14      	ite	ne
    4a36:	4622      	movne	r2, r4
    4a38:	f04f 32ff 	moveq.w	r2, #4294967295	; 0xffffffff
    4a3c:	4606      	mov	r6, r0
    4a3e:	6829      	ldr	r1, [r5, #0]
    4a40:	a801      	add	r0, sp, #4
    4a42:	f005 f909 	bl	9c58 <osMessageGet>
    4a46:	9b01      	ldr	r3, [sp, #4]
    4a48:	2b10      	cmp	r3, #16
    4a4a:	bf18      	it	ne
    4a4c:	f04f 30ff 	movne.w	r0, #4294967295	; 0xffffffff
    4a50:	d001      	beq.n	4a56 <sys_arch_mbox_fetch+0x32>
    4a52:	b005      	add	sp, #20
    4a54:	bdf0      	pop	{r4, r5, r6, r7, pc}
    4a56:	9b02      	ldr	r3, [sp, #8]
    4a58:	603b      	str	r3, [r7, #0]
    4a5a:	f006 f965 	bl	ad28 <us_ticker_read>
    4a5e:	4b03      	ldr	r3, [pc, #12]	; (4a6c <sys_arch_mbox_fetch+0x48>)
    4a60:	1b80      	subs	r0, r0, r6
    4a62:	fba3 2000 	umull	r2, r0, r3, r0
    4a66:	0980      	lsrs	r0, r0, #6
    4a68:	e7f3      	b.n	4a52 <sys_arch_mbox_fetch+0x2e>
    4a6a:	bf00      	nop
    4a6c:	10624dd3 	.word	0x10624dd3

00004a70 <sys_arch_mbox_tryfetch>:
    4a70:	b510      	push	{r4, lr}
    4a72:	6803      	ldr	r3, [r0, #0]
    4a74:	b084      	sub	sp, #16
    4a76:	a801      	add	r0, sp, #4
    4a78:	460c      	mov	r4, r1
    4a7a:	2200      	movs	r2, #0
    4a7c:	4619      	mov	r1, r3
    4a7e:	f005 f8eb 	bl	9c58 <osMessageGet>
    4a82:	9b01      	ldr	r3, [sp, #4]
    4a84:	2b10      	cmp	r3, #16
    4a86:	bf05      	ittet	eq
    4a88:	9b02      	ldreq	r3, [sp, #8]
    4a8a:	2000      	moveq	r0, #0
    4a8c:	f04f 30ff 	movne.w	r0, #4294967295	; 0xffffffff
    4a90:	6023      	streq	r3, [r4, #0]
    4a92:	b004      	add	sp, #16
    4a94:	bd10      	pop	{r4, pc}
    4a96:	bf00      	nop

00004a98 <sys_sem_new>:
    4a98:	b510      	push	{r4, lr}
    4a9a:	2300      	movs	r3, #0
    4a9c:	4604      	mov	r4, r0
    4a9e:	f100 0208 	add.w	r2, r0, #8
    4aa2:	7223      	strb	r3, [r4, #8]
    4aa4:	7263      	strb	r3, [r4, #9]
    4aa6:	72a3      	strb	r3, [r4, #10]
    4aa8:	72e3      	strb	r3, [r4, #11]
    4aaa:	7323      	strb	r3, [r4, #12]
    4aac:	7363      	strb	r3, [r4, #13]
    4aae:	73a3      	strb	r3, [r4, #14]
    4ab0:	73e3      	strb	r3, [r4, #15]
    4ab2:	f840 2f04 	str.w	r2, [r0, #4]!
    4ab6:	f004 ff85 	bl	99c4 <osSemaphoreCreate>
    4aba:	6020      	str	r0, [r4, #0]
    4abc:	b108      	cbz	r0, 4ac2 <sys_sem_new+0x2a>
    4abe:	2000      	movs	r0, #0
    4ac0:	bd10      	pop	{r4, pc}
    4ac2:	4802      	ldr	r0, [pc, #8]	; (4acc <sys_sem_new+0x34>)
    4ac4:	f006 fa0a 	bl	aedc <error>
    4ac8:	2000      	movs	r0, #0
    4aca:	bd10      	pop	{r4, pc}
    4acc:	0000da9c 	.word	0x0000da9c

00004ad0 <sys_arch_sem_wait>:
    4ad0:	b570      	push	{r4, r5, r6, lr}
    4ad2:	460c      	mov	r4, r1
    4ad4:	4605      	mov	r5, r0
    4ad6:	f006 f927 	bl	ad28 <us_ticker_read>
    4ada:	2c00      	cmp	r4, #0
    4adc:	bf14      	ite	ne
    4ade:	4621      	movne	r1, r4
    4ae0:	f04f 31ff 	moveq.w	r1, #4294967295	; 0xffffffff
    4ae4:	4606      	mov	r6, r0
    4ae6:	6828      	ldr	r0, [r5, #0]
    4ae8:	f004 ff86 	bl	99f8 <osSemaphoreWait>
    4aec:	2800      	cmp	r0, #0
    4aee:	dc02      	bgt.n	4af6 <sys_arch_sem_wait+0x26>
    4af0:	f04f 30ff 	mov.w	r0, #4294967295	; 0xffffffff
    4af4:	bd70      	pop	{r4, r5, r6, pc}
    4af6:	f006 f917 	bl	ad28 <us_ticker_read>
    4afa:	4b03      	ldr	r3, [pc, #12]	; (4b08 <sys_arch_sem_wait+0x38>)
    4afc:	1b80      	subs	r0, r0, r6
    4afe:	fba3 2000 	umull	r2, r0, r3, r0
    4b02:	0980      	lsrs	r0, r0, #6
    4b04:	bd70      	pop	{r4, r5, r6, pc}
    4b06:	bf00      	nop
    4b08:	10624dd3 	.word	0x10624dd3

00004b0c <sys_sem_signal>:
    4b0c:	b508      	push	{r3, lr}
    4b0e:	6800      	ldr	r0, [r0, #0]
    4b10:	f004 ff80 	bl	9a14 <osSemaphoreRelease>
    4b14:	b900      	cbnz	r0, 4b18 <sys_sem_signal+0xc>
    4b16:	bd08      	pop	{r3, pc}
    4b18:	e8bd 4008 	ldmia.w	sp!, {r3, lr}
    4b1c:	f006 b9a4 	b.w	ae68 <mbed_die>

00004b20 <sys_sem_free>:
    4b20:	4770      	bx	lr
    4b22:	bf00      	nop

00004b24 <sys_mutex_new>:
    4b24:	b510      	push	{r4, lr}
    4b26:	2300      	movs	r3, #0
    4b28:	4604      	mov	r4, r0
    4b2a:	f100 0208 	add.w	r2, r0, #8
    4b2e:	7223      	strb	r3, [r4, #8]
    4b30:	7263      	strb	r3, [r4, #9]
    4b32:	72a3      	strb	r3, [r4, #10]
    4b34:	72e3      	strb	r3, [r4, #11]
    4b36:	7323      	strb	r3, [r4, #12]
    4b38:	7363      	strb	r3, [r4, #13]
    4b3a:	73a3      	strb	r3, [r4, #14]
    4b3c:	73e3      	strb	r3, [r4, #15]
    4b3e:	7423      	strb	r3, [r4, #16]
    4b40:	7463      	strb	r3, [r4, #17]
    4b42:	74a3      	strb	r3, [r4, #18]
    4b44:	74e3      	strb	r3, [r4, #19]
    4b46:	f840 2f04 	str.w	r2, [r0, #4]!
    4b4a:	f004 fea1 	bl	9890 <osMutexCreate>
    4b4e:	f1d0 0301 	rsbs	r3, r0, #1
    4b52:	bf38      	it	cc
    4b54:	2300      	movcc	r3, #0
    4b56:	6020      	str	r0, [r4, #0]
    4b58:	4258      	negs	r0, r3
    4b5a:	bd10      	pop	{r4, pc}

00004b5c <sys_mutex_lock>:
    4b5c:	b508      	push	{r3, lr}
    4b5e:	6800      	ldr	r0, [r0, #0]
    4b60:	f04f 31ff 	mov.w	r1, #4294967295	; 0xffffffff
    4b64:	f004 feae 	bl	98c4 <osMutexWait>
    4b68:	b900      	cbnz	r0, 4b6c <sys_mutex_lock+0x10>
    4b6a:	bd08      	pop	{r3, pc}
    4b6c:	4802      	ldr	r0, [pc, #8]	; (4b78 <sys_mutex_lock+0x1c>)
    4b6e:	e8bd 4008 	ldmia.w	sp!, {r3, lr}
    4b72:	f006 b9b3 	b.w	aedc <error>
    4b76:	bf00      	nop
    4b78:	0000dab8 	.word	0x0000dab8

00004b7c <sys_mutex_unlock>:
    4b7c:	b508      	push	{r3, lr}
    4b7e:	6800      	ldr	r0, [r0, #0]
    4b80:	f004 feac 	bl	98dc <osMutexRelease>
    4b84:	b900      	cbnz	r0, 4b88 <sys_mutex_unlock+0xc>
    4b86:	bd08      	pop	{r3, pc}
    4b88:	4802      	ldr	r0, [pc, #8]	; (4b94 <sys_mutex_unlock+0x18>)
    4b8a:	e8bd 4008 	ldmia.w	sp!, {r3, lr}
    4b8e:	f006 b9a5 	b.w	aedc <error>
    4b92:	bf00      	nop
    4b94:	0000dad0 	.word	0x0000dad0

00004b98 <sys_init>:
    4b98:	b508      	push	{r3, lr}
    4b9a:	f006 f8c5 	bl	ad28 <us_ticker_read>
    4b9e:	4806      	ldr	r0, [pc, #24]	; (4bb8 <sys_init+0x20>)
    4ba0:	f004 fe76 	bl	9890 <osMutexCreate>
    4ba4:	4b05      	ldr	r3, [pc, #20]	; (4bbc <sys_init+0x24>)
    4ba6:	6018      	str	r0, [r3, #0]
    4ba8:	b100      	cbz	r0, 4bac <sys_init+0x14>
    4baa:	bd08      	pop	{r3, pc}
    4bac:	4804      	ldr	r0, [pc, #16]	; (4bc0 <sys_init+0x28>)
    4bae:	e8bd 4008 	ldmia.w	sp!, {r3, lr}
    4bb2:	f006 b993 	b.w	aedc <error>
    4bb6:	bf00      	nop
    4bb8:	100000d4 	.word	0x100000d4
    4bbc:	10000fe4 	.word	0x10000fe4
    4bc0:	0000dae8 	.word	0x0000dae8

00004bc4 <sys_arch_protect>:
    4bc4:	b508      	push	{r3, lr}
    4bc6:	4b06      	ldr	r3, [pc, #24]	; (4be0 <sys_arch_protect+0x1c>)
    4bc8:	f04f 31ff 	mov.w	r1, #4294967295	; 0xffffffff
    4bcc:	6818      	ldr	r0, [r3, #0]
    4bce:	f004 fe79 	bl	98c4 <osMutexWait>
    4bd2:	b110      	cbz	r0, 4bda <sys_arch_protect+0x16>
    4bd4:	4803      	ldr	r0, [pc, #12]	; (4be4 <sys_arch_protect+0x20>)
    4bd6:	f006 f981 	bl	aedc <error>
    4bda:	2001      	movs	r0, #1
    4bdc:	bd08      	pop	{r3, pc}
    4bde:	bf00      	nop
    4be0:	10000fe4 	.word	0x10000fe4
    4be4:	0000daf8 	.word	0x0000daf8

00004be8 <sys_arch_unprotect>:
    4be8:	b508      	push	{r3, lr}
    4bea:	4b05      	ldr	r3, [pc, #20]	; (4c00 <sys_arch_unprotect+0x18>)
    4bec:	6818      	ldr	r0, [r3, #0]
    4bee:	f004 fe75 	bl	98dc <osMutexRelease>
    4bf2:	b900      	cbnz	r0, 4bf6 <sys_arch_unprotect+0xe>
    4bf4:	bd08      	pop	{r3, pc}
    4bf6:	4803      	ldr	r0, [pc, #12]	; (4c04 <sys_arch_unprotect+0x1c>)
    4bf8:	e8bd 4008 	ldmia.w	sp!, {r3, lr}
    4bfc:	f006 b96e 	b.w	aedc <error>
    4c00:	10000fe4 	.word	0x10000fe4
    4c04:	0000db10 	.word	0x0000db10

00004c08 <sys_thread_new>:
    4c08:	e92d 42f0 	stmdb	sp!, {r4, r5, r6, r7, r9, lr}
    4c0c:	4d19      	ldr	r5, [pc, #100]	; (4c74 <sys_thread_new+0x6c>)
    4c0e:	b082      	sub	sp, #8
    4c10:	682c      	ldr	r4, [r5, #0]
    4c12:	4691      	mov	r9, r2
    4c14:	2c05      	cmp	r4, #5
    4c16:	dc19      	bgt.n	4c4c <sys_thread_new+0x44>
    4c18:	1c62      	adds	r2, r4, #1
    4c1a:	eb04 1704 	add.w	r7, r4, r4, lsl #4
    4c1e:	4e16      	ldr	r6, [pc, #88]	; (4c78 <sys_thread_new+0x70>)
    4c20:	602a      	str	r2, [r5, #0]
    4c22:	00bf      	lsls	r7, r7, #2
    4c24:	9a08      	ldr	r2, [sp, #32]
    4c26:	19f4      	adds	r4, r6, r7
    4c28:	4618      	mov	r0, r3
    4c2a:	6061      	str	r1, [r4, #4]
    4c2c:	8122      	strh	r2, [r4, #8]
    4c2e:	60e3      	str	r3, [r4, #12]
    4c30:	f7fb fad8 	bl	1e4 <__wrap_malloc>
    4c34:	6120      	str	r0, [r4, #16]
    4c36:	b1c8      	cbz	r0, 4c6c <sys_thread_new+0x64>
    4c38:	4649      	mov	r1, r9
    4c3a:	1d20      	adds	r0, r4, #4
    4c3c:	f004 fc3a 	bl	94b4 <osThreadCreate>
    4c40:	51f0      	str	r0, [r6, r7]
    4c42:	b160      	cbz	r0, 4c5e <sys_thread_new+0x56>
    4c44:	4620      	mov	r0, r4
    4c46:	b002      	add	sp, #8
    4c48:	e8bd 82f0 	ldmia.w	sp!, {r4, r5, r6, r7, r9, pc}
    4c4c:	480b      	ldr	r0, [pc, #44]	; (4c7c <sys_thread_new+0x74>)
    4c4e:	9101      	str	r1, [sp, #4]
    4c50:	9300      	str	r3, [sp, #0]
    4c52:	f006 f943 	bl	aedc <error>
    4c56:	682c      	ldr	r4, [r5, #0]
    4c58:	9901      	ldr	r1, [sp, #4]
    4c5a:	9b00      	ldr	r3, [sp, #0]
    4c5c:	e7dc      	b.n	4c18 <sys_thread_new+0x10>
    4c5e:	4808      	ldr	r0, [pc, #32]	; (4c80 <sys_thread_new+0x78>)
    4c60:	f006 f93c 	bl	aedc <error>
    4c64:	4620      	mov	r0, r4
    4c66:	b002      	add	sp, #8
    4c68:	e8bd 82f0 	ldmia.w	sp!, {r4, r5, r6, r7, r9, pc}
    4c6c:	4805      	ldr	r0, [pc, #20]	; (4c84 <sys_thread_new+0x7c>)
    4c6e:	f006 f935 	bl	aedc <error>
    4c72:	e7e1      	b.n	4c38 <sys_thread_new+0x30>
    4c74:	100003e0 	.word	0x100003e0
    4c78:	100003e4 	.word	0x100003e4
    4c7c:	0000db2c 	.word	0x0000db2c
    4c80:	0000db70 	.word	0x0000db70
    4c84:	0000db4c 	.word	0x0000db4c

00004c88 <netconn_close_shutdown>:
    4c88:	b530      	push	{r4, r5, lr}
    4c8a:	4604      	mov	r4, r0
    4c8c:	b087      	sub	sp, #28
    4c8e:	b1a8      	cbz	r0, 4cbc <netconn_close_shutdown+0x34>
    4c90:	4b0b      	ldr	r3, [pc, #44]	; (4cc0 <netconn_close_shutdown+0x38>)
    4c92:	4668      	mov	r0, sp
    4c94:	f88d 100c 	strb.w	r1, [sp, #12]
    4c98:	9300      	str	r3, [sp, #0]
    4c9a:	9401      	str	r4, [sp, #4]
    4c9c:	f7fc f9ac 	bl	ff8 <tcpip_apimsg>
    4ca0:	4605      	mov	r5, r0
    4ca2:	f7ff ff8f 	bl	4bc4 <sys_arch_protect>
    4ca6:	f994 3008 	ldrsb.w	r3, [r4, #8]
    4caa:	3309      	adds	r3, #9
    4cac:	bfa8      	it	ge
    4cae:	7225      	strbge	r5, [r4, #8]
    4cb0:	f7ff ff9a 	bl	4be8 <sys_arch_unprotect>
    4cb4:	4628      	mov	r0, r5
    4cb6:	b240      	sxtb	r0, r0
    4cb8:	b007      	add	sp, #28
    4cba:	bd30      	pop	{r4, r5, pc}
    4cbc:	20f2      	movs	r0, #242	; 0xf2
    4cbe:	e7fa      	b.n	4cb6 <netconn_close_shutdown+0x2e>
    4cc0:	00005a09 	.word	0x00005a09

00004cc4 <netconn_recv_data>:
    4cc4:	b570      	push	{r4, r5, r6, lr}
    4cc6:	2300      	movs	r3, #0
    4cc8:	b088      	sub	sp, #32
    4cca:	460d      	mov	r5, r1
    4ccc:	4604      	mov	r4, r0
    4cce:	9301      	str	r3, [sp, #4]
    4cd0:	2900      	cmp	r1, #0
    4cd2:	d042      	beq.n	4d5a <netconn_recv_data+0x96>
    4cd4:	600b      	str	r3, [r1, #0]
    4cd6:	2800      	cmp	r0, #0
    4cd8:	d03f      	beq.n	4d5a <netconn_recv_data+0x96>
    4cda:	69c3      	ldr	r3, [r0, #28]
    4cdc:	2b00      	cmp	r3, #0
    4cde:	d03e      	beq.n	4d5e <netconn_recv_data+0x9a>
    4ce0:	7a00      	ldrb	r0, [r0, #8]
    4ce2:	b243      	sxtb	r3, r0
    4ce4:	3309      	adds	r3, #9
    4ce6:	da02      	bge.n	4cee <netconn_recv_data+0x2a>
    4ce8:	b240      	sxtb	r0, r0
    4cea:	b008      	add	sp, #32
    4cec:	bd70      	pop	{r4, r5, r6, pc}
    4cee:	f104 001c 	add.w	r0, r4, #28
    4cf2:	a901      	add	r1, sp, #4
    4cf4:	f8d4 2098 	ldr.w	r2, [r4, #152]	; 0x98
    4cf8:	f7ff fe94 	bl	4a24 <sys_arch_mbox_fetch>
    4cfc:	3001      	adds	r0, #1
    4cfe:	d030      	beq.n	4d62 <netconn_recv_data+0x9e>
    4d00:	7823      	ldrb	r3, [r4, #0]
    4d02:	2b10      	cmp	r3, #16
    4d04:	d00e      	beq.n	4d24 <netconn_recv_data+0x60>
    4d06:	9b01      	ldr	r3, [sp, #4]
    4d08:	681a      	ldr	r2, [r3, #0]
    4d0a:	8912      	ldrh	r2, [r2, #8]
    4d0c:	f8d4 60a8 	ldr.w	r6, [r4, #168]	; 0xa8
    4d10:	b11e      	cbz	r6, 4d1a <netconn_recv_data+0x56>
    4d12:	4620      	mov	r0, r4
    4d14:	2101      	movs	r1, #1
    4d16:	47b0      	blx	r6
    4d18:	9b01      	ldr	r3, [sp, #4]
    4d1a:	2000      	movs	r0, #0
    4d1c:	b240      	sxtb	r0, r0
    4d1e:	602b      	str	r3, [r5, #0]
    4d20:	b008      	add	sp, #32
    4d22:	bd70      	pop	{r4, r5, r6, pc}
    4d24:	f894 309c 	ldrb.w	r3, [r4, #156]	; 0x9c
    4d28:	071b      	lsls	r3, r3, #28
    4d2a:	d40d      	bmi.n	4d48 <netconn_recv_data+0x84>
    4d2c:	4a1c      	ldr	r2, [pc, #112]	; (4da0 <netconn_recv_data+0xdc>)
    4d2e:	9b01      	ldr	r3, [sp, #4]
    4d30:	9403      	str	r4, [sp, #12]
    4d32:	9202      	str	r2, [sp, #8]
    4d34:	b173      	cbz	r3, 4d54 <netconn_recv_data+0x90>
    4d36:	891b      	ldrh	r3, [r3, #8]
    4d38:	9305      	str	r3, [sp, #20]
    4d3a:	a802      	add	r0, sp, #8
    4d3c:	f7fc f95c 	bl	ff8 <tcpip_apimsg>
    4d40:	9b01      	ldr	r3, [sp, #4]
    4d42:	b1d3      	cbz	r3, 4d7a <netconn_recv_data+0xb6>
    4d44:	891a      	ldrh	r2, [r3, #8]
    4d46:	e7e1      	b.n	4d0c <netconn_recv_data+0x48>
    4d48:	9b01      	ldr	r3, [sp, #4]
    4d4a:	2b00      	cmp	r3, #0
    4d4c:	d1fa      	bne.n	4d44 <netconn_recv_data+0x80>
    4d4e:	4b14      	ldr	r3, [pc, #80]	; (4da0 <netconn_recv_data+0xdc>)
    4d50:	9403      	str	r4, [sp, #12]
    4d52:	9302      	str	r3, [sp, #8]
    4d54:	2301      	movs	r3, #1
    4d56:	9305      	str	r3, [sp, #20]
    4d58:	e7ef      	b.n	4d3a <netconn_recv_data+0x76>
    4d5a:	20f2      	movs	r0, #242	; 0xf2
    4d5c:	e7c4      	b.n	4ce8 <netconn_recv_data+0x24>
    4d5e:	20f3      	movs	r0, #243	; 0xf3
    4d60:	e7c2      	b.n	4ce8 <netconn_recv_data+0x24>
    4d62:	f7ff ff2f 	bl	4bc4 <sys_arch_protect>
    4d66:	f994 3008 	ldrsb.w	r3, [r4, #8]
    4d6a:	3309      	adds	r3, #9
    4d6c:	bfa4      	itt	ge
    4d6e:	23fd      	movge	r3, #253	; 0xfd
    4d70:	7223      	strbge	r3, [r4, #8]
    4d72:	f7ff ff39 	bl	4be8 <sys_arch_unprotect>
    4d76:	20fd      	movs	r0, #253	; 0xfd
    4d78:	e7b6      	b.n	4ce8 <netconn_recv_data+0x24>
    4d7a:	f8d4 50a8 	ldr.w	r5, [r4, #168]	; 0xa8
    4d7e:	b11d      	cbz	r5, 4d88 <netconn_recv_data+0xc4>
    4d80:	461a      	mov	r2, r3
    4d82:	4620      	mov	r0, r4
    4d84:	2101      	movs	r1, #1
    4d86:	47a8      	blx	r5
    4d88:	f7ff ff1c 	bl	4bc4 <sys_arch_protect>
    4d8c:	f994 3008 	ldrsb.w	r3, [r4, #8]
    4d90:	3309      	adds	r3, #9
    4d92:	bfa4      	itt	ge
    4d94:	23f4      	movge	r3, #244	; 0xf4
    4d96:	7223      	strbge	r3, [r4, #8]
    4d98:	f7ff ff26 	bl	4be8 <sys_arch_unprotect>
    4d9c:	20f4      	movs	r0, #244	; 0xf4
    4d9e:	e7a3      	b.n	4ce8 <netconn_recv_data+0x24>
    4da0:	000058ed 	.word	0x000058ed

00004da4 <netconn_new_with_proto_and_callback>:
    4da4:	b530      	push	{r4, r5, lr}
    4da6:	460d      	mov	r5, r1
    4da8:	b087      	sub	sp, #28
    4daa:	4611      	mov	r1, r2
    4dac:	f000 fc1e 	bl	55ec <netconn_alloc>
    4db0:	4604      	mov	r4, r0
    4db2:	b1b8      	cbz	r0, 4de4 <netconn_new_with_proto_and_callback+0x40>
    4db4:	4b0d      	ldr	r3, [pc, #52]	; (4dec <netconn_new_with_proto_and_callback+0x48>)
    4db6:	4668      	mov	r0, sp
    4db8:	f88d 500c 	strb.w	r5, [sp, #12]
    4dbc:	e88d 0018 	stmia.w	sp, {r3, r4}
    4dc0:	f7fc f91a 	bl	ff8 <tcpip_apimsg>
    4dc4:	b910      	cbnz	r0, 4dcc <netconn_new_with_proto_and_callback+0x28>
    4dc6:	4620      	mov	r0, r4
    4dc8:	b007      	add	sp, #28
    4dca:	bd30      	pop	{r4, r5, pc}
    4dcc:	f104 000c 	add.w	r0, r4, #12
    4dd0:	f7ff fea6 	bl	4b20 <sys_sem_free>
    4dd4:	f104 001c 	add.w	r0, r4, #28
    4dd8:	f7ff fdf4 	bl	49c4 <sys_mbox_free>
    4ddc:	4621      	mov	r1, r4
    4dde:	2007      	movs	r0, #7
    4de0:	f7fc fb32 	bl	1448 <memp_free>
    4de4:	2000      	movs	r0, #0
    4de6:	b007      	add	sp, #28
    4de8:	bd30      	pop	{r4, r5, pc}
    4dea:	bf00      	nop
    4dec:	00005579 	.word	0x00005579

00004df0 <netconn_delete>:
    4df0:	b510      	push	{r4, lr}
    4df2:	4604      	mov	r4, r0
    4df4:	b086      	sub	sp, #24
    4df6:	b140      	cbz	r0, 4e0a <netconn_delete+0x1a>
    4df8:	4b05      	ldr	r3, [pc, #20]	; (4e10 <netconn_delete+0x20>)
    4dfa:	4668      	mov	r0, sp
    4dfc:	e88d 0018 	stmia.w	sp, {r3, r4}
    4e00:	f7fc f8fa 	bl	ff8 <tcpip_apimsg>
    4e04:	4620      	mov	r0, r4
    4e06:	f000 fc33 	bl	5670 <netconn_free>
    4e0a:	2000      	movs	r0, #0
    4e0c:	b006      	add	sp, #24
    4e0e:	bd10      	pop	{r4, pc}
    4e10:	00005725 	.word	0x00005725

00004e14 <netconn_getaddr>:
    4e14:	b530      	push	{r4, r5, lr}
    4e16:	4604      	mov	r4, r0
    4e18:	b087      	sub	sp, #28
    4e1a:	b1c8      	cbz	r0, 4e50 <netconn_getaddr+0x3c>
    4e1c:	b1c1      	cbz	r1, 4e50 <netconn_getaddr+0x3c>
    4e1e:	b1ba      	cbz	r2, 4e50 <netconn_getaddr+0x3c>
    4e20:	4d0c      	ldr	r5, [pc, #48]	; (4e54 <netconn_getaddr+0x40>)
    4e22:	4668      	mov	r0, sp
    4e24:	9103      	str	r1, [sp, #12]
    4e26:	9204      	str	r2, [sp, #16]
    4e28:	f88d 3014 	strb.w	r3, [sp, #20]
    4e2c:	9500      	str	r5, [sp, #0]
    4e2e:	9401      	str	r4, [sp, #4]
    4e30:	f7fc f8e2 	bl	ff8 <tcpip_apimsg>
    4e34:	4605      	mov	r5, r0
    4e36:	f7ff fec5 	bl	4bc4 <sys_arch_protect>
    4e3a:	f994 3008 	ldrsb.w	r3, [r4, #8]
    4e3e:	3309      	adds	r3, #9
    4e40:	bfa8      	it	ge
    4e42:	7225      	strbge	r5, [r4, #8]
    4e44:	f7ff fed0 	bl	4be8 <sys_arch_unprotect>
    4e48:	4628      	mov	r0, r5
    4e4a:	b240      	sxtb	r0, r0
    4e4c:	b007      	add	sp, #28
    4e4e:	bd30      	pop	{r4, r5, pc}
    4e50:	20f2      	movs	r0, #242	; 0xf2
    4e52:	e7fa      	b.n	4e4a <netconn_getaddr+0x36>
    4e54:	0000597d 	.word	0x0000597d

00004e58 <netconn_connect>:
    4e58:	b530      	push	{r4, r5, lr}
    4e5a:	4604      	mov	r4, r0
    4e5c:	b087      	sub	sp, #28
    4e5e:	b1b0      	cbz	r0, 4e8e <netconn_connect+0x36>
    4e60:	4b0c      	ldr	r3, [pc, #48]	; (4e94 <netconn_connect+0x3c>)
    4e62:	4668      	mov	r0, sp
    4e64:	9103      	str	r1, [sp, #12]
    4e66:	f8ad 2010 	strh.w	r2, [sp, #16]
    4e6a:	9300      	str	r3, [sp, #0]
    4e6c:	9401      	str	r4, [sp, #4]
    4e6e:	f7fc f8c3 	bl	ff8 <tcpip_apimsg>
    4e72:	4605      	mov	r5, r0
    4e74:	f7ff fea6 	bl	4bc4 <sys_arch_protect>
    4e78:	f994 3008 	ldrsb.w	r3, [r4, #8]
    4e7c:	3309      	adds	r3, #9
    4e7e:	bfa8      	it	ge
    4e80:	7225      	strbge	r5, [r4, #8]
    4e82:	f7ff feb1 	bl	4be8 <sys_arch_unprotect>
    4e86:	4628      	mov	r0, r5
    4e88:	b240      	sxtb	r0, r0
    4e8a:	b007      	add	sp, #28
    4e8c:	bd30      	pop	{r4, r5, pc}
    4e8e:	20f2      	movs	r0, #242	; 0xf2
    4e90:	e7fa      	b.n	4e88 <netconn_connect+0x30>
    4e92:	bf00      	nop
    4e94:	000057b9 	.word	0x000057b9

00004e98 <netconn_recv_tcp_pbuf>:
    4e98:	b120      	cbz	r0, 4ea4 <netconn_recv_tcp_pbuf+0xc>
    4e9a:	7803      	ldrb	r3, [r0, #0]
    4e9c:	2b10      	cmp	r3, #16
    4e9e:	d101      	bne.n	4ea4 <netconn_recv_tcp_pbuf+0xc>
    4ea0:	f7ff bf10 	b.w	4cc4 <netconn_recv_data>
    4ea4:	f06f 000d 	mvn.w	r0, #13
    4ea8:	4770      	bx	lr
    4eaa:	bf00      	nop

00004eac <netconn_recv>:
    4eac:	b570      	push	{r4, r5, r6, lr}
    4eae:	4604      	mov	r4, r0
    4eb0:	b082      	sub	sp, #8
    4eb2:	460d      	mov	r5, r1
    4eb4:	2900      	cmp	r1, #0
    4eb6:	d035      	beq.n	4f24 <netconn_recv+0x78>
    4eb8:	2300      	movs	r3, #0
    4eba:	600b      	str	r3, [r1, #0]
    4ebc:	2800      	cmp	r0, #0
    4ebe:	d031      	beq.n	4f24 <netconn_recv+0x78>
    4ec0:	69c2      	ldr	r2, [r0, #28]
    4ec2:	2a00      	cmp	r2, #0
    4ec4:	d030      	beq.n	4f28 <netconn_recv+0x7c>
    4ec6:	7802      	ldrb	r2, [r0, #0]
    4ec8:	2a10      	cmp	r2, #16
    4eca:	d004      	beq.n	4ed6 <netconn_recv+0x2a>
    4ecc:	f7ff fefa 	bl	4cc4 <netconn_recv_data>
    4ed0:	b240      	sxtb	r0, r0
    4ed2:	b002      	add	sp, #8
    4ed4:	bd70      	pop	{r4, r5, r6, pc}
    4ed6:	2006      	movs	r0, #6
    4ed8:	9301      	str	r3, [sp, #4]
    4eda:	f7fc fa9f 	bl	141c <memp_malloc>
    4ede:	4606      	mov	r6, r0
    4ee0:	b1a0      	cbz	r0, 4f0c <netconn_recv+0x60>
    4ee2:	4620      	mov	r0, r4
    4ee4:	a901      	add	r1, sp, #4
    4ee6:	f7ff feed 	bl	4cc4 <netconn_recv_data>
    4eea:	4604      	mov	r4, r0
    4eec:	b940      	cbnz	r0, 4f00 <netconn_recv+0x54>
    4eee:	9b01      	ldr	r3, [sp, #4]
    4ef0:	81b0      	strh	r0, [r6, #12]
    4ef2:	60b0      	str	r0, [r6, #8]
    4ef4:	b240      	sxtb	r0, r0
    4ef6:	6033      	str	r3, [r6, #0]
    4ef8:	6073      	str	r3, [r6, #4]
    4efa:	602e      	str	r6, [r5, #0]
    4efc:	b002      	add	sp, #8
    4efe:	bd70      	pop	{r4, r5, r6, pc}
    4f00:	2006      	movs	r0, #6
    4f02:	4631      	mov	r1, r6
    4f04:	f7fc faa0 	bl	1448 <memp_free>
    4f08:	4620      	mov	r0, r4
    4f0a:	e7e1      	b.n	4ed0 <netconn_recv+0x24>
    4f0c:	f7ff fe5a 	bl	4bc4 <sys_arch_protect>
    4f10:	f994 3008 	ldrsb.w	r3, [r4, #8]
    4f14:	3309      	adds	r3, #9
    4f16:	bfa4      	itt	ge
    4f18:	23ff      	movge	r3, #255	; 0xff
    4f1a:	7223      	strbge	r3, [r4, #8]
    4f1c:	f7ff fe64 	bl	4be8 <sys_arch_unprotect>
    4f20:	20ff      	movs	r0, #255	; 0xff
    4f22:	e7d5      	b.n	4ed0 <netconn_recv+0x24>
    4f24:	20f2      	movs	r0, #242	; 0xf2
    4f26:	e7d3      	b.n	4ed0 <netconn_recv+0x24>
    4f28:	20f3      	movs	r0, #243	; 0xf3
    4f2a:	e7d1      	b.n	4ed0 <netconn_recv+0x24>

00004f2c <netconn_recved>:
    4f2c:	b500      	push	{lr}
    4f2e:	4603      	mov	r3, r0
    4f30:	b087      	sub	sp, #28
    4f32:	b110      	cbz	r0, 4f3a <netconn_recved+0xe>
    4f34:	7802      	ldrb	r2, [r0, #0]
    4f36:	2a10      	cmp	r2, #16
    4f38:	d002      	beq.n	4f40 <netconn_recved+0x14>
    4f3a:	b007      	add	sp, #28
    4f3c:	f85d fb04 	ldr.w	pc, [sp], #4
    4f40:	f890 209c 	ldrb.w	r2, [r0, #156]	; 0x9c
    4f44:	0712      	lsls	r2, r2, #28
    4f46:	d5f8      	bpl.n	4f3a <netconn_recved+0xe>
    4f48:	4a04      	ldr	r2, [pc, #16]	; (4f5c <netconn_recved+0x30>)
    4f4a:	4668      	mov	r0, sp
    4f4c:	9301      	str	r3, [sp, #4]
    4f4e:	9103      	str	r1, [sp, #12]
    4f50:	9200      	str	r2, [sp, #0]
    4f52:	f7fc f851 	bl	ff8 <tcpip_apimsg>
    4f56:	b007      	add	sp, #28
    4f58:	f85d fb04 	ldr.w	pc, [sp], #4
    4f5c:	000058ed 	.word	0x000058ed

00004f60 <netconn_send>:
    4f60:	b530      	push	{r4, r5, lr}
    4f62:	4604      	mov	r4, r0
    4f64:	b087      	sub	sp, #28
    4f66:	b1a0      	cbz	r0, 4f92 <netconn_send+0x32>
    4f68:	4b0b      	ldr	r3, [pc, #44]	; (4f98 <netconn_send+0x38>)
    4f6a:	4668      	mov	r0, sp
    4f6c:	9103      	str	r1, [sp, #12]
    4f6e:	9300      	str	r3, [sp, #0]
    4f70:	9401      	str	r4, [sp, #4]
    4f72:	f7fc f841 	bl	ff8 <tcpip_apimsg>
    4f76:	4605      	mov	r5, r0
    4f78:	f7ff fe24 	bl	4bc4 <sys_arch_protect>
    4f7c:	f994 3008 	ldrsb.w	r3, [r4, #8]
    4f80:	3309      	adds	r3, #9
    4f82:	bfa8      	it	ge
    4f84:	7225      	strbge	r5, [r4, #8]
    4f86:	f7ff fe2f 	bl	4be8 <sys_arch_unprotect>
    4f8a:	4628      	mov	r0, r5
    4f8c:	b240      	sxtb	r0, r0
    4f8e:	b007      	add	sp, #28
    4f90:	bd30      	pop	{r4, r5, pc}
    4f92:	20f2      	movs	r0, #242	; 0xf2
    4f94:	e7fa      	b.n	4f8c <netconn_send+0x2c>
    4f96:	bf00      	nop
    4f98:	00005869 	.word	0x00005869

00004f9c <netconn_write>:
    4f9c:	b530      	push	{r4, r5, lr}
    4f9e:	4604      	mov	r4, r0
    4fa0:	b087      	sub	sp, #28
    4fa2:	b308      	cbz	r0, 4fe8 <netconn_write+0x4c>
    4fa4:	7800      	ldrb	r0, [r0, #0]
    4fa6:	2810      	cmp	r0, #16
    4fa8:	d11c      	bne.n	4fe4 <netconn_write+0x48>
    4faa:	b91a      	cbnz	r2, 4fb4 <netconn_write+0x18>
    4fac:	4610      	mov	r0, r2
    4fae:	b240      	sxtb	r0, r0
    4fb0:	b007      	add	sp, #28
    4fb2:	bd30      	pop	{r4, r5, pc}
    4fb4:	4d0d      	ldr	r5, [pc, #52]	; (4fec <netconn_write+0x50>)
    4fb6:	4668      	mov	r0, sp
    4fb8:	9103      	str	r1, [sp, #12]
    4fba:	f88d 3014 	strb.w	r3, [sp, #20]
    4fbe:	9204      	str	r2, [sp, #16]
    4fc0:	9500      	str	r5, [sp, #0]
    4fc2:	9401      	str	r4, [sp, #4]
    4fc4:	f7fc f818 	bl	ff8 <tcpip_apimsg>
    4fc8:	4605      	mov	r5, r0
    4fca:	f7ff fdfb 	bl	4bc4 <sys_arch_protect>
    4fce:	f994 3008 	ldrsb.w	r3, [r4, #8]
    4fd2:	3309      	adds	r3, #9
    4fd4:	bfa8      	it	ge
    4fd6:	7225      	strbge	r5, [r4, #8]
    4fd8:	f7ff fe06 	bl	4be8 <sys_arch_unprotect>
    4fdc:	4628      	mov	r0, r5
    4fde:	b240      	sxtb	r0, r0
    4fe0:	b007      	add	sp, #28
    4fe2:	bd30      	pop	{r4, r5, pc}
    4fe4:	20fa      	movs	r0, #250	; 0xfa
    4fe6:	e7e2      	b.n	4fae <netconn_write+0x12>
    4fe8:	20f2      	movs	r0, #242	; 0xf2
    4fea:	e7e0      	b.n	4fae <netconn_write+0x12>
    4fec:	00005939 	.word	0x00005939

00004ff0 <netconn_shutdown>:
    4ff0:	2a00      	cmp	r2, #0
    4ff2:	bf0c      	ite	eq
    4ff4:	2300      	moveq	r3, #0
    4ff6:	2302      	movne	r3, #2
    4ff8:	2900      	cmp	r1, #0
    4ffa:	bf0c      	ite	eq
    4ffc:	4619      	moveq	r1, r3
    4ffe:	f043 0101 	orrne.w	r1, r3, #1
    5002:	f7ff be41 	b.w	4c88 <netconn_close_shutdown>
    5006:	bf00      	nop

00005008 <netconn_gethostbyname>:
    5008:	b570      	push	{r4, r5, r6, lr}
    500a:	4605      	mov	r5, r0
    500c:	b08a      	sub	sp, #40	; 0x28
    500e:	460e      	mov	r6, r1
    5010:	b300      	cbz	r0, 5054 <netconn_gethostbyname+0x4c>
    5012:	b1f9      	cbz	r1, 5054 <netconn_gethostbyname+0x4c>
    5014:	a806      	add	r0, sp, #24
    5016:	2100      	movs	r1, #0
    5018:	f7ff fd3e 	bl	4a98 <sys_sem_new>
    501c:	4604      	mov	r4, r0
    501e:	f88d 0007 	strb.w	r0, [sp, #7]
    5022:	b9a0      	cbnz	r0, 504e <netconn_gethostbyname+0x46>
    5024:	f10d 0307 	add.w	r3, sp, #7
    5028:	2201      	movs	r2, #1
    502a:	a902      	add	r1, sp, #8
    502c:	9502      	str	r5, [sp, #8]
    502e:	480a      	ldr	r0, [pc, #40]	; (5058 <netconn_gethostbyname+0x50>)
    5030:	ad06      	add	r5, sp, #24
    5032:	9305      	str	r3, [sp, #20]
    5034:	9603      	str	r6, [sp, #12]
    5036:	9504      	str	r5, [sp, #16]
    5038:	f7fb ffb0 	bl	f9c <tcpip_callback_with_block>
    503c:	4621      	mov	r1, r4
    503e:	a806      	add	r0, sp, #24
    5040:	f7ff fd46 	bl	4ad0 <sys_arch_sem_wait>
    5044:	a806      	add	r0, sp, #24
    5046:	f7ff fd6b 	bl	4b20 <sys_sem_free>
    504a:	f89d 0007 	ldrb.w	r0, [sp, #7]
    504e:	b240      	sxtb	r0, r0
    5050:	b00a      	add	sp, #40	; 0x28
    5052:	bd70      	pop	{r4, r5, r6, pc}
    5054:	20f2      	movs	r0, #242	; 0xf2
    5056:	e7fa      	b.n	504e <netconn_gethostbyname+0x46>
    5058:	00005a69 	.word	0x00005a69

0000505c <do_dns_found>:
    505c:	68d3      	ldr	r3, [r2, #12]
    505e:	b139      	cbz	r1, 5070 <do_dns_found+0x14>
    5060:	2000      	movs	r0, #0
    5062:	7018      	strb	r0, [r3, #0]
    5064:	6809      	ldr	r1, [r1, #0]
    5066:	6853      	ldr	r3, [r2, #4]
    5068:	6890      	ldr	r0, [r2, #8]
    506a:	6019      	str	r1, [r3, #0]
    506c:	f7ff bd4e 	b.w	4b0c <sys_sem_signal>
    5070:	21fa      	movs	r1, #250	; 0xfa
    5072:	7019      	strb	r1, [r3, #0]
    5074:	6890      	ldr	r0, [r2, #8]
    5076:	f7ff bd49 	b.w	4b0c <sys_sem_signal>
    507a:	bf00      	nop

0000507c <recv_udp>:
    507c:	e92d 41f0 	stmdb	sp!, {r4, r5, r6, r7, r8, lr}
    5080:	4605      	mov	r5, r0
    5082:	4616      	mov	r6, r2
    5084:	461f      	mov	r7, r3
    5086:	f8bd 8018 	ldrh.w	r8, [sp, #24]
    508a:	b1e8      	cbz	r0, 50c8 <recv_udp+0x4c>
    508c:	69c3      	ldr	r3, [r0, #28]
    508e:	b1db      	cbz	r3, 50c8 <recv_udp+0x4c>
    5090:	2006      	movs	r0, #6
    5092:	f7fc f9c3 	bl	141c <memp_malloc>
    5096:	4604      	mov	r4, r0
    5098:	b1b0      	cbz	r0, 50c8 <recv_udp+0x4c>
    509a:	6006      	str	r6, [r0, #0]
    509c:	6046      	str	r6, [r0, #4]
    509e:	b107      	cbz	r7, 50a2 <recv_udp+0x26>
    50a0:	683f      	ldr	r7, [r7, #0]
    50a2:	4621      	mov	r1, r4
    50a4:	60a7      	str	r7, [r4, #8]
    50a6:	f8a4 800c 	strh.w	r8, [r4, #12]
    50aa:	f105 001c 	add.w	r0, r5, #28
    50ae:	8936      	ldrh	r6, [r6, #8]
    50b0:	f7ff fcae 	bl	4a10 <sys_mbox_trypost>
    50b4:	4601      	mov	r1, r0
    50b6:	b960      	cbnz	r0, 50d2 <recv_udp+0x56>
    50b8:	f8d5 30a8 	ldr.w	r3, [r5, #168]	; 0xa8
    50bc:	b113      	cbz	r3, 50c4 <recv_udp+0x48>
    50be:	4628      	mov	r0, r5
    50c0:	4632      	mov	r2, r6
    50c2:	4798      	blx	r3
    50c4:	e8bd 81f0 	ldmia.w	sp!, {r4, r5, r6, r7, r8, pc}
    50c8:	4630      	mov	r0, r6
    50ca:	e8bd 41f0 	ldmia.w	sp!, {r4, r5, r6, r7, r8, lr}
    50ce:	f7fc bb25 	b.w	171c <pbuf_free>
    50d2:	4620      	mov	r0, r4
    50d4:	e8bd 41f0 	ldmia.w	sp!, {r4, r5, r6, r7, r8, lr}
    50d8:	f000 bcdc 	b.w	5a94 <netbuf_delete>

000050dc <setup_tcp>:
    50dc:	b510      	push	{r4, lr}
    50de:	6844      	ldr	r4, [r0, #4]
    50e0:	4601      	mov	r1, r0
    50e2:	4620      	mov	r0, r4
    50e4:	f7fc fd48 	bl	1b78 <tcp_arg>
    50e8:	4620      	mov	r0, r4
    50ea:	4909      	ldr	r1, [pc, #36]	; (5110 <setup_tcp+0x34>)
    50ec:	f7fc fd46 	bl	1b7c <tcp_recv>
    50f0:	4620      	mov	r0, r4
    50f2:	4908      	ldr	r1, [pc, #32]	; (5114 <setup_tcp+0x38>)
    50f4:	f7fc fd46 	bl	1b84 <tcp_sent>
    50f8:	4620      	mov	r0, r4
    50fa:	4907      	ldr	r1, [pc, #28]	; (5118 <setup_tcp+0x3c>)
    50fc:	2204      	movs	r2, #4
    50fe:	f7fc fd4b 	bl	1b98 <tcp_poll>
    5102:	4620      	mov	r0, r4
    5104:	4905      	ldr	r1, [pc, #20]	; (511c <setup_tcp+0x40>)
    5106:	e8bd 4010 	ldmia.w	sp!, {r4, lr}
    510a:	f7fc bd3f 	b.w	1b8c <tcp_err>
    510e:	bf00      	nop
    5110:	00005509 	.word	0x00005509
    5114:	000054ad 	.word	0x000054ad
    5118:	00005455 	.word	0x00005455
    511c:	00005121 	.word	0x00005121

00005120 <err_tcp>:
    5120:	b5f8      	push	{r3, r4, r5, r6, r7, lr}
    5122:	2500      	movs	r5, #0
    5124:	4604      	mov	r4, r0
    5126:	460f      	mov	r7, r1
    5128:	6045      	str	r5, [r0, #4]
    512a:	f7ff fd4b 	bl	4bc4 <sys_arch_protect>
    512e:	7227      	strb	r7, [r4, #8]
    5130:	f7ff fd5a 	bl	4be8 <sys_arch_unprotect>
    5134:	f8d4 30a8 	ldr.w	r3, [r4, #168]	; 0xa8
    5138:	7866      	ldrb	r6, [r4, #1]
    513a:	7065      	strb	r5, [r4, #1]
    513c:	b18b      	cbz	r3, 5162 <err_tcp+0x42>
    513e:	4620      	mov	r0, r4
    5140:	2104      	movs	r1, #4
    5142:	462a      	mov	r2, r5
    5144:	4798      	blx	r3
    5146:	f8d4 30a8 	ldr.w	r3, [r4, #168]	; 0xa8
    514a:	b153      	cbz	r3, 5162 <err_tcp+0x42>
    514c:	4620      	mov	r0, r4
    514e:	4629      	mov	r1, r5
    5150:	462a      	mov	r2, r5
    5152:	4798      	blx	r3
    5154:	f8d4 30a8 	ldr.w	r3, [r4, #168]	; 0xa8
    5158:	b11b      	cbz	r3, 5162 <err_tcp+0x42>
    515a:	462a      	mov	r2, r5
    515c:	4620      	mov	r0, r4
    515e:	2102      	movs	r1, #2
    5160:	4798      	blx	r3
    5162:	69e3      	ldr	r3, [r4, #28]
    5164:	b123      	cbz	r3, 5170 <err_tcp+0x50>
    5166:	f104 001c 	add.w	r0, r4, #28
    516a:	2100      	movs	r1, #0
    516c:	f7ff fc50 	bl	4a10 <sys_mbox_trypost>
    5170:	6da3      	ldr	r3, [r4, #88]	; 0x58
    5172:	b123      	cbz	r3, 517e <err_tcp+0x5e>
    5174:	f104 0058 	add.w	r0, r4, #88	; 0x58
    5178:	2100      	movs	r1, #0
    517a:	f7ff fc49 	bl	4a10 <sys_mbox_trypost>
    517e:	2e01      	cmp	r6, #1
    5180:	d003      	beq.n	518a <err_tcp+0x6a>
    5182:	3e03      	subs	r6, #3
    5184:	2e01      	cmp	r6, #1
    5186:	d900      	bls.n	518a <err_tcp+0x6a>
    5188:	bdf8      	pop	{r3, r4, r5, r6, r7, pc}
    518a:	f894 309c 	ldrb.w	r3, [r4, #156]	; 0x9c
    518e:	f023 0204 	bic.w	r2, r3, #4
    5192:	f003 0304 	and.w	r3, r3, #4
    5196:	f884 209c 	strb.w	r2, [r4, #156]	; 0x9c
    519a:	f003 02ff 	and.w	r2, r3, #255	; 0xff
    519e:	2b00      	cmp	r3, #0
    51a0:	d1f2      	bne.n	5188 <err_tcp+0x68>
    51a2:	f8d4 30a4 	ldr.w	r3, [r4, #164]	; 0xa4
    51a6:	f104 000c 	add.w	r0, r4, #12
    51aa:	711f      	strb	r7, [r3, #4]
    51ac:	f8c4 20a4 	str.w	r2, [r4, #164]	; 0xa4
    51b0:	e8bd 40f8 	ldmia.w	sp!, {r3, r4, r5, r6, r7, lr}
    51b4:	f7ff bcaa 	b.w	4b0c <sys_sem_signal>

000051b8 <do_connected>:
    51b8:	b538      	push	{r3, r4, r5, lr}
    51ba:	4604      	mov	r4, r0
    51bc:	2800      	cmp	r0, #0
    51be:	d037      	beq.n	5230 <do_connected+0x78>
    51c0:	f8d0 30a4 	ldr.w	r3, [r0, #164]	; 0xa4
    51c4:	b103      	cbz	r3, 51c8 <do_connected+0x10>
    51c6:	711a      	strb	r2, [r3, #4]
    51c8:	7823      	ldrb	r3, [r4, #0]
    51ca:	2b10      	cmp	r3, #16
    51cc:	d02a      	beq.n	5224 <do_connected+0x6c>
    51ce:	f894 209c 	ldrb.w	r2, [r4, #156]	; 0x9c
    51d2:	2300      	movs	r3, #0
    51d4:	f082 0504 	eor.w	r5, r2, #4
    51d8:	f3c5 0580 	ubfx	r5, r5, #2, #1
    51dc:	f022 0204 	bic.w	r2, r2, #4
    51e0:	f884 209c 	strb.w	r2, [r4, #156]	; 0x9c
    51e4:	f8c4 30a4 	str.w	r3, [r4, #164]	; 0xa4
    51e8:	7063      	strb	r3, [r4, #1]
    51ea:	b18d      	cbz	r5, 5210 <do_connected+0x58>
    51ec:	f8d4 30a8 	ldr.w	r3, [r4, #168]	; 0xa8
    51f0:	b11b      	cbz	r3, 51fa <do_connected+0x42>
    51f2:	4620      	mov	r0, r4
    51f4:	2102      	movs	r1, #2
    51f6:	2200      	movs	r2, #0
    51f8:	4798      	blx	r3
    51fa:	b915      	cbnz	r5, 5202 <do_connected+0x4a>
    51fc:	4628      	mov	r0, r5
    51fe:	b240      	sxtb	r0, r0
    5200:	bd38      	pop	{r3, r4, r5, pc}
    5202:	f104 000c 	add.w	r0, r4, #12
    5206:	f7ff fc81 	bl	4b0c <sys_sem_signal>
    520a:	2000      	movs	r0, #0
    520c:	b240      	sxtb	r0, r0
    520e:	bd38      	pop	{r3, r4, r5, pc}
    5210:	f7ff fcd8 	bl	4bc4 <sys_arch_protect>
    5214:	f994 3008 	ldrsb.w	r3, [r4, #8]
    5218:	3309      	adds	r3, #9
    521a:	bfa8      	it	ge
    521c:	7225      	strbge	r5, [r4, #8]
    521e:	f7ff fce3 	bl	4be8 <sys_arch_unprotect>
    5222:	e7e3      	b.n	51ec <do_connected+0x34>
    5224:	2a00      	cmp	r2, #0
    5226:	d1d2      	bne.n	51ce <do_connected+0x16>
    5228:	4620      	mov	r0, r4
    522a:	f7ff ff57 	bl	50dc <setup_tcp>
    522e:	e7ce      	b.n	51ce <do_connected+0x16>
    5230:	20fa      	movs	r0, #250	; 0xfa
    5232:	e7e4      	b.n	51fe <do_connected+0x46>

00005234 <do_writemore>:
    5234:	b5f8      	push	{r3, r4, r5, r6, r7, lr}
    5236:	f8d0 20a4 	ldr.w	r2, [r0, #164]	; 0xa4
    523a:	f890 709c 	ldrb.w	r7, [r0, #156]	; 0x9c
    523e:	68d6      	ldr	r6, [r2, #12]
    5240:	07b9      	lsls	r1, r7, #30
    5242:	f8d0 10a0 	ldr.w	r1, [r0, #160]	; 0xa0
    5246:	bf54      	ite	pl
    5248:	7c13      	ldrbpl	r3, [r2, #16]
    524a:	7c13      	ldrbmi	r3, [r2, #16]
    524c:	4604      	mov	r4, r0
    524e:	6892      	ldr	r2, [r2, #8]
    5250:	6840      	ldr	r0, [r0, #4]
    5252:	ebc1 0506 	rsb	r5, r1, r6
    5256:	bf54      	ite	pl
    5258:	f3c3 0e80 	ubfxpl	lr, r3, #2, #1
    525c:	f04f 0e01 	movmi.w	lr, #1
    5260:	4411      	add	r1, r2
    5262:	f5b5 3f80 	cmp.w	r5, #65536	; 0x10000
    5266:	f8b0 206e 	ldrh.w	r2, [r0, #110]	; 0x6e
    526a:	bf2a      	itet	cs
    526c:	f64f 75ff 	movwcs	r5, #65535	; 0xffff
    5270:	b2ad      	uxthcc	r5, r5
    5272:	f043 0302 	orrcs.w	r3, r3, #2
    5276:	4295      	cmp	r5, r2
    5278:	bf84      	itt	hi
    527a:	f043 0302 	orrhi.w	r3, r3, #2
    527e:	4615      	movhi	r5, r2
    5280:	f1be 0f00 	cmp.w	lr, #0
    5284:	d00f      	beq.n	52a6 <do_writemore+0x72>
    5286:	42ae      	cmp	r6, r5
    5288:	d922      	bls.n	52d0 <do_writemore+0x9c>
    528a:	f8d4 30a8 	ldr.w	r3, [r4, #168]	; 0xa8
    528e:	f047 0710 	orr.w	r7, r7, #16
    5292:	f884 709c 	strb.w	r7, [r4, #156]	; 0x9c
    5296:	2b00      	cmp	r3, #0
    5298:	d04c      	beq.n	5334 <do_writemore+0x100>
    529a:	462a      	mov	r2, r5
    529c:	4620      	mov	r0, r4
    529e:	2103      	movs	r1, #3
    52a0:	4798      	blx	r3
    52a2:	26f9      	movs	r6, #249	; 0xf9
    52a4:	e007      	b.n	52b6 <do_writemore+0x82>
    52a6:	462a      	mov	r2, r5
    52a8:	f7fd f978 	bl	259c <tcp_write>
    52ac:	4606      	mov	r6, r0
    52ae:	1c73      	adds	r3, r6, #1
    52b0:	b2db      	uxtb	r3, r3
    52b2:	2b01      	cmp	r3, #1
    52b4:	d915      	bls.n	52e2 <do_writemore+0xae>
    52b6:	f8d4 20a4 	ldr.w	r2, [r4, #164]	; 0xa4
    52ba:	2300      	movs	r3, #0
    52bc:	7116      	strb	r6, [r2, #4]
    52be:	f104 000c 	add.w	r0, r4, #12
    52c2:	f8c4 30a4 	str.w	r3, [r4, #164]	; 0xa4
    52c6:	7063      	strb	r3, [r4, #1]
    52c8:	f7ff fc20 	bl	4b0c <sys_sem_signal>
    52cc:	2000      	movs	r0, #0
    52ce:	bdf8      	pop	{r3, r4, r5, r6, r7, pc}
    52d0:	462a      	mov	r2, r5
    52d2:	f7fd f963 	bl	259c <tcp_write>
    52d6:	1c43      	adds	r3, r0, #1
    52d8:	4606      	mov	r6, r0
    52da:	d1e8      	bne.n	52ae <do_writemore+0x7a>
    52dc:	f894 709c 	ldrb.w	r7, [r4, #156]	; 0x9c
    52e0:	e7d3      	b.n	528a <do_writemore+0x56>
    52e2:	6863      	ldr	r3, [r4, #4]
    52e4:	f240 52b4 	movw	r2, #1460	; 0x5b4
    52e8:	f8b3 106e 	ldrh.w	r1, [r3, #110]	; 0x6e
    52ec:	4291      	cmp	r1, r2
    52ee:	d816      	bhi.n	531e <do_writemore+0xea>
    52f0:	f8d4 30a8 	ldr.w	r3, [r4, #168]	; 0xa8
    52f4:	b11b      	cbz	r3, 52fe <do_writemore+0xca>
    52f6:	4620      	mov	r0, r4
    52f8:	2103      	movs	r1, #3
    52fa:	462a      	mov	r2, r5
    52fc:	4798      	blx	r3
    52fe:	b9de      	cbnz	r6, 5338 <do_writemore+0x104>
    5300:	f8d4 20a0 	ldr.w	r2, [r4, #160]	; 0xa0
    5304:	f8d4 30a4 	ldr.w	r3, [r4, #164]	; 0xa4
    5308:	4415      	add	r5, r2
    530a:	f8c4 50a0 	str.w	r5, [r4, #160]	; 0xa0
    530e:	68db      	ldr	r3, [r3, #12]
    5310:	429d      	cmp	r5, r3
    5312:	d009      	beq.n	5328 <do_writemore+0xf4>
    5314:	6860      	ldr	r0, [r4, #4]
    5316:	f7fd fb93 	bl	2a40 <tcp_output>
    531a:	2000      	movs	r0, #0
    531c:	bdf8      	pop	{r3, r4, r5, r6, r7, pc}
    531e:	f8b3 3070 	ldrh.w	r3, [r3, #112]	; 0x70
    5322:	2b01      	cmp	r3, #1
    5324:	d8e4      	bhi.n	52f0 <do_writemore+0xbc>
    5326:	e7ea      	b.n	52fe <do_writemore+0xca>
    5328:	f8c4 60a0 	str.w	r6, [r4, #160]	; 0xa0
    532c:	6860      	ldr	r0, [r4, #4]
    532e:	f7fd fb87 	bl	2a40 <tcp_output>
    5332:	e7c0      	b.n	52b6 <do_writemore+0x82>
    5334:	26f9      	movs	r6, #249	; 0xf9
    5336:	e7be      	b.n	52b6 <do_writemore+0x82>
    5338:	b273      	sxtb	r3, r6
    533a:	3301      	adds	r3, #1
    533c:	d0ea      	beq.n	5314 <do_writemore+0xe0>
    533e:	e7ba      	b.n	52b6 <do_writemore+0x82>

00005340 <do_close_internal>:
    5340:	b5f8      	push	{r3, r4, r5, r6, r7, lr}
    5342:	f8d0 30a4 	ldr.w	r3, [r0, #164]	; 0xa4
    5346:	4604      	mov	r4, r0
    5348:	7a19      	ldrb	r1, [r3, #8]
    534a:	1ecb      	subs	r3, r1, #3
    534c:	425d      	negs	r5, r3
    534e:	f001 0602 	and.w	r6, r1, #2
    5352:	415d      	adcs	r5, r3
    5354:	b2f6      	uxtb	r6, r6
    5356:	f001 0701 	and.w	r7, r1, #1
    535a:	2d00      	cmp	r5, #0
    535c:	d166      	bne.n	542c <do_close_internal+0xec>
    535e:	6860      	ldr	r0, [r4, #4]
    5360:	7c03      	ldrb	r3, [r0, #16]
    5362:	2b01      	cmp	r3, #1
    5364:	d06a      	beq.n	543c <do_close_internal+0xfc>
    5366:	2f00      	cmp	r7, #0
    5368:	d155      	bne.n	5416 <do_close_internal+0xd6>
    536a:	bb66      	cbnz	r6, 53c6 <do_close_internal+0x86>
    536c:	2d00      	cmp	r5, #0
    536e:	d130      	bne.n	53d2 <do_close_internal+0x92>
    5370:	4639      	mov	r1, r7
    5372:	4632      	mov	r2, r6
    5374:	f7fc fede 	bl	2134 <tcp_shutdown>
    5378:	2800      	cmp	r0, #0
    537a:	d139      	bne.n	53f0 <do_close_internal+0xb0>
    537c:	f8d4 30a4 	ldr.w	r3, [r4, #164]	; 0xa4
    5380:	7118      	strb	r0, [r3, #4]
    5382:	f8c4 00a4 	str.w	r0, [r4, #164]	; 0xa4
    5386:	7060      	strb	r0, [r4, #1]
    5388:	6060      	str	r0, [r4, #4]
    538a:	b135      	cbz	r5, 539a <do_close_internal+0x5a>
    538c:	f8d4 30a8 	ldr.w	r3, [r4, #168]	; 0xa8
    5390:	b11b      	cbz	r3, 539a <do_close_internal+0x5a>
    5392:	4602      	mov	r2, r0
    5394:	2104      	movs	r1, #4
    5396:	4620      	mov	r0, r4
    5398:	4798      	blx	r3
    539a:	b137      	cbz	r7, 53aa <do_close_internal+0x6a>
    539c:	f8d4 30a8 	ldr.w	r3, [r4, #168]	; 0xa8
    53a0:	b11b      	cbz	r3, 53aa <do_close_internal+0x6a>
    53a2:	2100      	movs	r1, #0
    53a4:	460a      	mov	r2, r1
    53a6:	4620      	mov	r0, r4
    53a8:	4798      	blx	r3
    53aa:	b136      	cbz	r6, 53ba <do_close_internal+0x7a>
    53ac:	f8d4 30a8 	ldr.w	r3, [r4, #168]	; 0xa8
    53b0:	b11b      	cbz	r3, 53ba <do_close_internal+0x7a>
    53b2:	4620      	mov	r0, r4
    53b4:	2102      	movs	r1, #2
    53b6:	2200      	movs	r2, #0
    53b8:	4798      	blx	r3
    53ba:	f104 000c 	add.w	r0, r4, #12
    53be:	e8bd 40f8 	ldmia.w	sp!, {r3, r4, r5, r6, r7, lr}
    53c2:	f7ff bba3 	b.w	4b0c <sys_sem_signal>
    53c6:	2100      	movs	r1, #0
    53c8:	f7fc fbdc 	bl	1b84 <tcp_sent>
    53cc:	6860      	ldr	r0, [r4, #4]
    53ce:	2d00      	cmp	r5, #0
    53d0:	d0ce      	beq.n	5370 <do_close_internal+0x30>
    53d2:	2100      	movs	r1, #0
    53d4:	2204      	movs	r2, #4
    53d6:	f7fc fbdf 	bl	1b98 <tcp_poll>
    53da:	6860      	ldr	r0, [r4, #4]
    53dc:	2100      	movs	r1, #0
    53de:	f7fc fbd5 	bl	1b8c <tcp_err>
    53e2:	6860      	ldr	r0, [r4, #4]
    53e4:	2d00      	cmp	r5, #0
    53e6:	d0c3      	beq.n	5370 <do_close_internal+0x30>
    53e8:	f7fc fe3e 	bl	2068 <tcp_close>
    53ec:	2800      	cmp	r0, #0
    53ee:	d0c5      	beq.n	537c <do_close_internal+0x3c>
    53f0:	6860      	ldr	r0, [r4, #4]
    53f2:	4915      	ldr	r1, [pc, #84]	; (5448 <do_close_internal+0x108>)
    53f4:	f7fc fbc6 	bl	1b84 <tcp_sent>
    53f8:	6860      	ldr	r0, [r4, #4]
    53fa:	4914      	ldr	r1, [pc, #80]	; (544c <do_close_internal+0x10c>)
    53fc:	2204      	movs	r2, #4
    53fe:	f7fc fbcb 	bl	1b98 <tcp_poll>
    5402:	6860      	ldr	r0, [r4, #4]
    5404:	4912      	ldr	r1, [pc, #72]	; (5450 <do_close_internal+0x110>)
    5406:	f7fc fbc1 	bl	1b8c <tcp_err>
    540a:	6860      	ldr	r0, [r4, #4]
    540c:	4621      	mov	r1, r4
    540e:	e8bd 40f8 	ldmia.w	sp!, {r3, r4, r5, r6, r7, lr}
    5412:	f7fc bbb1 	b.w	1b78 <tcp_arg>
    5416:	2100      	movs	r1, #0
    5418:	f7fc fbb0 	bl	1b7c <tcp_recv>
    541c:	6860      	ldr	r0, [r4, #4]
    541e:	2100      	movs	r1, #0
    5420:	f7fc fbb8 	bl	1b94 <tcp_accept>
    5424:	6860      	ldr	r0, [r4, #4]
    5426:	2e00      	cmp	r6, #0
    5428:	d0a0      	beq.n	536c <do_close_internal+0x2c>
    542a:	e7cc      	b.n	53c6 <do_close_internal+0x86>
    542c:	6840      	ldr	r0, [r0, #4]
    542e:	2100      	movs	r1, #0
    5430:	f7fc fba2 	bl	1b78 <tcp_arg>
    5434:	6860      	ldr	r0, [r4, #4]
    5436:	7c03      	ldrb	r3, [r0, #16]
    5438:	2b01      	cmp	r3, #1
    543a:	d194      	bne.n	5366 <do_close_internal+0x26>
    543c:	2100      	movs	r1, #0
    543e:	f7fc fba9 	bl	1b94 <tcp_accept>
    5442:	6860      	ldr	r0, [r4, #4]
    5444:	e7ce      	b.n	53e4 <do_close_internal+0xa4>
    5446:	bf00      	nop
    5448:	000054ad 	.word	0x000054ad
    544c:	00005455 	.word	0x00005455
    5450:	00005121 	.word	0x00005121

00005454 <poll_tcp>:
    5454:	b538      	push	{r3, r4, r5, lr}
    5456:	7843      	ldrb	r3, [r0, #1]
    5458:	4604      	mov	r4, r0
    545a:	2b01      	cmp	r3, #1
    545c:	d020      	beq.n	54a0 <poll_tcp+0x4c>
    545e:	2b04      	cmp	r3, #4
    5460:	d021      	beq.n	54a6 <poll_tcp+0x52>
    5462:	f894 309c 	ldrb.w	r3, [r4, #156]	; 0x9c
    5466:	06da      	lsls	r2, r3, #27
    5468:	d50b      	bpl.n	5482 <poll_tcp+0x2e>
    546a:	6862      	ldr	r2, [r4, #4]
    546c:	b14a      	cbz	r2, 5482 <poll_tcp+0x2e>
    546e:	f8b2 006e 	ldrh.w	r0, [r2, #110]	; 0x6e
    5472:	f240 51b4 	movw	r1, #1460	; 0x5b4
    5476:	4288      	cmp	r0, r1
    5478:	d903      	bls.n	5482 <poll_tcp+0x2e>
    547a:	f8b2 2070 	ldrh.w	r2, [r2, #112]	; 0x70
    547e:	2a01      	cmp	r2, #1
    5480:	d901      	bls.n	5486 <poll_tcp+0x32>
    5482:	2000      	movs	r0, #0
    5484:	bd38      	pop	{r3, r4, r5, pc}
    5486:	f8d4 50a8 	ldr.w	r5, [r4, #168]	; 0xa8
    548a:	f023 0310 	bic.w	r3, r3, #16
    548e:	f884 309c 	strb.w	r3, [r4, #156]	; 0x9c
    5492:	2d00      	cmp	r5, #0
    5494:	d0f5      	beq.n	5482 <poll_tcp+0x2e>
    5496:	4620      	mov	r0, r4
    5498:	2102      	movs	r1, #2
    549a:	2200      	movs	r2, #0
    549c:	47a8      	blx	r5
    549e:	e7f0      	b.n	5482 <poll_tcp+0x2e>
    54a0:	f7ff fec8 	bl	5234 <do_writemore>
    54a4:	e7dd      	b.n	5462 <poll_tcp+0xe>
    54a6:	f7ff ff4b 	bl	5340 <do_close_internal>
    54aa:	e7da      	b.n	5462 <poll_tcp+0xe>

000054ac <sent_tcp>:
    54ac:	b538      	push	{r3, r4, r5, lr}
    54ae:	7843      	ldrb	r3, [r0, #1]
    54b0:	4604      	mov	r4, r0
    54b2:	2b01      	cmp	r3, #1
    54b4:	4615      	mov	r5, r2
    54b6:	d023      	beq.n	5500 <sent_tcp+0x54>
    54b8:	2b04      	cmp	r3, #4
    54ba:	d01e      	beq.n	54fa <sent_tcp+0x4e>
    54bc:	b15c      	cbz	r4, 54d6 <sent_tcp+0x2a>
    54be:	6863      	ldr	r3, [r4, #4]
    54c0:	b14b      	cbz	r3, 54d6 <sent_tcp+0x2a>
    54c2:	f8b3 006e 	ldrh.w	r0, [r3, #110]	; 0x6e
    54c6:	f240 51b4 	movw	r1, #1460	; 0x5b4
    54ca:	4288      	cmp	r0, r1
    54cc:	d903      	bls.n	54d6 <sent_tcp+0x2a>
    54ce:	f8b3 3070 	ldrh.w	r3, [r3, #112]	; 0x70
    54d2:	2b01      	cmp	r3, #1
    54d4:	d901      	bls.n	54da <sent_tcp+0x2e>
    54d6:	2000      	movs	r0, #0
    54d8:	bd38      	pop	{r3, r4, r5, pc}
    54da:	f894 209c 	ldrb.w	r2, [r4, #156]	; 0x9c
    54de:	f8d4 30a8 	ldr.w	r3, [r4, #168]	; 0xa8
    54e2:	f022 0210 	bic.w	r2, r2, #16
    54e6:	f884 209c 	strb.w	r2, [r4, #156]	; 0x9c
    54ea:	2b00      	cmp	r3, #0
    54ec:	d0f3      	beq.n	54d6 <sent_tcp+0x2a>
    54ee:	4620      	mov	r0, r4
    54f0:	462a      	mov	r2, r5
    54f2:	2102      	movs	r1, #2
    54f4:	4798      	blx	r3
    54f6:	2000      	movs	r0, #0
    54f8:	bd38      	pop	{r3, r4, r5, pc}
    54fa:	f7ff ff21 	bl	5340 <do_close_internal>
    54fe:	e7dd      	b.n	54bc <sent_tcp+0x10>
    5500:	f7ff fe98 	bl	5234 <do_writemore>
    5504:	e7da      	b.n	54bc <sent_tcp+0x10>
    5506:	bf00      	nop

00005508 <recv_tcp>:
    5508:	b5f8      	push	{r3, r4, r5, r6, r7, lr}
    550a:	4604      	mov	r4, r0
    550c:	4615      	mov	r5, r2
    550e:	461f      	mov	r7, r3
    5510:	2800      	cmp	r0, #0
    5512:	d02e      	beq.n	5572 <recv_tcp+0x6a>
    5514:	69c6      	ldr	r6, [r0, #28]
    5516:	b1d6      	cbz	r6, 554e <recv_tcp+0x46>
    5518:	f7ff fb54 	bl	4bc4 <sys_arch_protect>
    551c:	f994 2008 	ldrsb.w	r2, [r4, #8]
    5520:	3209      	adds	r2, #9
    5522:	bfa8      	it	ge
    5524:	7227      	strbge	r7, [r4, #8]
    5526:	f7ff fb5f 	bl	4be8 <sys_arch_unprotect>
    552a:	b1f5      	cbz	r5, 556a <recv_tcp+0x62>
    552c:	892e      	ldrh	r6, [r5, #8]
    552e:	4629      	mov	r1, r5
    5530:	f104 001c 	add.w	r0, r4, #28
    5534:	f7ff fa6c 	bl	4a10 <sys_mbox_trypost>
    5538:	4605      	mov	r5, r0
    553a:	b9c0      	cbnz	r0, 556e <recv_tcp+0x66>
    553c:	f8d4 30a8 	ldr.w	r3, [r4, #168]	; 0xa8
    5540:	b183      	cbz	r3, 5564 <recv_tcp+0x5c>
    5542:	4620      	mov	r0, r4
    5544:	4632      	mov	r2, r6
    5546:	4629      	mov	r1, r5
    5548:	4798      	blx	r3
    554a:	b268      	sxtb	r0, r5
    554c:	bdf8      	pop	{r3, r4, r5, r6, r7, pc}
    554e:	b14a      	cbz	r2, 5564 <recv_tcp+0x5c>
    5550:	4608      	mov	r0, r1
    5552:	8911      	ldrh	r1, [r2, #8]
    5554:	f7fc fada 	bl	1b0c <tcp_recved>
    5558:	4628      	mov	r0, r5
    555a:	4635      	mov	r5, r6
    555c:	f7fc f8de 	bl	171c <pbuf_free>
    5560:	b268      	sxtb	r0, r5
    5562:	bdf8      	pop	{r3, r4, r5, r6, r7, pc}
    5564:	2500      	movs	r5, #0
    5566:	b268      	sxtb	r0, r5
    5568:	bdf8      	pop	{r3, r4, r5, r6, r7, pc}
    556a:	462e      	mov	r6, r5
    556c:	e7df      	b.n	552e <recv_tcp+0x26>
    556e:	25ff      	movs	r5, #255	; 0xff
    5570:	e7eb      	b.n	554a <recv_tcp+0x42>
    5572:	25fa      	movs	r5, #250	; 0xfa
    5574:	e7e9      	b.n	554a <recv_tcp+0x42>
    5576:	bf00      	nop

00005578 <do_newconn>:
    5578:	b538      	push	{r3, r4, r5, lr}
    557a:	2300      	movs	r3, #0
    557c:	6804      	ldr	r4, [r0, #0]
    557e:	7103      	strb	r3, [r0, #4]
    5580:	6863      	ldr	r3, [r4, #4]
    5582:	4605      	mov	r5, r0
    5584:	b12b      	cbz	r3, 5592 <do_newconn+0x1a>
    5586:	f104 000c 	add.w	r0, r4, #12
    558a:	e8bd 4038 	ldmia.w	sp!, {r3, r4, r5, lr}
    558e:	f7ff babd 	b.w	4b0c <sys_sem_signal>
    5592:	7823      	ldrb	r3, [r4, #0]
    5594:	f003 03f0 	and.w	r3, r3, #240	; 0xf0
    5598:	2b10      	cmp	r3, #16
    559a:	d017      	beq.n	55cc <do_newconn+0x54>
    559c:	2b20      	cmp	r3, #32
    559e:	d112      	bne.n	55c6 <do_newconn+0x4e>
    55a0:	f002 ff06 	bl	83b0 <udp_new>
    55a4:	6060      	str	r0, [r4, #4]
    55a6:	682c      	ldr	r4, [r5, #0]
    55a8:	6860      	ldr	r0, [r4, #4]
    55aa:	b1d0      	cbz	r0, 55e2 <do_newconn+0x6a>
    55ac:	7823      	ldrb	r3, [r4, #0]
    55ae:	2b22      	cmp	r3, #34	; 0x22
    55b0:	d103      	bne.n	55ba <do_newconn+0x42>
    55b2:	2301      	movs	r3, #1
    55b4:	7403      	strb	r3, [r0, #16]
    55b6:	682c      	ldr	r4, [r5, #0]
    55b8:	6860      	ldr	r0, [r4, #4]
    55ba:	4622      	mov	r2, r4
    55bc:	490a      	ldr	r1, [pc, #40]	; (55e8 <do_newconn+0x70>)
    55be:	f002 fed7 	bl	8370 <udp_recv>
    55c2:	682c      	ldr	r4, [r5, #0]
    55c4:	e7df      	b.n	5586 <do_newconn+0xe>
    55c6:	23fa      	movs	r3, #250	; 0xfa
    55c8:	7103      	strb	r3, [r0, #4]
    55ca:	e7dc      	b.n	5586 <do_newconn+0xe>
    55cc:	f7fc fed4 	bl	2378 <tcp_new>
    55d0:	6060      	str	r0, [r4, #4]
    55d2:	682c      	ldr	r4, [r5, #0]
    55d4:	6863      	ldr	r3, [r4, #4]
    55d6:	b123      	cbz	r3, 55e2 <do_newconn+0x6a>
    55d8:	4620      	mov	r0, r4
    55da:	f7ff fd7f 	bl	50dc <setup_tcp>
    55de:	682c      	ldr	r4, [r5, #0]
    55e0:	e7d1      	b.n	5586 <do_newconn+0xe>
    55e2:	23ff      	movs	r3, #255	; 0xff
    55e4:	712b      	strb	r3, [r5, #4]
    55e6:	e7ce      	b.n	5586 <do_newconn+0xe>
    55e8:	0000507d 	.word	0x0000507d

000055ec <netconn_alloc>:
    55ec:	e92d 41f0 	stmdb	sp!, {r4, r5, r6, r7, r8, lr}
    55f0:	4606      	mov	r6, r0
    55f2:	2007      	movs	r0, #7
    55f4:	4688      	mov	r8, r1
    55f6:	f7fb ff11 	bl	141c <memp_malloc>
    55fa:	4604      	mov	r4, r0
    55fc:	b358      	cbz	r0, 5656 <netconn_alloc+0x6a>
    55fe:	2500      	movs	r5, #0
    5600:	f100 070c 	add.w	r7, r0, #12
    5604:	7006      	strb	r6, [r0, #0]
    5606:	7205      	strb	r5, [r0, #8]
    5608:	6045      	str	r5, [r0, #4]
    560a:	4629      	mov	r1, r5
    560c:	4638      	mov	r0, r7
    560e:	f7ff fa43 	bl	4a98 <sys_sem_new>
    5612:	4606      	mov	r6, r0
    5614:	b9c0      	cbnz	r0, 5648 <netconn_alloc+0x5c>
    5616:	f104 001c 	add.w	r0, r4, #28
    561a:	2108      	movs	r1, #8
    561c:	f7ff f9b2 	bl	4984 <sys_mbox_new>
    5620:	b9d8      	cbnz	r0, 565a <netconn_alloc+0x6e>
    5622:	f04f 32ff 	mov.w	r2, #4294967295	; 0xffffffff
    5626:	f884 009c 	strb.w	r0, [r4, #156]	; 0x9c
    562a:	65a0      	str	r0, [r4, #88]	; 0x58
    562c:	7060      	strb	r0, [r4, #1]
    562e:	f8c4 00a4 	str.w	r0, [r4, #164]	; 0xa4
    5632:	f8c4 00a0 	str.w	r0, [r4, #160]	; 0xa0
    5636:	f8c4 0098 	str.w	r0, [r4, #152]	; 0x98
    563a:	f8c4 80a8 	str.w	r8, [r4, #168]	; 0xa8
    563e:	f8c4 2094 	str.w	r2, [r4, #148]	; 0x94
    5642:	4620      	mov	r0, r4
    5644:	e8bd 81f0 	ldmia.w	sp!, {r4, r5, r6, r7, r8, pc}
    5648:	4621      	mov	r1, r4
    564a:	2007      	movs	r0, #7
    564c:	f7fb fefc 	bl	1448 <memp_free>
    5650:	4628      	mov	r0, r5
    5652:	e8bd 81f0 	ldmia.w	sp!, {r4, r5, r6, r7, r8, pc}
    5656:	e8bd 81f0 	ldmia.w	sp!, {r4, r5, r6, r7, r8, pc}
    565a:	4638      	mov	r0, r7
    565c:	f7ff fa60 	bl	4b20 <sys_sem_free>
    5660:	4621      	mov	r1, r4
    5662:	2007      	movs	r0, #7
    5664:	f7fb fef0 	bl	1448 <memp_free>
    5668:	4630      	mov	r0, r6
    566a:	e8bd 81f0 	ldmia.w	sp!, {r4, r5, r6, r7, r8, pc}
    566e:	bf00      	nop

00005670 <netconn_free>:
    5670:	b510      	push	{r4, lr}
    5672:	4604      	mov	r4, r0
    5674:	300c      	adds	r0, #12
    5676:	f7ff fa53 	bl	4b20 <sys_sem_free>
    567a:	2300      	movs	r3, #0
    567c:	60e3      	str	r3, [r4, #12]
    567e:	4621      	mov	r1, r4
    5680:	2007      	movs	r0, #7
    5682:	e8bd 4010 	ldmia.w	sp!, {r4, lr}
    5686:	f7fb bedf 	b.w	1448 <memp_free>
    568a:	bf00      	nop

0000568c <netconn_drain>:
    568c:	e92d 41f0 	stmdb	sp!, {r4, r5, r6, r7, r8, lr}
    5690:	69c3      	ldr	r3, [r0, #28]
    5692:	b082      	sub	sp, #8
    5694:	4606      	mov	r6, r0
    5696:	b30b      	cbz	r3, 56dc <netconn_drain+0x50>
    5698:	f100 071c 	add.w	r7, r0, #28
    569c:	ad01      	add	r5, sp, #4
    569e:	4638      	mov	r0, r7
    56a0:	4629      	mov	r1, r5
    56a2:	f7ff f9e5 	bl	4a70 <sys_arch_mbox_tryfetch>
    56a6:	3001      	adds	r0, #1
    56a8:	d013      	beq.n	56d2 <netconn_drain+0x46>
    56aa:	7833      	ldrb	r3, [r6, #0]
    56ac:	2b10      	cmp	r3, #16
    56ae:	d10c      	bne.n	56ca <netconn_drain+0x3e>
    56b0:	9c01      	ldr	r4, [sp, #4]
    56b2:	2c00      	cmp	r4, #0
    56b4:	d0f3      	beq.n	569e <netconn_drain+0x12>
    56b6:	6873      	ldr	r3, [r6, #4]
    56b8:	4618      	mov	r0, r3
    56ba:	b113      	cbz	r3, 56c2 <netconn_drain+0x36>
    56bc:	8921      	ldrh	r1, [r4, #8]
    56be:	f7fc fa25 	bl	1b0c <tcp_recved>
    56c2:	4620      	mov	r0, r4
    56c4:	f7fc f82a 	bl	171c <pbuf_free>
    56c8:	e7e9      	b.n	569e <netconn_drain+0x12>
    56ca:	9801      	ldr	r0, [sp, #4]
    56cc:	f000 f9e2 	bl	5a94 <netbuf_delete>
    56d0:	e7e5      	b.n	569e <netconn_drain+0x12>
    56d2:	4638      	mov	r0, r7
    56d4:	f7ff f976 	bl	49c4 <sys_mbox_free>
    56d8:	2300      	movs	r3, #0
    56da:	61f3      	str	r3, [r6, #28]
    56dc:	6db3      	ldr	r3, [r6, #88]	; 0x58
    56de:	b1f3      	cbz	r3, 571e <netconn_drain+0x92>
    56e0:	f106 0758 	add.w	r7, r6, #88	; 0x58
    56e4:	ad01      	add	r5, sp, #4
    56e6:	f04f 0800 	mov.w	r8, #0
    56ea:	e00d      	b.n	5708 <netconn_drain+0x7c>
    56ec:	9c01      	ldr	r4, [sp, #4]
    56ee:	4620      	mov	r0, r4
    56f0:	f7ff ffcc 	bl	568c <netconn_drain>
    56f4:	6863      	ldr	r3, [r4, #4]
    56f6:	4618      	mov	r0, r3
    56f8:	b11b      	cbz	r3, 5702 <netconn_drain+0x76>
    56fa:	f7fc fda1 	bl	2240 <tcp_abort>
    56fe:	f8c4 8004 	str.w	r8, [r4, #4]
    5702:	4620      	mov	r0, r4
    5704:	f7ff ffb4 	bl	5670 <netconn_free>
    5708:	4638      	mov	r0, r7
    570a:	4629      	mov	r1, r5
    570c:	f7ff f9b0 	bl	4a70 <sys_arch_mbox_tryfetch>
    5710:	3001      	adds	r0, #1
    5712:	d1eb      	bne.n	56ec <netconn_drain+0x60>
    5714:	4638      	mov	r0, r7
    5716:	f7ff f955 	bl	49c4 <sys_mbox_free>
    571a:	2300      	movs	r3, #0
    571c:	65b3      	str	r3, [r6, #88]	; 0x58
    571e:	b002      	add	sp, #8
    5720:	e8bd 81f0 	ldmia.w	sp!, {r4, r5, r6, r7, r8, pc}

00005724 <do_delconn>:
    5724:	b538      	push	{r3, r4, r5, lr}
    5726:	6803      	ldr	r3, [r0, #0]
    5728:	4604      	mov	r4, r0
    572a:	785a      	ldrb	r2, [r3, #1]
    572c:	b162      	cbz	r2, 5748 <do_delconn+0x24>
    572e:	3a02      	subs	r2, #2
    5730:	2a01      	cmp	r2, #1
    5732:	d909      	bls.n	5748 <do_delconn+0x24>
    5734:	22fb      	movs	r2, #251	; 0xfb
    5736:	7102      	strb	r2, [r0, #4]
    5738:	68da      	ldr	r2, [r3, #12]
    573a:	b352      	cbz	r2, 5792 <do_delconn+0x6e>
    573c:	f103 000c 	add.w	r0, r3, #12
    5740:	e8bd 4038 	ldmia.w	sp!, {r3, r4, r5, lr}
    5744:	f7ff b9e2 	b.w	4b0c <sys_sem_signal>
    5748:	4618      	mov	r0, r3
    574a:	f7ff ff9f 	bl	568c <netconn_drain>
    574e:	6823      	ldr	r3, [r4, #0]
    5750:	685a      	ldr	r2, [r3, #4]
    5752:	b14a      	cbz	r2, 5768 <do_delconn+0x44>
    5754:	7819      	ldrb	r1, [r3, #0]
    5756:	f001 01f0 	and.w	r1, r1, #240	; 0xf0
    575a:	2910      	cmp	r1, #16
    575c:	d021      	beq.n	57a2 <do_delconn+0x7e>
    575e:	2920      	cmp	r1, #32
    5760:	d018      	beq.n	5794 <do_delconn+0x70>
    5762:	2200      	movs	r2, #0
    5764:	605a      	str	r2, [r3, #4]
    5766:	6823      	ldr	r3, [r4, #0]
    5768:	f8d3 50a8 	ldr.w	r5, [r3, #168]	; 0xa8
    576c:	2d00      	cmp	r5, #0
    576e:	d0e3      	beq.n	5738 <do_delconn+0x14>
    5770:	2100      	movs	r1, #0
    5772:	4618      	mov	r0, r3
    5774:	460a      	mov	r2, r1
    5776:	47a8      	blx	r5
    5778:	6823      	ldr	r3, [r4, #0]
    577a:	f8d3 50a8 	ldr.w	r5, [r3, #168]	; 0xa8
    577e:	2d00      	cmp	r5, #0
    5780:	d0da      	beq.n	5738 <do_delconn+0x14>
    5782:	4618      	mov	r0, r3
    5784:	2200      	movs	r2, #0
    5786:	2102      	movs	r1, #2
    5788:	47a8      	blx	r5
    578a:	6823      	ldr	r3, [r4, #0]
    578c:	68da      	ldr	r2, [r3, #12]
    578e:	2a00      	cmp	r2, #0
    5790:	d1d4      	bne.n	573c <do_delconn+0x18>
    5792:	bd38      	pop	{r3, r4, r5, pc}
    5794:	2100      	movs	r1, #0
    5796:	6211      	str	r1, [r2, #32]
    5798:	6858      	ldr	r0, [r3, #4]
    579a:	f002 fded 	bl	8378 <udp_remove>
    579e:	6823      	ldr	r3, [r4, #0]
    57a0:	e7df      	b.n	5762 <do_delconn+0x3e>
    57a2:	2104      	movs	r1, #4
    57a4:	2203      	movs	r2, #3
    57a6:	7059      	strb	r1, [r3, #1]
    57a8:	7222      	strb	r2, [r4, #8]
    57aa:	4618      	mov	r0, r3
    57ac:	f8c3 40a4 	str.w	r4, [r3, #164]	; 0xa4
    57b0:	e8bd 4038 	ldmia.w	sp!, {r3, r4, r5, lr}
    57b4:	f7ff bdc4 	b.w	5340 <do_close_internal>

000057b8 <do_connect>:
    57b8:	b510      	push	{r4, lr}
    57ba:	6803      	ldr	r3, [r0, #0]
    57bc:	4604      	mov	r4, r0
    57be:	6858      	ldr	r0, [r3, #4]
    57c0:	b320      	cbz	r0, 580c <do_connect+0x54>
    57c2:	781a      	ldrb	r2, [r3, #0]
    57c4:	f002 02f0 	and.w	r2, r2, #240	; 0xf0
    57c8:	2a10      	cmp	r2, #16
    57ca:	d015      	beq.n	57f8 <do_connect+0x40>
    57cc:	2a20      	cmp	r2, #32
    57ce:	d007      	beq.n	57e0 <do_connect+0x28>
    57d0:	22fa      	movs	r2, #250	; 0xfa
    57d2:	7122      	strb	r2, [r4, #4]
    57d4:	f103 000c 	add.w	r0, r3, #12
    57d8:	e8bd 4010 	ldmia.w	sp!, {r4, lr}
    57dc:	f7ff b996 	b.w	4b0c <sys_sem_signal>
    57e0:	68a1      	ldr	r1, [r4, #8]
    57e2:	89a2      	ldrh	r2, [r4, #12]
    57e4:	f002 fd98 	bl	8318 <udp_connect>
    57e8:	6823      	ldr	r3, [r4, #0]
    57ea:	7120      	strb	r0, [r4, #4]
    57ec:	e8bd 4010 	ldmia.w	sp!, {r4, lr}
    57f0:	f103 000c 	add.w	r0, r3, #12
    57f4:	f7ff b98a 	b.w	4b0c <sys_sem_signal>
    57f8:	785a      	ldrb	r2, [r3, #1]
    57fa:	b17a      	cbz	r2, 581c <do_connect+0x64>
    57fc:	22f7      	movs	r2, #247	; 0xf7
    57fe:	7122      	strb	r2, [r4, #4]
    5800:	f103 000c 	add.w	r0, r3, #12
    5804:	e8bd 4010 	ldmia.w	sp!, {r4, lr}
    5808:	f7ff b980 	b.w	4b0c <sys_sem_signal>
    580c:	22f4      	movs	r2, #244	; 0xf4
    580e:	7122      	strb	r2, [r4, #4]
    5810:	f103 000c 	add.w	r0, r3, #12
    5814:	e8bd 4010 	ldmia.w	sp!, {r4, lr}
    5818:	f7ff b978 	b.w	4b0c <sys_sem_signal>
    581c:	4618      	mov	r0, r3
    581e:	f7ff fc5d 	bl	50dc <setup_tcp>
    5822:	6823      	ldr	r3, [r4, #0]
    5824:	68a1      	ldr	r1, [r4, #8]
    5826:	6858      	ldr	r0, [r3, #4]
    5828:	89a2      	ldrh	r2, [r4, #12]
    582a:	4b0e      	ldr	r3, [pc, #56]	; (5864 <do_connect+0xac>)
    582c:	f7fc fdb8 	bl	23a0 <tcp_connect>
    5830:	6823      	ldr	r3, [r4, #0]
    5832:	7120      	strb	r0, [r4, #4]
    5834:	2800      	cmp	r0, #0
    5836:	d1cd      	bne.n	57d4 <do_connect+0x1c>
    5838:	f893 209c 	ldrb.w	r2, [r3, #156]	; 0x9c
    583c:	2103      	movs	r1, #3
    583e:	7059      	strb	r1, [r3, #1]
    5840:	0791      	lsls	r1, r2, #30
    5842:	d507      	bpl.n	5854 <do_connect+0x9c>
    5844:	f042 0204 	orr.w	r2, r2, #4
    5848:	f883 209c 	strb.w	r2, [r3, #156]	; 0x9c
    584c:	22fb      	movs	r2, #251	; 0xfb
    584e:	6823      	ldr	r3, [r4, #0]
    5850:	7122      	strb	r2, [r4, #4]
    5852:	e7bf      	b.n	57d4 <do_connect+0x1c>
    5854:	f022 0204 	bic.w	r2, r2, #4
    5858:	f883 209c 	strb.w	r2, [r3, #156]	; 0x9c
    585c:	6823      	ldr	r3, [r4, #0]
    585e:	f8c3 40a4 	str.w	r4, [r3, #164]	; 0xa4
    5862:	bd10      	pop	{r4, pc}
    5864:	000051b9 	.word	0x000051b9

00005868 <do_send>:
    5868:	b570      	push	{r4, r5, r6, lr}
    586a:	6803      	ldr	r3, [r0, #0]
    586c:	b082      	sub	sp, #8
    586e:	7a1a      	ldrb	r2, [r3, #8]
    5870:	4604      	mov	r4, r0
    5872:	b251      	sxtb	r1, r2
    5874:	3109      	adds	r1, #9
    5876:	db1e      	blt.n	58b6 <do_send+0x4e>
    5878:	22f3      	movs	r2, #243	; 0xf3
    587a:	7102      	strb	r2, [r0, #4]
    587c:	6858      	ldr	r0, [r3, #4]
    587e:	b198      	cbz	r0, 58a8 <do_send+0x40>
    5880:	781a      	ldrb	r2, [r3, #0]
    5882:	f002 02f0 	and.w	r2, r2, #240	; 0xf0
    5886:	2a20      	cmp	r2, #32
    5888:	d10e      	bne.n	58a8 <do_send+0x40>
    588a:	68a5      	ldr	r5, [r4, #8]
    588c:	f115 0208 	adds.w	r2, r5, #8
    5890:	d001      	beq.n	5896 <do_send+0x2e>
    5892:	68ab      	ldr	r3, [r5, #8]
    5894:	b9bb      	cbnz	r3, 58c6 <do_send+0x5e>
    5896:	7baa      	ldrb	r2, [r5, #14]
    5898:	8a2b      	ldrh	r3, [r5, #16]
    589a:	f002 0202 	and.w	r2, r2, #2
    589e:	6829      	ldr	r1, [r5, #0]
    58a0:	f002 fd18 	bl	82d4 <udp_send_chksum>
    58a4:	6823      	ldr	r3, [r4, #0]
    58a6:	7120      	strb	r0, [r4, #4]
    58a8:	f103 000c 	add.w	r0, r3, #12
    58ac:	b002      	add	sp, #8
    58ae:	e8bd 4070 	ldmia.w	sp!, {r4, r5, r6, lr}
    58b2:	f7ff b92b 	b.w	4b0c <sys_sem_signal>
    58b6:	7102      	strb	r2, [r0, #4]
    58b8:	f103 000c 	add.w	r0, r3, #12
    58bc:	b002      	add	sp, #8
    58be:	e8bd 4070 	ldmia.w	sp!, {r4, r5, r6, lr}
    58c2:	f7ff b923 	b.w	4b0c <sys_sem_signal>
    58c6:	7bae      	ldrb	r6, [r5, #14]
    58c8:	6829      	ldr	r1, [r5, #0]
    58ca:	f006 0602 	and.w	r6, r6, #2
    58ce:	89ab      	ldrh	r3, [r5, #12]
    58d0:	9600      	str	r6, [sp, #0]
    58d2:	8a2d      	ldrh	r5, [r5, #16]
    58d4:	9501      	str	r5, [sp, #4]
    58d6:	f002 fcd9 	bl	828c <udp_sendto_chksum>
    58da:	6823      	ldr	r3, [r4, #0]
    58dc:	7120      	strb	r0, [r4, #4]
    58de:	f103 000c 	add.w	r0, r3, #12
    58e2:	b002      	add	sp, #8
    58e4:	e8bd 4070 	ldmia.w	sp!, {r4, r5, r6, lr}
    58e8:	f7ff b910 	b.w	4b0c <sys_sem_signal>

000058ec <do_recv>:
    58ec:	b570      	push	{r4, r5, r6, lr}
    58ee:	2200      	movs	r2, #0
    58f0:	6803      	ldr	r3, [r0, #0]
    58f2:	7102      	strb	r2, [r0, #4]
    58f4:	4606      	mov	r6, r0
    58f6:	6858      	ldr	r0, [r3, #4]
    58f8:	b110      	cbz	r0, 5900 <do_recv+0x14>
    58fa:	781a      	ldrb	r2, [r3, #0]
    58fc:	2a10      	cmp	r2, #16
    58fe:	d005      	beq.n	590c <do_recv+0x20>
    5900:	e8bd 4070 	ldmia.w	sp!, {r4, r5, r6, lr}
    5904:	f103 000c 	add.w	r0, r3, #12
    5908:	f7ff b900 	b.w	4b0c <sys_sem_signal>
    590c:	68b4      	ldr	r4, [r6, #8]
    590e:	e000      	b.n	5912 <do_recv+0x26>
    5910:	6858      	ldr	r0, [r3, #4]
    5912:	f5b4 3f80 	cmp.w	r4, #65536	; 0x10000
    5916:	bf2d      	iteet	cs
    5918:	f64f 75ff 	movwcs	r5, #65535	; 0xffff
    591c:	b2a1      	uxthcc	r1, r4
    591e:	4625      	movcc	r5, r4
    5920:	4629      	movcs	r1, r5
    5922:	f7fc f8f3 	bl	1b0c <tcp_recved>
    5926:	1b64      	subs	r4, r4, r5
    5928:	6833      	ldr	r3, [r6, #0]
    592a:	d1f1      	bne.n	5910 <do_recv+0x24>
    592c:	f103 000c 	add.w	r0, r3, #12
    5930:	e8bd 4070 	ldmia.w	sp!, {r4, r5, r6, lr}
    5934:	f7ff b8ea 	b.w	4b0c <sys_sem_signal>

00005938 <do_write>:
    5938:	6803      	ldr	r3, [r0, #0]
    593a:	7a1a      	ldrb	r2, [r3, #8]
    593c:	b251      	sxtb	r1, r2
    593e:	3109      	adds	r1, #9
    5940:	db03      	blt.n	594a <do_write+0x12>
    5942:	781a      	ldrb	r2, [r3, #0]
    5944:	2a10      	cmp	r2, #16
    5946:	d005      	beq.n	5954 <do_write+0x1c>
    5948:	22fa      	movs	r2, #250	; 0xfa
    594a:	7102      	strb	r2, [r0, #4]
    594c:	f103 000c 	add.w	r0, r3, #12
    5950:	f7ff b8dc 	b.w	4b0c <sys_sem_signal>
    5954:	785a      	ldrb	r2, [r3, #1]
    5956:	b112      	cbz	r2, 595e <do_write+0x26>
    5958:	22fb      	movs	r2, #251	; 0xfb
    595a:	7102      	strb	r2, [r0, #4]
    595c:	e7f6      	b.n	594c <do_write+0x14>
    595e:	6859      	ldr	r1, [r3, #4]
    5960:	b141      	cbz	r1, 5974 <do_write+0x3c>
    5962:	2101      	movs	r1, #1
    5964:	f8c3 00a4 	str.w	r0, [r3, #164]	; 0xa4
    5968:	f8c3 20a0 	str.w	r2, [r3, #160]	; 0xa0
    596c:	7059      	strb	r1, [r3, #1]
    596e:	4618      	mov	r0, r3
    5970:	f7ff bc60 	b.w	5234 <do_writemore>
    5974:	22f3      	movs	r2, #243	; 0xf3
    5976:	7102      	strb	r2, [r0, #4]
    5978:	e7e8      	b.n	594c <do_write+0x14>
    597a:	bf00      	nop

0000597c <do_getaddr>:
    597c:	b410      	push	{r4}
    597e:	6803      	ldr	r3, [r0, #0]
    5980:	685a      	ldr	r2, [r3, #4]
    5982:	b35a      	cbz	r2, 59dc <do_getaddr+0x60>
    5984:	7c04      	ldrb	r4, [r0, #16]
    5986:	6881      	ldr	r1, [r0, #8]
    5988:	b9cc      	cbnz	r4, 59be <do_getaddr+0x42>
    598a:	6852      	ldr	r2, [r2, #4]
    598c:	600a      	str	r2, [r1, #0]
    598e:	2200      	movs	r2, #0
    5990:	7102      	strb	r2, [r0, #4]
    5992:	781a      	ldrb	r2, [r3, #0]
    5994:	f002 02f0 	and.w	r2, r2, #240	; 0xf0
    5998:	2a10      	cmp	r2, #16
    599a:	d013      	beq.n	59c4 <do_getaddr+0x48>
    599c:	2a20      	cmp	r2, #32
    599e:	d108      	bne.n	59b2 <do_getaddr+0x36>
    59a0:	7c02      	ldrb	r2, [r0, #16]
    59a2:	bb32      	cbnz	r2, 59f2 <do_getaddr+0x76>
    59a4:	685a      	ldr	r2, [r3, #4]
    59a6:	7c11      	ldrb	r1, [r2, #16]
    59a8:	0749      	lsls	r1, r1, #29
    59aa:	d517      	bpl.n	59dc <do_getaddr+0x60>
    59ac:	68c1      	ldr	r1, [r0, #12]
    59ae:	8a92      	ldrh	r2, [r2, #20]
    59b0:	800a      	strh	r2, [r1, #0]
    59b2:	f103 000c 	add.w	r0, r3, #12
    59b6:	f85d 4b04 	ldr.w	r4, [sp], #4
    59ba:	f7ff b8a7 	b.w	4b0c <sys_sem_signal>
    59be:	6812      	ldr	r2, [r2, #0]
    59c0:	600a      	str	r2, [r1, #0]
    59c2:	e7e4      	b.n	598e <do_getaddr+0x12>
    59c4:	7c01      	ldrb	r1, [r0, #16]
    59c6:	68c2      	ldr	r2, [r0, #12]
    59c8:	b981      	cbnz	r1, 59ec <do_getaddr+0x70>
    59ca:	6859      	ldr	r1, [r3, #4]
    59cc:	8bc9      	ldrh	r1, [r1, #30]
    59ce:	8011      	strh	r1, [r2, #0]
    59d0:	f103 000c 	add.w	r0, r3, #12
    59d4:	f85d 4b04 	ldr.w	r4, [sp], #4
    59d8:	f7ff b898 	b.w	4b0c <sys_sem_signal>
    59dc:	22f3      	movs	r2, #243	; 0xf3
    59de:	7102      	strb	r2, [r0, #4]
    59e0:	f85d 4b04 	ldr.w	r4, [sp], #4
    59e4:	f103 000c 	add.w	r0, r3, #12
    59e8:	f7ff b890 	b.w	4b0c <sys_sem_signal>
    59ec:	6859      	ldr	r1, [r3, #4]
    59ee:	8b89      	ldrh	r1, [r1, #28]
    59f0:	e7ed      	b.n	59ce <do_getaddr+0x52>
    59f2:	685a      	ldr	r2, [r3, #4]
    59f4:	68c1      	ldr	r1, [r0, #12]
    59f6:	8a52      	ldrh	r2, [r2, #18]
    59f8:	f103 000c 	add.w	r0, r3, #12
    59fc:	800a      	strh	r2, [r1, #0]
    59fe:	f85d 4b04 	ldr.w	r4, [sp], #4
    5a02:	f7ff b883 	b.w	4b0c <sys_sem_signal>
    5a06:	bf00      	nop

00005a08 <do_close>:
    5a08:	b510      	push	{r4, lr}
    5a0a:	4604      	mov	r4, r0
    5a0c:	6800      	ldr	r0, [r0, #0]
    5a0e:	7842      	ldrb	r2, [r0, #1]
    5a10:	f012 0ffd 	tst.w	r2, #253	; 0xfd
    5a14:	d006      	beq.n	5a24 <do_close+0x1c>
    5a16:	22fb      	movs	r2, #251	; 0xfb
    5a18:	7122      	strb	r2, [r4, #4]
    5a1a:	300c      	adds	r0, #12
    5a1c:	e8bd 4010 	ldmia.w	sp!, {r4, lr}
    5a20:	f7ff b874 	b.w	4b0c <sys_sem_signal>
    5a24:	6841      	ldr	r1, [r0, #4]
    5a26:	b111      	cbz	r1, 5a2e <do_close+0x26>
    5a28:	7801      	ldrb	r1, [r0, #0]
    5a2a:	2910      	cmp	r1, #16
    5a2c:	d006      	beq.n	5a3c <do_close+0x34>
    5a2e:	22fa      	movs	r2, #250	; 0xfa
    5a30:	7122      	strb	r2, [r4, #4]
    5a32:	300c      	adds	r0, #12
    5a34:	e8bd 4010 	ldmia.w	sp!, {r4, lr}
    5a38:	f7ff b868 	b.w	4b0c <sys_sem_signal>
    5a3c:	7a21      	ldrb	r1, [r4, #8]
    5a3e:	2903      	cmp	r1, #3
    5a40:	d00b      	beq.n	5a5a <do_close+0x52>
    5a42:	2a02      	cmp	r2, #2
    5a44:	d00d      	beq.n	5a62 <do_close+0x5a>
    5a46:	07cb      	lsls	r3, r1, #31
    5a48:	d407      	bmi.n	5a5a <do_close+0x52>
    5a4a:	2204      	movs	r2, #4
    5a4c:	f8c0 40a4 	str.w	r4, [r0, #164]	; 0xa4
    5a50:	7042      	strb	r2, [r0, #1]
    5a52:	e8bd 4010 	ldmia.w	sp!, {r4, lr}
    5a56:	f7ff bc73 	b.w	5340 <do_close_internal>
    5a5a:	f7ff fe17 	bl	568c <netconn_drain>
    5a5e:	6820      	ldr	r0, [r4, #0]
    5a60:	e7f3      	b.n	5a4a <do_close+0x42>
    5a62:	22f3      	movs	r2, #243	; 0xf3
    5a64:	7122      	strb	r2, [r4, #4]
    5a66:	e7d8      	b.n	5a1a <do_close+0x12>

00005a68 <do_gethostbyname>:
    5a68:	b538      	push	{r3, r4, r5, lr}
    5a6a:	4604      	mov	r4, r0
    5a6c:	4623      	mov	r3, r4
    5a6e:	c803      	ldmia	r0, {r0, r1}
    5a70:	4a07      	ldr	r2, [pc, #28]	; (5a90 <do_gethostbyname+0x28>)
    5a72:	68e5      	ldr	r5, [r4, #12]
    5a74:	f001 fae2 	bl	703c <dns_gethostbyname>
    5a78:	7028      	strb	r0, [r5, #0]
    5a7a:	68e3      	ldr	r3, [r4, #12]
    5a7c:	f993 3000 	ldrsb.w	r3, [r3]
    5a80:	3305      	adds	r3, #5
    5a82:	d004      	beq.n	5a8e <do_gethostbyname+0x26>
    5a84:	68a0      	ldr	r0, [r4, #8]
    5a86:	e8bd 4038 	ldmia.w	sp!, {r3, r4, r5, lr}
    5a8a:	f7ff b83f 	b.w	4b0c <sys_sem_signal>
    5a8e:	bd38      	pop	{r3, r4, r5, pc}
    5a90:	0000505d 	.word	0x0000505d

00005a94 <netbuf_delete>:
    5a94:	b510      	push	{r4, lr}
    5a96:	4604      	mov	r4, r0
    5a98:	b160      	cbz	r0, 5ab4 <netbuf_delete+0x20>
    5a9a:	6800      	ldr	r0, [r0, #0]
    5a9c:	b120      	cbz	r0, 5aa8 <netbuf_delete+0x14>
    5a9e:	f7fb fe3d 	bl	171c <pbuf_free>
    5aa2:	2300      	movs	r3, #0
    5aa4:	6063      	str	r3, [r4, #4]
    5aa6:	6023      	str	r3, [r4, #0]
    5aa8:	4621      	mov	r1, r4
    5aaa:	2006      	movs	r0, #6
    5aac:	e8bd 4010 	ldmia.w	sp!, {r4, lr}
    5ab0:	f7fb bcca 	b.w	1448 <memp_free>
    5ab4:	bd10      	pop	{r4, pc}
    5ab6:	bf00      	nop

00005ab8 <netbuf_free>:
    5ab8:	b510      	push	{r4, lr}
    5aba:	4604      	mov	r4, r0
    5abc:	b130      	cbz	r0, 5acc <netbuf_free+0x14>
    5abe:	6800      	ldr	r0, [r0, #0]
    5ac0:	b108      	cbz	r0, 5ac6 <netbuf_free+0xe>
    5ac2:	f7fb fe2b 	bl	171c <pbuf_free>
    5ac6:	2300      	movs	r3, #0
    5ac8:	6063      	str	r3, [r4, #4]
    5aca:	6023      	str	r3, [r4, #0]
    5acc:	bd10      	pop	{r4, pc}
    5ace:	bf00      	nop

00005ad0 <netbuf_ref>:
    5ad0:	b570      	push	{r4, r5, r6, lr}
    5ad2:	4604      	mov	r4, r0
    5ad4:	460e      	mov	r6, r1
    5ad6:	4615      	mov	r5, r2
    5ad8:	b190      	cbz	r0, 5b00 <netbuf_ref+0x30>
    5ada:	6800      	ldr	r0, [r0, #0]
    5adc:	b108      	cbz	r0, 5ae2 <netbuf_ref+0x12>
    5ade:	f7fb fe1d 	bl	171c <pbuf_free>
    5ae2:	2000      	movs	r0, #0
    5ae4:	4601      	mov	r1, r0
    5ae6:	2202      	movs	r2, #2
    5ae8:	f7fb fe4e 	bl	1788 <pbuf_alloc>
    5aec:	4603      	mov	r3, r0
    5aee:	6020      	str	r0, [r4, #0]
    5af0:	b140      	cbz	r0, 5b04 <netbuf_ref+0x34>
    5af2:	6046      	str	r6, [r0, #4]
    5af4:	8105      	strh	r5, [r0, #8]
    5af6:	8145      	strh	r5, [r0, #10]
    5af8:	2000      	movs	r0, #0
    5afa:	6063      	str	r3, [r4, #4]
    5afc:	b240      	sxtb	r0, r0
    5afe:	bd70      	pop	{r4, r5, r6, pc}
    5b00:	20f2      	movs	r0, #242	; 0xf2
    5b02:	e7fb      	b.n	5afc <netbuf_ref+0x2c>
    5b04:	6060      	str	r0, [r4, #4]
    5b06:	20ff      	movs	r0, #255	; 0xff
    5b08:	e7f8      	b.n	5afc <netbuf_ref+0x2c>
    5b0a:	bf00      	nop

00005b0c <lwip_gethostbyname>:
    5b0c:	b5f0      	push	{r4, r5, r6, r7, lr}
    5b0e:	b083      	sub	sp, #12
    5b10:	a901      	add	r1, sp, #4
    5b12:	4604      	mov	r4, r0
    5b14:	f7ff fa78 	bl	5008 <netconn_gethostbyname>
    5b18:	b990      	cbnz	r0, 5b40 <lwip_gethostbyname+0x34>
    5b1a:	4b0c      	ldr	r3, [pc, #48]	; (5b4c <lwip_gethostbyname+0x40>)
    5b1c:	4a0c      	ldr	r2, [pc, #48]	; (5b50 <lwip_gethostbyname+0x44>)
    5b1e:	490d      	ldr	r1, [pc, #52]	; (5b54 <lwip_gethostbyname+0x48>)
    5b20:	f8df c038 	ldr.w	r12, [pc, #56]	; 5b5c <lwip_gethostbyname+0x50>
    5b24:	9d01      	ldr	r5, [sp, #4]
    5b26:	2702      	movs	r7, #2
    5b28:	2604      	movs	r6, #4
    5b2a:	6050      	str	r0, [r2, #4]
    5b2c:	4618      	mov	r0, r3
    5b2e:	600d      	str	r5, [r1, #0]
    5b30:	6011      	str	r1, [r2, #0]
    5b32:	611a      	str	r2, [r3, #16]
    5b34:	e883 1010 	stmia.w	r3, {r4, r12}
    5b38:	609f      	str	r7, [r3, #8]
    5b3a:	60de      	str	r6, [r3, #12]
    5b3c:	b003      	add	sp, #12
    5b3e:	bdf0      	pop	{r4, r5, r6, r7, pc}
    5b40:	4b05      	ldr	r3, [pc, #20]	; (5b58 <lwip_gethostbyname+0x4c>)
    5b42:	22d2      	movs	r2, #210	; 0xd2
    5b44:	2000      	movs	r0, #0
    5b46:	601a      	str	r2, [r3, #0]
    5b48:	b003      	add	sp, #12
    5b4a:	bdf0      	pop	{r4, r5, r6, r7, pc}
    5b4c:	1000057c 	.word	0x1000057c
    5b50:	10000594 	.word	0x10000594
    5b54:	10000590 	.word	0x10000590
    5b58:	10000ff4 	.word	0x10000ff4
    5b5c:	1000059c 	.word	0x1000059c

00005b60 <dhcp_option_trailer>:
    5b60:	b410      	push	{r4}
    5b62:	b1a0      	cbz	r0, 5b8e <dhcp_option_trailer+0x2e>
    5b64:	8b03      	ldrh	r3, [r0, #24]
    5b66:	6942      	ldr	r2, [r0, #20]
    5b68:	1c59      	adds	r1, r3, #1
    5b6a:	4413      	add	r3, r2
    5b6c:	22ff      	movs	r2, #255	; 0xff
    5b6e:	8301      	strh	r1, [r0, #24]
    5b70:	2400      	movs	r4, #0
    5b72:	f883 20f0 	strb.w	r2, [r3, #240]	; 0xf0
    5b76:	e005      	b.n	5b84 <dhcp_option_trailer+0x24>
    5b78:	6942      	ldr	r2, [r0, #20]
    5b7a:	1c59      	adds	r1, r3, #1
    5b7c:	4413      	add	r3, r2
    5b7e:	8301      	strh	r1, [r0, #24]
    5b80:	f883 40f0 	strb.w	r4, [r3, #240]	; 0xf0
    5b84:	8b03      	ldrh	r3, [r0, #24]
    5b86:	2b43      	cmp	r3, #67	; 0x43
    5b88:	d9f6      	bls.n	5b78 <dhcp_option_trailer+0x18>
    5b8a:	079a      	lsls	r2, r3, #30
    5b8c:	d1f4      	bne.n	5b78 <dhcp_option_trailer+0x18>
    5b8e:	f85d 4b04 	ldr.w	r4, [sp], #4
    5b92:	4770      	bx	lr

00005b94 <dhcp_create_msg>:
    5b94:	b570      	push	{r4, r5, r6, lr}
    5b96:	4606      	mov	r6, r0
    5b98:	460c      	mov	r4, r1
    5b9a:	4615      	mov	r5, r2
    5b9c:	2800      	cmp	r0, #0
    5b9e:	f000 80b2 	beq.w	5d06 <dhcp_create_msg+0x172>
    5ba2:	2900      	cmp	r1, #0
    5ba4:	f000 80ab 	beq.w	5cfe <dhcp_create_msg+0x16a>
    5ba8:	2000      	movs	r0, #0
    5baa:	4602      	mov	r2, r0
    5bac:	f44f 719a 	mov.w	r1, #308	; 0x134
    5bb0:	f7fb fdea 	bl	1788 <pbuf_alloc>
    5bb4:	6120      	str	r0, [r4, #16]
    5bb6:	2800      	cmp	r0, #0
    5bb8:	f000 80a3 	beq.w	5d02 <dhcp_create_msg+0x16e>
    5bbc:	7b63      	ldrb	r3, [r4, #13]
    5bbe:	2b00      	cmp	r3, #0
    5bc0:	f000 808f 	beq.w	5ce2 <dhcp_create_msg+0x14e>
    5bc4:	4b51      	ldr	r3, [pc, #324]	; (5d0c <dhcp_create_msg+0x178>)
    5bc6:	6819      	ldr	r1, [r3, #0]
    5bc8:	6843      	ldr	r3, [r0, #4]
    5bca:	2201      	movs	r2, #1
    5bcc:	6163      	str	r3, [r4, #20]
    5bce:	6021      	str	r1, [r4, #0]
    5bd0:	701a      	strb	r2, [r3, #0]
    5bd2:	6961      	ldr	r1, [r4, #20]
    5bd4:	2300      	movs	r3, #0
    5bd6:	704a      	strb	r2, [r1, #1]
    5bd8:	6962      	ldr	r2, [r4, #20]
    5bda:	f896 1032 	ldrb.w	r1, [r6, #50]	; 0x32
    5bde:	2d08      	cmp	r5, #8
    5be0:	7091      	strb	r1, [r2, #2]
    5be2:	6962      	ldr	r2, [r4, #20]
    5be4:	70d3      	strb	r3, [r2, #3]
    5be6:	6821      	ldr	r1, [r4, #0]
    5be8:	6962      	ldr	r2, [r4, #20]
    5bea:	ba09      	rev	r1, r1
    5bec:	6051      	str	r1, [r2, #4]
    5bee:	7213      	strb	r3, [r2, #8]
    5bf0:	7253      	strb	r3, [r2, #9]
    5bf2:	7293      	strb	r3, [r2, #10]
    5bf4:	72d3      	strb	r3, [r2, #11]
    5bf6:	7313      	strb	r3, [r2, #12]
    5bf8:	7353      	strb	r3, [r2, #13]
    5bfa:	7393      	strb	r3, [r2, #14]
    5bfc:	73d3      	strb	r3, [r2, #15]
    5bfe:	d079      	beq.n	5cf4 <dhcp_create_msg+0x160>
    5c00:	2d04      	cmp	r5, #4
    5c02:	d077      	beq.n	5cf4 <dhcp_create_msg+0x160>
    5c04:	2d03      	cmp	r5, #3
    5c06:	d071      	beq.n	5cec <dhcp_create_msg+0x158>
    5c08:	2300      	movs	r3, #0
    5c0a:	7413      	strb	r3, [r2, #16]
    5c0c:	7453      	strb	r3, [r2, #17]
    5c0e:	7493      	strb	r3, [r2, #18]
    5c10:	74d3      	strb	r3, [r2, #19]
    5c12:	7513      	strb	r3, [r2, #20]
    5c14:	7553      	strb	r3, [r2, #21]
    5c16:	7593      	strb	r3, [r2, #22]
    5c18:	75d3      	strb	r3, [r2, #23]
    5c1a:	7613      	strb	r3, [r2, #24]
    5c1c:	7653      	strb	r3, [r2, #25]
    5c1e:	7693      	strb	r3, [r2, #26]
    5c20:	76d3      	strb	r3, [r2, #27]
    5c22:	f896 1032 	ldrb.w	r1, [r6, #50]	; 0x32
    5c26:	b909      	cbnz	r1, 5c2c <dhcp_create_msg+0x98>
    5c28:	e067      	b.n	5cfa <dhcp_create_msg+0x166>
    5c2a:	6962      	ldr	r2, [r4, #20]
    5c2c:	18f1      	adds	r1, r6, r3
    5c2e:	f891 1033 	ldrb.w	r1, [r1, #51]	; 0x33
    5c32:	441a      	add	r2, r3
    5c34:	7711      	strb	r1, [r2, #28]
    5c36:	3301      	adds	r3, #1
    5c38:	f896 2032 	ldrb.w	r2, [r6, #50]	; 0x32
    5c3c:	b29b      	uxth	r3, r3
    5c3e:	429a      	cmp	r2, r3
    5c40:	d8f3      	bhi.n	5c2a <dhcp_create_msg+0x96>
    5c42:	2b0f      	cmp	r3, #15
    5c44:	d809      	bhi.n	5c5a <dhcp_create_msg+0xc6>
    5c46:	6962      	ldr	r2, [r4, #20]
    5c48:	2000      	movs	r0, #0
    5c4a:	e000      	b.n	5c4e <dhcp_create_msg+0xba>
    5c4c:	6962      	ldr	r2, [r4, #20]
    5c4e:	1c59      	adds	r1, r3, #1
    5c50:	441a      	add	r2, r3
    5c52:	b28b      	uxth	r3, r1
    5c54:	2b0f      	cmp	r3, #15
    5c56:	7710      	strb	r0, [r2, #28]
    5c58:	d9f8      	bls.n	5c4c <dhcp_create_msg+0xb8>
    5c5a:	2300      	movs	r3, #0
    5c5c:	461a      	mov	r2, r3
    5c5e:	6961      	ldr	r1, [r4, #20]
    5c60:	4419      	add	r1, r3
    5c62:	3301      	adds	r3, #1
    5c64:	2b40      	cmp	r3, #64	; 0x40
    5c66:	f881 202c 	strb.w	r2, [r1, #44]	; 0x2c
    5c6a:	d1f8      	bne.n	5c5e <dhcp_create_msg+0xca>
    5c6c:	2300      	movs	r3, #0
    5c6e:	4618      	mov	r0, r3
    5c70:	6961      	ldr	r1, [r4, #20]
    5c72:	2200      	movs	r2, #0
    5c74:	4419      	add	r1, r3
    5c76:	3301      	adds	r3, #1
    5c78:	2b80      	cmp	r3, #128	; 0x80
    5c7a:	f881 006c 	strb.w	r0, [r1, #108]	; 0x6c
    5c7e:	d1f7      	bne.n	5c70 <dhcp_create_msg+0xdc>
    5c80:	6961      	ldr	r1, [r4, #20]
    5c82:	2363      	movs	r3, #99	; 0x63
    5c84:	f06f 067d 	mvn.w	r6, #125	; 0x7d
    5c88:	2053      	movs	r0, #83	; 0x53
    5c8a:	f881 30ec 	strb.w	r3, [r1, #236]	; 0xec
    5c8e:	f881 30ef 	strb.w	r3, [r1, #239]	; 0xef
    5c92:	f881 60ed 	strb.w	r6, [r1, #237]	; 0xed
    5c96:	f881 00ee 	strb.w	r0, [r1, #238]	; 0xee
    5c9a:	4613      	mov	r3, r2
    5c9c:	8322      	strh	r2, [r4, #24]
    5c9e:	e000      	b.n	5ca2 <dhcp_create_msg+0x10e>
    5ca0:	6961      	ldr	r1, [r4, #20]
    5ca2:	4419      	add	r1, r3
    5ca4:	f881 30f0 	strb.w	r3, [r1, #240]	; 0xf0
    5ca8:	3301      	adds	r3, #1
    5caa:	2b44      	cmp	r3, #68	; 0x44
    5cac:	d1f8      	bne.n	5ca0 <dhcp_create_msg+0x10c>
    5cae:	8b23      	ldrh	r3, [r4, #24]
    5cb0:	6962      	ldr	r2, [r4, #20]
    5cb2:	1c59      	adds	r1, r3, #1
    5cb4:	4413      	add	r3, r2
    5cb6:	2235      	movs	r2, #53	; 0x35
    5cb8:	8321      	strh	r1, [r4, #24]
    5cba:	f883 20f0 	strb.w	r2, [r3, #240]	; 0xf0
    5cbe:	8b23      	ldrh	r3, [r4, #24]
    5cc0:	6962      	ldr	r2, [r4, #20]
    5cc2:	1c59      	adds	r1, r3, #1
    5cc4:	4413      	add	r3, r2
    5cc6:	2201      	movs	r2, #1
    5cc8:	8321      	strh	r1, [r4, #24]
    5cca:	f883 20f0 	strb.w	r2, [r3, #240]	; 0xf0
    5cce:	8b23      	ldrh	r3, [r4, #24]
    5cd0:	6962      	ldr	r2, [r4, #20]
    5cd2:	1c59      	adds	r1, r3, #1
    5cd4:	4413      	add	r3, r2
    5cd6:	8321      	strh	r1, [r4, #24]
    5cd8:	2000      	movs	r0, #0
    5cda:	f883 50f0 	strb.w	r5, [r3, #240]	; 0xf0
    5cde:	b240      	sxtb	r0, r0
    5ce0:	bd70      	pop	{r4, r5, r6, pc}
    5ce2:	4b0a      	ldr	r3, [pc, #40]	; (5d0c <dhcp_create_msg+0x178>)
    5ce4:	6819      	ldr	r1, [r3, #0]
    5ce6:	3101      	adds	r1, #1
    5ce8:	6019      	str	r1, [r3, #0]
    5cea:	e76d      	b.n	5bc8 <dhcp_create_msg+0x34>
    5cec:	7b23      	ldrb	r3, [r4, #12]
    5cee:	3b04      	subs	r3, #4
    5cf0:	2b01      	cmp	r3, #1
    5cf2:	d889      	bhi.n	5c08 <dhcp_create_msg+0x74>
    5cf4:	6873      	ldr	r3, [r6, #4]
    5cf6:	60d3      	str	r3, [r2, #12]
    5cf8:	e786      	b.n	5c08 <dhcp_create_msg+0x74>
    5cfa:	460b      	mov	r3, r1
    5cfc:	e7a4      	b.n	5c48 <dhcp_create_msg+0xb4>
    5cfe:	20fa      	movs	r0, #250	; 0xfa
    5d00:	e7ed      	b.n	5cde <dhcp_create_msg+0x14a>
    5d02:	20ff      	movs	r0, #255	; 0xff
    5d04:	e7eb      	b.n	5cde <dhcp_create_msg+0x14a>
    5d06:	20f2      	movs	r0, #242	; 0xf2
    5d08:	e7e9      	b.n	5cde <dhcp_create_msg+0x14a>
    5d0a:	bf00      	nop
    5d0c:	100000d8 	.word	0x100000d8

00005d10 <dhcp_delete_msg>:
    5d10:	b510      	push	{r4, lr}
    5d12:	4604      	mov	r4, r0
    5d14:	b130      	cbz	r0, 5d24 <dhcp_delete_msg+0x14>
    5d16:	6900      	ldr	r0, [r0, #16]
    5d18:	b108      	cbz	r0, 5d1e <dhcp_delete_msg+0xe>
    5d1a:	f7fb fcff 	bl	171c <pbuf_free>
    5d1e:	2300      	movs	r3, #0
    5d20:	6123      	str	r3, [r4, #16]
    5d22:	6163      	str	r3, [r4, #20]
    5d24:	bd10      	pop	{r4, pc}
    5d26:	bf00      	nop

00005d28 <dhcp_rebind>:
    5d28:	b5f0      	push	{r4, r5, r6, r7, lr}
    5d2a:	6a84      	ldr	r4, [r0, #40]	; 0x28
    5d2c:	b083      	sub	sp, #12
    5d2e:	7b23      	ldrb	r3, [r4, #12]
    5d30:	4605      	mov	r5, r0
    5d32:	2b04      	cmp	r3, #4
    5d34:	d004      	beq.n	5d40 <dhcp_rebind+0x18>
    5d36:	2300      	movs	r3, #0
    5d38:	2204      	movs	r2, #4
    5d3a:	7322      	strb	r2, [r4, #12]
    5d3c:	7363      	strb	r3, [r4, #13]
    5d3e:	8363      	strh	r3, [r4, #26]
    5d40:	4628      	mov	r0, r5
    5d42:	4621      	mov	r1, r4
    5d44:	2203      	movs	r2, #3
    5d46:	f7ff ff25 	bl	5b94 <dhcp_create_msg>
    5d4a:	4607      	mov	r7, r0
    5d4c:	2800      	cmp	r0, #0
    5d4e:	d156      	bne.n	5dfe <dhcp_rebind+0xd6>
    5d50:	8b23      	ldrh	r3, [r4, #24]
    5d52:	6962      	ldr	r2, [r4, #20]
    5d54:	1c59      	adds	r1, r3, #1
    5d56:	4413      	add	r3, r2
    5d58:	2239      	movs	r2, #57	; 0x39
    5d5a:	8321      	strh	r1, [r4, #24]
    5d5c:	f883 20f0 	strb.w	r2, [r3, #240]	; 0xf0
    5d60:	8b23      	ldrh	r3, [r4, #24]
    5d62:	6962      	ldr	r2, [r4, #20]
    5d64:	1c59      	adds	r1, r3, #1
    5d66:	4413      	add	r3, r2
    5d68:	2202      	movs	r2, #2
    5d6a:	8321      	strh	r1, [r4, #24]
    5d6c:	f883 20f0 	strb.w	r2, [r3, #240]	; 0xf0
    5d70:	8b22      	ldrh	r2, [r4, #24]
    5d72:	8e2b      	ldrh	r3, [r5, #48]	; 0x30
    5d74:	6961      	ldr	r1, [r4, #20]
    5d76:	1c50      	adds	r0, r2, #1
    5d78:	440a      	add	r2, r1
    5d7a:	0a19      	lsrs	r1, r3, #8
    5d7c:	8320      	strh	r0, [r4, #24]
    5d7e:	f882 10f0 	strb.w	r1, [r2, #240]	; 0xf0
    5d82:	8b22      	ldrh	r2, [r4, #24]
    5d84:	6961      	ldr	r1, [r4, #20]
    5d86:	1c50      	adds	r0, r2, #1
    5d88:	440a      	add	r2, r1
    5d8a:	8320      	strh	r0, [r4, #24]
    5d8c:	f882 30f0 	strb.w	r3, [r2, #240]	; 0xf0
    5d90:	6aee      	ldr	r6, [r5, #44]	; 0x2c
    5d92:	b30e      	cbz	r6, 5dd8 <dhcp_rebind+0xb0>
    5d94:	4630      	mov	r0, r6
    5d96:	f006 faf8 	bl	c38a <strlen>
    5d9a:	b2c0      	uxtb	r0, r0
    5d9c:	b1e0      	cbz	r0, 5dd8 <dhcp_rebind+0xb0>
    5d9e:	8b23      	ldrh	r3, [r4, #24]
    5da0:	6962      	ldr	r2, [r4, #20]
    5da2:	1c59      	adds	r1, r3, #1
    5da4:	4413      	add	r3, r2
    5da6:	220c      	movs	r2, #12
    5da8:	8321      	strh	r1, [r4, #24]
    5daa:	f883 20f0 	strb.w	r2, [r3, #240]	; 0xf0
    5dae:	8b23      	ldrh	r3, [r4, #24]
    5db0:	6962      	ldr	r2, [r4, #20]
    5db2:	1c59      	adds	r1, r3, #1
    5db4:	4413      	add	r3, r2
    5db6:	8321      	strh	r1, [r4, #24]
    5db8:	f883 00f0 	strb.w	r0, [r3, #240]	; 0xf0
    5dbc:	7833      	ldrb	r3, [r6, #0]
    5dbe:	b15b      	cbz	r3, 5dd8 <dhcp_rebind+0xb0>
    5dc0:	4631      	mov	r1, r6
    5dc2:	8b22      	ldrh	r2, [r4, #24]
    5dc4:	6966      	ldr	r6, [r4, #20]
    5dc6:	1c50      	adds	r0, r2, #1
    5dc8:	4432      	add	r2, r6
    5dca:	8320      	strh	r0, [r4, #24]
    5dcc:	f882 30f0 	strb.w	r3, [r2, #240]	; 0xf0
    5dd0:	f811 3f01 	ldrb.w	r3, [r1, #1]!
    5dd4:	2b00      	cmp	r3, #0
    5dd6:	d1f4      	bne.n	5dc2 <dhcp_rebind+0x9a>
    5dd8:	4620      	mov	r0, r4
    5dda:	f7ff fec1 	bl	5b60 <dhcp_option_trailer>
    5dde:	8b21      	ldrh	r1, [r4, #24]
    5de0:	6920      	ldr	r0, [r4, #16]
    5de2:	31f0      	adds	r1, #240	; 0xf0
    5de4:	b289      	uxth	r1, r1
    5de6:	f7fb fd63 	bl	18b0 <pbuf_realloc>
    5dea:	6860      	ldr	r0, [r4, #4]
    5dec:	6921      	ldr	r1, [r4, #16]
    5dee:	4a11      	ldr	r2, [pc, #68]	; (5e34 <dhcp_rebind+0x10c>)
    5df0:	9500      	str	r5, [sp, #0]
    5df2:	2343      	movs	r3, #67	; 0x43
    5df4:	f002 fa84 	bl	8300 <udp_sendto_if>
    5df8:	4620      	mov	r0, r4
    5dfa:	f7ff ff89 	bl	5d10 <dhcp_delete_msg>
    5dfe:	7b63      	ldrb	r3, [r4, #13]
    5e00:	3301      	adds	r3, #1
    5e02:	b2db      	uxtb	r3, r3
    5e04:	2b09      	cmp	r3, #9
    5e06:	7363      	strb	r3, [r4, #13]
    5e08:	d80f      	bhi.n	5e2a <dhcp_rebind+0x102>
    5e0a:	ebc3 1243 	rsb	r2, r3, r3, lsl #5
    5e0e:	eb03 0382 	add.w	r3, r3, r2, lsl #2
    5e12:	00db      	lsls	r3, r3, #3
    5e14:	4a08      	ldr	r2, [pc, #32]	; (5e38 <dhcp_rebind+0x110>)
    5e16:	b29b      	uxth	r3, r3
    5e18:	f203 13f3 	addw	r3, r3, #499	; 0x1f3
    5e1c:	fb82 1303 	smull	r1, r3, r2, r3
    5e20:	4638      	mov	r0, r7
    5e22:	095b      	lsrs	r3, r3, #5
    5e24:	8363      	strh	r3, [r4, #26]
    5e26:	b003      	add	sp, #12
    5e28:	bdf0      	pop	{r4, r5, r6, r7, pc}
    5e2a:	2314      	movs	r3, #20
    5e2c:	4638      	mov	r0, r7
    5e2e:	8363      	strh	r3, [r4, #26]
    5e30:	b003      	add	sp, #12
    5e32:	bdf0      	pop	{r4, r5, r6, r7, pc}
    5e34:	0000da28 	.word	0x0000da28
    5e38:	10624dd3 	.word	0x10624dd3

00005e3c <dhcp_discover>:
    5e3c:	b570      	push	{r4, r5, r6, lr}
    5e3e:	6a84      	ldr	r4, [r0, #40]	; 0x28
    5e40:	2300      	movs	r3, #0
    5e42:	7b22      	ldrb	r2, [r4, #12]
    5e44:	b082      	sub	sp, #8
    5e46:	2a06      	cmp	r2, #6
    5e48:	4605      	mov	r5, r0
    5e4a:	6263      	str	r3, [r4, #36]	; 0x24
    5e4c:	d003      	beq.n	5e56 <dhcp_discover+0x1a>
    5e4e:	2206      	movs	r2, #6
    5e50:	7363      	strb	r3, [r4, #13]
    5e52:	8363      	strh	r3, [r4, #26]
    5e54:	7322      	strb	r2, [r4, #12]
    5e56:	4628      	mov	r0, r5
    5e58:	4621      	mov	r1, r4
    5e5a:	2201      	movs	r2, #1
    5e5c:	f7ff fe9a 	bl	5b94 <dhcp_create_msg>
    5e60:	4606      	mov	r6, r0
    5e62:	b1d8      	cbz	r0, 5e9c <dhcp_discover+0x60>
    5e64:	7b63      	ldrb	r3, [r4, #13]
    5e66:	3301      	adds	r3, #1
    5e68:	b2db      	uxtb	r3, r3
    5e6a:	2b05      	cmp	r3, #5
    5e6c:	7363      	strb	r3, [r4, #13]
    5e6e:	d810      	bhi.n	5e92 <dhcp_discover+0x56>
    5e70:	f44f 727a 	mov.w	r2, #1000	; 0x3e8
    5e74:	fa02 f303 	lsl.w	r3, r2, r3
    5e78:	4a3a      	ldr	r2, [pc, #232]	; (5f64 <dhcp_discover+0x128>)
    5e7a:	f203 13f3 	addw	r3, r3, #499	; 0x1f3
    5e7e:	fb82 1203 	smull	r1, r2, r2, r3
    5e82:	17db      	asrs	r3, r3, #31
    5e84:	ebc3 1362 	rsb	r3, r3, r2, asr #5
    5e88:	b29b      	uxth	r3, r3
    5e8a:	4630      	mov	r0, r6
    5e8c:	8363      	strh	r3, [r4, #26]
    5e8e:	b002      	add	sp, #8
    5e90:	bd70      	pop	{r4, r5, r6, pc}
    5e92:	2378      	movs	r3, #120	; 0x78
    5e94:	4630      	mov	r0, r6
    5e96:	8363      	strh	r3, [r4, #26]
    5e98:	b002      	add	sp, #8
    5e9a:	bd70      	pop	{r4, r5, r6, pc}
    5e9c:	8b23      	ldrh	r3, [r4, #24]
    5e9e:	6962      	ldr	r2, [r4, #20]
    5ea0:	1c59      	adds	r1, r3, #1
    5ea2:	4413      	add	r3, r2
    5ea4:	2239      	movs	r2, #57	; 0x39
    5ea6:	8321      	strh	r1, [r4, #24]
    5ea8:	f883 20f0 	strb.w	r2, [r3, #240]	; 0xf0
    5eac:	8b23      	ldrh	r3, [r4, #24]
    5eae:	6962      	ldr	r2, [r4, #20]
    5eb0:	1c59      	adds	r1, r3, #1
    5eb2:	4413      	add	r3, r2
    5eb4:	2202      	movs	r2, #2
    5eb6:	8321      	strh	r1, [r4, #24]
    5eb8:	f883 20f0 	strb.w	r2, [r3, #240]	; 0xf0
    5ebc:	8b22      	ldrh	r2, [r4, #24]
    5ebe:	8e2b      	ldrh	r3, [r5, #48]	; 0x30
    5ec0:	6961      	ldr	r1, [r4, #20]
    5ec2:	1c50      	adds	r0, r2, #1
    5ec4:	440a      	add	r2, r1
    5ec6:	0a19      	lsrs	r1, r3, #8
    5ec8:	8320      	strh	r0, [r4, #24]
    5eca:	f882 10f0 	strb.w	r1, [r2, #240]	; 0xf0
    5ece:	8b22      	ldrh	r2, [r4, #24]
    5ed0:	6961      	ldr	r1, [r4, #20]
    5ed2:	1c50      	adds	r0, r2, #1
    5ed4:	440a      	add	r2, r1
    5ed6:	8320      	strh	r0, [r4, #24]
    5ed8:	f882 30f0 	strb.w	r3, [r2, #240]	; 0xf0
    5edc:	8b23      	ldrh	r3, [r4, #24]
    5ede:	6962      	ldr	r2, [r4, #20]
    5ee0:	1c59      	adds	r1, r3, #1
    5ee2:	4413      	add	r3, r2
    5ee4:	2237      	movs	r2, #55	; 0x37
    5ee6:	8321      	strh	r1, [r4, #24]
    5ee8:	f883 20f0 	strb.w	r2, [r3, #240]	; 0xf0
    5eec:	8b23      	ldrh	r3, [r4, #24]
    5eee:	6962      	ldr	r2, [r4, #20]
    5ef0:	1c59      	adds	r1, r3, #1
    5ef2:	4413      	add	r3, r2
    5ef4:	2204      	movs	r2, #4
    5ef6:	8321      	strh	r1, [r4, #24]
    5ef8:	f883 20f0 	strb.w	r2, [r3, #240]	; 0xf0
    5efc:	8b23      	ldrh	r3, [r4, #24]
    5efe:	6962      	ldr	r2, [r4, #20]
    5f00:	1c59      	adds	r1, r3, #1
    5f02:	4413      	add	r3, r2
    5f04:	2201      	movs	r2, #1
    5f06:	8321      	strh	r1, [r4, #24]
    5f08:	f883 20f0 	strb.w	r2, [r3, #240]	; 0xf0
    5f0c:	8b23      	ldrh	r3, [r4, #24]
    5f0e:	6962      	ldr	r2, [r4, #20]
    5f10:	1c59      	adds	r1, r3, #1
    5f12:	4413      	add	r3, r2
    5f14:	2203      	movs	r2, #3
    5f16:	8321      	strh	r1, [r4, #24]
    5f18:	f883 20f0 	strb.w	r2, [r3, #240]	; 0xf0
    5f1c:	8b23      	ldrh	r3, [r4, #24]
    5f1e:	6962      	ldr	r2, [r4, #20]
    5f20:	1c59      	adds	r1, r3, #1
    5f22:	4413      	add	r3, r2
    5f24:	221c      	movs	r2, #28
    5f26:	8321      	strh	r1, [r4, #24]
    5f28:	f883 20f0 	strb.w	r2, [r3, #240]	; 0xf0
    5f2c:	8b23      	ldrh	r3, [r4, #24]
    5f2e:	6962      	ldr	r2, [r4, #20]
    5f30:	1c59      	adds	r1, r3, #1
    5f32:	4413      	add	r3, r2
    5f34:	2206      	movs	r2, #6
    5f36:	8321      	strh	r1, [r4, #24]
    5f38:	4620      	mov	r0, r4
    5f3a:	f883 20f0 	strb.w	r2, [r3, #240]	; 0xf0
    5f3e:	f7ff fe0f 	bl	5b60 <dhcp_option_trailer>
    5f42:	8b21      	ldrh	r1, [r4, #24]
    5f44:	6920      	ldr	r0, [r4, #16]
    5f46:	31f0      	adds	r1, #240	; 0xf0
    5f48:	b289      	uxth	r1, r1
    5f4a:	f7fb fcb1 	bl	18b0 <pbuf_realloc>
    5f4e:	6860      	ldr	r0, [r4, #4]
    5f50:	6921      	ldr	r1, [r4, #16]
    5f52:	4a05      	ldr	r2, [pc, #20]	; (5f68 <dhcp_discover+0x12c>)
    5f54:	9500      	str	r5, [sp, #0]
    5f56:	2343      	movs	r3, #67	; 0x43
    5f58:	f002 f9d2 	bl	8300 <udp_sendto_if>
    5f5c:	4620      	mov	r0, r4
    5f5e:	f7ff fed7 	bl	5d10 <dhcp_delete_msg>
    5f62:	e77f      	b.n	5e64 <dhcp_discover+0x28>
    5f64:	10624dd3 	.word	0x10624dd3
    5f68:	0000da28 	.word	0x0000da28

00005f6c <dhcp_check>:
    5f6c:	b510      	push	{r4, lr}
    5f6e:	6a84      	ldr	r4, [r0, #40]	; 0x28
    5f70:	7b23      	ldrb	r3, [r4, #12]
    5f72:	2b08      	cmp	r3, #8
    5f74:	d004      	beq.n	5f80 <dhcp_check+0x14>
    5f76:	2300      	movs	r3, #0
    5f78:	2208      	movs	r2, #8
    5f7a:	7322      	strb	r2, [r4, #12]
    5f7c:	7363      	strb	r3, [r4, #13]
    5f7e:	8363      	strh	r3, [r4, #26]
    5f80:	2200      	movs	r2, #0
    5f82:	f104 0124 	add.w	r1, r4, #36	; 0x24
    5f86:	f7fe faaf 	bl	44e8 <etharp_query>
    5f8a:	7b62      	ldrb	r2, [r4, #13]
    5f8c:	2301      	movs	r3, #1
    5f8e:	441a      	add	r2, r3
    5f90:	7362      	strb	r2, [r4, #13]
    5f92:	8363      	strh	r3, [r4, #26]
    5f94:	bd10      	pop	{r4, pc}
    5f96:	bf00      	nop

00005f98 <dhcp_bind>:
    5f98:	b530      	push	{r4, r5, lr}
    5f9a:	4605      	mov	r5, r0
    5f9c:	b083      	sub	sp, #12
    5f9e:	2800      	cmp	r0, #0
    5fa0:	d049      	beq.n	6036 <dhcp_bind+0x9e>
    5fa2:	6a84      	ldr	r4, [r0, #40]	; 0x28
    5fa4:	2c00      	cmp	r4, #0
    5fa6:	d046      	beq.n	6036 <dhcp_bind+0x9e>
    5fa8:	6b63      	ldr	r3, [r4, #52]	; 0x34
    5faa:	1c58      	adds	r0, r3, #1
    5fac:	d00b      	beq.n	5fc6 <dhcp_bind+0x2e>
    5fae:	4a2e      	ldr	r2, [pc, #184]	; (6068 <dhcp_bind+0xd0>)
    5fb0:	331e      	adds	r3, #30
    5fb2:	fba2 1303 	umull	r1, r3, r2, r3
    5fb6:	095b      	lsrs	r3, r3, #5
    5fb8:	f5b3 3f80 	cmp.w	r3, #65536	; 0x10000
    5fbc:	d247      	bcs.n	604e <dhcp_bind+0xb6>
    5fbe:	b29b      	uxth	r3, r3
    5fc0:	b903      	cbnz	r3, 5fc4 <dhcp_bind+0x2c>
    5fc2:	2301      	movs	r3, #1
    5fc4:	83a3      	strh	r3, [r4, #28]
    5fc6:	6ba3      	ldr	r3, [r4, #56]	; 0x38
    5fc8:	1c59      	adds	r1, r3, #1
    5fca:	d00b      	beq.n	5fe4 <dhcp_bind+0x4c>
    5fcc:	4a26      	ldr	r2, [pc, #152]	; (6068 <dhcp_bind+0xd0>)
    5fce:	331e      	adds	r3, #30
    5fd0:	fba2 1303 	umull	r1, r3, r2, r3
    5fd4:	095b      	lsrs	r3, r3, #5
    5fd6:	f5b3 3f80 	cmp.w	r3, #65536	; 0x10000
    5fda:	d231      	bcs.n	6040 <dhcp_bind+0xa8>
    5fdc:	b29b      	uxth	r3, r3
    5fde:	b903      	cbnz	r3, 5fe2 <dhcp_bind+0x4a>
    5fe0:	2301      	movs	r3, #1
    5fe2:	83e3      	strh	r3, [r4, #30]
    5fe4:	7ba3      	ldrb	r3, [r4, #14]
    5fe6:	bb43      	cbnz	r3, 603a <dhcp_bind+0xa2>
    5fe8:	f894 3024 	ldrb.w	r3, [r4, #36]	; 0x24
    5fec:	061a      	lsls	r2, r3, #24
    5fee:	d432      	bmi.n	6056 <dhcp_bind+0xbe>
    5ff0:	23ff      	movs	r3, #255	; 0xff
    5ff2:	9300      	str	r3, [sp, #0]
    5ff4:	6ae3      	ldr	r3, [r4, #44]	; 0x2c
    5ff6:	9301      	str	r3, [sp, #4]
    5ff8:	b92b      	cbnz	r3, 6006 <dhcp_bind+0x6e>
    5ffa:	9a00      	ldr	r2, [sp, #0]
    5ffc:	6a63      	ldr	r3, [r4, #36]	; 0x24
    5ffe:	4013      	ands	r3, r2
    6000:	f043 7380 	orr.w	r3, r3, #16777216	; 0x1000000
    6004:	9301      	str	r3, [sp, #4]
    6006:	4628      	mov	r0, r5
    6008:	f104 0124 	add.w	r1, r4, #36	; 0x24
    600c:	f7fb fa32 	bl	1474 <netif_set_ipaddr>
    6010:	4628      	mov	r0, r5
    6012:	4669      	mov	r1, sp
    6014:	f7fb faaa 	bl	156c <netif_set_netmask>
    6018:	4628      	mov	r0, r5
    601a:	a901      	add	r1, sp, #4
    601c:	f7fb faa2 	bl	1564 <netif_set_gw>
    6020:	4628      	mov	r0, r5
    6022:	f7fb faad 	bl	1580 <netif_set_up>
    6026:	7b23      	ldrb	r3, [r4, #12]
    6028:	2b0a      	cmp	r3, #10
    602a:	d004      	beq.n	6036 <dhcp_bind+0x9e>
    602c:	2300      	movs	r3, #0
    602e:	220a      	movs	r2, #10
    6030:	7322      	strb	r2, [r4, #12]
    6032:	7363      	strb	r3, [r4, #13]
    6034:	8363      	strh	r3, [r4, #26]
    6036:	b003      	add	sp, #12
    6038:	bd30      	pop	{r4, r5, pc}
    603a:	6aa3      	ldr	r3, [r4, #40]	; 0x28
    603c:	9300      	str	r3, [sp, #0]
    603e:	e7d9      	b.n	5ff4 <dhcp_bind+0x5c>
    6040:	f64f 73ff 	movw	r3, #65535	; 0xffff
    6044:	83e3      	strh	r3, [r4, #30]
    6046:	7ba3      	ldrb	r3, [r4, #14]
    6048:	2b00      	cmp	r3, #0
    604a:	d0cd      	beq.n	5fe8 <dhcp_bind+0x50>
    604c:	e7f5      	b.n	603a <dhcp_bind+0xa2>
    604e:	f64f 73ff 	movw	r3, #65535	; 0xffff
    6052:	83a3      	strh	r3, [r4, #28]
    6054:	e7b7      	b.n	5fc6 <dhcp_bind+0x2e>
    6056:	2bbf      	cmp	r3, #191	; 0xbf
    6058:	bf8c      	ite	hi
    605a:	f06f 437f 	mvnhi.w	r3, #4278190080	; 0xff000000
    605e:	f64f 73ff 	movwls	r3, #65535	; 0xffff
    6062:	9300      	str	r3, [sp, #0]
    6064:	e7c6      	b.n	5ff4 <dhcp_bind+0x5c>
    6066:	bf00      	nop
    6068:	88888889 	.word	0x88888889

0000606c <dhcp_option_long.isra.3>:
    606c:	880b      	ldrh	r3, [r1, #0]
    606e:	b430      	push	{r4, r5}
    6070:	6804      	ldr	r4, [r0, #0]
    6072:	1c5d      	adds	r5, r3, #1
    6074:	4423      	add	r3, r4
    6076:	0e14      	lsrs	r4, r2, #24
    6078:	800d      	strh	r5, [r1, #0]
    607a:	f883 40f0 	strb.w	r4, [r3, #240]	; 0xf0
    607e:	880b      	ldrh	r3, [r1, #0]
    6080:	6804      	ldr	r4, [r0, #0]
    6082:	1c5d      	adds	r5, r3, #1
    6084:	4423      	add	r3, r4
    6086:	f3c2 4407 	ubfx	r4, r2, #16, #8
    608a:	800d      	strh	r5, [r1, #0]
    608c:	f883 40f0 	strb.w	r4, [r3, #240]	; 0xf0
    6090:	880b      	ldrh	r3, [r1, #0]
    6092:	6804      	ldr	r4, [r0, #0]
    6094:	1c5d      	adds	r5, r3, #1
    6096:	4423      	add	r3, r4
    6098:	f3c2 2407 	ubfx	r4, r2, #8, #8
    609c:	800d      	strh	r5, [r1, #0]
    609e:	f883 40f0 	strb.w	r4, [r3, #240]	; 0xf0
    60a2:	880b      	ldrh	r3, [r1, #0]
    60a4:	6800      	ldr	r0, [r0, #0]
    60a6:	4418      	add	r0, r3
    60a8:	3301      	adds	r3, #1
    60aa:	800b      	strh	r3, [r1, #0]
    60ac:	f880 20f0 	strb.w	r2, [r0, #240]	; 0xf0
    60b0:	bc30      	pop	{r4, r5}
    60b2:	4770      	bx	lr

000060b4 <dhcp_select>:
    60b4:	e92d 43f0 	stmdb	sp!, {r4, r5, r6, r7, r8, r9, lr}
    60b8:	6a84      	ldr	r4, [r0, #40]	; 0x28
    60ba:	b083      	sub	sp, #12
    60bc:	7b23      	ldrb	r3, [r4, #12]
    60be:	4605      	mov	r5, r0
    60c0:	2b01      	cmp	r3, #1
    60c2:	d004      	beq.n	60ce <dhcp_select+0x1a>
    60c4:	2300      	movs	r3, #0
    60c6:	2201      	movs	r2, #1
    60c8:	7322      	strb	r2, [r4, #12]
    60ca:	7363      	strb	r3, [r4, #13]
    60cc:	8363      	strh	r3, [r4, #26]
    60ce:	4628      	mov	r0, r5
    60d0:	4621      	mov	r1, r4
    60d2:	2203      	movs	r2, #3
    60d4:	f7ff fd5e 	bl	5b94 <dhcp_create_msg>
    60d8:	4606      	mov	r6, r0
    60da:	b1e8      	cbz	r0, 6118 <dhcp_select+0x64>
    60dc:	7b63      	ldrb	r3, [r4, #13]
    60de:	3301      	adds	r3, #1
    60e0:	b2db      	uxtb	r3, r3
    60e2:	2b05      	cmp	r3, #5
    60e4:	7363      	strb	r3, [r4, #13]
    60e6:	d811      	bhi.n	610c <dhcp_select+0x58>
    60e8:	f44f 727a 	mov.w	r2, #1000	; 0x3e8
    60ec:	fa02 f303 	lsl.w	r3, r2, r3
    60f0:	4a64      	ldr	r2, [pc, #400]	; (6284 <dhcp_select+0x1d0>)
    60f2:	f203 13f3 	addw	r3, r3, #499	; 0x1f3
    60f6:	fb82 1203 	smull	r1, r2, r2, r3
    60fa:	17db      	asrs	r3, r3, #31
    60fc:	ebc3 1362 	rsb	r3, r3, r2, asr #5
    6100:	b29b      	uxth	r3, r3
    6102:	4630      	mov	r0, r6
    6104:	8363      	strh	r3, [r4, #26]
    6106:	b003      	add	sp, #12
    6108:	e8bd 83f0 	ldmia.w	sp!, {r4, r5, r6, r7, r8, r9, pc}
    610c:	2378      	movs	r3, #120	; 0x78
    610e:	4630      	mov	r0, r6
    6110:	8363      	strh	r3, [r4, #26]
    6112:	b003      	add	sp, #12
    6114:	e8bd 83f0 	ldmia.w	sp!, {r4, r5, r6, r7, r8, r9, pc}
    6118:	8b23      	ldrh	r3, [r4, #24]
    611a:	6962      	ldr	r2, [r4, #20]
    611c:	1c59      	adds	r1, r3, #1
    611e:	4413      	add	r3, r2
    6120:	2239      	movs	r2, #57	; 0x39
    6122:	8321      	strh	r1, [r4, #24]
    6124:	f883 20f0 	strb.w	r2, [r3, #240]	; 0xf0
    6128:	8b23      	ldrh	r3, [r4, #24]
    612a:	6962      	ldr	r2, [r4, #20]
    612c:	1c59      	adds	r1, r3, #1
    612e:	4413      	add	r3, r2
    6130:	2202      	movs	r2, #2
    6132:	8321      	strh	r1, [r4, #24]
    6134:	f883 20f0 	strb.w	r2, [r3, #240]	; 0xf0
    6138:	8b22      	ldrh	r2, [r4, #24]
    613a:	8e2b      	ldrh	r3, [r5, #48]	; 0x30
    613c:	6961      	ldr	r1, [r4, #20]
    613e:	1c50      	adds	r0, r2, #1
    6140:	440a      	add	r2, r1
    6142:	0a19      	lsrs	r1, r3, #8
    6144:	8320      	strh	r0, [r4, #24]
    6146:	f882 10f0 	strb.w	r1, [r2, #240]	; 0xf0
    614a:	8b22      	ldrh	r2, [r4, #24]
    614c:	6961      	ldr	r1, [r4, #20]
    614e:	1c50      	adds	r0, r2, #1
    6150:	440a      	add	r2, r1
    6152:	8320      	strh	r0, [r4, #24]
    6154:	f882 30f0 	strb.w	r3, [r2, #240]	; 0xf0
    6158:	8b23      	ldrh	r3, [r4, #24]
    615a:	6962      	ldr	r2, [r4, #20]
    615c:	1c59      	adds	r1, r3, #1
    615e:	4413      	add	r3, r2
    6160:	2232      	movs	r2, #50	; 0x32
    6162:	8321      	strh	r1, [r4, #24]
    6164:	f883 20f0 	strb.w	r2, [r3, #240]	; 0xf0
    6168:	8b23      	ldrh	r3, [r4, #24]
    616a:	6962      	ldr	r2, [r4, #20]
    616c:	2704      	movs	r7, #4
    616e:	1c59      	adds	r1, r3, #1
    6170:	4413      	add	r3, r2
    6172:	8321      	strh	r1, [r4, #24]
    6174:	f883 70f0 	strb.w	r7, [r3, #240]	; 0xf0
    6178:	6a62      	ldr	r2, [r4, #36]	; 0x24
    617a:	f104 0914 	add.w	r9, r4, #20
    617e:	f104 0818 	add.w	r8, r4, #24
    6182:	ba12      	rev	r2, r2
    6184:	4648      	mov	r0, r9
    6186:	4641      	mov	r1, r8
    6188:	f7ff ff70 	bl	606c <dhcp_option_long.isra.3>
    618c:	8b23      	ldrh	r3, [r4, #24]
    618e:	6962      	ldr	r2, [r4, #20]
    6190:	1c59      	adds	r1, r3, #1
    6192:	4413      	add	r3, r2
    6194:	2236      	movs	r2, #54	; 0x36
    6196:	8321      	strh	r1, [r4, #24]
    6198:	f883 20f0 	strb.w	r2, [r3, #240]	; 0xf0
    619c:	8b23      	ldrh	r3, [r4, #24]
    619e:	6962      	ldr	r2, [r4, #20]
    61a0:	1c59      	adds	r1, r3, #1
    61a2:	4413      	add	r3, r2
    61a4:	8321      	strh	r1, [r4, #24]
    61a6:	f883 70f0 	strb.w	r7, [r3, #240]	; 0xf0
    61aa:	6a22      	ldr	r2, [r4, #32]
    61ac:	4641      	mov	r1, r8
    61ae:	ba12      	rev	r2, r2
    61b0:	4648      	mov	r0, r9
    61b2:	f7ff ff5b 	bl	606c <dhcp_option_long.isra.3>
    61b6:	8b23      	ldrh	r3, [r4, #24]
    61b8:	6962      	ldr	r2, [r4, #20]
    61ba:	1c59      	adds	r1, r3, #1
    61bc:	4413      	add	r3, r2
    61be:	2237      	movs	r2, #55	; 0x37
    61c0:	8321      	strh	r1, [r4, #24]
    61c2:	f883 20f0 	strb.w	r2, [r3, #240]	; 0xf0
    61c6:	8b23      	ldrh	r3, [r4, #24]
    61c8:	6962      	ldr	r2, [r4, #20]
    61ca:	1c59      	adds	r1, r3, #1
    61cc:	4413      	add	r3, r2
    61ce:	8321      	strh	r1, [r4, #24]
    61d0:	f883 70f0 	strb.w	r7, [r3, #240]	; 0xf0
    61d4:	8b23      	ldrh	r3, [r4, #24]
    61d6:	6962      	ldr	r2, [r4, #20]
    61d8:	1c59      	adds	r1, r3, #1
    61da:	4413      	add	r3, r2
    61dc:	2201      	movs	r2, #1
    61de:	8321      	strh	r1, [r4, #24]
    61e0:	f883 20f0 	strb.w	r2, [r3, #240]	; 0xf0
    61e4:	8b23      	ldrh	r3, [r4, #24]
    61e6:	6962      	ldr	r2, [r4, #20]
    61e8:	1c59      	adds	r1, r3, #1
    61ea:	4413      	add	r3, r2
    61ec:	2203      	movs	r2, #3
    61ee:	8321      	strh	r1, [r4, #24]
    61f0:	f883 20f0 	strb.w	r2, [r3, #240]	; 0xf0
    61f4:	8b23      	ldrh	r3, [r4, #24]
    61f6:	6962      	ldr	r2, [r4, #20]
    61f8:	1c59      	adds	r1, r3, #1
    61fa:	4413      	add	r3, r2
    61fc:	221c      	movs	r2, #28
    61fe:	8321      	strh	r1, [r4, #24]
    6200:	f883 20f0 	strb.w	r2, [r3, #240]	; 0xf0
    6204:	8b23      	ldrh	r3, [r4, #24]
    6206:	6962      	ldr	r2, [r4, #20]
    6208:	1c59      	adds	r1, r3, #1
    620a:	4413      	add	r3, r2
    620c:	2206      	movs	r2, #6
    620e:	8321      	strh	r1, [r4, #24]
    6210:	f883 20f0 	strb.w	r2, [r3, #240]	; 0xf0
    6214:	6aef      	ldr	r7, [r5, #44]	; 0x2c
    6216:	b30f      	cbz	r7, 625c <dhcp_select+0x1a8>
    6218:	4638      	mov	r0, r7
    621a:	f006 f8b6 	bl	c38a <strlen>
    621e:	b2c0      	uxtb	r0, r0
    6220:	b1e0      	cbz	r0, 625c <dhcp_select+0x1a8>
    6222:	8b23      	ldrh	r3, [r4, #24]
    6224:	6962      	ldr	r2, [r4, #20]
    6226:	1c59      	adds	r1, r3, #1
    6228:	4413      	add	r3, r2
    622a:	220c      	movs	r2, #12
    622c:	8321      	strh	r1, [r4, #24]
    622e:	f883 20f0 	strb.w	r2, [r3, #240]	; 0xf0
    6232:	8b23      	ldrh	r3, [r4, #24]
    6234:	6962      	ldr	r2, [r4, #20]
    6236:	1c59      	adds	r1, r3, #1
    6238:	4413      	add	r3, r2
    623a:	8321      	strh	r1, [r4, #24]
    623c:	f883 00f0 	strb.w	r0, [r3, #240]	; 0xf0
    6240:	783b      	ldrb	r3, [r7, #0]
    6242:	b15b      	cbz	r3, 625c <dhcp_select+0x1a8>
    6244:	4638      	mov	r0, r7
    6246:	8b22      	ldrh	r2, [r4, #24]
    6248:	6961      	ldr	r1, [r4, #20]
    624a:	1c57      	adds	r7, r2, #1
    624c:	440a      	add	r2, r1
    624e:	8327      	strh	r7, [r4, #24]
    6250:	f882 30f0 	strb.w	r3, [r2, #240]	; 0xf0
    6254:	f810 3f01 	ldrb.w	r3, [r0, #1]!
    6258:	2b00      	cmp	r3, #0
    625a:	d1f4      	bne.n	6246 <dhcp_select+0x192>
    625c:	4620      	mov	r0, r4
    625e:	f7ff fc7f 	bl	5b60 <dhcp_option_trailer>
    6262:	8b21      	ldrh	r1, [r4, #24]
    6264:	6920      	ldr	r0, [r4, #16]
    6266:	31f0      	adds	r1, #240	; 0xf0
    6268:	b289      	uxth	r1, r1
    626a:	f7fb fb21 	bl	18b0 <pbuf_realloc>
    626e:	6860      	ldr	r0, [r4, #4]
    6270:	6921      	ldr	r1, [r4, #16]
    6272:	4a05      	ldr	r2, [pc, #20]	; (6288 <dhcp_select+0x1d4>)
    6274:	9500      	str	r5, [sp, #0]
    6276:	2343      	movs	r3, #67	; 0x43
    6278:	f002 f842 	bl	8300 <udp_sendto_if>
    627c:	4620      	mov	r0, r4
    627e:	f7ff fd47 	bl	5d10 <dhcp_delete_msg>
    6282:	e72b      	b.n	60dc <dhcp_select+0x28>
    6284:	10624dd3 	.word	0x10624dd3
    6288:	0000da28 	.word	0x0000da28

0000628c <dhcp_reboot>:
    628c:	b570      	push	{r4, r5, r6, lr}
    628e:	6a84      	ldr	r4, [r0, #40]	; 0x28
    6290:	b082      	sub	sp, #8
    6292:	7b23      	ldrb	r3, [r4, #12]
    6294:	4605      	mov	r5, r0
    6296:	2b03      	cmp	r3, #3
    6298:	d004      	beq.n	62a4 <dhcp_reboot+0x18>
    629a:	2300      	movs	r3, #0
    629c:	2203      	movs	r2, #3
    629e:	7322      	strb	r2, [r4, #12]
    62a0:	7363      	strb	r3, [r4, #13]
    62a2:	8363      	strh	r3, [r4, #26]
    62a4:	4628      	mov	r0, r5
    62a6:	4621      	mov	r1, r4
    62a8:	2203      	movs	r2, #3
    62aa:	f7ff fc73 	bl	5b94 <dhcp_create_msg>
    62ae:	4606      	mov	r6, r0
    62b0:	b1d0      	cbz	r0, 62e8 <dhcp_reboot+0x5c>
    62b2:	7b63      	ldrb	r3, [r4, #13]
    62b4:	3301      	adds	r3, #1
    62b6:	b2db      	uxtb	r3, r3
    62b8:	2b09      	cmp	r3, #9
    62ba:	7363      	strb	r3, [r4, #13]
    62bc:	d80f      	bhi.n	62de <dhcp_reboot+0x52>
    62be:	ebc3 1243 	rsb	r2, r3, r3, lsl #5
    62c2:	eb03 0382 	add.w	r3, r3, r2, lsl #2
    62c6:	00db      	lsls	r3, r3, #3
    62c8:	4a2d      	ldr	r2, [pc, #180]	; (6380 <dhcp_reboot+0xf4>)
    62ca:	b29b      	uxth	r3, r3
    62cc:	f203 13f3 	addw	r3, r3, #499	; 0x1f3
    62d0:	fb82 1303 	smull	r1, r3, r2, r3
    62d4:	4630      	mov	r0, r6
    62d6:	095b      	lsrs	r3, r3, #5
    62d8:	8363      	strh	r3, [r4, #26]
    62da:	b002      	add	sp, #8
    62dc:	bd70      	pop	{r4, r5, r6, pc}
    62de:	2314      	movs	r3, #20
    62e0:	4630      	mov	r0, r6
    62e2:	8363      	strh	r3, [r4, #26]
    62e4:	b002      	add	sp, #8
    62e6:	bd70      	pop	{r4, r5, r6, pc}
    62e8:	8b23      	ldrh	r3, [r4, #24]
    62ea:	6962      	ldr	r2, [r4, #20]
    62ec:	1c59      	adds	r1, r3, #1
    62ee:	4413      	add	r3, r2
    62f0:	2239      	movs	r2, #57	; 0x39
    62f2:	8321      	strh	r1, [r4, #24]
    62f4:	f883 20f0 	strb.w	r2, [r3, #240]	; 0xf0
    62f8:	8b23      	ldrh	r3, [r4, #24]
    62fa:	6962      	ldr	r2, [r4, #20]
    62fc:	1c59      	adds	r1, r3, #1
    62fe:	441a      	add	r2, r3
    6300:	2302      	movs	r3, #2
    6302:	8321      	strh	r1, [r4, #24]
    6304:	f882 30f0 	strb.w	r3, [r2, #240]	; 0xf0
    6308:	8b22      	ldrh	r2, [r4, #24]
    630a:	6961      	ldr	r1, [r4, #20]
    630c:	1c50      	adds	r0, r2, #1
    630e:	440a      	add	r2, r1
    6310:	8320      	strh	r0, [r4, #24]
    6312:	f882 30f0 	strb.w	r3, [r2, #240]	; 0xf0
    6316:	8b23      	ldrh	r3, [r4, #24]
    6318:	6962      	ldr	r2, [r4, #20]
    631a:	1c59      	adds	r1, r3, #1
    631c:	4413      	add	r3, r2
    631e:	2240      	movs	r2, #64	; 0x40
    6320:	8321      	strh	r1, [r4, #24]
    6322:	f883 20f0 	strb.w	r2, [r3, #240]	; 0xf0
    6326:	8b23      	ldrh	r3, [r4, #24]
    6328:	6962      	ldr	r2, [r4, #20]
    632a:	1c59      	adds	r1, r3, #1
    632c:	4413      	add	r3, r2
    632e:	2232      	movs	r2, #50	; 0x32
    6330:	8321      	strh	r1, [r4, #24]
    6332:	f883 20f0 	strb.w	r2, [r3, #240]	; 0xf0
    6336:	8b23      	ldrh	r3, [r4, #24]
    6338:	6962      	ldr	r2, [r4, #20]
    633a:	1c59      	adds	r1, r3, #1
    633c:	4413      	add	r3, r2
    633e:	2204      	movs	r2, #4
    6340:	8321      	strh	r1, [r4, #24]
    6342:	f883 20f0 	strb.w	r2, [r3, #240]	; 0xf0
    6346:	6a62      	ldr	r2, [r4, #36]	; 0x24
    6348:	f104 0118 	add.w	r1, r4, #24
    634c:	ba12      	rev	r2, r2
    634e:	f104 0014 	add.w	r0, r4, #20
    6352:	f7ff fe8b 	bl	606c <dhcp_option_long.isra.3>
    6356:	4620      	mov	r0, r4
    6358:	f7ff fc02 	bl	5b60 <dhcp_option_trailer>
    635c:	8b21      	ldrh	r1, [r4, #24]
    635e:	6920      	ldr	r0, [r4, #16]
    6360:	31f0      	adds	r1, #240	; 0xf0
    6362:	b289      	uxth	r1, r1
    6364:	f7fb faa4 	bl	18b0 <pbuf_realloc>
    6368:	6860      	ldr	r0, [r4, #4]
    636a:	6921      	ldr	r1, [r4, #16]
    636c:	4a05      	ldr	r2, [pc, #20]	; (6384 <dhcp_reboot+0xf8>)
    636e:	9500      	str	r5, [sp, #0]
    6370:	2343      	movs	r3, #67	; 0x43
    6372:	f001 ffc5 	bl	8300 <udp_sendto_if>
    6376:	4620      	mov	r0, r4
    6378:	f7ff fcca 	bl	5d10 <dhcp_delete_msg>
    637c:	e799      	b.n	62b2 <dhcp_reboot+0x26>
    637e:	bf00      	nop
    6380:	10624dd3 	.word	0x10624dd3
    6384:	0000da28 	.word	0x0000da28

00006388 <dhcp_recv>:
    6388:	e92d 4ff0 	stmdb	sp!, {r4, r5, r6, r7, r8, r9, r10, r11, lr}
    638c:	8953      	ldrh	r3, [r2, #10]
    638e:	b08b      	sub	sp, #44	; 0x2c
    6390:	9005      	str	r0, [sp, #20]
    6392:	6a80      	ldr	r0, [r0, #40]	; 0x28
    6394:	2b2b      	cmp	r3, #43	; 0x2b
    6396:	9203      	str	r2, [sp, #12]
    6398:	9006      	str	r0, [sp, #24]
    639a:	6856      	ldr	r6, [r2, #4]
    639c:	d902      	bls.n	63a4 <dhcp_recv+0x1c>
    639e:	7832      	ldrb	r2, [r6, #0]
    63a0:	2a02      	cmp	r2, #2
    63a2:	d008      	beq.n	63b6 <dhcp_recv+0x2e>
    63a4:	9906      	ldr	r1, [sp, #24]
    63a6:	2300      	movs	r3, #0
    63a8:	9803      	ldr	r0, [sp, #12]
    63aa:	608b      	str	r3, [r1, #8]
    63ac:	f7fb f9b6 	bl	171c <pbuf_free>
    63b0:	b00b      	add	sp, #44	; 0x2c
    63b2:	e8bd 8ff0 	ldmia.w	sp!, {r4, r5, r6, r7, r8, r9, r10, r11, pc}
    63b6:	9905      	ldr	r1, [sp, #20]
    63b8:	f891 2032 	ldrb.w	r2, [r1, #50]	; 0x32
    63bc:	b1a2      	cbz	r2, 63e8 <dhcp_recv+0x60>
    63be:	f891 0033 	ldrb.w	r0, [r1, #51]	; 0x33
    63c2:	7f31      	ldrb	r1, [r6, #28]
    63c4:	4288      	cmp	r0, r1
    63c6:	d1ed      	bne.n	63a4 <dhcp_recv+0x1c>
    63c8:	3a01      	subs	r2, #1
    63ca:	b2d5      	uxtb	r5, r2
    63cc:	9a05      	ldr	r2, [sp, #20]
    63ce:	4631      	mov	r1, r6
    63d0:	4415      	add	r5, r2
    63d2:	e007      	b.n	63e4 <dhcp_recv+0x5c>
    63d4:	f892 4034 	ldrb.w	r4, [r2, #52]	; 0x34
    63d8:	7f48      	ldrb	r0, [r1, #29]
    63da:	3201      	adds	r2, #1
    63dc:	4284      	cmp	r4, r0
    63de:	f101 0101 	add.w	r1, r1, #1
    63e2:	d1df      	bne.n	63a4 <dhcp_recv+0x1c>
    63e4:	42aa      	cmp	r2, r5
    63e6:	d1f5      	bne.n	63d4 <dhcp_recv+0x4c>
    63e8:	9806      	ldr	r0, [sp, #24]
    63ea:	6871      	ldr	r1, [r6, #4]
    63ec:	6802      	ldr	r2, [r0, #0]
    63ee:	ba09      	rev	r1, r1
    63f0:	428a      	cmp	r2, r1
    63f2:	d1d7      	bne.n	63a4 <dhcp_recv+0x1c>
    63f4:	f8df b370 	ldr.w	r11, [pc, #880]	; 6768 <dhcp_recv+0x3e0>
    63f8:	2200      	movs	r2, #0
    63fa:	9803      	ldr	r0, [sp, #12]
    63fc:	f8ab 2008 	strh.w	r2, [r11, #8]
    6400:	f8cb 2000 	str.w	r2, [r11]
    6404:	f8cb 2004 	str.w	r2, [r11, #4]
    6408:	6841      	ldr	r1, [r0, #4]
    640a:	8900      	ldrh	r0, [r0, #8]
    640c:	9001      	str	r0, [sp, #4]
    640e:	9806      	ldr	r0, [sp, #24]
    6410:	6081      	str	r1, [r0, #8]
    6412:	9903      	ldr	r1, [sp, #12]
    6414:	2900      	cmp	r1, #0
    6416:	d0c5      	beq.n	63a4 <dhcp_recv+0x1c>
    6418:	9207      	str	r2, [sp, #28]
    641a:	f04f 0af0 	mov.w	r10, #240	; 0xf0
    641e:	459a      	cmp	r10, r3
    6420:	f8dd 900c 	ldr.w	r9, [sp, #12]
    6424:	d311      	bcc.n	644a <dhcp_recv+0xc2>
    6426:	464a      	mov	r2, r9
    6428:	9901      	ldr	r1, [sp, #4]
    642a:	e002      	b.n	6432 <dhcp_recv+0xaa>
    642c:	8953      	ldrh	r3, [r2, #10]
    642e:	4553      	cmp	r3, r10
    6430:	d809      	bhi.n	6446 <dhcp_recv+0xbe>
    6432:	6812      	ldr	r2, [r2, #0]
    6434:	ebc3 0a0a 	rsb	r10, r3, r10
    6438:	1ac9      	subs	r1, r1, r3
    643a:	fa1f fa8a 	uxth.w	r10, r10
    643e:	b289      	uxth	r1, r1
    6440:	2a00      	cmp	r2, #0
    6442:	d1f3      	bne.n	642c <dhcp_recv+0xa4>
    6444:	e7ae      	b.n	63a4 <dhcp_recv+0x1c>
    6446:	4691      	mov	r9, r2
    6448:	9101      	str	r1, [sp, #4]
    644a:	f8d9 2004 	ldr.w	r2, [r9, #4]
    644e:	464f      	mov	r7, r9
    6450:	9202      	str	r2, [sp, #8]
    6452:	9902      	ldr	r1, [sp, #8]
    6454:	f811 200a 	ldrb.w	r2, [r1, r10]
    6458:	2aff      	cmp	r2, #255	; 0xff
    645a:	d07b      	beq.n	6554 <dhcp_recv+0x1cc>
    645c:	9b01      	ldr	r3, [sp, #4]
    645e:	459a      	cmp	r10, r3
    6460:	d278      	bcs.n	6554 <dhcp_recv+0x1cc>
    6462:	897b      	ldrh	r3, [r7, #10]
    6464:	f10a 0101 	add.w	r1, r10, #1
    6468:	f10a 0502 	add.w	r5, r10, #2
    646c:	4299      	cmp	r1, r3
    646e:	b2ad      	uxth	r5, r5
    6470:	f280 80bb 	bge.w	65ea <dhcp_recv+0x262>
    6474:	9802      	ldr	r0, [sp, #8]
    6476:	4482      	add	r10, r0
    6478:	f89a a001 	ldrb.w	r10, [r10, #1]
    647c:	2a3b      	cmp	r2, #59	; 0x3b
    647e:	f200 809c 	bhi.w	65ba <dhcp_recv+0x232>
    6482:	e8df f002 	tbb	[pc, r2]
    6486:	9397      	.short	0x9397
    6488:	9a9a8a9a 	.word	0x9a9a8a9a
    648c:	9a9a9a81 	.word	0x9a9a9a81
    6490:	9a9a9a9a 	.word	0x9a9a9a9a
    6494:	9a9a9a9a 	.word	0x9a9a9a9a
    6498:	9a9a9a9a 	.word	0x9a9a9a9a
    649c:	9a9a9a9a 	.word	0x9a9a9a9a
    64a0:	9a9a9a9a 	.word	0x9a9a9a9a
    64a4:	9a9a9a9a 	.word	0x9a9a9a9a
    64a8:	9a9a9a9a 	.word	0x9a9a9a9a
    64ac:	9a9a9a9a 	.word	0x9a9a9a9a
    64b0:	9a9a9a9a 	.word	0x9a9a9a9a
    64b4:	9a9a9a9a 	.word	0x9a9a9a9a
    64b8:	aaae1e9a 	.word	0xaaae1e9a
    64bc:	9a9a9aa6 	.word	0x9a9a9aa6
    64c0:	9ea2      	.short	0x9ea2
    64c2:	4654      	mov	r4, r10
    64c4:	f04f 0903 	mov.w	r9, #3
    64c8:	44aa      	add	r10, r5
    64ca:	fa1f fa8a 	uxth.w	r10, r10
    64ce:	b38c      	cbz	r4, 6534 <dhcp_recv+0x1ac>
    64d0:	2300      	movs	r3, #0
    64d2:	2c03      	cmp	r4, #3
    64d4:	9309      	str	r3, [sp, #36]	; 0x24
    64d6:	f240 80bf 	bls.w	6658 <dhcp_recv+0x2d0>
    64da:	4ba2      	ldr	r3, [pc, #648]	; (6764 <dhcp_recv+0x3dc>)
    64dc:	f109 36ff 	add.w	r6, r9, #4294967295	; 0xffffffff
    64e0:	eb03 0686 	add.w	r6, r3, r6, lsl #2
    64e4:	9304      	str	r3, [sp, #16]
    64e6:	f10d 0824 	add.w	r8, sp, #36	; 0x24
    64ea:	e00c      	b.n	6506 <dhcp_recv+0x17e>
    64ec:	9b09      	ldr	r3, [sp, #36]	; 0x24
    64ee:	f04f 0201 	mov.w	r2, #1
    64f2:	ba1b      	rev	r3, r3
    64f4:	2c03      	cmp	r4, #3
    64f6:	f80b 2009 	strb.w	r2, [r11, r9]
    64fa:	f846 3f04 	str.w	r3, [r6, #4]!
    64fe:	f109 0901 	add.w	r9, r9, #1
    6502:	f240 80ad 	bls.w	6660 <dhcp_recv+0x2d8>
    6506:	462b      	mov	r3, r5
    6508:	4638      	mov	r0, r7
    650a:	4641      	mov	r1, r8
    650c:	2204      	movs	r2, #4
    650e:	f7fb fa81 	bl	1a14 <pbuf_copy_partial>
    6512:	3504      	adds	r5, #4
    6514:	1f23      	subs	r3, r4, #4
    6516:	2c04      	cmp	r4, #4
    6518:	b2ad      	uxth	r5, r5
    651a:	b2dc      	uxtb	r4, r3
    651c:	d8e6      	bhi.n	64ec <dhcp_recv+0x164>
    651e:	d06a      	beq.n	65f6 <dhcp_recv+0x26e>
    6520:	f89d 2024 	ldrb.w	r2, [sp, #36]	; 0x24
    6524:	9904      	ldr	r1, [sp, #16]
    6526:	f04f 0001 	mov.w	r0, #1
    652a:	897b      	ldrh	r3, [r7, #10]
    652c:	f80b 0009 	strb.w	r0, [r11, r9]
    6530:	f841 2029 	str.w	r2, [r1, r9, lsl #2]
    6534:	4553      	cmp	r3, r10
    6536:	d80a      	bhi.n	654e <dhcp_recv+0x1c6>
    6538:	9a01      	ldr	r2, [sp, #4]
    653a:	683f      	ldr	r7, [r7, #0]
    653c:	ebc3 0a0a 	rsb	r10, r3, r10
    6540:	6878      	ldr	r0, [r7, #4]
    6542:	1ad3      	subs	r3, r2, r3
    6544:	b29b      	uxth	r3, r3
    6546:	9002      	str	r0, [sp, #8]
    6548:	fa1f fa8a 	uxth.w	r10, r10
    654c:	9301      	str	r3, [sp, #4]
    654e:	2f00      	cmp	r7, #0
    6550:	f47f af7f 	bne.w	6452 <dhcp_recv+0xca>
    6554:	f89b 3000 	ldrb.w	r3, [r11]
    6558:	b153      	cbz	r3, 6570 <dhcp_recv+0x1e8>
    655a:	4882      	ldr	r0, [pc, #520]	; (6764 <dhcp_recv+0x3dc>)
    655c:	4982      	ldr	r1, [pc, #520]	; (6768 <dhcp_recv+0x3e0>)
    655e:	6803      	ldr	r3, [r0, #0]
    6560:	2200      	movs	r2, #0
    6562:	2b01      	cmp	r3, #1
    6564:	700a      	strb	r2, [r1, #0]
    6566:	d04d      	beq.n	6604 <dhcp_recv+0x27c>
    6568:	2b02      	cmp	r3, #2
    656a:	d004      	beq.n	6576 <dhcp_recv+0x1ee>
    656c:	2b03      	cmp	r3, #3
    656e:	d047      	beq.n	6600 <dhcp_recv+0x278>
    6570:	9b07      	ldr	r3, [sp, #28]
    6572:	2b00      	cmp	r3, #0
    6574:	d04b      	beq.n	660e <dhcp_recv+0x286>
    6576:	2200      	movs	r2, #0
    6578:	236c      	movs	r3, #108	; 0x6c
    657a:	9207      	str	r2, [sp, #28]
    657c:	9301      	str	r3, [sp, #4]
    657e:	f04f 0a2c 	mov.w	r10, #44	; 0x2c
    6582:	9803      	ldr	r0, [sp, #12]
    6584:	8943      	ldrh	r3, [r0, #10]
    6586:	e74a      	b.n	641e <dhcp_recv+0x96>
    6588:	f1ba 0f08 	cmp.w	r10, #8
    658c:	bf34      	ite	cc
    658e:	4654      	movcc	r4, r10
    6590:	2408      	movcs	r4, #8
    6592:	b2e4      	uxtb	r4, r4
    6594:	f04f 0908 	mov.w	r9, #8
    6598:	e796      	b.n	64c8 <dhcp_recv+0x140>
    659a:	44aa      	add	r10, r5
    659c:	2300      	movs	r3, #0
    659e:	fa1f fa8a 	uxth.w	r10, r10
    65a2:	9309      	str	r3, [sp, #36]	; 0x24
    65a4:	f04f 0907 	mov.w	r9, #7
    65a8:	2404      	movs	r4, #4
    65aa:	e796      	b.n	64da <dhcp_recv+0x152>
    65ac:	4654      	mov	r4, r10
    65ae:	f04f 0906 	mov.w	r9, #6
    65b2:	e789      	b.n	64c8 <dhcp_recv+0x140>
    65b4:	b28d      	uxth	r5, r1
    65b6:	f04f 0a00 	mov.w	r10, #0
    65ba:	44aa      	add	r10, r5
    65bc:	fa1f fa8a 	uxth.w	r10, r10
    65c0:	e7b8      	b.n	6534 <dhcp_recv+0x1ac>
    65c2:	4654      	mov	r4, r10
    65c4:	f04f 0905 	mov.w	r9, #5
    65c8:	e77e      	b.n	64c8 <dhcp_recv+0x140>
    65ca:	4654      	mov	r4, r10
    65cc:	f04f 0904 	mov.w	r9, #4
    65d0:	e77a      	b.n	64c8 <dhcp_recv+0x140>
    65d2:	4654      	mov	r4, r10
    65d4:	f04f 0902 	mov.w	r9, #2
    65d8:	e776      	b.n	64c8 <dhcp_recv+0x140>
    65da:	4654      	mov	r4, r10
    65dc:	f04f 0901 	mov.w	r9, #1
    65e0:	e772      	b.n	64c8 <dhcp_recv+0x140>
    65e2:	4654      	mov	r4, r10
    65e4:	f04f 0900 	mov.w	r9, #0
    65e8:	e76e      	b.n	64c8 <dhcp_recv+0x140>
    65ea:	6838      	ldr	r0, [r7, #0]
    65ec:	b130      	cbz	r0, 65fc <dhcp_recv+0x274>
    65ee:	6840      	ldr	r0, [r0, #4]
    65f0:	f890 a000 	ldrb.w	r10, [r0]
    65f4:	e742      	b.n	647c <dhcp_recv+0xf4>
    65f6:	9a09      	ldr	r2, [sp, #36]	; 0x24
    65f8:	ba12      	rev	r2, r2
    65fa:	e793      	b.n	6524 <dhcp_recv+0x19c>
    65fc:	4682      	mov	r10, r0
    65fe:	e73d      	b.n	647c <dhcp_recv+0xf4>
    6600:	2101      	movs	r1, #1
    6602:	9107      	str	r1, [sp, #28]
    6604:	22ec      	movs	r2, #236	; 0xec
    6606:	9201      	str	r2, [sp, #4]
    6608:	f04f 0a6c 	mov.w	r10, #108	; 0x6c
    660c:	e7b9      	b.n	6582 <dhcp_recv+0x1fa>
    660e:	f89b 3001 	ldrb.w	r3, [r11, #1]
    6612:	4955      	ldr	r1, [pc, #340]	; (6768 <dhcp_recv+0x3e0>)
    6614:	2b00      	cmp	r3, #0
    6616:	f43f aec5 	beq.w	63a4 <dhcp_recv+0x1c>
    661a:	4a52      	ldr	r2, [pc, #328]	; (6764 <dhcp_recv+0x3dc>)
    661c:	7913      	ldrb	r3, [r2, #4]
    661e:	2b05      	cmp	r3, #5
    6620:	d049      	beq.n	66b6 <dhcp_recv+0x32e>
    6622:	2b06      	cmp	r3, #6
    6624:	d023      	beq.n	666e <dhcp_recv+0x2e6>
    6626:	2b02      	cmp	r3, #2
    6628:	f47f aebc 	bne.w	63a4 <dhcp_recv+0x1c>
    662c:	9806      	ldr	r0, [sp, #24]
    662e:	7b03      	ldrb	r3, [r0, #12]
    6630:	2b06      	cmp	r3, #6
    6632:	f47f aeb7 	bne.w	63a4 <dhcp_recv+0x1c>
    6636:	9b07      	ldr	r3, [sp, #28]
    6638:	7889      	ldrb	r1, [r1, #2]
    663a:	8343      	strh	r3, [r0, #26]
    663c:	9805      	ldr	r0, [sp, #20]
    663e:	6a83      	ldr	r3, [r0, #40]	; 0x28
    6640:	2900      	cmp	r1, #0
    6642:	f43f aeaf 	beq.w	63a4 <dhcp_recv+0x1c>
    6646:	6891      	ldr	r1, [r2, #8]
    6648:	689a      	ldr	r2, [r3, #8]
    664a:	ba09      	rev	r1, r1
    664c:	6219      	str	r1, [r3, #32]
    664e:	6912      	ldr	r2, [r2, #16]
    6650:	625a      	str	r2, [r3, #36]	; 0x24
    6652:	f7ff fd2f 	bl	60b4 <dhcp_select>
    6656:	e6a5      	b.n	63a4 <dhcp_recv+0x1c>
    6658:	4942      	ldr	r1, [pc, #264]	; (6764 <dhcp_recv+0x3dc>)
    665a:	f10d 0824 	add.w	r8, sp, #36	; 0x24
    665e:	9104      	str	r1, [sp, #16]
    6660:	4641      	mov	r1, r8
    6662:	4622      	mov	r2, r4
    6664:	462b      	mov	r3, r5
    6666:	4638      	mov	r0, r7
    6668:	f7fb f9d4 	bl	1a14 <pbuf_copy_partial>
    666c:	e758      	b.n	6520 <dhcp_recv+0x198>
    666e:	9906      	ldr	r1, [sp, #24]
    6670:	7b0b      	ldrb	r3, [r1, #12]
    6672:	1eda      	subs	r2, r3, #3
    6674:	2a02      	cmp	r2, #2
    6676:	d902      	bls.n	667e <dhcp_recv+0x2f6>
    6678:	2b01      	cmp	r3, #1
    667a:	f47f ae93 	bne.w	63a4 <dhcp_recv+0x1c>
    667e:	9805      	ldr	r0, [sp, #20]
    6680:	6a84      	ldr	r4, [r0, #40]	; 0x28
    6682:	f7fa ff9f 	bl	15c4 <netif_set_down>
    6686:	9805      	ldr	r0, [sp, #20]
    6688:	4938      	ldr	r1, [pc, #224]	; (676c <dhcp_recv+0x3e4>)
    668a:	f7fa fef3 	bl	1474 <netif_set_ipaddr>
    668e:	9805      	ldr	r0, [sp, #20]
    6690:	4936      	ldr	r1, [pc, #216]	; (676c <dhcp_recv+0x3e4>)
    6692:	f7fa ff67 	bl	1564 <netif_set_gw>
    6696:	9805      	ldr	r0, [sp, #20]
    6698:	4934      	ldr	r1, [pc, #208]	; (676c <dhcp_recv+0x3e4>)
    669a:	f7fa ff67 	bl	156c <netif_set_netmask>
    669e:	7b23      	ldrb	r3, [r4, #12]
    66a0:	2b0c      	cmp	r3, #12
    66a2:	d004      	beq.n	66ae <dhcp_recv+0x326>
    66a4:	2300      	movs	r3, #0
    66a6:	220c      	movs	r2, #12
    66a8:	7322      	strb	r2, [r4, #12]
    66aa:	7363      	strb	r3, [r4, #13]
    66ac:	8363      	strh	r3, [r4, #26]
    66ae:	9805      	ldr	r0, [sp, #20]
    66b0:	f7ff fbc4 	bl	5e3c <dhcp_discover>
    66b4:	e676      	b.n	63a4 <dhcp_recv+0x1c>
    66b6:	9806      	ldr	r0, [sp, #24]
    66b8:	7b03      	ldrb	r3, [r0, #12]
    66ba:	2b01      	cmp	r3, #1
    66bc:	d007      	beq.n	66ce <dhcp_recv+0x346>
    66be:	3b03      	subs	r3, #3
    66c0:	2b02      	cmp	r3, #2
    66c2:	f63f ae6f 	bhi.w	63a4 <dhcp_recv+0x1c>
    66c6:	9805      	ldr	r0, [sp, #20]
    66c8:	f7ff fc66 	bl	5f98 <dhcp_bind>
    66cc:	e66a      	b.n	63a4 <dhcp_recv+0x1c>
    66ce:	9805      	ldr	r0, [sp, #20]
    66d0:	78c9      	ldrb	r1, [r1, #3]
    66d2:	6a83      	ldr	r3, [r0, #40]	; 0x28
    66d4:	9807      	ldr	r0, [sp, #28]
    66d6:	6298      	str	r0, [r3, #40]	; 0x28
    66d8:	62d8      	str	r0, [r3, #44]	; 0x2c
    66da:	b109      	cbz	r1, 66e0 <dhcp_recv+0x358>
    66dc:	68d1      	ldr	r1, [r2, #12]
    66de:	6319      	str	r1, [r3, #48]	; 0x30
    66e0:	f89b 1004 	ldrb.w	r1, [r11, #4]
    66e4:	2900      	cmp	r1, #0
    66e6:	d038      	beq.n	675a <dhcp_recv+0x3d2>
    66e8:	6911      	ldr	r1, [r2, #16]
    66ea:	6359      	str	r1, [r3, #52]	; 0x34
    66ec:	f89b 1005 	ldrb.w	r1, [r11, #5]
    66f0:	2900      	cmp	r1, #0
    66f2:	d02f      	beq.n	6754 <dhcp_recv+0x3cc>
    66f4:	6951      	ldr	r1, [r2, #20]
    66f6:	6399      	str	r1, [r3, #56]	; 0x38
    66f8:	6898      	ldr	r0, [r3, #8]
    66fa:	f89b 1006 	ldrb.w	r1, [r11, #6]
    66fe:	6900      	ldr	r0, [r0, #16]
    6700:	6258      	str	r0, [r3, #36]	; 0x24
    6702:	b329      	cbz	r1, 6750 <dhcp_recv+0x3c8>
    6704:	6991      	ldr	r1, [r2, #24]
    6706:	2001      	movs	r0, #1
    6708:	ba09      	rev	r1, r1
    670a:	6299      	str	r1, [r3, #40]	; 0x28
    670c:	7398      	strb	r0, [r3, #14]
    670e:	f89b 1007 	ldrb.w	r1, [r11, #7]
    6712:	b111      	cbz	r1, 671a <dhcp_recv+0x392>
    6714:	69d1      	ldr	r1, [r2, #28]
    6716:	ba09      	rev	r1, r1
    6718:	62d9      	str	r1, [r3, #44]	; 0x2c
    671a:	f89b 3008 	ldrb.w	r3, [r11, #8]
    671e:	4d12      	ldr	r5, [pc, #72]	; (6768 <dhcp_recv+0x3e0>)
    6720:	b193      	cbz	r3, 6748 <dhcp_recv+0x3c0>
    6722:	6a13      	ldr	r3, [r2, #32]
    6724:	ac0a      	add	r4, sp, #40	; 0x28
    6726:	ba1b      	rev	r3, r3
    6728:	f844 3d04 	str.w	r3, [r4, #-4]!
    672c:	4621      	mov	r1, r4
    672e:	2000      	movs	r0, #0
    6730:	f000 fc5a 	bl	6fe8 <dns_setserver>
    6734:	7a6a      	ldrb	r2, [r5, #9]
    6736:	4b0b      	ldr	r3, [pc, #44]	; (6764 <dhcp_recv+0x3dc>)
    6738:	b132      	cbz	r2, 6748 <dhcp_recv+0x3c0>
    673a:	6a5b      	ldr	r3, [r3, #36]	; 0x24
    673c:	4621      	mov	r1, r4
    673e:	ba1b      	rev	r3, r3
    6740:	2001      	movs	r0, #1
    6742:	9309      	str	r3, [sp, #36]	; 0x24
    6744:	f000 fc50 	bl	6fe8 <dns_setserver>
    6748:	9805      	ldr	r0, [sp, #20]
    674a:	f7ff fc0f 	bl	5f6c <dhcp_check>
    674e:	e629      	b.n	63a4 <dhcp_recv+0x1c>
    6750:	7399      	strb	r1, [r3, #14]
    6752:	e7dc      	b.n	670e <dhcp_recv+0x386>
    6754:	6b19      	ldr	r1, [r3, #48]	; 0x30
    6756:	6399      	str	r1, [r3, #56]	; 0x38
    6758:	e7ce      	b.n	66f8 <dhcp_recv+0x370>
    675a:	6b19      	ldr	r1, [r3, #48]	; 0x30
    675c:	0849      	lsrs	r1, r1, #1
    675e:	6359      	str	r1, [r3, #52]	; 0x34
    6760:	e7c4      	b.n	66ec <dhcp_recv+0x364>
    6762:	bf00      	nop
    6764:	10001004 	.word	0x10001004
    6768:	10000ff8 	.word	0x10000ff8
    676c:	0000da2c 	.word	0x0000da2c

00006770 <dhcp_network_changed>:
    6770:	b538      	push	{r3, r4, r5, lr}
    6772:	6a84      	ldr	r4, [r0, #40]	; 0x28
    6774:	4605      	mov	r5, r0
    6776:	b154      	cbz	r4, 678e <dhcp_network_changed+0x1e>
    6778:	7b23      	ldrb	r3, [r4, #12]
    677a:	2b0a      	cmp	r3, #10
    677c:	d811      	bhi.n	67a2 <dhcp_network_changed+0x32>
    677e:	e8df f003 	tbb	[pc, r3]
    6782:	1006      	.short	0x1006
    6784:	07070710 	.word	0x07070710
    6788:	10101010 	.word	0x10101010
    678c:	07          	.byte	0x07
    678d:	00          	.byte	0x00
    678e:	bd38      	pop	{r3, r4, r5, pc}
    6790:	f7fa ff18 	bl	15c4 <netif_set_down>
    6794:	2300      	movs	r3, #0
    6796:	7363      	strb	r3, [r4, #13]
    6798:	4628      	mov	r0, r5
    679a:	e8bd 4038 	ldmia.w	sp!, {r3, r4, r5, lr}
    679e:	f7ff bd75 	b.w	628c <dhcp_reboot>
    67a2:	2300      	movs	r3, #0
    67a4:	7363      	strb	r3, [r4, #13]
    67a6:	e8bd 4038 	ldmia.w	sp!, {r3, r4, r5, lr}
    67aa:	f7ff bb47 	b.w	5e3c <dhcp_discover>
    67ae:	bf00      	nop

000067b0 <dhcp_arp_reply>:
    67b0:	b530      	push	{r4, r5, lr}
    67b2:	4605      	mov	r5, r0
    67b4:	b083      	sub	sp, #12
    67b6:	b120      	cbz	r0, 67c2 <dhcp_arp_reply+0x12>
    67b8:	6a84      	ldr	r4, [r0, #40]	; 0x28
    67ba:	b114      	cbz	r4, 67c2 <dhcp_arp_reply+0x12>
    67bc:	7b23      	ldrb	r3, [r4, #12]
    67be:	2b08      	cmp	r3, #8
    67c0:	d001      	beq.n	67c6 <dhcp_arp_reply+0x16>
    67c2:	b003      	add	sp, #12
    67c4:	bd30      	pop	{r4, r5, pc}
    67c6:	680a      	ldr	r2, [r1, #0]
    67c8:	6a63      	ldr	r3, [r4, #36]	; 0x24
    67ca:	429a      	cmp	r2, r3
    67cc:	d1f9      	bne.n	67c2 <dhcp_arp_reply+0x12>
    67ce:	220c      	movs	r2, #12
    67d0:	2300      	movs	r3, #0
    67d2:	7322      	strb	r2, [r4, #12]
    67d4:	7363      	strb	r3, [r4, #13]
    67d6:	8363      	strh	r3, [r4, #26]
    67d8:	4621      	mov	r1, r4
    67da:	2204      	movs	r2, #4
    67dc:	f7ff f9da 	bl	5b94 <dhcp_create_msg>
    67e0:	b128      	cbz	r0, 67ee <dhcp_arp_reply+0x3e>
    67e2:	7b62      	ldrb	r2, [r4, #13]
    67e4:	2314      	movs	r3, #20
    67e6:	3201      	adds	r2, #1
    67e8:	7362      	strb	r2, [r4, #13]
    67ea:	8363      	strh	r3, [r4, #26]
    67ec:	e7e9      	b.n	67c2 <dhcp_arp_reply+0x12>
    67ee:	8b23      	ldrh	r3, [r4, #24]
    67f0:	6962      	ldr	r2, [r4, #20]
    67f2:	1c59      	adds	r1, r3, #1
    67f4:	4413      	add	r3, r2
    67f6:	2232      	movs	r2, #50	; 0x32
    67f8:	8321      	strh	r1, [r4, #24]
    67fa:	f883 20f0 	strb.w	r2, [r3, #240]	; 0xf0
    67fe:	8b23      	ldrh	r3, [r4, #24]
    6800:	6962      	ldr	r2, [r4, #20]
    6802:	1c59      	adds	r1, r3, #1
    6804:	4413      	add	r3, r2
    6806:	2204      	movs	r2, #4
    6808:	8321      	strh	r1, [r4, #24]
    680a:	f883 20f0 	strb.w	r2, [r3, #240]	; 0xf0
    680e:	6a62      	ldr	r2, [r4, #36]	; 0x24
    6810:	f104 0118 	add.w	r1, r4, #24
    6814:	ba12      	rev	r2, r2
    6816:	f104 0014 	add.w	r0, r4, #20
    681a:	f7ff fc27 	bl	606c <dhcp_option_long.isra.3>
    681e:	4620      	mov	r0, r4
    6820:	f7ff f99e 	bl	5b60 <dhcp_option_trailer>
    6824:	8b21      	ldrh	r1, [r4, #24]
    6826:	6920      	ldr	r0, [r4, #16]
    6828:	31f0      	adds	r1, #240	; 0xf0
    682a:	b289      	uxth	r1, r1
    682c:	f7fb f840 	bl	18b0 <pbuf_realloc>
    6830:	6860      	ldr	r0, [r4, #4]
    6832:	6921      	ldr	r1, [r4, #16]
    6834:	4a04      	ldr	r2, [pc, #16]	; (6848 <dhcp_arp_reply+0x98>)
    6836:	9500      	str	r5, [sp, #0]
    6838:	2343      	movs	r3, #67	; 0x43
    683a:	f001 fd61 	bl	8300 <udp_sendto_if>
    683e:	4620      	mov	r0, r4
    6840:	f7ff fa66 	bl	5d10 <dhcp_delete_msg>
    6844:	e7cd      	b.n	67e2 <dhcp_arp_reply+0x32>
    6846:	bf00      	nop
    6848:	0000da28 	.word	0x0000da28

0000684c <dhcp_renew>:
    684c:	b5f0      	push	{r4, r5, r6, r7, lr}
    684e:	6a84      	ldr	r4, [r0, #40]	; 0x28
    6850:	b083      	sub	sp, #12
    6852:	7b23      	ldrb	r3, [r4, #12]
    6854:	4605      	mov	r5, r0
    6856:	2b05      	cmp	r3, #5
    6858:	d004      	beq.n	6864 <dhcp_renew+0x18>
    685a:	2300      	movs	r3, #0
    685c:	2205      	movs	r2, #5
    685e:	7322      	strb	r2, [r4, #12]
    6860:	7363      	strb	r3, [r4, #13]
    6862:	8363      	strh	r3, [r4, #26]
    6864:	4628      	mov	r0, r5
    6866:	4621      	mov	r1, r4
    6868:	2203      	movs	r2, #3
    686a:	f7ff f993 	bl	5b94 <dhcp_create_msg>
    686e:	4607      	mov	r7, r0
    6870:	2800      	cmp	r0, #0
    6872:	d157      	bne.n	6924 <dhcp_renew+0xd8>
    6874:	8b23      	ldrh	r3, [r4, #24]
    6876:	6962      	ldr	r2, [r4, #20]
    6878:	1c59      	adds	r1, r3, #1
    687a:	4413      	add	r3, r2
    687c:	2239      	movs	r2, #57	; 0x39
    687e:	8321      	strh	r1, [r4, #24]
    6880:	f883 20f0 	strb.w	r2, [r3, #240]	; 0xf0
    6884:	8b23      	ldrh	r3, [r4, #24]
    6886:	6962      	ldr	r2, [r4, #20]
    6888:	1c59      	adds	r1, r3, #1
    688a:	4413      	add	r3, r2
    688c:	2202      	movs	r2, #2
    688e:	8321      	strh	r1, [r4, #24]
    6890:	f883 20f0 	strb.w	r2, [r3, #240]	; 0xf0
    6894:	8b22      	ldrh	r2, [r4, #24]
    6896:	8e2b      	ldrh	r3, [r5, #48]	; 0x30
    6898:	6961      	ldr	r1, [r4, #20]
    689a:	1c50      	adds	r0, r2, #1
    689c:	440a      	add	r2, r1
    689e:	0a19      	lsrs	r1, r3, #8
    68a0:	8320      	strh	r0, [r4, #24]
    68a2:	f882 10f0 	strb.w	r1, [r2, #240]	; 0xf0
    68a6:	8b22      	ldrh	r2, [r4, #24]
    68a8:	6961      	ldr	r1, [r4, #20]
    68aa:	1c50      	adds	r0, r2, #1
    68ac:	440a      	add	r2, r1
    68ae:	8320      	strh	r0, [r4, #24]
    68b0:	f882 30f0 	strb.w	r3, [r2, #240]	; 0xf0
    68b4:	6aee      	ldr	r6, [r5, #44]	; 0x2c
    68b6:	b30e      	cbz	r6, 68fc <dhcp_renew+0xb0>
    68b8:	4630      	mov	r0, r6
    68ba:	f005 fd66 	bl	c38a <strlen>
    68be:	b2c0      	uxtb	r0, r0
    68c0:	b1e0      	cbz	r0, 68fc <dhcp_renew+0xb0>
    68c2:	8b23      	ldrh	r3, [r4, #24]
    68c4:	6962      	ldr	r2, [r4, #20]
    68c6:	1c59      	adds	r1, r3, #1
    68c8:	4413      	add	r3, r2
    68ca:	220c      	movs	r2, #12
    68cc:	8321      	strh	r1, [r4, #24]
    68ce:	f883 20f0 	strb.w	r2, [r3, #240]	; 0xf0
    68d2:	8b23      	ldrh	r3, [r4, #24]
    68d4:	6962      	ldr	r2, [r4, #20]
    68d6:	1c59      	adds	r1, r3, #1
    68d8:	4413      	add	r3, r2
    68da:	8321      	strh	r1, [r4, #24]
    68dc:	f883 00f0 	strb.w	r0, [r3, #240]	; 0xf0
    68e0:	7833      	ldrb	r3, [r6, #0]
    68e2:	b15b      	cbz	r3, 68fc <dhcp_renew+0xb0>
    68e4:	4631      	mov	r1, r6
    68e6:	8b22      	ldrh	r2, [r4, #24]
    68e8:	6966      	ldr	r6, [r4, #20]
    68ea:	1c50      	adds	r0, r2, #1
    68ec:	4432      	add	r2, r6
    68ee:	8320      	strh	r0, [r4, #24]
    68f0:	f882 30f0 	strb.w	r3, [r2, #240]	; 0xf0
    68f4:	f811 3f01 	ldrb.w	r3, [r1, #1]!
    68f8:	2b00      	cmp	r3, #0
    68fa:	d1f4      	bne.n	68e6 <dhcp_renew+0x9a>
    68fc:	4620      	mov	r0, r4
    68fe:	f7ff f92f 	bl	5b60 <dhcp_option_trailer>
    6902:	8b21      	ldrh	r1, [r4, #24]
    6904:	6920      	ldr	r0, [r4, #16]
    6906:	31f0      	adds	r1, #240	; 0xf0
    6908:	b289      	uxth	r1, r1
    690a:	f7fa ffd1 	bl	18b0 <pbuf_realloc>
    690e:	6860      	ldr	r0, [r4, #4]
    6910:	6921      	ldr	r1, [r4, #16]
    6912:	f104 0220 	add.w	r2, r4, #32
    6916:	9500      	str	r5, [sp, #0]
    6918:	2343      	movs	r3, #67	; 0x43
    691a:	f001 fcf1 	bl	8300 <udp_sendto_if>
    691e:	4620      	mov	r0, r4
    6920:	f7ff f9f6 	bl	5d10 <dhcp_delete_msg>
    6924:	7b63      	ldrb	r3, [r4, #13]
    6926:	3301      	adds	r3, #1
    6928:	b2db      	uxtb	r3, r3
    692a:	2b09      	cmp	r3, #9
    692c:	7363      	strb	r3, [r4, #13]
    692e:	d80f      	bhi.n	6950 <dhcp_renew+0x104>
    6930:	ebc3 1243 	rsb	r2, r3, r3, lsl #5
    6934:	eb03 0382 	add.w	r3, r3, r2, lsl #2
    6938:	011b      	lsls	r3, r3, #4
    693a:	4a08      	ldr	r2, [pc, #32]	; (695c <dhcp_renew+0x110>)
    693c:	b29b      	uxth	r3, r3
    693e:	f203 13f3 	addw	r3, r3, #499	; 0x1f3
    6942:	fb82 1303 	smull	r1, r3, r2, r3
    6946:	4638      	mov	r0, r7
    6948:	095b      	lsrs	r3, r3, #5
    694a:	8363      	strh	r3, [r4, #26]
    694c:	b003      	add	sp, #12
    694e:	bdf0      	pop	{r4, r5, r6, r7, pc}
    6950:	2328      	movs	r3, #40	; 0x28
    6952:	4638      	mov	r0, r7
    6954:	8363      	strh	r3, [r4, #26]
    6956:	b003      	add	sp, #12
    6958:	bdf0      	pop	{r4, r5, r6, r7, pc}
    695a:	bf00      	nop
    695c:	10624dd3 	.word	0x10624dd3

00006960 <dhcp_coarse_tmr>:
    6960:	4b16      	ldr	r3, [pc, #88]	; (69bc <dhcp_coarse_tmr+0x5c>)
    6962:	b510      	push	{r4, lr}
    6964:	681c      	ldr	r4, [r3, #0]
    6966:	b93c      	cbnz	r4, 6978 <dhcp_coarse_tmr+0x18>
    6968:	e01b      	b.n	69a2 <dhcp_coarse_tmr+0x42>
    696a:	8b9a      	ldrh	r2, [r3, #28]
    696c:	1e51      	subs	r1, r2, #1
    696e:	2a01      	cmp	r2, #1
    6970:	8399      	strh	r1, [r3, #28]
    6972:	d017      	beq.n	69a4 <dhcp_coarse_tmr+0x44>
    6974:	6824      	ldr	r4, [r4, #0]
    6976:	b1a4      	cbz	r4, 69a2 <dhcp_coarse_tmr+0x42>
    6978:	6aa3      	ldr	r3, [r4, #40]	; 0x28
    697a:	2b00      	cmp	r3, #0
    697c:	d0fa      	beq.n	6974 <dhcp_coarse_tmr+0x14>
    697e:	8bda      	ldrh	r2, [r3, #30]
    6980:	1e51      	subs	r1, r2, #1
    6982:	2a01      	cmp	r2, #1
    6984:	83d9      	strh	r1, [r3, #30]
    6986:	d1f0      	bne.n	696a <dhcp_coarse_tmr+0xa>
    6988:	7b1b      	ldrb	r3, [r3, #12]
    698a:	f003 02fb 	and.w	r2, r3, #251	; 0xfb
    698e:	2a01      	cmp	r2, #1
    6990:	d001      	beq.n	6996 <dhcp_coarse_tmr+0x36>
    6992:	2b0a      	cmp	r3, #10
    6994:	d1ee      	bne.n	6974 <dhcp_coarse_tmr+0x14>
    6996:	4620      	mov	r0, r4
    6998:	f7ff f9c6 	bl	5d28 <dhcp_rebind>
    699c:	6824      	ldr	r4, [r4, #0]
    699e:	2c00      	cmp	r4, #0
    69a0:	d1ea      	bne.n	6978 <dhcp_coarse_tmr+0x18>
    69a2:	bd10      	pop	{r4, pc}
    69a4:	7b1b      	ldrb	r3, [r3, #12]
    69a6:	f003 02fb 	and.w	r2, r3, #251	; 0xfb
    69aa:	2a01      	cmp	r2, #1
    69ac:	d001      	beq.n	69b2 <dhcp_coarse_tmr+0x52>
    69ae:	2b0a      	cmp	r3, #10
    69b0:	d1e0      	bne.n	6974 <dhcp_coarse_tmr+0x14>
    69b2:	4620      	mov	r0, r4
    69b4:	f7ff ff4a 	bl	684c <dhcp_renew>
    69b8:	e7dc      	b.n	6974 <dhcp_coarse_tmr+0x14>
    69ba:	bf00      	nop
    69bc:	10000fb4 	.word	0x10000fb4

000069c0 <dhcp_release>:
    69c0:	b570      	push	{r4, r5, r6, lr}
    69c2:	6a84      	ldr	r4, [r0, #40]	; 0x28
    69c4:	b082      	sub	sp, #8
    69c6:	7b23      	ldrb	r3, [r4, #12]
    69c8:	4605      	mov	r5, r0
    69ca:	b11b      	cbz	r3, 69d4 <dhcp_release+0x14>
    69cc:	2300      	movs	r3, #0
    69ce:	7323      	strb	r3, [r4, #12]
    69d0:	7363      	strb	r3, [r4, #13]
    69d2:	8363      	strh	r3, [r4, #26]
    69d4:	2300      	movs	r3, #0
    69d6:	6223      	str	r3, [r4, #32]
    69d8:	6263      	str	r3, [r4, #36]	; 0x24
    69da:	62a3      	str	r3, [r4, #40]	; 0x28
    69dc:	62e3      	str	r3, [r4, #44]	; 0x2c
    69de:	63a3      	str	r3, [r4, #56]	; 0x38
    69e0:	6363      	str	r3, [r4, #52]	; 0x34
    69e2:	6323      	str	r3, [r4, #48]	; 0x30
    69e4:	4628      	mov	r0, r5
    69e6:	4621      	mov	r1, r4
    69e8:	2207      	movs	r2, #7
    69ea:	f7ff f8d3 	bl	5b94 <dhcp_create_msg>
    69ee:	4606      	mov	r6, r0
    69f0:	b330      	cbz	r0, 6a40 <dhcp_release+0x80>
    69f2:	7b63      	ldrb	r3, [r4, #13]
    69f4:	3301      	adds	r3, #1
    69f6:	b2db      	uxtb	r3, r3
    69f8:	2b09      	cmp	r3, #9
    69fa:	7363      	strb	r3, [r4, #13]
    69fc:	d81e      	bhi.n	6a3c <dhcp_release+0x7c>
    69fe:	ebc3 1243 	rsb	r2, r3, r3, lsl #5
    6a02:	eb03 0382 	add.w	r3, r3, r2, lsl #2
    6a06:	00db      	lsls	r3, r3, #3
    6a08:	b29b      	uxth	r3, r3
    6a0a:	4a18      	ldr	r2, [pc, #96]	; (6a6c <dhcp_release+0xac>)
    6a0c:	f203 13f3 	addw	r3, r3, #499	; 0x1f3
    6a10:	fb82 1303 	smull	r1, r3, r2, r3
    6a14:	095b      	lsrs	r3, r3, #5
    6a16:	8363      	strh	r3, [r4, #26]
    6a18:	4628      	mov	r0, r5
    6a1a:	f7fa fdd3 	bl	15c4 <netif_set_down>
    6a1e:	4628      	mov	r0, r5
    6a20:	4913      	ldr	r1, [pc, #76]	; (6a70 <dhcp_release+0xb0>)
    6a22:	f7fa fd27 	bl	1474 <netif_set_ipaddr>
    6a26:	4628      	mov	r0, r5
    6a28:	4911      	ldr	r1, [pc, #68]	; (6a70 <dhcp_release+0xb0>)
    6a2a:	f7fa fd9b 	bl	1564 <netif_set_gw>
    6a2e:	4628      	mov	r0, r5
    6a30:	490f      	ldr	r1, [pc, #60]	; (6a70 <dhcp_release+0xb0>)
    6a32:	f7fa fd9b 	bl	156c <netif_set_netmask>
    6a36:	4630      	mov	r0, r6
    6a38:	b002      	add	sp, #8
    6a3a:	bd70      	pop	{r4, r5, r6, pc}
    6a3c:	2314      	movs	r3, #20
    6a3e:	e7ea      	b.n	6a16 <dhcp_release+0x56>
    6a40:	4620      	mov	r0, r4
    6a42:	f7ff f88d 	bl	5b60 <dhcp_option_trailer>
    6a46:	8b21      	ldrh	r1, [r4, #24]
    6a48:	6920      	ldr	r0, [r4, #16]
    6a4a:	31f0      	adds	r1, #240	; 0xf0
    6a4c:	b289      	uxth	r1, r1
    6a4e:	f7fa ff2f 	bl	18b0 <pbuf_realloc>
    6a52:	6860      	ldr	r0, [r4, #4]
    6a54:	6921      	ldr	r1, [r4, #16]
    6a56:	f104 0220 	add.w	r2, r4, #32
    6a5a:	9500      	str	r5, [sp, #0]
    6a5c:	2343      	movs	r3, #67	; 0x43
    6a5e:	f001 fc4f 	bl	8300 <udp_sendto_if>
    6a62:	4620      	mov	r0, r4
    6a64:	f7ff f954 	bl	5d10 <dhcp_delete_msg>
    6a68:	e7c3      	b.n	69f2 <dhcp_release+0x32>
    6a6a:	bf00      	nop
    6a6c:	10624dd3 	.word	0x10624dd3
    6a70:	0000da2c 	.word	0x0000da2c

00006a74 <dhcp_fine_tmr>:
    6a74:	b538      	push	{r3, r4, r5, lr}
    6a76:	4b26      	ldr	r3, [pc, #152]	; (6b10 <dhcp_fine_tmr+0x9c>)
    6a78:	681c      	ldr	r4, [r3, #0]
    6a7a:	b31c      	cbz	r4, 6ac4 <dhcp_fine_tmr+0x50>
    6a7c:	2500      	movs	r5, #0
    6a7e:	e003      	b.n	6a88 <dhcp_fine_tmr+0x14>
    6a80:	3a01      	subs	r2, #1
    6a82:	835a      	strh	r2, [r3, #26]
    6a84:	6824      	ldr	r4, [r4, #0]
    6a86:	b1ec      	cbz	r4, 6ac4 <dhcp_fine_tmr+0x50>
    6a88:	6aa3      	ldr	r3, [r4, #40]	; 0x28
    6a8a:	2b00      	cmp	r3, #0
    6a8c:	d0fa      	beq.n	6a84 <dhcp_fine_tmr+0x10>
    6a8e:	8b5a      	ldrh	r2, [r3, #26]
    6a90:	2a01      	cmp	r2, #1
    6a92:	d8f5      	bhi.n	6a80 <dhcp_fine_tmr+0xc>
    6a94:	d1f6      	bne.n	6a84 <dhcp_fine_tmr+0x10>
    6a96:	7b1a      	ldrb	r2, [r3, #12]
    6a98:	835d      	strh	r5, [r3, #26]
    6a9a:	2a0c      	cmp	r2, #12
    6a9c:	d01c      	beq.n	6ad8 <dhcp_fine_tmr+0x64>
    6a9e:	2a06      	cmp	r2, #6
    6aa0:	d01a      	beq.n	6ad8 <dhcp_fine_tmr+0x64>
    6aa2:	2a01      	cmp	r2, #1
    6aa4:	d00f      	beq.n	6ac6 <dhcp_fine_tmr+0x52>
    6aa6:	2a08      	cmp	r2, #8
    6aa8:	d01a      	beq.n	6ae0 <dhcp_fine_tmr+0x6c>
    6aaa:	2a05      	cmp	r2, #5
    6aac:	d029      	beq.n	6b02 <dhcp_fine_tmr+0x8e>
    6aae:	2a04      	cmp	r2, #4
    6ab0:	d01d      	beq.n	6aee <dhcp_fine_tmr+0x7a>
    6ab2:	2a03      	cmp	r2, #3
    6ab4:	d1e6      	bne.n	6a84 <dhcp_fine_tmr+0x10>
    6ab6:	7b5b      	ldrb	r3, [r3, #13]
    6ab8:	4620      	mov	r0, r4
    6aba:	2b01      	cmp	r3, #1
    6abc:	d925      	bls.n	6b0a <dhcp_fine_tmr+0x96>
    6abe:	f7ff f9bd 	bl	5e3c <dhcp_discover>
    6ac2:	e7df      	b.n	6a84 <dhcp_fine_tmr+0x10>
    6ac4:	bd38      	pop	{r3, r4, r5, pc}
    6ac6:	7b5b      	ldrb	r3, [r3, #13]
    6ac8:	4620      	mov	r0, r4
    6aca:	2b05      	cmp	r3, #5
    6acc:	d802      	bhi.n	6ad4 <dhcp_fine_tmr+0x60>
    6ace:	f7ff faf1 	bl	60b4 <dhcp_select>
    6ad2:	e7d7      	b.n	6a84 <dhcp_fine_tmr+0x10>
    6ad4:	f7ff ff74 	bl	69c0 <dhcp_release>
    6ad8:	4620      	mov	r0, r4
    6ada:	f7ff f9af 	bl	5e3c <dhcp_discover>
    6ade:	e7d1      	b.n	6a84 <dhcp_fine_tmr+0x10>
    6ae0:	7b5b      	ldrb	r3, [r3, #13]
    6ae2:	4620      	mov	r0, r4
    6ae4:	2b01      	cmp	r3, #1
    6ae6:	d909      	bls.n	6afc <dhcp_fine_tmr+0x88>
    6ae8:	f7ff fa56 	bl	5f98 <dhcp_bind>
    6aec:	e7ca      	b.n	6a84 <dhcp_fine_tmr+0x10>
    6aee:	7b5b      	ldrb	r3, [r3, #13]
    6af0:	4620      	mov	r0, r4
    6af2:	2b08      	cmp	r3, #8
    6af4:	d8ee      	bhi.n	6ad4 <dhcp_fine_tmr+0x60>
    6af6:	f7ff f917 	bl	5d28 <dhcp_rebind>
    6afa:	e7c3      	b.n	6a84 <dhcp_fine_tmr+0x10>
    6afc:	f7ff fa36 	bl	5f6c <dhcp_check>
    6b00:	e7c0      	b.n	6a84 <dhcp_fine_tmr+0x10>
    6b02:	4620      	mov	r0, r4
    6b04:	f7ff fea2 	bl	684c <dhcp_renew>
    6b08:	e7bc      	b.n	6a84 <dhcp_fine_tmr+0x10>
    6b0a:	f7ff fbbf 	bl	628c <dhcp_reboot>
    6b0e:	e7b9      	b.n	6a84 <dhcp_fine_tmr+0x10>
    6b10:	10000fb4 	.word	0x10000fb4

00006b14 <dhcp_stop>:
    6b14:	b510      	push	{r4, lr}
    6b16:	b198      	cbz	r0, 6b40 <dhcp_stop+0x2c>
    6b18:	f890 3039 	ldrb.w	r3, [r0, #57]	; 0x39
    6b1c:	6a84      	ldr	r4, [r0, #40]	; 0x28
    6b1e:	f023 0308 	bic.w	r3, r3, #8
    6b22:	f880 3039 	strb.w	r3, [r0, #57]	; 0x39
    6b26:	b15c      	cbz	r4, 6b40 <dhcp_stop+0x2c>
    6b28:	6860      	ldr	r0, [r4, #4]
    6b2a:	b118      	cbz	r0, 6b34 <dhcp_stop+0x20>
    6b2c:	f001 fc24 	bl	8378 <udp_remove>
    6b30:	2300      	movs	r3, #0
    6b32:	6063      	str	r3, [r4, #4]
    6b34:	7b23      	ldrb	r3, [r4, #12]
    6b36:	b11b      	cbz	r3, 6b40 <dhcp_stop+0x2c>
    6b38:	2300      	movs	r3, #0
    6b3a:	7323      	strb	r3, [r4, #12]
    6b3c:	7363      	strb	r3, [r4, #13]
    6b3e:	8363      	strh	r3, [r4, #26]
    6b40:	bd10      	pop	{r4, pc}
    6b42:	bf00      	nop

00006b44 <dhcp_start>:
    6b44:	b538      	push	{r3, r4, r5, lr}
    6b46:	4604      	mov	r4, r0
    6b48:	2800      	cmp	r0, #0
    6b4a:	d046      	beq.n	6bda <dhcp_start+0x96>
    6b4c:	f890 3039 	ldrb.w	r3, [r0, #57]	; 0x39
    6b50:	6a85      	ldr	r5, [r0, #40]	; 0x28
    6b52:	f023 0208 	bic.w	r2, r3, #8
    6b56:	069b      	lsls	r3, r3, #26
    6b58:	f880 2039 	strb.w	r2, [r0, #57]	; 0x39
    6b5c:	d53d      	bpl.n	6bda <dhcp_start+0x96>
    6b5e:	8e03      	ldrh	r3, [r0, #48]	; 0x30
    6b60:	f5b3 7f10 	cmp.w	r3, #576	; 0x240
    6b64:	d32f      	bcc.n	6bc6 <dhcp_start+0x82>
    6b66:	b385      	cbz	r5, 6bca <dhcp_start+0x86>
    6b68:	6868      	ldr	r0, [r5, #4]
    6b6a:	b108      	cbz	r0, 6b70 <dhcp_start+0x2c>
    6b6c:	f001 fc04 	bl	8378 <udp_remove>
    6b70:	2100      	movs	r1, #0
    6b72:	223c      	movs	r2, #60	; 0x3c
    6b74:	4628      	mov	r0, r5
    6b76:	f005 fa53 	bl	c020 <memset>
    6b7a:	f001 fc19 	bl	83b0 <udp_new>
    6b7e:	6068      	str	r0, [r5, #4]
    6b80:	b308      	cbz	r0, 6bc6 <dhcp_start+0x82>
    6b82:	7a03      	ldrb	r3, [r0, #8]
    6b84:	4916      	ldr	r1, [pc, #88]	; (6be0 <dhcp_start+0x9c>)
    6b86:	f043 0320 	orr.w	r3, r3, #32
    6b8a:	7203      	strb	r3, [r0, #8]
    6b8c:	2244      	movs	r2, #68	; 0x44
    6b8e:	6868      	ldr	r0, [r5, #4]
    6b90:	f001 fa84 	bl	809c <udp_bind>
    6b94:	4912      	ldr	r1, [pc, #72]	; (6be0 <dhcp_start+0x9c>)
    6b96:	2243      	movs	r2, #67	; 0x43
    6b98:	6868      	ldr	r0, [r5, #4]
    6b9a:	f001 fbbd 	bl	8318 <udp_connect>
    6b9e:	6868      	ldr	r0, [r5, #4]
    6ba0:	4910      	ldr	r1, [pc, #64]	; (6be4 <dhcp_start+0xa0>)
    6ba2:	4622      	mov	r2, r4
    6ba4:	f001 fbe4 	bl	8370 <udp_recv>
    6ba8:	4620      	mov	r0, r4
    6baa:	f7ff f947 	bl	5e3c <dhcp_discover>
    6bae:	b938      	cbnz	r0, 6bc0 <dhcp_start+0x7c>
    6bb0:	f894 3039 	ldrb.w	r3, [r4, #57]	; 0x39
    6bb4:	f043 0308 	orr.w	r3, r3, #8
    6bb8:	f884 3039 	strb.w	r3, [r4, #57]	; 0x39
    6bbc:	b240      	sxtb	r0, r0
    6bbe:	bd38      	pop	{r3, r4, r5, pc}
    6bc0:	4620      	mov	r0, r4
    6bc2:	f7ff ffa7 	bl	6b14 <dhcp_stop>
    6bc6:	20ff      	movs	r0, #255	; 0xff
    6bc8:	e7f8      	b.n	6bbc <dhcp_start+0x78>
    6bca:	203c      	movs	r0, #60	; 0x3c
    6bcc:	f7fa fb6a 	bl	12a4 <mem_malloc>
    6bd0:	4605      	mov	r5, r0
    6bd2:	2800      	cmp	r0, #0
    6bd4:	d0f7      	beq.n	6bc6 <dhcp_start+0x82>
    6bd6:	62a0      	str	r0, [r4, #40]	; 0x28
    6bd8:	e7ca      	b.n	6b70 <dhcp_start+0x2c>
    6bda:	20f2      	movs	r0, #242	; 0xf2
    6bdc:	e7ee      	b.n	6bbc <dhcp_start+0x78>
    6bde:	bf00      	nop
    6be0:	0000da2c 	.word	0x0000da2c
    6be4:	00006389 	.word	0x00006389

00006be8 <dns_recv>:
    6be8:	e92d 4ff0 	stmdb	sp!, {r4, r5, r6, r7, r8, r9, r10, r11, lr}
    6bec:	4614      	mov	r4, r2
    6bee:	8912      	ldrh	r2, [r2, #8]
    6bf0:	b085      	sub	sp, #20
    6bf2:	f1a2 031a 	sub.w	r3, r2, #26
    6bf6:	f5b3 7ff3 	cmp.w	r3, #486	; 0x1e6
    6bfa:	d905      	bls.n	6c08 <dns_recv+0x20>
    6bfc:	4620      	mov	r0, r4
    6bfe:	b005      	add	sp, #20
    6c00:	e8bd 4ff0 	ldmia.w	sp!, {r4, r5, r6, r7, r8, r9, r10, r11, lr}
    6c04:	f7fa bd8a 	b.w	171c <pbuf_free>
    6c08:	4d63      	ldr	r5, [pc, #396]	; (6d98 <dns_recv+0x1b0>)
    6c0a:	2300      	movs	r3, #0
    6c0c:	6829      	ldr	r1, [r5, #0]
    6c0e:	4620      	mov	r0, r4
    6c10:	f7fa ff00 	bl	1a14 <pbuf_copy_partial>
    6c14:	8923      	ldrh	r3, [r4, #8]
    6c16:	4283      	cmp	r3, r0
    6c18:	d1f0      	bne.n	6bfc <dns_recv+0x14>
    6c1a:	682b      	ldr	r3, [r5, #0]
    6c1c:	881a      	ldrh	r2, [r3, #0]
    6c1e:	ba52      	rev16	r2, r2
    6c20:	b292      	uxth	r2, r2
    6c22:	2a03      	cmp	r2, #3
    6c24:	d8ea      	bhi.n	6bfc <dns_recv+0x14>
    6c26:	f44f 758c 	mov.w	r5, #280	; 0x118
    6c2a:	fb05 f502 	mul.w	r5, r5, r2
    6c2e:	4e5b      	ldr	r6, [pc, #364]	; (6d9c <dns_recv+0x1b4>)
    6c30:	5d72      	ldrb	r2, [r6, r5]
    6c32:	1977      	adds	r7, r6, r5
    6c34:	2a02      	cmp	r2, #2
    6c36:	d1e1      	bne.n	6bfc <dns_recv+0x14>
    6c38:	2203      	movs	r2, #3
    6c3a:	5572      	strb	r2, [r6, r5]
    6c3c:	78da      	ldrb	r2, [r3, #3]
    6c3e:	f002 020f 	and.w	r2, r2, #15
    6c42:	717a      	strb	r2, [r7, #5]
    6c44:	8899      	ldrh	r1, [r3, #4]
    6c46:	ba48      	rev16	r0, r1
    6c48:	f8b3 8006 	ldrh.w	r8, [r3, #6]
    6c4c:	fa98 f898 	rev16.w	r8, r8
    6c50:	f993 1002 	ldrsb.w	r1, [r3, #2]
    6c54:	2900      	cmp	r1, #0
    6c56:	db0d      	blt.n	6c74 <dns_recv+0x8c>
    6c58:	f8d7 3110 	ldr.w	r3, [r7, #272]	; 0x110
    6c5c:	b12b      	cbz	r3, 6c6a <dns_recv+0x82>
    6c5e:	f107 000c 	add.w	r0, r7, #12
    6c62:	2100      	movs	r1, #0
    6c64:	f8d7 2114 	ldr.w	r2, [r7, #276]	; 0x114
    6c68:	4798      	blx	r3
    6c6a:	2300      	movs	r3, #0
    6c6c:	5573      	strb	r3, [r6, r5]
    6c6e:	f8c7 3110 	str.w	r3, [r7, #272]	; 0x110
    6c72:	e7c3      	b.n	6bfc <dns_recv+0x14>
    6c74:	2a00      	cmp	r2, #0
    6c76:	d1ef      	bne.n	6c58 <dns_recv+0x70>
    6c78:	b280      	uxth	r0, r0
    6c7a:	2801      	cmp	r0, #1
    6c7c:	d1ec      	bne.n	6c58 <dns_recv+0x70>
    6c7e:	f107 0c0c 	add.w	r12, r7, #12
    6c82:	f103 0a0c 	add.w	r10, r3, #12
    6c86:	4660      	mov	r0, r12
    6c88:	4651      	mov	r1, r10
    6c8a:	780a      	ldrb	r2, [r1, #0]
    6c8c:	f101 0901 	add.w	r9, r1, #1
    6c90:	f002 0bc0 	and.w	r11, r2, #192	; 0xc0
    6c94:	f1bb 0fc0 	cmp.w	r11, #192	; 0xc0
    6c98:	d020      	beq.n	6cdc <dns_recv+0xf4>
    6c9a:	b1ca      	cbz	r2, 6cd0 <dns_recv+0xe8>
    6c9c:	f890 b000 	ldrb.w	r11, [r0]
    6ca0:	f891 9001 	ldrb.w	r9, [r1, #1]
    6ca4:	45cb      	cmp	r11, r9
    6ca6:	d1d7      	bne.n	6c58 <dns_recv+0x70>
    6ca8:	3a01      	subs	r2, #1
    6caa:	fa5f fb82 	uxtb.w	r11, r2
    6cae:	1c42      	adds	r2, r0, #1
    6cb0:	4493      	add	r11, r2
    6cb2:	3102      	adds	r1, #2
    6cb4:	e004      	b.n	6cc0 <dns_recv+0xd8>
    6cb6:	7800      	ldrb	r0, [r0, #0]
    6cb8:	f899 9000 	ldrb.w	r9, [r9]
    6cbc:	4548      	cmp	r0, r9
    6cbe:	d1cb      	bne.n	6c58 <dns_recv+0x70>
    6cc0:	455a      	cmp	r2, r11
    6cc2:	4689      	mov	r9, r1
    6cc4:	4610      	mov	r0, r2
    6cc6:	f101 0101 	add.w	r1, r1, #1
    6cca:	f102 0201 	add.w	r2, r2, #1
    6cce:	d1f2      	bne.n	6cb6 <dns_recv+0xce>
    6cd0:	f899 2000 	ldrb.w	r2, [r9]
    6cd4:	3001      	adds	r0, #1
    6cd6:	b10a      	cbz	r2, 6cdc <dns_recv+0xf4>
    6cd8:	4649      	mov	r1, r9
    6cda:	e7d6      	b.n	6c8a <dns_recv+0xa2>
    6cdc:	7b1b      	ldrb	r3, [r3, #12]
    6cde:	e007      	b.n	6cf0 <dns_recv+0x108>
    6ce0:	1e5a      	subs	r2, r3, #1
    6ce2:	b2d2      	uxtb	r2, r2
    6ce4:	3201      	adds	r2, #1
    6ce6:	b103      	cbz	r3, 6cea <dns_recv+0x102>
    6ce8:	4492      	add	r10, r2
    6cea:	f89a 3000 	ldrb.w	r3, [r10]
    6cee:	b12b      	cbz	r3, 6cfc <dns_recv+0x114>
    6cf0:	f003 02c0 	and.w	r2, r3, #192	; 0xc0
    6cf4:	2ac0      	cmp	r2, #192	; 0xc0
    6cf6:	f10a 0a01 	add.w	r10, r10, #1
    6cfa:	d1f1      	bne.n	6ce0 <dns_recv+0xf8>
    6cfc:	fa1f f888 	uxth.w	r8, r8
    6d00:	f10a 0305 	add.w	r3, r10, #5
    6d04:	f1b8 0f00 	cmp.w	r8, #0
    6d08:	d0a6      	beq.n	6c58 <dns_recv+0x70>
    6d0a:	781a      	ldrb	r2, [r3, #0]
    6d0c:	e006      	b.n	6d1c <dns_recv+0x134>
    6d0e:	1e51      	subs	r1, r2, #1
    6d10:	b2c9      	uxtb	r1, r1
    6d12:	3101      	adds	r1, #1
    6d14:	b102      	cbz	r2, 6d18 <dns_recv+0x130>
    6d16:	440b      	add	r3, r1
    6d18:	781a      	ldrb	r2, [r3, #0]
    6d1a:	b12a      	cbz	r2, 6d28 <dns_recv+0x140>
    6d1c:	f002 01c0 	and.w	r1, r2, #192	; 0xc0
    6d20:	29c0      	cmp	r1, #192	; 0xc0
    6d22:	f103 0301 	add.w	r3, r3, #1
    6d26:	d1f2      	bne.n	6d0e <dns_recv+0x126>
    6d28:	461a      	mov	r2, r3
    6d2a:	f852 0f01 	ldr.w	r0, [r2, #1]!
    6d2e:	f10d 0904 	add.w	r9, sp, #4
    6d32:	6851      	ldr	r1, [r2, #4]
    6d34:	f8b2 a008 	ldrh.w	r10, [r2, #8]
    6d38:	e8a9 0003 	stmia.w	r9!, {r0, r1}
    6d3c:	f8a9 a000 	strh.w	r10, [r9]
    6d40:	9901      	ldr	r1, [sp, #4]
    6d42:	f1b1 2f01 	cmp.w	r1, #16777472	; 0x1000100
    6d46:	f8bd 100c 	ldrh.w	r1, [sp, #12]
    6d4a:	d00a      	beq.n	6d62 <dns_recv+0x17a>
    6d4c:	ba4b      	rev16	r3, r1
    6d4e:	f108 38ff 	add.w	r8, r8, #4294967295	; 0xffffffff
    6d52:	330a      	adds	r3, #10
    6d54:	fa1f f888 	uxth.w	r8, r8
    6d58:	4413      	add	r3, r2
    6d5a:	f1b8 0f00 	cmp.w	r8, #0
    6d5e:	d1d4      	bne.n	6d0a <dns_recv+0x122>
    6d60:	e77a      	b.n	6c58 <dns_recv+0x70>
    6d62:	f5b1 6f80 	cmp.w	r1, #1024	; 0x400
    6d66:	d1f1      	bne.n	6d4c <dns_recv+0x164>
    6d68:	9902      	ldr	r1, [sp, #8]
    6d6a:	4a0d      	ldr	r2, [pc, #52]	; (6da0 <dns_recv+0x1b8>)
    6d6c:	ba09      	rev	r1, r1
    6d6e:	4291      	cmp	r1, r2
    6d70:	60b9      	str	r1, [r7, #8]
    6d72:	bf88      	it	hi
    6d74:	60ba      	strhi	r2, [r7, #8]
    6d76:	f8d3 000b 	ldr.w	r0, [r3, #11]
    6d7a:	f8d7 3110 	ldr.w	r3, [r7, #272]	; 0x110
    6d7e:	f8c7 010c 	str.w	r0, [r7, #268]	; 0x10c
    6d82:	f507 7186 	add.w	r1, r7, #268	; 0x10c
    6d86:	2b00      	cmp	r3, #0
    6d88:	f43f af38 	beq.w	6bfc <dns_recv+0x14>
    6d8c:	4660      	mov	r0, r12
    6d8e:	f8d7 2114 	ldr.w	r2, [r7, #276]	; 0x114
    6d92:	4798      	blx	r3
    6d94:	e732      	b.n	6bfc <dns_recv+0x14>
    6d96:	bf00      	nop
    6d98:	10000c14 	.word	0x10000c14
    6d9c:	100005a4 	.word	0x100005a4
    6da0:	00093a80 	.word	0x00093a80

00006da4 <dns_send>:
    6da4:	e92d 43f0 	stmdb	sp!, {r4, r5, r6, r7, r8, r9, lr}
    6da8:	4680      	mov	r8, r0
    6daa:	2000      	movs	r0, #0
    6dac:	b083      	sub	sp, #12
    6dae:	460f      	mov	r7, r1
    6db0:	4615      	mov	r5, r2
    6db2:	f44f 7188 	mov.w	r1, #272	; 0x110
    6db6:	4602      	mov	r2, r0
    6db8:	f7fa fce6 	bl	1788 <pbuf_alloc>
    6dbc:	4681      	mov	r9, r0
    6dbe:	2800      	cmp	r0, #0
    6dc0:	d07d      	beq.n	6ebe <dns_send+0x11a>
    6dc2:	6844      	ldr	r4, [r0, #4]
    6dc4:	2000      	movs	r0, #0
    6dc6:	4623      	mov	r3, r4
    6dc8:	f803 0b01 	strb.w	r0, [r3], #1
    6dcc:	3301      	adds	r3, #1
    6dce:	7060      	strb	r0, [r4, #1]
    6dd0:	f803 0b01 	strb.w	r0, [r3], #1
    6dd4:	f803 0b01 	strb.w	r0, [r3], #1
    6dd8:	f803 0b01 	strb.w	r0, [r3], #1
    6ddc:	f803 0b01 	strb.w	r0, [r3], #1
    6de0:	f803 0b01 	strb.w	r0, [r3], #1
    6de4:	f803 0b01 	strb.w	r0, [r3], #1
    6de8:	f803 0b01 	strb.w	r0, [r3], #1
    6dec:	f803 0b01 	strb.w	r0, [r3], #1
    6df0:	f803 0b01 	strb.w	r0, [r3], #1
    6df4:	7018      	strb	r0, [r3, #0]
    6df6:	ba6d      	rev16	r5, r5
    6df8:	2301      	movs	r3, #1
    6dfa:	2200      	movs	r2, #0
    6dfc:	8025      	strh	r5, [r4, #0]
    6dfe:	3f01      	subs	r7, #1
    6e00:	70a3      	strb	r3, [r4, #2]
    6e02:	7163      	strb	r3, [r4, #5]
    6e04:	7122      	strb	r2, [r4, #4]
    6e06:	787a      	ldrb	r2, [r7, #1]
    6e08:	f104 0e0c 	add.w	lr, r4, #12
    6e0c:	2a2e      	cmp	r2, #46	; 0x2e
    6e0e:	f107 0301 	add.w	r3, r7, #1
    6e12:	f10e 0501 	add.w	r5, lr, #1
    6e16:	d01f      	beq.n	6e58 <dns_send+0xb4>
    6e18:	2a00      	cmp	r2, #0
    6e1a:	d04d      	beq.n	6eb8 <dns_send+0x114>
    6e1c:	1cbc      	adds	r4, r7, #2
    6e1e:	4675      	mov	r5, lr
    6e20:	e001      	b.n	6e26 <dns_send+0x82>
    6e22:	b16a      	cbz	r2, 6e40 <dns_send+0x9c>
    6e24:	461d      	mov	r5, r3
    6e26:	462b      	mov	r3, r5
    6e28:	f803 2f01 	strb.w	r2, [r3, #1]!
    6e2c:	4627      	mov	r7, r4
    6e2e:	f814 2b01 	ldrb.w	r2, [r4], #1
    6e32:	ebce 0603 	rsb	r6, lr, r3
    6e36:	2a2e      	cmp	r2, #46	; 0x2e
    6e38:	f105 0502 	add.w	r5, r5, #2
    6e3c:	b2f6      	uxtb	r6, r6
    6e3e:	d1f0      	bne.n	6e22 <dns_send+0x7e>
    6e40:	f88e 6000 	strb.w	r6, [lr]
    6e44:	783b      	ldrb	r3, [r7, #0]
    6e46:	b173      	cbz	r3, 6e66 <dns_send+0xc2>
    6e48:	787a      	ldrb	r2, [r7, #1]
    6e4a:	46ae      	mov	lr, r5
    6e4c:	2a2e      	cmp	r2, #46	; 0x2e
    6e4e:	f107 0301 	add.w	r3, r7, #1
    6e52:	f10e 0501 	add.w	r5, lr, #1
    6e56:	d1df      	bne.n	6e18 <dns_send+0x74>
    6e58:	2600      	movs	r6, #0
    6e5a:	461f      	mov	r7, r3
    6e5c:	f88e 6000 	strb.w	r6, [lr]
    6e60:	783b      	ldrb	r3, [r7, #0]
    6e62:	2b00      	cmp	r3, #0
    6e64:	d1f0      	bne.n	6e48 <dns_send+0xa4>
    6e66:	f44f 7280 	mov.w	r2, #256	; 0x100
    6e6a:	702b      	strb	r3, [r5, #0]
    6e6c:	f8ad 2004 	strh.w	r2, [sp, #4]
    6e70:	f8ad 2006 	strh.w	r2, [sp, #6]
    6e74:	9801      	ldr	r0, [sp, #4]
    6e76:	1d6a      	adds	r2, r5, #5
    6e78:	f8c5 0001 	str.w	r0, [r5, #1]
    6e7c:	f8d9 3004 	ldr.w	r3, [r9, #4]
    6e80:	4648      	mov	r0, r9
    6e82:	1ad1      	subs	r1, r2, r3
    6e84:	b289      	uxth	r1, r1
    6e86:	f7fa fd13 	bl	18b0 <pbuf_realloc>
    6e8a:	4b0e      	ldr	r3, [pc, #56]	; (6ec4 <dns_send+0x120>)
    6e8c:	4c0e      	ldr	r4, [pc, #56]	; (6ec8 <dns_send+0x124>)
    6e8e:	eb03 0888 	add.w	r8, r3, r8, lsl #2
    6e92:	4641      	mov	r1, r8
    6e94:	6820      	ldr	r0, [r4, #0]
    6e96:	2235      	movs	r2, #53	; 0x35
    6e98:	f001 fa3e 	bl	8318 <udp_connect>
    6e9c:	6820      	ldr	r0, [r4, #0]
    6e9e:	4642      	mov	r2, r8
    6ea0:	4649      	mov	r1, r9
    6ea2:	2335      	movs	r3, #53	; 0x35
    6ea4:	f001 fa22 	bl	82ec <udp_sendto>
    6ea8:	4604      	mov	r4, r0
    6eaa:	4648      	mov	r0, r9
    6eac:	f7fa fc36 	bl	171c <pbuf_free>
    6eb0:	b260      	sxtb	r0, r4
    6eb2:	b003      	add	sp, #12
    6eb4:	e8bd 83f0 	ldmia.w	sp!, {r4, r5, r6, r7, r8, r9, pc}
    6eb8:	461f      	mov	r7, r3
    6eba:	4616      	mov	r6, r2
    6ebc:	e7c0      	b.n	6e40 <dns_send+0x9c>
    6ebe:	24ff      	movs	r4, #255	; 0xff
    6ec0:	e7f6      	b.n	6eb0 <dns_send+0x10c>
    6ec2:	bf00      	nop
    6ec4:	10000a04 	.word	0x10000a04
    6ec8:	10000c10 	.word	0x10000c10

00006ecc <dns_check_entry>:
    6ecc:	b5f8      	push	{r3, r4, r5, r6, r7, lr}
    6ece:	f44f 758c 	mov.w	r5, #280	; 0x118
    6ed2:	fb05 f500 	mul.w	r5, r5, r0
    6ed6:	4e29      	ldr	r6, [pc, #164]	; (6f7c <dns_check_entry+0xb0>)
    6ed8:	5d73      	ldrb	r3, [r6, r5]
    6eda:	1974      	adds	r4, r6, r5
    6edc:	2b02      	cmp	r3, #2
    6ede:	d01d      	beq.n	6f1c <dns_check_entry+0x50>
    6ee0:	2b03      	cmp	r3, #3
    6ee2:	d012      	beq.n	6f0a <dns_check_entry+0x3e>
    6ee4:	2b01      	cmp	r3, #1
    6ee6:	d000      	beq.n	6eea <dns_check_entry+0x1e>
    6ee8:	bdf8      	pop	{r3, r4, r5, r6, r7, pc}
    6eea:	2700      	movs	r7, #0
    6eec:	f04f 0c02 	mov.w	r12, #2
    6ef0:	f806 c005 	strb.w	r12, [r6, r5]
    6ef4:	70a3      	strb	r3, [r4, #2]
    6ef6:	7067      	strb	r7, [r4, #1]
    6ef8:	70e7      	strb	r7, [r4, #3]
    6efa:	4602      	mov	r2, r0
    6efc:	f104 010c 	add.w	r1, r4, #12
    6f00:	4638      	mov	r0, r7
    6f02:	e8bd 40f8 	ldmia.w	sp!, {r3, r4, r5, r6, r7, lr}
    6f06:	f7ff bf4d 	b.w	6da4 <dns_send>
    6f0a:	68a3      	ldr	r3, [r4, #8]
    6f0c:	3b01      	subs	r3, #1
    6f0e:	60a3      	str	r3, [r4, #8]
    6f10:	2b00      	cmp	r3, #0
    6f12:	d1e9      	bne.n	6ee8 <dns_check_entry+0x1c>
    6f14:	5573      	strb	r3, [r6, r5]
    6f16:	f8c4 3110 	str.w	r3, [r4, #272]	; 0x110
    6f1a:	bdf8      	pop	{r3, r4, r5, r6, r7, pc}
    6f1c:	78a3      	ldrb	r3, [r4, #2]
    6f1e:	3b01      	subs	r3, #1
    6f20:	b2db      	uxtb	r3, r3
    6f22:	70a3      	strb	r3, [r4, #2]
    6f24:	2b00      	cmp	r3, #0
    6f26:	d1df      	bne.n	6ee8 <dns_check_entry+0x1c>
    6f28:	78e3      	ldrb	r3, [r4, #3]
    6f2a:	3301      	adds	r3, #1
    6f2c:	b2db      	uxtb	r3, r3
    6f2e:	2b04      	cmp	r3, #4
    6f30:	70e3      	strb	r3, [r4, #3]
    6f32:	d10f      	bne.n	6f54 <dns_check_entry+0x88>
    6f34:	7863      	ldrb	r3, [r4, #1]
    6f36:	b1b3      	cbz	r3, 6f66 <dns_check_entry+0x9a>
    6f38:	f8d4 3110 	ldr.w	r3, [r4, #272]	; 0x110
    6f3c:	b12b      	cbz	r3, 6f4a <dns_check_entry+0x7e>
    6f3e:	f104 000c 	add.w	r0, r4, #12
    6f42:	2100      	movs	r1, #0
    6f44:	f8d4 2114 	ldr.w	r2, [r4, #276]	; 0x114
    6f48:	4798      	blx	r3
    6f4a:	2300      	movs	r3, #0
    6f4c:	5573      	strb	r3, [r6, r5]
    6f4e:	f8c4 3110 	str.w	r3, [r4, #272]	; 0x110
    6f52:	bdf8      	pop	{r3, r4, r5, r6, r7, pc}
    6f54:	70a3      	strb	r3, [r4, #2]
    6f56:	4602      	mov	r2, r0
    6f58:	f104 010c 	add.w	r1, r4, #12
    6f5c:	7860      	ldrb	r0, [r4, #1]
    6f5e:	e8bd 40f8 	ldmia.w	sp!, {r3, r4, r5, r6, r7, lr}
    6f62:	f7ff bf1f 	b.w	6da4 <dns_send>
    6f66:	4a06      	ldr	r2, [pc, #24]	; (6f80 <dns_check_entry+0xb4>)
    6f68:	1d11      	adds	r1, r2, #4
    6f6a:	d0e5      	beq.n	6f38 <dns_check_entry+0x6c>
    6f6c:	6852      	ldr	r2, [r2, #4]
    6f6e:	2a00      	cmp	r2, #0
    6f70:	d0e2      	beq.n	6f38 <dns_check_entry+0x6c>
    6f72:	2201      	movs	r2, #1
    6f74:	70e3      	strb	r3, [r4, #3]
    6f76:	7062      	strb	r2, [r4, #1]
    6f78:	70a2      	strb	r2, [r4, #2]
    6f7a:	bdf8      	pop	{r3, r4, r5, r6, r7, pc}
    6f7c:	100005a4 	.word	0x100005a4
    6f80:	10000a04 	.word	0x10000a04

00006f84 <dns_init>:
    6f84:	4a11      	ldr	r2, [pc, #68]	; (6fcc <dns_init+0x48>)
    6f86:	4b12      	ldr	r3, [pc, #72]	; (6fd0 <dns_init+0x4c>)
    6f88:	b570      	push	{r4, r5, r6, lr}
    6f8a:	f022 0203 	bic.w	r2, r2, #3
    6f8e:	4811      	ldr	r0, [pc, #68]	; (6fd4 <dns_init+0x50>)
    6f90:	601a      	str	r2, [r3, #0]
    6f92:	f7fc fe01 	bl	3b98 <ipaddr_addr>
    6f96:	4c10      	ldr	r4, [pc, #64]	; (6fd8 <dns_init+0x54>)
    6f98:	4606      	mov	r6, r0
    6f9a:	6825      	ldr	r5, [r4, #0]
    6f9c:	b105      	cbz	r5, 6fa0 <dns_init+0x1c>
    6f9e:	bd70      	pop	{r4, r5, r6, pc}
    6fa0:	f001 fa06 	bl	83b0 <udp_new>
    6fa4:	6020      	str	r0, [r4, #0]
    6fa6:	2800      	cmp	r0, #0
    6fa8:	d0f9      	beq.n	6f9e <dns_init+0x1a>
    6faa:	490c      	ldr	r1, [pc, #48]	; (6fdc <dns_init+0x58>)
    6fac:	462a      	mov	r2, r5
    6fae:	f001 f875 	bl	809c <udp_bind>
    6fb2:	462a      	mov	r2, r5
    6fb4:	6820      	ldr	r0, [r4, #0]
    6fb6:	490a      	ldr	r1, [pc, #40]	; (6fe0 <dns_init+0x5c>)
    6fb8:	f001 f9da 	bl	8370 <udp_recv>
    6fbc:	6823      	ldr	r3, [r4, #0]
    6fbe:	2b00      	cmp	r3, #0
    6fc0:	d0ed      	beq.n	6f9e <dns_init+0x1a>
    6fc2:	2e00      	cmp	r6, #0
    6fc4:	d0eb      	beq.n	6f9e <dns_init+0x1a>
    6fc6:	4b07      	ldr	r3, [pc, #28]	; (6fe4 <dns_init+0x60>)
    6fc8:	601e      	str	r6, [r3, #0]
    6fca:	e7e8      	b.n	6f9e <dns_init+0x1a>
    6fcc:	10000a0f 	.word	0x10000a0f
    6fd0:	10000c14 	.word	0x10000c14
    6fd4:	0000db90 	.word	0x0000db90
    6fd8:	10000c10 	.word	0x10000c10
    6fdc:	0000da2c 	.word	0x0000da2c
    6fe0:	00006be9 	.word	0x00006be9
    6fe4:	10000a04 	.word	0x10000a04

00006fe8 <dns_setserver>:
    6fe8:	2801      	cmp	r0, #1
    6fea:	d900      	bls.n	6fee <dns_setserver+0x6>
    6fec:	4770      	bx	lr
    6fee:	4b06      	ldr	r3, [pc, #24]	; (7008 <dns_setserver+0x20>)
    6ff0:	681b      	ldr	r3, [r3, #0]
    6ff2:	2b00      	cmp	r3, #0
    6ff4:	d0fa      	beq.n	6fec <dns_setserver+0x4>
    6ff6:	2900      	cmp	r1, #0
    6ff8:	d0f8      	beq.n	6fec <dns_setserver+0x4>
    6ffa:	680b      	ldr	r3, [r1, #0]
    6ffc:	2b00      	cmp	r3, #0
    6ffe:	d0f5      	beq.n	6fec <dns_setserver+0x4>
    7000:	4a02      	ldr	r2, [pc, #8]	; (700c <dns_setserver+0x24>)
    7002:	f842 3020 	str.w	r3, [r2, r0, lsl #2]
    7006:	4770      	bx	lr
    7008:	10000c10 	.word	0x10000c10
    700c:	10000a04 	.word	0x10000a04

00007010 <dns_tmr>:
    7010:	b508      	push	{r3, lr}
    7012:	4b09      	ldr	r3, [pc, #36]	; (7038 <dns_tmr+0x28>)
    7014:	681b      	ldr	r3, [r3, #0]
    7016:	b16b      	cbz	r3, 7034 <dns_tmr+0x24>
    7018:	2000      	movs	r0, #0
    701a:	f7ff ff57 	bl	6ecc <dns_check_entry>
    701e:	2001      	movs	r0, #1
    7020:	f7ff ff54 	bl	6ecc <dns_check_entry>
    7024:	2002      	movs	r0, #2
    7026:	f7ff ff51 	bl	6ecc <dns_check_entry>
    702a:	e8bd 4008 	ldmia.w	sp!, {r3, lr}
    702e:	2003      	movs	r0, #3
    7030:	f7ff bf4c 	b.w	6ecc <dns_check_entry>
    7034:	bd08      	pop	{r3, pc}
    7036:	bf00      	nop
    7038:	10000c10 	.word	0x10000c10

0000703c <dns_gethostbyname>:
    703c:	e92d 4ff8 	stmdb	sp!, {r3, r4, r5, r6, r7, r8, r9, r10, r11, lr}
    7040:	4c44      	ldr	r4, [pc, #272]	; (7154 <dns_gethostbyname+0x118>)
    7042:	460f      	mov	r7, r1
    7044:	6821      	ldr	r1, [r4, #0]
    7046:	4690      	mov	r8, r2
    7048:	4699      	mov	r9, r3
    704a:	4604      	mov	r4, r0
    704c:	2900      	cmp	r1, #0
    704e:	d05a      	beq.n	7106 <dns_gethostbyname+0xca>
    7050:	2f00      	cmp	r7, #0
    7052:	d058      	beq.n	7106 <dns_gethostbyname+0xca>
    7054:	2800      	cmp	r0, #0
    7056:	d056      	beq.n	7106 <dns_gethostbyname+0xca>
    7058:	7803      	ldrb	r3, [r0, #0]
    705a:	2b00      	cmp	r3, #0
    705c:	d053      	beq.n	7106 <dns_gethostbyname+0xca>
    705e:	f005 f994 	bl	c38a <strlen>
    7062:	28ff      	cmp	r0, #255	; 0xff
    7064:	d84f      	bhi.n	7106 <dns_gethostbyname+0xca>
    7066:	4620      	mov	r0, r4
    7068:	f7fc fd96 	bl	3b98 <ipaddr_addr>
    706c:	1c42      	adds	r2, r0, #1
    706e:	d004      	beq.n	707a <dns_gethostbyname+0x3e>
    7070:	6038      	str	r0, [r7, #0]
    7072:	2000      	movs	r0, #0
    7074:	b240      	sxtb	r0, r0
    7076:	e8bd 8ff8 	ldmia.w	sp!, {r3, r4, r5, r6, r7, r8, r9, r10, r11, pc}
    707a:	4d37      	ldr	r5, [pc, #220]	; (7158 <dns_gethostbyname+0x11c>)
    707c:	2600      	movs	r6, #0
    707e:	f815 3c0c 	ldrb.w	r3, [r5, #-12]
    7082:	2b03      	cmp	r3, #3
    7084:	d025      	beq.n	70d2 <dns_gethostbyname+0x96>
    7086:	3601      	adds	r6, #1
    7088:	2e04      	cmp	r6, #4
    708a:	f505 758c 	add.w	r5, r5, #280	; 0x118
    708e:	d1f6      	bne.n	707e <dns_gethostbyname+0x42>
    7090:	f8df c0cc 	ldr.w	r12, [pc, #204]	; 7160 <dns_gethostbyname+0x124>
    7094:	4a31      	ldr	r2, [pc, #196]	; (715c <dns_gethostbyname+0x120>)
    7096:	2100      	movs	r1, #0
    7098:	f892 b000 	ldrb.w	r11, [r2]
    709c:	4d30      	ldr	r5, [pc, #192]	; (7160 <dns_gethostbyname+0x124>)
    709e:	4608      	mov	r0, r1
    70a0:	468a      	mov	r10, r1
    70a2:	782b      	ldrb	r3, [r5, #0]
    70a4:	b2cf      	uxtb	r7, r1
    70a6:	462e      	mov	r6, r5
    70a8:	3101      	adds	r1, #1
    70aa:	b38b      	cbz	r3, 7110 <dns_gethostbyname+0xd4>
    70ac:	2b03      	cmp	r3, #3
    70ae:	d021      	beq.n	70f4 <dns_gethostbyname+0xb8>
    70b0:	2904      	cmp	r1, #4
    70b2:	f505 758c 	add.w	r5, r5, #280	; 0x118
    70b6:	d1f4      	bne.n	70a2 <dns_gethostbyname+0x66>
    70b8:	2803      	cmp	r0, #3
    70ba:	d808      	bhi.n	70ce <dns_gethostbyname+0x92>
    70bc:	f44f 768c 	mov.w	r6, #280	; 0x118
    70c0:	fb06 f600 	mul.w	r6, r6, r0
    70c4:	f81c 3006 	ldrb.w	r3, [r12, r6]
    70c8:	4466      	add	r6, r12
    70ca:	2b03      	cmp	r3, #3
    70cc:	d01f      	beq.n	710e <dns_gethostbyname+0xd2>
    70ce:	20ff      	movs	r0, #255	; 0xff
    70d0:	e7d0      	b.n	7074 <dns_gethostbyname+0x38>
    70d2:	4620      	mov	r0, r4
    70d4:	4629      	mov	r1, r5
    70d6:	f005 f946 	bl	c366 <strcmp>
    70da:	2800      	cmp	r0, #0
    70dc:	d1d3      	bne.n	7086 <dns_gethostbyname+0x4a>
    70de:	f8df c080 	ldr.w	r12, [pc, #128]	; 7160 <dns_gethostbyname+0x124>
    70e2:	f44f 738c 	mov.w	r3, #280	; 0x118
    70e6:	fb03 c606 	mla	r6, r3, r6, r12
    70ea:	f8d6 010c 	ldr.w	r0, [r6, #268]	; 0x10c
    70ee:	1c43      	adds	r3, r0, #1
    70f0:	d1be      	bne.n	7070 <dns_gethostbyname+0x34>
    70f2:	e7cf      	b.n	7094 <dns_gethostbyname+0x58>
    70f4:	792b      	ldrb	r3, [r5, #4]
    70f6:	ebc3 030b 	rsb	r3, r3, r11
    70fa:	4553      	cmp	r3, r10
    70fc:	bfc4      	itt	gt
    70fe:	fa5f fa83 	uxtbgt.w	r10, r3
    7102:	4638      	movgt	r0, r7
    7104:	e7d4      	b.n	70b0 <dns_gethostbyname+0x74>
    7106:	20f2      	movs	r0, #242	; 0xf2
    7108:	b240      	sxtb	r0, r0
    710a:	e8bd 8ff8 	ldmia.w	sp!, {r3, r4, r5, r6, r7, r8, r9, r10, r11, pc}
    710e:	4607      	mov	r7, r0
    7110:	7813      	ldrb	r3, [r2, #0]
    7112:	2101      	movs	r1, #1
    7114:	185d      	adds	r5, r3, r1
    7116:	7133      	strb	r3, [r6, #4]
    7118:	f8c6 8110 	str.w	r8, [r6, #272]	; 0x110
    711c:	f8c6 9114 	str.w	r9, [r6, #276]	; 0x114
    7120:	7031      	strb	r1, [r6, #0]
    7122:	4620      	mov	r0, r4
    7124:	7015      	strb	r5, [r2, #0]
    7126:	f005 f930 	bl	c38a <strlen>
    712a:	28ff      	cmp	r0, #255	; 0xff
    712c:	bf34      	ite	cc
    712e:	4605      	movcc	r5, r0
    7130:	25ff      	movcs	r5, #255	; 0xff
    7132:	4621      	mov	r1, r4
    7134:	462a      	mov	r2, r5
    7136:	f106 000c 	add.w	r0, r6, #12
    713a:	f7fd fc05 	bl	4948 <thumb2_memcpy>
    713e:	442e      	add	r6, r5
    7140:	2300      	movs	r3, #0
    7142:	4638      	mov	r0, r7
    7144:	7333      	strb	r3, [r6, #12]
    7146:	f7ff fec1 	bl	6ecc <dns_check_entry>
    714a:	20fb      	movs	r0, #251	; 0xfb
    714c:	b240      	sxtb	r0, r0
    714e:	e8bd 8ff8 	ldmia.w	sp!, {r3, r4, r5, r6, r7, r8, r9, r10, r11, pc}
    7152:	bf00      	nop
    7154:	10000c10 	.word	0x10000c10
    7158:	100005b0 	.word	0x100005b0
    715c:	100005a0 	.word	0x100005a0
    7160:	100005a4 	.word	0x100005a4

00007164 <tcp_receive>:
    7164:	e92d 43f8 	stmdb	sp!, {r3, r4, r5, r6, r7, r8, r9, lr}
    7168:	4bb5      	ldr	r3, [pc, #724]	; (7440 <tcp_receive+0x2dc>)
    716a:	4604      	mov	r4, r0
    716c:	781b      	ldrb	r3, [r3, #0]
    716e:	4fb5      	ldr	r7, [pc, #724]	; (7444 <tcp_receive+0x2e0>)
    7170:	06dd      	lsls	r5, r3, #27
    7172:	d422      	bmi.n	71ba <tcp_receive+0x56>
    7174:	f8df 82e8 	ldr.w	r8, [pc, #744]	; 7460 <tcp_receive+0x2fc>
    7178:	f8b8 1000 	ldrh.w	r1, [r8]
    717c:	2900      	cmp	r1, #0
    717e:	f000 8099 	beq.w	72b4 <tcp_receive+0x150>
    7182:	6a63      	ldr	r3, [r4, #36]	; 0x24
    7184:	683a      	ldr	r2, [r7, #0]
    7186:	1a9d      	subs	r5, r3, r2
    7188:	2d01      	cmp	r5, #1
    718a:	d405      	bmi.n	7198 <tcp_receive+0x34>
    718c:	1c58      	adds	r0, r3, #1
    718e:	1a80      	subs	r0, r0, r2
    7190:	1a41      	subs	r1, r0, r1
    7192:	2900      	cmp	r1, #0
    7194:	f340 8132 	ble.w	73fc <tcp_receive+0x298>
    7198:	1ad1      	subs	r1, r2, r3
    719a:	2900      	cmp	r1, #0
    719c:	f2c0 8123 	blt.w	73e6 <tcp_receive+0x282>
    71a0:	8d21      	ldrh	r1, [r4, #40]	; 0x28
    71a2:	f1c1 0001 	rsb	r0, r1, #1
    71a6:	4410      	add	r0, r2
    71a8:	1ac0      	subs	r0, r0, r3
    71aa:	2800      	cmp	r0, #0
    71ac:	f340 80af 	ble.w	730e <tcp_receive+0x1aa>
    71b0:	4620      	mov	r0, r4
    71b2:	e8bd 43f8 	ldmia.w	sp!, {r3, r4, r5, r6, r7, r8, r9, lr}
    71b6:	f7fb bc15 	b.w	29e4 <tcp_send_empty_ack>
    71ba:	6e03      	ldr	r3, [r0, #96]	; 0x60
    71bc:	683a      	ldr	r2, [r7, #0]
    71be:	f8b0 505c 	ldrh.w	r5, [r0, #92]	; 0x5c
    71c2:	1a98      	subs	r0, r3, r2
    71c4:	2800      	cmp	r0, #0
    71c6:	6e61      	ldr	r1, [r4, #100]	; 0x64
    71c8:	4e9f      	ldr	r6, [pc, #636]	; (7448 <tcp_receive+0x2e4>)
    71ca:	f2c0 808c 	blt.w	72e6 <tcp_receive+0x182>
    71ce:	4293      	cmp	r3, r2
    71d0:	6833      	ldr	r3, [r6, #0]
    71d2:	f000 8084 	beq.w	72de <tcp_receive+0x17a>
    71d6:	4299      	cmp	r1, r3
    71d8:	f000 8144 	beq.w	7464 <tcp_receive+0x300>
    71dc:	6ce0      	ldr	r0, [r4, #76]	; 0x4c
    71de:	1a1a      	subs	r2, r3, r0
    71e0:	2a00      	cmp	r2, #0
    71e2:	f340 80eb 	ble.w	73bc <tcp_receive+0x258>
    71e6:	6da1      	ldr	r1, [r4, #88]	; 0x58
    71e8:	1a59      	subs	r1, r3, r1
    71ea:	2900      	cmp	r1, #0
    71ec:	f340 8142 	ble.w	7474 <tcp_receive+0x310>
    71f0:	2300      	movs	r3, #0
    71f2:	f8a4 306c 	strh.w	r3, [r4, #108]	; 0x6c
    71f6:	f8df 8268 	ldr.w	r8, [pc, #616]	; 7460 <tcp_receive+0x2fc>
    71fa:	e02c      	b.n	7256 <tcp_receive+0xf2>
    71fc:	692b      	ldr	r3, [r5, #16]
    71fe:	6832      	ldr	r2, [r6, #0]
    7200:	6858      	ldr	r0, [r3, #4]
    7202:	8999      	ldrh	r1, [r3, #12]
    7204:	ba00      	rev	r0, r0
    7206:	ba4b      	rev16	r3, r1
    7208:	f013 0303 	ands.w	r3, r3, #3
    720c:	f8b5 c008 	ldrh.w	r12, [r5, #8]
    7210:	bf18      	it	ne
    7212:	2301      	movne	r3, #1
    7214:	1a10      	subs	r0, r2, r0
    7216:	4463      	add	r3, r12
    7218:	1ac3      	subs	r3, r0, r3
    721a:	2b00      	cmp	r3, #0
    721c:	db1e      	blt.n	725c <tcp_receive+0xf8>
    721e:	6da3      	ldr	r3, [r4, #88]	; 0x58
    7220:	1ad2      	subs	r2, r2, r3
    7222:	2a00      	cmp	r2, #0
    7224:	dc1a      	bgt.n	725c <tcp_receive+0xf8>
    7226:	682a      	ldr	r2, [r5, #0]
    7228:	f8b4 306c 	ldrh.w	r3, [r4, #108]	; 0x6c
    722c:	6762      	str	r2, [r4, #116]	; 0x74
    722e:	b133      	cbz	r3, 723e <tcp_receive+0xda>
    7230:	ba49      	rev16	r1, r1
    7232:	07ca      	lsls	r2, r1, #31
    7234:	bf44      	itt	mi
    7236:	f103 33ff 	addmi.w	r3, r3, #4294967295	; 0xffffffff
    723a:	f8a4 306c 	strhmi.w	r3, [r4, #108]	; 0x6c
    723e:	6868      	ldr	r0, [r5, #4]
    7240:	f8b4 9070 	ldrh.w	r9, [r4, #112]	; 0x70
    7244:	f7fa fb5e 	bl	1904 <pbuf_clen>
    7248:	ebc0 0009 	rsb	r0, r0, r9
    724c:	f8a4 0070 	strh.w	r0, [r4, #112]	; 0x70
    7250:	4628      	mov	r0, r5
    7252:	f7fa fc79 	bl	1b48 <tcp_seg_free>
    7256:	6f65      	ldr	r5, [r4, #116]	; 0x74
    7258:	2d00      	cmp	r5, #0
    725a:	d1cf      	bne.n	71fc <tcp_receive+0x98>
    725c:	6be3      	ldr	r3, [r4, #60]	; 0x3c
    725e:	2b00      	cmp	r3, #0
    7260:	d08a      	beq.n	7178 <tcp_receive+0x14>
    7262:	6831      	ldr	r1, [r6, #0]
    7264:	6c22      	ldr	r2, [r4, #64]	; 0x40
    7266:	1a52      	subs	r2, r2, r1
    7268:	2a00      	cmp	r2, #0
    726a:	da85      	bge.n	7178 <tcp_receive+0x14>
    726c:	4a77      	ldr	r2, [pc, #476]	; (744c <tcp_receive+0x2e8>)
    726e:	f8b4 1044 	ldrh.w	r1, [r4, #68]	; 0x44
    7272:	6810      	ldr	r0, [r2, #0]
    7274:	f341 02cc 	sbfx	r2, r1, #3, #13
    7278:	1ac3      	subs	r3, r0, r3
    727a:	1a9a      	subs	r2, r3, r2
    727c:	b292      	uxth	r2, r2
    727e:	b293      	uxth	r3, r2
    7280:	041e      	lsls	r6, r3, #16
    7282:	bf48      	it	mi
    7284:	4253      	negmi	r3, r2
    7286:	4411      	add	r1, r2
    7288:	f8b4 2046 	ldrh.w	r2, [r4, #70]	; 0x46
    728c:	bf48      	it	mi
    728e:	b29b      	uxthmi	r3, r3
    7290:	f342 008d 	sbfx	r0, r2, #2, #14
    7294:	1a12      	subs	r2, r2, r0
    7296:	b289      	uxth	r1, r1
    7298:	4413      	add	r3, r2
    729a:	b29b      	uxth	r3, r3
    729c:	f8a4 1044 	strh.w	r1, [r4, #68]	; 0x44
    72a0:	f341 01cc 	sbfx	r1, r1, #3, #13
    72a4:	4419      	add	r1, r3
    72a6:	2200      	movs	r2, #0
    72a8:	f8a4 1048 	strh.w	r1, [r4, #72]	; 0x48
    72ac:	f8a4 3046 	strh.w	r3, [r4, #70]	; 0x46
    72b0:	63e2      	str	r2, [r4, #60]	; 0x3c
    72b2:	e761      	b.n	7178 <tcp_receive+0x14>
    72b4:	683a      	ldr	r2, [r7, #0]
    72b6:	6a63      	ldr	r3, [r4, #36]	; 0x24
    72b8:	1ad1      	subs	r1, r2, r3
    72ba:	2900      	cmp	r1, #0
    72bc:	db05      	blt.n	72ca <tcp_receive+0x166>
    72be:	3201      	adds	r2, #1
    72c0:	8d21      	ldrh	r1, [r4, #40]	; 0x28
    72c2:	1ad3      	subs	r3, r2, r3
    72c4:	1a5b      	subs	r3, r3, r1
    72c6:	2b00      	cmp	r3, #0
    72c8:	dd07      	ble.n	72da <tcp_receive+0x176>
    72ca:	f894 3020 	ldrb.w	r3, [r4, #32]
    72ce:	f043 0302 	orr.w	r3, r3, #2
    72d2:	f884 3020 	strb.w	r3, [r4, #32]
    72d6:	e8bd 83f8 	ldmia.w	sp!, {r3, r4, r5, r6, r7, r8, r9, pc}
    72da:	e8bd 83f8 	ldmia.w	sp!, {r3, r4, r5, r6, r7, r8, r9, pc}
    72de:	1ac8      	subs	r0, r1, r3
    72e0:	2800      	cmp	r0, #0
    72e2:	f6bf af78 	bge.w	71d6 <tcp_receive+0x72>
    72e6:	485a      	ldr	r0, [pc, #360]	; (7450 <tcp_receive+0x2ec>)
    72e8:	6833      	ldr	r3, [r6, #0]
    72ea:	6800      	ldr	r0, [r0, #0]
    72ec:	89c0      	ldrh	r0, [r0, #14]
    72ee:	f8a4 005c 	strh.w	r0, [r4, #92]	; 0x5c
    72f2:	6622      	str	r2, [r4, #96]	; 0x60
    72f4:	6663      	str	r3, [r4, #100]	; 0x64
    72f6:	2800      	cmp	r0, #0
    72f8:	f43f af70 	beq.w	71dc <tcp_receive+0x78>
    72fc:	f894 20a4 	ldrb.w	r2, [r4, #164]	; 0xa4
    7300:	2a00      	cmp	r2, #0
    7302:	f43f af6b 	beq.w	71dc <tcp_receive+0x78>
    7306:	2200      	movs	r2, #0
    7308:	f884 20a4 	strb.w	r2, [r4, #164]	; 0xa4
    730c:	e766      	b.n	71dc <tcp_receive+0x78>
    730e:	429a      	cmp	r2, r3
    7310:	f47f af4e 	bne.w	71b0 <tcp_receive+0x4c>
    7314:	4b4f      	ldr	r3, [pc, #316]	; (7454 <tcp_receive+0x2f0>)
    7316:	6918      	ldr	r0, [r3, #16]
    7318:	8982      	ldrh	r2, [r0, #12]
    731a:	ba53      	rev16	r3, r2
    731c:	4e4d      	ldr	r6, [pc, #308]	; (7454 <tcp_receive+0x2f0>)
    731e:	f013 0303 	ands.w	r3, r3, #3
    7322:	8935      	ldrh	r5, [r6, #8]
    7324:	bf18      	it	ne
    7326:	2301      	movne	r3, #1
    7328:	442b      	add	r3, r5
    732a:	b29b      	uxth	r3, r3
    732c:	4299      	cmp	r1, r3
    732e:	f8a8 3000 	strh.w	r3, [r8]
    7332:	d21b      	bcs.n	736c <tcp_receive+0x208>
    7334:	ba53      	rev16	r3, r2
    7336:	07dd      	lsls	r5, r3, #31
    7338:	f100 810b 	bmi.w	7552 <tcp_receive+0x3ee>
    733c:	ba52      	rev16	r2, r2
    733e:	0790      	lsls	r0, r2, #30
    7340:	bf44      	itt	mi
    7342:	f101 31ff 	addmi.w	r1, r1, #4294967295	; 0xffffffff
    7346:	b289      	uxthmi	r1, r1
    7348:	6870      	ldr	r0, [r6, #4]
    734a:	8131      	strh	r1, [r6, #8]
    734c:	f7fa fab0 	bl	18b0 <pbuf_realloc>
    7350:	6933      	ldr	r3, [r6, #16]
    7352:	899b      	ldrh	r3, [r3, #12]
    7354:	ba5b      	rev16	r3, r3
    7356:	4e3f      	ldr	r6, [pc, #252]	; (7454 <tcp_receive+0x2f0>)
    7358:	f013 0303 	ands.w	r3, r3, #3
    735c:	8932      	ldrh	r2, [r6, #8]
    735e:	bf18      	it	ne
    7360:	2301      	movne	r3, #1
    7362:	4413      	add	r3, r2
    7364:	b29b      	uxth	r3, r3
    7366:	8d21      	ldrh	r1, [r4, #40]	; 0x28
    7368:	f8a8 3000 	strh.w	r3, [r8]
    736c:	683a      	ldr	r2, [r7, #0]
    736e:	1ac9      	subs	r1, r1, r3
    7370:	4413      	add	r3, r2
    7372:	6263      	str	r3, [r4, #36]	; 0x24
    7374:	8521      	strh	r1, [r4, #40]	; 0x28
    7376:	4620      	mov	r0, r4
    7378:	f7fa fba8 	bl	1acc <tcp_update_rcv_ann_wnd>
    737c:	6873      	ldr	r3, [r6, #4]
    737e:	4935      	ldr	r1, [pc, #212]	; (7454 <tcp_receive+0x2f0>)
    7380:	891a      	ldrh	r2, [r3, #8]
    7382:	b11a      	cbz	r2, 738c <tcp_receive+0x228>
    7384:	4834      	ldr	r0, [pc, #208]	; (7458 <tcp_receive+0x2f4>)
    7386:	2200      	movs	r2, #0
    7388:	6003      	str	r3, [r0, #0]
    738a:	604a      	str	r2, [r1, #4]
    738c:	6933      	ldr	r3, [r6, #16]
    738e:	899b      	ldrh	r3, [r3, #12]
    7390:	ba5b      	rev16	r3, r3
    7392:	07d9      	lsls	r1, r3, #31
    7394:	d504      	bpl.n	73a0 <tcp_receive+0x23c>
    7396:	4b31      	ldr	r3, [pc, #196]	; (745c <tcp_receive+0x2f8>)
    7398:	781a      	ldrb	r2, [r3, #0]
    739a:	f042 0220 	orr.w	r2, r2, #32
    739e:	701a      	strb	r2, [r3, #0]
    73a0:	f894 3020 	ldrb.w	r3, [r4, #32]
    73a4:	07da      	lsls	r2, r3, #31
    73a6:	bf46      	itte	mi
    73a8:	f023 0301 	bicmi.w	r3, r3, #1
    73ac:	f043 0302 	orrmi.w	r3, r3, #2
    73b0:	f043 0301 	orrpl.w	r3, r3, #1
    73b4:	f884 3020 	strb.w	r3, [r4, #32]
    73b8:	e8bd 83f8 	ldmia.w	sp!, {r3, r4, r5, r6, r7, r8, r9, pc}
    73bc:	f8df 80a0 	ldr.w	r8, [pc, #160]	; 7460 <tcp_receive+0x2fc>
    73c0:	f04f 0c00 	mov.w	r12, #0
    73c4:	f8b8 2000 	ldrh.w	r2, [r8]
    73c8:	f8a4 c06c 	strh.w	r12, [r4, #108]	; 0x6c
    73cc:	b93a      	cbnz	r2, 73de <tcp_receive+0x27a>
    73ce:	f8b4 c05c 	ldrh.w	r12, [r4, #92]	; 0x5c
    73d2:	6e62      	ldr	r2, [r4, #100]	; 0x64
    73d4:	4429      	add	r1, r5
    73d6:	4462      	add	r2, r12
    73d8:	428a      	cmp	r2, r1
    73da:	f000 80c4 	beq.w	7566 <tcp_receive+0x402>
    73de:	2300      	movs	r3, #0
    73e0:	f884 3050 	strb.w	r3, [r4, #80]	; 0x50
    73e4:	e737      	b.n	7256 <tcp_receive+0xf2>
    73e6:	f894 3020 	ldrb.w	r3, [r4, #32]
    73ea:	4620      	mov	r0, r4
    73ec:	f043 0302 	orr.w	r3, r3, #2
    73f0:	f884 3020 	strb.w	r3, [r4, #32]
    73f4:	e8bd 43f8 	ldmia.w	sp!, {r3, r4, r5, r6, r7, r8, r9, lr}
    73f8:	f7fb baf4 	b.w	29e4 <tcp_send_empty_ack>
    73fc:	4e15      	ldr	r6, [pc, #84]	; (7454 <tcp_receive+0x2f0>)
    73fe:	462b      	mov	r3, r5
    7400:	6870      	ldr	r0, [r6, #4]
    7402:	8942      	ldrh	r2, [r0, #10]
    7404:	4295      	cmp	r5, r2
    7406:	f340 80cd 	ble.w	75a4 <tcp_receive+0x440>
    740a:	8901      	ldrh	r1, [r0, #8]
    740c:	2500      	movs	r5, #0
    740e:	1ac9      	subs	r1, r1, r3
    7410:	b289      	uxth	r1, r1
    7412:	8145      	strh	r5, [r0, #10]
    7414:	8101      	strh	r1, [r0, #8]
    7416:	6800      	ldr	r0, [r0, #0]
    7418:	1a9b      	subs	r3, r3, r2
    741a:	8942      	ldrh	r2, [r0, #10]
    741c:	429a      	cmp	r2, r3
    741e:	dbf8      	blt.n	7412 <tcp_receive+0x2ae>
    7420:	4259      	negs	r1, r3
    7422:	b209      	sxth	r1, r1
    7424:	f7fa f944 	bl	16b0 <pbuf_header>
    7428:	8930      	ldrh	r0, [r6, #8]
    742a:	683b      	ldr	r3, [r7, #0]
    742c:	6a62      	ldr	r2, [r4, #36]	; 0x24
    742e:	4403      	add	r3, r0
    7430:	6931      	ldr	r1, [r6, #16]
    7432:	1a98      	subs	r0, r3, r2
    7434:	8130      	strh	r0, [r6, #8]
    7436:	4613      	mov	r3, r2
    7438:	603a      	str	r2, [r7, #0]
    743a:	604a      	str	r2, [r1, #4]
    743c:	e6b0      	b.n	71a0 <tcp_receive+0x3c>
    743e:	bf00      	nop
    7440:	10000c28 	.word	0x10000c28
    7444:	10000c18 	.word	0x10000c18
    7448:	10000c24 	.word	0x10000c24
    744c:	10000fc0 	.word	0x10000fc0
    7450:	10000c2c 	.word	0x10000c2c
    7454:	10000c34 	.word	0x10000c34
    7458:	10000c30 	.word	0x10000c30
    745c:	10000c29 	.word	0x10000c29
    7460:	10000c20 	.word	0x10000c20
    7464:	4b55      	ldr	r3, [pc, #340]	; (75bc <tcp_receive+0x458>)
    7466:	681b      	ldr	r3, [r3, #0]
    7468:	89d8      	ldrh	r0, [r3, #14]
    746a:	460b      	mov	r3, r1
    746c:	4285      	cmp	r5, r0
    746e:	f4bf aeb5 	bcs.w	71dc <tcp_receive+0x78>
    7472:	e73c      	b.n	72ee <tcp_receive+0x18a>
    7474:	f894 1020 	ldrb.w	r1, [r4, #32]
    7478:	0748      	lsls	r0, r1, #29
    747a:	d507      	bpl.n	748c <tcp_receive+0x328>
    747c:	f8b4 0054 	ldrh.w	r0, [r4, #84]	; 0x54
    7480:	f021 0104 	bic.w	r1, r1, #4
    7484:	f884 1020 	strb.w	r1, [r4, #32]
    7488:	f8a4 0052 	strh.w	r0, [r4, #82]	; 0x52
    748c:	f8b4 c06e 	ldrh.w	r12, [r4, #110]	; 0x6e
    7490:	f8b4 1046 	ldrh.w	r1, [r4, #70]	; 0x46
    7494:	f9b4 5044 	ldrsh.w	r5, [r4, #68]	; 0x44
    7498:	7c20      	ldrb	r0, [r4, #16]
    749a:	b292      	uxth	r2, r2
    749c:	eb01 05e5 	add.w	r5, r1, r5, asr #3
    74a0:	4494      	add	r12, r2
    74a2:	2100      	movs	r1, #0
    74a4:	2803      	cmp	r0, #3
    74a6:	f8a4 206c 	strh.w	r2, [r4, #108]	; 0x6c
    74aa:	64e3      	str	r3, [r4, #76]	; 0x4c
    74ac:	f8a4 c06e 	strh.w	r12, [r4, #110]	; 0x6e
    74b0:	f8a4 5048 	strh.w	r5, [r4, #72]	; 0x48
    74b4:	f884 104a 	strb.w	r1, [r4, #74]	; 0x4a
    74b8:	f884 1050 	strb.w	r1, [r4, #80]	; 0x50
    74bc:	d838      	bhi.n	7530 <tcp_receive+0x3cc>
    74be:	6fa5      	ldr	r5, [r4, #120]	; 0x78
    74c0:	b9e5      	cbnz	r5, 74fc <tcp_receive+0x398>
    74c2:	e06b      	b.n	759c <tcp_receive+0x438>
    74c4:	682a      	ldr	r2, [r5, #0]
    74c6:	f8b4 306c 	ldrh.w	r3, [r4, #108]	; 0x6c
    74ca:	67a2      	str	r2, [r4, #120]	; 0x78
    74cc:	b133      	cbz	r3, 74dc <tcp_receive+0x378>
    74ce:	ba49      	rev16	r1, r1
    74d0:	07c9      	lsls	r1, r1, #31
    74d2:	bf44      	itt	mi
    74d4:	f103 33ff 	addmi.w	r3, r3, #4294967295	; 0xffffffff
    74d8:	f8a4 306c 	strhmi.w	r3, [r4, #108]	; 0x6c
    74dc:	6868      	ldr	r0, [r5, #4]
    74de:	f8b4 8070 	ldrh.w	r8, [r4, #112]	; 0x70
    74e2:	f7fa fa0f 	bl	1904 <pbuf_clen>
    74e6:	ebc0 0008 	rsb	r0, r0, r8
    74ea:	f8a4 0070 	strh.w	r0, [r4, #112]	; 0x70
    74ee:	4628      	mov	r0, r5
    74f0:	f7fa fb2a 	bl	1b48 <tcp_seg_free>
    74f4:	6fa5      	ldr	r5, [r4, #120]	; 0x78
    74f6:	2d00      	cmp	r5, #0
    74f8:	d050      	beq.n	759c <tcp_receive+0x438>
    74fa:	6833      	ldr	r3, [r6, #0]
    74fc:	692a      	ldr	r2, [r5, #16]
    74fe:	f8d2 c004 	ldr.w	r12, [r2, #4]
    7502:	8991      	ldrh	r1, [r2, #12]
    7504:	fa9c fc8c 	rev.w	r12, r12
    7508:	ba4a      	rev16	r2, r1
    750a:	f012 0203 	ands.w	r2, r2, #3
    750e:	8928      	ldrh	r0, [r5, #8]
    7510:	bf18      	it	ne
    7512:	2201      	movne	r2, #1
    7514:	ebc3 030c 	rsb	r3, r3, r12
    7518:	4402      	add	r2, r0
    751a:	4413      	add	r3, r2
    751c:	2b00      	cmp	r3, #0
    751e:	ddd1      	ble.n	74c4 <tcp_receive+0x360>
    7520:	2300      	movs	r3, #0
    7522:	86e3      	strh	r3, [r4, #54]	; 0x36
    7524:	2300      	movs	r3, #0
    7526:	f884 3034 	strb.w	r3, [r4, #52]	; 0x34
    752a:	f8df 8094 	ldr.w	r8, [pc, #148]	; 75c0 <tcp_receive+0x45c>
    752e:	e692      	b.n	7256 <tcp_receive+0xf2>
    7530:	f8b4 2052 	ldrh.w	r2, [r4, #82]	; 0x52
    7534:	f8b4 1054 	ldrh.w	r1, [r4, #84]	; 0x54
    7538:	4291      	cmp	r1, r2
    753a:	8f21      	ldrh	r1, [r4, #56]	; 0x38
    753c:	bf9c      	itt	ls
    753e:	4349      	mulls	r1, r1
    7540:	fb91 f1f2 	sdivls	r1, r1, r2
    7544:	4411      	add	r1, r2
    7546:	b289      	uxth	r1, r1
    7548:	428a      	cmp	r2, r1
    754a:	bf38      	it	cc
    754c:	f8a4 1052 	strhcc.w	r1, [r4, #82]	; 0x52
    7550:	e7b5      	b.n	74be <tcp_receive+0x35a>
    7552:	ba53      	rev16	r3, r2
    7554:	f003 033e 	and.w	r3, r3, #62	; 0x3e
    7558:	ba5b      	rev16	r3, r3
    755a:	f422 527c 	bic.w	r2, r2, #16128	; 0x3f00
    755e:	431a      	orrs	r2, r3
    7560:	b292      	uxth	r2, r2
    7562:	8182      	strh	r2, [r0, #12]
    7564:	e6ea      	b.n	733c <tcp_receive+0x1d8>
    7566:	f9b4 2036 	ldrsh.w	r2, [r4, #54]	; 0x36
    756a:	2a00      	cmp	r2, #0
    756c:	f6ff af37 	blt.w	73de <tcp_receive+0x27a>
    7570:	4298      	cmp	r0, r3
    7572:	f47f af34 	bne.w	73de <tcp_receive+0x27a>
    7576:	f894 3050 	ldrb.w	r3, [r4, #80]	; 0x50
    757a:	3301      	adds	r3, #1
    757c:	b2db      	uxtb	r3, r3
    757e:	2b03      	cmp	r3, #3
    7580:	f884 3050 	strb.w	r3, [r4, #80]	; 0x50
    7584:	d913      	bls.n	75ae <tcp_receive+0x44a>
    7586:	f8b4 2052 	ldrh.w	r2, [r4, #82]	; 0x52
    758a:	8f23      	ldrh	r3, [r4, #56]	; 0x38
    758c:	4413      	add	r3, r2
    758e:	b29b      	uxth	r3, r3
    7590:	429a      	cmp	r2, r3
    7592:	f4bf ae60 	bcs.w	7256 <tcp_receive+0xf2>
    7596:	f8a4 3052 	strh.w	r3, [r4, #82]	; 0x52
    759a:	e65c      	b.n	7256 <tcp_receive+0xf2>
    759c:	f64f 73ff 	movw	r3, #65535	; 0xffff
    75a0:	86e3      	strh	r3, [r4, #54]	; 0x36
    75a2:	e7bf      	b.n	7524 <tcp_receive+0x3c0>
    75a4:	4269      	negs	r1, r5
    75a6:	b209      	sxth	r1, r1
    75a8:	f7fa f882 	bl	16b0 <pbuf_header>
    75ac:	e73c      	b.n	7428 <tcp_receive+0x2c4>
    75ae:	f47f ae52 	bne.w	7256 <tcp_receive+0xf2>
    75b2:	4620      	mov	r0, r4
    75b4:	f7fb fc12 	bl	2ddc <tcp_rexmit_fast>
    75b8:	e64d      	b.n	7256 <tcp_receive+0xf2>
    75ba:	bf00      	nop
    75bc:	10000c2c 	.word	0x10000c2c
    75c0:	10000c20 	.word	0x10000c20

000075c4 <tcp_parseopt.isra.0>:
    75c4:	b4f0      	push	{r4, r5, r6, r7}
    75c6:	4b1d      	ldr	r3, [pc, #116]	; (763c <tcp_parseopt.isra.0+0x78>)
    75c8:	6819      	ldr	r1, [r3, #0]
    75ca:	898b      	ldrh	r3, [r1, #12]
    75cc:	ba5a      	rev16	r2, r3
    75ce:	f5b2 4fc0 	cmp.w	r2, #24576	; 0x6000
    75d2:	d326      	bcc.n	7622 <tcp_parseopt.isra.0+0x5e>
    75d4:	ba5c      	rev16	r4, r3
    75d6:	0b24      	lsrs	r4, r4, #12
    75d8:	3c05      	subs	r4, #5
    75da:	00a4      	lsls	r4, r4, #2
    75dc:	b2a4      	uxth	r4, r4
    75de:	b304      	cbz	r4, 7622 <tcp_parseopt.isra.0+0x5e>
    75e0:	3114      	adds	r1, #20
    75e2:	2300      	movs	r3, #0
    75e4:	f240 56b3 	movw	r6, #1459	; 0x5b3
    75e8:	f240 55b4 	movw	r5, #1460	; 0x5b4
    75ec:	5cca      	ldrb	r2, [r1, r3]
    75ee:	2a01      	cmp	r2, #1
    75f0:	d020      	beq.n	7634 <tcp_parseopt.isra.0+0x70>
    75f2:	d316      	bcc.n	7622 <tcp_parseopt.isra.0+0x5e>
    75f4:	2a02      	cmp	r2, #2
    75f6:	d116      	bne.n	7626 <tcp_parseopt.isra.0+0x62>
    75f8:	18ca      	adds	r2, r1, r3
    75fa:	7857      	ldrb	r7, [r2, #1]
    75fc:	2f04      	cmp	r7, #4
    75fe:	d110      	bne.n	7622 <tcp_parseopt.isra.0+0x5e>
    7600:	1cdf      	adds	r7, r3, #3
    7602:	42a7      	cmp	r7, r4
    7604:	da0d      	bge.n	7622 <tcp_parseopt.isra.0+0x5e>
    7606:	7897      	ldrb	r7, [r2, #2]
    7608:	78d2      	ldrb	r2, [r2, #3]
    760a:	3304      	adds	r3, #4
    760c:	ea42 2207 	orr.w	r2, r2, r7, lsl #8
    7610:	1e57      	subs	r7, r2, #1
    7612:	b2bf      	uxth	r7, r7
    7614:	42b7      	cmp	r7, r6
    7616:	bf88      	it	hi
    7618:	462a      	movhi	r2, r5
    761a:	b29b      	uxth	r3, r3
    761c:	8002      	strh	r2, [r0, #0]
    761e:	429c      	cmp	r4, r3
    7620:	d8e4      	bhi.n	75ec <tcp_parseopt.isra.0+0x28>
    7622:	bcf0      	pop	{r4, r5, r6, r7}
    7624:	4770      	bx	lr
    7626:	18ca      	adds	r2, r1, r3
    7628:	7852      	ldrb	r2, [r2, #1]
    762a:	2a00      	cmp	r2, #0
    762c:	d0f9      	beq.n	7622 <tcp_parseopt.isra.0+0x5e>
    762e:	4413      	add	r3, r2
    7630:	b29b      	uxth	r3, r3
    7632:	e7f4      	b.n	761e <tcp_parseopt.isra.0+0x5a>
    7634:	3301      	adds	r3, #1
    7636:	b29b      	uxth	r3, r3
    7638:	e7f1      	b.n	761e <tcp_parseopt.isra.0+0x5a>
    763a:	bf00      	nop
    763c:	10000c2c 	.word	0x10000c2c

00007640 <tcp_input>:
    7640:	e92d 4ff0 	stmdb	sp!, {r4, r5, r6, r7, r8, r9, r10, r11, lr}
    7644:	6843      	ldr	r3, [r0, #4]
    7646:	4aab      	ldr	r2, [pc, #684]	; (78f4 <tcp_input+0x2b4>)
    7648:	b08b      	sub	sp, #44	; 0x2c
    764a:	6013      	str	r3, [r2, #0]
    764c:	4605      	mov	r5, r0
    764e:	460c      	mov	r4, r1
    7650:	881a      	ldrh	r2, [r3, #0]
    7652:	ba51      	rev16	r1, r2
    7654:	4ea8      	ldr	r6, [pc, #672]	; (78f8 <tcp_input+0x2b8>)
    7656:	f3c1 2103 	ubfx	r1, r1, #8, #4
    765a:	eb03 0381 	add.w	r3, r3, r1, lsl #2
    765e:	6033      	str	r3, [r6, #0]
    7660:	ba52      	rev16	r2, r2
    7662:	f3c2 2203 	ubfx	r2, r2, #8, #4
    7666:	0091      	lsls	r1, r2, #2
    7668:	4249      	negs	r1, r1
    766a:	f7fa f821 	bl	16b0 <pbuf_header>
    766e:	b910      	cbnz	r0, 7676 <tcp_input+0x36>
    7670:	892b      	ldrh	r3, [r5, #8]
    7672:	2b13      	cmp	r3, #19
    7674:	d805      	bhi.n	7682 <tcp_input+0x42>
    7676:	4628      	mov	r0, r5
    7678:	b00b      	add	sp, #44	; 0x2c
    767a:	e8bd 4ff0 	ldmia.w	sp!, {r4, r5, r6, r7, r8, r9, r10, r11, lr}
    767e:	f7fa b84d 	b.w	171c <pbuf_free>
    7682:	4f9e      	ldr	r7, [pc, #632]	; (78fc <tcp_input+0x2bc>)
    7684:	4621      	mov	r1, r4
    7686:	6838      	ldr	r0, [r7, #0]
    7688:	f7fc f9d8 	bl	3a3c <ip4_addr_isbroadcast>
    768c:	2800      	cmp	r0, #0
    768e:	d1f2      	bne.n	7676 <tcp_input+0x36>
    7690:	683b      	ldr	r3, [r7, #0]
    7692:	f003 03f0 	and.w	r3, r3, #240	; 0xf0
    7696:	2be0      	cmp	r3, #224	; 0xe0
    7698:	d0ed      	beq.n	7676 <tcp_input+0x36>
    769a:	892b      	ldrh	r3, [r5, #8]
    769c:	4628      	mov	r0, r5
    769e:	9300      	str	r3, [sp, #0]
    76a0:	4997      	ldr	r1, [pc, #604]	; (7900 <tcp_input+0x2c0>)
    76a2:	463a      	mov	r2, r7
    76a4:	2306      	movs	r3, #6
    76a6:	f7fb ff11 	bl	34cc <inet_chksum_pseudo>
    76aa:	2800      	cmp	r0, #0
    76ac:	d1e3      	bne.n	7676 <tcp_input+0x36>
    76ae:	6833      	ldr	r3, [r6, #0]
    76b0:	899b      	ldrh	r3, [r3, #12]
    76b2:	ba5b      	rev16	r3, r3
    76b4:	f3c3 3307 	ubfx	r3, r3, #12, #8
    76b8:	ebc3 3383 	rsb	r3, r3, r3, lsl #14
    76bc:	0099      	lsls	r1, r3, #2
    76be:	b209      	sxth	r1, r1
    76c0:	4628      	mov	r0, r5
    76c2:	f7f9 fff5 	bl	16b0 <pbuf_header>
    76c6:	2800      	cmp	r0, #0
    76c8:	d1d5      	bne.n	7676 <tcp_input+0x36>
    76ca:	f8d6 c000 	ldr.w	r12, [r6]
    76ce:	f8bc 3000 	ldrh.w	r3, [r12]
    76d2:	ba5b      	rev16	r3, r3
    76d4:	b29b      	uxth	r3, r3
    76d6:	f8ac 3000 	strh.w	r3, [r12]
    76da:	f8bc 2002 	ldrh.w	r2, [r12, #2]
    76de:	ba52      	rev16	r2, r2
    76e0:	f8dc 1004 	ldr.w	r1, [r12, #4]
    76e4:	4887      	ldr	r0, [pc, #540]	; (7904 <tcp_input+0x2c4>)
    76e6:	fa91 fb81 	rev.w	r11, r1
    76ea:	f8c0 b000 	str.w	r11, [r0]
    76ee:	f8dc 1008 	ldr.w	r1, [r12, #8]
    76f2:	4c85      	ldr	r4, [pc, #532]	; (7908 <tcp_input+0x2c8>)
    76f4:	ba09      	rev	r1, r1
    76f6:	9104      	str	r1, [sp, #16]
    76f8:	b292      	uxth	r2, r2
    76fa:	6021      	str	r1, [r4, #0]
    76fc:	f8cc 1008 	str.w	r1, [r12, #8]
    7700:	f8ac 2002 	strh.w	r2, [r12, #2]
    7704:	f8cc b004 	str.w	r11, [r12, #4]
    7708:	f8bc 100e 	ldrh.w	r1, [r12, #14]
    770c:	ba49      	rev16	r1, r1
    770e:	f8bc 000c 	ldrh.w	r0, [r12, #12]
    7712:	f8ac 100e 	strh.w	r1, [r12, #14]
    7716:	9007      	str	r0, [sp, #28]
    7718:	ba41      	rev16	r1, r0
    771a:	fa5f fa81 	uxtb.w	r10, r1
    771e:	892c      	ldrh	r4, [r5, #8]
    7720:	f01a 0103 	ands.w	r1, r10, #3
    7724:	bf18      	it	ne
    7726:	2101      	movne	r1, #1
    7728:	4421      	add	r1, r4
    772a:	4878      	ldr	r0, [pc, #480]	; (790c <tcp_input+0x2cc>)
    772c:	b289      	uxth	r1, r1
    772e:	9106      	str	r1, [sp, #24]
    7730:	f8d0 9000 	ldr.w	r9, [r0]
    7734:	9408      	str	r4, [sp, #32]
    7736:	f8df 81ec 	ldr.w	r8, [pc, #492]	; 7924 <tcp_input+0x2e4>
    773a:	9c06      	ldr	r4, [sp, #24]
    773c:	4874      	ldr	r0, [pc, #464]	; (7910 <tcp_input+0x2d0>)
    773e:	f00a 013f 	and.w	r1, r10, #63	; 0x3f
    7742:	8004      	strh	r4, [r0, #0]
    7744:	f888 1000 	strb.w	r1, [r8]
    7748:	f1b9 0f00 	cmp.w	r9, #0
    774c:	d07a      	beq.n	7844 <tcp_input+0x204>
    774e:	496c      	ldr	r1, [pc, #432]	; (7900 <tcp_input+0x2c0>)
    7750:	683c      	ldr	r4, [r7, #0]
    7752:	6809      	ldr	r1, [r1, #0]
    7754:	9409      	str	r4, [sp, #36]	; 0x24
    7756:	9105      	str	r1, [sp, #20]
    7758:	464c      	mov	r4, r9
    775a:	2100      	movs	r1, #0
    775c:	9503      	str	r5, [sp, #12]
    775e:	e004      	b.n	776a <tcp_input+0x12a>
    7760:	68e0      	ldr	r0, [r4, #12]
    7762:	4621      	mov	r1, r4
    7764:	2800      	cmp	r0, #0
    7766:	d06c      	beq.n	7842 <tcp_input+0x202>
    7768:	4604      	mov	r4, r0
    776a:	8be0      	ldrh	r0, [r4, #30]
    776c:	4298      	cmp	r0, r3
    776e:	d1f7      	bne.n	7760 <tcp_input+0x120>
    7770:	8ba0      	ldrh	r0, [r4, #28]
    7772:	4290      	cmp	r0, r2
    7774:	d1f4      	bne.n	7760 <tcp_input+0x120>
    7776:	6865      	ldr	r5, [r4, #4]
    7778:	9805      	ldr	r0, [sp, #20]
    777a:	4285      	cmp	r5, r0
    777c:	d1f0      	bne.n	7760 <tcp_input+0x120>
    777e:	6825      	ldr	r5, [r4, #0]
    7780:	9809      	ldr	r0, [sp, #36]	; 0x24
    7782:	4285      	cmp	r5, r0
    7784:	d1ec      	bne.n	7760 <tcp_input+0x120>
    7786:	9d03      	ldr	r5, [sp, #12]
    7788:	b129      	cbz	r1, 7796 <tcp_input+0x156>
    778a:	68e3      	ldr	r3, [r4, #12]
    778c:	4a5f      	ldr	r2, [pc, #380]	; (790c <tcp_input+0x2cc>)
    778e:	60cb      	str	r3, [r1, #12]
    7790:	6014      	str	r4, [r2, #0]
    7792:	f8c4 900c 	str.w	r9, [r4, #12]
    7796:	f8df a184 	ldr.w	r10, [pc, #388]	; 791c <tcp_input+0x2dc>
    779a:	f8df 918c 	ldr.w	r9, [pc, #396]	; 7928 <tcp_input+0x2e8>
    779e:	4f5d      	ldr	r7, [pc, #372]	; (7914 <tcp_input+0x2d4>)
    77a0:	9908      	ldr	r1, [sp, #32]
    77a2:	6fe2      	ldr	r2, [r4, #124]	; 0x7c
    77a4:	2300      	movs	r3, #0
    77a6:	f8aa 1008 	strh.w	r1, [r10, #8]
    77aa:	f8ca 5004 	str.w	r5, [r10, #4]
    77ae:	f8ca c010 	str.w	r12, [r10, #16]
    77b2:	f8ca 3000 	str.w	r3, [r10]
    77b6:	f8c9 3000 	str.w	r3, [r9]
    77ba:	703b      	strb	r3, [r7, #0]
    77bc:	b15a      	cbz	r2, 77d6 <tcp_input+0x196>
    77be:	f8d4 c084 	ldr.w	r12, [r4, #132]	; 0x84
    77c2:	f1bc 0f00 	cmp.w	r12, #0
    77c6:	f000 8262 	beq.w	7c8e <tcp_input+0x64e>
    77ca:	6960      	ldr	r0, [r4, #20]
    77cc:	4621      	mov	r1, r4
    77ce:	47e0      	blx	r12
    77d0:	2800      	cmp	r0, #0
    77d2:	d173      	bne.n	78bc <tcp_input+0x27c>
    77d4:	67e0      	str	r0, [r4, #124]	; 0x7c
    77d6:	f898 b000 	ldrb.w	r11, [r8]
    77da:	4d4f      	ldr	r5, [pc, #316]	; (7918 <tcp_input+0x2d8>)
    77dc:	f01b 0f04 	tst.w	r11, #4
    77e0:	602c      	str	r4, [r5, #0]
    77e2:	d074      	beq.n	78ce <tcp_input+0x28e>
    77e4:	7c23      	ldrb	r3, [r4, #16]
    77e6:	2b02      	cmp	r3, #2
    77e8:	f000 826a 	beq.w	7cc0 <tcp_input+0x680>
    77ec:	4b45      	ldr	r3, [pc, #276]	; (7904 <tcp_input+0x2c4>)
    77ee:	681a      	ldr	r2, [r3, #0]
    77f0:	6a63      	ldr	r3, [r4, #36]	; 0x24
    77f2:	1ad3      	subs	r3, r2, r3
    77f4:	d404      	bmi.n	7800 <tcp_input+0x1c0>
    77f6:	8d22      	ldrh	r2, [r4, #40]	; 0x28
    77f8:	1a9b      	subs	r3, r3, r2
    77fa:	2b00      	cmp	r3, #0
    77fc:	f340 8266 	ble.w	7ccc <tcp_input+0x68c>
    7800:	783b      	ldrb	r3, [r7, #0]
    7802:	071a      	lsls	r2, r3, #28
    7804:	f140 8092 	bpl.w	792c <tcp_input+0x2ec>
    7808:	f8d4 3090 	ldr.w	r3, [r4, #144]	; 0x90
    780c:	b11b      	cbz	r3, 7816 <tcp_input+0x1d6>
    780e:	6960      	ldr	r0, [r4, #20]
    7810:	f06f 010a 	mvn.w	r1, #10
    7814:	4798      	blx	r3
    7816:	483d      	ldr	r0, [pc, #244]	; (790c <tcp_input+0x2cc>)
    7818:	4621      	mov	r1, r4
    781a:	f7fa fb4b 	bl	1eb4 <tcp_pcb_remove>
    781e:	4621      	mov	r1, r4
    7820:	2001      	movs	r0, #1
    7822:	f7f9 fe11 	bl	1448 <memp_free>
    7826:	f8da 0004 	ldr.w	r0, [r10, #4]
    782a:	2400      	movs	r4, #0
    782c:	602c      	str	r4, [r5, #0]
    782e:	f8c9 4000 	str.w	r4, [r9]
    7832:	4d3a      	ldr	r5, [pc, #232]	; (791c <tcp_input+0x2dc>)
    7834:	b110      	cbz	r0, 783c <tcp_input+0x1fc>
    7836:	f7f9 ff71 	bl	171c <pbuf_free>
    783a:	606c      	str	r4, [r5, #4]
    783c:	b00b      	add	sp, #44	; 0x2c
    783e:	e8bd 8ff0 	ldmia.w	sp!, {r4, r5, r6, r7, r8, r9, r10, r11, pc}
    7842:	9d03      	ldr	r5, [sp, #12]
    7844:	4936      	ldr	r1, [pc, #216]	; (7920 <tcp_input+0x2e0>)
    7846:	680c      	ldr	r4, [r1, #0]
    7848:	2c00      	cmp	r4, #0
    784a:	f000 819c 	beq.w	7b86 <tcp_input+0x546>
    784e:	492c      	ldr	r1, [pc, #176]	; (7900 <tcp_input+0x2c0>)
    7850:	f8d7 c000 	ldr.w	r12, [r7]
    7854:	6808      	ldr	r0, [r1, #0]
    7856:	e003      	b.n	7860 <tcp_input+0x220>
    7858:	68e4      	ldr	r4, [r4, #12]
    785a:	2c00      	cmp	r4, #0
    785c:	f000 8193 	beq.w	7b86 <tcp_input+0x546>
    7860:	8be1      	ldrh	r1, [r4, #30]
    7862:	4299      	cmp	r1, r3
    7864:	d1f8      	bne.n	7858 <tcp_input+0x218>
    7866:	8ba1      	ldrh	r1, [r4, #28]
    7868:	4291      	cmp	r1, r2
    786a:	d1f5      	bne.n	7858 <tcp_input+0x218>
    786c:	6861      	ldr	r1, [r4, #4]
    786e:	4281      	cmp	r1, r0
    7870:	d1f2      	bne.n	7858 <tcp_input+0x218>
    7872:	6821      	ldr	r1, [r4, #0]
    7874:	4561      	cmp	r1, r12
    7876:	d1ef      	bne.n	7858 <tcp_input+0x218>
    7878:	f01a 0f04 	tst.w	r10, #4
    787c:	f47f aefb 	bne.w	7676 <tcp_input+0x36>
    7880:	f01a 0f02 	tst.w	r10, #2
    7884:	f000 831a 	beq.w	7ebc <tcp_input+0x87c>
    7888:	6a61      	ldr	r1, [r4, #36]	; 0x24
    788a:	ebc1 000b 	rsb	r0, r1, r11
    788e:	2800      	cmp	r0, #0
    7890:	db06      	blt.n	78a0 <tcp_input+0x260>
    7892:	8d20      	ldrh	r0, [r4, #40]	; 0x28
    7894:	4401      	add	r1, r0
    7896:	ebc1 010b 	rsb	r1, r1, r11
    789a:	2900      	cmp	r1, #0
    789c:	f340 8226 	ble.w	7cec <tcp_input+0x6ac>
    78a0:	9b06      	ldr	r3, [sp, #24]
    78a2:	2b00      	cmp	r3, #0
    78a4:	f43f aee7 	beq.w	7676 <tcp_input+0x36>
    78a8:	f894 3020 	ldrb.w	r3, [r4, #32]
    78ac:	4620      	mov	r0, r4
    78ae:	f043 0302 	orr.w	r3, r3, #2
    78b2:	f884 3020 	strb.w	r3, [r4, #32]
    78b6:	f7fb f8c3 	bl	2a40 <tcp_output>
    78ba:	e6dc      	b.n	7676 <tcp_input+0x36>
    78bc:	b240      	sxtb	r0, r0
    78be:	300a      	adds	r0, #10
    78c0:	f43f aed9 	beq.w	7676 <tcp_input+0x36>
    78c4:	4812      	ldr	r0, [pc, #72]	; (7910 <tcp_input+0x2d0>)
    78c6:	8803      	ldrh	r3, [r0, #0]
    78c8:	2b00      	cmp	r3, #0
    78ca:	d084      	beq.n	77d6 <tcp_input+0x196>
    78cc:	e6d3      	b.n	7676 <tcp_input+0x36>
    78ce:	f00b 0202 	and.w	r2, r11, #2
    78d2:	f002 01ff 	and.w	r1, r2, #255	; 0xff
    78d6:	9104      	str	r1, [sp, #16]
    78d8:	2a00      	cmp	r2, #0
    78da:	d072      	beq.n	79c2 <tcp_input+0x382>
    78dc:	7c22      	ldrb	r2, [r4, #16]
    78de:	3a02      	subs	r2, #2
    78e0:	2a01      	cmp	r2, #1
    78e2:	d96e      	bls.n	79c2 <tcp_input+0x382>
    78e4:	f894 2020 	ldrb.w	r2, [r4, #32]
    78e8:	783b      	ldrb	r3, [r7, #0]
    78ea:	f042 0202 	orr.w	r2, r2, #2
    78ee:	f884 2020 	strb.w	r2, [r4, #32]
    78f2:	e786      	b.n	7802 <tcp_input+0x1c2>
    78f4:	10000c1c 	.word	0x10000c1c
    78f8:	10000c2c 	.word	0x10000c2c
    78fc:	10000fdc 	.word	0x10000fdc
    7900:	10000fd4 	.word	0x10000fd4
    7904:	10000c18 	.word	0x10000c18
    7908:	10000c24 	.word	0x10000c24
    790c:	10000fbc 	.word	0x10000fbc
    7910:	10000c20 	.word	0x10000c20
    7914:	10000c29 	.word	0x10000c29
    7918:	1000102c 	.word	0x1000102c
    791c:	10000c34 	.word	0x10000c34
    7920:	10000fd0 	.word	0x10000fd0
    7924:	10000c28 	.word	0x10000c28
    7928:	10000c30 	.word	0x10000c30
    792c:	06da      	lsls	r2, r3, #27
    792e:	f53f af72 	bmi.w	7816 <tcp_input+0x1d6>
    7932:	f8b4 206c 	ldrh.w	r2, [r4, #108]	; 0x6c
    7936:	b142      	cbz	r2, 794a <tcp_input+0x30a>
    7938:	f8d4 3080 	ldr.w	r3, [r4, #128]	; 0x80
    793c:	b12b      	cbz	r3, 794a <tcp_input+0x30a>
    793e:	6960      	ldr	r0, [r4, #20]
    7940:	4621      	mov	r1, r4
    7942:	4798      	blx	r3
    7944:	300a      	adds	r0, #10
    7946:	f43f af6e 	beq.w	7826 <tcp_input+0x1e6>
    794a:	f8d9 2000 	ldr.w	r2, [r9]
    794e:	b1ea      	cbz	r2, 798c <tcp_input+0x34c>
    7950:	f894 3020 	ldrb.w	r3, [r4, #32]
    7954:	06db      	lsls	r3, r3, #27
    7956:	f100 81d3 	bmi.w	7d00 <tcp_input+0x6c0>
    795a:	f898 3000 	ldrb.w	r3, [r8]
    795e:	071e      	lsls	r6, r3, #28
    7960:	d503      	bpl.n	796a <tcp_input+0x32a>
    7962:	7b53      	ldrb	r3, [r2, #13]
    7964:	f043 0301 	orr.w	r3, r3, #1
    7968:	7353      	strb	r3, [r2, #13]
    796a:	f8d4 6084 	ldr.w	r6, [r4, #132]	; 0x84
    796e:	2e00      	cmp	r6, #0
    7970:	f000 81ff 	beq.w	7d72 <tcp_input+0x732>
    7974:	6960      	ldr	r0, [r4, #20]
    7976:	4621      	mov	r1, r4
    7978:	2300      	movs	r3, #0
    797a:	47b0      	blx	r6
    797c:	b243      	sxtb	r3, r0
    797e:	330a      	adds	r3, #10
    7980:	f43f af51 	beq.w	7826 <tcp_input+0x1e6>
    7984:	b110      	cbz	r0, 798c <tcp_input+0x34c>
    7986:	f8d9 3000 	ldr.w	r3, [r9]
    798a:	67e3      	str	r3, [r4, #124]	; 0x7c
    798c:	783b      	ldrb	r3, [r7, #0]
    798e:	0698      	lsls	r0, r3, #26
    7990:	d511      	bpl.n	79b6 <tcp_input+0x376>
    7992:	8d23      	ldrh	r3, [r4, #40]	; 0x28
    7994:	f640 3268 	movw	r2, #2920	; 0xb68
    7998:	4293      	cmp	r3, r2
    799a:	f8d4 6084 	ldr.w	r6, [r4, #132]	; 0x84
    799e:	bf1c      	itt	ne
    79a0:	3301      	addne	r3, #1
    79a2:	8523      	strhne	r3, [r4, #40]	; 0x28
    79a4:	b13e      	cbz	r6, 79b6 <tcp_input+0x376>
    79a6:	2200      	movs	r2, #0
    79a8:	4613      	mov	r3, r2
    79aa:	6960      	ldr	r0, [r4, #20]
    79ac:	4621      	mov	r1, r4
    79ae:	47b0      	blx	r6
    79b0:	300a      	adds	r0, #10
    79b2:	f43f af38 	beq.w	7826 <tcp_input+0x1e6>
    79b6:	2300      	movs	r3, #0
    79b8:	4620      	mov	r0, r4
    79ba:	602b      	str	r3, [r5, #0]
    79bc:	f7fb f840 	bl	2a40 <tcp_output>
    79c0:	e731      	b.n	7826 <tcp_input+0x1e6>
    79c2:	f894 2020 	ldrb.w	r2, [r4, #32]
    79c6:	06d1      	lsls	r1, r2, #27
    79c8:	d402      	bmi.n	79d0 <tcp_input+0x390>
    79ca:	4ab4      	ldr	r2, [pc, #720]	; (7c9c <tcp_input+0x65c>)
    79cc:	6812      	ldr	r2, [r2, #0]
    79ce:	6322      	str	r2, [r4, #48]	; 0x30
    79d0:	2200      	movs	r2, #0
    79d2:	f884 20a5 	strb.w	r2, [r4, #165]	; 0xa5
    79d6:	f104 0038 	add.w	r0, r4, #56	; 0x38
    79da:	f7ff fdf3 	bl	75c4 <tcp_parseopt.isra.0>
    79de:	7c22      	ldrb	r2, [r4, #16]
    79e0:	3a02      	subs	r2, #2
    79e2:	2a07      	cmp	r2, #7
    79e4:	f63f af0c 	bhi.w	7800 <tcp_input+0x1c0>
    79e8:	e8df f002 	tbb	[pc, r2]
    79ec:	6a8696b6 	.word	0x6a8696b6
    79f0:	04178642 	.word	0x04178642
    79f4:	4620      	mov	r0, r4
    79f6:	f7ff fbb5 	bl	7164 <tcp_receive>
    79fa:	f898 3000 	ldrb.w	r3, [r8]
    79fe:	06d9      	lsls	r1, r3, #27
    7a00:	f57f aefe 	bpl.w	7800 <tcp_input+0x1c0>
    7a04:	48a6      	ldr	r0, [pc, #664]	; (7ca0 <tcp_input+0x660>)
    7a06:	6da3      	ldr	r3, [r4, #88]	; 0x58
    7a08:	6802      	ldr	r2, [r0, #0]
    7a0a:	4293      	cmp	r3, r2
    7a0c:	f47f aef8 	bne.w	7800 <tcp_input+0x1c0>
    7a10:	783b      	ldrb	r3, [r7, #0]
    7a12:	f043 0310 	orr.w	r3, r3, #16
    7a16:	703b      	strb	r3, [r7, #0]
    7a18:	e6f3      	b.n	7802 <tcp_input+0x1c2>
    7a1a:	4620      	mov	r0, r4
    7a1c:	f7ff fba2 	bl	7164 <tcp_receive>
    7a20:	f898 3000 	ldrb.w	r3, [r8]
    7a24:	06d8      	lsls	r0, r3, #27
    7a26:	f57f aeeb 	bpl.w	7800 <tcp_input+0x1c0>
    7a2a:	4e9d      	ldr	r6, [pc, #628]	; (7ca0 <tcp_input+0x660>)
    7a2c:	6da3      	ldr	r3, [r4, #88]	; 0x58
    7a2e:	6832      	ldr	r2, [r6, #0]
    7a30:	4293      	cmp	r3, r2
    7a32:	f47f aee5 	bne.w	7800 <tcp_input+0x1c0>
    7a36:	4620      	mov	r0, r4
    7a38:	f7fa f8b4 	bl	1ba4 <tcp_pcb_purge>
    7a3c:	f8df e268 	ldr.w	lr, [pc, #616]	; 7ca8 <tcp_input+0x668>
    7a40:	f8de 1000 	ldr.w	r1, [lr]
    7a44:	4672      	mov	r2, lr
    7a46:	42a1      	cmp	r1, r4
    7a48:	f000 8231 	beq.w	7eae <tcp_input+0x86e>
    7a4c:	4a95      	ldr	r2, [pc, #596]	; (7ca4 <tcp_input+0x664>)
    7a4e:	6011      	str	r1, [r2, #0]
    7a50:	2900      	cmp	r1, #0
    7a52:	f000 8185 	beq.w	7d60 <tcp_input+0x720>
    7a56:	68cb      	ldr	r3, [r1, #12]
    7a58:	42a3      	cmp	r3, r4
    7a5a:	f000 8237 	beq.w	7ecc <tcp_input+0x88c>
    7a5e:	2b00      	cmp	r3, #0
    7a60:	f000 81e1 	beq.w	7e26 <tcp_input+0x7e6>
    7a64:	68d9      	ldr	r1, [r3, #12]
    7a66:	42a1      	cmp	r1, r4
    7a68:	f000 8177 	beq.w	7d5a <tcp_input+0x71a>
    7a6c:	460b      	mov	r3, r1
    7a6e:	e7f6      	b.n	7a5e <tcp_input+0x41e>
    7a70:	4620      	mov	r0, r4
    7a72:	f7ff fb77 	bl	7164 <tcp_receive>
    7a76:	783b      	ldrb	r3, [r7, #0]
    7a78:	069e      	lsls	r6, r3, #26
    7a7a:	f57f aec2 	bpl.w	7802 <tcp_input+0x1c2>
    7a7e:	f894 3020 	ldrb.w	r3, [r4, #32]
    7a82:	4620      	mov	r0, r4
    7a84:	f043 0302 	orr.w	r3, r3, #2
    7a88:	f884 3020 	strb.w	r3, [r4, #32]
    7a8c:	f7fa f88a 	bl	1ba4 <tcp_pcb_purge>
    7a90:	4b85      	ldr	r3, [pc, #532]	; (7ca8 <tcp_input+0x668>)
    7a92:	6819      	ldr	r1, [r3, #0]
    7a94:	461a      	mov	r2, r3
    7a96:	42a1      	cmp	r1, r4
    7a98:	f000 8209 	beq.w	7eae <tcp_input+0x86e>
    7a9c:	4a81      	ldr	r2, [pc, #516]	; (7ca4 <tcp_input+0x664>)
    7a9e:	6011      	str	r1, [r2, #0]
    7aa0:	2900      	cmp	r1, #0
    7aa2:	f000 815d 	beq.w	7d60 <tcp_input+0x720>
    7aa6:	68cb      	ldr	r3, [r1, #12]
    7aa8:	42a3      	cmp	r3, r4
    7aaa:	f000 820f 	beq.w	7ecc <tcp_input+0x88c>
    7aae:	2b00      	cmp	r3, #0
    7ab0:	f000 81b9 	beq.w	7e26 <tcp_input+0x7e6>
    7ab4:	68d9      	ldr	r1, [r3, #12]
    7ab6:	42a1      	cmp	r1, r4
    7ab8:	f000 814f 	beq.w	7d5a <tcp_input+0x71a>
    7abc:	460b      	mov	r3, r1
    7abe:	e7f6      	b.n	7aae <tcp_input+0x46e>
    7ac0:	4620      	mov	r0, r4
    7ac2:	f7ff fb4f 	bl	7164 <tcp_receive>
    7ac6:	783b      	ldrb	r3, [r7, #0]
    7ac8:	f898 2000 	ldrb.w	r2, [r8]
    7acc:	0698      	lsls	r0, r3, #26
    7ace:	f140 8138 	bpl.w	7d42 <tcp_input+0x702>
    7ad2:	06d1      	lsls	r1, r2, #27
    7ad4:	d507      	bpl.n	7ae6 <tcp_input+0x4a6>
    7ad6:	f8df e1c8 	ldr.w	lr, [pc, #456]	; 7ca0 <tcp_input+0x660>
    7ada:	6da2      	ldr	r2, [r4, #88]	; 0x58
    7adc:	f8de 1000 	ldr.w	r1, [lr]
    7ae0:	428a      	cmp	r2, r1
    7ae2:	f000 81c6 	beq.w	7e72 <tcp_input+0x832>
    7ae6:	f894 1020 	ldrb.w	r1, [r4, #32]
    7aea:	2208      	movs	r2, #8
    7aec:	f041 0102 	orr.w	r1, r1, #2
    7af0:	f884 1020 	strb.w	r1, [r4, #32]
    7af4:	7422      	strb	r2, [r4, #16]
    7af6:	e684      	b.n	7802 <tcp_input+0x1c2>
    7af8:	4620      	mov	r0, r4
    7afa:	f7ff fb33 	bl	7164 <tcp_receive>
    7afe:	783b      	ldrb	r3, [r7, #0]
    7b00:	069e      	lsls	r6, r3, #26
    7b02:	f57f ae7e 	bpl.w	7802 <tcp_input+0x1c2>
    7b06:	f894 1020 	ldrb.w	r1, [r4, #32]
    7b0a:	2207      	movs	r2, #7
    7b0c:	f041 0102 	orr.w	r1, r1, #2
    7b10:	f884 1020 	strb.w	r1, [r4, #32]
    7b14:	7422      	strb	r2, [r4, #16]
    7b16:	e674      	b.n	7802 <tcp_input+0x1c2>
    7b18:	f01b 0f10 	tst.w	r11, #16
    7b1c:	f000 8101 	beq.w	7d22 <tcp_input+0x6e2>
    7b20:	495f      	ldr	r1, [pc, #380]	; (7ca0 <tcp_input+0x660>)
    7b22:	6ce3      	ldr	r3, [r4, #76]	; 0x4c
    7b24:	6808      	ldr	r0, [r1, #0]
    7b26:	43db      	mvns	r3, r3
    7b28:	42c3      	cmn	r3, r0
    7b2a:	d404      	bmi.n	7b36 <tcp_input+0x4f6>
    7b2c:	6da3      	ldr	r3, [r4, #88]	; 0x58
    7b2e:	1ac3      	subs	r3, r0, r3
    7b30:	2b00      	cmp	r3, #0
    7b32:	f340 817a 	ble.w	7e2a <tcp_input+0x7ea>
    7b36:	6833      	ldr	r3, [r6, #0]
    7b38:	4a5c      	ldr	r2, [pc, #368]	; (7cac <tcp_input+0x66c>)
    7b3a:	885e      	ldrh	r6, [r3, #2]
    7b3c:	f8df e178 	ldr.w	lr, [pc, #376]	; 7cb8 <tcp_input+0x678>
    7b40:	8811      	ldrh	r1, [r2, #0]
    7b42:	f8de 2000 	ldr.w	r2, [lr]
    7b46:	9600      	str	r6, [sp, #0]
    7b48:	881b      	ldrh	r3, [r3, #0]
    7b4a:	4411      	add	r1, r2
    7b4c:	9301      	str	r3, [sp, #4]
    7b4e:	4a58      	ldr	r2, [pc, #352]	; (7cb0 <tcp_input+0x670>)
    7b50:	4b58      	ldr	r3, [pc, #352]	; (7cb4 <tcp_input+0x674>)
    7b52:	f7fb f8bd 	bl	2cd0 <tcp_rst>
    7b56:	e653      	b.n	7800 <tcp_input+0x1c0>
    7b58:	f00b 0212 	and.w	r2, r11, #18
    7b5c:	2a12      	cmp	r2, #18
    7b5e:	f000 810e 	beq.w	7d7e <tcp_input+0x73e>
    7b62:	f01b 0f10 	tst.w	r11, #16
    7b66:	f43f ae4b 	beq.w	7800 <tcp_input+0x1c0>
    7b6a:	6833      	ldr	r3, [r6, #0]
    7b6c:	4a4f      	ldr	r2, [pc, #316]	; (7cac <tcp_input+0x66c>)
    7b6e:	4e52      	ldr	r6, [pc, #328]	; (7cb8 <tcp_input+0x678>)
    7b70:	8858      	ldrh	r0, [r3, #2]
    7b72:	8811      	ldrh	r1, [r2, #0]
    7b74:	f8df e128 	ldr.w	lr, [pc, #296]	; 7ca0 <tcp_input+0x660>
    7b78:	6832      	ldr	r2, [r6, #0]
    7b7a:	9000      	str	r0, [sp, #0]
    7b7c:	881b      	ldrh	r3, [r3, #0]
    7b7e:	4411      	add	r1, r2
    7b80:	f8de 0000 	ldr.w	r0, [lr]
    7b84:	e7e2      	b.n	7b4c <tcp_input+0x50c>
    7b86:	f8df 9134 	ldr.w	r9, [pc, #308]	; 7cbc <tcp_input+0x67c>
    7b8a:	f8d9 8000 	ldr.w	r8, [r9]
    7b8e:	f1b8 0f00 	cmp.w	r8, #0
    7b92:	f000 80a6 	beq.w	7ce2 <tcp_input+0x6a2>
    7b96:	f8d7 c000 	ldr.w	r12, [r7]
    7b9a:	4644      	mov	r4, r8
    7b9c:	2000      	movs	r0, #0
    7b9e:	e005      	b.n	7bac <tcp_input+0x56c>
    7ba0:	68e1      	ldr	r1, [r4, #12]
    7ba2:	4620      	mov	r0, r4
    7ba4:	2900      	cmp	r1, #0
    7ba6:	f000 809c 	beq.w	7ce2 <tcp_input+0x6a2>
    7baa:	460c      	mov	r4, r1
    7bac:	8ba1      	ldrh	r1, [r4, #28]
    7bae:	4291      	cmp	r1, r2
    7bb0:	d1f6      	bne.n	7ba0 <tcp_input+0x560>
    7bb2:	6821      	ldr	r1, [r4, #0]
    7bb4:	4561      	cmp	r1, r12
    7bb6:	d001      	beq.n	7bbc <tcp_input+0x57c>
    7bb8:	2900      	cmp	r1, #0
    7bba:	d1f1      	bne.n	7ba0 <tcp_input+0x560>
    7bbc:	b128      	cbz	r0, 7bca <tcp_input+0x58a>
    7bbe:	68e1      	ldr	r1, [r4, #12]
    7bc0:	f8c9 4000 	str.w	r4, [r9]
    7bc4:	60c1      	str	r1, [r0, #12]
    7bc6:	f8c4 800c 	str.w	r8, [r4, #12]
    7bca:	f00a 0110 	and.w	r1, r10, #16
    7bce:	f001 08ff 	and.w	r8, r1, #255	; 0xff
    7bd2:	2900      	cmp	r1, #0
    7bd4:	f040 809b 	bne.w	7d0e <tcp_input+0x6ce>
    7bd8:	f01a 0f02 	tst.w	r10, #2
    7bdc:	f43f ad4b 	beq.w	7676 <tcp_input+0x36>
    7be0:	7c60      	ldrb	r0, [r4, #17]
    7be2:	f7fa fb31 	bl	2248 <tcp_alloc>
    7be6:	4681      	mov	r9, r0
    7be8:	2800      	cmp	r0, #0
    7bea:	f43f ad44 	beq.w	7676 <tcp_input+0x36>
    7bee:	6833      	ldr	r3, [r6, #0]
    7bf0:	4e31      	ldr	r6, [pc, #196]	; (7cb8 <tcp_input+0x678>)
    7bf2:	4a30      	ldr	r2, [pc, #192]	; (7cb4 <tcp_input+0x674>)
    7bf4:	f893 c001 	ldrb.w	r12, [r3, #1]
    7bf8:	6830      	ldr	r0, [r6, #0]
    7bfa:	781e      	ldrb	r6, [r3, #0]
    7bfc:	f8b4 e01c 	ldrh.w	lr, [r4, #28]
    7c00:	6839      	ldr	r1, [r7, #0]
    7c02:	6812      	ldr	r2, [r2, #0]
    7c04:	ea46 2c0c 	orr.w	r12, r6, r12, lsl #8
    7c08:	2703      	movs	r7, #3
    7c0a:	1c46      	adds	r6, r0, #1
    7c0c:	f8c9 1000 	str.w	r1, [r9]
    7c10:	f8a9 c01e 	strh.w	r12, [r9, #30]
    7c14:	f8a9 e01c 	strh.w	lr, [r9, #28]
    7c18:	f8c9 2004 	str.w	r2, [r9, #4]
    7c1c:	f8c9 6024 	str.w	r6, [r9, #36]	; 0x24
    7c20:	f8c9 602c 	str.w	r6, [r9, #44]	; 0x2c
    7c24:	f889 7010 	strb.w	r7, [r9, #16]
    7c28:	89db      	ldrh	r3, [r3, #14]
    7c2a:	6961      	ldr	r1, [r4, #20]
    7c2c:	69a2      	ldr	r2, [r4, #24]
    7c2e:	3801      	subs	r0, #1
    7c30:	f8df e074 	ldr.w	lr, [pc, #116]	; 7ca8 <tcp_input+0x668>
    7c34:	f8c9 1014 	str.w	r1, [r9, #20]
    7c38:	f8a9 305c 	strh.w	r3, [r9, #92]	; 0x5c
    7c3c:	f8a9 3054 	strh.w	r3, [r9, #84]	; 0x54
    7c40:	f8c9 0060 	str.w	r0, [r9, #96]	; 0x60
    7c44:	f8c9 2018 	str.w	r2, [r9, #24]
    7c48:	7a22      	ldrb	r2, [r4, #8]
    7c4a:	f8de 3000 	ldr.w	r3, [lr]
    7c4e:	f022 0273 	bic.w	r2, r2, #115	; 0x73
    7c52:	f889 2008 	strb.w	r2, [r9, #8]
    7c56:	f8c9 300c 	str.w	r3, [r9, #12]
    7c5a:	f8ce 9000 	str.w	r9, [lr]
    7c5e:	f7fb f99d 	bl	2f9c <tcp_timer_needed>
    7c62:	f109 0038 	add.w	r0, r9, #56	; 0x38
    7c66:	f7ff fcad 	bl	75c4 <tcp_parseopt.isra.0>
    7c6a:	f109 0104 	add.w	r1, r9, #4
    7c6e:	f8b9 0038 	ldrh.w	r0, [r9, #56]	; 0x38
    7c72:	f7fa fb85 	bl	2380 <tcp_eff_send_mss>
    7c76:	2112      	movs	r1, #18
    7c78:	f8a9 0038 	strh.w	r0, [r9, #56]	; 0x38
    7c7c:	4648      	mov	r0, r9
    7c7e:	f7fa fe41 	bl	2904 <tcp_enqueue_flags>
    7c82:	2800      	cmp	r0, #0
    7c84:	d148      	bne.n	7d18 <tcp_input+0x6d8>
    7c86:	4648      	mov	r0, r9
    7c88:	f7fa feda 	bl	2a40 <tcp_output>
    7c8c:	e4f3      	b.n	7676 <tcp_input+0x36>
    7c8e:	4660      	mov	r0, r12
    7c90:	4663      	mov	r3, r12
    7c92:	4621      	mov	r1, r4
    7c94:	f7fa f9f4 	bl	2080 <tcp_recv_null>
    7c98:	e59a      	b.n	77d0 <tcp_input+0x190>
    7c9a:	bf00      	nop
    7c9c:	10000fc0 	.word	0x10000fc0
    7ca0:	10000c24 	.word	0x10000c24
    7ca4:	10000fc8 	.word	0x10000fc8
    7ca8:	10000fbc 	.word	0x10000fbc
    7cac:	10000c20 	.word	0x10000c20
    7cb0:	10000fdc 	.word	0x10000fdc
    7cb4:	10000fd4 	.word	0x10000fd4
    7cb8:	10000c18 	.word	0x10000c18
    7cbc:	10000fc4 	.word	0x10000fc4
    7cc0:	4985      	ldr	r1, [pc, #532]	; (7ed8 <tcp_input+0x898>)
    7cc2:	6da3      	ldr	r3, [r4, #88]	; 0x58
    7cc4:	680a      	ldr	r2, [r1, #0]
    7cc6:	4293      	cmp	r3, r2
    7cc8:	f47f ad9a 	bne.w	7800 <tcp_input+0x1c0>
    7ccc:	783b      	ldrb	r3, [r7, #0]
    7cce:	f894 2020 	ldrb.w	r2, [r4, #32]
    7cd2:	f043 0308 	orr.w	r3, r3, #8
    7cd6:	f022 0201 	bic.w	r2, r2, #1
    7cda:	703b      	strb	r3, [r7, #0]
    7cdc:	f884 2020 	strb.w	r2, [r4, #32]
    7ce0:	e58f      	b.n	7802 <tcp_input+0x1c2>
    7ce2:	9c07      	ldr	r4, [sp, #28]
    7ce4:	ba61      	rev16	r1, r4
    7ce6:	0749      	lsls	r1, r1, #29
    7ce8:	f53f acc5 	bmi.w	7676 <tcp_input+0x36>
    7cec:	e88d 000c 	stmia.w	sp, {r2, r3}
    7cf0:	9804      	ldr	r0, [sp, #16]
    7cf2:	9906      	ldr	r1, [sp, #24]
    7cf4:	4a79      	ldr	r2, [pc, #484]	; (7edc <tcp_input+0x89c>)
    7cf6:	4459      	add	r1, r11
    7cf8:	4b79      	ldr	r3, [pc, #484]	; (7ee0 <tcp_input+0x8a0>)
    7cfa:	f7fa ffe9 	bl	2cd0 <tcp_rst>
    7cfe:	e4ba      	b.n	7676 <tcp_input+0x36>
    7d00:	4610      	mov	r0, r2
    7d02:	f7f9 fd0b 	bl	171c <pbuf_free>
    7d06:	4620      	mov	r0, r4
    7d08:	f7fa fa9a 	bl	2240 <tcp_abort>
    7d0c:	e58b      	b.n	7826 <tcp_input+0x1e6>
    7d0e:	9c04      	ldr	r4, [sp, #16]
    7d10:	e88d 000c 	stmia.w	sp, {r2, r3}
    7d14:	1c60      	adds	r0, r4, #1
    7d16:	e7ec      	b.n	7cf2 <tcp_input+0x6b2>
    7d18:	4648      	mov	r0, r9
    7d1a:	4641      	mov	r1, r8
    7d1c:	f7fa fa38 	bl	2190 <tcp_abandon>
    7d20:	e4a9      	b.n	7676 <tcp_input+0x36>
    7d22:	9904      	ldr	r1, [sp, #16]
    7d24:	2900      	cmp	r1, #0
    7d26:	f43f ad6b 	beq.w	7800 <tcp_input+0x1c0>
    7d2a:	4e6e      	ldr	r6, [pc, #440]	; (7ee4 <tcp_input+0x8a4>)
    7d2c:	6a63      	ldr	r3, [r4, #36]	; 0x24
    7d2e:	6832      	ldr	r2, [r6, #0]
    7d30:	3b01      	subs	r3, #1
    7d32:	4293      	cmp	r3, r2
    7d34:	f47f ad64 	bne.w	7800 <tcp_input+0x1c0>
    7d38:	4620      	mov	r0, r4
    7d3a:	f7fb f82d 	bl	2d98 <tcp_rexmit>
    7d3e:	783b      	ldrb	r3, [r7, #0]
    7d40:	e55f      	b.n	7802 <tcp_input+0x1c2>
    7d42:	06d2      	lsls	r2, r2, #27
    7d44:	f57f ad5d 	bpl.w	7802 <tcp_input+0x1c2>
    7d48:	4a63      	ldr	r2, [pc, #396]	; (7ed8 <tcp_input+0x898>)
    7d4a:	6811      	ldr	r1, [r2, #0]
    7d4c:	6da2      	ldr	r2, [r4, #88]	; 0x58
    7d4e:	428a      	cmp	r2, r1
    7d50:	f47f ad57 	bne.w	7802 <tcp_input+0x1c2>
    7d54:	2206      	movs	r2, #6
    7d56:	7422      	strb	r2, [r4, #16]
    7d58:	e553      	b.n	7802 <tcp_input+0x1c2>
    7d5a:	6013      	str	r3, [r2, #0]
    7d5c:	68e2      	ldr	r2, [r4, #12]
    7d5e:	60da      	str	r2, [r3, #12]
    7d60:	4b61      	ldr	r3, [pc, #388]	; (7ee8 <tcp_input+0x8a8>)
    7d62:	210a      	movs	r1, #10
    7d64:	681a      	ldr	r2, [r3, #0]
    7d66:	7421      	strb	r1, [r4, #16]
    7d68:	60e2      	str	r2, [r4, #12]
    7d6a:	601c      	str	r4, [r3, #0]
    7d6c:	f7fb f916 	bl	2f9c <tcp_timer_needed>
    7d70:	e546      	b.n	7800 <tcp_input+0x1c0>
    7d72:	4630      	mov	r0, r6
    7d74:	4633      	mov	r3, r6
    7d76:	4621      	mov	r1, r4
    7d78:	f7fa f982 	bl	2080 <tcp_recv_null>
    7d7c:	e5fe      	b.n	797c <tcp_input+0x33c>
    7d7e:	6fa1      	ldr	r1, [r4, #120]	; 0x78
    7d80:	f8df e154 	ldr.w	lr, [pc, #340]	; 7ed8 <tcp_input+0x898>
    7d84:	6909      	ldr	r1, [r1, #16]
    7d86:	f8de 2000 	ldr.w	r2, [lr]
    7d8a:	6848      	ldr	r0, [r1, #4]
    7d8c:	ba00      	rev	r0, r0
    7d8e:	3001      	adds	r0, #1
    7d90:	4290      	cmp	r0, r2
    7d92:	f47f aee6 	bne.w	7b62 <tcp_input+0x522>
    7d96:	4953      	ldr	r1, [pc, #332]	; (7ee4 <tcp_input+0x8a4>)
    7d98:	f8b4 e06e 	ldrh.w	lr, [r4, #110]	; 0x6e
    7d9c:	680b      	ldr	r3, [r1, #0]
    7d9e:	6832      	ldr	r2, [r6, #0]
    7da0:	1c59      	adds	r1, r3, #1
    7da2:	f10e 0601 	add.w	r6, lr, #1
    7da6:	64e0      	str	r0, [r4, #76]	; 0x4c
    7da8:	6261      	str	r1, [r4, #36]	; 0x24
    7daa:	62e1      	str	r1, [r4, #44]	; 0x2c
    7dac:	f8a4 606e 	strh.w	r6, [r4, #110]	; 0x6e
    7db0:	7b91      	ldrb	r1, [r2, #14]
    7db2:	7bd2      	ldrb	r2, [r2, #15]
    7db4:	3b01      	subs	r3, #1
    7db6:	ea41 2102 	orr.w	r1, r1, r2, lsl #8
    7dba:	2204      	movs	r2, #4
    7dbc:	6623      	str	r3, [r4, #96]	; 0x60
    7dbe:	f8a4 105c 	strh.w	r1, [r4, #92]	; 0x5c
    7dc2:	7422      	strb	r2, [r4, #16]
    7dc4:	18a1      	adds	r1, r4, r2
    7dc6:	8f20      	ldrh	r0, [r4, #56]	; 0x38
    7dc8:	f7fa fada 	bl	2380 <tcp_eff_send_mss>
    7dcc:	f8b4 3052 	ldrh.w	r3, [r4, #82]	; 0x52
    7dd0:	eb00 0280 	add.w	r2, r0, r0, lsl #2
    7dd4:	0052      	lsls	r2, r2, #1
    7dd6:	2b01      	cmp	r3, #1
    7dd8:	f8a4 2054 	strh.w	r2, [r4, #84]	; 0x54
    7ddc:	8720      	strh	r0, [r4, #56]	; 0x38
    7dde:	bf0c      	ite	eq
    7de0:	0042      	lsleq	r2, r0, #1
    7de2:	4602      	movne	r2, r0
    7de4:	6fa0      	ldr	r0, [r4, #120]	; 0x78
    7de6:	f8b4 1070 	ldrh.w	r1, [r4, #112]	; 0x70
    7dea:	6803      	ldr	r3, [r0, #0]
    7dec:	bf08      	it	eq
    7dee:	b292      	uxtheq	r2, r2
    7df0:	3901      	subs	r1, #1
    7df2:	f8a4 2052 	strh.w	r2, [r4, #82]	; 0x52
    7df6:	67a3      	str	r3, [r4, #120]	; 0x78
    7df8:	f8a4 1070 	strh.w	r1, [r4, #112]	; 0x70
    7dfc:	2b00      	cmp	r3, #0
    7dfe:	d067      	beq.n	7ed0 <tcp_input+0x890>
    7e00:	2300      	movs	r3, #0
    7e02:	86e3      	strh	r3, [r4, #54]	; 0x36
    7e04:	f884 304a 	strb.w	r3, [r4, #74]	; 0x4a
    7e08:	f7f9 fe9e 	bl	1b48 <tcp_seg_free>
    7e0c:	f8d4 3088 	ldr.w	r3, [r4, #136]	; 0x88
    7e10:	2b00      	cmp	r3, #0
    7e12:	f43f ad67 	beq.w	78e4 <tcp_input+0x2a4>
    7e16:	6960      	ldr	r0, [r4, #20]
    7e18:	4621      	mov	r1, r4
    7e1a:	2200      	movs	r2, #0
    7e1c:	4798      	blx	r3
    7e1e:	300a      	adds	r0, #10
    7e20:	f47f ad60 	bne.w	78e4 <tcp_input+0x2a4>
    7e24:	e4ff      	b.n	7826 <tcp_input+0x1e6>
    7e26:	6013      	str	r3, [r2, #0]
    7e28:	e79a      	b.n	7d60 <tcp_input+0x720>
    7e2a:	69a3      	ldr	r3, [r4, #24]
    7e2c:	2204      	movs	r2, #4
    7e2e:	7422      	strb	r2, [r4, #16]
    7e30:	2b00      	cmp	r3, #0
    7e32:	f43f af68 	beq.w	7d06 <tcp_input+0x6c6>
    7e36:	6960      	ldr	r0, [r4, #20]
    7e38:	4621      	mov	r1, r4
    7e3a:	2200      	movs	r2, #0
    7e3c:	4798      	blx	r3
    7e3e:	2800      	cmp	r0, #0
    7e40:	d138      	bne.n	7eb4 <tcp_input+0x874>
    7e42:	4620      	mov	r0, r4
    7e44:	f8b4 6052 	ldrh.w	r6, [r4, #82]	; 0x52
    7e48:	f7ff f98c 	bl	7164 <tcp_receive>
    7e4c:	f8b4 306c 	ldrh.w	r3, [r4, #108]	; 0x6c
    7e50:	b113      	cbz	r3, 7e58 <tcp_input+0x818>
    7e52:	3b01      	subs	r3, #1
    7e54:	f8a4 306c 	strh.w	r3, [r4, #108]	; 0x6c
    7e58:	8f22      	ldrh	r2, [r4, #56]	; 0x38
    7e5a:	2e01      	cmp	r6, #1
    7e5c:	bf08      	it	eq
    7e5e:	0052      	lsleq	r2, r2, #1
    7e60:	783b      	ldrb	r3, [r7, #0]
    7e62:	bf08      	it	eq
    7e64:	b292      	uxtheq	r2, r2
    7e66:	f8a4 2052 	strh.w	r2, [r4, #82]	; 0x52
    7e6a:	069a      	lsls	r2, r3, #26
    7e6c:	f57f acc9 	bpl.w	7802 <tcp_input+0x1c2>
    7e70:	e649      	b.n	7b06 <tcp_input+0x4c6>
    7e72:	f894 3020 	ldrb.w	r3, [r4, #32]
    7e76:	4620      	mov	r0, r4
    7e78:	f043 0302 	orr.w	r3, r3, #2
    7e7c:	f884 3020 	strb.w	r3, [r4, #32]
    7e80:	f7f9 fe90 	bl	1ba4 <tcp_pcb_purge>
    7e84:	4819      	ldr	r0, [pc, #100]	; (7eec <tcp_input+0x8ac>)
    7e86:	6801      	ldr	r1, [r0, #0]
    7e88:	4602      	mov	r2, r0
    7e8a:	42a1      	cmp	r1, r4
    7e8c:	d00f      	beq.n	7eae <tcp_input+0x86e>
    7e8e:	4a18      	ldr	r2, [pc, #96]	; (7ef0 <tcp_input+0x8b0>)
    7e90:	6011      	str	r1, [r2, #0]
    7e92:	2900      	cmp	r1, #0
    7e94:	f43f af64 	beq.w	7d60 <tcp_input+0x720>
    7e98:	68cb      	ldr	r3, [r1, #12]
    7e9a:	42a3      	cmp	r3, r4
    7e9c:	d016      	beq.n	7ecc <tcp_input+0x88c>
    7e9e:	2b00      	cmp	r3, #0
    7ea0:	d0c1      	beq.n	7e26 <tcp_input+0x7e6>
    7ea2:	68d9      	ldr	r1, [r3, #12]
    7ea4:	42a1      	cmp	r1, r4
    7ea6:	f43f af58 	beq.w	7d5a <tcp_input+0x71a>
    7eaa:	460b      	mov	r3, r1
    7eac:	e7f7      	b.n	7e9e <tcp_input+0x85e>
    7eae:	68e3      	ldr	r3, [r4, #12]
    7eb0:	6013      	str	r3, [r2, #0]
    7eb2:	e755      	b.n	7d60 <tcp_input+0x720>
    7eb4:	300a      	adds	r0, #10
    7eb6:	f43f acb6 	beq.w	7826 <tcp_input+0x1e6>
    7eba:	e724      	b.n	7d06 <tcp_input+0x6c6>
    7ebc:	f01a 0f01 	tst.w	r10, #1
    7ec0:	f43f acee 	beq.w	78a0 <tcp_input+0x260>
    7ec4:	4b0b      	ldr	r3, [pc, #44]	; (7ef4 <tcp_input+0x8b4>)
    7ec6:	681b      	ldr	r3, [r3, #0]
    7ec8:	6323      	str	r3, [r4, #48]	; 0x30
    7eca:	e4e9      	b.n	78a0 <tcp_input+0x260>
    7ecc:	460b      	mov	r3, r1
    7ece:	e745      	b.n	7d5c <tcp_input+0x71c>
    7ed0:	f64f 73ff 	movw	r3, #65535	; 0xffff
    7ed4:	86e3      	strh	r3, [r4, #54]	; 0x36
    7ed6:	e797      	b.n	7e08 <tcp_input+0x7c8>
    7ed8:	10000c24 	.word	0x10000c24
    7edc:	10000fdc 	.word	0x10000fdc
    7ee0:	10000fd4 	.word	0x10000fd4
    7ee4:	10000c18 	.word	0x10000c18
    7ee8:	10000fd0 	.word	0x10000fd0
    7eec:	10000fbc 	.word	0x10000fbc
    7ef0:	10000fc8 	.word	0x10000fc8
    7ef4:	10000fc0 	.word	0x10000fc0

00007ef8 <udp_input>:
    7ef8:	e92d 4ff0 	stmdb	sp!, {r4, r5, r6, r7, r8, r9, r10, r11, lr}
    7efc:	f8d0 9004 	ldr.w	r9, [r0, #4]
    7f00:	b085      	sub	sp, #20
    7f02:	4606      	mov	r6, r0
    7f04:	468a      	mov	r10, r1
    7f06:	f8b9 3000 	ldrh.w	r3, [r9]
    7f0a:	ba59      	rev16	r1, r3
    7f0c:	f3c1 2103 	ubfx	r1, r1, #8, #4
    7f10:	8902      	ldrh	r2, [r0, #8]
    7f12:	3102      	adds	r1, #2
    7f14:	ebb2 0f81 	cmp.w	r2, r1, lsl #2
    7f18:	d307      	bcc.n	7f2a <udp_input+0x32>
    7f1a:	ba59      	rev16	r1, r3
    7f1c:	f3c1 2103 	ubfx	r1, r1, #8, #4
    7f20:	0089      	lsls	r1, r1, #2
    7f22:	4249      	negs	r1, r1
    7f24:	f7f9 fbc4 	bl	16b0 <pbuf_header>
    7f28:	b128      	cbz	r0, 7f36 <udp_input+0x3e>
    7f2a:	4630      	mov	r0, r6
    7f2c:	b005      	add	sp, #20
    7f2e:	e8bd 4ff0 	ldmia.w	sp!, {r4, r5, r6, r7, r8, r9, r10, r11, lr}
    7f32:	f7f9 bbf3 	b.w	171c <pbuf_free>
    7f36:	4b56      	ldr	r3, [pc, #344]	; (8090 <udp_input+0x198>)
    7f38:	6872      	ldr	r2, [r6, #4]
    7f3a:	6818      	ldr	r0, [r3, #0]
    7f3c:	4651      	mov	r1, r10
    7f3e:	9202      	str	r2, [sp, #8]
    7f40:	f7fb fd7c 	bl	3a3c <ip4_addr_isbroadcast>
    7f44:	9a02      	ldr	r2, [sp, #8]
    7f46:	4680      	mov	r8, r0
    7f48:	f8b2 b000 	ldrh.w	r11, [r2]
    7f4c:	fa9b fb9b 	rev16.w	r11, r11
    7f50:	fa1f fb8b 	uxth.w	r11, r11
    7f54:	8855      	ldrh	r5, [r2, #2]
    7f56:	ba6d      	rev16	r5, r5
    7f58:	b2ad      	uxth	r5, r5
    7f5a:	2d44      	cmp	r5, #68	; 0x44
    7f5c:	d038      	beq.n	7fd0 <udp_input+0xd8>
    7f5e:	4b4d      	ldr	r3, [pc, #308]	; (8094 <udp_input+0x19c>)
    7f60:	681b      	ldr	r3, [r3, #0]
    7f62:	9303      	str	r3, [sp, #12]
    7f64:	2b00      	cmp	r3, #0
    7f66:	d036      	beq.n	7fd6 <udp_input+0xde>
    7f68:	4849      	ldr	r0, [pc, #292]	; (8090 <udp_input+0x198>)
    7f6a:	4b4b      	ldr	r3, [pc, #300]	; (8098 <udp_input+0x1a0>)
    7f6c:	6801      	ldr	r1, [r0, #0]
    7f6e:	2700      	movs	r7, #0
    7f70:	460c      	mov	r4, r1
    7f72:	f8d3 c000 	ldr.w	r12, [r3]
    7f76:	f001 00f0 	and.w	r0, r1, #240	; 0xf0
    7f7a:	463a      	mov	r2, r7
    7f7c:	4641      	mov	r1, r8
    7f7e:	9b03      	ldr	r3, [sp, #12]
    7f80:	46a0      	mov	r8, r4
    7f82:	e004      	b.n	7f8e <udp_input+0x96>
    7f84:	68dc      	ldr	r4, [r3, #12]
    7f86:	2c00      	cmp	r4, #0
    7f88:	d033      	beq.n	7ff2 <udp_input+0xfa>
    7f8a:	461a      	mov	r2, r3
    7f8c:	4623      	mov	r3, r4
    7f8e:	8a5c      	ldrh	r4, [r3, #18]
    7f90:	42ac      	cmp	r4, r5
    7f92:	d1f7      	bne.n	7f84 <udp_input+0x8c>
    7f94:	681c      	ldr	r4, [r3, #0]
    7f96:	b901      	cbnz	r1, 7f9a <udp_input+0xa2>
    7f98:	b144      	cbz	r4, 7fac <udp_input+0xb4>
    7f9a:	45a0      	cmp	r8, r4
    7f9c:	d006      	beq.n	7fac <udp_input+0xb4>
    7f9e:	28e0      	cmp	r0, #224	; 0xe0
    7fa0:	d004      	beq.n	7fac <udp_input+0xb4>
    7fa2:	2900      	cmp	r1, #0
    7fa4:	d0ee      	beq.n	7f84 <udp_input+0x8c>
    7fa6:	7a1c      	ldrb	r4, [r3, #8]
    7fa8:	06a4      	lsls	r4, r4, #26
    7faa:	d5eb      	bpl.n	7f84 <udp_input+0x8c>
    7fac:	b1df      	cbz	r7, 7fe6 <udp_input+0xee>
    7fae:	8a9c      	ldrh	r4, [r3, #20]
    7fb0:	455c      	cmp	r4, r11
    7fb2:	d1e7      	bne.n	7f84 <udp_input+0x8c>
    7fb4:	685c      	ldr	r4, [r3, #4]
    7fb6:	b10c      	cbz	r4, 7fbc <udp_input+0xc4>
    7fb8:	4564      	cmp	r4, r12
    7fba:	d1e3      	bne.n	7f84 <udp_input+0x8c>
    7fbc:	4688      	mov	r8, r1
    7fbe:	b12a      	cbz	r2, 7fcc <udp_input+0xd4>
    7fc0:	68d9      	ldr	r1, [r3, #12]
    7fc2:	4834      	ldr	r0, [pc, #208]	; (8094 <udp_input+0x19c>)
    7fc4:	60d1      	str	r1, [r2, #12]
    7fc6:	9903      	ldr	r1, [sp, #12]
    7fc8:	6003      	str	r3, [r0, #0]
    7fca:	60d9      	str	r1, [r3, #12]
    7fcc:	461f      	mov	r7, r3
    7fce:	e013      	b.n	7ff8 <udp_input+0x100>
    7fd0:	f1bb 0f43 	cmp.w	r11, #67	; 0x43
    7fd4:	d032      	beq.n	803c <udp_input+0x144>
    7fd6:	482e      	ldr	r0, [pc, #184]	; (8090 <udp_input+0x198>)
    7fd8:	f8da 2004 	ldr.w	r2, [r10, #4]
    7fdc:	6803      	ldr	r3, [r0, #0]
    7fde:	429a      	cmp	r2, r3
    7fe0:	d1a3      	bne.n	7f2a <udp_input+0x32>
    7fe2:	2700      	movs	r7, #0
    7fe4:	e008      	b.n	7ff8 <udp_input+0x100>
    7fe6:	7c1c      	ldrb	r4, [r3, #16]
    7fe8:	f014 0f04 	tst.w	r4, #4
    7fec:	bf08      	it	eq
    7fee:	461f      	moveq	r7, r3
    7ff0:	e7dd      	b.n	7fae <udp_input+0xb6>
    7ff2:	4688      	mov	r8, r1
    7ff4:	2f00      	cmp	r7, #0
    7ff6:	d0ee      	beq.n	7fd6 <udp_input+0xde>
    7ff8:	9a02      	ldr	r2, [sp, #8]
    7ffa:	88d3      	ldrh	r3, [r2, #6]
    7ffc:	b14b      	cbz	r3, 8012 <udp_input+0x11a>
    7ffe:	8933      	ldrh	r3, [r6, #8]
    8000:	4630      	mov	r0, r6
    8002:	9300      	str	r3, [sp, #0]
    8004:	4924      	ldr	r1, [pc, #144]	; (8098 <udp_input+0x1a0>)
    8006:	4a22      	ldr	r2, [pc, #136]	; (8090 <udp_input+0x198>)
    8008:	2311      	movs	r3, #17
    800a:	f7fb fa5f 	bl	34cc <inet_chksum_pseudo>
    800e:	2800      	cmp	r0, #0
    8010:	d18b      	bne.n	7f2a <udp_input+0x32>
    8012:	4630      	mov	r0, r6
    8014:	f06f 0107 	mvn.w	r1, #7
    8018:	f7f9 fb4a 	bl	16b0 <pbuf_header>
    801c:	2800      	cmp	r0, #0
    801e:	d184      	bne.n	7f2a <udp_input+0x32>
    8020:	b1df      	cbz	r7, 805a <udp_input+0x162>
    8022:	69fc      	ldr	r4, [r7, #28]
    8024:	2c00      	cmp	r4, #0
    8026:	d080      	beq.n	7f2a <udp_input+0x32>
    8028:	6a38      	ldr	r0, [r7, #32]
    802a:	4632      	mov	r2, r6
    802c:	f8cd b000 	str.w	r11, [sp]
    8030:	4639      	mov	r1, r7
    8032:	4b19      	ldr	r3, [pc, #100]	; (8098 <udp_input+0x1a0>)
    8034:	47a0      	blx	r4
    8036:	b005      	add	sp, #20
    8038:	e8bd 8ff0 	ldmia.w	sp!, {r4, r5, r6, r7, r8, r9, r10, r11, pc}
    803c:	f8da 3028 	ldr.w	r3, [r10, #40]	; 0x28
    8040:	2b00      	cmp	r3, #0
    8042:	d0c8      	beq.n	7fd6 <udp_input+0xde>
    8044:	685f      	ldr	r7, [r3, #4]
    8046:	2f00      	cmp	r7, #0
    8048:	d0c5      	beq.n	7fd6 <udp_input+0xde>
    804a:	687b      	ldr	r3, [r7, #4]
    804c:	2b00      	cmp	r3, #0
    804e:	d0d3      	beq.n	7ff8 <udp_input+0x100>
    8050:	4a11      	ldr	r2, [pc, #68]	; (8098 <udp_input+0x1a0>)
    8052:	6812      	ldr	r2, [r2, #0]
    8054:	4293      	cmp	r3, r2
    8056:	d1be      	bne.n	7fd6 <udp_input+0xde>
    8058:	e7ce      	b.n	7ff8 <udp_input+0x100>
    805a:	f1b8 0f00 	cmp.w	r8, #0
    805e:	f47f af64 	bne.w	7f2a <udp_input+0x32>
    8062:	480b      	ldr	r0, [pc, #44]	; (8090 <udp_input+0x198>)
    8064:	6803      	ldr	r3, [r0, #0]
    8066:	f003 03f0 	and.w	r3, r3, #240	; 0xf0
    806a:	2be0      	cmp	r3, #224	; 0xe0
    806c:	f43f af5d 	beq.w	7f2a <udp_input+0x32>
    8070:	f8b9 1000 	ldrh.w	r1, [r9]
    8074:	ba49      	rev16	r1, r1
    8076:	f3c1 2103 	ubfx	r1, r1, #8, #4
    807a:	3102      	adds	r1, #2
    807c:	0089      	lsls	r1, r1, #2
    807e:	4630      	mov	r0, r6
    8080:	f7f9 fb16 	bl	16b0 <pbuf_header>
    8084:	4630      	mov	r0, r6
    8086:	2103      	movs	r1, #3
    8088:	f000 fa78 	bl	857c <icmp_dest_unreach>
    808c:	e74d      	b.n	7f2a <udp_input+0x32>
    808e:	bf00      	nop
    8090:	10000fdc 	.word	0x10000fdc
    8094:	10001030 	.word	0x10001030
    8098:	10000fd4 	.word	0x10000fd4

0000809c <udp_bind>:
    809c:	b4f0      	push	{r4, r5, r6, r7}
    809e:	4f24      	ldr	r7, [pc, #144]	; (8130 <udp_bind+0x94>)
    80a0:	f8d7 c000 	ldr.w	r12, [r7]
    80a4:	f1bc 0f00 	cmp.w	r12, #0
    80a8:	d03f      	beq.n	812a <udp_bind+0x8e>
    80aa:	4663      	mov	r3, r12
    80ac:	2600      	movs	r6, #0
    80ae:	e001      	b.n	80b4 <udp_bind+0x18>
    80b0:	68db      	ldr	r3, [r3, #12]
    80b2:	b1a3      	cbz	r3, 80de <udp_bind+0x42>
    80b4:	4298      	cmp	r0, r3
    80b6:	d00e      	beq.n	80d6 <udp_bind+0x3a>
    80b8:	8a5c      	ldrh	r4, [r3, #18]
    80ba:	4294      	cmp	r4, r2
    80bc:	d1f8      	bne.n	80b0 <udp_bind+0x14>
    80be:	b133      	cbz	r3, 80ce <udp_bind+0x32>
    80c0:	681c      	ldr	r4, [r3, #0]
    80c2:	b124      	cbz	r4, 80ce <udp_bind+0x32>
    80c4:	b119      	cbz	r1, 80ce <udp_bind+0x32>
    80c6:	680d      	ldr	r5, [r1, #0]
    80c8:	b10d      	cbz	r5, 80ce <udp_bind+0x32>
    80ca:	42ac      	cmp	r4, r5
    80cc:	d1f0      	bne.n	80b0 <udp_bind+0x14>
    80ce:	26f8      	movs	r6, #248	; 0xf8
    80d0:	b270      	sxtb	r0, r6
    80d2:	bcf0      	pop	{r4, r5, r6, r7}
    80d4:	4770      	bx	lr
    80d6:	68db      	ldr	r3, [r3, #12]
    80d8:	2601      	movs	r6, #1
    80da:	2b00      	cmp	r3, #0
    80dc:	d1ea      	bne.n	80b4 <udp_bind+0x18>
    80de:	b101      	cbz	r1, 80e2 <udp_bind+0x46>
    80e0:	6809      	ldr	r1, [r1, #0]
    80e2:	6001      	str	r1, [r0, #0]
    80e4:	b9aa      	cbnz	r2, 8112 <udp_bind+0x76>
    80e6:	f1bc 0f00 	cmp.w	r12, #0
    80ea:	d010      	beq.n	810e <udp_bind+0x72>
    80ec:	4663      	mov	r3, r12
    80ee:	f44f 4240 	mov.w	r2, #49152	; 0xc000
    80f2:	f64f 74ff 	movw	r4, #65535	; 0xffff
    80f6:	e003      	b.n	8100 <udp_bind+0x64>
    80f8:	68db      	ldr	r3, [r3, #12]
    80fa:	b153      	cbz	r3, 8112 <udp_bind+0x76>
    80fc:	42a2      	cmp	r2, r4
    80fe:	d0e6      	beq.n	80ce <udp_bind+0x32>
    8100:	8a59      	ldrh	r1, [r3, #18]
    8102:	4291      	cmp	r1, r2
    8104:	d1f8      	bne.n	80f8 <udp_bind+0x5c>
    8106:	3201      	adds	r2, #1
    8108:	b292      	uxth	r2, r2
    810a:	4663      	mov	r3, r12
    810c:	e7f6      	b.n	80fc <udp_bind+0x60>
    810e:	f44f 4240 	mov.w	r2, #49152	; 0xc000
    8112:	8242      	strh	r2, [r0, #18]
    8114:	b92e      	cbnz	r6, 8122 <udp_bind+0x86>
    8116:	6038      	str	r0, [r7, #0]
    8118:	f8c0 c00c 	str.w	r12, [r0, #12]
    811c:	b270      	sxtb	r0, r6
    811e:	bcf0      	pop	{r4, r5, r6, r7}
    8120:	4770      	bx	lr
    8122:	2600      	movs	r6, #0
    8124:	b270      	sxtb	r0, r6
    8126:	bcf0      	pop	{r4, r5, r6, r7}
    8128:	4770      	bx	lr
    812a:	4666      	mov	r6, r12
    812c:	e7d7      	b.n	80de <udp_bind+0x42>
    812e:	bf00      	nop
    8130:	10001030 	.word	0x10001030

00008134 <udp_sendto_if_chksum>:
    8134:	e92d 4ff0 	stmdb	sp!, {r4, r5, r6, r7, r8, r9, r10, r11, lr}
    8138:	4604      	mov	r4, r0
    813a:	7a00      	ldrb	r0, [r0, #8]
    813c:	b085      	sub	sp, #20
    813e:	0680      	lsls	r0, r0, #26
    8140:	460e      	mov	r6, r1
    8142:	4617      	mov	r7, r2
    8144:	4699      	mov	r9, r3
    8146:	f89d a03c 	ldrb.w	r10, [sp, #60]	; 0x3c
    814a:	f8bd b040 	ldrh.w	r11, [sp, #64]	; 0x40
    814e:	d578      	bpl.n	8242 <udp_sendto_if_chksum+0x10e>
    8150:	8a62      	ldrh	r2, [r4, #18]
    8152:	2a00      	cmp	r2, #0
    8154:	d04d      	beq.n	81f2 <udp_sendto_if_chksum+0xbe>
    8156:	4630      	mov	r0, r6
    8158:	2108      	movs	r1, #8
    815a:	f7f9 faa9 	bl	16b0 <pbuf_header>
    815e:	2800      	cmp	r0, #0
    8160:	d153      	bne.n	820a <udp_sendto_if_chksum+0xd6>
    8162:	46b0      	mov	r8, r6
    8164:	f8d8 5004 	ldr.w	r5, [r8, #4]
    8168:	8a63      	ldrh	r3, [r4, #18]
    816a:	ba5b      	rev16	r3, r3
    816c:	802b      	strh	r3, [r5, #0]
    816e:	fa99 f999 	rev16.w	r9, r9
    8172:	683a      	ldr	r2, [r7, #0]
    8174:	2300      	movs	r3, #0
    8176:	f002 02f0 	and.w	r2, r2, #240	; 0xf0
    817a:	2ae0      	cmp	r2, #224	; 0xe0
    817c:	f8a5 9002 	strh.w	r9, [r5, #2]
    8180:	71ab      	strb	r3, [r5, #6]
    8182:	71eb      	strb	r3, [r5, #7]
    8184:	d064      	beq.n	8250 <udp_sendto_if_chksum+0x11c>
    8186:	46a1      	mov	r9, r4
    8188:	990e      	ldr	r1, [sp, #56]	; 0x38
    818a:	b114      	cbz	r4, 8192 <udp_sendto_if_chksum+0x5e>
    818c:	6823      	ldr	r3, [r4, #0]
    818e:	2b00      	cmp	r3, #0
    8190:	d14a      	bne.n	8228 <udp_sendto_if_chksum+0xf4>
    8192:	f101 0904 	add.w	r9, r1, #4
    8196:	f8b8 3008 	ldrh.w	r3, [r8, #8]
    819a:	ba5a      	rev16	r2, r3
    819c:	80aa      	strh	r2, [r5, #4]
    819e:	7c22      	ldrb	r2, [r4, #16]
    81a0:	07d2      	lsls	r2, r2, #31
    81a2:	d40f      	bmi.n	81c4 <udp_sendto_if_chksum+0x90>
    81a4:	f1ba 0f00 	cmp.w	r10, #0
    81a8:	d15c      	bne.n	8264 <udp_sendto_if_chksum+0x130>
    81aa:	9300      	str	r3, [sp, #0]
    81ac:	4640      	mov	r0, r8
    81ae:	4649      	mov	r1, r9
    81b0:	463a      	mov	r2, r7
    81b2:	2311      	movs	r3, #17
    81b4:	f7fb f98a 	bl	34cc <inet_chksum_pseudo>
    81b8:	f64f 73ff 	movw	r3, #65535	; 0xffff
    81bc:	2800      	cmp	r0, #0
    81be:	bf08      	it	eq
    81c0:	4618      	moveq	r0, r3
    81c2:	80e8      	strh	r0, [r5, #6]
    81c4:	7aa3      	ldrb	r3, [r4, #10]
    81c6:	9a0e      	ldr	r2, [sp, #56]	; 0x38
    81c8:	7a64      	ldrb	r4, [r4, #9]
    81ca:	2011      	movs	r0, #17
    81cc:	9202      	str	r2, [sp, #8]
    81ce:	9400      	str	r4, [sp, #0]
    81d0:	9001      	str	r0, [sp, #4]
    81d2:	4649      	mov	r1, r9
    81d4:	463a      	mov	r2, r7
    81d6:	4640      	mov	r0, r8
    81d8:	f7fb fbfc 	bl	39d4 <ip_output_if>
    81dc:	45b0      	cmp	r8, r6
    81de:	4604      	mov	r4, r0
    81e0:	d003      	beq.n	81ea <udp_sendto_if_chksum+0xb6>
    81e2:	4640      	mov	r0, r8
    81e4:	f7f9 fa9a 	bl	171c <pbuf_free>
    81e8:	4620      	mov	r0, r4
    81ea:	b240      	sxtb	r0, r0
    81ec:	b005      	add	sp, #20
    81ee:	e8bd 8ff0 	ldmia.w	sp!, {r4, r5, r6, r7, r8, r9, r10, r11, pc}
    81f2:	4620      	mov	r0, r4
    81f4:	4621      	mov	r1, r4
    81f6:	f7ff ff51 	bl	809c <udp_bind>
    81fa:	2800      	cmp	r0, #0
    81fc:	d1f5      	bne.n	81ea <udp_sendto_if_chksum+0xb6>
    81fe:	4630      	mov	r0, r6
    8200:	2108      	movs	r1, #8
    8202:	f7f9 fa55 	bl	16b0 <pbuf_header>
    8206:	2800      	cmp	r0, #0
    8208:	d0ab      	beq.n	8162 <udp_sendto_if_chksum+0x2e>
    820a:	2001      	movs	r0, #1
    820c:	2108      	movs	r1, #8
    820e:	2200      	movs	r2, #0
    8210:	f7f9 faba 	bl	1788 <pbuf_alloc>
    8214:	4680      	mov	r8, r0
    8216:	2800      	cmp	r0, #0
    8218:	d036      	beq.n	8288 <udp_sendto_if_chksum+0x154>
    821a:	8933      	ldrh	r3, [r6, #8]
    821c:	2b00      	cmp	r3, #0
    821e:	d0a1      	beq.n	8164 <udp_sendto_if_chksum+0x30>
    8220:	4631      	mov	r1, r6
    8222:	f7f9 fb9f 	bl	1964 <pbuf_chain>
    8226:	e79d      	b.n	8164 <udp_sendto_if_chksum+0x30>
    8228:	684a      	ldr	r2, [r1, #4]
    822a:	4293      	cmp	r3, r2
    822c:	d0b3      	beq.n	8196 <udp_sendto_if_chksum+0x62>
    822e:	45b0      	cmp	r8, r6
    8230:	d002      	beq.n	8238 <udp_sendto_if_chksum+0x104>
    8232:	4640      	mov	r0, r8
    8234:	f7f9 fa72 	bl	171c <pbuf_free>
    8238:	20fa      	movs	r0, #250	; 0xfa
    823a:	b240      	sxtb	r0, r0
    823c:	b005      	add	sp, #20
    823e:	e8bd 8ff0 	ldmia.w	sp!, {r4, r5, r6, r7, r8, r9, r10, r11, pc}
    8242:	6810      	ldr	r0, [r2, #0]
    8244:	990e      	ldr	r1, [sp, #56]	; 0x38
    8246:	f7fb fbf9 	bl	3a3c <ip4_addr_isbroadcast>
    824a:	2800      	cmp	r0, #0
    824c:	d080      	beq.n	8150 <udp_sendto_if_chksum+0x1c>
    824e:	e7f3      	b.n	8238 <udp_sendto_if_chksum+0x104>
    8250:	7c23      	ldrb	r3, [r4, #16]
    8252:	0719      	lsls	r1, r3, #28
    8254:	d597      	bpl.n	8186 <udp_sendto_if_chksum+0x52>
    8256:	f898 300d 	ldrb.w	r3, [r8, #13]
    825a:	f043 0304 	orr.w	r3, r3, #4
    825e:	f888 300d 	strb.w	r3, [r8, #13]
    8262:	e790      	b.n	8186 <udp_sendto_if_chksum+0x52>
    8264:	2208      	movs	r2, #8
    8266:	9300      	str	r3, [sp, #0]
    8268:	9201      	str	r2, [sp, #4]
    826a:	4640      	mov	r0, r8
    826c:	4649      	mov	r1, r9
    826e:	463a      	mov	r2, r7
    8270:	2311      	movs	r3, #17
    8272:	f7fb f969 	bl	3548 <inet_chksum_pseudo_partial>
    8276:	ea6f 0b0b 	mvn.w	r11, r11
    827a:	fa1f fb8b 	uxth.w	r11, r11
    827e:	4458      	add	r0, r11
    8280:	eb00 4010 	add.w	r0, r0, r0, lsr #16
    8284:	b280      	uxth	r0, r0
    8286:	e797      	b.n	81b8 <udp_sendto_if_chksum+0x84>
    8288:	20ff      	movs	r0, #255	; 0xff
    828a:	e7ae      	b.n	81ea <udp_sendto_if_chksum+0xb6>

0000828c <udp_sendto_chksum>:
    828c:	e92d 43f0 	stmdb	sp!, {r4, r5, r6, r7, r8, r9, lr}
    8290:	4614      	mov	r4, r2
    8292:	6812      	ldr	r2, [r2, #0]
    8294:	b085      	sub	sp, #20
    8296:	f002 02f0 	and.w	r2, r2, #240	; 0xf0
    829a:	2ae0      	cmp	r2, #224	; 0xe0
    829c:	4605      	mov	r5, r0
    829e:	bf0c      	ite	eq
    82a0:	3018      	addeq	r0, #24
    82a2:	4620      	movne	r0, r4
    82a4:	4689      	mov	r9, r1
    82a6:	4698      	mov	r8, r3
    82a8:	f89d 7030 	ldrb.w	r7, [sp, #48]	; 0x30
    82ac:	f8bd 6034 	ldrh.w	r6, [sp, #52]	; 0x34
    82b0:	f7fb f9d4 	bl	365c <ip_route>
    82b4:	b160      	cbz	r0, 82d0 <udp_sendto_chksum+0x44>
    82b6:	e88d 0081 	stmia.w	sp, {r0, r7}
    82ba:	9602      	str	r6, [sp, #8]
    82bc:	4628      	mov	r0, r5
    82be:	4649      	mov	r1, r9
    82c0:	4622      	mov	r2, r4
    82c2:	4643      	mov	r3, r8
    82c4:	f7ff ff36 	bl	8134 <udp_sendto_if_chksum>
    82c8:	b240      	sxtb	r0, r0
    82ca:	b005      	add	sp, #20
    82cc:	e8bd 83f0 	ldmia.w	sp!, {r4, r5, r6, r7, r8, r9, pc}
    82d0:	20fc      	movs	r0, #252	; 0xfc
    82d2:	e7f9      	b.n	82c8 <udp_sendto_chksum+0x3c>

000082d4 <udp_send_chksum>:
    82d4:	b530      	push	{r4, r5, lr}
    82d6:	8a85      	ldrh	r5, [r0, #20]
    82d8:	b083      	sub	sp, #12
    82da:	e88d 000c 	stmia.w	sp, {r2, r3}
    82de:	1d02      	adds	r2, r0, #4
    82e0:	462b      	mov	r3, r5
    82e2:	f7ff ffd3 	bl	828c <udp_sendto_chksum>
    82e6:	b003      	add	sp, #12
    82e8:	bd30      	pop	{r4, r5, pc}
    82ea:	bf00      	nop

000082ec <udp_sendto>:
    82ec:	b510      	push	{r4, lr}
    82ee:	2400      	movs	r4, #0
    82f0:	b082      	sub	sp, #8
    82f2:	9400      	str	r4, [sp, #0]
    82f4:	9401      	str	r4, [sp, #4]
    82f6:	f7ff ffc9 	bl	828c <udp_sendto_chksum>
    82fa:	b002      	add	sp, #8
    82fc:	bd10      	pop	{r4, pc}
    82fe:	bf00      	nop

00008300 <udp_sendto_if>:
    8300:	b530      	push	{r4, r5, lr}
    8302:	b085      	sub	sp, #20
    8304:	9d08      	ldr	r5, [sp, #32]
    8306:	2400      	movs	r4, #0
    8308:	9500      	str	r5, [sp, #0]
    830a:	9401      	str	r4, [sp, #4]
    830c:	9402      	str	r4, [sp, #8]
    830e:	f7ff ff11 	bl	8134 <udp_sendto_if_chksum>
    8312:	b005      	add	sp, #20
    8314:	bd30      	pop	{r4, r5, pc}
    8316:	bf00      	nop

00008318 <udp_connect>:
    8318:	8a43      	ldrh	r3, [r0, #18]
    831a:	b570      	push	{r4, r5, r6, lr}
    831c:	4604      	mov	r4, r0
    831e:	460d      	mov	r5, r1
    8320:	4616      	mov	r6, r2
    8322:	b1c3      	cbz	r3, 8356 <udp_connect+0x3e>
    8324:	b105      	cbz	r5, 8328 <udp_connect+0x10>
    8326:	682d      	ldr	r5, [r5, #0]
    8328:	4910      	ldr	r1, [pc, #64]	; (836c <udp_connect+0x54>)
    832a:	7c23      	ldrb	r3, [r4, #16]
    832c:	6808      	ldr	r0, [r1, #0]
    832e:	f043 0304 	orr.w	r3, r3, #4
    8332:	6065      	str	r5, [r4, #4]
    8334:	82a6      	strh	r6, [r4, #20]
    8336:	7423      	strb	r3, [r4, #16]
    8338:	b140      	cbz	r0, 834c <udp_connect+0x34>
    833a:	4284      	cmp	r4, r0
    833c:	d013      	beq.n	8366 <udp_connect+0x4e>
    833e:	4603      	mov	r3, r0
    8340:	e001      	b.n	8346 <udp_connect+0x2e>
    8342:	429c      	cmp	r4, r3
    8344:	d00f      	beq.n	8366 <udp_connect+0x4e>
    8346:	68db      	ldr	r3, [r3, #12]
    8348:	2b00      	cmp	r3, #0
    834a:	d1fa      	bne.n	8342 <udp_connect+0x2a>
    834c:	60e0      	str	r0, [r4, #12]
    834e:	2000      	movs	r0, #0
    8350:	600c      	str	r4, [r1, #0]
    8352:	b240      	sxtb	r0, r0
    8354:	bd70      	pop	{r4, r5, r6, pc}
    8356:	461a      	mov	r2, r3
    8358:	4601      	mov	r1, r0
    835a:	f7ff fe9f 	bl	809c <udp_bind>
    835e:	2800      	cmp	r0, #0
    8360:	d0e0      	beq.n	8324 <udp_connect+0xc>
    8362:	b240      	sxtb	r0, r0
    8364:	bd70      	pop	{r4, r5, r6, pc}
    8366:	2000      	movs	r0, #0
    8368:	b240      	sxtb	r0, r0
    836a:	bd70      	pop	{r4, r5, r6, pc}
    836c:	10001030 	.word	0x10001030

00008370 <udp_recv>:
    8370:	61c1      	str	r1, [r0, #28]
    8372:	6202      	str	r2, [r0, #32]
    8374:	4770      	bx	lr
    8376:	bf00      	nop

00008378 <udp_remove>:
    8378:	4b0c      	ldr	r3, [pc, #48]	; (83ac <udp_remove+0x34>)
    837a:	4601      	mov	r1, r0
    837c:	681a      	ldr	r2, [r3, #0]
    837e:	4282      	cmp	r2, r0
    8380:	d00f      	beq.n	83a2 <udp_remove+0x2a>
    8382:	b91a      	cbnz	r2, 838c <udp_remove+0x14>
    8384:	e005      	b.n	8392 <udp_remove+0x1a>
    8386:	4299      	cmp	r1, r3
    8388:	d006      	beq.n	8398 <udp_remove+0x20>
    838a:	461a      	mov	r2, r3
    838c:	68d3      	ldr	r3, [r2, #12]
    838e:	2b00      	cmp	r3, #0
    8390:	d1f9      	bne.n	8386 <udp_remove+0xe>
    8392:	2000      	movs	r0, #0
    8394:	f7f9 b858 	b.w	1448 <memp_free>
    8398:	68cb      	ldr	r3, [r1, #12]
    839a:	60d3      	str	r3, [r2, #12]
    839c:	2b00      	cmp	r3, #0
    839e:	d1f4      	bne.n	838a <udp_remove+0x12>
    83a0:	e7f7      	b.n	8392 <udp_remove+0x1a>
    83a2:	68c2      	ldr	r2, [r0, #12]
    83a4:	2000      	movs	r0, #0
    83a6:	601a      	str	r2, [r3, #0]
    83a8:	f7f9 b84e 	b.w	1448 <memp_free>
    83ac:	10001030 	.word	0x10001030

000083b0 <udp_new>:
    83b0:	b510      	push	{r4, lr}
    83b2:	2000      	movs	r0, #0
    83b4:	f7f9 f832 	bl	141c <memp_malloc>
    83b8:	4604      	mov	r4, r0
    83ba:	b128      	cbz	r0, 83c8 <udp_new+0x18>
    83bc:	2100      	movs	r1, #0
    83be:	2224      	movs	r2, #36	; 0x24
    83c0:	f003 fe2e 	bl	c020 <memset>
    83c4:	23ff      	movs	r3, #255	; 0xff
    83c6:	72a3      	strb	r3, [r4, #10]
    83c8:	4620      	mov	r0, r4
    83ca:	bd10      	pop	{r4, pc}

000083cc <icmp_send_response.isra.0>:
    83cc:	e92d 43f0 	stmdb	sp!, {r4, r5, r6, r7, r8, r9, lr}
    83d0:	4605      	mov	r5, r0
    83d2:	b085      	sub	sp, #20
    83d4:	4689      	mov	r9, r1
    83d6:	4617      	mov	r7, r2
    83d8:	2001      	movs	r0, #1
    83da:	2124      	movs	r1, #36	; 0x24
    83dc:	2200      	movs	r2, #0
    83de:	f7f9 f9d3 	bl	1788 <pbuf_alloc>
    83e2:	4606      	mov	r6, r0
    83e4:	2800      	cmp	r0, #0
    83e6:	d03a      	beq.n	845e <icmp_send_response.isra.0+0x92>
    83e8:	6844      	ldr	r4, [r0, #4]
    83ea:	f8d5 8000 	ldr.w	r8, [r5]
    83ee:	f884 9000 	strb.w	r9, [r4]
    83f2:	7067      	strb	r7, [r4, #1]
    83f4:	682b      	ldr	r3, [r5, #0]
    83f6:	2500      	movs	r5, #0
    83f8:	7125      	strb	r5, [r4, #4]
    83fa:	7165      	strb	r5, [r4, #5]
    83fc:	71a5      	strb	r5, [r4, #6]
    83fe:	71e5      	strb	r5, [r4, #7]
    8400:	f8d0 e004 	ldr.w	lr, [r0, #4]
    8404:	681f      	ldr	r7, [r3, #0]
    8406:	6858      	ldr	r0, [r3, #4]
    8408:	6899      	ldr	r1, [r3, #8]
    840a:	f8d3 c00c 	ldr.w	r12, [r3, #12]
    840e:	f8ce 7008 	str.w	r7, [lr, #8]
    8412:	f8ce 000c 	str.w	r0, [lr, #12]
    8416:	f8ce 1010 	str.w	r1, [lr, #16]
    841a:	f8ce c014 	str.w	r12, [lr, #20]
    841e:	6958      	ldr	r0, [r3, #20]
    8420:	6999      	ldr	r1, [r3, #24]
    8422:	691f      	ldr	r7, [r3, #16]
    8424:	f8ce 001c 	str.w	r0, [lr, #28]
    8428:	f8ce 7018 	str.w	r7, [lr, #24]
    842c:	f8ce 1020 	str.w	r1, [lr, #32]
    8430:	8971      	ldrh	r1, [r6, #10]
    8432:	4620      	mov	r0, r4
    8434:	70a5      	strb	r5, [r4, #2]
    8436:	70e5      	strb	r5, [r4, #3]
    8438:	f7fb f8dc 	bl	35f4 <inet_chksum>
    843c:	8060      	strh	r0, [r4, #2]
    843e:	f8d8 300c 	ldr.w	r3, [r8, #12]
    8442:	aa04      	add	r2, sp, #16
    8444:	f842 3d04 	str.w	r3, [r2, #-4]!
    8448:	2301      	movs	r3, #1
    844a:	9301      	str	r3, [sp, #4]
    844c:	9500      	str	r5, [sp, #0]
    844e:	4629      	mov	r1, r5
    8450:	4630      	mov	r0, r6
    8452:	23ff      	movs	r3, #255	; 0xff
    8454:	f7fb fad0 	bl	39f8 <ip_output>
    8458:	4630      	mov	r0, r6
    845a:	f7f9 f95f 	bl	171c <pbuf_free>
    845e:	b005      	add	sp, #20
    8460:	e8bd 83f0 	ldmia.w	sp!, {r4, r5, r6, r7, r8, r9, pc}

00008464 <icmp_input>:
    8464:	e92d 47f0 	stmdb	sp!, {r4, r5, r6, r7, r8, r9, r10, lr}
    8468:	6845      	ldr	r5, [r0, #4]
    846a:	b084      	sub	sp, #16
    846c:	4604      	mov	r4, r0
    846e:	4688      	mov	r8, r1
    8470:	882e      	ldrh	r6, [r5, #0]
    8472:	ba76      	rev16	r6, r6
    8474:	f3c6 2603 	ubfx	r6, r6, #8, #4
    8478:	00b6      	lsls	r6, r6, #2
    847a:	4277      	negs	r7, r6
    847c:	4639      	mov	r1, r7
    847e:	f7f9 f917 	bl	16b0 <pbuf_header>
    8482:	b980      	cbnz	r0, 84a6 <icmp_input+0x42>
    8484:	8923      	ldrh	r3, [r4, #8]
    8486:	2b03      	cmp	r3, #3
    8488:	d90d      	bls.n	84a6 <icmp_input+0x42>
    848a:	6862      	ldr	r2, [r4, #4]
    848c:	7812      	ldrb	r2, [r2, #0]
    848e:	2a08      	cmp	r2, #8
    8490:	d109      	bne.n	84a6 <icmp_input+0x42>
    8492:	f8df 90e4 	ldr.w	r9, [pc, #228]	; 8578 <icmp_input+0x114>
    8496:	f8d9 2000 	ldr.w	r2, [r9]
    849a:	f002 02f0 	and.w	r2, r2, #240	; 0xf0
    849e:	2ae0      	cmp	r2, #224	; 0xe0
    84a0:	d001      	beq.n	84a6 <icmp_input+0x42>
    84a2:	2b07      	cmp	r3, #7
    84a4:	d805      	bhi.n	84b2 <icmp_input+0x4e>
    84a6:	4620      	mov	r0, r4
    84a8:	b004      	add	sp, #16
    84aa:	e8bd 47f0 	ldmia.w	sp!, {r4, r5, r6, r7, r8, r9, r10, lr}
    84ae:	f7f9 b935 	b.w	171c <pbuf_free>
    84b2:	4620      	mov	r0, r4
    84b4:	f7fb f8a4 	bl	3600 <inet_chksum_pbuf>
    84b8:	2800      	cmp	r0, #0
    84ba:	d1f4      	bne.n	84a6 <icmp_input+0x42>
    84bc:	4620      	mov	r0, r4
    84be:	2122      	movs	r1, #34	; 0x22
    84c0:	b2b6      	uxth	r6, r6
    84c2:	f7f9 f8f5 	bl	16b0 <pbuf_header>
    84c6:	b300      	cbz	r0, 850a <icmp_input+0xa6>
    84c8:	b236      	sxth	r6, r6
    84ca:	4631      	mov	r1, r6
    84cc:	4620      	mov	r0, r4
    84ce:	f7f9 f8ef 	bl	16b0 <pbuf_header>
    84d2:	2800      	cmp	r0, #0
    84d4:	d1e7      	bne.n	84a6 <icmp_input+0x42>
    84d6:	4602      	mov	r2, r0
    84d8:	8921      	ldrh	r1, [r4, #8]
    84da:	2002      	movs	r0, #2
    84dc:	f7f9 f954 	bl	1788 <pbuf_alloc>
    84e0:	4682      	mov	r10, r0
    84e2:	2800      	cmp	r0, #0
    84e4:	d0df      	beq.n	84a6 <icmp_input+0x42>
    84e6:	4621      	mov	r1, r4
    84e8:	f7f9 fa46 	bl	1978 <pbuf_copy>
    84ec:	2800      	cmp	r0, #0
    84ee:	d1da      	bne.n	84a6 <icmp_input+0x42>
    84f0:	4639      	mov	r1, r7
    84f2:	4650      	mov	r0, r10
    84f4:	f8da 5004 	ldr.w	r5, [r10, #4]
    84f8:	f7f9 f8da 	bl	16b0 <pbuf_header>
    84fc:	2800      	cmp	r0, #0
    84fe:	d1d2      	bne.n	84a6 <icmp_input+0x42>
    8500:	4620      	mov	r0, r4
    8502:	f7f9 f90b 	bl	171c <pbuf_free>
    8506:	4654      	mov	r4, r10
    8508:	e007      	b.n	851a <icmp_input+0xb6>
    850a:	4620      	mov	r0, r4
    850c:	f06f 0121 	mvn.w	r1, #33	; 0x21
    8510:	f7f9 f8ce 	bl	16b0 <pbuf_header>
    8514:	2800      	cmp	r0, #0
    8516:	d1c6      	bne.n	84a6 <icmp_input+0x42>
    8518:	b236      	sxth	r6, r6
    851a:	4b16      	ldr	r3, [pc, #88]	; (8574 <icmp_input+0x110>)
    851c:	f8d9 1000 	ldr.w	r1, [r9]
    8520:	681a      	ldr	r2, [r3, #0]
    8522:	6863      	ldr	r3, [r4, #4]
    8524:	60e9      	str	r1, [r5, #12]
    8526:	612a      	str	r2, [r5, #16]
    8528:	885a      	ldrh	r2, [r3, #2]
    852a:	f64f 71f6 	movw	r1, #65526	; 0xfff6
    852e:	428a      	cmp	r2, r1
    8530:	bf8c      	ite	hi
    8532:	3209      	addhi	r2, #9
    8534:	3208      	addls	r2, #8
    8536:	805a      	strh	r2, [r3, #2]
    8538:	2000      	movs	r0, #0
    853a:	2200      	movs	r2, #0
    853c:	27ff      	movs	r7, #255	; 0xff
    853e:	7018      	strb	r0, [r3, #0]
    8540:	2114      	movs	r1, #20
    8542:	722f      	strb	r7, [r5, #8]
    8544:	72aa      	strb	r2, [r5, #10]
    8546:	72ea      	strb	r2, [r5, #11]
    8548:	4628      	mov	r0, r5
    854a:	f7fb f853 	bl	35f4 <inet_chksum>
    854e:	4631      	mov	r1, r6
    8550:	8168      	strh	r0, [r5, #10]
    8552:	4620      	mov	r0, r4
    8554:	f7f9 f8ac 	bl	16b0 <pbuf_header>
    8558:	2800      	cmp	r0, #0
    855a:	d1a4      	bne.n	84a6 <icmp_input+0x42>
    855c:	2101      	movs	r1, #1
    855e:	9000      	str	r0, [sp, #0]
    8560:	4602      	mov	r2, r0
    8562:	9101      	str	r1, [sp, #4]
    8564:	f8cd 8008 	str.w	r8, [sp, #8]
    8568:	463b      	mov	r3, r7
    856a:	4620      	mov	r0, r4
    856c:	4902      	ldr	r1, [pc, #8]	; (8578 <icmp_input+0x114>)
    856e:	f7fb fa31 	bl	39d4 <ip_output_if>
    8572:	e798      	b.n	84a6 <icmp_input+0x42>
    8574:	10000fd4 	.word	0x10000fd4
    8578:	10000fdc 	.word	0x10000fdc

0000857c <icmp_dest_unreach>:
    857c:	460a      	mov	r2, r1
    857e:	3004      	adds	r0, #4
    8580:	2103      	movs	r1, #3
    8582:	f7ff bf23 	b.w	83cc <icmp_send_response.isra.0>
    8586:	bf00      	nop

00008588 <icmp_time_exceeded>:
    8588:	460a      	mov	r2, r1
    858a:	3004      	adds	r0, #4
    858c:	210b      	movs	r1, #11
    858e:	f7ff bf1d 	b.w	83cc <icmp_send_response.isra.0>
    8592:	bf00      	nop

00008594 <set_mac_address()>:
    8594:	b530      	push	{r4, r5, lr}
    8596:	b089      	sub	sp, #36	; 0x24
    8598:	a806      	add	r0, sp, #24
    859a:	f002 fd1d 	bl	afd8 <mbed_mac_address>
    859e:	f89d 001b 	ldrb.w	r0, [sp, #27]
    85a2:	f89d 101c 	ldrb.w	r1, [sp, #28]
    85a6:	f89d 201d 	ldrb.w	r2, [sp, #29]
    85aa:	f89d 5019 	ldrb.w	r5, [sp, #25]
    85ae:	f89d 401a 	ldrb.w	r4, [sp, #26]
    85b2:	9002      	str	r0, [sp, #8]
    85b4:	9103      	str	r1, [sp, #12]
    85b6:	9204      	str	r2, [sp, #16]
    85b8:	f89d 3018 	ldrb.w	r3, [sp, #24]
    85bc:	9500      	str	r5, [sp, #0]
    85be:	9401      	str	r4, [sp, #4]
    85c0:	2113      	movs	r1, #19
    85c2:	4a03      	ldr	r2, [pc, #12]	; (85d0 <set_mac_address()+0x3c>)
    85c4:	4803      	ldr	r0, [pc, #12]	; (85d4 <set_mac_address()+0x40>)
    85c6:	f003 fe2d 	bl	c224 <sniprintf>
    85ca:	b009      	add	sp, #36	; 0x24
    85cc:	bd30      	pop	{r4, r5, pc}
    85ce:	bf00      	nop
    85d0:	0000dba0 	.word	0x0000dba0
    85d4:	10000c68 	.word	0x10000c68

000085d8 <init_netif(ip_addr*, ip_addr*, ip_addr*)>:
    85d8:	e92d 47f0 	stmdb	sp!, {r4, r5, r6, r7, r8, r9, r10, lr}
    85dc:	4c16      	ldr	r4, [pc, #88]	; (8638 <init_netif(ip_addr*, ip_addr*, ip_addr*)+0x60>)
    85de:	b084      	sub	sp, #16
    85e0:	4682      	mov	r10, r0
    85e2:	4689      	mov	r9, r1
    85e4:	4815      	ldr	r0, [pc, #84]	; (863c <init_netif(ip_addr*, ip_addr*, ip_addr*)+0x64>)
    85e6:	2100      	movs	r1, #0
    85e8:	4690      	mov	r8, r2
    85ea:	4f15      	ldr	r7, [pc, #84]	; (8640 <init_netif(ip_addr*, ip_addr*, ip_addr*)+0x68>)
    85ec:	f7f8 fd20 	bl	1030 <tcpip_init>
    85f0:	4e14      	ldr	r6, [pc, #80]	; (8644 <init_netif(ip_addr*, ip_addr*, ip_addr*)+0x6c>)
    85f2:	f04f 31ff 	mov.w	r1, #4294967295	; 0xffffffff
    85f6:	4814      	ldr	r0, [pc, #80]	; (8648 <init_netif(ip_addr*, ip_addr*, ip_addr*)+0x70>)
    85f8:	f002 fa24 	bl	aa44 <rtos::Semaphore::wait(unsigned long)>
    85fc:	2500      	movs	r5, #0
    85fe:	4620      	mov	r0, r4
    8600:	2100      	movs	r1, #0
    8602:	2244      	movs	r2, #68	; 0x44
    8604:	f003 fd0c 	bl	c020 <memset>
    8608:	4651      	mov	r1, r10
    860a:	464a      	mov	r2, r9
    860c:	4643      	mov	r3, r8
    860e:	4620      	mov	r0, r4
    8610:	9701      	str	r7, [sp, #4]
    8612:	9602      	str	r6, [sp, #8]
    8614:	9500      	str	r5, [sp, #0]
    8616:	f7f8 ff67 	bl	14e8 <netif_add>
    861a:	4620      	mov	r0, r4
    861c:	f7f8 ffaa 	bl	1574 <netif_set_default>
    8620:	4620      	mov	r0, r4
    8622:	490a      	ldr	r1, [pc, #40]	; (864c <init_netif(ip_addr*, ip_addr*, ip_addr*)+0x74>)
    8624:	f7f9 f814 	bl	1650 <netif_set_link_callback>
    8628:	4909      	ldr	r1, [pc, #36]	; (8650 <init_netif(ip_addr*, ip_addr*, ip_addr*)+0x78>)
    862a:	4620      	mov	r0, r4
    862c:	b004      	add	sp, #16
    862e:	e8bd 47f0 	ldmia.w	sp!, {r4, r5, r6, r7, r8, r9, r10, lr}
    8632:	f7f8 bfd5 	b.w	15e0 <netif_set_status_callback>
    8636:	bf00      	nop
    8638:	10000c80 	.word	0x10000c80
    863c:	00008669 	.word	0x00008669
    8640:	00008d05 	.word	0x00008d05
    8644:	00000f59 	.word	0x00000f59
    8648:	10000c48 	.word	0x10000c48
    864c:	00008655 	.word	0x00008655
    8650:	00008675 	.word	0x00008675

00008654 <netif_link_callback(netif*)>:
    8654:	f890 3039 	ldrb.w	r3, [r0, #57]	; 0x39
    8658:	06db      	lsls	r3, r3, #27
    865a:	d400      	bmi.n	865e <netif_link_callback(netif*)+0xa>
    865c:	4770      	bx	lr
    865e:	4801      	ldr	r0, [pc, #4]	; (8664 <netif_link_callback(netif*)+0x10>)
    8660:	f002 b9f4 	b.w	aa4c <rtos::Semaphore::release()>
    8664:	10000d00 	.word	0x10000d00

00008668 <tcpip_init_done(void*)>:
    8668:	4801      	ldr	r0, [pc, #4]	; (8670 <tcpip_init_done(void*)+0x8>)
    866a:	f002 b9ef 	b.w	aa4c <rtos::Semaphore::release()>
    866e:	bf00      	nop
    8670:	10000c48 	.word	0x10000c48

00008674 <netif_status_callback(netif*)>:
    8674:	b510      	push	{r4, lr}
    8676:	f890 3039 	ldrb.w	r3, [r0, #57]	; 0x39
    867a:	4604      	mov	r4, r0
    867c:	07db      	lsls	r3, r3, #31
    867e:	d400      	bmi.n	8682 <netif_status_callback(netif*)+0xe>
    8680:	bd10      	pop	{r4, pc}
    8682:	3004      	adds	r0, #4
    8684:	f7fb faf8 	bl	3c78 <ipaddr_ntoa>
    8688:	4601      	mov	r1, r0
    868a:	480c      	ldr	r0, [pc, #48]	; (86bc <netif_status_callback(netif*)+0x48>)
    868c:	f003 fe75 	bl	c37a <strcpy>
    8690:	f104 000c 	add.w	r0, r4, #12
    8694:	f7fb faf0 	bl	3c78 <ipaddr_ntoa>
    8698:	4601      	mov	r1, r0
    869a:	4809      	ldr	r0, [pc, #36]	; (86c0 <netif_status_callback(netif*)+0x4c>)
    869c:	f003 fe6d 	bl	c37a <strcpy>
    86a0:	f104 0008 	add.w	r0, r4, #8
    86a4:	f7fb fae8 	bl	3c78 <ipaddr_ntoa>
    86a8:	4601      	mov	r1, r0
    86aa:	4806      	ldr	r0, [pc, #24]	; (86c4 <netif_status_callback(netif*)+0x50>)
    86ac:	f003 fe65 	bl	c37a <strcpy>
    86b0:	e8bd 4010 	ldmia.w	sp!, {r4, lr}
    86b4:	4804      	ldr	r0, [pc, #16]	; (86c8 <netif_status_callback(netif*)+0x54>)
    86b6:	f002 b9c9 	b.w	aa4c <rtos::Semaphore::release()>
    86ba:	bf00      	nop
    86bc:	10000cc4 	.word	0x10000cc4
    86c0:	10000cd8 	.word	0x10000cd8
    86c4:	10000cec 	.word	0x10000cec
    86c8:	10000c58 	.word	0x10000c58

000086cc <EthernetInterface::init()>:
    86cc:	b508      	push	{r3, lr}
    86ce:	4b06      	ldr	r3, [pc, #24]	; (86e8 <EthernetInterface::init()+0x1c>)
    86d0:	2201      	movs	r2, #1
    86d2:	701a      	strb	r2, [r3, #0]
    86d4:	f7ff ff5e 	bl	8594 <set_mac_address()>
    86d8:	2000      	movs	r0, #0
    86da:	4601      	mov	r1, r0
    86dc:	4602      	mov	r2, r0
    86de:	f7ff ff7b 	bl	85d8 <init_netif(ip_addr*, ip_addr*, ip_addr*)>
    86e2:	2000      	movs	r0, #0
    86e4:	bd08      	pop	{r3, pc}
    86e6:	bf00      	nop
    86e8:	10000c7c 	.word	0x10000c7c

000086ec <EthernetInterface::connect(unsigned int)>:
    86ec:	b510      	push	{r4, lr}
    86ee:	4604      	mov	r4, r0
    86f0:	f000 fc16 	bl	8f20 <eth_arch_enable_interrupts>
    86f4:	4b0b      	ldr	r3, [pc, #44]	; (8724 <EthernetInterface::connect(unsigned int)+0x38>)
    86f6:	480c      	ldr	r0, [pc, #48]	; (8728 <EthernetInterface::connect(unsigned int)+0x3c>)
    86f8:	781b      	ldrb	r3, [r3, #0]
    86fa:	b15b      	cbz	r3, 8714 <EthernetInterface::connect(unsigned int)+0x28>
    86fc:	f7fe fa22 	bl	6b44 <dhcp_start>
    8700:	4621      	mov	r1, r4
    8702:	480a      	ldr	r0, [pc, #40]	; (872c <EthernetInterface::connect(unsigned int)+0x40>)
    8704:	f002 f99e 	bl	aa44 <rtos::Semaphore::wait(unsigned long)>
    8708:	2800      	cmp	r0, #0
    870a:	bfcc      	ite	gt
    870c:	2000      	movgt	r0, #0
    870e:	2001      	movle	r0, #1
    8710:	4240      	negs	r0, r0
    8712:	bd10      	pop	{r4, pc}
    8714:	f7f8 ff34 	bl	1580 <netif_set_up>
    8718:	4621      	mov	r1, r4
    871a:	4805      	ldr	r0, [pc, #20]	; (8730 <EthernetInterface::connect(unsigned int)+0x44>)
    871c:	f002 f992 	bl	aa44 <rtos::Semaphore::wait(unsigned long)>
    8720:	e7f2      	b.n	8708 <EthernetInterface::connect(unsigned int)+0x1c>
    8722:	bf00      	nop
    8724:	10000c7c 	.word	0x10000c7c
    8728:	10000c80 	.word	0x10000c80
    872c:	10000c58 	.word	0x10000c58
    8730:	10000d00 	.word	0x10000d00

00008734 <EthernetInterface::disconnect()>:
    8734:	b508      	push	{r3, lr}
    8736:	4b09      	ldr	r3, [pc, #36]	; (875c <EthernetInterface::disconnect()+0x28>)
    8738:	4809      	ldr	r0, [pc, #36]	; (8760 <EthernetInterface::disconnect()+0x2c>)
    873a:	781b      	ldrb	r3, [r3, #0]
    873c:	b92b      	cbnz	r3, 874a <EthernetInterface::disconnect()+0x16>
    873e:	f7f8 ff41 	bl	15c4 <netif_set_down>
    8742:	f000 fbf7 	bl	8f34 <eth_arch_disable_interrupts>
    8746:	2000      	movs	r0, #0
    8748:	bd08      	pop	{r3, pc}
    874a:	f7fe f939 	bl	69c0 <dhcp_release>
    874e:	4804      	ldr	r0, [pc, #16]	; (8760 <EthernetInterface::disconnect()+0x2c>)
    8750:	f7fe f9e0 	bl	6b14 <dhcp_stop>
    8754:	f000 fbee 	bl	8f34 <eth_arch_disable_interrupts>
    8758:	2000      	movs	r0, #0
    875a:	bd08      	pop	{r3, pc}
    875c:	10000c7c 	.word	0x10000c7c
    8760:	10000c80 	.word	0x10000c80

00008764 <EthernetInterface::getIPAddress()>:
    8764:	4800      	ldr	r0, [pc, #0]	; (8768 <EthernetInterface::getIPAddress()+0x4>)
    8766:	4770      	bx	lr
    8768:	10000cc4 	.word	0x10000cc4

0000876c <_GLOBAL__sub_I__ZN17EthernetInterface4initEv>:
    876c:	b5f8      	push	{r3, r4, r5, r6, r7, lr}
    876e:	4e11      	ldr	r6, [pc, #68]	; (87b4 <_GLOBAL__sub_I__ZN17EthernetInterface4initEv+0x48>)
    8770:	4d11      	ldr	r5, [pc, #68]	; (87b8 <_GLOBAL__sub_I__ZN17EthernetInterface4initEv+0x4c>)
    8772:	4c12      	ldr	r4, [pc, #72]	; (87bc <_GLOBAL__sub_I__ZN17EthernetInterface4initEv+0x50>)
    8774:	4f12      	ldr	r7, [pc, #72]	; (87c0 <_GLOBAL__sub_I__ZN17EthernetInterface4initEv+0x54>)
    8776:	4630      	mov	r0, r6
    8778:	2100      	movs	r1, #0
    877a:	f002 f94f 	bl	aa1c <rtos::Semaphore::Semaphore(long)>
    877e:	4622      	mov	r2, r4
    8780:	4629      	mov	r1, r5
    8782:	4630      	mov	r0, r6
    8784:	f003 fa4a 	bl	bc1c <__aeabi_atexit>
    8788:	4e0e      	ldr	r6, [pc, #56]	; (87c4 <_GLOBAL__sub_I__ZN17EthernetInterface4initEv+0x58>)
    878a:	4638      	mov	r0, r7
    878c:	2100      	movs	r1, #0
    878e:	f002 f945 	bl	aa1c <rtos::Semaphore::Semaphore(long)>
    8792:	4622      	mov	r2, r4
    8794:	4629      	mov	r1, r5
    8796:	4638      	mov	r0, r7
    8798:	f003 fa40 	bl	bc1c <__aeabi_atexit>
    879c:	4630      	mov	r0, r6
    879e:	2100      	movs	r1, #0
    87a0:	f002 f93c 	bl	aa1c <rtos::Semaphore::Semaphore(long)>
    87a4:	4630      	mov	r0, r6
    87a6:	4629      	mov	r1, r5
    87a8:	4622      	mov	r2, r4
    87aa:	e8bd 40f8 	ldmia.w	sp!, {r3, r4, r5, r6, r7, lr}
    87ae:	f003 ba35 	b.w	bc1c <__aeabi_atexit>
    87b2:	bf00      	nop
    87b4:	10000c48 	.word	0x10000c48
    87b8:	0000aa55 	.word	0x0000aa55
    87bc:	100000c8 	.word	0x100000c8
    87c0:	10000d00 	.word	0x10000d00
    87c4:	10000c58 	.word	0x10000c58

000087c8 <lpc_tx_reclaim_st>:
    87c8:	b5f8      	push	{r3, r4, r5, r6, r7, lr}
    87ca:	f100 07c4 	add.w	r7, r0, #196	; 0xc4
    87ce:	4604      	mov	r4, r0
    87d0:	4638      	mov	r0, r7
    87d2:	460d      	mov	r5, r1
    87d4:	2600      	movs	r6, #0
    87d6:	f7fc f9c1 	bl	4b5c <sys_mutex_lock>
    87da:	f8d4 30ac 	ldr.w	r3, [r4, #172]	; 0xac
    87de:	e019      	b.n	8814 <lpc_tx_reclaim_st+0x4c>
    87e0:	3326      	adds	r3, #38	; 0x26
    87e2:	f854 3023 	ldr.w	r3, [r4, r3, lsl #2]
    87e6:	4618      	mov	r0, r3
    87e8:	b133      	cbz	r3, 87f8 <lpc_tx_reclaim_st+0x30>
    87ea:	f7f8 ff97 	bl	171c <pbuf_free>
    87ee:	f8d4 30ac 	ldr.w	r3, [r4, #172]	; 0xac
    87f2:	3326      	adds	r3, #38	; 0x26
    87f4:	f844 6023 	str.w	r6, [r4, r3, lsl #2]
    87f8:	f8d4 00d8 	ldr.w	r0, [r4, #216]	; 0xd8
    87fc:	f001 f90a 	bl	9a14 <osSemaphoreRelease>
    8800:	f8d4 30ac 	ldr.w	r3, [r4, #172]	; 0xac
    8804:	3301      	adds	r3, #1
    8806:	2b04      	cmp	r3, #4
    8808:	f8c4 30ac 	str.w	r3, [r4, #172]	; 0xac
    880c:	bf84      	itt	hi
    880e:	f8c4 60ac 	strhi.w	r6, [r4, #172]	; 0xac
    8812:	2300      	movhi	r3, #0
    8814:	429d      	cmp	r5, r3
    8816:	d1e3      	bne.n	87e0 <lpc_tx_reclaim_st+0x18>
    8818:	4638      	mov	r0, r7
    881a:	e8bd 40f8 	ldmia.w	sp!, {r3, r4, r5, r6, r7, lr}
    881e:	f7fc b9ad 	b.w	4b7c <sys_mutex_unlock>
    8822:	bf00      	nop

00008824 <lpc_etharp_output>:
    8824:	f890 3039 	ldrb.w	r3, [r0, #57]	; 0x39
    8828:	06db      	lsls	r3, r3, #27
    882a:	d501      	bpl.n	8830 <lpc_etharp_output+0xc>
    882c:	f7fb bee4 	b.w	45f8 <etharp_output>
    8830:	f06f 000c 	mvn.w	r0, #12
    8834:	4770      	bx	lr
    8836:	bf00      	nop

00008838 <phy_update>:
    8838:	f000 bc1e 	b.w	9078 <lpc_phy_sts_sm>

0000883c <packet_tx>:
    883c:	e92d 4ff0 	stmdb	sp!, {r4, r5, r6, r7, r8, r9, r10, r11, lr}
    8840:	f100 021c 	add.w	r2, r0, #28
    8844:	b083      	sub	sp, #12
    8846:	f100 0344 	add.w	r3, r0, #68	; 0x44
    884a:	f8df 90a0 	ldr.w	r9, [pc, #160]	; 88ec <packet_tx+0xb0>
    884e:	4606      	mov	r6, r0
    8850:	2400      	movs	r4, #0
    8852:	f100 08b4 	add.w	r8, r0, #180	; 0xb4
    8856:	f100 07c4 	add.w	r7, r0, #196	; 0xc4
    885a:	9200      	str	r2, [sp, #0]
    885c:	9301      	str	r3, [sp, #4]
    885e:	f04f 45a0 	mov.w	r5, #1342177280	; 0x50000000
    8862:	4640      	mov	r0, r8
    8864:	2100      	movs	r1, #0
    8866:	f7fc f933 	bl	4ad0 <sys_arch_sem_wait>
    886a:	f8d5 3fe0 	ldr.w	r3, [r5, #4064]	; 0xfe0
    886e:	06db      	lsls	r3, r3, #27
    8870:	d533      	bpl.n	88da <packet_tx+0x9e>
    8872:	4638      	mov	r0, r7
    8874:	f7fc f972 	bl	4b5c <sys_mutex_lock>
    8878:	682a      	ldr	r2, [r5, #0]
    887a:	2310      	movs	r3, #16
    887c:	f442 7280 	orr.w	r2, r2, #256	; 0x100
    8880:	602a      	str	r2, [r5, #0]
    8882:	46b3      	mov	r11, r6
    8884:	f8c5 3fe8 	str.w	r3, [r5, #4072]	; 0xfe8
    8888:	f04f 0a05 	mov.w	r10, #5
    888c:	f8db 1098 	ldr.w	r1, [r11, #152]	; 0x98
    8890:	4608      	mov	r0, r1
    8892:	b119      	cbz	r1, 889c <packet_tx+0x60>
    8894:	f7f8 ff42 	bl	171c <pbuf_free>
    8898:	f8cb 4098 	str.w	r4, [r11, #152]	; 0x98
    889c:	f1ba 0a01 	subs.w	r10, r10, #1
    88a0:	f10b 0b04 	add.w	r11, r11, #4
    88a4:	d1f2      	bne.n	888c <packet_tx+0x50>
    88a6:	4638      	mov	r0, r7
    88a8:	f7fc f968 	bl	4b7c <sys_mutex_unlock>
    88ac:	4653      	mov	r3, r10
    88ae:	f04f 31ff 	mov.w	r1, #4294967295	; 0xffffffff
    88b2:	eb06 02c3 	add.w	r2, r6, r3, lsl #3
    88b6:	3301      	adds	r3, #1
    88b8:	2b05      	cmp	r3, #5
    88ba:	6214      	str	r4, [r2, #32]
    88bc:	6451      	str	r1, [r2, #68]	; 0x44
    88be:	d1f8      	bne.n	88b2 <packet_tx+0x76>
    88c0:	9a00      	ldr	r2, [sp, #0]
    88c2:	2304      	movs	r3, #4
    88c4:	f8c5 211c 	str.w	r2, [r5, #284]	; 0x11c
    88c8:	9a01      	ldr	r2, [sp, #4]
    88ca:	f8c5 2120 	str.w	r2, [r5, #288]	; 0x120
    88ce:	f8c5 3124 	str.w	r3, [r5, #292]	; 0x124
    88d2:	2300      	movs	r3, #0
    88d4:	f8c6 30ac 	str.w	r3, [r6, #172]	; 0xac
    88d8:	e7c3      	b.n	8862 <packet_tx+0x26>
    88da:	f8d9 3018 	ldr.w	r3, [r9, #24]
    88de:	f8d5 112c 	ldr.w	r1, [r5, #300]	; 0x12c
    88e2:	6a58      	ldr	r0, [r3, #36]	; 0x24
    88e4:	f7ff ff70 	bl	87c8 <lpc_tx_reclaim_st>
    88e8:	e7bb      	b.n	8862 <packet_tx+0x26>
    88ea:	bf00      	nop
    88ec:	20082c58 	.word	0x20082c58

000088f0 <lpc_low_level_output>:
    88f0:	e92d 43f8 	stmdb	sp!, {r3, r4, r5, r6, r7, r8, r9, lr}
    88f4:	6a46      	ldr	r6, [r0, #36]	; 0x24
    88f6:	4608      	mov	r0, r1
    88f8:	460f      	mov	r7, r1
    88fa:	f7f9 f803 	bl	1904 <pbuf_clen>
    88fe:	4605      	mov	r5, r0
    8900:	2f00      	cmp	r7, #0
    8902:	f000 8086 	beq.w	8a12 <lpc_low_level_output+0x122>
    8906:	463a      	mov	r2, r7
    8908:	2400      	movs	r4, #0
    890a:	f647 71fe 	movw	r1, #32766	; 0x7ffe
    890e:	ca0c      	ldmia	r2, {r2, r3}
    8910:	f103 4360 	add.w	r3, r3, #3758096384	; 0xe0000000
    8914:	f5a3 23f8 	sub.w	r3, r3, #507904	; 0x7c000
    8918:	428b      	cmp	r3, r1
    891a:	bf88      	it	hi
    891c:	3401      	addhi	r4, #1
    891e:	2a00      	cmp	r2, #0
    8920:	d1f5      	bne.n	890e <lpc_low_level_output+0x1e>
    8922:	46a0      	mov	r8, r4
    8924:	2c00      	cmp	r4, #0
    8926:	d156      	bne.n	89d6 <lpc_low_level_output+0xe6>
    8928:	f04f 44a0 	mov.w	r4, #1342177280	; 0x50000000
    892c:	e00f      	b.n	894e <lpc_low_level_output+0x5e>
    892e:	bf8b      	itete	hi
    8930:	f103 33ff 	addhi.w	r3, r3, #4294967295	; 0xffffffff
    8934:	3204      	addls	r2, #4
    8936:	ebc2 0303 	rsbhi	r3, r2, r3
    893a:	ebc3 0302 	rsbls	r3, r3, r2
    893e:	429d      	cmp	r5, r3
    8940:	f04f 31ff 	mov.w	r1, #4294967295	; 0xffffffff
    8944:	dd0e      	ble.n	8964 <lpc_low_level_output+0x74>
    8946:	f8d6 00d8 	ldr.w	r0, [r6, #216]	; 0xd8
    894a:	f001 f855 	bl	99f8 <osSemaphoreWait>
    894e:	f8d4 312c 	ldr.w	r3, [r4, #300]	; 0x12c
    8952:	f8d4 2128 	ldr.w	r2, [r4, #296]	; 0x128
    8956:	4293      	cmp	r3, r2
    8958:	d1e9      	bne.n	892e <lpc_low_level_output+0x3e>
    895a:	2305      	movs	r3, #5
    895c:	429d      	cmp	r5, r3
    895e:	f04f 31ff 	mov.w	r1, #4294967295	; 0xffffffff
    8962:	dcf0      	bgt.n	8946 <lpc_low_level_output+0x56>
    8964:	f106 09c4 	add.w	r9, r6, #196	; 0xc4
    8968:	f04f 43a0 	mov.w	r3, #1342177280	; 0x50000000
    896c:	4648      	mov	r0, r9
    896e:	f8d3 4128 	ldr.w	r4, [r3, #296]	; 0x128
    8972:	f7fc f8f3 	bl	4b5c <sys_mutex_lock>
    8976:	f1b8 0f00 	cmp.w	r8, #0
    897a:	d046      	beq.n	8a0a <lpc_low_level_output+0x11a>
    897c:	2d00      	cmp	r5, #0
    897e:	dd1f      	ble.n	89c0 <lpc_low_level_output+0xd0>
    8980:	463b      	mov	r3, r7
    8982:	f04f 0c00 	mov.w	r12, #0
    8986:	f8b3 e00a 	ldrh.w	lr, [r3, #10]
    898a:	3d01      	subs	r5, #1
    898c:	f104 0203 	add.w	r2, r4, #3
    8990:	f10e 3eff 	add.w	lr, lr, #4294967295	; 0xffffffff
    8994:	d03f      	beq.n	8a16 <lpc_low_level_output+0x126>
    8996:	f04e 4e00 	orr.w	lr, lr, #2147483648	; 0x80000000
    899a:	eb06 00c2 	add.w	r0, r6, r2, lsl #3
    899e:	f104 0126 	add.w	r1, r4, #38	; 0x26
    89a2:	f8c0 e008 	str.w	lr, [r0, #8]
    89a6:	f846 c021 	str.w	r12, [r6, r1, lsl #2]
    89aa:	3401      	adds	r4, #1
    89ac:	6859      	ldr	r1, [r3, #4]
    89ae:	2c05      	cmp	r4, #5
    89b0:	eb06 02c2 	add.w	r2, r6, r2, lsl #3
    89b4:	bf28      	it	cs
    89b6:	2400      	movcs	r4, #0
    89b8:	6051      	str	r1, [r2, #4]
    89ba:	681b      	ldr	r3, [r3, #0]
    89bc:	2d00      	cmp	r5, #0
    89be:	d1e2      	bne.n	8986 <lpc_low_level_output+0x96>
    89c0:	f04f 43a0 	mov.w	r3, #1342177280	; 0x50000000
    89c4:	4648      	mov	r0, r9
    89c6:	f8c3 4128 	str.w	r4, [r3, #296]	; 0x128
    89ca:	f7fc f8d7 	bl	4b7c <sys_mutex_unlock>
    89ce:	2000      	movs	r0, #0
    89d0:	b240      	sxtb	r0, r0
    89d2:	e8bd 83f8 	ldmia.w	sp!, {r3, r4, r5, r6, r7, r8, r9, pc}
    89d6:	2003      	movs	r0, #3
    89d8:	8939      	ldrh	r1, [r7, #8]
    89da:	f7f8 fed5 	bl	1788 <pbuf_alloc>
    89de:	4681      	mov	r9, r0
    89e0:	b320      	cbz	r0, 8a2c <lpc_low_level_output+0x13c>
    89e2:	f8d0 8004 	ldr.w	r8, [r0, #4]
    89e6:	463d      	mov	r5, r7
    89e8:	4640      	mov	r0, r8
    89ea:	6869      	ldr	r1, [r5, #4]
    89ec:	896a      	ldrh	r2, [r5, #10]
    89ee:	f7fb ffab 	bl	4948 <thumb2_memcpy>
    89f2:	896b      	ldrh	r3, [r5, #10]
    89f4:	682d      	ldr	r5, [r5, #0]
    89f6:	4498      	add	r8, r3
    89f8:	2d00      	cmp	r5, #0
    89fa:	d1f5      	bne.n	89e8 <lpc_low_level_output+0xf8>
    89fc:	893b      	ldrh	r3, [r7, #8]
    89fe:	46a0      	mov	r8, r4
    8a00:	f8a9 300a 	strh.w	r3, [r9, #10]
    8a04:	464f      	mov	r7, r9
    8a06:	2501      	movs	r5, #1
    8a08:	e78e      	b.n	8928 <lpc_low_level_output+0x38>
    8a0a:	4638      	mov	r0, r7
    8a0c:	f7f8 ff84 	bl	1918 <pbuf_ref>
    8a10:	e7b4      	b.n	897c <lpc_low_level_output+0x8c>
    8a12:	46b8      	mov	r8, r7
    8a14:	e788      	b.n	8928 <lpc_low_level_output+0x38>
    8a16:	f04e 4e40 	orr.w	lr, lr, #3221225472	; 0xc0000000
    8a1a:	eb06 00c2 	add.w	r0, r6, r2, lsl #3
    8a1e:	f104 0126 	add.w	r1, r4, #38	; 0x26
    8a22:	f8c0 e008 	str.w	lr, [r0, #8]
    8a26:	f846 7021 	str.w	r7, [r6, r1, lsl #2]
    8a2a:	e7be      	b.n	89aa <lpc_low_level_output+0xba>
    8a2c:	20ff      	movs	r0, #255	; 0xff
    8a2e:	e7cf      	b.n	89d0 <lpc_low_level_output+0xe0>

00008a30 <lpc_rx_queue>:
    8a30:	b5f8      	push	{r3, r4, r5, r6, r7, lr}
    8a32:	6a44      	ldr	r4, [r0, #36]	; 0x24
    8a34:	f8d4 6094 	ldr.w	r6, [r4, #148]	; 0x94
    8a38:	b386      	cbz	r6, 8a9c <lpc_rx_queue+0x6c>
    8a3a:	2600      	movs	r6, #0
    8a3c:	e022      	b.n	8a84 <lpc_rx_queue+0x54>
    8a3e:	8943      	ldrh	r3, [r0, #10]
    8a40:	f8d4 2090 	ldr.w	r2, [r4, #144]	; 0x90
    8a44:	442b      	add	r3, r5
    8a46:	eb04 01c2 	add.w	r1, r4, r2, lsl #3
    8a4a:	f043 4300 	orr.w	r3, r3, #2147483648	; 0x80000000
    8a4e:	670b      	str	r3, [r1, #112]	; 0x70
    8a50:	6847      	ldr	r7, [r0, #4]
    8a52:	1c53      	adds	r3, r2, #1
    8a54:	66cf      	str	r7, [r1, #108]	; 0x6c
    8a56:	f844 5032 	str.w	r5, [r4, r2, lsl #3]
    8a5a:	604d      	str	r5, [r1, #4]
    8a5c:	f8d4 1094 	ldr.w	r1, [r4, #148]	; 0x94
    8a60:	2b03      	cmp	r3, #3
    8a62:	bf28      	it	cs
    8a64:	2300      	movcs	r3, #0
    8a66:	4429      	add	r1, r5
    8a68:	eb04 0282 	add.w	r2, r4, r2, lsl #2
    8a6c:	f8c2 0084 	str.w	r0, [r2, #132]	; 0x84
    8a70:	f8c4 1094 	str.w	r1, [r4, #148]	; 0x94
    8a74:	f8c4 3090 	str.w	r3, [r4, #144]	; 0x90
    8a78:	f8cc 3118 	str.w	r3, [r12, #280]	; 0x118
    8a7c:	f8d4 3094 	ldr.w	r3, [r4, #148]	; 0x94
    8a80:	3601      	adds	r6, #1
    8a82:	b15b      	cbz	r3, 8a9c <lpc_rx_queue+0x6c>
    8a84:	2003      	movs	r0, #3
    8a86:	f44f 61c0 	mov.w	r1, #1536	; 0x600
    8a8a:	2200      	movs	r2, #0
    8a8c:	f7f8 fe7c 	bl	1788 <pbuf_alloc>
    8a90:	f04f 35ff 	mov.w	r5, #4294967295	; 0xffffffff
    8a94:	f04f 4ca0 	mov.w	r12, #1342177280	; 0x50000000
    8a98:	2800      	cmp	r0, #0
    8a9a:	d1d0      	bne.n	8a3e <lpc_rx_queue+0xe>
    8a9c:	4630      	mov	r0, r6
    8a9e:	bdf8      	pop	{r3, r4, r5, r6, r7, pc}

00008aa0 <lpc_enetif_input>:
    8aa0:	e92d 43f8 	stmdb	sp!, {r3, r4, r5, r6, r7, r8, r9, lr}
    8aa4:	f04f 45a0 	mov.w	r5, #1342177280	; 0x50000000
    8aa8:	f8d5 3fe0 	ldr.w	r3, [r5, #4064]	; 0xfe0
    8aac:	4606      	mov	r6, r0
    8aae:	6a44      	ldr	r4, [r0, #36]	; 0x24
    8ab0:	f013 0001 	ands.w	r0, r3, #1
    8ab4:	d16c      	bne.n	8b90 <lpc_enetif_input+0xf0>
    8ab6:	f8d5 3118 	ldr.w	r3, [r5, #280]	; 0x118
    8aba:	f8d5 2114 	ldr.w	r2, [r5, #276]	; 0x114
    8abe:	4293      	cmp	r3, r2
    8ac0:	d037      	beq.n	8b32 <lpc_enetif_input+0x92>
    8ac2:	f854 2033 	ldr.w	r2, [r4, r3, lsl #3]
    8ac6:	f012 6238 	ands.w	r2, r2, #192937984	; 0xb800000
    8aca:	d034      	beq.n	8b36 <lpc_enetif_input+0x96>
    8acc:	f8d4 2094 	ldr.w	r2, [r4, #148]	; 0x94
    8ad0:	eb04 0383 	add.w	r3, r4, r3, lsl #2
    8ad4:	3201      	adds	r2, #1
    8ad6:	f8c4 2094 	str.w	r2, [r4, #148]	; 0x94
    8ada:	f8d3 1084 	ldr.w	r1, [r3, #132]	; 0x84
    8ade:	f8c3 0084 	str.w	r0, [r3, #132]	; 0x84
    8ae2:	8948      	ldrh	r0, [r1, #10]
    8ae4:	f8d4 2090 	ldr.w	r2, [r4, #144]	; 0x90
    8ae8:	3801      	subs	r0, #1
    8aea:	eb04 03c2 	add.w	r3, r4, r2, lsl #3
    8aee:	f040 4000 	orr.w	r0, r0, #2147483648	; 0x80000000
    8af2:	6718      	str	r0, [r3, #112]	; 0x70
    8af4:	684e      	ldr	r6, [r1, #4]
    8af6:	f04f 30ff 	mov.w	r0, #4294967295	; 0xffffffff
    8afa:	66de      	str	r6, [r3, #108]	; 0x6c
    8afc:	f844 0032 	str.w	r0, [r4, r2, lsl #3]
    8b00:	6058      	str	r0, [r3, #4]
    8b02:	f8d4 0094 	ldr.w	r0, [r4, #148]	; 0x94
    8b06:	1c53      	adds	r3, r2, #1
    8b08:	2b03      	cmp	r3, #3
    8b0a:	bf28      	it	cs
    8b0c:	2300      	movcs	r3, #0
    8b0e:	eb04 0282 	add.w	r2, r4, r2, lsl #2
    8b12:	3801      	subs	r0, #1
    8b14:	f8c2 1084 	str.w	r1, [r2, #132]	; 0x84
    8b18:	f8c4 3090 	str.w	r3, [r4, #144]	; 0x90
    8b1c:	f8c4 0094 	str.w	r0, [r4, #148]	; 0x94
    8b20:	f8c5 3118 	str.w	r3, [r5, #280]	; 0x118
    8b24:	e8bd 83f8 	ldmia.w	sp!, {r3, r4, r5, r6, r7, r8, r9, pc}
    8b28:	6933      	ldr	r3, [r6, #16]
    8b2a:	4631      	mov	r1, r6
    8b2c:	4638      	mov	r0, r7
    8b2e:	4798      	blx	r3
    8b30:	bb48      	cbnz	r0, 8b86 <lpc_enetif_input+0xe6>
    8b32:	e8bd 83f8 	ldmia.w	sp!, {r3, r4, r5, r6, r7, r8, r9, pc}
    8b36:	f854 1033 	ldr.w	r1, [r4, r3, lsl #3]
    8b3a:	eb04 0383 	add.w	r3, r4, r3, lsl #2
    8b3e:	f8d3 7084 	ldr.w	r7, [r3, #132]	; 0x84
    8b42:	f3c1 080a 	ubfx	r8, r1, #0, #11
    8b46:	f108 0801 	add.w	r8, r8, #1
    8b4a:	f8b7 900a 	ldrh.w	r9, [r7, #10]
    8b4e:	f8a7 800a 	strh.w	r8, [r7, #10]
    8b52:	f8c3 2084 	str.w	r2, [r3, #132]	; 0x84
    8b56:	f8d4 3094 	ldr.w	r3, [r4, #148]	; 0x94
    8b5a:	69a0      	ldr	r0, [r4, #24]
    8b5c:	3301      	adds	r3, #1
    8b5e:	f8c4 3094 	str.w	r3, [r4, #148]	; 0x94
    8b62:	f7ff ff65 	bl	8a30 <lpc_rx_queue>
    8b66:	2800      	cmp	r0, #0
    8b68:	d045      	beq.n	8bf6 <lpc_enetif_input+0x156>
    8b6a:	f8a7 8008 	strh.w	r8, [r7, #8]
    8b6e:	2f00      	cmp	r7, #0
    8b70:	d0df      	beq.n	8b32 <lpc_enetif_input+0x92>
    8b72:	687b      	ldr	r3, [r7, #4]
    8b74:	899b      	ldrh	r3, [r3, #12]
    8b76:	ba5b      	rev16	r3, r3
    8b78:	f5b3 6f00 	cmp.w	r3, #2048	; 0x800
    8b7c:	d0d4      	beq.n	8b28 <lpc_enetif_input+0x88>
    8b7e:	f640 0206 	movw	r2, #2054	; 0x806
    8b82:	4293      	cmp	r3, r2
    8b84:	d0d0      	beq.n	8b28 <lpc_enetif_input+0x88>
    8b86:	4638      	mov	r0, r7
    8b88:	e8bd 43f8 	ldmia.w	sp!, {r3, r4, r5, r6, r7, r8, r9, lr}
    8b8c:	f7f8 bdc6 	b.w	171c <pbuf_free>
    8b90:	682a      	ldr	r2, [r5, #0]
    8b92:	2301      	movs	r3, #1
    8b94:	f022 0201 	bic.w	r2, r2, #1
    8b98:	602a      	str	r2, [r5, #0]
    8b9a:	682a      	ldr	r2, [r5, #0]
    8b9c:	4626      	mov	r6, r4
    8b9e:	f442 6280 	orr.w	r2, r2, #1024	; 0x400
    8ba2:	602a      	str	r2, [r5, #0]
    8ba4:	2703      	movs	r7, #3
    8ba6:	f8c5 3fe8 	str.w	r3, [r5, #4072]	; 0xfe8
    8baa:	2500      	movs	r5, #0
    8bac:	f8d6 3084 	ldr.w	r3, [r6, #132]	; 0x84
    8bb0:	4618      	mov	r0, r3
    8bb2:	b11b      	cbz	r3, 8bbc <lpc_enetif_input+0x11c>
    8bb4:	f7f8 fdb2 	bl	171c <pbuf_free>
    8bb8:	f8c6 5084 	str.w	r5, [r6, #132]	; 0x84
    8bbc:	3f01      	subs	r7, #1
    8bbe:	f106 0604 	add.w	r6, r6, #4
    8bc2:	d1f3      	bne.n	8bac <lpc_enetif_input+0x10c>
    8bc4:	f04f 45a0 	mov.w	r5, #1342177280	; 0x50000000
    8bc8:	2303      	movs	r3, #3
    8bca:	f104 016c 	add.w	r1, r4, #108	; 0x6c
    8bce:	2202      	movs	r2, #2
    8bd0:	f8c5 1108 	str.w	r1, [r5, #264]	; 0x108
    8bd4:	69a0      	ldr	r0, [r4, #24]
    8bd6:	f8c5 410c 	str.w	r4, [r5, #268]	; 0x10c
    8bda:	f8c5 2110 	str.w	r2, [r5, #272]	; 0x110
    8bde:	f8c4 3094 	str.w	r3, [r4, #148]	; 0x94
    8be2:	f8c4 7090 	str.w	r7, [r4, #144]	; 0x90
    8be6:	f7ff ff23 	bl	8a30 <lpc_rx_queue>
    8bea:	682b      	ldr	r3, [r5, #0]
    8bec:	f043 0301 	orr.w	r3, r3, #1
    8bf0:	602b      	str	r3, [r5, #0]
    8bf2:	e8bd 83f8 	ldmia.w	sp!, {r3, r4, r5, r6, r7, r8, r9, pc}
    8bf6:	f8d4 2090 	ldr.w	r2, [r4, #144]	; 0x90
    8bfa:	f109 31ff 	add.w	r1, r9, #4294967295	; 0xffffffff
    8bfe:	eb04 03c2 	add.w	r3, r4, r2, lsl #3
    8c02:	f041 4100 	orr.w	r1, r1, #2147483648	; 0x80000000
    8c06:	f8a7 900a 	strh.w	r9, [r7, #10]
    8c0a:	6719      	str	r1, [r3, #112]	; 0x70
    8c0c:	6878      	ldr	r0, [r7, #4]
    8c0e:	f04f 31ff 	mov.w	r1, #4294967295	; 0xffffffff
    8c12:	66d8      	str	r0, [r3, #108]	; 0x6c
    8c14:	f844 1032 	str.w	r1, [r4, r2, lsl #3]
    8c18:	6059      	str	r1, [r3, #4]
    8c1a:	f8d4 1094 	ldr.w	r1, [r4, #148]	; 0x94
    8c1e:	1c53      	adds	r3, r2, #1
    8c20:	2b03      	cmp	r3, #3
    8c22:	bf28      	it	cs
    8c24:	2300      	movcs	r3, #0
    8c26:	3901      	subs	r1, #1
    8c28:	eb04 0282 	add.w	r2, r4, r2, lsl #2
    8c2c:	f8c2 7084 	str.w	r7, [r2, #132]	; 0x84
    8c30:	f8c4 1094 	str.w	r1, [r4, #148]	; 0x94
    8c34:	f8c4 3090 	str.w	r3, [r4, #144]	; 0x90
    8c38:	f8c5 3118 	str.w	r3, [r5, #280]	; 0x118
    8c3c:	e8bd 83f8 	ldmia.w	sp!, {r3, r4, r5, r6, r7, r8, r9, pc}

00008c40 <packet_rx>:
    8c40:	b530      	push	{r4, r5, lr}
    8c42:	4605      	mov	r5, r0
    8c44:	b085      	sub	sp, #20
    8c46:	f04f 44a0 	mov.w	r4, #1342177280	; 0x50000000
    8c4a:	f04f 32ff 	mov.w	r2, #4294967295	; 0xffffffff
    8c4e:	4668      	mov	r0, sp
    8c50:	2101      	movs	r1, #1
    8c52:	f000 fdbb 	bl	97cc <osSignalWait>
    8c56:	f8d4 2118 	ldr.w	r2, [r4, #280]	; 0x118
    8c5a:	f8d4 3114 	ldr.w	r3, [r4, #276]	; 0x114
    8c5e:	429a      	cmp	r2, r3
    8c60:	d0f3      	beq.n	8c4a <packet_rx+0xa>
    8c62:	69a8      	ldr	r0, [r5, #24]
    8c64:	f7ff ff1c 	bl	8aa0 <lpc_enetif_input>
    8c68:	f8d4 2118 	ldr.w	r2, [r4, #280]	; 0x118
    8c6c:	f8d4 3114 	ldr.w	r3, [r4, #276]	; 0x114
    8c70:	429a      	cmp	r2, r3
    8c72:	d1f6      	bne.n	8c62 <packet_rx+0x22>
    8c74:	e7e9      	b.n	8c4a <packet_rx+0xa>
    8c76:	bf00      	nop

00008c78 <ENET_IRQHandler>:
    8c78:	f04f 43a0 	mov.w	r3, #1342177280	; 0x50000000
    8c7c:	b510      	push	{r4, lr}
    8c7e:	f8d3 4fe0 	ldr.w	r4, [r3, #4064]	; 0xfe0
    8c82:	f014 0f0b 	tst.w	r4, #11
    8c86:	d10a      	bne.n	8c9e <ENET_IRQHandler+0x26>
    8c88:	f014 0fb0 	tst.w	r4, #176	; 0xb0
    8c8c:	d002      	beq.n	8c94 <ENET_IRQHandler+0x1c>
    8c8e:	4808      	ldr	r0, [pc, #32]	; (8cb0 <ENET_IRQHandler+0x38>)
    8c90:	f7fb ff3c 	bl	4b0c <sys_sem_signal>
    8c94:	f04f 43a0 	mov.w	r3, #1342177280	; 0x50000000
    8c98:	f8c3 4fe8 	str.w	r4, [r3, #4072]	; 0xfe8
    8c9c:	bd10      	pop	{r4, pc}
    8c9e:	4b05      	ldr	r3, [pc, #20]	; (8cb4 <ENET_IRQHandler+0x3c>)
    8ca0:	2101      	movs	r1, #1
    8ca2:	f8d3 30b0 	ldr.w	r3, [r3, #176]	; 0xb0
    8ca6:	6818      	ldr	r0, [r3, #0]
    8ca8:	f000 fd72 	bl	9790 <osSignalSet>
    8cac:	e7ec      	b.n	8c88 <ENET_IRQHandler+0x10>
    8cae:	bf00      	nop
    8cb0:	20082d0c 	.word	0x20082d0c
    8cb4:	20082c58 	.word	0x20082c58

00008cb8 <lpc_emac_set_duplex>:
    8cb8:	f04f 43a0 	mov.w	r3, #1342177280	; 0x50000000
    8cbc:	6859      	ldr	r1, [r3, #4]
    8cbe:	b958      	cbnz	r0, 8cd8 <lpc_emac_set_duplex+0x20>
    8cc0:	f021 0101 	bic.w	r1, r1, #1
    8cc4:	6059      	str	r1, [r3, #4]
    8cc6:	f8d3 1100 	ldr.w	r1, [r3, #256]	; 0x100
    8cca:	2212      	movs	r2, #18
    8ccc:	f421 6180 	bic.w	r1, r1, #1024	; 0x400
    8cd0:	f8c3 1100 	str.w	r1, [r3, #256]	; 0x100
    8cd4:	609a      	str	r2, [r3, #8]
    8cd6:	4770      	bx	lr
    8cd8:	f041 0101 	orr.w	r1, r1, #1
    8cdc:	6059      	str	r1, [r3, #4]
    8cde:	f8d3 1100 	ldr.w	r1, [r3, #256]	; 0x100
    8ce2:	2215      	movs	r2, #21
    8ce4:	f441 6180 	orr.w	r1, r1, #1024	; 0x400
    8ce8:	f8c3 1100 	str.w	r1, [r3, #256]	; 0x100
    8cec:	609a      	str	r2, [r3, #8]
    8cee:	4770      	bx	lr

00008cf0 <lpc_emac_set_speed>:
    8cf0:	f04f 43a0 	mov.w	r3, #1342177280	; 0x50000000
    8cf4:	b908      	cbnz	r0, 8cfa <lpc_emac_set_speed+0xa>
    8cf6:	6198      	str	r0, [r3, #24]
    8cf8:	4770      	bx	lr
    8cfa:	f44f 7280 	mov.w	r2, #256	; 0x100
    8cfe:	619a      	str	r2, [r3, #24]
    8d00:	4770      	bx	lr
    8d02:	bf00      	nop

00008d04 <eth_arch_enetif_init>:
    8d04:	e92d 4ff0 	stmdb	sp!, {r4, r5, r6, r7, r8, r9, r10, r11, lr}
    8d08:	4f79      	ldr	r7, [pc, #484]	; (8ef0 <eth_arch_enetif_init+0x1ec>)
    8d0a:	4605      	mov	r5, r0
    8d0c:	b083      	sub	sp, #12
    8d0e:	3033      	adds	r0, #51	; 0x33
    8d10:	61bd      	str	r5, [r7, #24]
    8d12:	f002 f961 	bl	afd8 <mbed_mac_address>
    8d16:	4a77      	ldr	r2, [pc, #476]	; (8ef4 <eth_arch_enetif_init+0x1f0>)
    8d18:	2106      	movs	r1, #6
    8d1a:	23e2      	movs	r3, #226	; 0xe2
    8d1c:	f885 1032 	strb.w	r1, [r5, #50]	; 0x32
    8d20:	f885 3039 	strb.w	r3, [r5, #57]	; 0x39
    8d24:	f8d2 00c4 	ldr.w	r0, [r2, #196]	; 0xc4
    8d28:	4b73      	ldr	r3, [pc, #460]	; (8ef8 <eth_arch_enetif_init+0x1f4>)
    8d2a:	4974      	ldr	r1, [pc, #464]	; (8efc <eth_arch_enetif_init+0x1f8>)
    8d2c:	f040 4080 	orr.w	r0, r0, #1073741824	; 0x40000000
    8d30:	f240 54dc 	movw	r4, #1500	; 0x5dc
    8d34:	626f      	str	r7, [r5, #36]	; 0x24
    8d36:	862c      	strh	r4, [r5, #48]	; 0x30
    8d38:	f8c2 00c4 	str.w	r0, [r2, #196]	; 0xc4
    8d3c:	6099      	str	r1, [r3, #8]
    8d3e:	68d8      	ldr	r0, [r3, #12]
    8d40:	f04f 46a0 	mov.w	r6, #1342177280	; 0x50000000
    8d44:	f020 000f 	bic.w	r0, r0, #15
    8d48:	f44f 414f 	mov.w	r1, #52992	; 0xcf00
    8d4c:	2278      	movs	r2, #120	; 0x78
    8d4e:	f040 0005 	orr.w	r0, r0, #5
    8d52:	60d8      	str	r0, [r3, #12]
    8d54:	6031      	str	r1, [r6, #0]
    8d56:	200a      	movs	r0, #10
    8d58:	f8c6 2100 	str.w	r2, [r6, #256]	; 0x100
    8d5c:	f000 fbe2 	bl	9524 <osDelay>
    8d60:	2002      	movs	r0, #2
    8d62:	2170      	movs	r1, #112	; 0x70
    8d64:	f44f 62c0 	mov.w	r2, #1536	; 0x600
    8d68:	f248 032c 	movw	r3, #32812	; 0x802c
    8d6c:	6030      	str	r0, [r6, #0]
    8d6e:	6071      	str	r1, [r6, #4]
    8d70:	6172      	str	r2, [r6, #20]
    8d72:	6233      	str	r3, [r6, #32]
    8d74:	6a30      	ldr	r0, [r6, #32]
    8d76:	f243 710f 	movw	r1, #14095	; 0x370f
    8d7a:	f420 4000 	bic.w	r0, r0, #32768	; 0x8000
    8d7e:	f640 4212 	movw	r2, #3090	; 0xc12
    8d82:	f44f 7310 	mov.w	r3, #576	; 0x240
    8d86:	6230      	str	r0, [r6, #32]
    8d88:	6131      	str	r1, [r6, #16]
    8d8a:	4628      	mov	r0, r5
    8d8c:	60f2      	str	r2, [r6, #12]
    8d8e:	2101      	movs	r1, #1
    8d90:	f8c6 3100 	str.w	r3, [r6, #256]	; 0x100
    8d94:	f000 f912 	bl	8fbc <lpc_phy_init>
    8d98:	2800      	cmp	r0, #0
    8d9a:	f040 80a4 	bne.w	8ee6 <eth_arch_enetif_init+0x1e2>
    8d9e:	f895 2034 	ldrb.w	r2, [r5, #52]	; 0x34
    8da2:	f895 3033 	ldrb.w	r3, [r5, #51]	; 0x33
    8da6:	4604      	mov	r4, r0
    8da8:	ea43 2302 	orr.w	r3, r3, r2, lsl #8
    8dac:	64b3      	str	r3, [r6, #72]	; 0x48
    8dae:	f895 2036 	ldrb.w	r2, [r5, #54]	; 0x36
    8db2:	f895 3035 	ldrb.w	r3, [r5, #53]	; 0x35
    8db6:	f04f 31ff 	mov.w	r1, #4294967295	; 0xffffffff
    8dba:	ea43 2302 	orr.w	r3, r3, r2, lsl #8
    8dbe:	6473      	str	r3, [r6, #68]	; 0x44
    8dc0:	f895 2038 	ldrb.w	r2, [r5, #56]	; 0x38
    8dc4:	f895 3037 	ldrb.w	r3, [r5, #55]	; 0x37
    8dc8:	ea43 2302 	orr.w	r3, r3, r2, lsl #8
    8dcc:	6433      	str	r3, [r6, #64]	; 0x40
    8dce:	1ce2      	adds	r2, r4, #3
    8dd0:	f104 0308 	add.w	r3, r4, #8
    8dd4:	3401      	adds	r4, #1
    8dd6:	eb07 02c2 	add.w	r2, r7, r2, lsl #3
    8dda:	eb07 03c3 	add.w	r3, r7, r3, lsl #3
    8dde:	2c05      	cmp	r4, #5
    8de0:	6090      	str	r0, [r2, #8]
    8de2:	4e43      	ldr	r6, [pc, #268]	; (8ef0 <eth_arch_enetif_init+0x1ec>)
    8de4:	6059      	str	r1, [r3, #4]
    8de6:	f04f 0800 	mov.w	r8, #0
    8dea:	d1f0      	bne.n	8dce <eth_arch_enetif_init+0xca>
    8dec:	f04f 47a0 	mov.w	r7, #1342177280	; 0x50000000
    8df0:	f04f 0e04 	mov.w	lr, #4
    8df4:	f106 016c 	add.w	r1, r6, #108	; 0x6c
    8df8:	2202      	movs	r2, #2
    8dfa:	f106 031c 	add.w	r3, r6, #28
    8dfe:	f106 0044 	add.w	r0, r6, #68	; 0x44
    8e02:	f8c7 311c 	str.w	r3, [r7, #284]	; 0x11c
    8e06:	f8c7 0120 	str.w	r0, [r7, #288]	; 0x120
    8e0a:	2303      	movs	r3, #3
    8e0c:	69b0      	ldr	r0, [r6, #24]
    8e0e:	f8c7 e124 	str.w	lr, [r7, #292]	; 0x124
    8e12:	f8c7 1108 	str.w	r1, [r7, #264]	; 0x108
    8e16:	f8c7 610c 	str.w	r6, [r7, #268]	; 0x10c
    8e1a:	f8c7 2110 	str.w	r2, [r7, #272]	; 0x110
    8e1e:	f8c6 3094 	str.w	r3, [r6, #148]	; 0x94
    8e22:	f8c6 80ac 	str.w	r8, [r6, #172]	; 0xac
    8e26:	f8c6 8090 	str.w	r8, [r6, #144]	; 0x90
    8e2a:	f7ff fe01 	bl	8a30 <lpc_rx_queue>
    8e2e:	2126      	movs	r1, #38	; 0x26
    8e30:	f64f 72ff 	movw	r2, #65535	; 0xffff
    8e34:	23bb      	movs	r3, #187	; 0xbb
    8e36:	f8c7 1200 	str.w	r1, [r7, #512]	; 0x200
    8e3a:	f8c7 2fe8 	str.w	r2, [r7, #4072]	; 0xfe8
    8e3e:	f8c7 3fe4 	str.w	r3, [r7, #4068]	; 0xfe4
    8e42:	f8d7 3100 	ldr.w	r3, [r7, #256]	; 0x100
    8e46:	f8df c0cc 	ldr.w	r12, [pc, #204]	; 8f14 <eth_arch_enetif_init+0x210>
    8e4a:	f043 0303 	orr.w	r3, r3, #3
    8e4e:	f8c7 3100 	str.w	r3, [r7, #256]	; 0x100
    8e52:	683b      	ldr	r3, [r7, #0]
    8e54:	f8df a0c0 	ldr.w	r10, [pc, #192]	; 8f18 <eth_arch_enetif_init+0x214>
    8e58:	f8df 90c0 	ldr.w	r9, [pc, #192]	; 8f1c <eth_arch_enetif_init+0x218>
    8e5c:	f04f 0e65 	mov.w	lr, #101	; 0x65
    8e60:	226e      	movs	r2, #110	; 0x6e
    8e62:	f043 0b01 	orr.w	r11, r3, #1
    8e66:	4630      	mov	r0, r6
    8e68:	f106 03e0 	add.w	r3, r6, #224	; 0xe0
    8e6c:	f8c7 b000 	str.w	r11, [r7]
    8e70:	4621      	mov	r1, r4
    8e72:	f8c5 c018 	str.w	r12, [r5, #24]
    8e76:	f885 e03a 	strb.w	lr, [r5, #58]	; 0x3a
    8e7a:	f885 203b 	strb.w	r2, [r5, #59]	; 0x3b
    8e7e:	f8c5 a02c 	str.w	r10, [r5, #44]	; 0x2c
    8e82:	f8c5 9014 	str.w	r9, [r5, #20]
    8e86:	f840 3fdc 	str.w	r3, [r0, #220]!
    8e8a:	f8c6 80e0 	str.w	r8, [r6, #224]	; 0xe0
    8e8e:	f8c6 80e4 	str.w	r8, [r6, #228]	; 0xe4
    8e92:	f000 fd97 	bl	99c4 <osSemaphoreCreate>
    8e96:	f8c6 00d8 	str.w	r0, [r6, #216]	; 0xd8
    8e9a:	f106 00c4 	add.w	r0, r6, #196	; 0xc4
    8e9e:	f7fb fe41 	bl	4b24 <sys_mutex_new>
    8ea2:	6a6a      	ldr	r2, [r5, #36]	; 0x24
    8ea4:	f44f 7300 	mov.w	r3, #512	; 0x200
    8ea8:	4915      	ldr	r1, [pc, #84]	; (8f00 <eth_arch_enetif_init+0x1fc>)
    8eaa:	f8cd 8000 	str.w	r8, [sp]
    8eae:	4815      	ldr	r0, [pc, #84]	; (8f04 <eth_arch_enetif_init+0x200>)
    8eb0:	f7fb feaa 	bl	4c08 <sys_thread_new>
    8eb4:	4641      	mov	r1, r8
    8eb6:	f8c6 00b0 	str.w	r0, [r6, #176]	; 0xb0
    8eba:	f106 00b4 	add.w	r0, r6, #180	; 0xb4
    8ebe:	f7fb fdeb 	bl	4a98 <sys_sem_new>
    8ec2:	6a6a      	ldr	r2, [r5, #36]	; 0x24
    8ec4:	f44f 7300 	mov.w	r3, #512	; 0x200
    8ec8:	490f      	ldr	r1, [pc, #60]	; (8f08 <eth_arch_enetif_init+0x204>)
    8eca:	f8cd 8000 	str.w	r8, [sp]
    8ece:	480f      	ldr	r0, [pc, #60]	; (8f0c <eth_arch_enetif_init+0x208>)
    8ed0:	f7fb fe9a 	bl	4c08 <sys_thread_new>
    8ed4:	462a      	mov	r2, r5
    8ed6:	2101      	movs	r1, #1
    8ed8:	480d      	ldr	r0, [pc, #52]	; (8f10 <eth_arch_enetif_init+0x20c>)
    8eda:	f000 fbc7 	bl	966c <osTimerCreate>
    8ede:	21fa      	movs	r1, #250	; 0xfa
    8ee0:	f000 fbde 	bl	96a0 <osTimerStart>
    8ee4:	4640      	mov	r0, r8
    8ee6:	b240      	sxtb	r0, r0
    8ee8:	b003      	add	sp, #12
    8eea:	e8bd 8ff0 	ldmia.w	sp!, {r4, r5, r6, r7, r8, r9, r10, r11, pc}
    8eee:	bf00      	nop
    8ef0:	20082c58 	.word	0x20082c58
    8ef4:	400fc000 	.word	0x400fc000
    8ef8:	4002c000 	.word	0x4002c000
    8efc:	50150105 	.word	0x50150105
    8f00:	00008c41 	.word	0x00008c41
    8f04:	0000dbc8 	.word	0x0000dbc8
    8f08:	0000883d 	.word	0x0000883d
    8f0c:	0000dbd8 	.word	0x0000dbd8
    8f10:	100000dc 	.word	0x100000dc
    8f14:	000088f1 	.word	0x000088f1
    8f18:	0000dbc0 	.word	0x0000dbc0
    8f1c:	00008825 	.word	0x00008825

00008f20 <eth_arch_enable_interrupts>:
    8f20:	4b03      	ldr	r3, [pc, #12]	; (8f30 <eth_arch_enable_interrupts+0x10>)
    8f22:	2148      	movs	r1, #72	; 0x48
    8f24:	f04f 5280 	mov.w	r2, #268435456	; 0x10000000
    8f28:	f883 131c 	strb.w	r1, [r3, #796]	; 0x31c
    8f2c:	601a      	str	r2, [r3, #0]
    8f2e:	4770      	bx	lr
    8f30:	e000e100 	.word	0xe000e100

00008f34 <eth_arch_disable_interrupts>:
    8f34:	4b02      	ldr	r3, [pc, #8]	; (8f40 <eth_arch_disable_interrupts+0xc>)
    8f36:	f04f 5280 	mov.w	r2, #268435456	; 0x10000000
    8f3a:	f8c3 2080 	str.w	r2, [r3, #128]	; 0x80
    8f3e:	4770      	bx	lr
    8f40:	e000e100 	.word	0xe000e100

00008f44 <lpc_mii_write>:
    8f44:	f04f 43a0 	mov.w	r3, #1342177280	; 0x50000000
    8f48:	f440 7080 	orr.w	r0, r0, #256	; 0x100
    8f4c:	b570      	push	{r4, r5, r6, lr}
    8f4e:	6298      	str	r0, [r3, #40]	; 0x28
    8f50:	461d      	mov	r5, r3
    8f52:	62d9      	str	r1, [r3, #44]	; 0x2c
    8f54:	26fa      	movs	r6, #250	; 0xfa
    8f56:	6b6c      	ldr	r4, [r5, #52]	; 0x34
    8f58:	b2e4      	uxtb	r4, r4
    8f5a:	07e3      	lsls	r3, r4, #31
    8f5c:	d405      	bmi.n	8f6a <lpc_mii_write+0x26>
    8f5e:	2c00      	cmp	r4, #0
    8f60:	bf0c      	ite	eq
    8f62:	4620      	moveq	r0, r4
    8f64:	20fd      	movne	r0, #253	; 0xfd
    8f66:	b240      	sxtb	r0, r0
    8f68:	bd70      	pop	{r4, r5, r6, pc}
    8f6a:	2001      	movs	r0, #1
    8f6c:	f000 fada 	bl	9524 <osDelay>
    8f70:	3e01      	subs	r6, #1
    8f72:	d1f0      	bne.n	8f56 <lpc_mii_write+0x12>
    8f74:	e7f3      	b.n	8f5e <lpc_mii_write+0x1a>
    8f76:	bf00      	nop

00008f78 <lpc_mii_read>:
    8f78:	b5f8      	push	{r3, r4, r5, r6, r7, lr}
    8f7a:	f440 7080 	orr.w	r0, r0, #256	; 0x100
    8f7e:	f04f 43a0 	mov.w	r3, #1342177280	; 0x50000000
    8f82:	2201      	movs	r2, #1
    8f84:	6298      	str	r0, [r3, #40]	; 0x28
    8f86:	460f      	mov	r7, r1
    8f88:	461d      	mov	r5, r3
    8f8a:	625a      	str	r2, [r3, #36]	; 0x24
    8f8c:	26fa      	movs	r6, #250	; 0xfa
    8f8e:	6b68      	ldr	r0, [r5, #52]	; 0x34
    8f90:	f04f 44a0 	mov.w	r4, #1342177280	; 0x50000000
    8f94:	f000 00f7 	and.w	r0, r0, #247	; 0xf7
    8f98:	f010 0301 	ands.w	r3, r0, #1
    8f9c:	d105      	bne.n	8faa <lpc_mii_read+0x32>
    8f9e:	6b22      	ldr	r2, [r4, #48]	; 0x30
    8fa0:	603a      	str	r2, [r7, #0]
    8fa2:	6263      	str	r3, [r4, #36]	; 0x24
    8fa4:	b938      	cbnz	r0, 8fb6 <lpc_mii_read+0x3e>
    8fa6:	b240      	sxtb	r0, r0
    8fa8:	bdf8      	pop	{r3, r4, r5, r6, r7, pc}
    8faa:	2001      	movs	r0, #1
    8fac:	f000 faba 	bl	9524 <osDelay>
    8fb0:	3e01      	subs	r6, #1
    8fb2:	d1ec      	bne.n	8f8e <lpc_mii_read+0x16>
    8fb4:	6266      	str	r6, [r4, #36]	; 0x24
    8fb6:	20fd      	movs	r0, #253	; 0xfd
    8fb8:	e7f5      	b.n	8fa6 <lpc_mii_read+0x2e>
    8fba:	bf00      	nop

00008fbc <lpc_phy_init>:
    8fbc:	b5f0      	push	{r4, r5, r6, r7, lr}
    8fbe:	4a2a      	ldr	r2, [pc, #168]	; (9068 <lpc_phy_init+0xac>)
    8fc0:	4d2a      	ldr	r5, [pc, #168]	; (906c <lpc_phy_init+0xb0>)
    8fc2:	7814      	ldrb	r4, [r2, #0]
    8fc4:	782f      	ldrb	r7, [r5, #0]
    8fc6:	2300      	movs	r3, #0
    8fc8:	f8df e0a8 	ldr.w	lr, [pc, #168]	; 9074 <lpc_phy_init+0xb8>
    8fcc:	f007 07fc 	and.w	r7, r7, #252	; 0xfc
    8fd0:	f004 04fc 	and.w	r4, r4, #252	; 0xfc
    8fd4:	b083      	sub	sp, #12
    8fd6:	460e      	mov	r6, r1
    8fd8:	f36f 0782 	bfc	r7, #2, #1
    8fdc:	f36f 0482 	bfc	r4, #2, #1
    8fe0:	4618      	mov	r0, r3
    8fe2:	f44f 4100 	mov.w	r1, #32768	; 0x8000
    8fe6:	702f      	strb	r7, [r5, #0]
    8fe8:	7014      	strb	r4, [r2, #0]
    8fea:	f8ce 3000 	str.w	r3, [lr]
    8fee:	f7ff ffa9 	bl	8f44 <lpc_mii_write>
    8ff2:	f44f 75c8 	mov.w	r5, #400	; 0x190
    8ff6:	b970      	cbnz	r0, 9016 <lpc_phy_init+0x5a>
    8ff8:	2001      	movs	r0, #1
    8ffa:	f000 fa93 	bl	9524 <osDelay>
    8ffe:	2000      	movs	r0, #0
    9000:	a901      	add	r1, sp, #4
    9002:	f7ff ffb9 	bl	8f78 <lpc_mii_read>
    9006:	4604      	mov	r4, r0
    9008:	b928      	cbnz	r0, 9016 <lpc_phy_init+0x5a>
    900a:	9b01      	ldr	r3, [sp, #4]
    900c:	f413 4f08 	tst.w	r3, #34816	; 0x8800
    9010:	d005      	beq.n	901e <lpc_phy_init+0x62>
    9012:	3d01      	subs	r5, #1
    9014:	d1f0      	bne.n	8ff8 <lpc_phy_init+0x3c>
    9016:	24fd      	movs	r4, #253	; 0xfd
    9018:	b260      	sxtb	r0, r4
    901a:	b003      	add	sp, #12
    901c:	bdf0      	pop	{r4, r5, r6, r7, pc}
    901e:	a901      	add	r1, sp, #4
    9020:	2002      	movs	r0, #2
    9022:	f7ff ffa9 	bl	8f78 <lpc_mii_read>
    9026:	9b01      	ldr	r3, [sp, #4]
    9028:	4d11      	ldr	r5, [pc, #68]	; (9070 <lpc_phy_init+0xb4>)
    902a:	041b      	lsls	r3, r3, #16
    902c:	a901      	add	r1, sp, #4
    902e:	2003      	movs	r0, #3
    9030:	602b      	str	r3, [r5, #0]
    9032:	f7ff ffa1 	bl	8f78 <lpc_mii_read>
    9036:	9a01      	ldr	r2, [sp, #4]
    9038:	6829      	ldr	r1, [r5, #0]
    903a:	f64f 73f0 	movw	r3, #65520	; 0xfff0
    903e:	4013      	ands	r3, r2
    9040:	f44f 5244 	mov.w	r2, #12544	; 0x3100
    9044:	430b      	orrs	r3, r1
    9046:	4620      	mov	r0, r4
    9048:	4611      	mov	r1, r2
    904a:	602b      	str	r3, [r5, #0]
    904c:	9201      	str	r2, [sp, #4]
    904e:	f7ff ff79 	bl	8f44 <lpc_mii_write>
    9052:	b916      	cbnz	r6, 905a <lpc_phy_init+0x9e>
    9054:	b260      	sxtb	r0, r4
    9056:	b003      	add	sp, #12
    9058:	bdf0      	pop	{r4, r5, r6, r7, pc}
    905a:	2120      	movs	r1, #32
    905c:	2017      	movs	r0, #23
    905e:	f7ff ff71 	bl	8f44 <lpc_mii_write>
    9062:	b260      	sxtb	r0, r4
    9064:	b003      	add	sp, #12
    9066:	bdf0      	pop	{r4, r5, r6, r7, pc}
    9068:	10000d1c 	.word	0x10000d1c
    906c:	10000d18 	.word	0x10000d18
    9070:	10000d14 	.word	0x10000d14
    9074:	10000d10 	.word	0x10000d10

00009078 <lpc_phy_sts_sm>:
    9078:	b5f8      	push	{r3, r4, r5, r6, r7, lr}
    907a:	4c78      	ldr	r4, [pc, #480]	; (925c <lpc_phy_sts_sm+0x1e4>)
    907c:	4607      	mov	r7, r0
    907e:	6823      	ldr	r3, [r4, #0]
    9080:	2b01      	cmp	r3, #1
    9082:	d071      	beq.n	9168 <lpc_phy_sts_sm+0xf0>
    9084:	2b02      	cmp	r3, #2
    9086:	d164      	bne.n	9152 <lpc_phy_sts_sm+0xda>
    9088:	f04f 43a0 	mov.w	r3, #1342177280	; 0x50000000
    908c:	6b5a      	ldr	r2, [r3, #52]	; 0x34
    908e:	f012 0201 	ands.w	r2, r2, #1
    9092:	d166      	bne.n	9162 <lpc_phy_sts_sm+0xea>
    9094:	4872      	ldr	r0, [pc, #456]	; (9260 <lpc_phy_sts_sm+0x1e8>)
    9096:	6b19      	ldr	r1, [r3, #48]	; 0x30
    9098:	625a      	str	r2, [r3, #36]	; 0x24
    909a:	6803      	ldr	r3, [r0, #0]
    909c:	4871      	ldr	r0, [pc, #452]	; (9264 <lpc_phy_sts_sm+0x1ec>)
    909e:	4283      	cmp	r3, r0
    90a0:	f000 808b 	beq.w	91ba <lpc_phy_sts_sm+0x142>
    90a4:	4870      	ldr	r0, [pc, #448]	; (9268 <lpc_phy_sts_sm+0x1f0>)
    90a6:	4283      	cmp	r3, r0
    90a8:	f000 80cc 	beq.w	9244 <lpc_phy_sts_sm+0x1cc>
    90ac:	4613      	mov	r3, r2
    90ae:	4d6f      	ldr	r5, [pc, #444]	; (926c <lpc_phy_sts_sm+0x1f4>)
    90b0:	7829      	ldrb	r1, [r5, #0]
    90b2:	f36f 0182 	bfc	r1, #2, #1
    90b6:	7029      	strb	r1, [r5, #0]
    90b8:	2a00      	cmp	r2, #0
    90ba:	f000 809b 	beq.w	91f4 <lpc_phy_sts_sm+0x17c>
    90be:	782a      	ldrb	r2, [r5, #0]
    90c0:	4e6b      	ldr	r6, [pc, #428]	; (9270 <lpc_phy_sts_sm+0x1f8>)
    90c2:	f042 0202 	orr.w	r2, r2, #2
    90c6:	702a      	strb	r2, [r5, #0]
    90c8:	2b00      	cmp	r3, #0
    90ca:	f000 809b 	beq.w	9204 <lpc_phy_sts_sm+0x18c>
    90ce:	782b      	ldrb	r3, [r5, #0]
    90d0:	7832      	ldrb	r2, [r6, #0]
    90d2:	f36f 0300 	bfc	r3, #0, #1
    90d6:	07d2      	lsls	r2, r2, #31
    90d8:	702b      	strb	r3, [r5, #0]
    90da:	f140 80b1 	bpl.w	9240 <lpc_phy_sts_sm+0x1c8>
    90de:	2000      	movs	r0, #0
    90e0:	f7ff fe06 	bl	8cf0 <lpc_emac_set_speed>
    90e4:	7833      	ldrb	r3, [r6, #0]
    90e6:	7829      	ldrb	r1, [r5, #0]
    90e8:	2201      	movs	r2, #1
    90ea:	f361 0300 	bfi	r3, r1, #0, #1
    90ee:	7033      	strb	r3, [r6, #0]
    90f0:	7828      	ldrb	r0, [r5, #0]
    90f2:	7833      	ldrb	r3, [r6, #0]
    90f4:	f3c0 0040 	ubfx	r0, r0, #1, #1
    90f8:	f3c3 0340 	ubfx	r3, r3, #1, #1
    90fc:	4283      	cmp	r3, r0
    90fe:	d00d      	beq.n	911c <lpc_phy_sts_sm+0xa4>
    9100:	2800      	cmp	r0, #0
    9102:	f000 808f 	beq.w	9224 <lpc_phy_sts_sm+0x1ac>
    9106:	2001      	movs	r0, #1
    9108:	f7ff fdd6 	bl	8cb8 <lpc_emac_set_duplex>
    910c:	782a      	ldrb	r2, [r5, #0]
    910e:	7833      	ldrb	r3, [r6, #0]
    9110:	f3c2 0240 	ubfx	r2, r2, #1, #1
    9114:	f362 0341 	bfi	r3, r2, #1, #1
    9118:	7033      	strb	r3, [r6, #0]
    911a:	2201      	movs	r2, #1
    911c:	782b      	ldrb	r3, [r5, #0]
    911e:	7831      	ldrb	r1, [r6, #0]
    9120:	f3c3 0380 	ubfx	r3, r3, #2, #1
    9124:	f3c1 0180 	ubfx	r1, r1, #2, #1
    9128:	4299      	cmp	r1, r3
    912a:	d00e      	beq.n	914a <lpc_phy_sts_sm+0xd2>
    912c:	4639      	mov	r1, r7
    912e:	2b00      	cmp	r3, #0
    9130:	d073      	beq.n	921a <lpc_phy_sts_sm+0x1a2>
    9132:	4850      	ldr	r0, [pc, #320]	; (9274 <lpc_phy_sts_sm+0x1fc>)
    9134:	2201      	movs	r2, #1
    9136:	f7f7 ff31 	bl	f9c <tcpip_callback_with_block>
    913a:	782a      	ldrb	r2, [r5, #0]
    913c:	7833      	ldrb	r3, [r6, #0]
    913e:	f3c2 0280 	ubfx	r2, r2, #2, #1
    9142:	f362 0382 	bfi	r3, r2, #2, #1
    9146:	7033      	strb	r3, [r6, #0]
    9148:	2201      	movs	r2, #1
    914a:	2300      	movs	r3, #0
    914c:	6023      	str	r3, [r4, #0]
    914e:	4610      	mov	r0, r2
    9150:	bdf8      	pop	{r3, r4, r5, r6, r7, pc}
    9152:	4b43      	ldr	r3, [pc, #268]	; (9260 <lpc_phy_sts_sm+0x1e8>)
    9154:	4a43      	ldr	r2, [pc, #268]	; (9264 <lpc_phy_sts_sm+0x1ec>)
    9156:	681b      	ldr	r3, [r3, #0]
    9158:	4293      	cmp	r3, r2
    915a:	d066      	beq.n	922a <lpc_phy_sts_sm+0x1b2>
    915c:	4a42      	ldr	r2, [pc, #264]	; (9268 <lpc_phy_sts_sm+0x1f0>)
    915e:	4293      	cmp	r3, r2
    9160:	d021      	beq.n	91a6 <lpc_phy_sts_sm+0x12e>
    9162:	2200      	movs	r2, #0
    9164:	4610      	mov	r0, r2
    9166:	bdf8      	pop	{r3, r4, r5, r6, r7, pc}
    9168:	493d      	ldr	r1, [pc, #244]	; (9260 <lpc_phy_sts_sm+0x1e8>)
    916a:	4a3f      	ldr	r2, [pc, #252]	; (9268 <lpc_phy_sts_sm+0x1f0>)
    916c:	6809      	ldr	r1, [r1, #0]
    916e:	4291      	cmp	r1, r2
    9170:	d1f7      	bne.n	9162 <lpc_phy_sts_sm+0xea>
    9172:	f04f 41a0 	mov.w	r1, #1342177280	; 0x50000000
    9176:	6b0a      	ldr	r2, [r1, #48]	; 0x30
    9178:	4e3f      	ldr	r6, [pc, #252]	; (9278 <lpc_phy_sts_sm+0x200>)
    917a:	f012 0f10 	tst.w	r2, #16
    917e:	bf0c      	ite	eq
    9180:	2000      	moveq	r0, #0
    9182:	2002      	movne	r0, #2
    9184:	f012 0f08 	tst.w	r2, #8
    9188:	bf0c      	ite	eq
    918a:	2704      	moveq	r7, #4
    918c:	2700      	movne	r7, #0
    918e:	4307      	orrs	r7, r0
    9190:	2200      	movs	r2, #0
    9192:	f240 1501 	movw	r5, #257	; 0x101
    9196:	2002      	movs	r0, #2
    9198:	624a      	str	r2, [r1, #36]	; 0x24
    919a:	6037      	str	r7, [r6, #0]
    919c:	628d      	str	r5, [r1, #40]	; 0x28
    919e:	624b      	str	r3, [r1, #36]	; 0x24
    91a0:	6020      	str	r0, [r4, #0]
    91a2:	4610      	mov	r0, r2
    91a4:	bdf8      	pop	{r3, r4, r5, r6, r7, pc}
    91a6:	f04f 41a0 	mov.w	r1, #1342177280	; 0x50000000
    91aa:	f240 121f 	movw	r2, #287	; 0x11f
    91ae:	2301      	movs	r3, #1
    91b0:	628a      	str	r2, [r1, #40]	; 0x28
    91b2:	624b      	str	r3, [r1, #36]	; 0x24
    91b4:	2200      	movs	r2, #0
    91b6:	6023      	str	r3, [r4, #0]
    91b8:	e7d4      	b.n	9164 <lpc_phy_sts_sm+0xec>
    91ba:	f011 0f04 	tst.w	r1, #4
    91be:	bf0c      	ite	eq
    91c0:	2200      	moveq	r2, #0
    91c2:	2202      	movne	r2, #2
    91c4:	f001 0301 	and.w	r3, r1, #1
    91c8:	f011 0f02 	tst.w	r1, #2
    91cc:	ea42 0203 	orr.w	r2, r2, r3
    91d0:	bf0c      	ite	eq
    91d2:	2300      	moveq	r3, #0
    91d4:	2304      	movne	r3, #4
    91d6:	4313      	orrs	r3, r2
    91d8:	07d9      	lsls	r1, r3, #31
    91da:	d53a      	bpl.n	9252 <lpc_phy_sts_sm+0x1da>
    91dc:	4d23      	ldr	r5, [pc, #140]	; (926c <lpc_phy_sts_sm+0x1f4>)
    91de:	f003 0202 	and.w	r2, r3, #2
    91e2:	7829      	ldrb	r1, [r5, #0]
    91e4:	f003 0304 	and.w	r3, r3, #4
    91e8:	f041 0104 	orr.w	r1, r1, #4
    91ec:	7029      	strb	r1, [r5, #0]
    91ee:	2a00      	cmp	r2, #0
    91f0:	f47f af65 	bne.w	90be <lpc_phy_sts_sm+0x46>
    91f4:	7829      	ldrb	r1, [r5, #0]
    91f6:	4e1e      	ldr	r6, [pc, #120]	; (9270 <lpc_phy_sts_sm+0x1f8>)
    91f8:	f362 0141 	bfi	r1, r2, #1, #1
    91fc:	7029      	strb	r1, [r5, #0]
    91fe:	2b00      	cmp	r3, #0
    9200:	f47f af65 	bne.w	90ce <lpc_phy_sts_sm+0x56>
    9204:	782a      	ldrb	r2, [r5, #0]
    9206:	7833      	ldrb	r3, [r6, #0]
    9208:	f042 0201 	orr.w	r2, r2, #1
    920c:	07db      	lsls	r3, r3, #31
    920e:	702a      	strb	r2, [r5, #0]
    9210:	d416      	bmi.n	9240 <lpc_phy_sts_sm+0x1c8>
    9212:	2001      	movs	r0, #1
    9214:	f7ff fd6c 	bl	8cf0 <lpc_emac_set_speed>
    9218:	e764      	b.n	90e4 <lpc_phy_sts_sm+0x6c>
    921a:	2201      	movs	r2, #1
    921c:	4817      	ldr	r0, [pc, #92]	; (927c <lpc_phy_sts_sm+0x204>)
    921e:	f7f7 febd 	bl	f9c <tcpip_callback_with_block>
    9222:	e78a      	b.n	913a <lpc_phy_sts_sm+0xc2>
    9224:	f7ff fd48 	bl	8cb8 <lpc_emac_set_duplex>
    9228:	e770      	b.n	910c <lpc_phy_sts_sm+0x94>
    922a:	f04f 43a0 	mov.w	r3, #1342177280	; 0x50000000
    922e:	f44f 7288 	mov.w	r2, #272	; 0x110
    9232:	2001      	movs	r0, #1
    9234:	2102      	movs	r1, #2
    9236:	629a      	str	r2, [r3, #40]	; 0x28
    9238:	6258      	str	r0, [r3, #36]	; 0x24
    923a:	2200      	movs	r2, #0
    923c:	6021      	str	r1, [r4, #0]
    923e:	e791      	b.n	9164 <lpc_phy_sts_sm+0xec>
    9240:	2200      	movs	r2, #0
    9242:	e755      	b.n	90f0 <lpc_phy_sts_sm+0x78>
    9244:	4a0c      	ldr	r2, [pc, #48]	; (9278 <lpc_phy_sts_sm+0x200>)
    9246:	f3c1 0180 	ubfx	r1, r1, #2, #1
    924a:	6813      	ldr	r3, [r2, #0]
    924c:	430b      	orrs	r3, r1
    924e:	6013      	str	r3, [r2, #0]
    9250:	e7c2      	b.n	91d8 <lpc_phy_sts_sm+0x160>
    9252:	f003 0202 	and.w	r2, r3, #2
    9256:	f003 0304 	and.w	r3, r3, #4
    925a:	e728      	b.n	90ae <lpc_phy_sts_sm+0x36>
    925c:	10000d10 	.word	0x10000d10
    9260:	10000d14 	.word	0x10000d14
    9264:	20005c90 	.word	0x20005c90
    9268:	0007c0f0 	.word	0x0007c0f0
    926c:	10000d1c 	.word	0x10000d1c
    9270:	10000d18 	.word	0x10000d18
    9274:	000015e9 	.word	0x000015e9
    9278:	10000d20 	.word	0x10000d20
    927c:	00001635 	.word	0x00001635

00009280 <osThreadExit>:
    9280:	b500      	push	{lr}
    9282:	f8df c00c 	ldr.w	r12, [pc, #12]	; 9290 <osThreadExit+0x10>
    9286:	df00      	svc	0
    9288:	f8df c008 	ldr.w	r12, [pc, #8]	; 9294 <osThreadExit+0x14>
    928c:	df00      	svc	0
    928e:	e7fe      	b.n	928e <osThreadExit+0xe>
    9290:	0000947d 	.word	0x0000947d
    9294:	00009495 	.word	0x00009495

00009298 <rt_timer_insert>:
    9298:	b430      	push	{r4, r5}
    929a:	4d11      	ldr	r5, [pc, #68]	; (92e0 <rt_timer_insert+0x48>)
    929c:	682c      	ldr	r4, [r5, #0]
    929e:	b15c      	cbz	r4, 92b8 <rt_timer_insert+0x20>
    92a0:	8922      	ldrh	r2, [r4, #8]
    92a2:	4291      	cmp	r1, r2
    92a4:	d204      	bcs.n	92b0 <rt_timer_insert+0x18>
    92a6:	e00e      	b.n	92c6 <rt_timer_insert+0x2e>
    92a8:	891a      	ldrh	r2, [r3, #8]
    92aa:	428a      	cmp	r2, r1
    92ac:	d80d      	bhi.n	92ca <rt_timer_insert+0x32>
    92ae:	461c      	mov	r4, r3
    92b0:	6823      	ldr	r3, [r4, #0]
    92b2:	1a89      	subs	r1, r1, r2
    92b4:	2b00      	cmp	r3, #0
    92b6:	d1f7      	bne.n	92a8 <rt_timer_insert+0x10>
    92b8:	2300      	movs	r3, #0
    92ba:	8101      	strh	r1, [r0, #8]
    92bc:	6003      	str	r3, [r0, #0]
    92be:	b164      	cbz	r4, 92da <rt_timer_insert+0x42>
    92c0:	6020      	str	r0, [r4, #0]
    92c2:	bc30      	pop	{r4, r5}
    92c4:	4770      	bx	lr
    92c6:	4623      	mov	r3, r4
    92c8:	2400      	movs	r4, #0
    92ca:	b289      	uxth	r1, r1
    92cc:	8101      	strh	r1, [r0, #8]
    92ce:	891a      	ldrh	r2, [r3, #8]
    92d0:	6003      	str	r3, [r0, #0]
    92d2:	1a51      	subs	r1, r2, r1
    92d4:	8119      	strh	r1, [r3, #8]
    92d6:	2c00      	cmp	r4, #0
    92d8:	d1f2      	bne.n	92c0 <rt_timer_insert+0x28>
    92da:	6028      	str	r0, [r5, #0]
    92dc:	bc30      	pop	{r4, r5}
    92de:	4770      	bx	lr
    92e0:	1000104c 	.word	0x1000104c

000092e4 <rt_timer_remove>:
    92e4:	490f      	ldr	r1, [pc, #60]	; (9324 <rt_timer_remove+0x40>)
    92e6:	680a      	ldr	r2, [r1, #0]
    92e8:	b142      	cbz	r2, 92fc <rt_timer_remove+0x18>
    92ea:	4282      	cmp	r2, r0
    92ec:	d103      	bne.n	92f6 <rt_timer_remove+0x12>
    92ee:	e013      	b.n	9318 <rt_timer_remove+0x34>
    92f0:	4298      	cmp	r0, r3
    92f2:	d006      	beq.n	9302 <rt_timer_remove+0x1e>
    92f4:	461a      	mov	r2, r3
    92f6:	6813      	ldr	r3, [r2, #0]
    92f8:	2b00      	cmp	r3, #0
    92fa:	d1f9      	bne.n	92f0 <rt_timer_remove+0xc>
    92fc:	f04f 30ff 	mov.w	r0, #4294967295	; 0xffffffff
    9300:	4770      	bx	lr
    9302:	b14a      	cbz	r2, 9318 <rt_timer_remove+0x34>
    9304:	6803      	ldr	r3, [r0, #0]
    9306:	6013      	str	r3, [r2, #0]
    9308:	6803      	ldr	r3, [r0, #0]
    930a:	b14b      	cbz	r3, 9320 <rt_timer_remove+0x3c>
    930c:	8901      	ldrh	r1, [r0, #8]
    930e:	891a      	ldrh	r2, [r3, #8]
    9310:	2000      	movs	r0, #0
    9312:	440a      	add	r2, r1
    9314:	811a      	strh	r2, [r3, #8]
    9316:	4770      	bx	lr
    9318:	6803      	ldr	r3, [r0, #0]
    931a:	600b      	str	r3, [r1, #0]
    931c:	2b00      	cmp	r3, #0
    931e:	d1f5      	bne.n	930c <rt_timer_remove+0x28>
    9320:	4618      	mov	r0, r3
    9322:	4770      	bx	lr
    9324:	1000104c 	.word	0x1000104c

00009328 <rt_ms2tick.part.0>:
    9328:	4b08      	ldr	r3, [pc, #32]	; (934c <rt_ms2tick.part.0+0x24>)
    932a:	b410      	push	{r4}
    932c:	681b      	ldr	r3, [r3, #0]
    932e:	f44f 747a 	mov.w	r4, #1000	; 0x3e8
    9332:	1e59      	subs	r1, r3, #1
    9334:	fb04 1000 	mla	r0, r4, r0, r1
    9338:	f64f 72fe 	movw	r2, #65534	; 0xfffe
    933c:	fbb0 f0f3 	udiv	r0, r0, r3
    9340:	4290      	cmp	r0, r2
    9342:	bf28      	it	cs
    9344:	4610      	movcs	r0, r2
    9346:	f85d 4b04 	ldr.w	r4, [sp], #4
    934a:	4770      	bx	lr
    934c:	0000dbec 	.word	0x0000dbec

00009350 <svcKernelInitialize>:
    9350:	b538      	push	{r3, r4, r5, lr}
    9352:	4c08      	ldr	r4, [pc, #32]	; (9374 <svcKernelInitialize+0x24>)
    9354:	7825      	ldrb	r5, [r4, #0]
    9356:	b955      	cbnz	r5, 936e <svcKernelInitialize+0x1e>
    9358:	f001 fac0 	bl	a8dc <rt_sys_init>
    935c:	4b06      	ldr	r3, [pc, #24]	; (9378 <svcKernelInitialize+0x28>)
    935e:	22ff      	movs	r2, #255	; 0xff
    9360:	681b      	ldr	r3, [r3, #0]
    9362:	4628      	mov	r0, r5
    9364:	709a      	strb	r2, [r3, #2]
    9366:	f001 fc49 	bl	abfc <sysThreadError>
    936a:	2301      	movs	r3, #1
    936c:	7023      	strb	r3, [r4, #0]
    936e:	2000      	movs	r0, #0
    9370:	bd38      	pop	{r3, r4, r5, pc}
    9372:	bf00      	nop
    9374:	10001048 	.word	0x10001048
    9378:	10001084 	.word	0x10001084

0000937c <osKernelInitialize>:
    937c:	b510      	push	{r4, lr}
    937e:	f3ef 8405 	mrs	r4, IPSR
    9382:	b10c      	cbz	r4, 9388 <osKernelInitialize+0xc>
    9384:	2082      	movs	r0, #130	; 0x82
    9386:	bd10      	pop	{r4, pc}
    9388:	f3ef 8414 	mrs	r4, CONTROL
    938c:	07e4      	lsls	r4, r4, #31
    938e:	d503      	bpl.n	9398 <osKernelInitialize+0x1c>
    9390:	f8df c00c 	ldr.w	r12, [pc, #12]	; 93a0 <osKernelInitialize+0x24>
    9394:	df00      	svc	0
    9396:	bd10      	pop	{r4, pc}
    9398:	e8bd 4010 	ldmia.w	sp!, {r4, lr}
    939c:	f7ff bfd8 	b.w	9350 <svcKernelInitialize>
    93a0:	00009351 	.word	0x00009351

000093a4 <osKernelStart>:
    93a4:	b510      	push	{r4, lr}
    93a6:	b088      	sub	sp, #32
    93a8:	f3ef 8405 	mrs	r4, IPSR
    93ac:	b114      	cbz	r4, 93b4 <osKernelStart+0x10>
    93ae:	2082      	movs	r0, #130	; 0x82
    93b0:	b008      	add	sp, #32
    93b2:	bd10      	pop	{r4, pc}
    93b4:	f3ef 8414 	mrs	r4, CONTROL
    93b8:	f004 0403 	and.w	r4, r4, #3
    93bc:	2c02      	cmp	r4, #2
    93be:	d01d      	beq.n	93fc <osKernelStart+0x58>
    93c0:	2c03      	cmp	r4, #3
    93c2:	d014      	beq.n	93ee <osKernelStart+0x4a>
    93c4:	2c01      	cmp	r4, #1
    93c6:	d016      	beq.n	93f6 <osKernelStart+0x52>
    93c8:	ac08      	add	r4, sp, #32
    93ca:	f384 8809 	msr	PSP, r4
    93ce:	4c0f      	ldr	r4, [pc, #60]	; (940c <osKernelStart+0x68>)
    93d0:	7824      	ldrb	r4, [r4, #0]
    93d2:	07e4      	lsls	r4, r4, #31
    93d4:	d516      	bpl.n	9404 <osKernelStart+0x60>
    93d6:	2402      	movs	r4, #2
    93d8:	f384 8814 	msr	CONTROL, r4
    93dc:	f3bf 8f4f 	dsb	sy
    93e0:	f3bf 8f6f 	isb	sy
    93e4:	f8df c028 	ldr.w	r12, [pc, #40]	; 9410 <osKernelStart+0x6c>
    93e8:	df00      	svc	0
    93ea:	b008      	add	sp, #32
    93ec:	bd10      	pop	{r4, pc}
    93ee:	4c07      	ldr	r4, [pc, #28]	; (940c <osKernelStart+0x68>)
    93f0:	7824      	ldrb	r4, [r4, #0]
    93f2:	07e4      	lsls	r4, r4, #31
    93f4:	d5f6      	bpl.n	93e4 <osKernelStart+0x40>
    93f6:	20ff      	movs	r0, #255	; 0xff
    93f8:	b008      	add	sp, #32
    93fa:	bd10      	pop	{r4, pc}
    93fc:	4c03      	ldr	r4, [pc, #12]	; (940c <osKernelStart+0x68>)
    93fe:	7824      	ldrb	r4, [r4, #0]
    9400:	07e4      	lsls	r4, r4, #31
    9402:	d4ef      	bmi.n	93e4 <osKernelStart+0x40>
    9404:	2403      	movs	r4, #3
    9406:	f384 8814 	msr	CONTROL, r4
    940a:	e7e7      	b.n	93dc <osKernelStart+0x38>
    940c:	0000dbf4 	.word	0x0000dbf4
    9410:	00009a95 	.word	0x00009a95

00009414 <svcThreadCreate>:
    9414:	b5f8      	push	{r3, r4, r5, r6, r7, lr}
    9416:	4604      	mov	r4, r0
    9418:	460f      	mov	r7, r1
    941a:	b328      	cbz	r0, 9468 <svcThreadCreate+0x54>
    941c:	6802      	ldr	r2, [r0, #0]
    941e:	b31a      	cbz	r2, 9468 <svcThreadCreate+0x54>
    9420:	8883      	ldrh	r3, [r0, #4]
    9422:	1cd8      	adds	r0, r3, #3
    9424:	b280      	uxth	r0, r0
    9426:	2806      	cmp	r0, #6
    9428:	d81e      	bhi.n	9468 <svcThreadCreate+0x54>
    942a:	68a0      	ldr	r0, [r4, #8]
    942c:	b1e0      	cbz	r0, 9468 <svcThreadCreate+0x54>
    942e:	68e6      	ldr	r6, [r4, #12]
    9430:	b1d6      	cbz	r6, 9468 <svcThreadCreate+0x54>
    9432:	1d19      	adds	r1, r3, #4
    9434:	f104 0510 	add.w	r5, r4, #16
    9438:	b2c9      	uxtb	r1, r1
    943a:	63a6      	str	r6, [r4, #56]	; 0x38
    943c:	8660      	strh	r0, [r4, #50]	; 0x32
    943e:	62e7      	str	r7, [r4, #44]	; 0x2c
    9440:	4628      	mov	r0, r5
    9442:	f001 f977 	bl	a734 <rt_init_context>
    9446:	f001 f95d 	bl	a704 <rt_get_TID>
    944a:	4e0a      	ldr	r6, [pc, #40]	; (9474 <svcThreadCreate+0x60>)
    944c:	4603      	mov	r3, r0
    944e:	1e47      	subs	r7, r0, #1
    9450:	f846 5027 	str.w	r5, [r6, r7, lsl #2]
    9454:	4628      	mov	r0, r5
    9456:	74e3      	strb	r3, [r4, #19]
    9458:	f001 f988 	bl	a76c <rt_dispatch>
    945c:	f856 0027 	ldr.w	r0, [r6, r7, lsl #2]
    9460:	4a05      	ldr	r2, [pc, #20]	; (9478 <svcThreadCreate+0x64>)
    9462:	6a43      	ldr	r3, [r0, #36]	; 0x24
    9464:	635a      	str	r2, [r3, #52]	; 0x34
    9466:	bdf8      	pop	{r3, r4, r5, r6, r7, pc}
    9468:	2080      	movs	r0, #128	; 0x80
    946a:	f001 fbc7 	bl	abfc <sysThreadError>
    946e:	2000      	movs	r0, #0
    9470:	bdf8      	pop	{r3, r4, r5, r6, r7, pc}
    9472:	bf00      	nop
    9474:	100012c0 	.word	0x100012c0
    9478:	00009281 	.word	0x00009281

0000947c <svcThreadGetId>:
    947c:	b508      	push	{r3, lr}
    947e:	f001 f9b1 	bl	a7e4 <rt_tsk_self>
    9482:	b118      	cbz	r0, 948c <svcThreadGetId+0x10>
    9484:	4b02      	ldr	r3, [pc, #8]	; (9490 <svcThreadGetId+0x14>)
    9486:	3801      	subs	r0, #1
    9488:	f853 0020 	ldr.w	r0, [r3, r0, lsl #2]
    948c:	bd08      	pop	{r3, pc}
    948e:	bf00      	nop
    9490:	100012c0 	.word	0x100012c0

00009494 <svcThreadTerminate>:
    9494:	b508      	push	{r3, lr}
    9496:	b158      	cbz	r0, 94b0 <svcThreadTerminate+0x1c>
    9498:	0783      	lsls	r3, r0, #30
    949a:	d109      	bne.n	94b0 <svcThreadTerminate+0x1c>
    949c:	7803      	ldrb	r3, [r0, #0]
    949e:	b93b      	cbnz	r3, 94b0 <svcThreadTerminate+0x1c>
    94a0:	78c0      	ldrb	r0, [r0, #3]
    94a2:	f001 f9e3 	bl	a86c <rt_tsk_delete>
    94a6:	28ff      	cmp	r0, #255	; 0xff
    94a8:	bf14      	ite	ne
    94aa:	2000      	movne	r0, #0
    94ac:	2081      	moveq	r0, #129	; 0x81
    94ae:	bd08      	pop	{r3, pc}
    94b0:	2080      	movs	r0, #128	; 0x80
    94b2:	bd08      	pop	{r3, pc}

000094b4 <osThreadCreate>:
    94b4:	b510      	push	{r4, lr}
    94b6:	f3ef 8405 	mrs	r4, IPSR
    94ba:	b974      	cbnz	r4, 94da <osThreadCreate+0x26>
    94bc:	f3ef 8414 	mrs	r4, CONTROL
    94c0:	07e4      	lsls	r4, r4, #31
    94c2:	d402      	bmi.n	94ca <osThreadCreate+0x16>
    94c4:	4c06      	ldr	r4, [pc, #24]	; (94e0 <osThreadCreate+0x2c>)
    94c6:	7824      	ldrb	r4, [r4, #0]
    94c8:	b11c      	cbz	r4, 94d2 <osThreadCreate+0x1e>
    94ca:	f8df c018 	ldr.w	r12, [pc, #24]	; 94e4 <osThreadCreate+0x30>
    94ce:	df00      	svc	0
    94d0:	bd10      	pop	{r4, pc}
    94d2:	e8bd 4010 	ldmia.w	sp!, {r4, lr}
    94d6:	f7ff bf9d 	b.w	9414 <svcThreadCreate>
    94da:	2000      	movs	r0, #0
    94dc:	bd10      	pop	{r4, pc}
    94de:	bf00      	nop
    94e0:	10001049 	.word	0x10001049
    94e4:	00009415 	.word	0x00009415

000094e8 <svcDelay>:
    94e8:	b508      	push	{r3, lr}
    94ea:	b158      	cbz	r0, 9504 <svcDelay+0x1c>
    94ec:	1c42      	adds	r2, r0, #1
    94ee:	d010      	beq.n	9512 <svcDelay+0x2a>
    94f0:	4a0b      	ldr	r2, [pc, #44]	; (9520 <svcDelay+0x38>)
    94f2:	4290      	cmp	r0, r2
    94f4:	d807      	bhi.n	9506 <svcDelay+0x1e>
    94f6:	f7ff ff17 	bl	9328 <rt_ms2tick.part.0>
    94fa:	b280      	uxth	r0, r0
    94fc:	f001 fa8a 	bl	aa14 <rt_dly_wait>
    9500:	2040      	movs	r0, #64	; 0x40
    9502:	bd08      	pop	{r3, pc}
    9504:	bd08      	pop	{r3, pc}
    9506:	f64f 70fe 	movw	r0, #65534	; 0xfffe
    950a:	f001 fa83 	bl	aa14 <rt_dly_wait>
    950e:	2040      	movs	r0, #64	; 0x40
    9510:	bd08      	pop	{r3, pc}
    9512:	f64f 70ff 	movw	r0, #65535	; 0xffff
    9516:	f001 fa7d 	bl	aa14 <rt_dly_wait>
    951a:	2040      	movs	r0, #64	; 0x40
    951c:	bd08      	pop	{r3, pc}
    951e:	bf00      	nop
    9520:	003d0900 	.word	0x003d0900

00009524 <osDelay>:
    9524:	b510      	push	{r4, lr}
    9526:	f3ef 8405 	mrs	r4, IPSR
    952a:	b10c      	cbz	r4, 9530 <osDelay+0xc>
    952c:	2082      	movs	r0, #130	; 0x82
    952e:	bd10      	pop	{r4, pc}
    9530:	f8df c004 	ldr.w	r12, [pc, #4]	; 9538 <osDelay+0x14>
    9534:	df00      	svc	0
    9536:	bd10      	pop	{r4, pc}
    9538:	000094e9 	.word	0x000094e9

0000953c <svcTimerCreate>:
    953c:	b510      	push	{r4, lr}
    953e:	b1d8      	cbz	r0, 9578 <svcTimerCreate+0x3c>
    9540:	6803      	ldr	r3, [r0, #0]
    9542:	b1cb      	cbz	r3, 9578 <svcTimerCreate+0x3c>
    9544:	6843      	ldr	r3, [r0, #4]
    9546:	b1bb      	cbz	r3, 9578 <svcTimerCreate+0x3c>
    9548:	2901      	cmp	r1, #1
    954a:	d80b      	bhi.n	9564 <svcTimerCreate+0x28>
    954c:	4c0d      	ldr	r4, [pc, #52]	; (9584 <svcTimerCreate+0x48>)
    954e:	6824      	ldr	r4, [r4, #0]
    9550:	b16c      	cbz	r4, 956e <svcTimerCreate+0x32>
    9552:	791c      	ldrb	r4, [r3, #4]
    9554:	b95c      	cbnz	r4, 956e <svcTimerCreate+0x32>
    9556:	2401      	movs	r4, #1
    9558:	7159      	strb	r1, [r3, #5]
    955a:	711c      	strb	r4, [r3, #4]
    955c:	6118      	str	r0, [r3, #16]
    955e:	60da      	str	r2, [r3, #12]
    9560:	4618      	mov	r0, r3
    9562:	bd10      	pop	{r4, pc}
    9564:	2086      	movs	r0, #134	; 0x86
    9566:	f001 fb49 	bl	abfc <sysThreadError>
    956a:	2000      	movs	r0, #0
    956c:	bd10      	pop	{r4, pc}
    956e:	2081      	movs	r0, #129	; 0x81
    9570:	f001 fb44 	bl	abfc <sysThreadError>
    9574:	2000      	movs	r0, #0
    9576:	bd10      	pop	{r4, pc}
    9578:	2080      	movs	r0, #128	; 0x80
    957a:	f001 fb3f 	bl	abfc <sysThreadError>
    957e:	2000      	movs	r0, #0
    9580:	bd10      	pop	{r4, pc}
    9582:	bf00      	nop
    9584:	10001ba4 	.word	0x10001ba4

00009588 <svcTimerStart>:
    9588:	0782      	lsls	r2, r0, #30
    958a:	b538      	push	{r3, r4, r5, lr}
    958c:	4604      	mov	r4, r0
    958e:	d112      	bne.n	95b6 <svcTimerStart+0x2e>
    9590:	b188      	cbz	r0, 95b6 <svcTimerStart+0x2e>
    9592:	1c4b      	adds	r3, r1, #1
    9594:	d019      	beq.n	95ca <svcTimerStart+0x42>
    9596:	4b13      	ldr	r3, [pc, #76]	; (95e4 <svcTimerStart+0x5c>)
    9598:	4299      	cmp	r1, r3
    959a:	d90e      	bls.n	95ba <svcTimerStart+0x32>
    959c:	f64f 75fe 	movw	r5, #65534	; 0xfffe
    95a0:	7923      	ldrb	r3, [r4, #4]
    95a2:	2b01      	cmp	r3, #1
    95a4:	d014      	beq.n	95d0 <svcTimerStart+0x48>
    95a6:	2b02      	cmp	r3, #2
    95a8:	d103      	bne.n	95b2 <svcTimerStart+0x2a>
    95aa:	4620      	mov	r0, r4
    95ac:	f7ff fe9a 	bl	92e4 <rt_timer_remove>
    95b0:	b188      	cbz	r0, 95d6 <svcTimerStart+0x4e>
    95b2:	2081      	movs	r0, #129	; 0x81
    95b4:	bd38      	pop	{r3, r4, r5, pc}
    95b6:	2080      	movs	r0, #128	; 0x80
    95b8:	bd38      	pop	{r3, r4, r5, pc}
    95ba:	4608      	mov	r0, r1
    95bc:	f7ff feb4 	bl	9328 <rt_ms2tick.part.0>
    95c0:	4605      	mov	r5, r0
    95c2:	2800      	cmp	r0, #0
    95c4:	d1ec      	bne.n	95a0 <svcTimerStart+0x18>
    95c6:	2086      	movs	r0, #134	; 0x86
    95c8:	bd38      	pop	{r3, r4, r5, pc}
    95ca:	f64f 75ff 	movw	r5, #65535	; 0xffff
    95ce:	e7e7      	b.n	95a0 <svcTimerStart+0x18>
    95d0:	2302      	movs	r3, #2
    95d2:	8165      	strh	r5, [r4, #10]
    95d4:	7123      	strb	r3, [r4, #4]
    95d6:	4620      	mov	r0, r4
    95d8:	4629      	mov	r1, r5
    95da:	f7ff fe5d 	bl	9298 <rt_timer_insert>
    95de:	2000      	movs	r0, #0
    95e0:	bd38      	pop	{r3, r4, r5, pc}
    95e2:	bf00      	nop
    95e4:	003d0900 	.word	0x003d0900

000095e8 <svcTimerCall>:
    95e8:	0783      	lsls	r3, r0, #30
    95ea:	d106      	bne.n	95fa <svcTimerCall+0x12>
    95ec:	b128      	cbz	r0, 95fa <svcTimerCall+0x12>
    95ee:	6901      	ldr	r1, [r0, #16]
    95f0:	68c3      	ldr	r3, [r0, #12]
    95f2:	680a      	ldr	r2, [r1, #0]
    95f4:	4619      	mov	r1, r3
    95f6:	4610      	mov	r0, r2
    95f8:	4770      	bx	lr
    95fa:	2000      	movs	r0, #0
    95fc:	2100      	movs	r1, #0
    95fe:	4770      	bx	lr

00009600 <sysTimerTick>:
    9600:	e92d 43f8 	stmdb	sp!, {r3, r4, r5, r6, r7, r8, r9, lr}
    9604:	4f17      	ldr	r7, [pc, #92]	; (9664 <sysTimerTick+0x64>)
    9606:	683d      	ldr	r5, [r7, #0]
    9608:	b1d5      	cbz	r5, 9640 <sysTimerTick+0x40>
    960a:	892b      	ldrh	r3, [r5, #8]
    960c:	f8df 8058 	ldr.w	r8, [pc, #88]	; 9668 <sysTimerTick+0x68>
    9610:	3b01      	subs	r3, #1
    9612:	b29b      	uxth	r3, r3
    9614:	812b      	strh	r3, [r5, #8]
    9616:	f04f 0901 	mov.w	r9, #1
    961a:	b98b      	cbnz	r3, 9640 <sysTimerTick+0x40>
    961c:	682c      	ldr	r4, [r5, #0]
    961e:	f8d8 6000 	ldr.w	r6, [r8]
    9622:	603c      	str	r4, [r7, #0]
    9624:	b116      	cbz	r6, 962c <sysTimerTick+0x2c>
    9626:	7833      	ldrb	r3, [r6, #0]
    9628:	2b01      	cmp	r3, #1
    962a:	d010      	beq.n	964e <sysTimerTick+0x4e>
    962c:	796b      	ldrb	r3, [r5, #5]
    962e:	2b01      	cmp	r3, #1
    9630:	d008      	beq.n	9644 <sysTimerTick+0x44>
    9632:	f885 9004 	strb.w	r9, [r5, #4]
    9636:	b11c      	cbz	r4, 9640 <sysTimerTick+0x40>
    9638:	8923      	ldrh	r3, [r4, #8]
    963a:	4625      	mov	r5, r4
    963c:	2b00      	cmp	r3, #0
    963e:	d0ed      	beq.n	961c <sysTimerTick+0x1c>
    9640:	e8bd 83f8 	ldmia.w	sp!, {r3, r4, r5, r6, r7, r8, r9, pc}
    9644:	4628      	mov	r0, r5
    9646:	8969      	ldrh	r1, [r5, #10]
    9648:	f7ff fe26 	bl	9298 <rt_timer_insert>
    964c:	e7f3      	b.n	9636 <sysTimerTick+0x36>
    964e:	4630      	mov	r0, r6
    9650:	f000 fdb6 	bl	a1c0 <rt_mbx_check>
    9654:	2800      	cmp	r0, #0
    9656:	d0e9      	beq.n	962c <sysTimerTick+0x2c>
    9658:	4630      	mov	r0, r6
    965a:	4629      	mov	r1, r5
    965c:	f000 fdb4 	bl	a1c8 <isr_mbx_send>
    9660:	e7e4      	b.n	962c <sysTimerTick+0x2c>
    9662:	bf00      	nop
    9664:	1000104c 	.word	0x1000104c
    9668:	100013a0 	.word	0x100013a0

0000966c <osTimerCreate>:
    966c:	b510      	push	{r4, lr}
    966e:	f3ef 8405 	mrs	r4, IPSR
    9672:	b974      	cbnz	r4, 9692 <osTimerCreate+0x26>
    9674:	f3ef 8414 	mrs	r4, CONTROL
    9678:	07e4      	lsls	r4, r4, #31
    967a:	d402      	bmi.n	9682 <osTimerCreate+0x16>
    967c:	4c06      	ldr	r4, [pc, #24]	; (9698 <osTimerCreate+0x2c>)
    967e:	7824      	ldrb	r4, [r4, #0]
    9680:	b11c      	cbz	r4, 968a <osTimerCreate+0x1e>
    9682:	f8df c018 	ldr.w	r12, [pc, #24]	; 969c <osTimerCreate+0x30>
    9686:	df00      	svc	0
    9688:	bd10      	pop	{r4, pc}
    968a:	e8bd 4010 	ldmia.w	sp!, {r4, lr}
    968e:	f7ff bf55 	b.w	953c <svcTimerCreate>
    9692:	2000      	movs	r0, #0
    9694:	bd10      	pop	{r4, pc}
    9696:	bf00      	nop
    9698:	10001049 	.word	0x10001049
    969c:	0000953d 	.word	0x0000953d

000096a0 <osTimerStart>:
    96a0:	b510      	push	{r4, lr}
    96a2:	f3ef 8405 	mrs	r4, IPSR
    96a6:	b10c      	cbz	r4, 96ac <osTimerStart+0xc>
    96a8:	2082      	movs	r0, #130	; 0x82
    96aa:	bd10      	pop	{r4, pc}
    96ac:	f8df c004 	ldr.w	r12, [pc, #4]	; 96b4 <osTimerStart+0x14>
    96b0:	df00      	svc	0
    96b2:	bd10      	pop	{r4, pc}
    96b4:	00009589 	.word	0x00009589

000096b8 <svcSignalSet>:
    96b8:	b510      	push	{r4, lr}
    96ba:	4603      	mov	r3, r0
    96bc:	b168      	cbz	r0, 96da <svcSignalSet+0x22>
    96be:	0782      	lsls	r2, r0, #30
    96c0:	d10b      	bne.n	96da <svcSignalSet+0x22>
    96c2:	7802      	ldrb	r2, [r0, #0]
    96c4:	b94a      	cbnz	r2, 96da <svcSignalSet+0x22>
    96c6:	0c0a      	lsrs	r2, r1, #16
    96c8:	0412      	lsls	r2, r2, #16
    96ca:	b932      	cbnz	r2, 96da <svcSignalSet+0x22>
    96cc:	8b1c      	ldrh	r4, [r3, #24]
    96ce:	b288      	uxth	r0, r1
    96d0:	78d9      	ldrb	r1, [r3, #3]
    96d2:	f000 fb33 	bl	9d3c <rt_evt_set>
    96d6:	4620      	mov	r0, r4
    96d8:	bd10      	pop	{r4, pc}
    96da:	f04f 4000 	mov.w	r0, #2147483648	; 0x80000000
    96de:	bd10      	pop	{r4, pc}

000096e0 <svcSignalWait>:
    96e0:	e92d 41f0 	stmdb	sp!, {r4, r5, r6, r7, r8, lr}
    96e4:	ea4f 4810 	mov.w	r8, r0, lsr #16
    96e8:	ea4f 4808 	mov.w	r8, r8, lsl #16
    96ec:	4604      	mov	r4, r0
    96ee:	460d      	mov	r5, r1
    96f0:	f1b8 0f00 	cmp.w	r8, #0
    96f4:	d132      	bne.n	975c <svcSignalWait+0x7c>
    96f6:	b1d8      	cbz	r0, 9730 <svcSignalWait+0x50>
    96f8:	1c4a      	adds	r2, r1, #1
    96fa:	b286      	uxth	r6, r0
    96fc:	d040      	beq.n	9780 <svcSignalWait+0xa0>
    96fe:	4b22      	ldr	r3, [pc, #136]	; (9788 <svcSignalWait+0xa8>)
    9700:	4299      	cmp	r1, r3
    9702:	d831      	bhi.n	9768 <svcSignalWait+0x88>
    9704:	4608      	mov	r0, r1
    9706:	f7ff fe0f 	bl	9328 <rt_ms2tick.part.0>
    970a:	b281      	uxth	r1, r0
    970c:	4630      	mov	r0, r6
    970e:	2201      	movs	r2, #1
    9710:	f000 faf0 	bl	9cf4 <rt_evt_wait>
    9714:	2802      	cmp	r0, #2
    9716:	d030      	beq.n	977a <svcSignalWait+0x9a>
    9718:	2d00      	cmp	r5, #0
    971a:	bf0c      	ite	eq
    971c:	2300      	moveq	r3, #0
    971e:	2340      	movne	r3, #64	; 0x40
    9720:	2400      	movs	r4, #0
    9722:	4625      	mov	r5, r4
    9724:	4618      	mov	r0, r3
    9726:	4641      	mov	r1, r8
    9728:	462a      	mov	r2, r5
    972a:	462b      	mov	r3, r5
    972c:	e8bd 81f0 	ldmia.w	sp!, {r4, r5, r6, r7, r8, pc}
    9730:	1c4b      	adds	r3, r1, #1
    9732:	d01f      	beq.n	9774 <svcSignalWait+0x94>
    9734:	4b14      	ldr	r3, [pc, #80]	; (9788 <svcSignalWait+0xa8>)
    9736:	4299      	cmp	r1, r3
    9738:	d819      	bhi.n	976e <svcSignalWait+0x8e>
    973a:	4608      	mov	r0, r1
    973c:	f7ff fdf4 	bl	9328 <rt_ms2tick.part.0>
    9740:	b281      	uxth	r1, r0
    9742:	f64f 70ff 	movw	r0, #65535	; 0xffff
    9746:	2200      	movs	r2, #0
    9748:	f000 fad4 	bl	9cf4 <rt_evt_wait>
    974c:	2802      	cmp	r0, #2
    974e:	d1e3      	bne.n	9718 <svcSignalWait+0x38>
    9750:	4a0e      	ldr	r2, [pc, #56]	; (978c <svcSignalWait+0xac>)
    9752:	2308      	movs	r3, #8
    9754:	6812      	ldr	r2, [r2, #0]
    9756:	f8b2 801a 	ldrh.w	r8, [r2, #26]
    975a:	e7e1      	b.n	9720 <svcSignalWait+0x40>
    975c:	2100      	movs	r1, #0
    975e:	2086      	movs	r0, #134	; 0x86
    9760:	460a      	mov	r2, r1
    9762:	460b      	mov	r3, r1
    9764:	e8bd 81f0 	ldmia.w	sp!, {r4, r5, r6, r7, r8, pc}
    9768:	f64f 71fe 	movw	r1, #65534	; 0xfffe
    976c:	e7ce      	b.n	970c <svcSignalWait+0x2c>
    976e:	f64f 71fe 	movw	r1, #65534	; 0xfffe
    9772:	e7e6      	b.n	9742 <svcSignalWait+0x62>
    9774:	f64f 71ff 	movw	r1, #65535	; 0xffff
    9778:	e7e3      	b.n	9742 <svcSignalWait+0x62>
    977a:	46a0      	mov	r8, r4
    977c:	2308      	movs	r3, #8
    977e:	e7cf      	b.n	9720 <svcSignalWait+0x40>
    9780:	f64f 71ff 	movw	r1, #65535	; 0xffff
    9784:	e7c2      	b.n	970c <svcSignalWait+0x2c>
    9786:	bf00      	nop
    9788:	003d0900 	.word	0x003d0900
    978c:	10001084 	.word	0x10001084

00009790 <osSignalSet>:
    9790:	b538      	push	{r3, r4, r5, lr}
    9792:	4604      	mov	r4, r0
    9794:	f3ef 8005 	mrs	r0, IPSR
    9798:	b920      	cbnz	r0, 97a4 <osSignalSet+0x14>
    979a:	4620      	mov	r0, r4
    979c:	f8df c028 	ldr.w	r12, [pc, #40]	; 97c8 <osSignalSet+0x38>
    97a0:	df00      	svc	0
    97a2:	bd38      	pop	{r3, r4, r5, pc}
    97a4:	b16c      	cbz	r4, 97c2 <osSignalSet+0x32>
    97a6:	07a3      	lsls	r3, r4, #30
    97a8:	d10b      	bne.n	97c2 <osSignalSet+0x32>
    97aa:	7823      	ldrb	r3, [r4, #0]
    97ac:	b94b      	cbnz	r3, 97c2 <osSignalSet+0x32>
    97ae:	0c0b      	lsrs	r3, r1, #16
    97b0:	041b      	lsls	r3, r3, #16
    97b2:	b933      	cbnz	r3, 97c2 <osSignalSet+0x32>
    97b4:	8b25      	ldrh	r5, [r4, #24]
    97b6:	b288      	uxth	r0, r1
    97b8:	78e1      	ldrb	r1, [r4, #3]
    97ba:	f000 faed 	bl	9d98 <isr_evt_set>
    97be:	4628      	mov	r0, r5
    97c0:	bd38      	pop	{r3, r4, r5, pc}
    97c2:	f04f 4000 	mov.w	r0, #2147483648	; 0x80000000
    97c6:	bd38      	pop	{r3, r4, r5, pc}
    97c8:	000096b9 	.word	0x000096b9

000097cc <osSignalWait>:
    97cc:	b570      	push	{r4, r5, r6, lr}
    97ce:	4604      	mov	r4, r0
    97d0:	f3ef 8505 	mrs	r5, IPSR
    97d4:	b945      	cbnz	r5, 97e8 <osSignalWait+0x1c>
    97d6:	4608      	mov	r0, r1
    97d8:	4611      	mov	r1, r2
    97da:	f8df c014 	ldr.w	r12, [pc, #20]	; 97f0 <osSignalWait+0x24>
    97de:	df00      	svc	0
    97e0:	e884 0007 	stmia.w	r4, {r0, r1, r2}
    97e4:	4620      	mov	r0, r4
    97e6:	bd70      	pop	{r4, r5, r6, pc}
    97e8:	2382      	movs	r3, #130	; 0x82
    97ea:	6003      	str	r3, [r0, #0]
    97ec:	4620      	mov	r0, r4
    97ee:	bd70      	pop	{r4, r5, r6, pc}
    97f0:	000096e1 	.word	0x000096e1

000097f4 <svcMutexCreate>:
    97f4:	b510      	push	{r4, lr}
    97f6:	b140      	cbz	r0, 980a <svcMutexCreate+0x16>
    97f8:	6804      	ldr	r4, [r0, #0]
    97fa:	b134      	cbz	r4, 980a <svcMutexCreate+0x16>
    97fc:	7823      	ldrb	r3, [r4, #0]
    97fe:	b923      	cbnz	r3, 980a <svcMutexCreate+0x16>
    9800:	4620      	mov	r0, r4
    9802:	f000 fda7 	bl	a354 <rt_mut_init>
    9806:	4620      	mov	r0, r4
    9808:	bd10      	pop	{r4, pc}
    980a:	2080      	movs	r0, #128	; 0x80
    980c:	f001 f9f6 	bl	abfc <sysThreadError>
    9810:	2000      	movs	r0, #0
    9812:	bd10      	pop	{r4, pc}

00009814 <svcMutexWait>:
    9814:	b570      	push	{r4, r5, r6, lr}
    9816:	f010 0603 	ands.w	r6, r0, #3
    981a:	4604      	mov	r4, r0
    981c:	460d      	mov	r5, r1
    981e:	d103      	bne.n	9828 <svcMutexWait+0x14>
    9820:	b110      	cbz	r0, 9828 <svcMutexWait+0x14>
    9822:	7803      	ldrb	r3, [r0, #0]
    9824:	2b03      	cmp	r3, #3
    9826:	d001      	beq.n	982c <svcMutexWait+0x18>
    9828:	2080      	movs	r0, #128	; 0x80
    982a:	bd70      	pop	{r4, r5, r6, pc}
    982c:	1c4b      	adds	r3, r1, #1
    982e:	d015      	beq.n	985c <svcMutexWait+0x48>
    9830:	4b0e      	ldr	r3, [pc, #56]	; (986c <svcMutexWait+0x58>)
    9832:	4299      	cmp	r1, r3
    9834:	d80a      	bhi.n	984c <svcMutexWait+0x38>
    9836:	4608      	mov	r0, r1
    9838:	f7ff fd76 	bl	9328 <rt_ms2tick.part.0>
    983c:	b281      	uxth	r1, r0
    983e:	4620      	mov	r0, r4
    9840:	f000 fdf0 	bl	a424 <rt_mut_wait>
    9844:	2801      	cmp	r0, #1
    9846:	d004      	beq.n	9852 <svcMutexWait+0x3e>
    9848:	2000      	movs	r0, #0
    984a:	bd70      	pop	{r4, r5, r6, pc}
    984c:	f64f 71fe 	movw	r1, #65534	; 0xfffe
    9850:	e7f5      	b.n	983e <svcMutexWait+0x2a>
    9852:	b10d      	cbz	r5, 9858 <svcMutexWait+0x44>
    9854:	20c1      	movs	r0, #193	; 0xc1
    9856:	bd70      	pop	{r4, r5, r6, pc}
    9858:	2081      	movs	r0, #129	; 0x81
    985a:	bd70      	pop	{r4, r5, r6, pc}
    985c:	f64f 71ff 	movw	r1, #65535	; 0xffff
    9860:	f000 fde0 	bl	a424 <rt_mut_wait>
    9864:	2801      	cmp	r0, #1
    9866:	d1ef      	bne.n	9848 <svcMutexWait+0x34>
    9868:	e7f4      	b.n	9854 <svcMutexWait+0x40>
    986a:	bf00      	nop
    986c:	003d0900 	.word	0x003d0900

00009870 <svcMutexRelease>:
    9870:	0782      	lsls	r2, r0, #30
    9872:	b508      	push	{r3, lr}
    9874:	d103      	bne.n	987e <svcMutexRelease+0xe>
    9876:	b110      	cbz	r0, 987e <svcMutexRelease+0xe>
    9878:	7803      	ldrb	r3, [r0, #0]
    987a:	2b03      	cmp	r3, #3
    987c:	d001      	beq.n	9882 <svcMutexRelease+0x12>
    987e:	2080      	movs	r0, #128	; 0x80
    9880:	bd08      	pop	{r3, pc}
    9882:	f000 fd6f 	bl	a364 <rt_mut_release>
    9886:	28ff      	cmp	r0, #255	; 0xff
    9888:	bf14      	ite	ne
    988a:	2000      	movne	r0, #0
    988c:	2081      	moveq	r0, #129	; 0x81
    988e:	bd08      	pop	{r3, pc}

00009890 <osMutexCreate>:
    9890:	b510      	push	{r4, lr}
    9892:	f3ef 8405 	mrs	r4, IPSR
    9896:	b974      	cbnz	r4, 98b6 <osMutexCreate+0x26>
    9898:	f3ef 8414 	mrs	r4, CONTROL
    989c:	07e4      	lsls	r4, r4, #31
    989e:	d402      	bmi.n	98a6 <osMutexCreate+0x16>
    98a0:	4c06      	ldr	r4, [pc, #24]	; (98bc <osMutexCreate+0x2c>)
    98a2:	7824      	ldrb	r4, [r4, #0]
    98a4:	b11c      	cbz	r4, 98ae <osMutexCreate+0x1e>
    98a6:	f8df c018 	ldr.w	r12, [pc, #24]	; 98c0 <osMutexCreate+0x30>
    98aa:	df00      	svc	0
    98ac:	bd10      	pop	{r4, pc}
    98ae:	e8bd 4010 	ldmia.w	sp!, {r4, lr}
    98b2:	f7ff bf9f 	b.w	97f4 <svcMutexCreate>
    98b6:	2000      	movs	r0, #0
    98b8:	bd10      	pop	{r4, pc}
    98ba:	bf00      	nop
    98bc:	10001049 	.word	0x10001049
    98c0:	000097f5 	.word	0x000097f5

000098c4 <osMutexWait>:
    98c4:	b510      	push	{r4, lr}
    98c6:	f3ef 8405 	mrs	r4, IPSR
    98ca:	b10c      	cbz	r4, 98d0 <osMutexWait+0xc>
    98cc:	2082      	movs	r0, #130	; 0x82
    98ce:	bd10      	pop	{r4, pc}
    98d0:	f8df c004 	ldr.w	r12, [pc, #4]	; 98d8 <osMutexWait+0x14>
    98d4:	df00      	svc	0
    98d6:	bd10      	pop	{r4, pc}
    98d8:	00009815 	.word	0x00009815

000098dc <osMutexRelease>:
    98dc:	b510      	push	{r4, lr}
    98de:	f3ef 8405 	mrs	r4, IPSR
    98e2:	b10c      	cbz	r4, 98e8 <osMutexRelease+0xc>
    98e4:	2082      	movs	r0, #130	; 0x82
    98e6:	bd10      	pop	{r4, pc}
    98e8:	f8df c004 	ldr.w	r12, [pc, #4]	; 98f0 <osMutexRelease+0x14>
    98ec:	df00      	svc	0
    98ee:	bd10      	pop	{r4, pc}
    98f0:	00009871 	.word	0x00009871

000098f4 <svcSemaphoreCreate>:
    98f4:	b538      	push	{r3, r4, r5, lr}
    98f6:	b188      	cbz	r0, 991c <svcSemaphoreCreate+0x28>
    98f8:	6804      	ldr	r4, [r0, #0]
    98fa:	b17c      	cbz	r4, 991c <svcSemaphoreCreate+0x28>
    98fc:	7825      	ldrb	r5, [r4, #0]
    98fe:	b96d      	cbnz	r5, 991c <svcSemaphoreCreate+0x28>
    9900:	f5b1 3f80 	cmp.w	r1, #65536	; 0x10000
    9904:	da05      	bge.n	9912 <svcSemaphoreCreate+0x1e>
    9906:	4620      	mov	r0, r4
    9908:	b289      	uxth	r1, r1
    990a:	f000 fdbd 	bl	a488 <rt_sem_init>
    990e:	4620      	mov	r0, r4
    9910:	bd38      	pop	{r3, r4, r5, pc}
    9912:	2086      	movs	r0, #134	; 0x86
    9914:	f001 f972 	bl	abfc <sysThreadError>
    9918:	4628      	mov	r0, r5
    991a:	bd38      	pop	{r3, r4, r5, pc}
    991c:	2080      	movs	r0, #128	; 0x80
    991e:	f001 f96d 	bl	abfc <sysThreadError>
    9922:	2000      	movs	r0, #0
    9924:	bd38      	pop	{r3, r4, r5, pc}
    9926:	bf00      	nop

00009928 <svcSemaphoreWait>:
    9928:	0782      	lsls	r2, r0, #30
    992a:	b510      	push	{r4, lr}
    992c:	4604      	mov	r4, r0
    992e:	d114      	bne.n	995a <svcSemaphoreWait+0x32>
    9930:	b198      	cbz	r0, 995a <svcSemaphoreWait+0x32>
    9932:	7803      	ldrb	r3, [r0, #0]
    9934:	2b02      	cmp	r3, #2
    9936:	d110      	bne.n	995a <svcSemaphoreWait+0x32>
    9938:	1c4b      	adds	r3, r1, #1
    993a:	d01a      	beq.n	9972 <svcSemaphoreWait+0x4a>
    993c:	4b0e      	ldr	r3, [pc, #56]	; (9978 <svcSemaphoreWait+0x50>)
    993e:	4299      	cmp	r1, r3
    9940:	d80e      	bhi.n	9960 <svcSemaphoreWait+0x38>
    9942:	4608      	mov	r0, r1
    9944:	f7ff fcf0 	bl	9328 <rt_ms2tick.part.0>
    9948:	b281      	uxth	r1, r0
    994a:	4620      	mov	r0, r4
    994c:	f000 fde8 	bl	a520 <rt_sem_wait>
    9950:	2801      	cmp	r0, #1
    9952:	d00c      	beq.n	996e <svcSemaphoreWait+0x46>
    9954:	8860      	ldrh	r0, [r4, #2]
    9956:	3001      	adds	r0, #1
    9958:	bd10      	pop	{r4, pc}
    995a:	f04f 30ff 	mov.w	r0, #4294967295	; 0xffffffff
    995e:	bd10      	pop	{r4, pc}
    9960:	f64f 71fe 	movw	r1, #65534	; 0xfffe
    9964:	4620      	mov	r0, r4
    9966:	f000 fddb 	bl	a520 <rt_sem_wait>
    996a:	2801      	cmp	r0, #1
    996c:	d1f2      	bne.n	9954 <svcSemaphoreWait+0x2c>
    996e:	2000      	movs	r0, #0
    9970:	bd10      	pop	{r4, pc}
    9972:	f64f 71ff 	movw	r1, #65535	; 0xffff
    9976:	e7e8      	b.n	994a <svcSemaphoreWait+0x22>
    9978:	003d0900 	.word	0x003d0900

0000997c <svcSemaphoreRelease>:
    997c:	b510      	push	{r4, lr}
    997e:	f010 0403 	ands.w	r4, r0, #3
    9982:	d103      	bne.n	998c <svcSemaphoreRelease+0x10>
    9984:	b110      	cbz	r0, 998c <svcSemaphoreRelease+0x10>
    9986:	7802      	ldrb	r2, [r0, #0]
    9988:	2a02      	cmp	r2, #2
    998a:	d001      	beq.n	9990 <svcSemaphoreRelease+0x14>
    998c:	2080      	movs	r0, #128	; 0x80
    998e:	bd10      	pop	{r4, pc}
    9990:	8842      	ldrh	r2, [r0, #2]
    9992:	f64f 73ff 	movw	r3, #65535	; 0xffff
    9996:	429a      	cmp	r2, r3
    9998:	d101      	bne.n	999e <svcSemaphoreRelease+0x22>
    999a:	2081      	movs	r0, #129	; 0x81
    999c:	bd10      	pop	{r4, pc}
    999e:	f000 fda9 	bl	a4f4 <rt_sem_send>
    99a2:	4620      	mov	r0, r4
    99a4:	bd10      	pop	{r4, pc}
    99a6:	bf00      	nop

000099a8 <svcSemaphoreDelete>:
    99a8:	b510      	push	{r4, lr}
    99aa:	f010 0403 	ands.w	r4, r0, #3
    99ae:	d103      	bne.n	99b8 <svcSemaphoreDelete+0x10>
    99b0:	b110      	cbz	r0, 99b8 <svcSemaphoreDelete+0x10>
    99b2:	7803      	ldrb	r3, [r0, #0]
    99b4:	2b02      	cmp	r3, #2
    99b6:	d001      	beq.n	99bc <svcSemaphoreDelete+0x14>
    99b8:	2080      	movs	r0, #128	; 0x80
    99ba:	bd10      	pop	{r4, pc}
    99bc:	f000 fd6a 	bl	a494 <rt_sem_delete>
    99c0:	4620      	mov	r0, r4
    99c2:	bd10      	pop	{r4, pc}

000099c4 <osSemaphoreCreate>:
    99c4:	b510      	push	{r4, lr}
    99c6:	f3ef 8405 	mrs	r4, IPSR
    99ca:	b974      	cbnz	r4, 99ea <osSemaphoreCreate+0x26>
    99cc:	f3ef 8414 	mrs	r4, CONTROL
    99d0:	07e4      	lsls	r4, r4, #31
    99d2:	d402      	bmi.n	99da <osSemaphoreCreate+0x16>
    99d4:	4c06      	ldr	r4, [pc, #24]	; (99f0 <osSemaphoreCreate+0x2c>)
    99d6:	7824      	ldrb	r4, [r4, #0]
    99d8:	b11c      	cbz	r4, 99e2 <osSemaphoreCreate+0x1e>
    99da:	f8df c018 	ldr.w	r12, [pc, #24]	; 99f4 <osSemaphoreCreate+0x30>
    99de:	df00      	svc	0
    99e0:	bd10      	pop	{r4, pc}
    99e2:	e8bd 4010 	ldmia.w	sp!, {r4, lr}
    99e6:	f7ff bf85 	b.w	98f4 <svcSemaphoreCreate>
    99ea:	2000      	movs	r0, #0
    99ec:	bd10      	pop	{r4, pc}
    99ee:	bf00      	nop
    99f0:	10001049 	.word	0x10001049
    99f4:	000098f5 	.word	0x000098f5

000099f8 <osSemaphoreWait>:
    99f8:	b510      	push	{r4, lr}
    99fa:	f3ef 8405 	mrs	r4, IPSR
    99fe:	b91c      	cbnz	r4, 9a08 <osSemaphoreWait+0x10>
    9a00:	f8df c00c 	ldr.w	r12, [pc, #12]	; 9a10 <osSemaphoreWait+0x18>
    9a04:	df00      	svc	0
    9a06:	bd10      	pop	{r4, pc}
    9a08:	f04f 30ff 	mov.w	r0, #4294967295	; 0xffffffff
    9a0c:	bd10      	pop	{r4, pc}
    9a0e:	0000      	.short	0x0000
    9a10:	00009929 	.word	0x00009929

00009a14 <osSemaphoreRelease>:
    9a14:	b510      	push	{r4, lr}
    9a16:	f3ef 8405 	mrs	r4, IPSR
    9a1a:	b91c      	cbnz	r4, 9a24 <osSemaphoreRelease+0x10>
    9a1c:	f8df c02c 	ldr.w	r12, [pc, #44]	; 9a4c <osSemaphoreRelease+0x38>
    9a20:	df00      	svc	0
    9a22:	bd10      	pop	{r4, pc}
    9a24:	f010 0403 	ands.w	r4, r0, #3
    9a28:	d103      	bne.n	9a32 <osSemaphoreRelease+0x1e>
    9a2a:	b110      	cbz	r0, 9a32 <osSemaphoreRelease+0x1e>
    9a2c:	7803      	ldrb	r3, [r0, #0]
    9a2e:	2b02      	cmp	r3, #2
    9a30:	d001      	beq.n	9a36 <osSemaphoreRelease+0x22>
    9a32:	2080      	movs	r0, #128	; 0x80
    9a34:	bd10      	pop	{r4, pc}
    9a36:	8842      	ldrh	r2, [r0, #2]
    9a38:	f64f 73ff 	movw	r3, #65535	; 0xffff
    9a3c:	429a      	cmp	r2, r3
    9a3e:	d101      	bne.n	9a44 <osSemaphoreRelease+0x30>
    9a40:	2081      	movs	r0, #129	; 0x81
    9a42:	bd10      	pop	{r4, pc}
    9a44:	f000 fd8c 	bl	a560 <isr_sem_send>
    9a48:	4620      	mov	r0, r4
    9a4a:	bd10      	pop	{r4, pc}
    9a4c:	0000997d 	.word	0x0000997d

00009a50 <osSemaphoreDelete>:
    9a50:	b510      	push	{r4, lr}
    9a52:	f3ef 8405 	mrs	r4, IPSR
    9a56:	b10c      	cbz	r4, 9a5c <osSemaphoreDelete+0xc>
    9a58:	2082      	movs	r0, #130	; 0x82
    9a5a:	bd10      	pop	{r4, pc}
    9a5c:	f8df c004 	ldr.w	r12, [pc, #4]	; 9a64 <osSemaphoreDelete+0x14>
    9a60:	df00      	svc	0
    9a62:	bd10      	pop	{r4, pc}
    9a64:	000099a9 	.word	0x000099a9

00009a68 <svcMessageCreate>:
    9a68:	b510      	push	{r4, lr}
    9a6a:	4604      	mov	r4, r0
    9a6c:	b160      	cbz	r0, 9a88 <svcMessageCreate+0x20>
    9a6e:	6801      	ldr	r1, [r0, #0]
    9a70:	b151      	cbz	r1, 9a88 <svcMessageCreate+0x20>
    9a72:	6840      	ldr	r0, [r0, #4]
    9a74:	b140      	cbz	r0, 9a88 <svcMessageCreate+0x20>
    9a76:	7803      	ldrb	r3, [r0, #0]
    9a78:	b933      	cbnz	r3, 9a88 <svcMessageCreate+0x20>
    9a7a:	3104      	adds	r1, #4
    9a7c:	0089      	lsls	r1, r1, #2
    9a7e:	b289      	uxth	r1, r1
    9a80:	f000 faea 	bl	a058 <rt_mbx_init>
    9a84:	6860      	ldr	r0, [r4, #4]
    9a86:	bd10      	pop	{r4, pc}
    9a88:	2080      	movs	r0, #128	; 0x80
    9a8a:	f001 f8b7 	bl	abfc <sysThreadError>
    9a8e:	2000      	movs	r0, #0
    9a90:	bd10      	pop	{r4, pc}
    9a92:	bf00      	nop

00009a94 <svcKernelStart>:
    9a94:	b538      	push	{r3, r4, r5, lr}
    9a96:	4d11      	ldr	r5, [pc, #68]	; (9adc <svcKernelStart+0x48>)
    9a98:	782c      	ldrb	r4, [r5, #0]
    9a9a:	b9e4      	cbnz	r4, 9ad6 <svcKernelStart+0x42>
    9a9c:	4621      	mov	r1, r4
    9a9e:	4810      	ldr	r0, [pc, #64]	; (9ae0 <svcKernelStart+0x4c>)
    9aa0:	f7ff ffe2 	bl	9a68 <svcMessageCreate>
    9aa4:	4b0f      	ldr	r3, [pc, #60]	; (9ae4 <svcKernelStart+0x50>)
    9aa6:	4621      	mov	r1, r4
    9aa8:	6018      	str	r0, [r3, #0]
    9aaa:	480f      	ldr	r0, [pc, #60]	; (9ae8 <svcKernelStart+0x54>)
    9aac:	f7ff fcb2 	bl	9414 <svcThreadCreate>
    9ab0:	4b0e      	ldr	r3, [pc, #56]	; (9aec <svcKernelStart+0x58>)
    9ab2:	4621      	mov	r1, r4
    9ab4:	6018      	str	r0, [r3, #0]
    9ab6:	4620      	mov	r0, r4
    9ab8:	f000 fe9c 	bl	a7f4 <rt_tsk_prio>
    9abc:	4b0c      	ldr	r3, [pc, #48]	; (9af0 <svcKernelStart+0x5c>)
    9abe:	681b      	ldr	r3, [r3, #0]
    9ac0:	6a5b      	ldr	r3, [r3, #36]	; 0x24
    9ac2:	3320      	adds	r3, #32
    9ac4:	f383 8809 	msr	PSP, r3
    9ac8:	4b09      	ldr	r3, [pc, #36]	; (9af0 <svcKernelStart+0x5c>)
    9aca:	2200      	movs	r2, #0
    9acc:	601a      	str	r2, [r3, #0]
    9ace:	f000 ff83 	bl	a9d8 <rt_sys_start>
    9ad2:	2301      	movs	r3, #1
    9ad4:	702b      	strb	r3, [r5, #0]
    9ad6:	2000      	movs	r0, #0
    9ad8:	bd38      	pop	{r3, r4, r5, pc}
    9ada:	bf00      	nop
    9adc:	10001049 	.word	0x10001049
    9ae0:	10000124 	.word	0x10000124
    9ae4:	100013a0 	.word	0x100013a0
    9ae8:	1000012c 	.word	0x1000012c
    9aec:	10001ba4 	.word	0x10001ba4
    9af0:	10001084 	.word	0x10001084

00009af4 <svcMessagePut>:
    9af4:	b570      	push	{r4, r5, r6, lr}
    9af6:	4615      	mov	r5, r2
    9af8:	460e      	mov	r6, r1
    9afa:	4604      	mov	r4, r0
    9afc:	b110      	cbz	r0, 9b04 <svcMessagePut+0x10>
    9afe:	7803      	ldrb	r3, [r0, #0]
    9b00:	2b01      	cmp	r3, #1
    9b02:	d001      	beq.n	9b08 <svcMessagePut+0x14>
    9b04:	2080      	movs	r0, #128	; 0x80
    9b06:	bd70      	pop	{r4, r5, r6, pc}
    9b08:	1c53      	adds	r3, r2, #1
    9b0a:	d016      	beq.n	9b3a <svcMessagePut+0x46>
    9b0c:	4b0e      	ldr	r3, [pc, #56]	; (9b48 <svcMessagePut+0x54>)
    9b0e:	429a      	cmp	r2, r3
    9b10:	d80b      	bhi.n	9b2a <svcMessagePut+0x36>
    9b12:	4610      	mov	r0, r2
    9b14:	f7ff fc08 	bl	9328 <rt_ms2tick.part.0>
    9b18:	b282      	uxth	r2, r0
    9b1a:	4620      	mov	r0, r4
    9b1c:	4631      	mov	r1, r6
    9b1e:	f000 faa9 	bl	a074 <rt_mbx_send>
    9b22:	2801      	cmp	r0, #1
    9b24:	d004      	beq.n	9b30 <svcMessagePut+0x3c>
    9b26:	2000      	movs	r0, #0
    9b28:	bd70      	pop	{r4, r5, r6, pc}
    9b2a:	f64f 72fe 	movw	r2, #65534	; 0xfffe
    9b2e:	e7f4      	b.n	9b1a <svcMessagePut+0x26>
    9b30:	b10d      	cbz	r5, 9b36 <svcMessagePut+0x42>
    9b32:	20c1      	movs	r0, #193	; 0xc1
    9b34:	bd70      	pop	{r4, r5, r6, pc}
    9b36:	2081      	movs	r0, #129	; 0x81
    9b38:	bd70      	pop	{r4, r5, r6, pc}
    9b3a:	f64f 72ff 	movw	r2, #65535	; 0xffff
    9b3e:	f000 fa99 	bl	a074 <rt_mbx_send>
    9b42:	2801      	cmp	r0, #1
    9b44:	d1ef      	bne.n	9b26 <svcMessagePut+0x32>
    9b46:	e7f4      	b.n	9b32 <svcMessagePut+0x3e>
    9b48:	003d0900 	.word	0x003d0900

00009b4c <svcMessageGet>:
    9b4c:	e92d 4ff0 	stmdb	sp!, {r4, r5, r6, r7, r8, r9, r10, r11, lr}
    9b50:	460c      	mov	r4, r1
    9b52:	b085      	sub	sp, #20
    9b54:	4680      	mov	r8, r0
    9b56:	b348      	cbz	r0, 9bac <svcMessageGet+0x60>
    9b58:	7803      	ldrb	r3, [r0, #0]
    9b5a:	2b01      	cmp	r3, #1
    9b5c:	d00a      	beq.n	9b74 <svcMessageGet+0x28>
    9b5e:	2500      	movs	r5, #0
    9b60:	2480      	movs	r4, #128	; 0x80
    9b62:	462e      	mov	r6, r5
    9b64:	462f      	mov	r7, r5
    9b66:	463b      	mov	r3, r7
    9b68:	4620      	mov	r0, r4
    9b6a:	4629      	mov	r1, r5
    9b6c:	4632      	mov	r2, r6
    9b6e:	b005      	add	sp, #20
    9b70:	e8bd 8ff0 	ldmia.w	sp!, {r4, r5, r6, r7, r8, r9, r10, r11, pc}
    9b74:	1c4b      	adds	r3, r1, #1
    9b76:	d024      	beq.n	9bc2 <svcMessageGet+0x76>
    9b78:	4b16      	ldr	r3, [pc, #88]	; (9bd4 <svcMessageGet+0x88>)
    9b7a:	4299      	cmp	r1, r3
    9b7c:	d911      	bls.n	9ba2 <svcMessageGet+0x56>
    9b7e:	f64f 72fe 	movw	r2, #65534	; 0xfffe
    9b82:	4640      	mov	r0, r8
    9b84:	a902      	add	r1, sp, #8
    9b86:	f000 fac5 	bl	a114 <rt_mbx_wait>
    9b8a:	2801      	cmp	r0, #1
    9b8c:	d013      	beq.n	9bb6 <svcMessageGet+0x6a>
    9b8e:	2000      	movs	r0, #0
    9b90:	4602      	mov	r2, r0
    9b92:	4603      	mov	r3, r0
    9b94:	2010      	movs	r0, #16
    9b96:	9902      	ldr	r1, [sp, #8]
    9b98:	4604      	mov	r4, r0
    9b9a:	460d      	mov	r5, r1
    9b9c:	4616      	mov	r6, r2
    9b9e:	461f      	mov	r7, r3
    9ba0:	e7e1      	b.n	9b66 <svcMessageGet+0x1a>
    9ba2:	4608      	mov	r0, r1
    9ba4:	f7ff fbc0 	bl	9328 <rt_ms2tick.part.0>
    9ba8:	b282      	uxth	r2, r0
    9baa:	e7ea      	b.n	9b82 <svcMessageGet+0x36>
    9bac:	2480      	movs	r4, #128	; 0x80
    9bae:	4605      	mov	r5, r0
    9bb0:	4606      	mov	r6, r0
    9bb2:	4607      	mov	r7, r0
    9bb4:	e7d7      	b.n	9b66 <svcMessageGet+0x1a>
    9bb6:	b95c      	cbnz	r4, 9bd0 <svcMessageGet+0x84>
    9bb8:	2000      	movs	r0, #0
    9bba:	4602      	mov	r2, r0
    9bbc:	4603      	mov	r3, r0
    9bbe:	4620      	mov	r0, r4
    9bc0:	e7e9      	b.n	9b96 <svcMessageGet+0x4a>
    9bc2:	a902      	add	r1, sp, #8
    9bc4:	f64f 72ff 	movw	r2, #65535	; 0xffff
    9bc8:	f000 faa4 	bl	a114 <rt_mbx_wait>
    9bcc:	2801      	cmp	r0, #1
    9bce:	d1de      	bne.n	9b8e <svcMessageGet+0x42>
    9bd0:	2440      	movs	r4, #64	; 0x40
    9bd2:	e7f1      	b.n	9bb8 <svcMessageGet+0x6c>
    9bd4:	003d0900 	.word	0x003d0900

00009bd8 <osMessageCreate>:
    9bd8:	b510      	push	{r4, lr}
    9bda:	f3ef 8405 	mrs	r4, IPSR
    9bde:	b974      	cbnz	r4, 9bfe <osMessageCreate+0x26>
    9be0:	f3ef 8414 	mrs	r4, CONTROL
    9be4:	07e4      	lsls	r4, r4, #31
    9be6:	d402      	bmi.n	9bee <osMessageCreate+0x16>
    9be8:	4c06      	ldr	r4, [pc, #24]	; (9c04 <osMessageCreate+0x2c>)
    9bea:	7824      	ldrb	r4, [r4, #0]
    9bec:	b11c      	cbz	r4, 9bf6 <osMessageCreate+0x1e>
    9bee:	f8df c018 	ldr.w	r12, [pc, #24]	; 9c08 <osMessageCreate+0x30>
    9bf2:	df00      	svc	0
    9bf4:	bd10      	pop	{r4, pc}
    9bf6:	e8bd 4010 	ldmia.w	sp!, {r4, lr}
    9bfa:	f7ff bf35 	b.w	9a68 <svcMessageCreate>
    9bfe:	2000      	movs	r0, #0
    9c00:	bd10      	pop	{r4, pc}
    9c02:	bf00      	nop
    9c04:	10001049 	.word	0x10001049
    9c08:	00009a69 	.word	0x00009a69

00009c0c <osMessagePut>:
    9c0c:	b510      	push	{r4, lr}
    9c0e:	4604      	mov	r4, r0
    9c10:	b082      	sub	sp, #8
    9c12:	f3ef 8005 	mrs	r0, IPSR
    9c16:	b928      	cbnz	r0, 9c24 <osMessagePut+0x18>
    9c18:	4620      	mov	r0, r4
    9c1a:	f8df c038 	ldr.w	r12, [pc, #56]	; 9c54 <osMessagePut+0x48>
    9c1e:	df00      	svc	0
    9c20:	b002      	add	sp, #8
    9c22:	bd10      	pop	{r4, pc}
    9c24:	b11c      	cbz	r4, 9c2e <osMessagePut+0x22>
    9c26:	b912      	cbnz	r2, 9c2e <osMessagePut+0x22>
    9c28:	7823      	ldrb	r3, [r4, #0]
    9c2a:	2b01      	cmp	r3, #1
    9c2c:	d002      	beq.n	9c34 <osMessagePut+0x28>
    9c2e:	2080      	movs	r0, #128	; 0x80
    9c30:	b002      	add	sp, #8
    9c32:	bd10      	pop	{r4, pc}
    9c34:	4620      	mov	r0, r4
    9c36:	9101      	str	r1, [sp, #4]
    9c38:	9200      	str	r2, [sp, #0]
    9c3a:	f000 fac1 	bl	a1c0 <rt_mbx_check>
    9c3e:	9901      	ldr	r1, [sp, #4]
    9c40:	b908      	cbnz	r0, 9c46 <osMessagePut+0x3a>
    9c42:	2081      	movs	r0, #129	; 0x81
    9c44:	e7ec      	b.n	9c20 <osMessagePut+0x14>
    9c46:	4620      	mov	r0, r4
    9c48:	f000 fabe 	bl	a1c8 <isr_mbx_send>
    9c4c:	9a00      	ldr	r2, [sp, #0]
    9c4e:	4610      	mov	r0, r2
    9c50:	e7e6      	b.n	9c20 <osMessagePut+0x14>
    9c52:	0000      	.short	0x0000
    9c54:	00009af5 	.word	0x00009af5

00009c58 <osMessageGet>:
    9c58:	b570      	push	{r4, r5, r6, lr}
    9c5a:	4604      	mov	r4, r0
    9c5c:	b084      	sub	sp, #16
    9c5e:	4616      	mov	r6, r2
    9c60:	f3ef 8505 	mrs	r5, IPSR
    9c64:	b94d      	cbnz	r5, 9c7a <osMessageGet+0x22>
    9c66:	4608      	mov	r0, r1
    9c68:	4611      	mov	r1, r2
    9c6a:	f8df c050 	ldr.w	r12, [pc, #80]	; 9cbc <osMessageGet+0x64>
    9c6e:	df00      	svc	0
    9c70:	e884 0007 	stmia.w	r4, {r0, r1, r2}
    9c74:	4620      	mov	r0, r4
    9c76:	b004      	add	sp, #16
    9c78:	bd70      	pop	{r4, r5, r6, pc}
    9c7a:	b119      	cbz	r1, 9c84 <osMessageGet+0x2c>
    9c7c:	b912      	cbnz	r2, 9c84 <osMessageGet+0x2c>
    9c7e:	780b      	ldrb	r3, [r1, #0]
    9c80:	2b01      	cmp	r3, #1
    9c82:	d00a      	beq.n	9c9a <osMessageGet+0x42>
    9c84:	ab04      	add	r3, sp, #16
    9c86:	2280      	movs	r2, #128	; 0x80
    9c88:	f843 2d0c 	str.w	r2, [r3, #-12]!
    9c8c:	e893 0007 	ldmia.w	r3, {r0, r1, r2}
    9c90:	e884 0007 	stmia.w	r4, {r0, r1, r2}
    9c94:	4620      	mov	r0, r4
    9c96:	b004      	add	sp, #16
    9c98:	bd70      	pop	{r4, r5, r6, pc}
    9c9a:	4608      	mov	r0, r1
    9c9c:	a902      	add	r1, sp, #8
    9c9e:	f000 fa9b 	bl	a1d8 <isr_mbx_receive>
    9ca2:	2804      	cmp	r0, #4
    9ca4:	bf08      	it	eq
    9ca6:	2310      	moveq	r3, #16
    9ca8:	ad01      	add	r5, sp, #4
    9caa:	bf14      	ite	ne
    9cac:	9601      	strne	r6, [sp, #4]
    9cae:	9301      	streq	r3, [sp, #4]
    9cb0:	e895 0007 	ldmia.w	r5, {r0, r1, r2}
    9cb4:	e884 0007 	stmia.w	r4, {r0, r1, r2}
    9cb8:	e7dc      	b.n	9c74 <osMessageGet+0x1c>
    9cba:	0000      	.short	0x0000
    9cbc:	00009b4d 	.word	0x00009b4d

00009cc0 <osTimerThread>:
    9cc0:	b500      	push	{lr}
    9cc2:	4c0a      	ldr	r4, [pc, #40]	; (9cec <osTimerThread+0x2c>)
    9cc4:	b085      	sub	sp, #20
    9cc6:	a801      	add	r0, sp, #4
    9cc8:	6821      	ldr	r1, [r4, #0]
    9cca:	f04f 32ff 	mov.w	r2, #4294967295	; 0xffffffff
    9cce:	f7ff ffc3 	bl	9c58 <osMessageGet>
    9cd2:	9801      	ldr	r0, [sp, #4]
    9cd4:	2810      	cmp	r0, #16
    9cd6:	d1f6      	bne.n	9cc6 <osTimerThread+0x6>
    9cd8:	9802      	ldr	r0, [sp, #8]
    9cda:	f8df c014 	ldr.w	r12, [pc, #20]	; 9cf0 <osTimerThread+0x30>
    9cde:	df00      	svc	0
    9ce0:	4603      	mov	r3, r0
    9ce2:	2800      	cmp	r0, #0
    9ce4:	d0ef      	beq.n	9cc6 <osTimerThread+0x6>
    9ce6:	4608      	mov	r0, r1
    9ce8:	4798      	blx	r3
    9cea:	e7ec      	b.n	9cc6 <osTimerThread+0x6>
    9cec:	100013a0 	.word	0x100013a0
    9cf0:	000095e9 	.word	0x000095e9

00009cf4 <rt_evt_wait>:
    9cf4:	4b10      	ldr	r3, [pc, #64]	; (9d38 <rt_evt_wait+0x44>)
    9cf6:	b510      	push	{r4, lr}
    9cf8:	681b      	ldr	r3, [r3, #0]
    9cfa:	b162      	cbz	r2, 9d16 <rt_evt_wait+0x22>
    9cfc:	8b1a      	ldrh	r2, [r3, #24]
    9cfe:	ea00 0402 	and.w	r4, r0, r2
    9d02:	4284      	cmp	r4, r0
    9d04:	d011      	beq.n	9d2a <rt_evt_wait+0x36>
    9d06:	2206      	movs	r2, #6
    9d08:	8358      	strh	r0, [r3, #26]
    9d0a:	4608      	mov	r0, r1
    9d0c:	4611      	mov	r1, r2
    9d0e:	f000 fd4f 	bl	a7b0 <rt_block>
    9d12:	2001      	movs	r0, #1
    9d14:	bd10      	pop	{r4, pc}
    9d16:	8b1a      	ldrh	r2, [r3, #24]
    9d18:	ea10 0402 	ands.w	r4, r0, r2
    9d1c:	d00a      	beq.n	9d34 <rt_evt_wait+0x40>
    9d1e:	ea22 0000 	bic.w	r0, r2, r0
    9d22:	8318      	strh	r0, [r3, #24]
    9d24:	835c      	strh	r4, [r3, #26]
    9d26:	2002      	movs	r0, #2
    9d28:	bd10      	pop	{r4, pc}
    9d2a:	ea22 0204 	bic.w	r2, r2, r4
    9d2e:	831a      	strh	r2, [r3, #24]
    9d30:	2002      	movs	r0, #2
    9d32:	bd10      	pop	{r4, pc}
    9d34:	2205      	movs	r2, #5
    9d36:	e7e7      	b.n	9d08 <rt_evt_wait+0x14>
    9d38:	10001084 	.word	0x10001084

00009d3c <rt_evt_set>:
    9d3c:	4b15      	ldr	r3, [pc, #84]	; (9d94 <rt_evt_set+0x58>)
    9d3e:	3901      	subs	r1, #1
    9d40:	b510      	push	{r4, lr}
    9d42:	f853 4021 	ldr.w	r4, [r3, r1, lsl #2]
    9d46:	b144      	cbz	r4, 9d5a <rt_evt_set+0x1e>
    9d48:	8b22      	ldrh	r2, [r4, #24]
    9d4a:	7863      	ldrb	r3, [r4, #1]
    9d4c:	4310      	orrs	r0, r2
    9d4e:	2b06      	cmp	r3, #6
    9d50:	8320      	strh	r0, [r4, #24]
    9d52:	8b62      	ldrh	r2, [r4, #26]
    9d54:	d018      	beq.n	9d88 <rt_evt_set+0x4c>
    9d56:	2b05      	cmp	r3, #5
    9d58:	d000      	beq.n	9d5c <rt_evt_set+0x20>
    9d5a:	bd10      	pop	{r4, pc}
    9d5c:	ea10 0302 	ands.w	r3, r0, r2
    9d60:	d0fb      	beq.n	9d5a <rt_evt_set+0x1e>
    9d62:	8363      	strh	r3, [r4, #26]
    9d64:	ea20 0002 	bic.w	r0, r0, r2
    9d68:	8320      	strh	r0, [r4, #24]
    9d6a:	4620      	mov	r0, r4
    9d6c:	f000 f93e 	bl	9fec <rt_rmv_dly>
    9d70:	2301      	movs	r3, #1
    9d72:	4620      	mov	r0, r4
    9d74:	7063      	strb	r3, [r4, #1]
    9d76:	8b62      	ldrh	r2, [r4, #26]
    9d78:	2108      	movs	r1, #8
    9d7a:	f000 ff37 	bl	abec <rt_ret_val2>
    9d7e:	4620      	mov	r0, r4
    9d80:	e8bd 4010 	ldmia.w	sp!, {r4, lr}
    9d84:	f000 bcf2 	b.w	a76c <rt_dispatch>
    9d88:	ea00 0302 	and.w	r3, r0, r2
    9d8c:	4293      	cmp	r3, r2
    9d8e:	d0e9      	beq.n	9d64 <rt_evt_set+0x28>
    9d90:	bd10      	pop	{r4, pc}
    9d92:	bf00      	nop
    9d94:	100012c0 	.word	0x100012c0

00009d98 <isr_evt_set>:
    9d98:	b508      	push	{r3, lr}
    9d9a:	4b07      	ldr	r3, [pc, #28]	; (9db8 <isr_evt_set+0x20>)
    9d9c:	3901      	subs	r1, #1
    9d9e:	f853 3021 	ldr.w	r3, [r3, r1, lsl #2]
    9da2:	4601      	mov	r1, r0
    9da4:	b133      	cbz	r3, 9db4 <isr_evt_set+0x1c>
    9da6:	4618      	mov	r0, r3
    9da8:	f000 f934 	bl	a014 <rt_psq_enq>
    9dac:	e8bd 4008 	ldmia.w	sp!, {r3, lr}
    9db0:	f000 bbf8 	b.w	a5a4 <rt_psh_req>
    9db4:	bd08      	pop	{r3, pc}
    9db6:	bf00      	nop
    9db8:	100012c0 	.word	0x100012c0

00009dbc <rt_evt_psh>:
    9dbc:	b510      	push	{r4, lr}
    9dbe:	8b02      	ldrh	r2, [r0, #24]
    9dc0:	7843      	ldrb	r3, [r0, #1]
    9dc2:	4311      	orrs	r1, r2
    9dc4:	2b06      	cmp	r3, #6
    9dc6:	4604      	mov	r4, r0
    9dc8:	8301      	strh	r1, [r0, #24]
    9dca:	8b42      	ldrh	r2, [r0, #26]
    9dcc:	d019      	beq.n	9e02 <rt_evt_psh+0x46>
    9dce:	2b05      	cmp	r3, #5
    9dd0:	d000      	beq.n	9dd4 <rt_evt_psh+0x18>
    9dd2:	bd10      	pop	{r4, pc}
    9dd4:	ea11 0302 	ands.w	r3, r1, r2
    9dd8:	d0fb      	beq.n	9dd2 <rt_evt_psh+0x16>
    9dda:	8343      	strh	r3, [r0, #26]
    9ddc:	ea21 0102 	bic.w	r1, r1, r2
    9de0:	8321      	strh	r1, [r4, #24]
    9de2:	4620      	mov	r0, r4
    9de4:	f000 f902 	bl	9fec <rt_rmv_dly>
    9de8:	2301      	movs	r3, #1
    9dea:	4620      	mov	r0, r4
    9dec:	7063      	strb	r3, [r4, #1]
    9dee:	2108      	movs	r1, #8
    9df0:	8b62      	ldrh	r2, [r4, #26]
    9df2:	f000 fefb 	bl	abec <rt_ret_val2>
    9df6:	4621      	mov	r1, r4
    9df8:	4804      	ldr	r0, [pc, #16]	; (9e0c <rt_evt_psh+0x50>)
    9dfa:	e8bd 4010 	ldmia.w	sp!, {r4, lr}
    9dfe:	f000 b807 	b.w	9e10 <rt_put_prio>
    9e02:	ea01 0302 	and.w	r3, r1, r2
    9e06:	4293      	cmp	r3, r2
    9e08:	d0e8      	beq.n	9ddc <rt_evt_psh+0x20>
    9e0a:	bd10      	pop	{r4, pc}
    9e0c:	10001050 	.word	0x10001050

00009e10 <rt_put_prio>:
    9e10:	b470      	push	{r4, r5, r6}
    9e12:	7803      	ldrb	r3, [r0, #0]
    9e14:	6842      	ldr	r2, [r0, #4]
    9e16:	3b01      	subs	r3, #1
    9e18:	2b02      	cmp	r3, #2
    9e1a:	bf8c      	ite	hi
    9e1c:	2600      	movhi	r6, #0
    9e1e:	2601      	movls	r6, #1
    9e20:	788c      	ldrb	r4, [r1, #2]
    9e22:	b1e2      	cbz	r2, 9e5e <rt_put_prio+0x4e>
    9e24:	7895      	ldrb	r5, [r2, #2]
    9e26:	42a5      	cmp	r5, r4
    9e28:	d204      	bcs.n	9e34 <rt_put_prio+0x24>
    9e2a:	e00e      	b.n	9e4a <rt_put_prio+0x3a>
    9e2c:	7898      	ldrb	r0, [r3, #2]
    9e2e:	42a0      	cmp	r0, r4
    9e30:	d30d      	bcc.n	9e4e <rt_put_prio+0x3e>
    9e32:	461a      	mov	r2, r3
    9e34:	6853      	ldr	r3, [r2, #4]
    9e36:	2b00      	cmp	r3, #0
    9e38:	d1f8      	bne.n	9e2c <rt_put_prio+0x1c>
    9e3a:	2300      	movs	r3, #0
    9e3c:	604b      	str	r3, [r1, #4]
    9e3e:	6051      	str	r1, [r2, #4]
    9e40:	b956      	cbnz	r6, 9e58 <rt_put_prio+0x48>
    9e42:	2300      	movs	r3, #0
    9e44:	608b      	str	r3, [r1, #8]
    9e46:	bc70      	pop	{r4, r5, r6}
    9e48:	4770      	bx	lr
    9e4a:	4613      	mov	r3, r2
    9e4c:	4602      	mov	r2, r0
    9e4e:	604b      	str	r3, [r1, #4]
    9e50:	6051      	str	r1, [r2, #4]
    9e52:	2e00      	cmp	r6, #0
    9e54:	d0f5      	beq.n	9e42 <rt_put_prio+0x32>
    9e56:	6099      	str	r1, [r3, #8]
    9e58:	608a      	str	r2, [r1, #8]
    9e5a:	bc70      	pop	{r4, r5, r6}
    9e5c:	4770      	bx	lr
    9e5e:	4602      	mov	r2, r0
    9e60:	e7eb      	b.n	9e3a <rt_put_prio+0x2a>
    9e62:	bf00      	nop

00009e64 <rt_get_first>:
    9e64:	6843      	ldr	r3, [r0, #4]
    9e66:	7801      	ldrb	r1, [r0, #0]
    9e68:	685a      	ldr	r2, [r3, #4]
    9e6a:	3901      	subs	r1, #1
    9e6c:	2902      	cmp	r1, #2
    9e6e:	6042      	str	r2, [r0, #4]
    9e70:	d807      	bhi.n	9e82 <rt_get_first+0x1e>
    9e72:	b112      	cbz	r2, 9e7a <rt_get_first+0x16>
    9e74:	2100      	movs	r1, #0
    9e76:	6090      	str	r0, [r2, #8]
    9e78:	6059      	str	r1, [r3, #4]
    9e7a:	2200      	movs	r2, #0
    9e7c:	609a      	str	r2, [r3, #8]
    9e7e:	4618      	mov	r0, r3
    9e80:	4770      	bx	lr
    9e82:	2200      	movs	r2, #0
    9e84:	605a      	str	r2, [r3, #4]
    9e86:	4618      	mov	r0, r3
    9e88:	4770      	bx	lr
    9e8a:	bf00      	nop

00009e8c <rt_put_rdy_first>:
    9e8c:	4b03      	ldr	r3, [pc, #12]	; (9e9c <rt_put_rdy_first+0x10>)
    9e8e:	2100      	movs	r1, #0
    9e90:	685a      	ldr	r2, [r3, #4]
    9e92:	6081      	str	r1, [r0, #8]
    9e94:	6042      	str	r2, [r0, #4]
    9e96:	6058      	str	r0, [r3, #4]
    9e98:	4770      	bx	lr
    9e9a:	bf00      	nop
    9e9c:	10001050 	.word	0x10001050

00009ea0 <rt_put_dly>:
    9ea0:	b430      	push	{r4, r5}
    9ea2:	4c16      	ldr	r4, [pc, #88]	; (9efc <rt_put_dly+0x5c>)
    9ea4:	68e3      	ldr	r3, [r4, #12]
    9ea6:	b31b      	cbz	r3, 9ef0 <rt_put_dly+0x50>
    9ea8:	8aa2      	ldrh	r2, [r4, #20]
    9eaa:	4291      	cmp	r1, r2
    9eac:	d803      	bhi.n	9eb6 <rt_put_dly+0x16>
    9eae:	e022      	b.n	9ef6 <rt_put_dly+0x56>
    9eb0:	68dc      	ldr	r4, [r3, #12]
    9eb2:	b19c      	cbz	r4, 9edc <rt_put_dly+0x3c>
    9eb4:	4623      	mov	r3, r4
    9eb6:	8a9c      	ldrh	r4, [r3, #20]
    9eb8:	4422      	add	r2, r4
    9eba:	4291      	cmp	r1, r2
    9ebc:	d8f8      	bhi.n	9eb0 <rt_put_dly+0x10>
    9ebe:	68dd      	ldr	r5, [r3, #12]
    9ec0:	60c5      	str	r5, [r0, #12]
    9ec2:	60d8      	str	r0, [r3, #12]
    9ec4:	68c4      	ldr	r4, [r0, #12]
    9ec6:	6103      	str	r3, [r0, #16]
    9ec8:	b104      	cbz	r4, 9ecc <rt_put_dly+0x2c>
    9eca:	6120      	str	r0, [r4, #16]
    9ecc:	1a52      	subs	r2, r2, r1
    9ece:	b292      	uxth	r2, r2
    9ed0:	8282      	strh	r2, [r0, #20]
    9ed2:	8a99      	ldrh	r1, [r3, #20]
    9ed4:	bc30      	pop	{r4, r5}
    9ed6:	1a8a      	subs	r2, r1, r2
    9ed8:	829a      	strh	r2, [r3, #20]
    9eda:	4770      	bx	lr
    9edc:	b292      	uxth	r2, r2
    9ede:	2400      	movs	r4, #0
    9ee0:	1a89      	subs	r1, r1, r2
    9ee2:	60c4      	str	r4, [r0, #12]
    9ee4:	60d8      	str	r0, [r3, #12]
    9ee6:	6103      	str	r3, [r0, #16]
    9ee8:	8299      	strh	r1, [r3, #20]
    9eea:	8284      	strh	r4, [r0, #20]
    9eec:	bc30      	pop	{r4, r5}
    9eee:	4770      	bx	lr
    9ef0:	461a      	mov	r2, r3
    9ef2:	4623      	mov	r3, r4
    9ef4:	e7f3      	b.n	9ede <rt_put_dly+0x3e>
    9ef6:	461d      	mov	r5, r3
    9ef8:	4623      	mov	r3, r4
    9efa:	e7e1      	b.n	9ec0 <rt_put_dly+0x20>
    9efc:	10001068 	.word	0x10001068

00009f00 <rt_dec_dly>:
    9f00:	b5f8      	push	{r3, r4, r5, r6, r7, lr}
    9f02:	4d1d      	ldr	r5, [pc, #116]	; (9f78 <rt_dec_dly+0x78>)
    9f04:	68ec      	ldr	r4, [r5, #12]
    9f06:	2c00      	cmp	r4, #0
    9f08:	d034      	beq.n	9f74 <rt_dec_dly+0x74>
    9f0a:	8aab      	ldrh	r3, [r5, #20]
    9f0c:	3b01      	subs	r3, #1
    9f0e:	b29b      	uxth	r3, r3
    9f10:	82ab      	strh	r3, [r5, #20]
    9f12:	2b00      	cmp	r3, #0
    9f14:	d12e      	bne.n	9f74 <rt_dec_dly+0x74>
    9f16:	4f19      	ldr	r7, [pc, #100]	; (9f7c <rt_dec_dly+0x7c>)
    9f18:	462e      	mov	r6, r5
    9f1a:	e008      	b.n	9f2e <rt_dec_dly+0x2e>
    9f1c:	68e3      	ldr	r3, [r4, #12]
    9f1e:	7060      	strb	r0, [r4, #1]
    9f20:	60eb      	str	r3, [r5, #12]
    9f22:	b333      	cbz	r3, 9f72 <rt_dec_dly+0x72>
    9f24:	611e      	str	r6, [r3, #16]
    9f26:	60e1      	str	r1, [r4, #12]
    9f28:	6121      	str	r1, [r4, #16]
    9f2a:	bb1a      	cbnz	r2, 9f74 <rt_dec_dly+0x74>
    9f2c:	461c      	mov	r4, r3
    9f2e:	68a3      	ldr	r3, [r4, #8]
    9f30:	4621      	mov	r1, r4
    9f32:	4813      	ldr	r0, [pc, #76]	; (9f80 <rt_dec_dly+0x80>)
    9f34:	f04f 0e00 	mov.w	lr, #0
    9f38:	b143      	cbz	r3, 9f4c <rt_dec_dly+0x4c>
    9f3a:	6862      	ldr	r2, [r4, #4]
    9f3c:	605a      	str	r2, [r3, #4]
    9f3e:	6862      	ldr	r2, [r4, #4]
    9f40:	b112      	cbz	r2, 9f48 <rt_dec_dly+0x48>
    9f42:	6093      	str	r3, [r2, #8]
    9f44:	f8c4 e004 	str.w	lr, [r4, #4]
    9f48:	f8c4 e008 	str.w	lr, [r4, #8]
    9f4c:	f7ff ff60 	bl	9e10 <rt_put_prio>
    9f50:	8aa2      	ldrh	r2, [r4, #20]
    9f52:	2001      	movs	r0, #1
    9f54:	82aa      	strh	r2, [r5, #20]
    9f56:	7863      	ldrb	r3, [r4, #1]
    9f58:	2100      	movs	r1, #0
    9f5a:	2b04      	cmp	r3, #4
    9f5c:	d1de      	bne.n	9f1c <rt_dec_dly+0x1c>
    9f5e:	683b      	ldr	r3, [r7, #0]
    9f60:	f8b4 c016 	ldrh.w	r12, [r4, #22]
    9f64:	7060      	strb	r0, [r4, #1]
    9f66:	4463      	add	r3, r12
    9f68:	82a3      	strh	r3, [r4, #20]
    9f6a:	68e3      	ldr	r3, [r4, #12]
    9f6c:	60eb      	str	r3, [r5, #12]
    9f6e:	2b00      	cmp	r3, #0
    9f70:	d1d8      	bne.n	9f24 <rt_dec_dly+0x24>
    9f72:	6123      	str	r3, [r4, #16]
    9f74:	bdf8      	pop	{r3, r4, r5, r6, r7, pc}
    9f76:	bf00      	nop
    9f78:	10001068 	.word	0x10001068
    9f7c:	100010bc 	.word	0x100010bc
    9f80:	10001050 	.word	0x10001050

00009f84 <rt_rmv_list>:
    9f84:	6883      	ldr	r3, [r0, #8]
    9f86:	b133      	cbz	r3, 9f96 <rt_rmv_list+0x12>
    9f88:	6842      	ldr	r2, [r0, #4]
    9f8a:	605a      	str	r2, [r3, #4]
    9f8c:	6842      	ldr	r2, [r0, #4]
    9f8e:	b10a      	cbz	r2, 9f94 <rt_rmv_list+0x10>
    9f90:	6093      	str	r3, [r2, #8]
    9f92:	4770      	bx	lr
    9f94:	4770      	bx	lr
    9f96:	4a07      	ldr	r2, [pc, #28]	; (9fb4 <rt_rmv_list+0x30>)
    9f98:	6853      	ldr	r3, [r2, #4]
    9f9a:	4283      	cmp	r3, r0
    9f9c:	d005      	beq.n	9faa <rt_rmv_list+0x26>
    9f9e:	b143      	cbz	r3, 9fb2 <rt_rmv_list+0x2e>
    9fa0:	685a      	ldr	r2, [r3, #4]
    9fa2:	4282      	cmp	r2, r0
    9fa4:	d002      	beq.n	9fac <rt_rmv_list+0x28>
    9fa6:	4613      	mov	r3, r2
    9fa8:	e7f9      	b.n	9f9e <rt_rmv_list+0x1a>
    9faa:	4613      	mov	r3, r2
    9fac:	6842      	ldr	r2, [r0, #4]
    9fae:	605a      	str	r2, [r3, #4]
    9fb0:	4770      	bx	lr
    9fb2:	4770      	bx	lr
    9fb4:	10001050 	.word	0x10001050

00009fb8 <rt_resort_prio>:
    9fb8:	b538      	push	{r3, r4, r5, lr}
    9fba:	6884      	ldr	r4, [r0, #8]
    9fbc:	4605      	mov	r5, r0
    9fbe:	b90c      	cbnz	r4, 9fc4 <rt_resort_prio+0xc>
    9fc0:	e00c      	b.n	9fdc <rt_resort_prio+0x24>
    9fc2:	68a4      	ldr	r4, [r4, #8]
    9fc4:	7823      	ldrb	r3, [r4, #0]
    9fc6:	2b00      	cmp	r3, #0
    9fc8:	d0fb      	beq.n	9fc2 <rt_resort_prio+0xa>
    9fca:	4628      	mov	r0, r5
    9fcc:	f7ff ffda 	bl	9f84 <rt_rmv_list>
    9fd0:	4620      	mov	r0, r4
    9fd2:	4629      	mov	r1, r5
    9fd4:	e8bd 4038 	ldmia.w	sp!, {r3, r4, r5, lr}
    9fd8:	f7ff bf1a 	b.w	9e10 <rt_put_prio>
    9fdc:	7843      	ldrb	r3, [r0, #1]
    9fde:	2b01      	cmp	r3, #1
    9fe0:	d000      	beq.n	9fe4 <rt_resort_prio+0x2c>
    9fe2:	bd38      	pop	{r3, r4, r5, pc}
    9fe4:	4c00      	ldr	r4, [pc, #0]	; (9fe8 <rt_resort_prio+0x30>)
    9fe6:	e7f0      	b.n	9fca <rt_resort_prio+0x12>
    9fe8:	10001050 	.word	0x10001050

00009fec <rt_rmv_dly>:
    9fec:	6903      	ldr	r3, [r0, #16]
    9fee:	b430      	push	{r4, r5}
    9ff0:	b163      	cbz	r3, a00c <rt_rmv_dly+0x20>
    9ff2:	68c2      	ldr	r2, [r0, #12]
    9ff4:	60da      	str	r2, [r3, #12]
    9ff6:	68c2      	ldr	r2, [r0, #12]
    9ff8:	b152      	cbz	r2, a010 <rt_rmv_dly+0x24>
    9ffa:	8a9c      	ldrh	r4, [r3, #20]
    9ffc:	8a85      	ldrh	r5, [r0, #20]
    9ffe:	2100      	movs	r1, #0
    a000:	442c      	add	r4, r5
    a002:	829c      	strh	r4, [r3, #20]
    a004:	6113      	str	r3, [r2, #16]
    a006:	60c1      	str	r1, [r0, #12]
    a008:	2300      	movs	r3, #0
    a00a:	6103      	str	r3, [r0, #16]
    a00c:	bc30      	pop	{r4, r5}
    a00e:	4770      	bx	lr
    a010:	829a      	strh	r2, [r3, #20]
    a012:	e7f9      	b.n	a008 <rt_rmv_dly+0x1c>

0000a014 <rt_psq_enq>:
    a014:	b430      	push	{r4, r5}
    a016:	4b0f      	ldr	r3, [pc, #60]	; (a054 <rt_psq_enq+0x40>)
    a018:	78dc      	ldrb	r4, [r3, #3]
    a01a:	f3ef 8310 	mrs	r3, PRIMASK
    a01e:	b672      	cpsid	i
    a020:	4a0c      	ldr	r2, [pc, #48]	; (a054 <rt_psq_enq+0x40>)
    a022:	7893      	ldrb	r3, [r2, #2]
    a024:	429c      	cmp	r4, r3
    a026:	d908      	bls.n	a03a <rt_psq_enq+0x26>
    a028:	1c5d      	adds	r5, r3, #1
    a02a:	7813      	ldrb	r3, [r2, #0]
    a02c:	7095      	strb	r5, [r2, #2]
    a02e:	1c5d      	adds	r5, r3, #1
    a030:	42ac      	cmp	r4, r5
    a032:	bf14      	ite	ne
    a034:	b2ed      	uxtbne	r5, r5
    a036:	2500      	moveq	r5, #0
    a038:	7015      	strb	r5, [r2, #0]
    a03a:	b662      	cpsie	i
    a03c:	429c      	cmp	r4, r3
    a03e:	d905      	bls.n	a04c <rt_psq_enq+0x38>
    a040:	bc30      	pop	{r4, r5}
    a042:	eb02 03c3 	add.w	r3, r2, r3, lsl #3
    a046:	6058      	str	r0, [r3, #4]
    a048:	6099      	str	r1, [r3, #8]
    a04a:	4770      	bx	lr
    a04c:	2002      	movs	r0, #2
    a04e:	bc30      	pop	{r4, r5}
    a050:	f000 bdd2 	b.w	abf8 <os_error>
    a054:	1000131c 	.word	0x1000131c

0000a058 <rt_mbx_init>:
    a058:	3910      	subs	r1, #16
    a05a:	2300      	movs	r3, #0
    a05c:	0889      	lsrs	r1, r1, #2
    a05e:	2201      	movs	r2, #1
    a060:	81c1      	strh	r1, [r0, #14]
    a062:	7002      	strb	r2, [r0, #0]
    a064:	7043      	strb	r3, [r0, #1]
    a066:	7083      	strb	r3, [r0, #2]
    a068:	6043      	str	r3, [r0, #4]
    a06a:	8103      	strh	r3, [r0, #8]
    a06c:	8143      	strh	r3, [r0, #10]
    a06e:	8183      	strh	r3, [r0, #12]
    a070:	4770      	bx	lr
    a072:	bf00      	nop

0000a074 <rt_mbx_send>:
    a074:	b5f0      	push	{r4, r5, r6, r7, lr}
    a076:	6846      	ldr	r6, [r0, #4]
    a078:	b083      	sub	sp, #12
    a07a:	4603      	mov	r3, r0
    a07c:	460f      	mov	r7, r1
    a07e:	b116      	cbz	r6, a086 <rt_mbx_send+0x12>
    a080:	7841      	ldrb	r1, [r0, #1]
    a082:	2901      	cmp	r1, #1
    a084:	d02c      	beq.n	a0e0 <rt_mbx_send+0x6c>
    a086:	899d      	ldrh	r5, [r3, #12]
    a088:	89dc      	ldrh	r4, [r3, #14]
    a08a:	42a5      	cmp	r5, r4
    a08c:	d013      	beq.n	a0b6 <rt_mbx_send+0x42>
    a08e:	8918      	ldrh	r0, [r3, #8]
    a090:	1d02      	adds	r2, r0, #4
    a092:	f843 7022 	str.w	r7, [r3, r2, lsl #2]
    a096:	f3ef 8210 	mrs	r2, PRIMASK
    a09a:	b672      	cpsid	i
    a09c:	3501      	adds	r5, #1
    a09e:	819d      	strh	r5, [r3, #12]
    a0a0:	b662      	cpsie	i
    a0a2:	3001      	adds	r0, #1
    a0a4:	b280      	uxth	r0, r0
    a0a6:	4284      	cmp	r4, r0
    a0a8:	bf0b      	itete	eq
    a0aa:	2000      	moveq	r0, #0
    a0ac:	8118      	strhne	r0, [r3, #8]
    a0ae:	8118      	strheq	r0, [r3, #8]
    a0b0:	2000      	movne	r0, #0
    a0b2:	b003      	add	sp, #12
    a0b4:	bdf0      	pop	{r4, r5, r6, r7, pc}
    a0b6:	b182      	cbz	r2, a0da <rt_mbx_send+0x66>
    a0b8:	b30e      	cbz	r6, a0fe <rt_mbx_send+0x8a>
    a0ba:	4c15      	ldr	r4, [pc, #84]	; (a110 <rt_mbx_send+0x9c>)
    a0bc:	4618      	mov	r0, r3
    a0be:	6821      	ldr	r1, [r4, #0]
    a0c0:	9201      	str	r2, [sp, #4]
    a0c2:	f7ff fea5 	bl	9e10 <rt_put_prio>
    a0c6:	6821      	ldr	r1, [r4, #0]
    a0c8:	9a01      	ldr	r2, [sp, #4]
    a0ca:	61cf      	str	r7, [r1, #28]
    a0cc:	4610      	mov	r0, r2
    a0ce:	2108      	movs	r1, #8
    a0d0:	f000 fb6e 	bl	a7b0 <rt_block>
    a0d4:	2001      	movs	r0, #1
    a0d6:	b003      	add	sp, #12
    a0d8:	bdf0      	pop	{r4, r5, r6, r7, pc}
    a0da:	2001      	movs	r0, #1
    a0dc:	b003      	add	sp, #12
    a0de:	bdf0      	pop	{r4, r5, r6, r7, pc}
    a0e0:	f7ff fec0 	bl	9e64 <rt_get_first>
    a0e4:	463a      	mov	r2, r7
    a0e6:	4604      	mov	r4, r0
    a0e8:	2110      	movs	r1, #16
    a0ea:	f000 fd7f 	bl	abec <rt_ret_val2>
    a0ee:	4620      	mov	r0, r4
    a0f0:	f7ff ff7c 	bl	9fec <rt_rmv_dly>
    a0f4:	4620      	mov	r0, r4
    a0f6:	f000 fb39 	bl	a76c <rt_dispatch>
    a0fa:	2000      	movs	r0, #0
    a0fc:	e7d9      	b.n	a0b2 <rt_mbx_send+0x3e>
    a0fe:	4904      	ldr	r1, [pc, #16]	; (a110 <rt_mbx_send+0x9c>)
    a100:	2002      	movs	r0, #2
    a102:	6809      	ldr	r1, [r1, #0]
    a104:	6059      	str	r1, [r3, #4]
    a106:	604e      	str	r6, [r1, #4]
    a108:	608b      	str	r3, [r1, #8]
    a10a:	7058      	strb	r0, [r3, #1]
    a10c:	e7dd      	b.n	a0ca <rt_mbx_send+0x56>
    a10e:	bf00      	nop
    a110:	10001084 	.word	0x10001084

0000a114 <rt_mbx_wait>:
    a114:	b538      	push	{r3, r4, r5, lr}
    a116:	8983      	ldrh	r3, [r0, #12]
    a118:	4604      	mov	r4, r0
    a11a:	4615      	mov	r5, r2
    a11c:	b1cb      	cbz	r3, a152 <rt_mbx_wait+0x3e>
    a11e:	8942      	ldrh	r2, [r0, #10]
    a120:	89c5      	ldrh	r5, [r0, #14]
    a122:	1d10      	adds	r0, r2, #4
    a124:	3201      	adds	r2, #1
    a126:	b292      	uxth	r2, r2
    a128:	f854 0020 	ldr.w	r0, [r4, r0, lsl #2]
    a12c:	4295      	cmp	r5, r2
    a12e:	6008      	str	r0, [r1, #0]
    a130:	8162      	strh	r2, [r4, #10]
    a132:	bf04      	itt	eq
    a134:	2200      	moveq	r2, #0
    a136:	8162      	strheq	r2, [r4, #10]
    a138:	6862      	ldr	r2, [r4, #4]
    a13a:	b112      	cbz	r2, a142 <rt_mbx_wait+0x2e>
    a13c:	7862      	ldrb	r2, [r4, #1]
    a13e:	2a02      	cmp	r2, #2
    a140:	d01e      	beq.n	a180 <rt_mbx_wait+0x6c>
    a142:	f3ef 8210 	mrs	r2, PRIMASK
    a146:	b672      	cpsid	i
    a148:	3b01      	subs	r3, #1
    a14a:	81a3      	strh	r3, [r4, #12]
    a14c:	b662      	cpsie	i
    a14e:	2000      	movs	r0, #0
    a150:	bd38      	pop	{r3, r4, r5, pc}
    a152:	b15a      	cbz	r2, a16c <rt_mbx_wait+0x58>
    a154:	6843      	ldr	r3, [r0, #4]
    a156:	b15b      	cbz	r3, a170 <rt_mbx_wait+0x5c>
    a158:	4b18      	ldr	r3, [pc, #96]	; (a1bc <rt_mbx_wait+0xa8>)
    a15a:	6819      	ldr	r1, [r3, #0]
    a15c:	f7ff fe58 	bl	9e10 <rt_put_prio>
    a160:	4628      	mov	r0, r5
    a162:	2108      	movs	r1, #8
    a164:	f000 fb24 	bl	a7b0 <rt_block>
    a168:	2001      	movs	r0, #1
    a16a:	bd38      	pop	{r3, r4, r5, pc}
    a16c:	2001      	movs	r0, #1
    a16e:	bd38      	pop	{r3, r4, r5, pc}
    a170:	4a12      	ldr	r2, [pc, #72]	; (a1bc <rt_mbx_wait+0xa8>)
    a172:	2101      	movs	r1, #1
    a174:	6812      	ldr	r2, [r2, #0]
    a176:	6042      	str	r2, [r0, #4]
    a178:	6053      	str	r3, [r2, #4]
    a17a:	6090      	str	r0, [r2, #8]
    a17c:	7041      	strb	r1, [r0, #1]
    a17e:	e7ef      	b.n	a160 <rt_mbx_wait+0x4c>
    a180:	4620      	mov	r0, r4
    a182:	f7ff fe6f 	bl	9e64 <rt_get_first>
    a186:	2100      	movs	r1, #0
    a188:	4605      	mov	r5, r0
    a18a:	f000 fd2b 	bl	abe4 <rt_ret_val>
    a18e:	8922      	ldrh	r2, [r4, #8]
    a190:	89e0      	ldrh	r0, [r4, #14]
    a192:	1c53      	adds	r3, r2, #1
    a194:	b29b      	uxth	r3, r3
    a196:	69e9      	ldr	r1, [r5, #28]
    a198:	4298      	cmp	r0, r3
    a19a:	f102 0204 	add.w	r2, r2, #4
    a19e:	f844 1022 	str.w	r1, [r4, r2, lsl #2]
    a1a2:	8123      	strh	r3, [r4, #8]
    a1a4:	bf04      	itt	eq
    a1a6:	2300      	moveq	r3, #0
    a1a8:	8123      	strheq	r3, [r4, #8]
    a1aa:	4628      	mov	r0, r5
    a1ac:	f7ff ff1e 	bl	9fec <rt_rmv_dly>
    a1b0:	4628      	mov	r0, r5
    a1b2:	f000 fadb 	bl	a76c <rt_dispatch>
    a1b6:	2000      	movs	r0, #0
    a1b8:	bd38      	pop	{r3, r4, r5, pc}
    a1ba:	bf00      	nop
    a1bc:	10001084 	.word	0x10001084

0000a1c0 <rt_mbx_check>:
    a1c0:	89c2      	ldrh	r2, [r0, #14]
    a1c2:	8980      	ldrh	r0, [r0, #12]
    a1c4:	1a10      	subs	r0, r2, r0
    a1c6:	4770      	bx	lr

0000a1c8 <isr_mbx_send>:
    a1c8:	b508      	push	{r3, lr}
    a1ca:	f7ff ff23 	bl	a014 <rt_psq_enq>
    a1ce:	e8bd 4008 	ldmia.w	sp!, {r3, lr}
    a1d2:	f000 b9e7 	b.w	a5a4 <rt_psh_req>
    a1d6:	bf00      	nop

0000a1d8 <isr_mbx_receive>:
    a1d8:	b538      	push	{r3, r4, r5, lr}
    a1da:	8983      	ldrh	r3, [r0, #12]
    a1dc:	4604      	mov	r4, r0
    a1de:	b1ab      	cbz	r3, a20c <isr_mbx_receive+0x34>
    a1e0:	8942      	ldrh	r2, [r0, #10]
    a1e2:	1d15      	adds	r5, r2, #4
    a1e4:	f850 5025 	ldr.w	r5, [r0, r5, lsl #2]
    a1e8:	600d      	str	r5, [r1, #0]
    a1ea:	7841      	ldrb	r1, [r0, #1]
    a1ec:	2902      	cmp	r1, #2
    a1ee:	d013      	beq.n	a218 <isr_mbx_receive+0x40>
    a1f0:	f3ef 8110 	mrs	r1, PRIMASK
    a1f4:	b672      	cpsid	i
    a1f6:	3b01      	subs	r3, #1
    a1f8:	81a3      	strh	r3, [r4, #12]
    a1fa:	b662      	cpsie	i
    a1fc:	3201      	adds	r2, #1
    a1fe:	89e3      	ldrh	r3, [r4, #14]
    a200:	b292      	uxth	r2, r2
    a202:	4293      	cmp	r3, r2
    a204:	8162      	strh	r2, [r4, #10]
    a206:	d003      	beq.n	a210 <isr_mbx_receive+0x38>
    a208:	2004      	movs	r0, #4
    a20a:	bd38      	pop	{r3, r4, r5, pc}
    a20c:	4618      	mov	r0, r3
    a20e:	bd38      	pop	{r3, r4, r5, pc}
    a210:	2300      	movs	r3, #0
    a212:	8163      	strh	r3, [r4, #10]
    a214:	2004      	movs	r0, #4
    a216:	bd38      	pop	{r3, r4, r5, pc}
    a218:	2100      	movs	r1, #0
    a21a:	f7ff fefb 	bl	a014 <rt_psq_enq>
    a21e:	f000 f9c1 	bl	a5a4 <rt_psh_req>
    a222:	89a3      	ldrh	r3, [r4, #12]
    a224:	8962      	ldrh	r2, [r4, #10]
    a226:	e7e3      	b.n	a1f0 <isr_mbx_receive+0x18>

0000a228 <rt_mbx_psh>:
    a228:	6843      	ldr	r3, [r0, #4]
    a22a:	b570      	push	{r4, r5, r6, lr}
    a22c:	4604      	mov	r4, r0
    a22e:	460e      	mov	r6, r1
    a230:	2b00      	cmp	r3, #0
    a232:	d04d      	beq.n	a2d0 <rt_mbx_psh+0xa8>
    a234:	7845      	ldrb	r5, [r0, #1]
    a236:	2d02      	cmp	r5, #2
    a238:	d025      	beq.n	a286 <rt_mbx_psh+0x5e>
    a23a:	2d03      	cmp	r5, #3
    a23c:	d002      	beq.n	a244 <rt_mbx_psh+0x1c>
    a23e:	2d01      	cmp	r5, #1
    a240:	d010      	beq.n	a264 <rt_mbx_psh+0x3c>
    a242:	bd70      	pop	{r4, r5, r6, pc}
    a244:	4608      	mov	r0, r1
    a246:	f000 f861 	bl	a30c <rt_alloc_box>
    a24a:	4605      	mov	r5, r0
    a24c:	2800      	cmp	r0, #0
    a24e:	d0f8      	beq.n	a242 <rt_mbx_psh+0x1a>
    a250:	4620      	mov	r0, r4
    a252:	f7ff fe07 	bl	9e64 <rt_get_first>
    a256:	4629      	mov	r1, r5
    a258:	4604      	mov	r4, r0
    a25a:	f000 fcc3 	bl	abe4 <rt_ret_val>
    a25e:	2301      	movs	r3, #1
    a260:	7063      	strb	r3, [r4, #1]
    a262:	e007      	b.n	a274 <rt_mbx_psh+0x4c>
    a264:	f7ff fdfe 	bl	9e64 <rt_get_first>
    a268:	4632      	mov	r2, r6
    a26a:	4604      	mov	r4, r0
    a26c:	2110      	movs	r1, #16
    a26e:	f000 fcbd 	bl	abec <rt_ret_val2>
    a272:	7065      	strb	r5, [r4, #1]
    a274:	4620      	mov	r0, r4
    a276:	f7ff feb9 	bl	9fec <rt_rmv_dly>
    a27a:	4621      	mov	r1, r4
    a27c:	4822      	ldr	r0, [pc, #136]	; (a308 <rt_mbx_psh+0xe0>)
    a27e:	e8bd 4070 	ldmia.w	sp!, {r4, r5, r6, lr}
    a282:	f7ff bdc5 	b.w	9e10 <rt_put_prio>
    a286:	f7ff fded 	bl	9e64 <rt_get_first>
    a28a:	2100      	movs	r1, #0
    a28c:	4605      	mov	r5, r0
    a28e:	f000 fca9 	bl	abe4 <rt_ret_val>
    a292:	8923      	ldrh	r3, [r4, #8]
    a294:	69ea      	ldr	r2, [r5, #28]
    a296:	1d19      	adds	r1, r3, #4
    a298:	f844 2021 	str.w	r2, [r4, r1, lsl #2]
    a29c:	f3ef 8210 	mrs	r2, PRIMASK
    a2a0:	b672      	cpsid	i
    a2a2:	89a2      	ldrh	r2, [r4, #12]
    a2a4:	3201      	adds	r2, #1
    a2a6:	81a2      	strh	r2, [r4, #12]
    a2a8:	b662      	cpsie	i
    a2aa:	89e2      	ldrh	r2, [r4, #14]
    a2ac:	3301      	adds	r3, #1
    a2ae:	b29b      	uxth	r3, r3
    a2b0:	429a      	cmp	r2, r3
    a2b2:	8123      	strh	r3, [r4, #8]
    a2b4:	bf04      	itt	eq
    a2b6:	2300      	moveq	r3, #0
    a2b8:	8123      	strheq	r3, [r4, #8]
    a2ba:	2301      	movs	r3, #1
    a2bc:	4628      	mov	r0, r5
    a2be:	706b      	strb	r3, [r5, #1]
    a2c0:	f7ff fe94 	bl	9fec <rt_rmv_dly>
    a2c4:	4629      	mov	r1, r5
    a2c6:	4810      	ldr	r0, [pc, #64]	; (a308 <rt_mbx_psh+0xe0>)
    a2c8:	e8bd 4070 	ldmia.w	sp!, {r4, r5, r6, lr}
    a2cc:	f7ff bda0 	b.w	9e10 <rt_put_prio>
    a2d0:	8982      	ldrh	r2, [r0, #12]
    a2d2:	89c3      	ldrh	r3, [r0, #14]
    a2d4:	429a      	cmp	r2, r3
    a2d6:	d211      	bcs.n	a2fc <rt_mbx_psh+0xd4>
    a2d8:	8901      	ldrh	r1, [r0, #8]
    a2da:	1d08      	adds	r0, r1, #4
    a2dc:	f844 6020 	str.w	r6, [r4, r0, lsl #2]
    a2e0:	f3ef 8010 	mrs	r0, PRIMASK
    a2e4:	b672      	cpsid	i
    a2e6:	3201      	adds	r2, #1
    a2e8:	81a2      	strh	r2, [r4, #12]
    a2ea:	b662      	cpsie	i
    a2ec:	3101      	adds	r1, #1
    a2ee:	b289      	uxth	r1, r1
    a2f0:	428b      	cmp	r3, r1
    a2f2:	bf0a      	itet	eq
    a2f4:	2300      	moveq	r3, #0
    a2f6:	8121      	strhne	r1, [r4, #8]
    a2f8:	8123      	strheq	r3, [r4, #8]
    a2fa:	bd70      	pop	{r4, r5, r6, pc}
    a2fc:	2003      	movs	r0, #3
    a2fe:	e8bd 4070 	ldmia.w	sp!, {r4, r5, r6, lr}
    a302:	f000 bc79 	b.w	abf8 <os_error>
    a306:	bf00      	nop
    a308:	10001050 	.word	0x10001050

0000a30c <rt_alloc_box>:
    a30c:	f3ef 8210 	mrs	r2, PRIMASK
    a310:	b672      	cpsid	i
    a312:	6803      	ldr	r3, [r0, #0]
    a314:	f002 0201 	and.w	r2, r2, #1
    a318:	b10b      	cbz	r3, a31e <rt_alloc_box+0x12>
    a31a:	6819      	ldr	r1, [r3, #0]
    a31c:	6001      	str	r1, [r0, #0]
    a31e:	b902      	cbnz	r2, a322 <rt_alloc_box+0x16>
    a320:	b662      	cpsie	i
    a322:	4618      	mov	r0, r3
    a324:	4770      	bx	lr
    a326:	bf00      	nop

0000a328 <rt_free_box>:
    a328:	4281      	cmp	r1, r0
    a32a:	d30e      	bcc.n	a34a <rt_free_box+0x22>
    a32c:	6843      	ldr	r3, [r0, #4]
    a32e:	4299      	cmp	r1, r3
    a330:	d20b      	bcs.n	a34a <rt_free_box+0x22>
    a332:	f3ef 8210 	mrs	r2, PRIMASK
    a336:	b672      	cpsid	i
    a338:	6803      	ldr	r3, [r0, #0]
    a33a:	600b      	str	r3, [r1, #0]
    a33c:	4613      	mov	r3, r2
    a33e:	07db      	lsls	r3, r3, #31
    a340:	6001      	str	r1, [r0, #0]
    a342:	d404      	bmi.n	a34e <rt_free_box+0x26>
    a344:	b662      	cpsie	i
    a346:	2000      	movs	r0, #0
    a348:	4770      	bx	lr
    a34a:	2001      	movs	r0, #1
    a34c:	4770      	bx	lr
    a34e:	2000      	movs	r0, #0
    a350:	4770      	bx	lr
    a352:	bf00      	nop

0000a354 <rt_mut_init>:
    a354:	2300      	movs	r3, #0
    a356:	2203      	movs	r2, #3
    a358:	7002      	strb	r2, [r0, #0]
    a35a:	7043      	strb	r3, [r0, #1]
    a35c:	8043      	strh	r3, [r0, #2]
    a35e:	6043      	str	r3, [r0, #4]
    a360:	6083      	str	r3, [r0, #8]
    a362:	4770      	bx	lr

0000a364 <rt_mut_release>:
    a364:	e92d 43f8 	stmdb	sp!, {r3, r4, r5, r6, r7, r8, r9, lr}
    a368:	8843      	ldrh	r3, [r0, #2]
    a36a:	4604      	mov	r4, r0
    a36c:	b913      	cbnz	r3, a374 <rt_mut_release+0x10>
    a36e:	20ff      	movs	r0, #255	; 0xff
    a370:	e8bd 83f8 	ldmia.w	sp!, {r3, r4, r5, r6, r7, r8, r9, pc}
    a374:	4d29      	ldr	r5, [pc, #164]	; (a41c <rt_mut_release+0xb8>)
    a376:	6882      	ldr	r2, [r0, #8]
    a378:	6829      	ldr	r1, [r5, #0]
    a37a:	428a      	cmp	r2, r1
    a37c:	d1f7      	bne.n	a36e <rt_mut_release+0xa>
    a37e:	3b01      	subs	r3, #1
    a380:	b29e      	uxth	r6, r3
    a382:	8046      	strh	r6, [r0, #2]
    a384:	bb1e      	cbnz	r6, a3ce <rt_mut_release+0x6a>
    a386:	7843      	ldrb	r3, [r0, #1]
    a388:	7093      	strb	r3, [r2, #2]
    a38a:	6847      	ldr	r7, [r0, #4]
    a38c:	2f00      	cmp	r7, #0
    a38e:	d033      	beq.n	a3f8 <rt_mut_release+0x94>
    a390:	f7ff fd68 	bl	9e64 <rt_get_first>
    a394:	4631      	mov	r1, r6
    a396:	4607      	mov	r7, r0
    a398:	f04f 0801 	mov.w	r8, #1
    a39c:	f000 fc22 	bl	abe4 <rt_ret_val>
    a3a0:	4638      	mov	r0, r7
    a3a2:	f7ff fe23 	bl	9fec <rt_rmv_dly>
    a3a6:	60a7      	str	r7, [r4, #8]
    a3a8:	f8a4 8002 	strh.w	r8, [r4, #2]
    a3ac:	78bb      	ldrb	r3, [r7, #2]
    a3ae:	f8df 9070 	ldr.w	r9, [pc, #112]	; a420 <rt_mut_release+0xbc>
    a3b2:	7063      	strb	r3, [r4, #1]
    a3b4:	6829      	ldr	r1, [r5, #0]
    a3b6:	f8d9 3004 	ldr.w	r3, [r9, #4]
    a3ba:	788a      	ldrb	r2, [r1, #2]
    a3bc:	789b      	ldrb	r3, [r3, #2]
    a3be:	429a      	cmp	r2, r3
    a3c0:	d308      	bcc.n	a3d4 <rt_mut_release+0x70>
    a3c2:	4638      	mov	r0, r7
    a3c4:	f000 f9d2 	bl	a76c <rt_dispatch>
    a3c8:	4630      	mov	r0, r6
    a3ca:	e8bd 83f8 	ldmia.w	sp!, {r3, r4, r5, r6, r7, r8, r9, pc}
    a3ce:	2000      	movs	r0, #0
    a3d0:	e8bd 83f8 	ldmia.w	sp!, {r3, r4, r5, r6, r7, r8, r9, pc}
    a3d4:	4648      	mov	r0, r9
    a3d6:	f7ff fd1b 	bl	9e10 <rt_put_prio>
    a3da:	4648      	mov	r0, r9
    a3dc:	4639      	mov	r1, r7
    a3de:	f7ff fd17 	bl	9e10 <rt_put_prio>
    a3e2:	682b      	ldr	r3, [r5, #0]
    a3e4:	4630      	mov	r0, r6
    a3e6:	f883 8001 	strb.w	r8, [r3, #1]
    a3ea:	f887 8001 	strb.w	r8, [r7, #1]
    a3ee:	f000 f9bd 	bl	a76c <rt_dispatch>
    a3f2:	4630      	mov	r0, r6
    a3f4:	e8bd 83f8 	ldmia.w	sp!, {r3, r4, r5, r6, r7, r8, r9, pc}
    a3f8:	4809      	ldr	r0, [pc, #36]	; (a420 <rt_mut_release+0xbc>)
    a3fa:	6841      	ldr	r1, [r0, #4]
    a3fc:	7889      	ldrb	r1, [r1, #2]
    a3fe:	4299      	cmp	r1, r3
    a400:	d9e5      	bls.n	a3ce <rt_mut_release+0x6a>
    a402:	4611      	mov	r1, r2
    a404:	f7ff fd04 	bl	9e10 <rt_put_prio>
    a408:	682b      	ldr	r3, [r5, #0]
    a40a:	2201      	movs	r2, #1
    a40c:	4638      	mov	r0, r7
    a40e:	705a      	strb	r2, [r3, #1]
    a410:	f000 f9ac 	bl	a76c <rt_dispatch>
    a414:	4638      	mov	r0, r7
    a416:	e8bd 83f8 	ldmia.w	sp!, {r3, r4, r5, r6, r7, r8, r9, pc}
    a41a:	bf00      	nop
    a41c:	10001084 	.word	0x10001084
    a420:	10001050 	.word	0x10001050

0000a424 <rt_mut_wait>:
    a424:	8843      	ldrh	r3, [r0, #2]
    a426:	b570      	push	{r4, r5, r6, lr}
    a428:	4604      	mov	r4, r0
    a42a:	460d      	mov	r5, r1
    a42c:	b943      	cbnz	r3, a440 <rt_mut_wait+0x1c>
    a42e:	4a15      	ldr	r2, [pc, #84]	; (a484 <rt_mut_wait+0x60>)
    a430:	6812      	ldr	r2, [r2, #0]
    a432:	6082      	str	r2, [r0, #8]
    a434:	7892      	ldrb	r2, [r2, #2]
    a436:	7042      	strb	r2, [r0, #1]
    a438:	3301      	adds	r3, #1
    a43a:	8063      	strh	r3, [r4, #2]
    a43c:	2000      	movs	r0, #0
    a43e:	bd70      	pop	{r4, r5, r6, pc}
    a440:	4e10      	ldr	r6, [pc, #64]	; (a484 <rt_mut_wait+0x60>)
    a442:	6881      	ldr	r1, [r0, #8]
    a444:	6832      	ldr	r2, [r6, #0]
    a446:	4291      	cmp	r1, r2
    a448:	d0f6      	beq.n	a438 <rt_mut_wait+0x14>
    a44a:	b1cd      	cbz	r5, a480 <rt_mut_wait+0x5c>
    a44c:	7893      	ldrb	r3, [r2, #2]
    a44e:	7840      	ldrb	r0, [r0, #1]
    a450:	4298      	cmp	r0, r3
    a452:	d30f      	bcc.n	a474 <rt_mut_wait+0x50>
    a454:	6863      	ldr	r3, [r4, #4]
    a456:	b14b      	cbz	r3, a46c <rt_mut_wait+0x48>
    a458:	4620      	mov	r0, r4
    a45a:	4611      	mov	r1, r2
    a45c:	f7ff fcd8 	bl	9e10 <rt_put_prio>
    a460:	4628      	mov	r0, r5
    a462:	2109      	movs	r1, #9
    a464:	f000 f9a4 	bl	a7b0 <rt_block>
    a468:	2001      	movs	r0, #1
    a46a:	bd70      	pop	{r4, r5, r6, pc}
    a46c:	6062      	str	r2, [r4, #4]
    a46e:	6053      	str	r3, [r2, #4]
    a470:	6094      	str	r4, [r2, #8]
    a472:	e7f5      	b.n	a460 <rt_mut_wait+0x3c>
    a474:	708b      	strb	r3, [r1, #2]
    a476:	68a0      	ldr	r0, [r4, #8]
    a478:	f7ff fd9e 	bl	9fb8 <rt_resort_prio>
    a47c:	6832      	ldr	r2, [r6, #0]
    a47e:	e7e9      	b.n	a454 <rt_mut_wait+0x30>
    a480:	2001      	movs	r0, #1
    a482:	bd70      	pop	{r4, r5, r6, pc}
    a484:	10001084 	.word	0x10001084

0000a488 <rt_sem_init>:
    a488:	2202      	movs	r2, #2
    a48a:	2300      	movs	r3, #0
    a48c:	8041      	strh	r1, [r0, #2]
    a48e:	7002      	strb	r2, [r0, #0]
    a490:	6043      	str	r3, [r0, #4]
    a492:	4770      	bx	lr

0000a494 <rt_sem_delete>:
    a494:	6843      	ldr	r3, [r0, #4]
    a496:	b570      	push	{r4, r5, r6, lr}
    a498:	4605      	mov	r5, r0
    a49a:	2601      	movs	r6, #1
    a49c:	b18b      	cbz	r3, a4c2 <rt_sem_delete+0x2e>
    a49e:	4628      	mov	r0, r5
    a4a0:	f7ff fce0 	bl	9e64 <rt_get_first>
    a4a4:	2100      	movs	r1, #0
    a4a6:	4604      	mov	r4, r0
    a4a8:	f000 fb9c 	bl	abe4 <rt_ret_val>
    a4ac:	4620      	mov	r0, r4
    a4ae:	f7ff fd9d 	bl	9fec <rt_rmv_dly>
    a4b2:	7066      	strb	r6, [r4, #1]
    a4b4:	4621      	mov	r1, r4
    a4b6:	480d      	ldr	r0, [pc, #52]	; (a4ec <rt_sem_delete+0x58>)
    a4b8:	f7ff fcaa 	bl	9e10 <rt_put_prio>
    a4bc:	686b      	ldr	r3, [r5, #4]
    a4be:	2b00      	cmp	r3, #0
    a4c0:	d1ed      	bne.n	a49e <rt_sem_delete+0xa>
    a4c2:	480a      	ldr	r0, [pc, #40]	; (a4ec <rt_sem_delete+0x58>)
    a4c4:	6843      	ldr	r3, [r0, #4]
    a4c6:	b16b      	cbz	r3, a4e4 <rt_sem_delete+0x50>
    a4c8:	4c09      	ldr	r4, [pc, #36]	; (a4f0 <rt_sem_delete+0x5c>)
    a4ca:	789a      	ldrb	r2, [r3, #2]
    a4cc:	6821      	ldr	r1, [r4, #0]
    a4ce:	788b      	ldrb	r3, [r1, #2]
    a4d0:	429a      	cmp	r2, r3
    a4d2:	d907      	bls.n	a4e4 <rt_sem_delete+0x50>
    a4d4:	f7ff fc9c 	bl	9e10 <rt_put_prio>
    a4d8:	6823      	ldr	r3, [r4, #0]
    a4da:	2201      	movs	r2, #1
    a4dc:	705a      	strb	r2, [r3, #1]
    a4de:	2000      	movs	r0, #0
    a4e0:	f000 f944 	bl	a76c <rt_dispatch>
    a4e4:	2000      	movs	r0, #0
    a4e6:	7028      	strb	r0, [r5, #0]
    a4e8:	bd70      	pop	{r4, r5, r6, pc}
    a4ea:	bf00      	nop
    a4ec:	10001050 	.word	0x10001050
    a4f0:	10001084 	.word	0x10001084

0000a4f4 <rt_sem_send>:
    a4f4:	6842      	ldr	r2, [r0, #4]
    a4f6:	b510      	push	{r4, lr}
    a4f8:	b16a      	cbz	r2, a516 <rt_sem_send+0x22>
    a4fa:	f7ff fcb3 	bl	9e64 <rt_get_first>
    a4fe:	2101      	movs	r1, #1
    a500:	4604      	mov	r4, r0
    a502:	f000 fb6f 	bl	abe4 <rt_ret_val>
    a506:	4620      	mov	r0, r4
    a508:	f7ff fd70 	bl	9fec <rt_rmv_dly>
    a50c:	4620      	mov	r0, r4
    a50e:	f000 f92d 	bl	a76c <rt_dispatch>
    a512:	2000      	movs	r0, #0
    a514:	bd10      	pop	{r4, pc}
    a516:	8842      	ldrh	r2, [r0, #2]
    a518:	3201      	adds	r2, #1
    a51a:	8042      	strh	r2, [r0, #2]
    a51c:	2000      	movs	r0, #0
    a51e:	bd10      	pop	{r4, pc}

0000a520 <rt_sem_wait>:
    a520:	8842      	ldrh	r2, [r0, #2]
    a522:	b510      	push	{r4, lr}
    a524:	460c      	mov	r4, r1
    a526:	b972      	cbnz	r2, a546 <rt_sem_wait+0x26>
    a528:	b159      	cbz	r1, a542 <rt_sem_wait+0x22>
    a52a:	6842      	ldr	r2, [r0, #4]
    a52c:	b17a      	cbz	r2, a54e <rt_sem_wait+0x2e>
    a52e:	4b0b      	ldr	r3, [pc, #44]	; (a55c <rt_sem_wait+0x3c>)
    a530:	6819      	ldr	r1, [r3, #0]
    a532:	f7ff fc6d 	bl	9e10 <rt_put_prio>
    a536:	4620      	mov	r0, r4
    a538:	2107      	movs	r1, #7
    a53a:	f000 f939 	bl	a7b0 <rt_block>
    a53e:	2001      	movs	r0, #1
    a540:	bd10      	pop	{r4, pc}
    a542:	2001      	movs	r0, #1
    a544:	bd10      	pop	{r4, pc}
    a546:	3a01      	subs	r2, #1
    a548:	8042      	strh	r2, [r0, #2]
    a54a:	2000      	movs	r0, #0
    a54c:	bd10      	pop	{r4, pc}
    a54e:	4903      	ldr	r1, [pc, #12]	; (a55c <rt_sem_wait+0x3c>)
    a550:	6809      	ldr	r1, [r1, #0]
    a552:	6041      	str	r1, [r0, #4]
    a554:	604a      	str	r2, [r1, #4]
    a556:	6088      	str	r0, [r1, #8]
    a558:	e7ed      	b.n	a536 <rt_sem_wait+0x16>
    a55a:	bf00      	nop
    a55c:	10001084 	.word	0x10001084

0000a560 <isr_sem_send>:
    a560:	b508      	push	{r3, lr}
    a562:	2100      	movs	r1, #0
    a564:	f7ff fd56 	bl	a014 <rt_psq_enq>
    a568:	e8bd 4008 	ldmia.w	sp!, {r3, lr}
    a56c:	f000 b81a 	b.w	a5a4 <rt_psh_req>

0000a570 <rt_sem_psh>:
    a570:	6842      	ldr	r2, [r0, #4]
    a572:	b510      	push	{r4, lr}
    a574:	b17a      	cbz	r2, a596 <rt_sem_psh+0x26>
    a576:	f7ff fc75 	bl	9e64 <rt_get_first>
    a57a:	4604      	mov	r4, r0
    a57c:	f7ff fd36 	bl	9fec <rt_rmv_dly>
    a580:	2101      	movs	r1, #1
    a582:	7061      	strb	r1, [r4, #1]
    a584:	4620      	mov	r0, r4
    a586:	f000 fb2d 	bl	abe4 <rt_ret_val>
    a58a:	4621      	mov	r1, r4
    a58c:	4804      	ldr	r0, [pc, #16]	; (a5a0 <rt_sem_psh+0x30>)
    a58e:	e8bd 4010 	ldmia.w	sp!, {r4, lr}
    a592:	f7ff bc3d 	b.w	9e10 <rt_put_prio>
    a596:	8842      	ldrh	r2, [r0, #2]
    a598:	3201      	adds	r2, #1
    a59a:	8042      	strh	r2, [r0, #2]
    a59c:	bd10      	pop	{r4, pc}
    a59e:	bf00      	nop
    a5a0:	10001050 	.word	0x10001050

0000a5a4 <rt_psh_req>:
    a5a4:	4b05      	ldr	r3, [pc, #20]	; (a5bc <rt_psh_req+0x18>)
    a5a6:	781b      	ldrb	r3, [r3, #0]
    a5a8:	b11b      	cbz	r3, a5b2 <rt_psh_req+0xe>
    a5aa:	4b05      	ldr	r3, [pc, #20]	; (a5c0 <rt_psh_req+0x1c>)
    a5ac:	2201      	movs	r2, #1
    a5ae:	701a      	strb	r2, [r3, #0]
    a5b0:	4770      	bx	lr
    a5b2:	4b04      	ldr	r3, [pc, #16]	; (a5c4 <rt_psh_req+0x20>)
    a5b4:	f04f 5280 	mov.w	r2, #268435456	; 0x10000000
    a5b8:	601a      	str	r2, [r3, #0]
    a5ba:	4770      	bx	lr
    a5bc:	10000d25 	.word	0x10000d25
    a5c0:	10000d24 	.word	0x10000d24
    a5c4:	e000ed04 	.word	0xe000ed04

0000a5c8 <rt_pop_req>:
    a5c8:	4a1a      	ldr	r2, [pc, #104]	; (a634 <rt_pop_req+0x6c>)
    a5ca:	b538      	push	{r3, r4, r5, lr}
    a5cc:	6810      	ldr	r0, [r2, #0]
    a5ce:	2301      	movs	r3, #1
    a5d0:	4d19      	ldr	r5, [pc, #100]	; (a638 <rt_pop_req+0x70>)
    a5d2:	7043      	strb	r3, [r0, #1]
    a5d4:	f7ff fc5a 	bl	9e8c <rt_put_rdy_first>
    a5d8:	78ab      	ldrb	r3, [r5, #2]
    a5da:	786c      	ldrb	r4, [r5, #1]
    a5dc:	b993      	cbnz	r3, a604 <rt_pop_req+0x3c>
    a5de:	e021      	b.n	a624 <rt_pop_req+0x5c>
    a5e0:	2a01      	cmp	r2, #1
    a5e2:	d01a      	beq.n	a61a <rt_pop_req+0x52>
    a5e4:	f7ff ffc4 	bl	a570 <rt_sem_psh>
    a5e8:	78eb      	ldrb	r3, [r5, #3]
    a5ea:	3401      	adds	r4, #1
    a5ec:	429c      	cmp	r4, r3
    a5ee:	bf08      	it	eq
    a5f0:	2400      	moveq	r4, #0
    a5f2:	f3ef 8310 	mrs	r3, PRIMASK
    a5f6:	b672      	cpsid	i
    a5f8:	78ab      	ldrb	r3, [r5, #2]
    a5fa:	3b01      	subs	r3, #1
    a5fc:	b2db      	uxtb	r3, r3
    a5fe:	70ab      	strb	r3, [r5, #2]
    a600:	b662      	cpsie	i
    a602:	b17b      	cbz	r3, a624 <rt_pop_req+0x5c>
    a604:	eb05 01c4 	add.w	r1, r5, r4, lsl #3
    a608:	684b      	ldr	r3, [r1, #4]
    a60a:	781a      	ldrb	r2, [r3, #0]
    a60c:	4618      	mov	r0, r3
    a60e:	2a00      	cmp	r2, #0
    a610:	d1e6      	bne.n	a5e0 <rt_pop_req+0x18>
    a612:	8909      	ldrh	r1, [r1, #8]
    a614:	f7ff fbd2 	bl	9dbc <rt_evt_psh>
    a618:	e7e6      	b.n	a5e8 <rt_pop_req+0x20>
    a61a:	4618      	mov	r0, r3
    a61c:	6889      	ldr	r1, [r1, #8]
    a61e:	f7ff fe03 	bl	a228 <rt_mbx_psh>
    a622:	e7e1      	b.n	a5e8 <rt_pop_req+0x20>
    a624:	4805      	ldr	r0, [pc, #20]	; (a63c <rt_pop_req+0x74>)
    a626:	706c      	strb	r4, [r5, #1]
    a628:	f7ff fc1c 	bl	9e64 <rt_get_first>
    a62c:	e8bd 4038 	ldmia.w	sp!, {r3, r4, r5, lr}
    a630:	f000 b894 	b.w	a75c <rt_switch_req>
    a634:	10001084 	.word	0x10001084
    a638:	1000131c 	.word	0x1000131c
    a63c:	10001050 	.word	0x10001050

0000a640 <os_tick_init>:
    a640:	4b09      	ldr	r3, [pc, #36]	; (a668 <os_tick_init+0x28>)
    a642:	b470      	push	{r4, r5, r6}
    a644:	4809      	ldr	r0, [pc, #36]	; (a66c <os_tick_init+0x2c>)
    a646:	681e      	ldr	r6, [r3, #0]
    a648:	4d09      	ldr	r5, [pc, #36]	; (a670 <os_tick_init+0x30>)
    a64a:	4a0a      	ldr	r2, [pc, #40]	; (a674 <os_tick_init+0x34>)
    a64c:	2400      	movs	r4, #0
    a64e:	4b0a      	ldr	r3, [pc, #40]	; (a678 <os_tick_init+0x38>)
    a650:	2107      	movs	r1, #7
    a652:	602e      	str	r6, [r5, #0]
    a654:	6004      	str	r4, [r0, #0]
    a656:	6011      	str	r1, [r2, #0]
    a658:	681a      	ldr	r2, [r3, #0]
    a65a:	f04f 30ff 	mov.w	r0, #4294967295	; 0xffffffff
    a65e:	f042 427f 	orr.w	r2, r2, #4278190080	; 0xff000000
    a662:	601a      	str	r2, [r3, #0]
    a664:	bc70      	pop	{r4, r5, r6}
    a666:	4770      	bx	lr
    a668:	0000dbfc 	.word	0x0000dbfc
    a66c:	e000e018 	.word	0xe000e018
    a670:	e000e014 	.word	0xe000e014
    a674:	e000e010 	.word	0xe000e010
    a678:	e000ed20 	.word	0xe000ed20

0000a67c <os_tick_irqack>:
    a67c:	4770      	bx	lr
    a67e:	bf00      	nop

0000a680 <rt_systick>:
    a680:	4a0b      	ldr	r2, [pc, #44]	; (a6b0 <rt_systick+0x30>)
    a682:	b508      	push	{r3, lr}
    a684:	6810      	ldr	r0, [r2, #0]
    a686:	2301      	movs	r3, #1
    a688:	7043      	strb	r3, [r0, #1]
    a68a:	f7ff fbff 	bl	9e8c <rt_put_rdy_first>
    a68e:	f000 faef 	bl	ac70 <rt_chk_robin>
    a692:	4b08      	ldr	r3, [pc, #32]	; (a6b4 <rt_systick+0x34>)
    a694:	681a      	ldr	r2, [r3, #0]
    a696:	3201      	adds	r2, #1
    a698:	601a      	str	r2, [r3, #0]
    a69a:	f7ff fc31 	bl	9f00 <rt_dec_dly>
    a69e:	f7fe ffaf 	bl	9600 <sysTimerTick>
    a6a2:	4805      	ldr	r0, [pc, #20]	; (a6b8 <rt_systick+0x38>)
    a6a4:	f7ff fbde 	bl	9e64 <rt_get_first>
    a6a8:	e8bd 4008 	ldmia.w	sp!, {r3, lr}
    a6ac:	f000 b856 	b.w	a75c <rt_switch_req>
    a6b0:	10001084 	.word	0x10001084
    a6b4:	100010bc 	.word	0x100010bc
    a6b8:	10001050 	.word	0x10001050

0000a6bc <rt_stk_check>:
    a6bc:	4b08      	ldr	r3, [pc, #32]	; (a6e0 <rt_stk_check+0x24>)
    a6be:	681b      	ldr	r3, [r3, #0]
    a6c0:	78da      	ldrb	r2, [r3, #3]
    a6c2:	2a01      	cmp	r2, #1
    a6c4:	d00a      	beq.n	a6dc <rt_stk_check+0x20>
    a6c6:	6a9a      	ldr	r2, [r3, #40]	; 0x28
    a6c8:	6a5b      	ldr	r3, [r3, #36]	; 0x24
    a6ca:	429a      	cmp	r2, r3
    a6cc:	d803      	bhi.n	a6d6 <rt_stk_check+0x1a>
    a6ce:	6812      	ldr	r2, [r2, #0]
    a6d0:	4b04      	ldr	r3, [pc, #16]	; (a6e4 <rt_stk_check+0x28>)
    a6d2:	429a      	cmp	r2, r3
    a6d4:	d002      	beq.n	a6dc <rt_stk_check+0x20>
    a6d6:	2001      	movs	r0, #1
    a6d8:	f000 ba8e 	b.w	abf8 <os_error>
    a6dc:	4770      	bx	lr
    a6de:	bf00      	nop
    a6e0:	10001084 	.word	0x10001084
    a6e4:	e25a2ea5 	.word	0xe25a2ea5

0000a6e8 <rt_dispatch.part.0>:
    a6e8:	b508      	push	{r3, lr}
    a6ea:	4804      	ldr	r0, [pc, #16]	; (a6fc <rt_dispatch.part.0+0x14>)
    a6ec:	f7ff fbba 	bl	9e64 <rt_get_first>
    a6f0:	4a03      	ldr	r2, [pc, #12]	; (a700 <rt_dispatch.part.0+0x18>)
    a6f2:	2302      	movs	r3, #2
    a6f4:	6050      	str	r0, [r2, #4]
    a6f6:	7043      	strb	r3, [r0, #1]
    a6f8:	bd08      	pop	{r3, pc}
    a6fa:	bf00      	nop
    a6fc:	10001050 	.word	0x10001050
    a700:	10001084 	.word	0x10001084

0000a704 <rt_get_TID>:
    a704:	4b09      	ldr	r3, [pc, #36]	; (a72c <rt_get_TID+0x28>)
    a706:	8818      	ldrh	r0, [r3, #0]
    a708:	b168      	cbz	r0, a726 <rt_get_TID+0x22>
    a70a:	4a09      	ldr	r2, [pc, #36]	; (a730 <rt_get_TID+0x2c>)
    a70c:	6813      	ldr	r3, [r2, #0]
    a70e:	b15b      	cbz	r3, a728 <rt_get_TID+0x24>
    a710:	2301      	movs	r3, #1
    a712:	e002      	b.n	a71a <rt_get_TID+0x16>
    a714:	f852 1f04 	ldr.w	r1, [r2, #4]!
    a718:	b121      	cbz	r1, a724 <rt_get_TID+0x20>
    a71a:	3301      	adds	r3, #1
    a71c:	4283      	cmp	r3, r0
    a71e:	d9f9      	bls.n	a714 <rt_get_TID+0x10>
    a720:	2000      	movs	r0, #0
    a722:	4770      	bx	lr
    a724:	4618      	mov	r0, r3
    a726:	4770      	bx	lr
    a728:	2001      	movs	r0, #1
    a72a:	4770      	bx	lr
    a72c:	0000dbe8 	.word	0x0000dbe8
    a730:	100012c0 	.word	0x100012c0

0000a734 <rt_init_context>:
    a734:	b430      	push	{r4, r5}
    a736:	2400      	movs	r4, #0
    a738:	2501      	movs	r5, #1
    a73a:	7081      	strb	r1, [r0, #2]
    a73c:	7045      	strb	r5, [r0, #1]
    a73e:	7004      	strb	r4, [r0, #0]
    a740:	6044      	str	r4, [r0, #4]
    a742:	6084      	str	r4, [r0, #8]
    a744:	60c4      	str	r4, [r0, #12]
    a746:	6104      	str	r4, [r0, #16]
    a748:	8284      	strh	r4, [r0, #20]
    a74a:	82c4      	strh	r4, [r0, #22]
    a74c:	8304      	strh	r4, [r0, #24]
    a74e:	8344      	strh	r4, [r0, #26]
    a750:	f880 4020 	strb.w	r4, [r0, #32]
    a754:	4611      	mov	r1, r2
    a756:	bc30      	pop	{r4, r5}
    a758:	f000 ba1c 	b.w	ab94 <rt_init_stack>

0000a75c <rt_switch_req>:
    a75c:	4b02      	ldr	r3, [pc, #8]	; (a768 <rt_switch_req+0xc>)
    a75e:	2202      	movs	r2, #2
    a760:	6058      	str	r0, [r3, #4]
    a762:	7042      	strb	r2, [r0, #1]
    a764:	4770      	bx	lr
    a766:	bf00      	nop
    a768:	10001084 	.word	0x10001084

0000a76c <rt_dispatch>:
    a76c:	b538      	push	{r3, r4, r5, lr}
    a76e:	4604      	mov	r4, r0
    a770:	b1b0      	cbz	r0, a7a0 <rt_dispatch+0x34>
    a772:	4d0d      	ldr	r5, [pc, #52]	; (a7a8 <rt_dispatch+0x3c>)
    a774:	7882      	ldrb	r2, [r0, #2]
    a776:	6828      	ldr	r0, [r5, #0]
    a778:	7883      	ldrb	r3, [r0, #2]
    a77a:	429a      	cmp	r2, r3
    a77c:	d807      	bhi.n	a78e <rt_dispatch+0x22>
    a77e:	2301      	movs	r3, #1
    a780:	7063      	strb	r3, [r4, #1]
    a782:	4621      	mov	r1, r4
    a784:	4809      	ldr	r0, [pc, #36]	; (a7ac <rt_dispatch+0x40>)
    a786:	e8bd 4038 	ldmia.w	sp!, {r3, r4, r5, lr}
    a78a:	f7ff bb41 	b.w	9e10 <rt_put_prio>
    a78e:	f7ff fb7d 	bl	9e8c <rt_put_rdy_first>
    a792:	682b      	ldr	r3, [r5, #0]
    a794:	2101      	movs	r1, #1
    a796:	2202      	movs	r2, #2
    a798:	7059      	strb	r1, [r3, #1]
    a79a:	606c      	str	r4, [r5, #4]
    a79c:	7062      	strb	r2, [r4, #1]
    a79e:	bd38      	pop	{r3, r4, r5, pc}
    a7a0:	e8bd 4038 	ldmia.w	sp!, {r3, r4, r5, lr}
    a7a4:	f7ff bfa0 	b.w	a6e8 <rt_dispatch.part.0>
    a7a8:	10001084 	.word	0x10001084
    a7ac:	10001050 	.word	0x10001050

0000a7b0 <rt_block>:
    a7b0:	b538      	push	{r3, r4, r5, lr}
    a7b2:	460d      	mov	r5, r1
    a7b4:	b180      	cbz	r0, a7d8 <rt_block+0x28>
    a7b6:	f64f 73ff 	movw	r3, #65535	; 0xffff
    a7ba:	4298      	cmp	r0, r3
    a7bc:	4c07      	ldr	r4, [pc, #28]	; (a7dc <rt_block+0x2c>)
    a7be:	d003      	beq.n	a7c8 <rt_block+0x18>
    a7c0:	4601      	mov	r1, r0
    a7c2:	6820      	ldr	r0, [r4, #0]
    a7c4:	f7ff fb6c 	bl	9ea0 <rt_put_dly>
    a7c8:	6823      	ldr	r3, [r4, #0]
    a7ca:	4805      	ldr	r0, [pc, #20]	; (a7e0 <rt_block+0x30>)
    a7cc:	705d      	strb	r5, [r3, #1]
    a7ce:	f7ff fb49 	bl	9e64 <rt_get_first>
    a7d2:	2302      	movs	r3, #2
    a7d4:	6060      	str	r0, [r4, #4]
    a7d6:	7043      	strb	r3, [r0, #1]
    a7d8:	bd38      	pop	{r3, r4, r5, pc}
    a7da:	bf00      	nop
    a7dc:	10001084 	.word	0x10001084
    a7e0:	10001050 	.word	0x10001050

0000a7e4 <rt_tsk_self>:
    a7e4:	4b02      	ldr	r3, [pc, #8]	; (a7f0 <rt_tsk_self+0xc>)
    a7e6:	6818      	ldr	r0, [r3, #0]
    a7e8:	b100      	cbz	r0, a7ec <rt_tsk_self+0x8>
    a7ea:	78c0      	ldrb	r0, [r0, #3]
    a7ec:	4770      	bx	lr
    a7ee:	bf00      	nop
    a7f0:	10001084 	.word	0x10001084

0000a7f4 <rt_tsk_prio>:
    a7f4:	b538      	push	{r3, r4, r5, lr}
    a7f6:	b948      	cbnz	r0, a80c <rt_tsk_prio+0x18>
    a7f8:	4c18      	ldr	r4, [pc, #96]	; (a85c <rt_tsk_prio+0x68>)
    a7fa:	6823      	ldr	r3, [r4, #0]
    a7fc:	7099      	strb	r1, [r3, #2]
    a7fe:	4818      	ldr	r0, [pc, #96]	; (a860 <rt_tsk_prio+0x6c>)
    a800:	6843      	ldr	r3, [r0, #4]
    a802:	789b      	ldrb	r3, [r3, #2]
    a804:	428b      	cmp	r3, r1
    a806:	d81e      	bhi.n	a846 <rt_tsk_prio+0x52>
    a808:	2000      	movs	r0, #0
    a80a:	bd38      	pop	{r3, r4, r5, pc}
    a80c:	4b15      	ldr	r3, [pc, #84]	; (a864 <rt_tsk_prio+0x70>)
    a80e:	881b      	ldrh	r3, [r3, #0]
    a810:	4298      	cmp	r0, r3
    a812:	d901      	bls.n	a818 <rt_tsk_prio+0x24>
    a814:	20ff      	movs	r0, #255	; 0xff
    a816:	bd38      	pop	{r3, r4, r5, pc}
    a818:	4b13      	ldr	r3, [pc, #76]	; (a868 <rt_tsk_prio+0x74>)
    a81a:	3801      	subs	r0, #1
    a81c:	f853 5020 	ldr.w	r5, [r3, r0, lsl #2]
    a820:	2d00      	cmp	r5, #0
    a822:	d0f7      	beq.n	a814 <rt_tsk_prio+0x20>
    a824:	4c0d      	ldr	r4, [pc, #52]	; (a85c <rt_tsk_prio+0x68>)
    a826:	70a9      	strb	r1, [r5, #2]
    a828:	6823      	ldr	r3, [r4, #0]
    a82a:	429d      	cmp	r5, r3
    a82c:	d0e7      	beq.n	a7fe <rt_tsk_prio+0xa>
    a82e:	4628      	mov	r0, r5
    a830:	f7ff fbc2 	bl	9fb8 <rt_resort_prio>
    a834:	786b      	ldrb	r3, [r5, #1]
    a836:	2b01      	cmp	r3, #1
    a838:	d1e6      	bne.n	a808 <rt_tsk_prio+0x14>
    a83a:	4809      	ldr	r0, [pc, #36]	; (a860 <rt_tsk_prio+0x6c>)
    a83c:	f7ff fb12 	bl	9e64 <rt_get_first>
    a840:	f7ff ff94 	bl	a76c <rt_dispatch>
    a844:	e7e0      	b.n	a808 <rt_tsk_prio+0x14>
    a846:	6821      	ldr	r1, [r4, #0]
    a848:	f7ff fae2 	bl	9e10 <rt_put_prio>
    a84c:	6823      	ldr	r3, [r4, #0]
    a84e:	2201      	movs	r2, #1
    a850:	705a      	strb	r2, [r3, #1]
    a852:	f7ff ff49 	bl	a6e8 <rt_dispatch.part.0>
    a856:	2000      	movs	r0, #0
    a858:	bd38      	pop	{r3, r4, r5, pc}
    a85a:	bf00      	nop
    a85c:	10001084 	.word	0x10001084
    a860:	10001050 	.word	0x10001050
    a864:	0000dbe8 	.word	0x0000dbe8
    a868:	100012c0 	.word	0x100012c0

0000a86c <rt_tsk_delete>:
    a86c:	b570      	push	{r4, r5, r6, lr}
    a86e:	4c18      	ldr	r4, [pc, #96]	; (a8d0 <rt_tsk_delete+0x64>)
    a870:	6825      	ldr	r5, [r4, #0]
    a872:	b1d0      	cbz	r0, a8aa <rt_tsk_delete+0x3e>
    a874:	78eb      	ldrb	r3, [r5, #3]
    a876:	4283      	cmp	r3, r0
    a878:	d017      	beq.n	a8aa <rt_tsk_delete+0x3e>
    a87a:	4b16      	ldr	r3, [pc, #88]	; (a8d4 <rt_tsk_delete+0x68>)
    a87c:	881b      	ldrh	r3, [r3, #0]
    a87e:	4298      	cmp	r0, r3
    a880:	d901      	bls.n	a886 <rt_tsk_delete+0x1a>
    a882:	20ff      	movs	r0, #255	; 0xff
    a884:	bd70      	pop	{r4, r5, r6, pc}
    a886:	4d14      	ldr	r5, [pc, #80]	; (a8d8 <rt_tsk_delete+0x6c>)
    a888:	1e46      	subs	r6, r0, #1
    a88a:	f855 4026 	ldr.w	r4, [r5, r6, lsl #2]
    a88e:	2c00      	cmp	r4, #0
    a890:	d0f7      	beq.n	a882 <rt_tsk_delete+0x16>
    a892:	4620      	mov	r0, r4
    a894:	f7ff fb76 	bl	9f84 <rt_rmv_list>
    a898:	4620      	mov	r0, r4
    a89a:	f7ff fba7 	bl	9fec <rt_rmv_dly>
    a89e:	2300      	movs	r3, #0
    a8a0:	f845 3026 	str.w	r3, [r5, r6, lsl #2]
    a8a4:	4618      	mov	r0, r3
    a8a6:	62a3      	str	r3, [r4, #40]	; 0x28
    a8a8:	bd70      	pop	{r4, r5, r6, pc}
    a8aa:	2600      	movs	r6, #0
    a8ac:	706e      	strb	r6, [r5, #1]
    a8ae:	f000 f8dc 	bl	aa6a <rt_get_PSP>
    a8b2:	6268      	str	r0, [r5, #36]	; 0x24
    a8b4:	f7ff ff02 	bl	a6bc <rt_stk_check>
    a8b8:	6823      	ldr	r3, [r4, #0]
    a8ba:	4a07      	ldr	r2, [pc, #28]	; (a8d8 <rt_tsk_delete+0x6c>)
    a8bc:	78d9      	ldrb	r1, [r3, #3]
    a8be:	6026      	str	r6, [r4, #0]
    a8c0:	3901      	subs	r1, #1
    a8c2:	f842 6021 	str.w	r6, [r2, r1, lsl #2]
    a8c6:	629e      	str	r6, [r3, #40]	; 0x28
    a8c8:	f7ff ff0e 	bl	a6e8 <rt_dispatch.part.0>
    a8cc:	4630      	mov	r0, r6
    a8ce:	bd70      	pop	{r4, r5, r6, pc}
    a8d0:	10001084 	.word	0x10001084
    a8d4:	0000dbe8 	.word	0x0000dbe8
    a8d8:	100012c0 	.word	0x100012c0

0000a8dc <rt_sys_init>:
    a8dc:	b5f8      	push	{r3, r4, r5, r6, r7, lr}
    a8de:	4b30      	ldr	r3, [pc, #192]	; (a9a0 <rt_sys_init+0xc4>)
    a8e0:	8819      	ldrh	r1, [r3, #0]
    a8e2:	b139      	cbz	r1, a8f4 <rt_sys_init+0x18>
    a8e4:	2300      	movs	r3, #0
    a8e6:	4a2f      	ldr	r2, [pc, #188]	; (a9a4 <rt_sys_init+0xc8>)
    a8e8:	4618      	mov	r0, r3
    a8ea:	3301      	adds	r3, #1
    a8ec:	4299      	cmp	r1, r3
    a8ee:	f842 0f04 	str.w	r0, [r2, #4]!
    a8f2:	d8fa      	bhi.n	a8ea <rt_sys_init+0xe>
    a8f4:	4b2c      	ldr	r3, [pc, #176]	; (a9a8 <rt_sys_init+0xcc>)
    a8f6:	4c2d      	ldr	r4, [pc, #180]	; (a9ac <rt_sys_init+0xd0>)
    a8f8:	881f      	ldrh	r7, [r3, #0]
    a8fa:	4a2d      	ldr	r2, [pc, #180]	; (a9b0 <rt_sys_init+0xd4>)
    a8fc:	2500      	movs	r5, #0
    a8fe:	2301      	movs	r3, #1
    a900:	4620      	mov	r0, r4
    a902:	26ff      	movs	r6, #255	; 0xff
    a904:	492b      	ldr	r1, [pc, #172]	; (a9b4 <rt_sys_init+0xd8>)
    a906:	8467      	strh	r7, [r4, #34]	; 0x22
    a908:	70e6      	strb	r6, [r4, #3]
    a90a:	62a2      	str	r2, [r4, #40]	; 0x28
    a90c:	7063      	strb	r3, [r4, #1]
    a90e:	7025      	strb	r5, [r4, #0]
    a910:	70a5      	strb	r5, [r4, #2]
    a912:	6065      	str	r5, [r4, #4]
    a914:	60a5      	str	r5, [r4, #8]
    a916:	60e5      	str	r5, [r4, #12]
    a918:	6125      	str	r5, [r4, #16]
    a91a:	82a5      	strh	r5, [r4, #20]
    a91c:	82e5      	strh	r5, [r4, #22]
    a91e:	8325      	strh	r5, [r4, #24]
    a920:	8365      	strh	r5, [r4, #26]
    a922:	f884 5020 	strb.w	r5, [r4, #32]
    a926:	f000 f935 	bl	ab94 <rt_init_stack>
    a92a:	4b23      	ldr	r3, [pc, #140]	; (a9b8 <rt_sys_init+0xdc>)
    a92c:	4a23      	ldr	r2, [pc, #140]	; (a9bc <rt_sys_init+0xe0>)
    a92e:	781e      	ldrb	r6, [r3, #0]
    a930:	f8df e0a0 	ldr.w	lr, [pc, #160]	; a9d4 <rt_sys_init+0xf8>
    a934:	4b22      	ldr	r3, [pc, #136]	; (a9c0 <rt_sys_init+0xe4>)
    a936:	4823      	ldr	r0, [pc, #140]	; (a9c4 <rt_sys_init+0xe8>)
    a938:	2702      	movs	r7, #2
    a93a:	f8ce 4000 	str.w	r4, [lr]
    a93e:	7067      	strb	r7, [r4, #1]
    a940:	2104      	movs	r1, #4
    a942:	70d6      	strb	r6, [r2, #3]
    a944:	7015      	strb	r5, [r2, #0]
    a946:	7055      	strb	r5, [r2, #1]
    a948:	7019      	strb	r1, [r3, #0]
    a94a:	60dd      	str	r5, [r3, #12]
    a94c:	611d      	str	r5, [r3, #16]
    a94e:	829d      	strh	r5, [r3, #20]
    a950:	6045      	str	r5, [r0, #4]
    a952:	7001      	strb	r1, [r0, #0]
    a954:	f000 f980 	bl	ac58 <rt_init_robin>
    a958:	4b1b      	ldr	r3, [pc, #108]	; (a9c8 <rt_sys_init+0xec>)
    a95a:	681a      	ldr	r2, [r3, #0]
    a95c:	f442 027f 	orr.w	r2, r2, #16711680	; 0xff0000
    a960:	601a      	str	r2, [r3, #0]
    a962:	681b      	ldr	r3, [r3, #0]
    a964:	021b      	lsls	r3, r3, #8
    a966:	f003 437f 	and.w	r3, r3, #4278190080	; 0xff000000
    a96a:	43db      	mvns	r3, r3
    a96c:	fab3 f383 	clz	r3, r3
    a970:	4a16      	ldr	r2, [pc, #88]	; (a9cc <rt_sys_init+0xf0>)
    a972:	b2db      	uxtb	r3, r3
    a974:	6812      	ldr	r2, [r2, #0]
    a976:	f1c3 0308 	rsb	r3, r3, #8
    a97a:	f3c2 2202 	ubfx	r2, r2, #8, #3
    a97e:	4293      	cmp	r3, r2
    a980:	dc00      	bgt.n	a984 <rt_sys_init+0xa8>
    a982:	1c53      	adds	r3, r2, #1
    a984:	f06f 7280 	mvn.w	r2, #16777216	; 0x1000000
    a988:	fa02 f303 	lsl.w	r3, r2, r3
    a98c:	4a10      	ldr	r2, [pc, #64]	; (a9d0 <rt_sys_init+0xf4>)
    a98e:	f003 437f 	and.w	r3, r3, #4278190080	; 0xff000000
    a992:	6811      	ldr	r1, [r2, #0]
    a994:	f021 417f 	bic.w	r1, r1, #4278190080	; 0xff000000
    a998:	430b      	orrs	r3, r1
    a99a:	6013      	str	r3, [r2, #0]
    a99c:	bdf8      	pop	{r3, r4, r5, r6, r7, pc}
    a99e:	bf00      	nop
    a9a0:	0000dbe8 	.word	0x0000dbe8
    a9a4:	100012bc 	.word	0x100012bc
    a9a8:	0000dbf6 	.word	0x0000dbf6
    a9ac:	1000108c 	.word	0x1000108c
    a9b0:	100010c0 	.word	0x100010c0
    a9b4:	0000abf5 	.word	0x0000abf5
    a9b8:	0000dbf8 	.word	0x0000dbf8
    a9bc:	1000131c 	.word	0x1000131c
    a9c0:	10001068 	.word	0x10001068
    a9c4:	10001050 	.word	0x10001050
    a9c8:	e000ed20 	.word	0xe000ed20
    a9cc:	e000ed0c 	.word	0xe000ed0c
    a9d0:	e000ed1c 	.word	0xe000ed1c
    a9d4:	10001084 	.word	0x10001084

0000a9d8 <rt_sys_start>:
    a9d8:	b508      	push	{r3, lr}
    a9da:	f7ff fe31 	bl	a640 <os_tick_init>
    a9de:	4b0c      	ldr	r3, [pc, #48]	; (aa10 <rt_sys_start+0x38>)
    a9e0:	2800      	cmp	r0, #0
    a9e2:	6018      	str	r0, [r3, #0]
    a9e4:	db12      	blt.n	aa0c <rt_sys_start+0x34>
    a9e6:	f100 4060 	add.w	r0, r0, #3758096384	; 0xe0000000
    a9ea:	22ff      	movs	r2, #255	; 0xff
    a9ec:	f500 4064 	add.w	r0, r0, #58368	; 0xe400
    a9f0:	7002      	strb	r2, [r0, #0]
    a9f2:	681b      	ldr	r3, [r3, #0]
    a9f4:	2101      	movs	r1, #1
    a9f6:	f003 021f 	and.w	r2, r3, #31
    a9fa:	fa01 f202 	lsl.w	r2, r1, r2
    a9fe:	115b      	asrs	r3, r3, #5
    aa00:	009b      	lsls	r3, r3, #2
    aa02:	f103 4360 	add.w	r3, r3, #3758096384	; 0xe0000000
    aa06:	f503 4361 	add.w	r3, r3, #57600	; 0xe100
    aa0a:	601a      	str	r2, [r3, #0]
    aa0c:	bd08      	pop	{r3, pc}
    aa0e:	bf00      	nop
    aa10:	10001080 	.word	0x10001080

0000aa14 <rt_dly_wait>:
    aa14:	2103      	movs	r1, #3
    aa16:	f7ff becb 	b.w	a7b0 <rt_block>
    aa1a:	bf00      	nop

0000aa1c <rtos::Semaphore::Semaphore(long)>:
    aa1c:	b510      	push	{r4, lr}
    aa1e:	2300      	movs	r3, #0
    aa20:	4604      	mov	r4, r0
    aa22:	f100 0208 	add.w	r2, r0, #8
    aa26:	7223      	strb	r3, [r4, #8]
    aa28:	7263      	strb	r3, [r4, #9]
    aa2a:	72a3      	strb	r3, [r4, #10]
    aa2c:	72e3      	strb	r3, [r4, #11]
    aa2e:	7323      	strb	r3, [r4, #12]
    aa30:	7363      	strb	r3, [r4, #13]
    aa32:	73a3      	strb	r3, [r4, #14]
    aa34:	73e3      	strb	r3, [r4, #15]
    aa36:	f840 2f04 	str.w	r2, [r0, #4]!
    aa3a:	f7fe ffc3 	bl	99c4 <osSemaphoreCreate>
    aa3e:	6020      	str	r0, [r4, #0]
    aa40:	4620      	mov	r0, r4
    aa42:	bd10      	pop	{r4, pc}

0000aa44 <rtos::Semaphore::wait(unsigned long)>:
    aa44:	6800      	ldr	r0, [r0, #0]
    aa46:	f7fe bfd7 	b.w	99f8 <osSemaphoreWait>
    aa4a:	bf00      	nop

0000aa4c <rtos::Semaphore::release()>:
    aa4c:	6800      	ldr	r0, [r0, #0]
    aa4e:	f7fe bfe1 	b.w	9a14 <osSemaphoreRelease>
    aa52:	bf00      	nop

0000aa54 <rtos::Semaphore::~Semaphore()>:
    aa54:	b510      	push	{r4, lr}
    aa56:	4604      	mov	r4, r0
    aa58:	6800      	ldr	r0, [r0, #0]
    aa5a:	f7fe fff9 	bl	9a50 <osSemaphoreDelete>
    aa5e:	4620      	mov	r0, r4
    aa60:	bd10      	pop	{r4, pc}
    aa62:	bf00      	nop

0000aa64 <rt_set_PSP>:
    aa64:	f380 8809 	msr	PSP, r0
    aa68:	4770      	bx	lr

0000aa6a <rt_get_PSP>:
    aa6a:	f3ef 8009 	mrs	r0, PSP
    aa6e:	4770      	bx	lr

0000aa70 <os_set_env>:
    aa70:	4668      	mov	r0, sp
    aa72:	f380 8809 	msr	PSP, r0
    aa76:	4841      	ldr	r0, [pc, #260]	; (ab7c <OS_Tick_Handler+0xe>)
    aa78:	7800      	ldrb	r0, [r0, #0]
    aa7a:	07c0      	lsls	r0, r0, #31
    aa7c:	bf14      	ite	ne
    aa7e:	2002      	movne	r0, #2
    aa80:	2003      	moveq	r0, #3
    aa82:	f380 8814 	msr	CONTROL, r0
    aa86:	4770      	bx	lr

0000aa88 <_alloc_box>:
    aa88:	f8df c0f4 	ldr.w	r12, [pc, #244]	; ab80 <OS_Tick_Handler+0x12>
    aa8c:	f3ef 8305 	mrs	r3, IPSR
    aa90:	061b      	lsls	r3, r3, #24
    aa92:	bf18      	it	ne
    aa94:	4760      	bxne	r12
    aa96:	f3ef 8314 	mrs	r3, CONTROL
    aa9a:	07db      	lsls	r3, r3, #31
    aa9c:	bf08      	it	eq
    aa9e:	4760      	bxeq	r12
    aaa0:	df00      	svc	0
    aaa2:	4770      	bx	lr

0000aaa4 <_free_box>:
    aaa4:	f8df c0dc 	ldr.w	r12, [pc, #220]	; ab84 <OS_Tick_Handler+0x16>
    aaa8:	f3ef 8305 	mrs	r3, IPSR
    aaac:	061b      	lsls	r3, r3, #24
    aaae:	bf18      	it	ne
    aab0:	4760      	bxne	r12
    aab2:	f3ef 8314 	mrs	r3, CONTROL
    aab6:	07db      	lsls	r3, r3, #31
    aab8:	bf08      	it	eq
    aaba:	4760      	bxeq	r12
    aabc:	df00      	svc	0
    aabe:	4770      	bx	lr

0000aac0 <SVC_Handler>:
    aac0:	f3ef 8009 	mrs	r0, PSP
    aac4:	6981      	ldr	r1, [r0, #24]
    aac6:	f811 1c02 	ldrb.w	r1, [r1, #-2]
    aaca:	b9f9      	cbnz	r1, ab0c <SVC_User>
    aacc:	e890 100f 	ldmia.w	r0, {r0, r1, r2, r3, r12}
    aad0:	47e0      	blx	r12
    aad2:	f3ef 8c09 	mrs	r12, PSP
    aad6:	e88c 0007 	stmia.w	r12, {r0, r1, r2}
    aada:	4b2b      	ldr	r3, [pc, #172]	; (ab88 <OS_Tick_Handler+0x1a>)
    aadc:	e893 0006 	ldmia.w	r3, {r1, r2}
    aae0:	4291      	cmp	r1, r2
    aae2:	f000 8010 	beq.w	ab06 <SVC_Exit>
    aae6:	b139      	cbz	r1, aaf8 <SVC_Next>
    aae8:	e92c 0ff0 	stmdb	r12!, {r4, r5, r6, r7, r8, r9, r10, r11}
    aaec:	f8c1 c024 	str.w	r12, [r1, #36]	; 0x24
    aaf0:	b40c      	push	{r2, r3}
    aaf2:	f7ff fde3 	bl	a6bc <rt_stk_check>
    aaf6:	bc0c      	pop	{r2, r3}

0000aaf8 <SVC_Next>:
    aaf8:	601a      	str	r2, [r3, #0]
    aafa:	f8d2 c024 	ldr.w	r12, [r2, #36]	; 0x24
    aafe:	e8bc 0ff0 	ldmia.w	r12!, {r4, r5, r6, r7, r8, r9, r10, r11}
    ab02:	f38c 8809 	msr	PSP, r12

0000ab06 <SVC_Exit>:
    ab06:	f06f 0e02 	mvn.w	lr, #2
    ab0a:	4770      	bx	lr

0000ab0c <SVC_User>:
    ab0c:	b510      	push	{r4, lr}
    ab0e:	4a1f      	ldr	r2, [pc, #124]	; (ab8c <OS_Tick_Handler+0x1e>)
    ab10:	6812      	ldr	r2, [r2, #0]
    ab12:	4291      	cmp	r1, r2
    ab14:	f200 800a 	bhi.w	ab2c <SVC_Done>
    ab18:	4c1d      	ldr	r4, [pc, #116]	; (ab90 <OS_Tick_Handler+0x22>)
    ab1a:	f854 4021 	ldr.w	r4, [r4, r1, lsl #2]
    ab1e:	e890 100f 	ldmia.w	r0, {r0, r1, r2, r3, r12}
    ab22:	47a0      	blx	r4
    ab24:	f3ef 8c09 	mrs	r12, PSP
    ab28:	e88c 000f 	stmia.w	r12, {r0, r1, r2, r3}

0000ab2c <SVC_Done>:
    ab2c:	bd10      	pop	{r4, pc}

0000ab2e <PendSV_Handler>:
    ab2e:	f7ff fd4b 	bl	a5c8 <rt_pop_req>

0000ab32 <Sys_Switch>:
    ab32:	4b15      	ldr	r3, [pc, #84]	; (ab88 <OS_Tick_Handler+0x1a>)
    ab34:	e893 0006 	ldmia.w	r3, {r1, r2}
    ab38:	4291      	cmp	r1, r2
    ab3a:	f000 8011 	beq.w	ab60 <Sys_Exit>
    ab3e:	f3ef 8c09 	mrs	r12, PSP
    ab42:	e92c 0ff0 	stmdb	r12!, {r4, r5, r6, r7, r8, r9, r10, r11}
    ab46:	f8c1 c024 	str.w	r12, [r1, #36]	; 0x24
    ab4a:	b40c      	push	{r2, r3}
    ab4c:	f7ff fdb6 	bl	a6bc <rt_stk_check>
    ab50:	bc0c      	pop	{r2, r3}
    ab52:	601a      	str	r2, [r3, #0]
    ab54:	f8d2 c024 	ldr.w	r12, [r2, #36]	; 0x24
    ab58:	e8bc 0ff0 	ldmia.w	r12!, {r4, r5, r6, r7, r8, r9, r10, r11}
    ab5c:	f38c 8809 	msr	PSP, r12

0000ab60 <Sys_Exit>:
    ab60:	f06f 0e02 	mvn.w	lr, #2
    ab64:	4770      	bx	lr

0000ab66 <SysTick_Handler>:
    ab66:	f7ff fd8b 	bl	a680 <rt_systick>
    ab6a:	f7ff bfe2 	b.w	ab32 <Sys_Switch>

0000ab6e <OS_Tick_Handler>:
    ab6e:	f7ff fd85 	bl	a67c <os_tick_irqack>
    ab72:	f7ff fd85 	bl	a680 <rt_systick>
    ab76:	f7ff bfdc 	b.w	ab32 <Sys_Switch>
    ab7a:	0000      	.short	0x0000
    ab7c:	0000dbf4 	.word	0x0000dbf4
    ab80:	0000a30d 	.word	0x0000a30d
    ab84:	0000a329 	.word	0x0000a329
    ab88:	10001084 	.word	0x10001084
    ab8c:	00000000 	.word	0x00000000
    ab90:	fffffffc 	.word	0xfffffffc

0000ab94 <rt_init_stack>:
    ab94:	b4f0      	push	{r4, r5, r6, r7}
    ab96:	8c45      	ldrh	r5, [r0, #34]	; 0x22
    ab98:	6a86      	ldr	r6, [r0, #40]	; 0x28
    ab9a:	08ad      	lsrs	r5, r5, #2
    ab9c:	eb06 0585 	add.w	r5, r6, r5, lsl #2
    aba0:	076b      	lsls	r3, r5, #29
    aba2:	bf48      	it	mi
    aba4:	3d04      	submi	r5, #4
    aba6:	f04f 7380 	mov.w	r3, #16777216	; 0x1000000
    abaa:	e905 000a 	stmdb	r5, {r1, r3}
    abae:	f1a5 0740 	sub.w	r7, r5, #64	; 0x40
    abb2:	f1a5 0344 	sub.w	r3, r5, #68	; 0x44
    abb6:	f1a5 040c 	sub.w	r4, r5, #12
    abba:	2200      	movs	r2, #0
    abbc:	f843 2f04 	str.w	r2, [r3, #4]!
    abc0:	42a3      	cmp	r3, r4
    abc2:	d1fb      	bne.n	abbc <rt_init_stack+0x28>
    abc4:	69c3      	ldr	r3, [r0, #28]
    abc6:	f845 3c20 	str.w	r3, [r5, #-32]
    abca:	78c3      	ldrb	r3, [r0, #3]
    abcc:	6247      	str	r7, [r0, #36]	; 0x24
    abce:	2b01      	cmp	r3, #1
    abd0:	bf18      	it	ne
    abd2:	4b03      	ldrne	r3, [pc, #12]	; (abe0 <rt_init_stack+0x4c>)
    abd4:	62c1      	str	r1, [r0, #44]	; 0x2c
    abd6:	bf18      	it	ne
    abd8:	6033      	strne	r3, [r6, #0]
    abda:	bcf0      	pop	{r4, r5, r6, r7}
    abdc:	4770      	bx	lr
    abde:	bf00      	nop
    abe0:	e25a2ea5 	.word	0xe25a2ea5

0000abe4 <rt_ret_val>:
    abe4:	6a43      	ldr	r3, [r0, #36]	; 0x24
    abe6:	6219      	str	r1, [r3, #32]
    abe8:	4770      	bx	lr
    abea:	bf00      	nop

0000abec <rt_ret_val2>:
    abec:	6a43      	ldr	r3, [r0, #36]	; 0x24
    abee:	6219      	str	r1, [r3, #32]
    abf0:	625a      	str	r2, [r3, #36]	; 0x24
    abf2:	4770      	bx	lr

0000abf4 <os_idle_demon>:
    abf4:	e7fe      	b.n	abf4 <os_idle_demon>
    abf6:	bf00      	nop

0000abf8 <os_error>:
    abf8:	f000 b936 	b.w	ae68 <mbed_die>

0000abfc <sysThreadError>:
    abfc:	b900      	cbnz	r0, ac00 <sysThreadError+0x4>
    abfe:	4770      	bx	lr
    ac00:	f000 b932 	b.w	ae68 <mbed_die>

0000ac04 <set_main_stack>:
    ac04:	4904      	ldr	r1, [pc, #16]	; (ac18 <set_main_stack+0x14>)
    ac06:	4a05      	ldr	r2, [pc, #20]	; (ac1c <set_main_stack+0x18>)
    ac08:	f1c1 5380 	rsb	r3, r1, #268435456	; 0x10000000
    ac0c:	f503 43f8 	add.w	r3, r3, #31744	; 0x7c00
    ac10:	6093      	str	r3, [r2, #8]
    ac12:	60d1      	str	r1, [r2, #12]
    ac14:	4770      	bx	lr
    ac16:	bf00      	nop
    ac18:	10001bc0 	.word	0x10001bc0
    ac1c:	100000e4 	.word	0x100000e4

0000ac20 <software_init_hook>:
    ac20:	2000      	movs	r0, #0
    ac22:	2100      	movs	r1, #0
    ac24:	4604      	mov	r4, r0
    ac26:	460d      	mov	r5, r1
    ac28:	4809      	ldr	r0, [pc, #36]	; (ac50 <software_init_hook+0x30>)
    ac2a:	f000 fffc 	bl	bc26 <atexit>
    ac2e:	f001 f9c9 	bl	bfc4 <__libc_init_array>
    ac32:	4620      	mov	r0, r4
    ac34:	4629      	mov	r1, r5
    ac36:	f7fe fba1 	bl	937c <osKernelInitialize>
    ac3a:	f7ff ffe3 	bl	ac04 <set_main_stack>
    ac3e:	4805      	ldr	r0, [pc, #20]	; (ac54 <software_init_hook+0x34>)
    ac40:	2100      	movs	r1, #0
    ac42:	f7fe fc37 	bl	94b4 <osThreadCreate>
    ac46:	f7fe fbad 	bl	93a4 <osKernelStart>
    ac4a:	f000 f959 	bl	af00 <exit>
    ac4e:	0000      	.short	0x0000
    ac50:	0000bf5d 	.word	0x0000bf5d
    ac54:	100000e4 	.word	0x100000e4

0000ac58 <rt_init_robin>:
    ac58:	4a03      	ldr	r2, [pc, #12]	; (ac68 <rt_init_robin+0x10>)
    ac5a:	4b04      	ldr	r3, [pc, #16]	; (ac6c <rt_init_robin+0x14>)
    ac5c:	6811      	ldr	r1, [r2, #0]
    ac5e:	2200      	movs	r2, #0
    ac60:	80d9      	strh	r1, [r3, #6]
    ac62:	601a      	str	r2, [r3, #0]
    ac64:	4770      	bx	lr
    ac66:	bf00      	nop
    ac68:	0000dbf0 	.word	0x0000dbf0
    ac6c:	10001ba8 	.word	0x10001ba8

0000ac70 <rt_chk_robin>:
    ac70:	4a10      	ldr	r2, [pc, #64]	; (acb4 <rt_chk_robin+0x44>)
    ac72:	b508      	push	{r3, lr}
    ac74:	4b10      	ldr	r3, [pc, #64]	; (acb8 <rt_chk_robin+0x48>)
    ac76:	6851      	ldr	r1, [r2, #4]
    ac78:	681a      	ldr	r2, [r3, #0]
    ac7a:	428a      	cmp	r2, r1
    ac7c:	d016      	beq.n	acac <rt_chk_robin+0x3c>
    ac7e:	480f      	ldr	r0, [pc, #60]	; (acbc <rt_chk_robin+0x4c>)
    ac80:	88da      	ldrh	r2, [r3, #6]
    ac82:	6800      	ldr	r0, [r0, #0]
    ac84:	3a01      	subs	r2, #1
    ac86:	4402      	add	r2, r0
    ac88:	b292      	uxth	r2, r2
    ac8a:	6019      	str	r1, [r3, #0]
    ac8c:	809a      	strh	r2, [r3, #4]
    ac8e:	b280      	uxth	r0, r0
    ac90:	4290      	cmp	r0, r2
    ac92:	d000      	beq.n	ac96 <rt_chk_robin+0x26>
    ac94:	bd08      	pop	{r3, pc}
    ac96:	2200      	movs	r2, #0
    ac98:	4806      	ldr	r0, [pc, #24]	; (acb4 <rt_chk_robin+0x44>)
    ac9a:	601a      	str	r2, [r3, #0]
    ac9c:	f7ff f8e2 	bl	9e64 <rt_get_first>
    aca0:	e8bd 4008 	ldmia.w	sp!, {r3, lr}
    aca4:	4601      	mov	r1, r0
    aca6:	4803      	ldr	r0, [pc, #12]	; (acb4 <rt_chk_robin+0x44>)
    aca8:	f7ff b8b2 	b.w	9e10 <rt_put_prio>
    acac:	4903      	ldr	r1, [pc, #12]	; (acbc <rt_chk_robin+0x4c>)
    acae:	889a      	ldrh	r2, [r3, #4]
    acb0:	6808      	ldr	r0, [r1, #0]
    acb2:	e7ec      	b.n	ac8e <rt_chk_robin+0x1e>
    acb4:	10001050 	.word	0x10001050
    acb8:	10001ba8 	.word	0x10001ba8
    acbc:	100010bc 	.word	0x100010bc

0000acc0 <us_ticker_init>:
    acc0:	4a13      	ldr	r2, [pc, #76]	; (ad10 <us_ticker_init+0x50>)
    acc2:	b538      	push	{r3, r4, r5, lr}
    acc4:	6813      	ldr	r3, [r2, #0]
    acc6:	bb0b      	cbnz	r3, ad0c <us_ticker_init+0x4c>
    acc8:	4912      	ldr	r1, [pc, #72]	; (ad14 <us_ticker_init+0x54>)
    acca:	2401      	movs	r4, #1
    accc:	f8d1 50c4 	ldr.w	r5, [r1, #196]	; 0xc4
    acd0:	6014      	str	r4, [r2, #0]
    acd2:	4a11      	ldr	r2, [pc, #68]	; (ad18 <us_ticker_init+0x58>)
    acd4:	4811      	ldr	r0, [pc, #68]	; (ad1c <us_ticker_init+0x5c>)
    acd6:	f445 0500 	orr.w	r5, r5, #8388608	; 0x800000
    acda:	f8c1 50c4 	str.w	r5, [r1, #196]	; 0xc4
    acde:	6713      	str	r3, [r2, #112]	; 0x70
    ace0:	6803      	ldr	r3, [r0, #0]
    ace2:	f101 7143 	add.w	r1, r1, #51118080	; 0x30c0000
    ace6:	f501 51f4 	add.w	r1, r1, #7808	; 0x1e80
    acea:	3103      	adds	r1, #3
    acec:	089b      	lsrs	r3, r3, #2
    acee:	fba1 0303 	umull	r0, r3, r1, r3
    acf2:	0c9b      	lsrs	r3, r3, #18
    acf4:	3b01      	subs	r3, #1
    acf6:	2102      	movs	r1, #2
    acf8:	6051      	str	r1, [r2, #4]
    acfa:	2004      	movs	r0, #4
    acfc:	60d3      	str	r3, [r2, #12]
    acfe:	4908      	ldr	r1, [pc, #32]	; (ad20 <us_ticker_init+0x60>)
    ad00:	6054      	str	r4, [r2, #4]
    ad02:	f000 f837 	bl	ad74 <NVIC_SetVector>
    ad06:	4b07      	ldr	r3, [pc, #28]	; (ad24 <us_ticker_init+0x64>)
    ad08:	2210      	movs	r2, #16
    ad0a:	601a      	str	r2, [r3, #0]
    ad0c:	bd38      	pop	{r3, r4, r5, pc}
    ad0e:	bf00      	nop
    ad10:	10000d28 	.word	0x10000d28
    ad14:	400fc000 	.word	0x400fc000
    ad18:	40094000 	.word	0x40094000
    ad1c:	1000016c 	.word	0x1000016c
    ad20:	0000b06d 	.word	0x0000b06d
    ad24:	e000e100 	.word	0xe000e100

0000ad28 <us_ticker_read>:
    ad28:	b508      	push	{r3, lr}
    ad2a:	4b04      	ldr	r3, [pc, #16]	; (ad3c <us_ticker_read+0x14>)
    ad2c:	681b      	ldr	r3, [r3, #0]
    ad2e:	b90b      	cbnz	r3, ad34 <us_ticker_read+0xc>
    ad30:	f7ff ffc6 	bl	acc0 <us_ticker_init>
    ad34:	4b02      	ldr	r3, [pc, #8]	; (ad40 <us_ticker_read+0x18>)
    ad36:	6898      	ldr	r0, [r3, #8]
    ad38:	bd08      	pop	{r3, pc}
    ad3a:	bf00      	nop
    ad3c:	10000d28 	.word	0x10000d28
    ad40:	40094000 	.word	0x40094000

0000ad44 <us_ticker_set_interrupt>:
    ad44:	4b03      	ldr	r3, [pc, #12]	; (ad54 <us_ticker_set_interrupt+0x10>)
    ad46:	6198      	str	r0, [r3, #24]
    ad48:	695a      	ldr	r2, [r3, #20]
    ad4a:	f042 0201 	orr.w	r2, r2, #1
    ad4e:	615a      	str	r2, [r3, #20]
    ad50:	4770      	bx	lr
    ad52:	bf00      	nop
    ad54:	40094000 	.word	0x40094000

0000ad58 <us_ticker_disable_interrupt>:
    ad58:	4b02      	ldr	r3, [pc, #8]	; (ad64 <us_ticker_disable_interrupt+0xc>)
    ad5a:	695a      	ldr	r2, [r3, #20]
    ad5c:	f022 0201 	bic.w	r2, r2, #1
    ad60:	615a      	str	r2, [r3, #20]
    ad62:	4770      	bx	lr
    ad64:	40094000 	.word	0x40094000

0000ad68 <us_ticker_clear_interrupt>:
    ad68:	4b01      	ldr	r3, [pc, #4]	; (ad70 <us_ticker_clear_interrupt+0x8>)
    ad6a:	2201      	movs	r2, #1
    ad6c:	601a      	str	r2, [r3, #0]
    ad6e:	4770      	bx	lr
    ad70:	40094000 	.word	0x40094000

0000ad74 <NVIC_SetVector>:
    ad74:	4a0c      	ldr	r2, [pc, #48]	; (ada8 <NVIC_SetVector+0x34>)
    ad76:	b430      	push	{r4, r5}
    ad78:	6893      	ldr	r3, [r2, #8]
    ad7a:	6894      	ldr	r4, [r2, #8]
    ad7c:	461a      	mov	r2, r3
    ad7e:	f1b4 5f80 	cmp.w	r4, #268435456	; 0x10000000
    ad82:	d20c      	bcs.n	ad9e <NVIC_SetVector+0x2a>
    ad84:	4a09      	ldr	r2, [pc, #36]	; (adac <NVIC_SetVector+0x38>)
    ad86:	f103 05c4 	add.w	r5, r3, #196	; 0xc4
    ad8a:	f853 4b04 	ldr.w	r4, [r3], #4
    ad8e:	42ab      	cmp	r3, r5
    ad90:	f842 4f04 	str.w	r4, [r2, #4]!
    ad94:	d1f9      	bne.n	ad8a <NVIC_SetVector+0x16>
    ad96:	4b04      	ldr	r3, [pc, #16]	; (ada8 <NVIC_SetVector+0x34>)
    ad98:	f04f 5280 	mov.w	r2, #268435456	; 0x10000000
    ad9c:	609a      	str	r2, [r3, #8]
    ad9e:	3010      	adds	r0, #16
    ada0:	f842 1020 	str.w	r1, [r2, r0, lsl #2]
    ada4:	bc30      	pop	{r4, r5}
    ada6:	4770      	bx	lr
    ada8:	e000ed00 	.word	0xe000ed00
    adac:	0ffffffc 	.word	0x0ffffffc

0000adb0 <SystemInit>:
    adb0:	4a2b      	ldr	r2, [pc, #172]	; (ae60 <SystemInit+0xb0>)
    adb2:	2320      	movs	r3, #32
    adb4:	b470      	push	{r4, r5, r6}
    adb6:	f8c2 31a0 	str.w	r3, [r2, #416]	; 0x1a0
    adba:	f8d2 31a0 	ldr.w	r3, [r2, #416]	; 0x1a0
    adbe:	0698      	lsls	r0, r3, #26
    adc0:	d445      	bmi.n	ae4e <SystemInit+0x9e>
    adc2:	4b27      	ldr	r3, [pc, #156]	; (ae60 <SystemInit+0xb0>)
    adc4:	2102      	movs	r1, #2
    adc6:	2500      	movs	r5, #0
    adc8:	2401      	movs	r4, #1
    adca:	20aa      	movs	r0, #170	; 0xaa
    adcc:	2255      	movs	r2, #85	; 0x55
    adce:	260b      	movs	r6, #11
    add0:	f8c3 1104 	str.w	r1, [r3, #260]	; 0x104
    add4:	f8c3 51a8 	str.w	r5, [r3, #424]	; 0x1a8
    add8:	4619      	mov	r1, r3
    adda:	f8c3 51ac 	str.w	r5, [r3, #428]	; 0x1ac
    adde:	f8c3 410c 	str.w	r4, [r3, #268]	; 0x10c
    ade2:	f8c3 6084 	str.w	r6, [r3, #132]	; 0x84
    ade6:	f8c3 008c 	str.w	r0, [r3, #140]	; 0x8c
    adea:	f8c3 208c 	str.w	r2, [r3, #140]	; 0x8c
    adee:	f8c3 4080 	str.w	r4, [r3, #128]	; 0x80
    adf2:	f8c3 008c 	str.w	r0, [r3, #140]	; 0x8c
    adf6:	f8c3 208c 	str.w	r2, [r3, #140]	; 0x8c
    adfa:	f8d1 3088 	ldr.w	r3, [r1, #136]	; 0x88
    adfe:	4a18      	ldr	r2, [pc, #96]	; (ae60 <SystemInit+0xb0>)
    ae00:	015b      	lsls	r3, r3, #5
    ae02:	d5fa      	bpl.n	adfa <SystemInit+0x4a>
    ae04:	2103      	movs	r1, #3
    ae06:	20aa      	movs	r0, #170	; 0xaa
    ae08:	2355      	movs	r3, #85	; 0x55
    ae0a:	f8c2 1080 	str.w	r1, [r2, #128]	; 0x80
    ae0e:	f8c2 008c 	str.w	r0, [r2, #140]	; 0x8c
    ae12:	4611      	mov	r1, r2
    ae14:	f8c2 308c 	str.w	r3, [r2, #140]	; 0x8c
    ae18:	f8d1 3088 	ldr.w	r3, [r1, #136]	; 0x88
    ae1c:	4a10      	ldr	r2, [pc, #64]	; (ae60 <SystemInit+0xb0>)
    ae1e:	f013 7f40 	tst.w	r3, #50331648	; 0x3000000
    ae22:	d0f9      	beq.n	ae18 <SystemInit+0x68>
    ae24:	490f      	ldr	r1, [pc, #60]	; (ae64 <SystemInit+0xb4>)
    ae26:	2300      	movs	r3, #0
    ae28:	2005      	movs	r0, #5
    ae2a:	f8c2 0108 	str.w	r0, [r2, #264]	; 0x108
    ae2e:	f8c2 10c4 	str.w	r1, [r2, #196]	; 0xc4
    ae32:	f8c2 31c8 	str.w	r3, [r2, #456]	; 0x1c8
    ae36:	6813      	ldr	r3, [r2, #0]
    ae38:	bc70      	pop	{r4, r5, r6}
    ae3a:	f423 4370 	bic.w	r3, r3, #61440	; 0xf000
    ae3e:	f023 033a 	bic.w	r3, r3, #58	; 0x3a
    ae42:	f443 5340 	orr.w	r3, r3, #12288	; 0x3000
    ae46:	f043 033a 	orr.w	r3, r3, #58	; 0x3a
    ae4a:	6013      	str	r3, [r2, #0]
    ae4c:	4770      	bx	lr
    ae4e:	f8d2 31a0 	ldr.w	r3, [r2, #416]	; 0x1a0
    ae52:	0659      	lsls	r1, r3, #25
    ae54:	d4b5      	bmi.n	adc2 <SystemInit+0x12>
    ae56:	f8d2 31a0 	ldr.w	r3, [r2, #416]	; 0x1a0
    ae5a:	0659      	lsls	r1, r3, #25
    ae5c:	d5f7      	bpl.n	ae4e <SystemInit+0x9e>
    ae5e:	e7b0      	b.n	adc2 <SystemInit+0x12>
    ae60:	400fc000 	.word	0x400fc000
    ae64:	042887de 	.word	0x042887de

0000ae68 <mbed_die>:
    ae68:	b500      	push	{lr}
    ae6a:	b099      	sub	sp, #100	; 0x64
    ae6c:	b672      	cpsid	i
    ae6e:	4917      	ldr	r1, [pc, #92]	; (aecc <mbed_die+0x64>)
    ae70:	4668      	mov	r0, sp
    ae72:	f000 f86f 	bl	af54 <gpio_init_out>
    ae76:	a806      	add	r0, sp, #24
    ae78:	4915      	ldr	r1, [pc, #84]	; (aed0 <mbed_die+0x68>)
    ae7a:	f000 f86b 	bl	af54 <gpio_init_out>
    ae7e:	a80c      	add	r0, sp, #48	; 0x30
    ae80:	4914      	ldr	r1, [pc, #80]	; (aed4 <mbed_die+0x6c>)
    ae82:	f000 f867 	bl	af54 <gpio_init_out>
    ae86:	a812      	add	r0, sp, #72	; 0x48
    ae88:	4913      	ldr	r1, [pc, #76]	; (aed8 <mbed_die+0x70>)
    ae8a:	f000 f863 	bl	af54 <gpio_init_out>
    ae8e:	9b03      	ldr	r3, [sp, #12]
    ae90:	9a01      	ldr	r2, [sp, #4]
    ae92:	980a      	ldr	r0, [sp, #40]	; 0x28
    ae94:	601a      	str	r2, [r3, #0]
    ae96:	9b07      	ldr	r3, [sp, #28]
    ae98:	9910      	ldr	r1, [sp, #64]	; 0x40
    ae9a:	6003      	str	r3, [r0, #0]
    ae9c:	9b0d      	ldr	r3, [sp, #52]	; 0x34
    ae9e:	9a15      	ldr	r2, [sp, #84]	; 0x54
    aea0:	600b      	str	r3, [r1, #0]
    aea2:	9b13      	ldr	r3, [sp, #76]	; 0x4c
    aea4:	2096      	movs	r0, #150	; 0x96
    aea6:	6013      	str	r3, [r2, #0]
    aea8:	f000 f918 	bl	b0dc <wait_ms>
    aeac:	9b04      	ldr	r3, [sp, #16]
    aeae:	9a01      	ldr	r2, [sp, #4]
    aeb0:	9809      	ldr	r0, [sp, #36]	; 0x24
    aeb2:	601a      	str	r2, [r3, #0]
    aeb4:	9b07      	ldr	r3, [sp, #28]
    aeb6:	990f      	ldr	r1, [sp, #60]	; 0x3c
    aeb8:	6003      	str	r3, [r0, #0]
    aeba:	9b0d      	ldr	r3, [sp, #52]	; 0x34
    aebc:	9a16      	ldr	r2, [sp, #88]	; 0x58
    aebe:	600b      	str	r3, [r1, #0]
    aec0:	9b13      	ldr	r3, [sp, #76]	; 0x4c
    aec2:	2096      	movs	r0, #150	; 0x96
    aec4:	6013      	str	r3, [r2, #0]
    aec6:	f000 f909 	bl	b0dc <wait_ms>
    aeca:	e7e0      	b.n	ae8e <mbed_die+0x26>
    aecc:	2009c032 	.word	0x2009c032
    aed0:	2009c034 	.word	0x2009c034
    aed4:	2009c035 	.word	0x2009c035
    aed8:	2009c037 	.word	0x2009c037

0000aedc <error>:
    aedc:	b40f      	push	{r0, r1, r2, r3}
    aede:	b500      	push	{lr}
    aee0:	4a06      	ldr	r2, [pc, #24]	; (aefc <error+0x20>)
    aee2:	b083      	sub	sp, #12
    aee4:	ab04      	add	r3, sp, #16
    aee6:	6812      	ldr	r2, [r2, #0]
    aee8:	f853 1b04 	ldr.w	r1, [r3], #4
    aeec:	68d0      	ldr	r0, [r2, #12]
    aeee:	461a      	mov	r2, r3
    aef0:	9301      	str	r3, [sp, #4]
    aef2:	f001 ff2b 	bl	cd4c <vfiprintf>
    aef6:	2001      	movs	r0, #1
    aef8:	f000 f802 	bl	af00 <exit>
    aefc:	100001d4 	.word	0x100001d4

0000af00 <exit>:
    af00:	4c0a      	ldr	r4, [pc, #40]	; (af2c <exit+0x2c>)
    af02:	b508      	push	{r3, lr}
    af04:	6823      	ldr	r3, [r4, #0]
    af06:	4605      	mov	r5, r0
    af08:	6898      	ldr	r0, [r3, #8]
    af0a:	f000 ff57 	bl	bdbc <fflush>
    af0e:	6823      	ldr	r3, [r4, #0]
    af10:	68d8      	ldr	r0, [r3, #12]
    af12:	f000 ff53 	bl	bdbc <fflush>
    af16:	f000 f84f 	bl	afb8 <mbed_interface_connected>
    af1a:	b920      	cbnz	r0, af26 <exit+0x26>
    af1c:	b905      	cbnz	r5, af20 <exit+0x20>
    af1e:	e7fe      	b.n	af1e <exit+0x1e>
    af20:	f7ff ffa2 	bl	ae68 <mbed_die>
    af24:	e7fb      	b.n	af1e <exit+0x1e>
    af26:	f000 f87d 	bl	b024 <semihost_exit>
    af2a:	e7f7      	b.n	af1c <exit+0x1c>
    af2c:	100001d4 	.word	0x100001d4

0000af30 <gpio_init_in>:
    af30:	b538      	push	{r3, r4, r5, lr}
    af32:	460d      	mov	r5, r1
    af34:	4604      	mov	r4, r0
    af36:	f000 f9b5 	bl	b2a4 <gpio_init>
    af3a:	3501      	adds	r5, #1
    af3c:	d009      	beq.n	af52 <gpio_init_in+0x22>
    af3e:	4620      	mov	r0, r4
    af40:	2100      	movs	r1, #0
    af42:	f000 f9cf 	bl	b2e4 <gpio_dir>
    af46:	4620      	mov	r0, r4
    af48:	2103      	movs	r1, #3
    af4a:	e8bd 4038 	ldmia.w	sp!, {r3, r4, r5, lr}
    af4e:	f000 b9c5 	b.w	b2dc <gpio_mode>
    af52:	bd38      	pop	{r3, r4, r5, pc}

0000af54 <gpio_init_out>:
    af54:	b538      	push	{r3, r4, r5, lr}
    af56:	460d      	mov	r5, r1
    af58:	4604      	mov	r4, r0
    af5a:	f000 f9a3 	bl	b2a4 <gpio_init>
    af5e:	3501      	adds	r5, #1
    af60:	d00c      	beq.n	af7c <gpio_init_out+0x28>
    af62:	6923      	ldr	r3, [r4, #16]
    af64:	6862      	ldr	r2, [r4, #4]
    af66:	4620      	mov	r0, r4
    af68:	601a      	str	r2, [r3, #0]
    af6a:	2101      	movs	r1, #1
    af6c:	f000 f9ba 	bl	b2e4 <gpio_dir>
    af70:	4620      	mov	r0, r4
    af72:	2102      	movs	r1, #2
    af74:	e8bd 4038 	ldmia.w	sp!, {r3, r4, r5, lr}
    af78:	f000 b9b0 	b.w	b2dc <gpio_mode>
    af7c:	bd38      	pop	{r3, r4, r5, pc}
    af7e:	bf00      	nop

0000af80 <gpio_init_out_ex>:
    af80:	b570      	push	{r4, r5, r6, lr}
    af82:	460d      	mov	r5, r1
    af84:	4616      	mov	r6, r2
    af86:	4604      	mov	r4, r0
    af88:	f000 f98c 	bl	b2a4 <gpio_init>
    af8c:	3501      	adds	r5, #1
    af8e:	d011      	beq.n	afb4 <gpio_init_out_ex+0x34>
    af90:	b966      	cbnz	r6, afac <gpio_init_out_ex+0x2c>
    af92:	6923      	ldr	r3, [r4, #16]
    af94:	6862      	ldr	r2, [r4, #4]
    af96:	601a      	str	r2, [r3, #0]
    af98:	4620      	mov	r0, r4
    af9a:	2101      	movs	r1, #1
    af9c:	f000 f9a2 	bl	b2e4 <gpio_dir>
    afa0:	4620      	mov	r0, r4
    afa2:	2102      	movs	r1, #2
    afa4:	e8bd 4070 	ldmia.w	sp!, {r4, r5, r6, lr}
    afa8:	f000 b998 	b.w	b2dc <gpio_mode>
    afac:	68e3      	ldr	r3, [r4, #12]
    afae:	6862      	ldr	r2, [r4, #4]
    afb0:	601a      	str	r2, [r3, #0]
    afb2:	e7f1      	b.n	af98 <gpio_init_out_ex+0x18>
    afb4:	bd70      	pop	{r4, r5, r6, pc}
    afb6:	bf00      	nop

0000afb8 <mbed_interface_connected>:
    afb8:	f000 b850 	b.w	b05c <semihost_connected>

0000afbc <mbed_interface_uid>:
    afbc:	b510      	push	{r4, lr}
    afbe:	4604      	mov	r4, r0
    afc0:	f000 f84c 	bl	b05c <semihost_connected>
    afc4:	b120      	cbz	r0, afd0 <mbed_interface_uid+0x14>
    afc6:	4620      	mov	r0, r4
    afc8:	e8bd 4010 	ldmia.w	sp!, {r4, lr}
    afcc:	f000 b836 	b.w	b03c <semihost_uid>
    afd0:	7020      	strb	r0, [r4, #0]
    afd2:	f04f 30ff 	mov.w	r0, #4294967295	; 0xffffffff
    afd6:	bd10      	pop	{r4, pc}

0000afd8 <mbed_mac_address>:
    afd8:	b570      	push	{r4, r5, r6, lr}
    afda:	b08a      	sub	sp, #40	; 0x28
    afdc:	4605      	mov	r5, r0
    afde:	a801      	add	r0, sp, #4
    afe0:	f7ff ffec 	bl	afbc <mbed_interface_uid>
    afe4:	b978      	cbnz	r0, b006 <mbed_mac_address+0x2e>
    afe6:	3d01      	subs	r5, #1
    afe8:	ac06      	add	r4, sp, #24
    afea:	ae09      	add	r6, sp, #36	; 0x24
    afec:	4620      	mov	r0, r4
    afee:	490c      	ldr	r1, [pc, #48]	; (b020 <mbed_mac_address+0x48>)
    aff0:	466a      	mov	r2, sp
    aff2:	f001 f949 	bl	c288 <siscanf>
    aff6:	3402      	adds	r4, #2
    aff8:	9b00      	ldr	r3, [sp, #0]
    affa:	42b4      	cmp	r4, r6
    affc:	f805 3f01 	strb.w	r3, [r5, #1]!
    b000:	d1f4      	bne.n	afec <mbed_mac_address+0x14>
    b002:	b00a      	add	sp, #40	; 0x28
    b004:	bd70      	pop	{r4, r5, r6, pc}
    b006:	2300      	movs	r3, #0
    b008:	2002      	movs	r0, #2
    b00a:	21f7      	movs	r1, #247	; 0xf7
    b00c:	22f0      	movs	r2, #240	; 0xf0
    b00e:	702b      	strb	r3, [r5, #0]
    b010:	712b      	strb	r3, [r5, #4]
    b012:	716b      	strb	r3, [r5, #5]
    b014:	7068      	strb	r0, [r5, #1]
    b016:	70a9      	strb	r1, [r5, #2]
    b018:	70ea      	strb	r2, [r5, #3]
    b01a:	b00a      	add	sp, #40	; 0x28
    b01c:	bd70      	pop	{r4, r5, r6, pc}
    b01e:	bf00      	nop
    b020:	0000dc00 	.word	0x0000dc00

0000b024 <semihost_exit>:
    b024:	b530      	push	{r4, r5, lr}
    b026:	b085      	sub	sp, #20
    b028:	2418      	movs	r4, #24
    b02a:	466d      	mov	r5, sp
    b02c:	4620      	mov	r0, r4
    b02e:	4629      	mov	r1, r5
    b030:	beab      	bkpt	0x00ab
    b032:	4604      	mov	r4, r0
    b034:	4620      	mov	r0, r4
    b036:	b005      	add	sp, #20
    b038:	bd30      	pop	{r4, r5, pc}
    b03a:	bf00      	nop

0000b03c <semihost_uid>:
    b03c:	b530      	push	{r4, r5, lr}
    b03e:	2321      	movs	r3, #33	; 0x21
    b040:	b083      	sub	sp, #12
    b042:	e88d 0009 	stmia.w	sp, {r0, r3}
    b046:	f240 1401 	movw	r4, #257	; 0x101
    b04a:	466d      	mov	r5, sp
    b04c:	4620      	mov	r0, r4
    b04e:	4629      	mov	r1, r5
    b050:	beab      	bkpt	0x00ab
    b052:	4604      	mov	r4, r0
    b054:	4620      	mov	r0, r4
    b056:	b003      	add	sp, #12
    b058:	bd30      	pop	{r4, r5, pc}
    b05a:	bf00      	nop

0000b05c <semihost_connected>:
    b05c:	4b02      	ldr	r3, [pc, #8]	; (b068 <semihost_connected+0xc>)
    b05e:	6818      	ldr	r0, [r3, #0]
    b060:	f000 0001 	and.w	r0, r0, #1
    b064:	4770      	bx	lr
    b066:	bf00      	nop
    b068:	e000edf0 	.word	0xe000edf0

0000b06c <us_ticker_irq_handler>:
    b06c:	b5f8      	push	{r3, r4, r5, r6, r7, lr}
    b06e:	f7ff fe7b 	bl	ad68 <us_ticker_clear_interrupt>
    b072:	4e12      	ldr	r6, [pc, #72]	; (b0bc <us_ticker_irq_handler+0x50>)
    b074:	4f12      	ldr	r7, [pc, #72]	; (b0c0 <us_ticker_irq_handler+0x54>)
    b076:	6833      	ldr	r3, [r6, #0]
    b078:	b1ab      	cbz	r3, b0a6 <us_ticker_irq_handler+0x3a>
    b07a:	e9d3 4500 	ldrd	r4, r5, [r3]
    b07e:	f7ff fe53 	bl	ad28 <us_ticker_read>
    b082:	1a22      	subs	r2, r4, r0
    b084:	f165 0300 	sbc.w	r3, r5, #0
    b088:	4610      	mov	r0, r2
    b08a:	4619      	mov	r1, r3
    b08c:	2801      	cmp	r0, #1
    b08e:	f171 0300 	sbcs.w	r3, r1, #0
    b092:	da0c      	bge.n	b0ae <us_ticker_irq_handler+0x42>
    b094:	6831      	ldr	r1, [r6, #0]
    b096:	683a      	ldr	r2, [r7, #0]
    b098:	68cb      	ldr	r3, [r1, #12]
    b09a:	6033      	str	r3, [r6, #0]
    b09c:	2a00      	cmp	r2, #0
    b09e:	d0eb      	beq.n	b078 <us_ticker_irq_handler+0xc>
    b0a0:	6888      	ldr	r0, [r1, #8]
    b0a2:	4790      	blx	r2
    b0a4:	e7e7      	b.n	b076 <us_ticker_irq_handler+0xa>
    b0a6:	e8bd 40f8 	ldmia.w	sp!, {r3, r4, r5, r6, r7, lr}
    b0aa:	f7ff be55 	b.w	ad58 <us_ticker_disable_interrupt>
    b0ae:	6833      	ldr	r3, [r6, #0]
    b0b0:	e9d3 0100 	ldrd	r0, r1, [r3]
    b0b4:	e8bd 40f8 	ldmia.w	sp!, {r3, r4, r5, r6, r7, lr}
    b0b8:	f7ff be44 	b.w	ad44 <us_ticker_set_interrupt>
    b0bc:	10000d2c 	.word	0x10000d2c
    b0c0:	10000d30 	.word	0x10000d30

0000b0c4 <wait_us>:
    b0c4:	b538      	push	{r3, r4, r5, lr}
    b0c6:	4605      	mov	r5, r0
    b0c8:	f7ff fe2e 	bl	ad28 <us_ticker_read>
    b0cc:	4604      	mov	r4, r0
    b0ce:	f7ff fe2b 	bl	ad28 <us_ticker_read>
    b0d2:	1b00      	subs	r0, r0, r4
    b0d4:	42a8      	cmp	r0, r5
    b0d6:	d3fa      	bcc.n	b0ce <wait_us+0xa>
    b0d8:	bd38      	pop	{r3, r4, r5, pc}
    b0da:	bf00      	nop

0000b0dc <wait_ms>:
    b0dc:	f44f 737a 	mov.w	r3, #1000	; 0x3e8
    b0e0:	fb03 f000 	mul.w	r0, r3, r0
    b0e4:	f7ff bfee 	b.w	b0c4 <wait_us>

0000b0e8 <init_serial() [clone .part.0]>:
    b0e8:	4802      	ldr	r0, [pc, #8]	; (b0f4 <init_serial() [clone .part.0]+0xc>)
    b0ea:	4903      	ldr	r1, [pc, #12]	; (b0f8 <init_serial() [clone .part.0]+0x10>)
    b0ec:	4a03      	ldr	r2, [pc, #12]	; (b0fc <init_serial() [clone .part.0]+0x14>)
    b0ee:	f000 bc71 	b.w	b9d4 <serial_init>
    b0f2:	bf00      	nop
    b0f4:	10001bb0 	.word	0x10001bb0
    b0f8:	2009c002 	.word	0x2009c002
    b0fc:	2009c003 	.word	0x2009c003

0000b100 <_close>:
    b100:	2802      	cmp	r0, #2
    b102:	b508      	push	{r3, lr}
    b104:	dd0b      	ble.n	b11e <_close+0x1e>
    b106:	4b08      	ldr	r3, [pc, #32]	; (b128 <_close+0x28>)
    b108:	1ec2      	subs	r2, r0, #3
    b10a:	f853 0022 	ldr.w	r0, [r3, r2, lsl #2]
    b10e:	2100      	movs	r1, #0
    b110:	f843 1022 	str.w	r1, [r3, r2, lsl #2]
    b114:	b128      	cbz	r0, b122 <_close+0x22>
    b116:	6803      	ldr	r3, [r0, #0]
    b118:	685b      	ldr	r3, [r3, #4]
    b11a:	4798      	blx	r3
    b11c:	bd08      	pop	{r3, pc}
    b11e:	2000      	movs	r0, #0
    b120:	bd08      	pop	{r3, pc}
    b122:	f04f 30ff 	mov.w	r0, #4294967295	; 0xffffffff
    b126:	bd08      	pop	{r3, pc}
    b128:	10000d34 	.word	0x10000d34

0000b12c <_write>:
    b12c:	2802      	cmp	r0, #2
    b12e:	b570      	push	{r4, r5, r6, lr}
    b130:	460c      	mov	r4, r1
    b132:	4616      	mov	r6, r2
    b134:	dc0f      	bgt.n	b156 <_write+0x2a>
    b136:	4b0e      	ldr	r3, [pc, #56]	; (b170 <_write+0x44>)
    b138:	681b      	ldr	r3, [r3, #0]
    b13a:	b90b      	cbnz	r3, b140 <_write+0x14>
    b13c:	f7ff ffd4 	bl	b0e8 <init_serial() [clone .part.0]>
    b140:	19a5      	adds	r5, r4, r6
    b142:	b136      	cbz	r6, b152 <_write+0x26>
    b144:	f814 1b01 	ldrb.w	r1, [r4], #1
    b148:	480a      	ldr	r0, [pc, #40]	; (b174 <_write+0x48>)
    b14a:	f000 fb93 	bl	b874 <serial_putc>
    b14e:	42ac      	cmp	r4, r5
    b150:	d1f8      	bne.n	b144 <_write+0x18>
    b152:	4630      	mov	r0, r6
    b154:	bd70      	pop	{r4, r5, r6, pc}
    b156:	4b08      	ldr	r3, [pc, #32]	; (b178 <_write+0x4c>)
    b158:	3803      	subs	r0, #3
    b15a:	f853 0020 	ldr.w	r0, [r3, r0, lsl #2]
    b15e:	b118      	cbz	r0, b168 <_write+0x3c>
    b160:	6803      	ldr	r3, [r0, #0]
    b162:	681b      	ldr	r3, [r3, #0]
    b164:	4798      	blx	r3
    b166:	bd70      	pop	{r4, r5, r6, pc}
    b168:	f04f 30ff 	mov.w	r0, #4294967295	; 0xffffffff
    b16c:	bd70      	pop	{r4, r5, r6, pc}
    b16e:	bf00      	nop
    b170:	10000e34 	.word	0x10000e34
    b174:	10001bb0 	.word	0x10001bb0
    b178:	10000d34 	.word	0x10000d34

0000b17c <_read>:
    b17c:	2802      	cmp	r0, #2
    b17e:	b510      	push	{r4, lr}
    b180:	460c      	mov	r4, r1
    b182:	dc09      	bgt.n	b198 <_read+0x1c>
    b184:	4b0d      	ldr	r3, [pc, #52]	; (b1bc <_read+0x40>)
    b186:	681b      	ldr	r3, [r3, #0]
    b188:	b18b      	cbz	r3, b1ae <_read+0x32>
    b18a:	480d      	ldr	r0, [pc, #52]	; (b1c0 <_read+0x44>)
    b18c:	f000 fb26 	bl	b7dc <serial_getc>
    b190:	2301      	movs	r3, #1
    b192:	7020      	strb	r0, [r4, #0]
    b194:	4618      	mov	r0, r3
    b196:	bd10      	pop	{r4, pc}
    b198:	4b0a      	ldr	r3, [pc, #40]	; (b1c4 <_read+0x48>)
    b19a:	3803      	subs	r0, #3
    b19c:	f853 0020 	ldr.w	r0, [r3, r0, lsl #2]
    b1a0:	b140      	cbz	r0, b1b4 <_read+0x38>
    b1a2:	6803      	ldr	r3, [r0, #0]
    b1a4:	689b      	ldr	r3, [r3, #8]
    b1a6:	4798      	blx	r3
    b1a8:	4603      	mov	r3, r0
    b1aa:	4618      	mov	r0, r3
    b1ac:	bd10      	pop	{r4, pc}
    b1ae:	f7ff ff9b 	bl	b0e8 <init_serial() [clone .part.0]>
    b1b2:	e7ea      	b.n	b18a <_read+0xe>
    b1b4:	f04f 33ff 	mov.w	r3, #4294967295	; 0xffffffff
    b1b8:	e7ec      	b.n	b194 <_read+0x18>
    b1ba:	bf00      	nop
    b1bc:	10000e34 	.word	0x10000e34
    b1c0:	10001bb0 	.word	0x10001bb0
    b1c4:	10000d34 	.word	0x10000d34

0000b1c8 <_isatty>:
    b1c8:	2802      	cmp	r0, #2
    b1ca:	b508      	push	{r3, lr}
    b1cc:	dd08      	ble.n	b1e0 <_isatty+0x18>
    b1ce:	4b07      	ldr	r3, [pc, #28]	; (b1ec <_isatty+0x24>)
    b1d0:	3803      	subs	r0, #3
    b1d2:	f853 0020 	ldr.w	r0, [r3, r0, lsl #2]
    b1d6:	b128      	cbz	r0, b1e4 <_isatty+0x1c>
    b1d8:	6803      	ldr	r3, [r0, #0]
    b1da:	68db      	ldr	r3, [r3, #12]
    b1dc:	4798      	blx	r3
    b1de:	bd08      	pop	{r3, pc}
    b1e0:	2001      	movs	r0, #1
    b1e2:	bd08      	pop	{r3, pc}
    b1e4:	f04f 30ff 	mov.w	r0, #4294967295	; 0xffffffff
    b1e8:	bd08      	pop	{r3, pc}
    b1ea:	bf00      	nop
    b1ec:	10000d34 	.word	0x10000d34

0000b1f0 <_lseek>:
    b1f0:	2802      	cmp	r0, #2
    b1f2:	b508      	push	{r3, lr}
    b1f4:	dd08      	ble.n	b208 <_lseek+0x18>
    b1f6:	4b07      	ldr	r3, [pc, #28]	; (b214 <_lseek+0x24>)
    b1f8:	3803      	subs	r0, #3
    b1fa:	f853 0020 	ldr.w	r0, [r3, r0, lsl #2]
    b1fe:	b128      	cbz	r0, b20c <_lseek+0x1c>
    b200:	6803      	ldr	r3, [r0, #0]
    b202:	691b      	ldr	r3, [r3, #16]
    b204:	4798      	blx	r3
    b206:	bd08      	pop	{r3, pc}
    b208:	2000      	movs	r0, #0
    b20a:	bd08      	pop	{r3, pc}
    b20c:	f04f 30ff 	mov.w	r0, #4294967295	; 0xffffffff
    b210:	bd08      	pop	{r3, pc}
    b212:	bf00      	nop
    b214:	10000d34 	.word	0x10000d34

0000b218 <_fstat>:
    b218:	2802      	cmp	r0, #2
    b21a:	b508      	push	{r3, lr}
    b21c:	d804      	bhi.n	b228 <_fstat+0x10>
    b21e:	f44f 5300 	mov.w	r3, #8192	; 0x2000
    b222:	604b      	str	r3, [r1, #4]
    b224:	2000      	movs	r0, #0
    b226:	bd08      	pop	{r3, pc}
    b228:	f000 fd14 	bl	bc54 <__errno>
    b22c:	2309      	movs	r3, #9
    b22e:	6003      	str	r3, [r0, #0]
    b230:	f04f 30ff 	mov.w	r0, #4294967295	; 0xffffffff
    b234:	bd08      	pop	{r3, pc}
    b236:	bf00      	nop

0000b238 <_sbrk>:
    b238:	4a07      	ldr	r2, [pc, #28]	; (b258 <_sbrk+0x20>)
    b23a:	6813      	ldr	r3, [r2, #0]
    b23c:	4418      	add	r0, r3
    b23e:	f3ef 8108 	mrs	r1, MSP
    b242:	4288      	cmp	r0, r1
    b244:	d202      	bcs.n	b24c <_sbrk+0x14>
    b246:	6010      	str	r0, [r2, #0]
    b248:	4618      	mov	r0, r3
    b24a:	4770      	bx	lr
    b24c:	4b03      	ldr	r3, [pc, #12]	; (b25c <_sbrk+0x24>)
    b24e:	220c      	movs	r2, #12
    b250:	601a      	str	r2, [r3, #0]
    b252:	f04f 30ff 	mov.w	r0, #4294967295	; 0xffffffff
    b256:	4770      	bx	lr
    b258:	10000170 	.word	0x10000170
    b25c:	10001bb8 	.word	0x10001bb8

0000b260 <Reset_Handler>:
    b260:	4906      	ldr	r1, [pc, #24]	; (b27c <Reset_Handler+0x1c>)
    b262:	4a07      	ldr	r2, [pc, #28]	; (b280 <Reset_Handler+0x20>)
    b264:	4b07      	ldr	r3, [pc, #28]	; (b284 <Reset_Handler+0x24>)
    b266:	429a      	cmp	r2, r3
    b268:	bfbe      	ittt	lt
    b26a:	f851 0b04 	ldrlt.w	r0, [r1], #4
    b26e:	f842 0b04 	strlt.w	r0, [r2], #4
    b272:	e7f8      	blt.n	b266 <Reset_Handler+0x6>
    b274:	4804      	ldr	r0, [pc, #16]	; (b288 <Reset_Handler+0x28>)
    b276:	4780      	blx	r0
    b278:	4804      	ldr	r0, [pc, #16]	; (b28c <Reset_Handler+0x2c>)
    b27a:	4700      	bx	r0
    b27c:	0000df3c 	.word	0x0000df3c
    b280:	100000c8 	.word	0x100000c8
    b284:	100001e8 	.word	0x100001e8
    b288:	0000adb1 	.word	0x0000adb1
    b28c:	000001b1 	.word	0x000001b1

0000b290 <NMI_Handler>:
    b290:	e7fe      	b.n	b290 <NMI_Handler>

0000b292 <HardFault_Handler>:
    b292:	e7fe      	b.n	b292 <HardFault_Handler>

0000b294 <MemManage_Handler>:
    b294:	e7fe      	b.n	b294 <MemManage_Handler>

0000b296 <BusFault_Handler>:
    b296:	e7fe      	b.n	b296 <BusFault_Handler>

0000b298 <UsageFault_Handler>:
    b298:	e7fe      	b.n	b298 <UsageFault_Handler>
    b29a:	e7fe      	b.n	b29a <UsageFault_Handler+0x2>

0000b29c <DebugMon_Handler>:
    b29c:	e7fe      	b.n	b29c <DebugMon_Handler>
    b29e:	e7fe      	b.n	b29e <DebugMon_Handler+0x2>
    b2a0:	e7fe      	b.n	b2a0 <DebugMon_Handler+0x4>

0000b2a2 <ADC_IRQHandler>:
    b2a2:	e7fe      	b.n	b2a2 <ADC_IRQHandler>

0000b2a4 <gpio_init>:
    b2a4:	b538      	push	{r3, r4, r5, lr}
    b2a6:	4604      	mov	r4, r0
    b2a8:	1c4b      	adds	r3, r1, #1
    b2aa:	460d      	mov	r5, r1
    b2ac:	6021      	str	r1, [r4, #0]
    b2ae:	d014      	beq.n	b2da <gpio_init+0x36>
    b2b0:	4608      	mov	r0, r1
    b2b2:	2100      	movs	r1, #0
    b2b4:	f000 f828 	bl	b308 <pin_function>
    b2b8:	f005 031f 	and.w	r3, r5, #31
    b2bc:	2001      	movs	r0, #1
    b2be:	4098      	lsls	r0, r3
    b2c0:	f025 051f 	bic.w	r5, r5, #31
    b2c4:	f105 0118 	add.w	r1, r5, #24
    b2c8:	f105 021c 	add.w	r2, r5, #28
    b2cc:	f105 0314 	add.w	r3, r5, #20
    b2d0:	60a5      	str	r5, [r4, #8]
    b2d2:	6060      	str	r0, [r4, #4]
    b2d4:	60e1      	str	r1, [r4, #12]
    b2d6:	6122      	str	r2, [r4, #16]
    b2d8:	6163      	str	r3, [r4, #20]
    b2da:	bd38      	pop	{r3, r4, r5, pc}

0000b2dc <gpio_mode>:
    b2dc:	6800      	ldr	r0, [r0, #0]
    b2de:	f000 b82b 	b.w	b338 <pin_mode>
    b2e2:	bf00      	nop

0000b2e4 <gpio_dir>:
    b2e4:	b141      	cbz	r1, b2f8 <gpio_dir+0x14>
    b2e6:	2901      	cmp	r1, #1
    b2e8:	d105      	bne.n	b2f6 <gpio_dir+0x12>
    b2ea:	6883      	ldr	r3, [r0, #8]
    b2ec:	6842      	ldr	r2, [r0, #4]
    b2ee:	6819      	ldr	r1, [r3, #0]
    b2f0:	430a      	orrs	r2, r1
    b2f2:	601a      	str	r2, [r3, #0]
    b2f4:	4770      	bx	lr
    b2f6:	4770      	bx	lr
    b2f8:	6883      	ldr	r3, [r0, #8]
    b2fa:	6841      	ldr	r1, [r0, #4]
    b2fc:	681a      	ldr	r2, [r3, #0]
    b2fe:	ea22 0201 	bic.w	r2, r2, r1
    b302:	601a      	str	r2, [r3, #0]
    b304:	4770      	bx	lr
    b306:	bf00      	nop

0000b308 <pin_function>:
    b308:	f100 4060 	add.w	r0, r0, #3758096384	; 0xe0000000
    b30c:	f5a0 201c 	sub.w	r0, r0, #638976	; 0x9c000
    b310:	f000 030f 	and.w	r3, r0, #15
    b314:	005b      	lsls	r3, r3, #1
    b316:	2203      	movs	r2, #3
    b318:	409a      	lsls	r2, r3
    b31a:	4099      	lsls	r1, r3
    b31c:	0903      	lsrs	r3, r0, #4
    b31e:	009b      	lsls	r3, r3, #2
    b320:	f103 4380 	add.w	r3, r3, #1073741824	; 0x40000000
    b324:	f503 3330 	add.w	r3, r3, #180224	; 0x2c000
    b328:	6818      	ldr	r0, [r3, #0]
    b32a:	ea20 0202 	bic.w	r2, r0, r2
    b32e:	601a      	str	r2, [r3, #0]
    b330:	681a      	ldr	r2, [r3, #0]
    b332:	4311      	orrs	r1, r2
    b334:	6019      	str	r1, [r3, #0]
    b336:	4770      	bx	lr

0000b338 <pin_mode>:
    b338:	f100 4060 	add.w	r0, r0, #3758096384	; 0xe0000000
    b33c:	f5a0 201c 	sub.w	r0, r0, #638976	; 0x9c000
    b340:	b430      	push	{r4, r5}
    b342:	f3c1 0280 	ubfx	r2, r1, #2, #1
    b346:	f000 041f 	and.w	r4, r0, #31
    b34a:	fa02 f404 	lsl.w	r4, r2, r4
    b34e:	0943      	lsrs	r3, r0, #5
    b350:	009b      	lsls	r3, r3, #2
    b352:	f103 4380 	add.w	r3, r3, #1073741824	; 0x40000000
    b356:	f503 3330 	add.w	r3, r3, #180224	; 0x2c000
    b35a:	6e9d      	ldr	r5, [r3, #104]	; 0x68
    b35c:	ea25 0504 	bic.w	r5, r5, r4
    b360:	669d      	str	r5, [r3, #104]	; 0x68
    b362:	6e9d      	ldr	r5, [r3, #104]	; 0x68
    b364:	432c      	orrs	r4, r5
    b366:	669c      	str	r4, [r3, #104]	; 0x68
    b368:	b99a      	cbnz	r2, b392 <pin_mode+0x5a>
    b36a:	f000 030f 	and.w	r3, r0, #15
    b36e:	005b      	lsls	r3, r3, #1
    b370:	2203      	movs	r2, #3
    b372:	409a      	lsls	r2, r3
    b374:	fa01 f303 	lsl.w	r3, r1, r3
    b378:	0900      	lsrs	r0, r0, #4
    b37a:	0080      	lsls	r0, r0, #2
    b37c:	f100 4080 	add.w	r0, r0, #1073741824	; 0x40000000
    b380:	f500 3030 	add.w	r0, r0, #180224	; 0x2c000
    b384:	6c01      	ldr	r1, [r0, #64]	; 0x40
    b386:	ea21 0202 	bic.w	r2, r1, r2
    b38a:	6402      	str	r2, [r0, #64]	; 0x40
    b38c:	6c02      	ldr	r2, [r0, #64]	; 0x40
    b38e:	4313      	orrs	r3, r2
    b390:	6403      	str	r3, [r0, #64]	; 0x40
    b392:	bc30      	pop	{r4, r5}
    b394:	4770      	bx	lr
    b396:	bf00      	nop

0000b398 <uart2_irq>:
    b398:	b508      	push	{r3, lr}
    b39a:	4a15      	ldr	r2, [pc, #84]	; (b3f0 <uart2_irq+0x58>)
    b39c:	6893      	ldr	r3, [r2, #8]
    b39e:	f3c3 0342 	ubfx	r3, r3, #1, #3
    b3a2:	2b01      	cmp	r3, #1
    b3a4:	d01e      	beq.n	b3e4 <uart2_irq+0x4c>
    b3a6:	2b02      	cmp	r3, #2
    b3a8:	d119      	bne.n	b3de <uart2_irq+0x46>
    b3aa:	4b12      	ldr	r3, [pc, #72]	; (b3f4 <uart2_irq+0x5c>)
    b3ac:	6f59      	ldr	r1, [r3, #116]	; 0x74
    b3ae:	3101      	adds	r1, #1
    b3b0:	d00a      	beq.n	b3c8 <uart2_irq+0x30>
    b3b2:	f8d3 1080 	ldr.w	r1, [r3, #128]	; 0x80
    b3b6:	6f98      	ldr	r0, [r3, #120]	; 0x78
    b3b8:	6008      	str	r0, [r1, #0]
    b3ba:	f893 10a6 	ldrb.w	r1, [r3, #166]	; 0xa6
    b3be:	b919      	cbnz	r1, b3c8 <uart2_irq+0x30>
    b3c0:	6851      	ldr	r1, [r2, #4]
    b3c2:	f021 0101 	bic.w	r1, r1, #1
    b3c6:	6051      	str	r1, [r2, #4]
    b3c8:	6f18      	ldr	r0, [r3, #112]	; 0x70
    b3ca:	4b0a      	ldr	r3, [pc, #40]	; (b3f4 <uart2_irq+0x5c>)
    b3cc:	b148      	cbz	r0, b3e2 <uart2_irq+0x4a>
    b3ce:	f893 30a6 	ldrb.w	r3, [r3, #166]	; 0xa6
    b3d2:	b12b      	cbz	r3, b3e0 <uart2_irq+0x48>
    b3d4:	2100      	movs	r1, #0
    b3d6:	4a08      	ldr	r2, [pc, #32]	; (b3f8 <uart2_irq+0x60>)
    b3d8:	6813      	ldr	r3, [r2, #0]
    b3da:	4798      	blx	r3
    b3dc:	bd08      	pop	{r3, pc}
    b3de:	bd08      	pop	{r3, pc}
    b3e0:	bd08      	pop	{r3, pc}
    b3e2:	bd08      	pop	{r3, pc}
    b3e4:	4a03      	ldr	r2, [pc, #12]	; (b3f4 <uart2_irq+0x5c>)
    b3e6:	6f10      	ldr	r0, [r2, #112]	; 0x70
    b3e8:	2800      	cmp	r0, #0
    b3ea:	d0f9      	beq.n	b3e0 <uart2_irq+0x48>
    b3ec:	4619      	mov	r1, r3
    b3ee:	e7f2      	b.n	b3d6 <uart2_irq+0x3e>
    b3f0:	40098000 	.word	0x40098000
    b3f4:	10000e3c 	.word	0x10000e3c
    b3f8:	10000e38 	.word	0x10000e38

0000b3fc <serial_irq_set_internal>:
    b3fc:	b570      	push	{r4, r5, r6, lr}
    b3fe:	6803      	ldr	r3, [r0, #0]
    b400:	4c29      	ldr	r4, [pc, #164]	; (b4a8 <serial_irq_set_internal+0xac>)
    b402:	42a3      	cmp	r3, r4
    b404:	d049      	beq.n	b49a <serial_irq_set_internal+0x9e>
    b406:	dd41      	ble.n	b48c <serial_irq_set_internal+0x90>
    b408:	4c28      	ldr	r4, [pc, #160]	; (b4ac <serial_irq_set_internal+0xb0>)
    b40a:	42a3      	cmp	r3, r4
    b40c:	d02a      	beq.n	b464 <serial_irq_set_internal+0x68>
    b40e:	f504 4480 	add.w	r4, r4, #16384	; 0x4000
    b412:	42a3      	cmp	r3, r4
    b414:	d144      	bne.n	b4a0 <serial_irq_set_internal+0xa4>
    b416:	4c26      	ldr	r4, [pc, #152]	; (b4b0 <serial_irq_set_internal+0xb4>)
    b418:	2608      	movs	r6, #8
    b41a:	bb3a      	cbnz	r2, b46c <serial_irq_set_internal+0x70>
    b41c:	2901      	cmp	r1, #1
    b41e:	d00b      	beq.n	b438 <serial_irq_set_internal+0x3c>
    b420:	6845      	ldr	r5, [r0, #4]
    b422:	4a24      	ldr	r2, [pc, #144]	; (b4b4 <serial_irq_set_internal+0xb8>)
    b424:	ebc5 05c5 	rsb	r5, r5, r5, lsl #3
    b428:	eb02 04c5 	add.w	r4, r2, r5, lsl #3
    b42c:	f894 5035 	ldrb.w	r5, [r4, #53]	; 0x35
    b430:	f894 2036 	ldrb.w	r2, [r4, #54]	; 0x36
    b434:	42ea      	cmn	r2, r5
    b436:	d114      	bne.n	b462 <serial_irq_set_internal+0x66>
    b438:	2201      	movs	r2, #1
    b43a:	fa02 f501 	lsl.w	r5, r2, r1
    b43e:	f1d1 0101 	rsbs	r1, r1, #1
    b442:	bf38      	it	cc
    b444:	2100      	movcc	r1, #0
    b446:	fa02 f101 	lsl.w	r1, r2, r1
    b44a:	685c      	ldr	r4, [r3, #4]
    b44c:	ea24 0405 	bic.w	r4, r4, r5
    b450:	605c      	str	r4, [r3, #4]
    b452:	6803      	ldr	r3, [r0, #0]
    b454:	685b      	ldr	r3, [r3, #4]
    b456:	4219      	tst	r1, r3
    b458:	d103      	bne.n	b462 <serial_irq_set_internal+0x66>
    b45a:	40b2      	lsls	r2, r6
    b45c:	4b16      	ldr	r3, [pc, #88]	; (b4b8 <serial_irq_set_internal+0xbc>)
    b45e:	f8c3 2080 	str.w	r2, [r3, #128]	; 0x80
    b462:	bd70      	pop	{r4, r5, r6, pc}
    b464:	4c15      	ldr	r4, [pc, #84]	; (b4bc <serial_irq_set_internal+0xc0>)
    b466:	2607      	movs	r6, #7
    b468:	2a00      	cmp	r2, #0
    b46a:	d0d7      	beq.n	b41c <serial_irq_set_internal+0x20>
    b46c:	2501      	movs	r5, #1
    b46e:	fa05 f101 	lsl.w	r1, r5, r1
    b472:	b276      	sxtb	r6, r6
    b474:	4630      	mov	r0, r6
    b476:	fa05 f606 	lsl.w	r6, r5, r6
    b47a:	685a      	ldr	r2, [r3, #4]
    b47c:	430a      	orrs	r2, r1
    b47e:	605a      	str	r2, [r3, #4]
    b480:	4621      	mov	r1, r4
    b482:	f7ff fc77 	bl	ad74 <NVIC_SetVector>
    b486:	4b0c      	ldr	r3, [pc, #48]	; (b4b8 <serial_irq_set_internal+0xbc>)
    b488:	601e      	str	r6, [r3, #0]
    b48a:	bd70      	pop	{r4, r5, r6, pc}
    b48c:	f5a4 4480 	sub.w	r4, r4, #16384	; 0x4000
    b490:	42a3      	cmp	r3, r4
    b492:	d105      	bne.n	b4a0 <serial_irq_set_internal+0xa4>
    b494:	4c0a      	ldr	r4, [pc, #40]	; (b4c0 <serial_irq_set_internal+0xc4>)
    b496:	2605      	movs	r6, #5
    b498:	e7bf      	b.n	b41a <serial_irq_set_internal+0x1e>
    b49a:	4c0a      	ldr	r4, [pc, #40]	; (b4c4 <serial_irq_set_internal+0xc8>)
    b49c:	2606      	movs	r6, #6
    b49e:	e7bc      	b.n	b41a <serial_irq_set_internal+0x1e>
    b4a0:	2400      	movs	r4, #0
    b4a2:	4626      	mov	r6, r4
    b4a4:	e7b9      	b.n	b41a <serial_irq_set_internal+0x1e>
    b4a6:	bf00      	nop
    b4a8:	40010000 	.word	0x40010000
    b4ac:	40098000 	.word	0x40098000
    b4b0:	0000b4c9 	.word	0x0000b4c9
    b4b4:	10000e3c 	.word	0x10000e3c
    b4b8:	e000e100 	.word	0xe000e100
    b4bc:	0000b399 	.word	0x0000b399
    b4c0:	0000b535 	.word	0x0000b535
    b4c4:	0000b599 	.word	0x0000b599

0000b4c8 <uart3_irq>:
    b4c8:	b508      	push	{r3, lr}
    b4ca:	4a17      	ldr	r2, [pc, #92]	; (b528 <uart3_irq+0x60>)
    b4cc:	6893      	ldr	r3, [r2, #8]
    b4ce:	f3c3 0342 	ubfx	r3, r3, #1, #3
    b4d2:	2b01      	cmp	r3, #1
    b4d4:	d021      	beq.n	b51a <uart3_irq+0x52>
    b4d6:	2b02      	cmp	r3, #2
    b4d8:	d11c      	bne.n	b514 <uart3_irq+0x4c>
    b4da:	4b14      	ldr	r3, [pc, #80]	; (b52c <uart3_irq+0x64>)
    b4dc:	f8d3 10ac 	ldr.w	r1, [r3, #172]	; 0xac
    b4e0:	3101      	adds	r1, #1
    b4e2:	d00b      	beq.n	b4fc <uart3_irq+0x34>
    b4e4:	f8d3 10b8 	ldr.w	r1, [r3, #184]	; 0xb8
    b4e8:	f8d3 00b0 	ldr.w	r0, [r3, #176]	; 0xb0
    b4ec:	6008      	str	r0, [r1, #0]
    b4ee:	f893 10de 	ldrb.w	r1, [r3, #222]	; 0xde
    b4f2:	b919      	cbnz	r1, b4fc <uart3_irq+0x34>
    b4f4:	6851      	ldr	r1, [r2, #4]
    b4f6:	f021 0101 	bic.w	r1, r1, #1
    b4fa:	6051      	str	r1, [r2, #4]
    b4fc:	f8d3 00a8 	ldr.w	r0, [r3, #168]	; 0xa8
    b500:	4b0a      	ldr	r3, [pc, #40]	; (b52c <uart3_irq+0x64>)
    b502:	b148      	cbz	r0, b518 <uart3_irq+0x50>
    b504:	f893 30de 	ldrb.w	r3, [r3, #222]	; 0xde
    b508:	b12b      	cbz	r3, b516 <uart3_irq+0x4e>
    b50a:	2100      	movs	r1, #0
    b50c:	4a08      	ldr	r2, [pc, #32]	; (b530 <uart3_irq+0x68>)
    b50e:	6813      	ldr	r3, [r2, #0]
    b510:	4798      	blx	r3
    b512:	bd08      	pop	{r3, pc}
    b514:	bd08      	pop	{r3, pc}
    b516:	bd08      	pop	{r3, pc}
    b518:	bd08      	pop	{r3, pc}
    b51a:	4a04      	ldr	r2, [pc, #16]	; (b52c <uart3_irq+0x64>)
    b51c:	f8d2 00a8 	ldr.w	r0, [r2, #168]	; 0xa8
    b520:	2800      	cmp	r0, #0
    b522:	d0f8      	beq.n	b516 <uart3_irq+0x4e>
    b524:	4619      	mov	r1, r3
    b526:	e7f1      	b.n	b50c <uart3_irq+0x44>
    b528:	4009c000 	.word	0x4009c000
    b52c:	10000e3c 	.word	0x10000e3c
    b530:	10000e38 	.word	0x10000e38

0000b534 <uart0_irq>:
    b534:	b508      	push	{r3, lr}
    b536:	4a15      	ldr	r2, [pc, #84]	; (b58c <uart0_irq+0x58>)
    b538:	6893      	ldr	r3, [r2, #8]
    b53a:	f3c3 0342 	ubfx	r3, r3, #1, #3
    b53e:	2b01      	cmp	r3, #1
    b540:	d01d      	beq.n	b57e <uart0_irq+0x4a>
    b542:	2b02      	cmp	r3, #2
    b544:	d118      	bne.n	b578 <uart0_irq+0x44>
    b546:	4b12      	ldr	r3, [pc, #72]	; (b590 <uart0_irq+0x5c>)
    b548:	6859      	ldr	r1, [r3, #4]
    b54a:	3101      	adds	r1, #1
    b54c:	d009      	beq.n	b562 <uart0_irq+0x2e>
    b54e:	6919      	ldr	r1, [r3, #16]
    b550:	6898      	ldr	r0, [r3, #8]
    b552:	6008      	str	r0, [r1, #0]
    b554:	f893 1036 	ldrb.w	r1, [r3, #54]	; 0x36
    b558:	b919      	cbnz	r1, b562 <uart0_irq+0x2e>
    b55a:	6851      	ldr	r1, [r2, #4]
    b55c:	f021 0101 	bic.w	r1, r1, #1
    b560:	6051      	str	r1, [r2, #4]
    b562:	6818      	ldr	r0, [r3, #0]
    b564:	4b0a      	ldr	r3, [pc, #40]	; (b590 <uart0_irq+0x5c>)
    b566:	b148      	cbz	r0, b57c <uart0_irq+0x48>
    b568:	f893 3036 	ldrb.w	r3, [r3, #54]	; 0x36
    b56c:	b12b      	cbz	r3, b57a <uart0_irq+0x46>
    b56e:	2100      	movs	r1, #0
    b570:	4a08      	ldr	r2, [pc, #32]	; (b594 <uart0_irq+0x60>)
    b572:	6813      	ldr	r3, [r2, #0]
    b574:	4798      	blx	r3
    b576:	bd08      	pop	{r3, pc}
    b578:	bd08      	pop	{r3, pc}
    b57a:	bd08      	pop	{r3, pc}
    b57c:	bd08      	pop	{r3, pc}
    b57e:	4a04      	ldr	r2, [pc, #16]	; (b590 <uart0_irq+0x5c>)
    b580:	6810      	ldr	r0, [r2, #0]
    b582:	2800      	cmp	r0, #0
    b584:	d0f9      	beq.n	b57a <uart0_irq+0x46>
    b586:	4619      	mov	r1, r3
    b588:	e7f2      	b.n	b570 <uart0_irq+0x3c>
    b58a:	bf00      	nop
    b58c:	4000c000 	.word	0x4000c000
    b590:	10000e3c 	.word	0x10000e3c
    b594:	10000e38 	.word	0x10000e38

0000b598 <uart1_irq>:
    b598:	b508      	push	{r3, lr}
    b59a:	4a15      	ldr	r2, [pc, #84]	; (b5f0 <uart1_irq+0x58>)
    b59c:	6893      	ldr	r3, [r2, #8]
    b59e:	f3c3 0342 	ubfx	r3, r3, #1, #3
    b5a2:	2b01      	cmp	r3, #1
    b5a4:	d01d      	beq.n	b5e2 <uart1_irq+0x4a>
    b5a6:	2b02      	cmp	r3, #2
    b5a8:	d118      	bne.n	b5dc <uart1_irq+0x44>
    b5aa:	4b12      	ldr	r3, [pc, #72]	; (b5f4 <uart1_irq+0x5c>)
    b5ac:	6bd9      	ldr	r1, [r3, #60]	; 0x3c
    b5ae:	3101      	adds	r1, #1
    b5b0:	d009      	beq.n	b5c6 <uart1_irq+0x2e>
    b5b2:	6c99      	ldr	r1, [r3, #72]	; 0x48
    b5b4:	6c18      	ldr	r0, [r3, #64]	; 0x40
    b5b6:	6008      	str	r0, [r1, #0]
    b5b8:	f893 106e 	ldrb.w	r1, [r3, #110]	; 0x6e
    b5bc:	b919      	cbnz	r1, b5c6 <uart1_irq+0x2e>
    b5be:	6851      	ldr	r1, [r2, #4]
    b5c0:	f021 0101 	bic.w	r1, r1, #1
    b5c4:	6051      	str	r1, [r2, #4]
    b5c6:	6b98      	ldr	r0, [r3, #56]	; 0x38
    b5c8:	4b0a      	ldr	r3, [pc, #40]	; (b5f4 <uart1_irq+0x5c>)
    b5ca:	b148      	cbz	r0, b5e0 <uart1_irq+0x48>
    b5cc:	f893 306e 	ldrb.w	r3, [r3, #110]	; 0x6e
    b5d0:	b12b      	cbz	r3, b5de <uart1_irq+0x46>
    b5d2:	2100      	movs	r1, #0
    b5d4:	4a08      	ldr	r2, [pc, #32]	; (b5f8 <uart1_irq+0x60>)
    b5d6:	6813      	ldr	r3, [r2, #0]
    b5d8:	4798      	blx	r3
    b5da:	bd08      	pop	{r3, pc}
    b5dc:	bd08      	pop	{r3, pc}
    b5de:	bd08      	pop	{r3, pc}
    b5e0:	bd08      	pop	{r3, pc}
    b5e2:	4a04      	ldr	r2, [pc, #16]	; (b5f4 <uart1_irq+0x5c>)
    b5e4:	6b90      	ldr	r0, [r2, #56]	; 0x38
    b5e6:	2800      	cmp	r0, #0
    b5e8:	d0f9      	beq.n	b5de <uart1_irq+0x46>
    b5ea:	4619      	mov	r1, r3
    b5ec:	e7f2      	b.n	b5d4 <uart1_irq+0x3c>
    b5ee:	bf00      	nop
    b5f0:	40010000 	.word	0x40010000
    b5f4:	10000e3c 	.word	0x10000e3c
    b5f8:	10000e38 	.word	0x10000e38

0000b5fc <serial_baud>:
    b5fc:	e92d 0ff0 	stmdb	sp!, {r4, r5, r6, r7, r8, r9, r10, r11}
    b600:	b08a      	sub	sp, #40	; 0x28
    b602:	9008      	str	r0, [sp, #32]
    b604:	4b71      	ldr	r3, [pc, #452]	; (b7cc <serial_baud+0x1d0>)
    b606:	6800      	ldr	r0, [r0, #0]
    b608:	4298      	cmp	r0, r3
    b60a:	9009      	str	r0, [sp, #36]	; 0x24
    b60c:	f000 80cf 	beq.w	b7ae <serial_baud+0x1b2>
    b610:	f340 80ba 	ble.w	b788 <serial_baud+0x18c>
    b614:	4b6e      	ldr	r3, [pc, #440]	; (b7d0 <serial_baud+0x1d4>)
    b616:	9a09      	ldr	r2, [sp, #36]	; 0x24
    b618:	429a      	cmp	r2, r3
    b61a:	f000 8090 	beq.w	b73e <serial_baud+0x142>
    b61e:	f503 4380 	add.w	r3, r3, #16384	; 0x4000
    b622:	429a      	cmp	r2, r3
    b624:	d10c      	bne.n	b640 <serial_baud+0x44>
    b626:	4b6b      	ldr	r3, [pc, #428]	; (b7d4 <serial_baud+0x1d8>)
    b628:	f8d3 21ac 	ldr.w	r2, [r3, #428]	; 0x1ac
    b62c:	f422 2240 	bic.w	r2, r2, #786432	; 0xc0000
    b630:	f8c3 21ac 	str.w	r2, [r3, #428]	; 0x1ac
    b634:	f8d3 21ac 	ldr.w	r2, [r3, #428]	; 0x1ac
    b638:	f442 2280 	orr.w	r2, r2, #262144	; 0x40000
    b63c:	f8c3 21ac 	str.w	r2, [r3, #428]	; 0x1ac
    b640:	4b65      	ldr	r3, [pc, #404]	; (b7d8 <serial_baud+0x1dc>)
    b642:	010a      	lsls	r2, r1, #4
    b644:	681b      	ldr	r3, [r3, #0]
    b646:	9305      	str	r3, [sp, #20]
    b648:	9c05      	ldr	r4, [sp, #20]
    b64a:	fbb3 f3f2 	udiv	r3, r3, r2
    b64e:	fb02 4213 	mls	r2, r2, r3, r4
    b652:	b29b      	uxth	r3, r3
    b654:	9301      	str	r3, [sp, #4]
    b656:	2a00      	cmp	r2, #0
    b658:	f000 8094 	beq.w	b784 <serial_baud+0x188>
    b65c:	0060      	lsls	r0, r4, #1
    b65e:	00a2      	lsls	r2, r4, #2
    b660:	f04f 0901 	mov.w	r9, #1
    b664:	2300      	movs	r3, #0
    b666:	9007      	str	r0, [sp, #28]
    b668:	9206      	str	r2, [sp, #24]
    b66a:	4680      	mov	r8, r0
    b66c:	4693      	mov	r11, r2
    b66e:	f8cd 900c 	str.w	r9, [sp, #12]
    b672:	9104      	str	r1, [sp, #16]
    b674:	46a2      	mov	r10, r4
    b676:	468c      	mov	r12, r1
    b678:	9302      	str	r3, [sp, #8]
    b67a:	2200      	movs	r2, #0
    b67c:	9c04      	ldr	r4, [sp, #16]
    b67e:	4610      	mov	r0, r2
    b680:	fa5f f789 	uxtb.w	r7, r9
    b684:	f1b8 0f00 	cmp.w	r8, #0
    b688:	bfb5      	itete	lt
    b68a:	fbb8 f3f4 	udivlt	r3, r8, r4
    b68e:	fbbb f3f4 	udivge	r3, r11, r4
    b692:	091b      	lsrlt	r3, r3, #4
    b694:	095b      	lsrge	r3, r3, #5
    b696:	3301      	adds	r3, #1
    b698:	f3c3 034f 	ubfx	r3, r3, #1, #16
    b69c:	eb02 0609 	add.w	r6, r2, r9
    b6a0:	2b00      	cmp	r3, #0
    b6a2:	d15a      	bne.n	b75a <serial_baud+0x15e>
    b6a4:	2301      	movs	r3, #1
    b6a6:	2800      	cmp	r0, #0
    b6a8:	d15b      	bne.n	b762 <serial_baud+0x166>
    b6aa:	fb03 f506 	mul.w	r5, r3, r6
    b6ae:	00ed      	lsls	r5, r5, #3
    b6b0:	fbba f5f5 	udiv	r5, r10, r5
    b6b4:	3501      	adds	r5, #1
    b6b6:	ebc1 0555 	rsb	r5, r1, r5, lsr #1
    b6ba:	2d00      	cmp	r5, #0
    b6bc:	bfb8      	it	lt
    b6be:	426d      	neglt	r5, r5
    b6c0:	4565      	cmp	r5, r12
    b6c2:	da05      	bge.n	b6d0 <serial_baud+0xd4>
    b6c4:	428d      	cmp	r5, r1
    b6c6:	d04e      	beq.n	b766 <serial_baud+0x16a>
    b6c8:	46ac      	mov	r12, r5
    b6ca:	9002      	str	r0, [sp, #8]
    b6cc:	9301      	str	r3, [sp, #4]
    b6ce:	9703      	str	r7, [sp, #12]
    b6d0:	3201      	adds	r2, #1
    b6d2:	b2d0      	uxtb	r0, r2
    b6d4:	4287      	cmp	r7, r0
    b6d6:	440c      	add	r4, r1
    b6d8:	d8d4      	bhi.n	b684 <serial_baud+0x88>
    b6da:	f1b9 0f0f 	cmp.w	r9, #15
    b6de:	f04f 0300 	mov.w	r3, #0
    b6e2:	d049      	beq.n	b778 <serial_baud+0x17c>
    b6e4:	9a05      	ldr	r2, [sp, #20]
    b6e6:	9c07      	ldr	r4, [sp, #28]
    b6e8:	4492      	add	r10, r2
    b6ea:	9a04      	ldr	r2, [sp, #16]
    b6ec:	9806      	ldr	r0, [sp, #24]
    b6ee:	440a      	add	r2, r1
    b6f0:	f109 0901 	add.w	r9, r9, #1
    b6f4:	44a0      	add	r8, r4
    b6f6:	4483      	add	r11, r0
    b6f8:	9204      	str	r2, [sp, #16]
    b6fa:	2b00      	cmp	r3, #0
    b6fc:	d0bd      	beq.n	b67a <serial_baud+0x7e>
    b6fe:	9b02      	ldr	r3, [sp, #8]
    b700:	9c03      	ldr	r4, [sp, #12]
    b702:	ea43 1004 	orr.w	r0, r3, r4, lsl #4
    b706:	b2c0      	uxtb	r0, r0
    b708:	9a09      	ldr	r2, [sp, #36]	; 0x24
    b70a:	9c01      	ldr	r4, [sp, #4]
    b70c:	7b13      	ldrb	r3, [r2, #12]
    b70e:	f3c4 2107 	ubfx	r1, r4, #8, #8
    b712:	f043 0380 	orr.w	r3, r3, #128	; 0x80
    b716:	7313      	strb	r3, [r2, #12]
    b718:	9a08      	ldr	r2, [sp, #32]
    b71a:	6813      	ldr	r3, [r2, #0]
    b71c:	b2e2      	uxtb	r2, r4
    b71e:	9c08      	ldr	r4, [sp, #32]
    b720:	7119      	strb	r1, [r3, #4]
    b722:	6823      	ldr	r3, [r4, #0]
    b724:	701a      	strb	r2, [r3, #0]
    b726:	6823      	ldr	r3, [r4, #0]
    b728:	f883 0028 	strb.w	r0, [r3, #40]	; 0x28
    b72c:	6823      	ldr	r3, [r4, #0]
    b72e:	7b1a      	ldrb	r2, [r3, #12]
    b730:	f002 027f 	and.w	r2, r2, #127	; 0x7f
    b734:	731a      	strb	r2, [r3, #12]
    b736:	b00a      	add	sp, #40	; 0x28
    b738:	e8bd 0ff0 	ldmia.w	sp!, {r4, r5, r6, r7, r8, r9, r10, r11}
    b73c:	4770      	bx	lr
    b73e:	4b25      	ldr	r3, [pc, #148]	; (b7d4 <serial_baud+0x1d8>)
    b740:	f8d3 21ac 	ldr.w	r2, [r3, #428]	; 0x1ac
    b744:	f422 3240 	bic.w	r2, r2, #196608	; 0x30000
    b748:	f8c3 21ac 	str.w	r2, [r3, #428]	; 0x1ac
    b74c:	f8d3 21ac 	ldr.w	r2, [r3, #428]	; 0x1ac
    b750:	f442 3280 	orr.w	r2, r2, #65536	; 0x10000
    b754:	f8c3 21ac 	str.w	r2, [r3, #428]	; 0x1ac
    b758:	e772      	b.n	b640 <serial_baud+0x44>
    b75a:	2800      	cmp	r0, #0
    b75c:	d0a5      	beq.n	b6aa <serial_baud+0xae>
    b75e:	2b01      	cmp	r3, #1
    b760:	d8a3      	bhi.n	b6aa <serial_baud+0xae>
    b762:	2302      	movs	r3, #2
    b764:	e7a1      	b.n	b6aa <serial_baud+0xae>
    b766:	f1b9 0f0f 	cmp.w	r9, #15
    b76a:	9301      	str	r3, [sp, #4]
    b76c:	9703      	str	r7, [sp, #12]
    b76e:	9002      	str	r0, [sp, #8]
    b770:	468c      	mov	r12, r1
    b772:	f04f 0301 	mov.w	r3, #1
    b776:	d1b5      	bne.n	b6e4 <serial_baud+0xe8>
    b778:	9c02      	ldr	r4, [sp, #8]
    b77a:	9903      	ldr	r1, [sp, #12]
    b77c:	ea44 1001 	orr.w	r0, r4, r1, lsl #4
    b780:	b2c0      	uxtb	r0, r0
    b782:	e7c1      	b.n	b708 <serial_baud+0x10c>
    b784:	2010      	movs	r0, #16
    b786:	e7bf      	b.n	b708 <serial_baud+0x10c>
    b788:	f5a3 4380 	sub.w	r3, r3, #16384	; 0x4000
    b78c:	4298      	cmp	r0, r3
    b78e:	f47f af57 	bne.w	b640 <serial_baud+0x44>
    b792:	4b10      	ldr	r3, [pc, #64]	; (b7d4 <serial_baud+0x1d8>)
    b794:	f8d3 21a8 	ldr.w	r2, [r3, #424]	; 0x1a8
    b798:	f022 02c0 	bic.w	r2, r2, #192	; 0xc0
    b79c:	f8c3 21a8 	str.w	r2, [r3, #424]	; 0x1a8
    b7a0:	f8d3 21a8 	ldr.w	r2, [r3, #424]	; 0x1a8
    b7a4:	f042 0240 	orr.w	r2, r2, #64	; 0x40
    b7a8:	f8c3 21a8 	str.w	r2, [r3, #424]	; 0x1a8
    b7ac:	e748      	b.n	b640 <serial_baud+0x44>
    b7ae:	4b09      	ldr	r3, [pc, #36]	; (b7d4 <serial_baud+0x1d8>)
    b7b0:	f8d3 21a8 	ldr.w	r2, [r3, #424]	; 0x1a8
    b7b4:	f422 7240 	bic.w	r2, r2, #768	; 0x300
    b7b8:	f8c3 21a8 	str.w	r2, [r3, #424]	; 0x1a8
    b7bc:	f8d3 21a8 	ldr.w	r2, [r3, #424]	; 0x1a8
    b7c0:	f442 7280 	orr.w	r2, r2, #256	; 0x100
    b7c4:	f8c3 21a8 	str.w	r2, [r3, #424]	; 0x1a8
    b7c8:	e73a      	b.n	b640 <serial_baud+0x44>
    b7ca:	bf00      	nop
    b7cc:	40010000 	.word	0x40010000
    b7d0:	40098000 	.word	0x40098000
    b7d4:	400fc000 	.word	0x400fc000
    b7d8:	1000016c 	.word	0x1000016c

0000b7dc <serial_getc>:
    b7dc:	6802      	ldr	r2, [r0, #0]
    b7de:	7d13      	ldrb	r3, [r2, #20]
    b7e0:	07db      	lsls	r3, r3, #31
    b7e2:	d5fc      	bpl.n	b7de <serial_getc+0x2>
    b7e4:	6843      	ldr	r3, [r0, #4]
    b7e6:	4909      	ldr	r1, [pc, #36]	; (b80c <serial_getc+0x30>)
    b7e8:	ebc3 03c3 	rsb	r3, r3, r3, lsl #3
    b7ec:	eb01 03c3 	add.w	r3, r1, r3, lsl #3
    b7f0:	6859      	ldr	r1, [r3, #4]
    b7f2:	7810      	ldrb	r0, [r2, #0]
    b7f4:	3101      	adds	r1, #1
    b7f6:	b2c0      	uxtb	r0, r0
    b7f8:	d007      	beq.n	b80a <serial_getc+0x2e>
    b7fa:	6959      	ldr	r1, [r3, #20]
    b7fc:	3304      	adds	r3, #4
    b7fe:	685b      	ldr	r3, [r3, #4]
    b800:	600b      	str	r3, [r1, #0]
    b802:	6853      	ldr	r3, [r2, #4]
    b804:	f043 0301 	orr.w	r3, r3, #1
    b808:	6053      	str	r3, [r2, #4]
    b80a:	4770      	bx	lr
    b80c:	10000e3c 	.word	0x10000e3c

0000b810 <serial_writable>:
    b810:	6843      	ldr	r3, [r0, #4]
    b812:	4a17      	ldr	r2, [pc, #92]	; (b870 <serial_writable+0x60>)
    b814:	ebc3 03c3 	rsb	r3, r3, r3, lsl #3
    b818:	00db      	lsls	r3, r3, #3
    b81a:	18d1      	adds	r1, r2, r3
    b81c:	b410      	push	{r4}
    b81e:	69cc      	ldr	r4, [r1, #28]
    b820:	3401      	adds	r4, #1
    b822:	d011      	beq.n	b848 <serial_writable+0x38>
    b824:	6b0a      	ldr	r2, [r1, #48]	; 0x30
    b826:	f101 031c 	add.w	r3, r1, #28
    b82a:	685b      	ldr	r3, [r3, #4]
    b82c:	6812      	ldr	r2, [r2, #0]
    b82e:	421a      	tst	r2, r3
    b830:	d003      	beq.n	b83a <serial_writable+0x2a>
    b832:	2000      	movs	r0, #0
    b834:	f85d 4b04 	ldr.w	r4, [sp], #4
    b838:	4770      	bx	lr
    b83a:	6803      	ldr	r3, [r0, #0]
    b83c:	f85d 4b04 	ldr.w	r4, [sp], #4
    b840:	7d18      	ldrb	r0, [r3, #20]
    b842:	f3c0 1080 	ubfx	r0, r0, #6, #1
    b846:	4770      	bx	lr
    b848:	6803      	ldr	r3, [r0, #0]
    b84a:	7d1b      	ldrb	r3, [r3, #20]
    b84c:	069b      	lsls	r3, r3, #26
    b84e:	d408      	bmi.n	b862 <serial_writable+0x52>
    b850:	f891 0034 	ldrb.w	r0, [r1, #52]	; 0x34
    b854:	f85d 4b04 	ldr.w	r4, [sp], #4
    b858:	280f      	cmp	r0, #15
    b85a:	bf8c      	ite	hi
    b85c:	2000      	movhi	r0, #0
    b85e:	2001      	movls	r0, #1
    b860:	4770      	bx	lr
    b862:	2300      	movs	r3, #0
    b864:	f881 3034 	strb.w	r3, [r1, #52]	; 0x34
    b868:	2001      	movs	r0, #1
    b86a:	f85d 4b04 	ldr.w	r4, [sp], #4
    b86e:	4770      	bx	lr
    b870:	10000e3c 	.word	0x10000e3c

0000b874 <serial_putc>:
    b874:	b538      	push	{r3, r4, r5, lr}
    b876:	4604      	mov	r4, r0
    b878:	460d      	mov	r5, r1
    b87a:	4620      	mov	r0, r4
    b87c:	f7ff ffc8 	bl	b810 <serial_writable>
    b880:	2800      	cmp	r0, #0
    b882:	d0fa      	beq.n	b87a <serial_putc+0x6>
    b884:	6823      	ldr	r3, [r4, #0]
    b886:	b2ed      	uxtb	r5, r5
    b888:	701d      	strb	r5, [r3, #0]
    b88a:	6862      	ldr	r2, [r4, #4]
    b88c:	4b05      	ldr	r3, [pc, #20]	; (b8a4 <serial_putc+0x30>)
    b88e:	ebc2 02c2 	rsb	r2, r2, r2, lsl #3
    b892:	eb03 03c2 	add.w	r3, r3, r2, lsl #3
    b896:	f893 2034 	ldrb.w	r2, [r3, #52]	; 0x34
    b89a:	3201      	adds	r2, #1
    b89c:	f883 2034 	strb.w	r2, [r3, #52]	; 0x34
    b8a0:	bd38      	pop	{r3, r4, r5, pc}
    b8a2:	bf00      	nop
    b8a4:	10000e3c 	.word	0x10000e3c

0000b8a8 <serial_set_flow_control>:
    b8a8:	e92d 4ff0 	stmdb	sp!, {r4, r5, r6, r7, r8, r9, r10, r11, lr}
    b8ac:	4604      	mov	r4, r0
    b8ae:	4d45      	ldr	r5, [pc, #276]	; (b9c4 <serial_set_flow_control+0x11c>)
    b8b0:	6800      	ldr	r0, [r0, #0]
    b8b2:	b083      	sub	sp, #12
    b8b4:	42a8      	cmp	r0, r5
    b8b6:	460e      	mov	r6, r1
    b8b8:	4690      	mov	r8, r2
    b8ba:	4699      	mov	r9, r3
    b8bc:	d043      	beq.n	b946 <serial_set_flow_control+0x9e>
    b8be:	6865      	ldr	r5, [r4, #4]
    b8c0:	2300      	movs	r3, #0
    b8c2:	9301      	str	r3, [sp, #4]
    b8c4:	462a      	mov	r2, r5
    b8c6:	f8df a108 	ldr.w	r10, [pc, #264]	; b9d0 <serial_set_flow_control+0x128>
    b8ca:	00ef      	lsls	r7, r5, #3
    b8cc:	ebc2 02c2 	rsb	r2, r2, r2, lsl #3
    b8d0:	1b78      	subs	r0, r7, r5
    b8d2:	f04f 0e00 	mov.w	lr, #0
    b8d6:	eb0a 00c0 	add.w	r0, r10, r0, lsl #3
    b8da:	eb0a 0cc2 	add.w	r12, r10, r2, lsl #3
    b8de:	f04f 33ff 	mov.w	r3, #4294967295	; 0xffffffff
    b8e2:	61c3      	str	r3, [r0, #28]
    b8e4:	6043      	str	r3, [r0, #4]
    b8e6:	4671      	mov	r1, lr
    b8e8:	4672      	mov	r2, lr
    b8ea:	4620      	mov	r0, r4
    b8ec:	f88c e035 	strb.w	lr, [r12, #53]	; 0x35
    b8f0:	f7ff fd84 	bl	b3fc <serial_irq_set_internal>
    b8f4:	b916      	cbnz	r6, b8fc <serial_set_flow_control+0x54>
    b8f6:	b003      	add	sp, #12
    b8f8:	e8bd 8ff0 	ldmia.w	sp!, {r4, r5, r6, r7, r8, r9, r10, r11, pc}
    b8fc:	4932      	ldr	r1, [pc, #200]	; (b9c8 <serial_set_flow_control+0x120>)
    b8fe:	4640      	mov	r0, r8
    b900:	f000 f964 	bl	bbcc <pinmap_find_peripheral>
    b904:	4931      	ldr	r1, [pc, #196]	; (b9cc <serial_set_flow_control+0x124>)
    b906:	4683      	mov	r11, r0
    b908:	4648      	mov	r0, r9
    b90a:	f000 f95f 	bl	bbcc <pinmap_find_peripheral>
    b90e:	1eb2      	subs	r2, r6, #2
    b910:	2a01      	cmp	r2, #1
    b912:	d938      	bls.n	b986 <serial_set_flow_control+0xde>
    b914:	2e01      	cmp	r6, #1
    b916:	d1ee      	bne.n	b8f6 <serial_set_flow_control+0x4e>
    b918:	f1b8 3fff 	cmp.w	r8, #4294967295	; 0xffffffff
    b91c:	d0eb      	beq.n	b8f6 <serial_set_flow_control+0x4e>
    b91e:	4929      	ldr	r1, [pc, #164]	; (b9c4 <serial_set_flow_control+0x11c>)
    b920:	6822      	ldr	r2, [r4, #0]
    b922:	2007      	movs	r0, #7
    b924:	458b      	cmp	r11, r1
    b926:	7210      	strb	r0, [r2, #8]
    b928:	d115      	bne.n	b956 <serial_set_flow_control+0xae>
    b92a:	9b01      	ldr	r3, [sp, #4]
    b92c:	b19b      	cbz	r3, b956 <serial_set_flow_control+0xae>
    b92e:	7c1b      	ldrb	r3, [r3, #16]
    b930:	9a01      	ldr	r2, [sp, #4]
    b932:	4925      	ldr	r1, [pc, #148]	; (b9c8 <serial_set_flow_control+0x120>)
    b934:	f043 0340 	orr.w	r3, r3, #64	; 0x40
    b938:	4640      	mov	r0, r8
    b93a:	7413      	strb	r3, [r2, #16]
    b93c:	b003      	add	sp, #12
    b93e:	e8bd 4ff0 	ldmia.w	sp!, {r4, r5, r6, r7, r8, r9, r10, r11, lr}
    b942:	f000 b911 	b.w	bb68 <pinmap_pinout>
    b946:	7c03      	ldrb	r3, [r0, #16]
    b948:	6865      	ldr	r5, [r4, #4]
    b94a:	f003 033f 	and.w	r3, r3, #63	; 0x3f
    b94e:	7403      	strb	r3, [r0, #16]
    b950:	6862      	ldr	r2, [r4, #4]
    b952:	9001      	str	r0, [sp, #4]
    b954:	e7b7      	b.n	b8c6 <serial_set_flow_control+0x1e>
    b956:	1b7d      	subs	r5, r7, r5
    b958:	eb0a 00c5 	add.w	r0, r10, r5, lsl #3
    b95c:	4641      	mov	r1, r8
    b95e:	3004      	adds	r0, #4
    b960:	2200      	movs	r2, #0
    b962:	f7ff fb0d 	bl	af80 <gpio_init_out_ex>
    b966:	6862      	ldr	r2, [r4, #4]
    b968:	2501      	movs	r5, #1
    b96a:	ebc2 02c2 	rsb	r2, r2, r2, lsl #3
    b96e:	eb0a 03c2 	add.w	r3, r10, r2, lsl #3
    b972:	4620      	mov	r0, r4
    b974:	462a      	mov	r2, r5
    b976:	2100      	movs	r1, #0
    b978:	f883 5035 	strb.w	r5, [r3, #53]	; 0x35
    b97c:	b003      	add	sp, #12
    b97e:	e8bd 4ff0 	ldmia.w	sp!, {r4, r5, r6, r7, r8, r9, r10, r11, lr}
    b982:	f7ff bd3b 	b.w	b3fc <serial_irq_set_internal>
    b986:	f1b9 3fff 	cmp.w	r9, #4294967295	; 0xffffffff
    b98a:	d009      	beq.n	b9a0 <serial_set_flow_control+0xf8>
    b98c:	4a0d      	ldr	r2, [pc, #52]	; (b9c4 <serial_set_flow_control+0x11c>)
    b98e:	4290      	cmp	r0, r2
    b990:	d00c      	beq.n	b9ac <serial_set_flow_control+0x104>
    b992:	1b78      	subs	r0, r7, r5
    b994:	eb0a 00c0 	add.w	r0, r10, r0, lsl #3
    b998:	4649      	mov	r1, r9
    b99a:	301c      	adds	r0, #28
    b99c:	f7ff fac8 	bl	af30 <gpio_init_in>
    b9a0:	2e03      	cmp	r6, #3
    b9a2:	d1a8      	bne.n	b8f6 <serial_set_flow_control+0x4e>
    b9a4:	f1b8 3fff 	cmp.w	r8, #4294967295	; 0xffffffff
    b9a8:	d1b9      	bne.n	b91e <serial_set_flow_control+0x76>
    b9aa:	e7a4      	b.n	b8f6 <serial_set_flow_control+0x4e>
    b9ac:	9b01      	ldr	r3, [sp, #4]
    b9ae:	2b00      	cmp	r3, #0
    b9b0:	d0ef      	beq.n	b992 <serial_set_flow_control+0xea>
    b9b2:	7c1a      	ldrb	r2, [r3, #16]
    b9b4:	4648      	mov	r0, r9
    b9b6:	f042 0280 	orr.w	r2, r2, #128	; 0x80
    b9ba:	741a      	strb	r2, [r3, #16]
    b9bc:	4903      	ldr	r1, [pc, #12]	; (b9cc <serial_set_flow_control+0x124>)
    b9be:	f000 f8d3 	bl	bb68 <pinmap_pinout>
    b9c2:	e7ed      	b.n	b9a0 <serial_set_flow_control+0xf8>
    b9c4:	40010000 	.word	0x40010000
    b9c8:	0000dc04 	.word	0x0000dc04
    b9cc:	0000dd00 	.word	0x0000dd00
    b9d0:	10000e3c 	.word	0x10000e3c

0000b9d4 <serial_init>:
    b9d4:	e92d 41f0 	stmdb	sp!, {r4, r5, r6, r7, r8, lr}
    b9d8:	4605      	mov	r5, r0
    b9da:	460f      	mov	r7, r1
    b9dc:	4608      	mov	r0, r1
    b9de:	4959      	ldr	r1, [pc, #356]	; (bb44 <serial_init+0x170>)
    b9e0:	4616      	mov	r6, r2
    b9e2:	f000 f901 	bl	bbe8 <pinmap_peripheral>
    b9e6:	4958      	ldr	r1, [pc, #352]	; (bb48 <serial_init+0x174>)
    b9e8:	4604      	mov	r4, r0
    b9ea:	4630      	mov	r0, r6
    b9ec:	f000 f8fc 	bl	bbe8 <pinmap_peripheral>
    b9f0:	4601      	mov	r1, r0
    b9f2:	4620      	mov	r0, r4
    b9f4:	f000 f8d8 	bl	bba8 <pinmap_merge>
    b9f8:	4b54      	ldr	r3, [pc, #336]	; (bb4c <serial_init+0x178>)
    b9fa:	4604      	mov	r4, r0
    b9fc:	4298      	cmp	r0, r3
    b9fe:	6028      	str	r0, [r5, #0]
    ba00:	d07f      	beq.n	bb02 <serial_init+0x12e>
    ba02:	d96f      	bls.n	bae4 <serial_init+0x110>
    ba04:	4b52      	ldr	r3, [pc, #328]	; (bb50 <serial_init+0x17c>)
    ba06:	4298      	cmp	r0, r3
    ba08:	d04b      	beq.n	baa2 <serial_init+0xce>
    ba0a:	f503 4380 	add.w	r3, r3, #16384	; 0x4000
    ba0e:	4298      	cmp	r0, r3
    ba10:	d106      	bne.n	ba20 <serial_init+0x4c>
    ba12:	4b50      	ldr	r3, [pc, #320]	; (bb54 <serial_init+0x180>)
    ba14:	f8d3 20c4 	ldr.w	r2, [r3, #196]	; 0xc4
    ba18:	f042 7200 	orr.w	r2, r2, #33554432	; 0x2000000
    ba1c:	f8c3 20c4 	str.w	r2, [r3, #196]	; 0xc4
    ba20:	2301      	movs	r3, #1
    ba22:	7223      	strb	r3, [r4, #8]
    ba24:	682b      	ldr	r3, [r5, #0]
    ba26:	f04f 0800 	mov.w	r8, #0
    ba2a:	f8c3 8004 	str.w	r8, [r3, #4]
    ba2e:	4628      	mov	r0, r5
    ba30:	f44f 5116 	mov.w	r1, #9600	; 0x2580
    ba34:	f7ff fde2 	bl	b5fc <serial_baud>
    ba38:	682b      	ldr	r3, [r5, #0]
    ba3a:	2203      	movs	r2, #3
    ba3c:	731a      	strb	r2, [r3, #12]
    ba3e:	4638      	mov	r0, r7
    ba40:	4940      	ldr	r1, [pc, #256]	; (bb44 <serial_init+0x170>)
    ba42:	f000 f891 	bl	bb68 <pinmap_pinout>
    ba46:	4630      	mov	r0, r6
    ba48:	493f      	ldr	r1, [pc, #252]	; (bb48 <serial_init+0x174>)
    ba4a:	f000 f88d 	bl	bb68 <pinmap_pinout>
    ba4e:	1c7a      	adds	r2, r7, #1
    ba50:	d003      	beq.n	ba5a <serial_init+0x86>
    ba52:	4638      	mov	r0, r7
    ba54:	4641      	mov	r1, r8
    ba56:	f7ff fc6f 	bl	b338 <pin_mode>
    ba5a:	1c73      	adds	r3, r6, #1
    ba5c:	d003      	beq.n	ba66 <serial_init+0x92>
    ba5e:	4630      	mov	r0, r6
    ba60:	2100      	movs	r1, #0
    ba62:	f7ff fc69 	bl	b338 <pin_mode>
    ba66:	4b39      	ldr	r3, [pc, #228]	; (bb4c <serial_init+0x178>)
    ba68:	429c      	cmp	r4, r3
    ba6a:	d047      	beq.n	bafc <serial_init+0x128>
    ba6c:	d921      	bls.n	bab2 <serial_init+0xde>
    ba6e:	4b38      	ldr	r3, [pc, #224]	; (bb50 <serial_init+0x17c>)
    ba70:	429c      	cmp	r4, r3
    ba72:	d063      	beq.n	bb3c <serial_init+0x168>
    ba74:	f503 4380 	add.w	r3, r3, #16384	; 0x4000
    ba78:	429c      	cmp	r4, r3
    ba7a:	d14a      	bne.n	bb12 <serial_init+0x13e>
    ba7c:	2303      	movs	r3, #3
    ba7e:	606b      	str	r3, [r5, #4]
    ba80:	4935      	ldr	r1, [pc, #212]	; (bb58 <serial_init+0x184>)
    ba82:	ebc3 03c3 	rsb	r3, r3, r3, lsl #3
    ba86:	f04f 34ff 	mov.w	r4, #4294967295	; 0xffffffff
    ba8a:	4628      	mov	r0, r5
    ba8c:	eb01 05c3 	add.w	r5, r1, r3, lsl #3
    ba90:	4622      	mov	r2, r4
    ba92:	4623      	mov	r3, r4
    ba94:	606c      	str	r4, [r5, #4]
    ba96:	61ec      	str	r4, [r5, #28]
    ba98:	2100      	movs	r1, #0
    ba9a:	e8bd 41f0 	ldmia.w	sp!, {r4, r5, r6, r7, r8, lr}
    ba9e:	f7ff bf03 	b.w	b8a8 <serial_set_flow_control>
    baa2:	4b2c      	ldr	r3, [pc, #176]	; (bb54 <serial_init+0x180>)
    baa4:	f8d3 20c4 	ldr.w	r2, [r3, #196]	; 0xc4
    baa8:	f042 7280 	orr.w	r2, r2, #16777216	; 0x1000000
    baac:	f8c3 20c4 	str.w	r2, [r3, #196]	; 0xc4
    bab0:	e7b6      	b.n	ba20 <serial_init+0x4c>
    bab2:	f5a3 4380 	sub.w	r3, r3, #16384	; 0x4000
    bab6:	429c      	cmp	r4, r3
    bab8:	d12b      	bne.n	bb12 <serial_init+0x13e>
    baba:	4e27      	ldr	r6, [pc, #156]	; (bb58 <serial_init+0x184>)
    babc:	f04f 34ff 	mov.w	r4, #4294967295	; 0xffffffff
    bac0:	2100      	movs	r1, #0
    bac2:	6069      	str	r1, [r5, #4]
    bac4:	4622      	mov	r2, r4
    bac6:	4623      	mov	r3, r4
    bac8:	4628      	mov	r0, r5
    baca:	6074      	str	r4, [r6, #4]
    bacc:	61f4      	str	r4, [r6, #28]
    bace:	f7ff feeb 	bl	b8a8 <serial_set_flow_control>
    bad2:	4b22      	ldr	r3, [pc, #136]	; (bb5c <serial_init+0x188>)
    bad4:	2201      	movs	r2, #1
    bad6:	601a      	str	r2, [r3, #0]
    bad8:	6828      	ldr	r0, [r5, #0]
    bada:	6869      	ldr	r1, [r5, #4]
    badc:	4b20      	ldr	r3, [pc, #128]	; (bb60 <serial_init+0x18c>)
    bade:	c303      	stmia	r3!, {r0, r1}
    bae0:	e8bd 81f0 	ldmia.w	sp!, {r4, r5, r6, r7, r8, pc}
    bae4:	f5a3 4380 	sub.w	r3, r3, #16384	; 0x4000
    bae8:	4298      	cmp	r0, r3
    baea:	d199      	bne.n	ba20 <serial_init+0x4c>
    baec:	4b19      	ldr	r3, [pc, #100]	; (bb54 <serial_init+0x180>)
    baee:	f8d3 20c4 	ldr.w	r2, [r3, #196]	; 0xc4
    baf2:	f042 0208 	orr.w	r2, r2, #8
    baf6:	f8c3 20c4 	str.w	r2, [r3, #196]	; 0xc4
    bafa:	e791      	b.n	ba20 <serial_init+0x4c>
    bafc:	2301      	movs	r3, #1
    bafe:	606b      	str	r3, [r5, #4]
    bb00:	e7be      	b.n	ba80 <serial_init+0xac>
    bb02:	4b14      	ldr	r3, [pc, #80]	; (bb54 <serial_init+0x180>)
    bb04:	f8d3 20c4 	ldr.w	r2, [r3, #196]	; 0xc4
    bb08:	f042 0210 	orr.w	r2, r2, #16
    bb0c:	f8c3 20c4 	str.w	r2, [r3, #196]	; 0xc4
    bb10:	e786      	b.n	ba20 <serial_init+0x4c>
    bb12:	686b      	ldr	r3, [r5, #4]
    bb14:	4910      	ldr	r1, [pc, #64]	; (bb58 <serial_init+0x184>)
    bb16:	ebc3 03c3 	rsb	r3, r3, r3, lsl #3
    bb1a:	f04f 36ff 	mov.w	r6, #4294967295	; 0xffffffff
    bb1e:	eb01 07c3 	add.w	r7, r1, r3, lsl #3
    bb22:	4632      	mov	r2, r6
    bb24:	4633      	mov	r3, r6
    bb26:	4628      	mov	r0, r5
    bb28:	2100      	movs	r1, #0
    bb2a:	607e      	str	r6, [r7, #4]
    bb2c:	61fe      	str	r6, [r7, #28]
    bb2e:	f7ff febb 	bl	b8a8 <serial_set_flow_control>
    bb32:	4b0c      	ldr	r3, [pc, #48]	; (bb64 <serial_init+0x190>)
    bb34:	429c      	cmp	r4, r3
    bb36:	d0cc      	beq.n	bad2 <serial_init+0xfe>
    bb38:	e8bd 81f0 	ldmia.w	sp!, {r4, r5, r6, r7, r8, pc}
    bb3c:	2302      	movs	r3, #2
    bb3e:	606b      	str	r3, [r5, #4]
    bb40:	e79e      	b.n	ba80 <serial_init+0xac>
    bb42:	bf00      	nop
    bb44:	0000dc94 	.word	0x0000dc94
    bb48:	0000dc28 	.word	0x0000dc28
    bb4c:	40010000 	.word	0x40010000
    bb50:	40098000 	.word	0x40098000
    bb54:	400fc000 	.word	0x400fc000
    bb58:	10000e3c 	.word	0x10000e3c
    bb5c:	10000e34 	.word	0x10000e34
    bb60:	10001bb0 	.word	0x10001bb0
    bb64:	4000c000 	.word	0x4000c000

0000bb68 <pinmap_pinout>:
    bb68:	1c43      	adds	r3, r0, #1
    bb6a:	b510      	push	{r4, lr}
    bb6c:	4604      	mov	r4, r0
    bb6e:	d018      	beq.n	bba2 <pinmap_pinout+0x3a>
    bb70:	680b      	ldr	r3, [r1, #0]
    bb72:	1c58      	adds	r0, r3, #1
    bb74:	d104      	bne.n	bb80 <pinmap_pinout+0x18>
    bb76:	e00f      	b.n	bb98 <pinmap_pinout+0x30>
    bb78:	f851 3f0c 	ldr.w	r3, [r1, #12]!
    bb7c:	1c5a      	adds	r2, r3, #1
    bb7e:	d00b      	beq.n	bb98 <pinmap_pinout+0x30>
    bb80:	429c      	cmp	r4, r3
    bb82:	d1f9      	bne.n	bb78 <pinmap_pinout+0x10>
    bb84:	4620      	mov	r0, r4
    bb86:	6889      	ldr	r1, [r1, #8]
    bb88:	f7ff fbbe 	bl	b308 <pin_function>
    bb8c:	4620      	mov	r0, r4
    bb8e:	2102      	movs	r1, #2
    bb90:	e8bd 4010 	ldmia.w	sp!, {r4, lr}
    bb94:	f7ff bbd0 	b.w	b338 <pin_mode>
    bb98:	4802      	ldr	r0, [pc, #8]	; (bba4 <pinmap_pinout+0x3c>)
    bb9a:	e8bd 4010 	ldmia.w	sp!, {r4, lr}
    bb9e:	f7ff b99d 	b.w	aedc <error>
    bba2:	bd10      	pop	{r4, pc}
    bba4:	0000dd24 	.word	0x0000dd24

0000bba8 <pinmap_merge>:
    bba8:	4288      	cmp	r0, r1
    bbaa:	b508      	push	{r3, lr}
    bbac:	d00a      	beq.n	bbc4 <pinmap_merge+0x1c>
    bbae:	1c43      	adds	r3, r0, #1
    bbb0:	d007      	beq.n	bbc2 <pinmap_merge+0x1a>
    bbb2:	3101      	adds	r1, #1
    bbb4:	d006      	beq.n	bbc4 <pinmap_merge+0x1c>
    bbb6:	4804      	ldr	r0, [pc, #16]	; (bbc8 <pinmap_merge+0x20>)
    bbb8:	f7ff f990 	bl	aedc <error>
    bbbc:	f04f 30ff 	mov.w	r0, #4294967295	; 0xffffffff
    bbc0:	bd08      	pop	{r3, pc}
    bbc2:	4608      	mov	r0, r1
    bbc4:	bd08      	pop	{r3, pc}
    bbc6:	bf00      	nop
    bbc8:	0000dd38 	.word	0x0000dd38

0000bbcc <pinmap_find_peripheral>:
    bbcc:	680b      	ldr	r3, [r1, #0]
    bbce:	1c5a      	adds	r2, r3, #1
    bbd0:	d104      	bne.n	bbdc <pinmap_find_peripheral+0x10>
    bbd2:	e007      	b.n	bbe4 <pinmap_find_peripheral+0x18>
    bbd4:	f851 3f0c 	ldr.w	r3, [r1, #12]!
    bbd8:	1c5a      	adds	r2, r3, #1
    bbda:	d003      	beq.n	bbe4 <pinmap_find_peripheral+0x18>
    bbdc:	4283      	cmp	r3, r0
    bbde:	d1f9      	bne.n	bbd4 <pinmap_find_peripheral+0x8>
    bbe0:	6848      	ldr	r0, [r1, #4]
    bbe2:	4770      	bx	lr
    bbe4:	4618      	mov	r0, r3
    bbe6:	4770      	bx	lr

0000bbe8 <pinmap_peripheral>:
    bbe8:	b508      	push	{r3, lr}
    bbea:	1c43      	adds	r3, r0, #1
    bbec:	d00c      	beq.n	bc08 <pinmap_peripheral+0x20>
    bbee:	680b      	ldr	r3, [r1, #0]
    bbf0:	1c5a      	adds	r2, r3, #1
    bbf2:	d104      	bne.n	bbfe <pinmap_peripheral+0x16>
    bbf4:	e009      	b.n	bc0a <pinmap_peripheral+0x22>
    bbf6:	f851 3f0c 	ldr.w	r3, [r1, #12]!
    bbfa:	1c5a      	adds	r2, r3, #1
    bbfc:	d005      	beq.n	bc0a <pinmap_peripheral+0x22>
    bbfe:	4298      	cmp	r0, r3
    bc00:	d1f9      	bne.n	bbf6 <pinmap_peripheral+0xe>
    bc02:	6848      	ldr	r0, [r1, #4]
    bc04:	1c41      	adds	r1, r0, #1
    bc06:	d000      	beq.n	bc0a <pinmap_peripheral+0x22>
    bc08:	bd08      	pop	{r3, pc}
    bc0a:	4803      	ldr	r0, [pc, #12]	; (bc18 <pinmap_peripheral+0x30>)
    bc0c:	f7ff f966 	bl	aedc <error>
    bc10:	f04f 30ff 	mov.w	r0, #4294967295	; 0xffffffff
    bc14:	e7f8      	b.n	bc08 <pinmap_peripheral+0x20>
    bc16:	bf00      	nop
    bc18:	0000dd4c 	.word	0x0000dd4c

0000bc1c <__aeabi_atexit>:
    bc1c:	4603      	mov	r3, r0
    bc1e:	4608      	mov	r0, r1
    bc20:	4619      	mov	r1, r3
    bc22:	f000 b807 	b.w	bc34 <__cxa_atexit>

0000bc26 <atexit>:
    bc26:	4601      	mov	r1, r0
    bc28:	2000      	movs	r0, #0
    bc2a:	4602      	mov	r2, r0
    bc2c:	4603      	mov	r3, r0
    bc2e:	f001 bc4b 	b.w	d4c8 <__register_exitproc>
	...

0000bc34 <__cxa_atexit>:
    bc34:	b570      	push	{r4, r5, r6, lr}
    bc36:	4c06      	ldr	r4, [pc, #24]	; (bc50 <__cxa_atexit+0x1c>)
    bc38:	4606      	mov	r6, r0
    bc3a:	460d      	mov	r5, r1
    bc3c:	4613      	mov	r3, r2
    bc3e:	b12c      	cbz	r4, bc4c <__cxa_atexit+0x18>
    bc40:	4631      	mov	r1, r6
    bc42:	462a      	mov	r2, r5
    bc44:	2002      	movs	r0, #2
    bc46:	f001 fc3f 	bl	d4c8 <__register_exitproc>
    bc4a:	bd70      	pop	{r4, r5, r6, pc}
    bc4c:	4620      	mov	r0, r4
    bc4e:	bd70      	pop	{r4, r5, r6, pc}
    bc50:	0000d4c9 	.word	0x0000d4c9

0000bc54 <__errno>:
    bc54:	4b01      	ldr	r3, [pc, #4]	; (bc5c <__errno+0x8>)
    bc56:	6818      	ldr	r0, [r3, #0]
    bc58:	4770      	bx	lr
    bc5a:	bf00      	nop
    bc5c:	100001d4 	.word	0x100001d4

0000bc60 <__sflush_r>:
    bc60:	898a      	ldrh	r2, [r1, #12]
    bc62:	e92d 41f0 	stmdb	sp!, {r4, r5, r6, r7, r8, lr}
    bc66:	4605      	mov	r5, r0
    bc68:	0710      	lsls	r0, r2, #28
    bc6a:	460c      	mov	r4, r1
    bc6c:	d457      	bmi.n	bd1e <__sflush_r+0xbe>
    bc6e:	684b      	ldr	r3, [r1, #4]
    bc70:	2b00      	cmp	r3, #0
    bc72:	dc02      	bgt.n	bc7a <__sflush_r+0x1a>
    bc74:	6c0b      	ldr	r3, [r1, #64]	; 0x40
    bc76:	2b00      	cmp	r3, #0
    bc78:	dd18      	ble.n	bcac <__sflush_r+0x4c>
    bc7a:	6ae6      	ldr	r6, [r4, #44]	; 0x2c
    bc7c:	b1b6      	cbz	r6, bcac <__sflush_r+0x4c>
    bc7e:	f402 5280 	and.w	r2, r2, #4096	; 0x1000
    bc82:	2300      	movs	r3, #0
    bc84:	b292      	uxth	r2, r2
    bc86:	682f      	ldr	r7, [r5, #0]
    bc88:	602b      	str	r3, [r5, #0]
    bc8a:	b10a      	cbz	r2, bc90 <__sflush_r+0x30>
    bc8c:	6d62      	ldr	r2, [r4, #84]	; 0x54
    bc8e:	e010      	b.n	bcb2 <__sflush_r+0x52>
    bc90:	6a21      	ldr	r1, [r4, #32]
    bc92:	4628      	mov	r0, r5
    bc94:	2301      	movs	r3, #1
    bc96:	47b0      	blx	r6
    bc98:	1c41      	adds	r1, r0, #1
    bc9a:	4602      	mov	r2, r0
    bc9c:	d109      	bne.n	bcb2 <__sflush_r+0x52>
    bc9e:	682b      	ldr	r3, [r5, #0]
    bca0:	b13b      	cbz	r3, bcb2 <__sflush_r+0x52>
    bca2:	2b1d      	cmp	r3, #29
    bca4:	d001      	beq.n	bcaa <__sflush_r+0x4a>
    bca6:	2b16      	cmp	r3, #22
    bca8:	d146      	bne.n	bd38 <__sflush_r+0xd8>
    bcaa:	602f      	str	r7, [r5, #0]
    bcac:	2000      	movs	r0, #0
    bcae:	e8bd 81f0 	ldmia.w	sp!, {r4, r5, r6, r7, r8, pc}
    bcb2:	89a3      	ldrh	r3, [r4, #12]
    bcb4:	075b      	lsls	r3, r3, #29
    bcb6:	d505      	bpl.n	bcc4 <__sflush_r+0x64>
    bcb8:	6863      	ldr	r3, [r4, #4]
    bcba:	1ad2      	subs	r2, r2, r3
    bcbc:	6b63      	ldr	r3, [r4, #52]	; 0x34
    bcbe:	b10b      	cbz	r3, bcc4 <__sflush_r+0x64>
    bcc0:	6c23      	ldr	r3, [r4, #64]	; 0x40
    bcc2:	1ad2      	subs	r2, r2, r3
    bcc4:	6ae6      	ldr	r6, [r4, #44]	; 0x2c
    bcc6:	4628      	mov	r0, r5
    bcc8:	6a21      	ldr	r1, [r4, #32]
    bcca:	2300      	movs	r3, #0
    bccc:	47b0      	blx	r6
    bcce:	1c46      	adds	r6, r0, #1
    bcd0:	89a2      	ldrh	r2, [r4, #12]
    bcd2:	d105      	bne.n	bce0 <__sflush_r+0x80>
    bcd4:	682b      	ldr	r3, [r5, #0]
    bcd6:	b11b      	cbz	r3, bce0 <__sflush_r+0x80>
    bcd8:	2b1d      	cmp	r3, #29
    bcda:	d001      	beq.n	bce0 <__sflush_r+0x80>
    bcdc:	2b16      	cmp	r3, #22
    bcde:	d119      	bne.n	bd14 <__sflush_r+0xb4>
    bce0:	2300      	movs	r3, #0
    bce2:	6063      	str	r3, [r4, #4]
    bce4:	6923      	ldr	r3, [r4, #16]
    bce6:	04d1      	lsls	r1, r2, #19
    bce8:	6023      	str	r3, [r4, #0]
    bcea:	d504      	bpl.n	bcf6 <__sflush_r+0x96>
    bcec:	1c42      	adds	r2, r0, #1
    bcee:	d101      	bne.n	bcf4 <__sflush_r+0x94>
    bcf0:	682b      	ldr	r3, [r5, #0]
    bcf2:	b903      	cbnz	r3, bcf6 <__sflush_r+0x96>
    bcf4:	6560      	str	r0, [r4, #84]	; 0x54
    bcf6:	6b61      	ldr	r1, [r4, #52]	; 0x34
    bcf8:	602f      	str	r7, [r5, #0]
    bcfa:	2900      	cmp	r1, #0
    bcfc:	d0d6      	beq.n	bcac <__sflush_r+0x4c>
    bcfe:	f104 0344 	add.w	r3, r4, #68	; 0x44
    bd02:	4299      	cmp	r1, r3
    bd04:	d002      	beq.n	bd0c <__sflush_r+0xac>
    bd06:	4628      	mov	r0, r5
    bd08:	f000 f992 	bl	c030 <_free_r>
    bd0c:	2000      	movs	r0, #0
    bd0e:	6360      	str	r0, [r4, #52]	; 0x34
    bd10:	e8bd 81f0 	ldmia.w	sp!, {r4, r5, r6, r7, r8, pc}
    bd14:	f042 0240 	orr.w	r2, r2, #64	; 0x40
    bd18:	81a2      	strh	r2, [r4, #12]
    bd1a:	e8bd 81f0 	ldmia.w	sp!, {r4, r5, r6, r7, r8, pc}
    bd1e:	690e      	ldr	r6, [r1, #16]
    bd20:	2e00      	cmp	r6, #0
    bd22:	d0c3      	beq.n	bcac <__sflush_r+0x4c>
    bd24:	680b      	ldr	r3, [r1, #0]
    bd26:	600e      	str	r6, [r1, #0]
    bd28:	ebc6 0803 	rsb	r8, r6, r3
    bd2c:	0793      	lsls	r3, r2, #30
    bd2e:	bf0c      	ite	eq
    bd30:	694b      	ldreq	r3, [r1, #20]
    bd32:	2300      	movne	r3, #0
    bd34:	608b      	str	r3, [r1, #8]
    bd36:	e012      	b.n	bd5e <__sflush_r+0xfe>
    bd38:	89a3      	ldrh	r3, [r4, #12]
    bd3a:	f04f 30ff 	mov.w	r0, #4294967295	; 0xffffffff
    bd3e:	f043 0340 	orr.w	r3, r3, #64	; 0x40
    bd42:	81a3      	strh	r3, [r4, #12]
    bd44:	e8bd 81f0 	ldmia.w	sp!, {r4, r5, r6, r7, r8, pc}
    bd48:	6aa7      	ldr	r7, [r4, #40]	; 0x28
    bd4a:	4628      	mov	r0, r5
    bd4c:	6a21      	ldr	r1, [r4, #32]
    bd4e:	4632      	mov	r2, r6
    bd50:	4643      	mov	r3, r8
    bd52:	47b8      	blx	r7
    bd54:	2800      	cmp	r0, #0
    bd56:	ddef      	ble.n	bd38 <__sflush_r+0xd8>
    bd58:	4406      	add	r6, r0
    bd5a:	ebc0 0808 	rsb	r8, r0, r8
    bd5e:	f1b8 0f00 	cmp.w	r8, #0
    bd62:	dcf1      	bgt.n	bd48 <__sflush_r+0xe8>
    bd64:	e7a2      	b.n	bcac <__sflush_r+0x4c>
	...

0000bd68 <_fflush_r>:
    bd68:	b538      	push	{r3, r4, r5, lr}
    bd6a:	690b      	ldr	r3, [r1, #16]
    bd6c:	4605      	mov	r5, r0
    bd6e:	460c      	mov	r4, r1
    bd70:	b1db      	cbz	r3, bdaa <_fflush_r+0x42>
    bd72:	b118      	cbz	r0, bd7c <_fflush_r+0x14>
    bd74:	6983      	ldr	r3, [r0, #24]
    bd76:	b90b      	cbnz	r3, bd7c <_fflush_r+0x14>
    bd78:	f000 f886 	bl	be88 <__sinit>
    bd7c:	4b0c      	ldr	r3, [pc, #48]	; (bdb0 <_fflush_r+0x48>)
    bd7e:	429c      	cmp	r4, r3
    bd80:	d101      	bne.n	bd86 <_fflush_r+0x1e>
    bd82:	686c      	ldr	r4, [r5, #4]
    bd84:	e008      	b.n	bd98 <_fflush_r+0x30>
    bd86:	4b0b      	ldr	r3, [pc, #44]	; (bdb4 <_fflush_r+0x4c>)
    bd88:	429c      	cmp	r4, r3
    bd8a:	d101      	bne.n	bd90 <_fflush_r+0x28>
    bd8c:	68ac      	ldr	r4, [r5, #8]
    bd8e:	e003      	b.n	bd98 <_fflush_r+0x30>
    bd90:	4b09      	ldr	r3, [pc, #36]	; (bdb8 <_fflush_r+0x50>)
    bd92:	429c      	cmp	r4, r3
    bd94:	bf08      	it	eq
    bd96:	68ec      	ldreq	r4, [r5, #12]
    bd98:	f9b4 300c 	ldrsh.w	r3, [r4, #12]
    bd9c:	b12b      	cbz	r3, bdaa <_fflush_r+0x42>
    bd9e:	4628      	mov	r0, r5
    bda0:	4621      	mov	r1, r4
    bda2:	e8bd 4038 	ldmia.w	sp!, {r3, r4, r5, lr}
    bda6:	f7ff bf5b 	b.w	bc60 <__sflush_r>
    bdaa:	2000      	movs	r0, #0
    bdac:	bd38      	pop	{r3, r4, r5, pc}
    bdae:	bf00      	nop
    bdb0:	0000dd6c 	.word	0x0000dd6c
    bdb4:	0000dd8c 	.word	0x0000dd8c
    bdb8:	0000ddac 	.word	0x0000ddac

0000bdbc <fflush>:
    bdbc:	4601      	mov	r1, r0
    bdbe:	b920      	cbnz	r0, bdca <fflush+0xe>
    bdc0:	4b04      	ldr	r3, [pc, #16]	; (bdd4 <fflush+0x18>)
    bdc2:	4905      	ldr	r1, [pc, #20]	; (bdd8 <fflush+0x1c>)
    bdc4:	6818      	ldr	r0, [r3, #0]
    bdc6:	f000 b8df 	b.w	bf88 <_fwalk_reent>
    bdca:	4b04      	ldr	r3, [pc, #16]	; (bddc <fflush+0x20>)
    bdcc:	6818      	ldr	r0, [r3, #0]
    bdce:	f7ff bfcb 	b.w	bd68 <_fflush_r>
    bdd2:	bf00      	nop
    bdd4:	0000ddd0 	.word	0x0000ddd0
    bdd8:	0000bd69 	.word	0x0000bd69
    bddc:	100001d4 	.word	0x100001d4

0000bde0 <_cleanup_r>:
    bde0:	b5f8      	push	{r3, r4, r5, r6, r7, lr}
    bde2:	4607      	mov	r7, r0
    bde4:	f100 0448 	add.w	r4, r0, #72	; 0x48
    bde8:	b194      	cbz	r4, be10 <_cleanup_r+0x30>
    bdea:	68a5      	ldr	r5, [r4, #8]
    bdec:	6866      	ldr	r6, [r4, #4]
    bdee:	3e01      	subs	r6, #1
    bdf0:	d40c      	bmi.n	be0c <_cleanup_r+0x2c>
    bdf2:	89ab      	ldrh	r3, [r5, #12]
    bdf4:	2b01      	cmp	r3, #1
    bdf6:	d907      	bls.n	be08 <_cleanup_r+0x28>
    bdf8:	f9b5 300e 	ldrsh.w	r3, [r5, #14]
    bdfc:	3301      	adds	r3, #1
    bdfe:	d003      	beq.n	be08 <_cleanup_r+0x28>
    be00:	4638      	mov	r0, r7
    be02:	4629      	mov	r1, r5
    be04:	f7ff ffb0 	bl	bd68 <_fflush_r>
    be08:	3568      	adds	r5, #104	; 0x68
    be0a:	e7f0      	b.n	bdee <_cleanup_r+0xe>
    be0c:	6824      	ldr	r4, [r4, #0]
    be0e:	e7eb      	b.n	bde8 <_cleanup_r+0x8>
    be10:	bdf8      	pop	{r3, r4, r5, r6, r7, pc}
	...

0000be14 <std.isra.0>:
    be14:	2300      	movs	r3, #0
    be16:	b510      	push	{r4, lr}
    be18:	4604      	mov	r4, r0
    be1a:	6003      	str	r3, [r0, #0]
    be1c:	6043      	str	r3, [r0, #4]
    be1e:	6083      	str	r3, [r0, #8]
    be20:	8181      	strh	r1, [r0, #12]
    be22:	6643      	str	r3, [r0, #100]	; 0x64
    be24:	81c2      	strh	r2, [r0, #14]
    be26:	6103      	str	r3, [r0, #16]
    be28:	6143      	str	r3, [r0, #20]
    be2a:	6183      	str	r3, [r0, #24]
    be2c:	4619      	mov	r1, r3
    be2e:	305c      	adds	r0, #92	; 0x5c
    be30:	2208      	movs	r2, #8
    be32:	f000 f8f5 	bl	c020 <memset>
    be36:	4b05      	ldr	r3, [pc, #20]	; (be4c <std.isra.0+0x38>)
    be38:	6224      	str	r4, [r4, #32]
    be3a:	6263      	str	r3, [r4, #36]	; 0x24
    be3c:	4b04      	ldr	r3, [pc, #16]	; (be50 <std.isra.0+0x3c>)
    be3e:	62a3      	str	r3, [r4, #40]	; 0x28
    be40:	4b04      	ldr	r3, [pc, #16]	; (be54 <std.isra.0+0x40>)
    be42:	62e3      	str	r3, [r4, #44]	; 0x2c
    be44:	4b04      	ldr	r3, [pc, #16]	; (be58 <std.isra.0+0x44>)
    be46:	6323      	str	r3, [r4, #48]	; 0x30
    be48:	bd10      	pop	{r4, pc}
    be4a:	bf00      	nop
    be4c:	0000c2dd 	.word	0x0000c2dd
    be50:	0000c303 	.word	0x0000c303
    be54:	0000c33b 	.word	0x0000c33b
    be58:	0000c35f 	.word	0x0000c35f

0000be5c <__sfmoreglue>:
    be5c:	b570      	push	{r4, r5, r6, lr}
    be5e:	1e4b      	subs	r3, r1, #1
    be60:	2568      	movs	r5, #104	; 0x68
    be62:	435d      	muls	r5, r3
    be64:	460e      	mov	r6, r1
    be66:	f105 0174 	add.w	r1, r5, #116	; 0x74
    be6a:	f000 f925 	bl	c0b8 <_malloc_r>
    be6e:	4604      	mov	r4, r0
    be70:	b140      	cbz	r0, be84 <__sfmoreglue+0x28>
    be72:	2100      	movs	r1, #0
    be74:	e880 0042 	stmia.w	r0, {r1, r6}
    be78:	300c      	adds	r0, #12
    be7a:	60a0      	str	r0, [r4, #8]
    be7c:	f105 0268 	add.w	r2, r5, #104	; 0x68
    be80:	f000 f8ce 	bl	c020 <memset>
    be84:	4620      	mov	r0, r4
    be86:	bd70      	pop	{r4, r5, r6, pc}

0000be88 <__sinit>:
    be88:	6983      	ldr	r3, [r0, #24]
    be8a:	b510      	push	{r4, lr}
    be8c:	4604      	mov	r4, r0
    be8e:	bb33      	cbnz	r3, bede <__sinit+0x56>
    be90:	6483      	str	r3, [r0, #72]	; 0x48
    be92:	64c3      	str	r3, [r0, #76]	; 0x4c
    be94:	6503      	str	r3, [r0, #80]	; 0x50
    be96:	4b12      	ldr	r3, [pc, #72]	; (bee0 <__sinit+0x58>)
    be98:	4a12      	ldr	r2, [pc, #72]	; (bee4 <__sinit+0x5c>)
    be9a:	681b      	ldr	r3, [r3, #0]
    be9c:	6282      	str	r2, [r0, #40]	; 0x28
    be9e:	4298      	cmp	r0, r3
    bea0:	bf04      	itt	eq
    bea2:	2301      	moveq	r3, #1
    bea4:	6183      	streq	r3, [r0, #24]
    bea6:	f000 f81f 	bl	bee8 <__sfp>
    beaa:	6060      	str	r0, [r4, #4]
    beac:	4620      	mov	r0, r4
    beae:	f000 f81b 	bl	bee8 <__sfp>
    beb2:	60a0      	str	r0, [r4, #8]
    beb4:	4620      	mov	r0, r4
    beb6:	f000 f817 	bl	bee8 <__sfp>
    beba:	2104      	movs	r1, #4
    bebc:	60e0      	str	r0, [r4, #12]
    bebe:	2200      	movs	r2, #0
    bec0:	6860      	ldr	r0, [r4, #4]
    bec2:	f7ff ffa7 	bl	be14 <std.isra.0>
    bec6:	68a0      	ldr	r0, [r4, #8]
    bec8:	2109      	movs	r1, #9
    beca:	2201      	movs	r2, #1
    becc:	f7ff ffa2 	bl	be14 <std.isra.0>
    bed0:	68e0      	ldr	r0, [r4, #12]
    bed2:	2112      	movs	r1, #18
    bed4:	2202      	movs	r2, #2
    bed6:	f7ff ff9d 	bl	be14 <std.isra.0>
    beda:	2301      	movs	r3, #1
    bedc:	61a3      	str	r3, [r4, #24]
    bede:	bd10      	pop	{r4, pc}
    bee0:	0000ddd0 	.word	0x0000ddd0
    bee4:	0000bde1 	.word	0x0000bde1

0000bee8 <__sfp>:
    bee8:	b5f8      	push	{r3, r4, r5, r6, r7, lr}
    beea:	4b1b      	ldr	r3, [pc, #108]	; (bf58 <__sfp+0x70>)
    beec:	4607      	mov	r7, r0
    beee:	681e      	ldr	r6, [r3, #0]
    bef0:	69b3      	ldr	r3, [r6, #24]
    bef2:	b913      	cbnz	r3, befa <__sfp+0x12>
    bef4:	4630      	mov	r0, r6
    bef6:	f7ff ffc7 	bl	be88 <__sinit>
    befa:	3648      	adds	r6, #72	; 0x48
    befc:	68b4      	ldr	r4, [r6, #8]
    befe:	6873      	ldr	r3, [r6, #4]
    bf00:	3b01      	subs	r3, #1
    bf02:	d404      	bmi.n	bf0e <__sfp+0x26>
    bf04:	f9b4 500c 	ldrsh.w	r5, [r4, #12]
    bf08:	b175      	cbz	r5, bf28 <__sfp+0x40>
    bf0a:	3468      	adds	r4, #104	; 0x68
    bf0c:	e7f8      	b.n	bf00 <__sfp+0x18>
    bf0e:	6833      	ldr	r3, [r6, #0]
    bf10:	b92b      	cbnz	r3, bf1e <__sfp+0x36>
    bf12:	4638      	mov	r0, r7
    bf14:	2104      	movs	r1, #4
    bf16:	f7ff ffa1 	bl	be5c <__sfmoreglue>
    bf1a:	6030      	str	r0, [r6, #0]
    bf1c:	b108      	cbz	r0, bf22 <__sfp+0x3a>
    bf1e:	6836      	ldr	r6, [r6, #0]
    bf20:	e7ec      	b.n	befc <__sfp+0x14>
    bf22:	230c      	movs	r3, #12
    bf24:	603b      	str	r3, [r7, #0]
    bf26:	bdf8      	pop	{r3, r4, r5, r6, r7, pc}
    bf28:	f64f 73ff 	movw	r3, #65535	; 0xffff
    bf2c:	81e3      	strh	r3, [r4, #14]
    bf2e:	2301      	movs	r3, #1
    bf30:	81a3      	strh	r3, [r4, #12]
    bf32:	6665      	str	r5, [r4, #100]	; 0x64
    bf34:	6025      	str	r5, [r4, #0]
    bf36:	60a5      	str	r5, [r4, #8]
    bf38:	6065      	str	r5, [r4, #4]
    bf3a:	6125      	str	r5, [r4, #16]
    bf3c:	6165      	str	r5, [r4, #20]
    bf3e:	61a5      	str	r5, [r4, #24]
    bf40:	f104 005c 	add.w	r0, r4, #92	; 0x5c
    bf44:	4629      	mov	r1, r5
    bf46:	2208      	movs	r2, #8
    bf48:	f000 f86a 	bl	c020 <memset>
    bf4c:	6365      	str	r5, [r4, #52]	; 0x34
    bf4e:	63a5      	str	r5, [r4, #56]	; 0x38
    bf50:	64a5      	str	r5, [r4, #72]	; 0x48
    bf52:	64e5      	str	r5, [r4, #76]	; 0x4c
    bf54:	4620      	mov	r0, r4
    bf56:	bdf8      	pop	{r3, r4, r5, r6, r7, pc}
    bf58:	0000ddd0 	.word	0x0000ddd0

0000bf5c <__libc_fini_array>:
    bf5c:	b538      	push	{r3, r4, r5, lr}
    bf5e:	4d08      	ldr	r5, [pc, #32]	; (bf80 <__libc_fini_array+0x24>)
    bf60:	4c08      	ldr	r4, [pc, #32]	; (bf84 <__libc_fini_array+0x28>)
    bf62:	1b64      	subs	r4, r4, r5
    bf64:	10a4      	asrs	r4, r4, #2
    bf66:	eb05 0584 	add.w	r5, r5, r4, lsl #2
    bf6a:	b124      	cbz	r4, bf76 <__libc_fini_array+0x1a>
    bf6c:	f855 3d04 	ldr.w	r3, [r5, #-4]!
    bf70:	3c01      	subs	r4, #1
    bf72:	4798      	blx	r3
    bf74:	e7f9      	b.n	bf6a <__libc_fini_array+0xe>
    bf76:	e8bd 4038 	ldmia.w	sp!, {r3, r4, r5, lr}
    bf7a:	f001 bcb5 	b.w	d8e8 <_fini>
    bf7e:	bf00      	nop
    bf80:	100001e4 	.word	0x100001e4
    bf84:	100001e8 	.word	0x100001e8

0000bf88 <_fwalk_reent>:
    bf88:	e92d 43f8 	stmdb	sp!, {r3, r4, r5, r6, r7, r8, r9, lr}
    bf8c:	4680      	mov	r8, r0
    bf8e:	4689      	mov	r9, r1
    bf90:	f100 0448 	add.w	r4, r0, #72	; 0x48
    bf94:	2600      	movs	r6, #0
    bf96:	b194      	cbz	r4, bfbe <_fwalk_reent+0x36>
    bf98:	68a5      	ldr	r5, [r4, #8]
    bf9a:	6867      	ldr	r7, [r4, #4]
    bf9c:	3f01      	subs	r7, #1
    bf9e:	d40c      	bmi.n	bfba <_fwalk_reent+0x32>
    bfa0:	89ab      	ldrh	r3, [r5, #12]
    bfa2:	2b01      	cmp	r3, #1
    bfa4:	d907      	bls.n	bfb6 <_fwalk_reent+0x2e>
    bfa6:	f9b5 300e 	ldrsh.w	r3, [r5, #14]
    bfaa:	3301      	adds	r3, #1
    bfac:	d003      	beq.n	bfb6 <_fwalk_reent+0x2e>
    bfae:	4640      	mov	r0, r8
    bfb0:	4629      	mov	r1, r5
    bfb2:	47c8      	blx	r9
    bfb4:	4306      	orrs	r6, r0
    bfb6:	3568      	adds	r5, #104	; 0x68
    bfb8:	e7f0      	b.n	bf9c <_fwalk_reent+0x14>
    bfba:	6824      	ldr	r4, [r4, #0]
    bfbc:	e7eb      	b.n	bf96 <_fwalk_reent+0xe>
    bfbe:	4630      	mov	r0, r6
    bfc0:	e8bd 83f8 	ldmia.w	sp!, {r3, r4, r5, r6, r7, r8, r9, pc}

0000bfc4 <__libc_init_array>:
    bfc4:	b570      	push	{r4, r5, r6, lr}
    bfc6:	4b0e      	ldr	r3, [pc, #56]	; (c000 <__libc_init_array+0x3c>)
    bfc8:	4d0e      	ldr	r5, [pc, #56]	; (c004 <__libc_init_array+0x40>)
    bfca:	2400      	movs	r4, #0
    bfcc:	1aed      	subs	r5, r5, r3
    bfce:	10ad      	asrs	r5, r5, #2
    bfd0:	461e      	mov	r6, r3
    bfd2:	42ac      	cmp	r4, r5
    bfd4:	d004      	beq.n	bfe0 <__libc_init_array+0x1c>
    bfd6:	f856 2024 	ldr.w	r2, [r6, r4, lsl #2]
    bfda:	4790      	blx	r2
    bfdc:	3401      	adds	r4, #1
    bfde:	e7f8      	b.n	bfd2 <__libc_init_array+0xe>
    bfe0:	f001 fc7c 	bl	d8dc <_init>
    bfe4:	4d08      	ldr	r5, [pc, #32]	; (c008 <__libc_init_array+0x44>)
    bfe6:	4b09      	ldr	r3, [pc, #36]	; (c00c <__libc_init_array+0x48>)
    bfe8:	2400      	movs	r4, #0
    bfea:	1aed      	subs	r5, r5, r3
    bfec:	10ad      	asrs	r5, r5, #2
    bfee:	461e      	mov	r6, r3
    bff0:	42ac      	cmp	r4, r5
    bff2:	d004      	beq.n	bffe <__libc_init_array+0x3a>
    bff4:	f856 2024 	ldr.w	r2, [r6, r4, lsl #2]
    bff8:	4790      	blx	r2
    bffa:	3401      	adds	r4, #1
    bffc:	e7f8      	b.n	bff0 <__libc_init_array+0x2c>
    bffe:	bd70      	pop	{r4, r5, r6, pc}
    c000:	100001dc 	.word	0x100001dc
    c004:	100001dc 	.word	0x100001dc
    c008:	100001e4 	.word	0x100001e4
    c00c:	100001dc 	.word	0x100001dc

0000c010 <malloc>:
    c010:	4b02      	ldr	r3, [pc, #8]	; (c01c <malloc+0xc>)
    c012:	4601      	mov	r1, r0
    c014:	6818      	ldr	r0, [r3, #0]
    c016:	f000 b84f 	b.w	c0b8 <_malloc_r>
    c01a:	bf00      	nop
    c01c:	100001d4 	.word	0x100001d4

0000c020 <memset>:
    c020:	4402      	add	r2, r0
    c022:	4603      	mov	r3, r0
    c024:	4293      	cmp	r3, r2
    c026:	d002      	beq.n	c02e <memset+0xe>
    c028:	f803 1b01 	strb.w	r1, [r3], #1
    c02c:	e7fa      	b.n	c024 <memset+0x4>
    c02e:	4770      	bx	lr

0000c030 <_free_r>:
    c030:	b530      	push	{r4, r5, lr}
    c032:	2900      	cmp	r1, #0
    c034:	d03c      	beq.n	c0b0 <_free_r+0x80>
    c036:	f851 2c04 	ldr.w	r2, [r1, #-4]
    c03a:	1f0b      	subs	r3, r1, #4
    c03c:	491d      	ldr	r1, [pc, #116]	; (c0b4 <_free_r+0x84>)
    c03e:	2a00      	cmp	r2, #0
    c040:	bfb8      	it	lt
    c042:	189b      	addlt	r3, r3, r2
    c044:	680a      	ldr	r2, [r1, #0]
    c046:	460c      	mov	r4, r1
    c048:	b912      	cbnz	r2, c050 <_free_r+0x20>
    c04a:	605a      	str	r2, [r3, #4]
    c04c:	600b      	str	r3, [r1, #0]
    c04e:	bd30      	pop	{r4, r5, pc}
    c050:	4293      	cmp	r3, r2
    c052:	d20d      	bcs.n	c070 <_free_r+0x40>
    c054:	6819      	ldr	r1, [r3, #0]
    c056:	1858      	adds	r0, r3, r1
    c058:	4290      	cmp	r0, r2
    c05a:	d103      	bne.n	c064 <_free_r+0x34>
    c05c:	585a      	ldr	r2, [r3, r1]
    c05e:	4411      	add	r1, r2
    c060:	6842      	ldr	r2, [r0, #4]
    c062:	6019      	str	r1, [r3, #0]
    c064:	605a      	str	r2, [r3, #4]
    c066:	6023      	str	r3, [r4, #0]
    c068:	bd30      	pop	{r4, r5, pc}
    c06a:	4299      	cmp	r1, r3
    c06c:	d803      	bhi.n	c076 <_free_r+0x46>
    c06e:	460a      	mov	r2, r1
    c070:	6851      	ldr	r1, [r2, #4]
    c072:	2900      	cmp	r1, #0
    c074:	d1f9      	bne.n	c06a <_free_r+0x3a>
    c076:	6814      	ldr	r4, [r2, #0]
    c078:	1915      	adds	r5, r2, r4
    c07a:	429d      	cmp	r5, r3
    c07c:	d10a      	bne.n	c094 <_free_r+0x64>
    c07e:	681b      	ldr	r3, [r3, #0]
    c080:	4423      	add	r3, r4
    c082:	18d0      	adds	r0, r2, r3
    c084:	4288      	cmp	r0, r1
    c086:	6013      	str	r3, [r2, #0]
    c088:	d112      	bne.n	c0b0 <_free_r+0x80>
    c08a:	6808      	ldr	r0, [r1, #0]
    c08c:	4403      	add	r3, r0
    c08e:	6013      	str	r3, [r2, #0]
    c090:	684b      	ldr	r3, [r1, #4]
    c092:	e00c      	b.n	c0ae <_free_r+0x7e>
    c094:	d902      	bls.n	c09c <_free_r+0x6c>
    c096:	230c      	movs	r3, #12
    c098:	6003      	str	r3, [r0, #0]
    c09a:	bd30      	pop	{r4, r5, pc}
    c09c:	6818      	ldr	r0, [r3, #0]
    c09e:	181c      	adds	r4, r3, r0
    c0a0:	428c      	cmp	r4, r1
    c0a2:	d103      	bne.n	c0ac <_free_r+0x7c>
    c0a4:	680c      	ldr	r4, [r1, #0]
    c0a6:	6849      	ldr	r1, [r1, #4]
    c0a8:	4420      	add	r0, r4
    c0aa:	6018      	str	r0, [r3, #0]
    c0ac:	6059      	str	r1, [r3, #4]
    c0ae:	6053      	str	r3, [r2, #4]
    c0b0:	bd30      	pop	{r4, r5, pc}
    c0b2:	bf00      	nop
    c0b4:	10000f20 	.word	0x10000f20

0000c0b8 <_malloc_r>:
    c0b8:	b570      	push	{r4, r5, r6, lr}
    c0ba:	1ccd      	adds	r5, r1, #3
    c0bc:	f025 0503 	bic.w	r5, r5, #3
    c0c0:	3508      	adds	r5, #8
    c0c2:	2d0c      	cmp	r5, #12
    c0c4:	bf38      	it	cc
    c0c6:	250c      	movcc	r5, #12
    c0c8:	2d00      	cmp	r5, #0
    c0ca:	4606      	mov	r6, r0
    c0cc:	db3f      	blt.n	c14e <_malloc_r+0x96>
    c0ce:	428d      	cmp	r5, r1
    c0d0:	d33d      	bcc.n	c14e <_malloc_r+0x96>
    c0d2:	4b21      	ldr	r3, [pc, #132]	; (c158 <_malloc_r+0xa0>)
    c0d4:	681c      	ldr	r4, [r3, #0]
    c0d6:	4618      	mov	r0, r3
    c0d8:	4621      	mov	r1, r4
    c0da:	b1a1      	cbz	r1, c106 <_malloc_r+0x4e>
    c0dc:	680b      	ldr	r3, [r1, #0]
    c0de:	1b5b      	subs	r3, r3, r5
    c0e0:	d40e      	bmi.n	c100 <_malloc_r+0x48>
    c0e2:	2b0b      	cmp	r3, #11
    c0e4:	d903      	bls.n	c0ee <_malloc_r+0x36>
    c0e6:	600b      	str	r3, [r1, #0]
    c0e8:	18cc      	adds	r4, r1, r3
    c0ea:	50cd      	str	r5, [r1, r3]
    c0ec:	e01f      	b.n	c12e <_malloc_r+0x76>
    c0ee:	428c      	cmp	r4, r1
    c0f0:	d102      	bne.n	c0f8 <_malloc_r+0x40>
    c0f2:	6862      	ldr	r2, [r4, #4]
    c0f4:	6002      	str	r2, [r0, #0]
    c0f6:	e01a      	b.n	c12e <_malloc_r+0x76>
    c0f8:	684b      	ldr	r3, [r1, #4]
    c0fa:	6063      	str	r3, [r4, #4]
    c0fc:	460c      	mov	r4, r1
    c0fe:	e016      	b.n	c12e <_malloc_r+0x76>
    c100:	460c      	mov	r4, r1
    c102:	6849      	ldr	r1, [r1, #4]
    c104:	e7e9      	b.n	c0da <_malloc_r+0x22>
    c106:	4c15      	ldr	r4, [pc, #84]	; (c15c <_malloc_r+0xa4>)
    c108:	6823      	ldr	r3, [r4, #0]
    c10a:	b91b      	cbnz	r3, c114 <_malloc_r+0x5c>
    c10c:	4630      	mov	r0, r6
    c10e:	f000 f879 	bl	c204 <_sbrk_r>
    c112:	6020      	str	r0, [r4, #0]
    c114:	4629      	mov	r1, r5
    c116:	4630      	mov	r0, r6
    c118:	f000 f874 	bl	c204 <_sbrk_r>
    c11c:	1c43      	adds	r3, r0, #1
    c11e:	4601      	mov	r1, r0
    c120:	d015      	beq.n	c14e <_malloc_r+0x96>
    c122:	1cc4      	adds	r4, r0, #3
    c124:	f024 0403 	bic.w	r4, r4, #3
    c128:	4284      	cmp	r4, r0
    c12a:	d10a      	bne.n	c142 <_malloc_r+0x8a>
    c12c:	6025      	str	r5, [r4, #0]
    c12e:	f104 000b 	add.w	r0, r4, #11
    c132:	1d23      	adds	r3, r4, #4
    c134:	f020 0007 	bic.w	r0, r0, #7
    c138:	1ac3      	subs	r3, r0, r3
    c13a:	d00b      	beq.n	c154 <_malloc_r+0x9c>
    c13c:	425a      	negs	r2, r3
    c13e:	50e2      	str	r2, [r4, r3]
    c140:	bd70      	pop	{r4, r5, r6, pc}
    c142:	4630      	mov	r0, r6
    c144:	1a61      	subs	r1, r4, r1
    c146:	f000 f85d 	bl	c204 <_sbrk_r>
    c14a:	3001      	adds	r0, #1
    c14c:	d1ee      	bne.n	c12c <_malloc_r+0x74>
    c14e:	230c      	movs	r3, #12
    c150:	6033      	str	r3, [r6, #0]
    c152:	2000      	movs	r0, #0
    c154:	bd70      	pop	{r4, r5, r6, pc}
    c156:	bf00      	nop
    c158:	10000f20 	.word	0x10000f20
    c15c:	10000f1c 	.word	0x10000f1c

0000c160 <iprintf>:
    c160:	b40f      	push	{r0, r1, r2, r3}
    c162:	4b0a      	ldr	r3, [pc, #40]	; (c18c <iprintf+0x2c>)
    c164:	b513      	push	{r0, r1, r4, lr}
    c166:	681c      	ldr	r4, [r3, #0]
    c168:	b124      	cbz	r4, c174 <iprintf+0x14>
    c16a:	69a3      	ldr	r3, [r4, #24]
    c16c:	b913      	cbnz	r3, c174 <iprintf+0x14>
    c16e:	4620      	mov	r0, r4
    c170:	f7ff fe8a 	bl	be88 <__sinit>
    c174:	ab05      	add	r3, sp, #20
    c176:	4620      	mov	r0, r4
    c178:	68a1      	ldr	r1, [r4, #8]
    c17a:	9a04      	ldr	r2, [sp, #16]
    c17c:	9301      	str	r3, [sp, #4]
    c17e:	f000 fce1 	bl	cb44 <_vfiprintf_r>
    c182:	b002      	add	sp, #8
    c184:	e8bd 4010 	ldmia.w	sp!, {r4, lr}
    c188:	b004      	add	sp, #16
    c18a:	4770      	bx	lr
    c18c:	100001d4 	.word	0x100001d4

0000c190 <rand>:
    c190:	4b19      	ldr	r3, [pc, #100]	; (c1f8 <rand+0x68>)
    c192:	b510      	push	{r4, lr}
    c194:	681c      	ldr	r4, [r3, #0]
    c196:	6ba3      	ldr	r3, [r4, #56]	; 0x38
    c198:	b9d3      	cbnz	r3, c1d0 <rand+0x40>
    c19a:	2018      	movs	r0, #24
    c19c:	f7f4 f822 	bl	1e4 <__wrap_malloc>
    c1a0:	f243 330e 	movw	r3, #13070	; 0x330e
    c1a4:	63a0      	str	r0, [r4, #56]	; 0x38
    c1a6:	8003      	strh	r3, [r0, #0]
    c1a8:	f64a 33cd 	movw	r3, #43981	; 0xabcd
    c1ac:	8043      	strh	r3, [r0, #2]
    c1ae:	f241 2334 	movw	r3, #4660	; 0x1234
    c1b2:	8083      	strh	r3, [r0, #4]
    c1b4:	f24e 636d 	movw	r3, #58989	; 0xe66d
    c1b8:	80c3      	strh	r3, [r0, #6]
    c1ba:	f64d 63ec 	movw	r3, #57068	; 0xdeec
    c1be:	8103      	strh	r3, [r0, #8]
    c1c0:	2305      	movs	r3, #5
    c1c2:	8143      	strh	r3, [r0, #10]
    c1c4:	230b      	movs	r3, #11
    c1c6:	8183      	strh	r3, [r0, #12]
    c1c8:	2201      	movs	r2, #1
    c1ca:	2300      	movs	r3, #0
    c1cc:	e9c0 2304 	strd	r2, r3, [r0, #16]
    c1d0:	6ba1      	ldr	r1, [r4, #56]	; 0x38
    c1d2:	4c0a      	ldr	r4, [pc, #40]	; (c1fc <rand+0x6c>)
    c1d4:	690a      	ldr	r2, [r1, #16]
    c1d6:	6948      	ldr	r0, [r1, #20]
    c1d8:	4354      	muls	r4, r2
    c1da:	4b09      	ldr	r3, [pc, #36]	; (c200 <rand+0x70>)
    c1dc:	fb03 4000 	mla	r0, r3, r0, r4
    c1e0:	fba2 2303 	umull	r2, r3, r2, r3
    c1e4:	3201      	adds	r2, #1
    c1e6:	4403      	add	r3, r0
    c1e8:	f143 0300 	adc.w	r3, r3, #0
    c1ec:	e9c1 2304 	strd	r2, r3, [r1, #16]
    c1f0:	f023 4000 	bic.w	r0, r3, #2147483648	; 0x80000000
    c1f4:	bd10      	pop	{r4, pc}
    c1f6:	bf00      	nop
    c1f8:	100001d4 	.word	0x100001d4
    c1fc:	5851f42d 	.word	0x5851f42d
    c200:	4c957f2d 	.word	0x4c957f2d

0000c204 <_sbrk_r>:
    c204:	b538      	push	{r3, r4, r5, lr}
    c206:	4c06      	ldr	r4, [pc, #24]	; (c220 <_sbrk_r+0x1c>)
    c208:	2300      	movs	r3, #0
    c20a:	4605      	mov	r5, r0
    c20c:	4608      	mov	r0, r1
    c20e:	6023      	str	r3, [r4, #0]
    c210:	f7ff f812 	bl	b238 <_sbrk>
    c214:	1c43      	adds	r3, r0, #1
    c216:	d102      	bne.n	c21e <_sbrk_r+0x1a>
    c218:	6823      	ldr	r3, [r4, #0]
    c21a:	b103      	cbz	r3, c21e <_sbrk_r+0x1a>
    c21c:	602b      	str	r3, [r5, #0]
    c21e:	bd38      	pop	{r3, r4, r5, pc}
    c220:	10001bb8 	.word	0x10001bb8

0000c224 <sniprintf>:
    c224:	b40c      	push	{r2, r3}
    c226:	b530      	push	{r4, r5, lr}
    c228:	4b16      	ldr	r3, [pc, #88]	; (c284 <sniprintf+0x60>)
    c22a:	1e0c      	subs	r4, r1, #0
    c22c:	b09d      	sub	sp, #116	; 0x74
    c22e:	681d      	ldr	r5, [r3, #0]
    c230:	da04      	bge.n	c23c <sniprintf+0x18>
    c232:	238b      	movs	r3, #139	; 0x8b
    c234:	602b      	str	r3, [r5, #0]
    c236:	f04f 30ff 	mov.w	r0, #4294967295	; 0xffffffff
    c23a:	e01e      	b.n	c27a <sniprintf+0x56>
    c23c:	f44f 7302 	mov.w	r3, #520	; 0x208
    c240:	f8ad 3014 	strh.w	r3, [sp, #20]
    c244:	bf14      	ite	ne
    c246:	f104 33ff 	addne.w	r3, r4, #4294967295	; 0xffffffff
    c24a:	4623      	moveq	r3, r4
    c24c:	9304      	str	r3, [sp, #16]
    c24e:	9307      	str	r3, [sp, #28]
    c250:	f64f 73ff 	movw	r3, #65535	; 0xffff
    c254:	9002      	str	r0, [sp, #8]
    c256:	9006      	str	r0, [sp, #24]
    c258:	f8ad 3016 	strh.w	r3, [sp, #22]
    c25c:	4628      	mov	r0, r5
    c25e:	ab21      	add	r3, sp, #132	; 0x84
    c260:	a902      	add	r1, sp, #8
    c262:	9a20      	ldr	r2, [sp, #128]	; 0x80
    c264:	9301      	str	r3, [sp, #4]
    c266:	f000 f977 	bl	c558 <_svfiprintf_r>
    c26a:	1c43      	adds	r3, r0, #1
    c26c:	bfbc      	itt	lt
    c26e:	238b      	movlt	r3, #139	; 0x8b
    c270:	602b      	strlt	r3, [r5, #0]
    c272:	b114      	cbz	r4, c27a <sniprintf+0x56>
    c274:	9b02      	ldr	r3, [sp, #8]
    c276:	2200      	movs	r2, #0
    c278:	701a      	strb	r2, [r3, #0]
    c27a:	b01d      	add	sp, #116	; 0x74
    c27c:	e8bd 4030 	ldmia.w	sp!, {r4, r5, lr}
    c280:	b002      	add	sp, #8
    c282:	4770      	bx	lr
    c284:	100001d4 	.word	0x100001d4

0000c288 <siscanf>:
    c288:	b40e      	push	{r1, r2, r3}
    c28a:	b530      	push	{r4, r5, lr}
    c28c:	b09c      	sub	sp, #112	; 0x70
    c28e:	ac1f      	add	r4, sp, #124	; 0x7c
    c290:	f44f 7201 	mov.w	r2, #516	; 0x204
    c294:	f854 5b04 	ldr.w	r5, [r4], #4
    c298:	f8ad 2014 	strh.w	r2, [sp, #20]
    c29c:	9002      	str	r0, [sp, #8]
    c29e:	9006      	str	r0, [sp, #24]
    c2a0:	f000 f873 	bl	c38a <strlen>
    c2a4:	4b0b      	ldr	r3, [pc, #44]	; (c2d4 <siscanf+0x4c>)
    c2a6:	9003      	str	r0, [sp, #12]
    c2a8:	930b      	str	r3, [sp, #44]	; 0x2c
    c2aa:	2300      	movs	r3, #0
    c2ac:	930f      	str	r3, [sp, #60]	; 0x3c
    c2ae:	9314      	str	r3, [sp, #80]	; 0x50
    c2b0:	f64f 73ff 	movw	r3, #65535	; 0xffff
    c2b4:	f8ad 3016 	strh.w	r3, [sp, #22]
    c2b8:	4b07      	ldr	r3, [pc, #28]	; (c2d8 <siscanf+0x50>)
    c2ba:	9007      	str	r0, [sp, #28]
    c2bc:	a902      	add	r1, sp, #8
    c2be:	6818      	ldr	r0, [r3, #0]
    c2c0:	462a      	mov	r2, r5
    c2c2:	4623      	mov	r3, r4
    c2c4:	9401      	str	r4, [sp, #4]
    c2c6:	f000 fa8d 	bl	c7e4 <__ssvfiscanf_r>
    c2ca:	b01c      	add	sp, #112	; 0x70
    c2cc:	e8bd 4030 	ldmia.w	sp!, {r4, r5, lr}
    c2d0:	b003      	add	sp, #12
    c2d2:	4770      	bx	lr
    c2d4:	0000c2ff 	.word	0x0000c2ff
    c2d8:	100001d4 	.word	0x100001d4

0000c2dc <__sread>:
    c2dc:	b510      	push	{r4, lr}
    c2de:	460c      	mov	r4, r1
    c2e0:	f9b1 100e 	ldrsh.w	r1, [r1, #14]
    c2e4:	f001 fa12 	bl	d70c <_read_r>
    c2e8:	2800      	cmp	r0, #0
    c2ea:	db03      	blt.n	c2f4 <__sread+0x18>
    c2ec:	6d63      	ldr	r3, [r4, #84]	; 0x54
    c2ee:	4403      	add	r3, r0
    c2f0:	6563      	str	r3, [r4, #84]	; 0x54
    c2f2:	bd10      	pop	{r4, pc}
    c2f4:	89a3      	ldrh	r3, [r4, #12]
    c2f6:	f423 5380 	bic.w	r3, r3, #4096	; 0x1000
    c2fa:	81a3      	strh	r3, [r4, #12]
    c2fc:	bd10      	pop	{r4, pc}

0000c2fe <__seofread>:
    c2fe:	2000      	movs	r0, #0
    c300:	4770      	bx	lr

0000c302 <__swrite>:
    c302:	e92d 41f0 	stmdb	sp!, {r4, r5, r6, r7, r8, lr}
    c306:	461d      	mov	r5, r3
    c308:	898b      	ldrh	r3, [r1, #12]
    c30a:	4607      	mov	r7, r0
    c30c:	05db      	lsls	r3, r3, #23
    c30e:	460c      	mov	r4, r1
    c310:	4616      	mov	r6, r2
    c312:	d505      	bpl.n	c320 <__swrite+0x1e>
    c314:	f9b1 100e 	ldrsh.w	r1, [r1, #14]
    c318:	2200      	movs	r2, #0
    c31a:	2302      	movs	r3, #2
    c31c:	f001 f940 	bl	d5a0 <_lseek_r>
    c320:	89a3      	ldrh	r3, [r4, #12]
    c322:	4638      	mov	r0, r7
    c324:	f423 5380 	bic.w	r3, r3, #4096	; 0x1000
    c328:	81a3      	strh	r3, [r4, #12]
    c32a:	f9b4 100e 	ldrsh.w	r1, [r4, #14]
    c32e:	4632      	mov	r2, r6
    c330:	462b      	mov	r3, r5
    c332:	e8bd 41f0 	ldmia.w	sp!, {r4, r5, r6, r7, r8, lr}
    c336:	f001 b847 	b.w	d3c8 <_write_r>

0000c33a <__sseek>:
    c33a:	b510      	push	{r4, lr}
    c33c:	460c      	mov	r4, r1
    c33e:	f9b1 100e 	ldrsh.w	r1, [r1, #14]
    c342:	f001 f92d 	bl	d5a0 <_lseek_r>
    c346:	1c43      	adds	r3, r0, #1
    c348:	89a3      	ldrh	r3, [r4, #12]
    c34a:	d103      	bne.n	c354 <__sseek+0x1a>
    c34c:	f423 5380 	bic.w	r3, r3, #4096	; 0x1000
    c350:	81a3      	strh	r3, [r4, #12]
    c352:	bd10      	pop	{r4, pc}
    c354:	f443 5380 	orr.w	r3, r3, #4096	; 0x1000
    c358:	81a3      	strh	r3, [r4, #12]
    c35a:	6560      	str	r0, [r4, #84]	; 0x54
    c35c:	bd10      	pop	{r4, pc}

0000c35e <__sclose>:
    c35e:	f9b1 100e 	ldrsh.w	r1, [r1, #14]
    c362:	f001 b90d 	b.w	d580 <_close_r>

0000c366 <strcmp>:
    c366:	f810 2b01 	ldrb.w	r2, [r0], #1
    c36a:	f811 3b01 	ldrb.w	r3, [r1], #1
    c36e:	2a01      	cmp	r2, #1
    c370:	bf28      	it	cs
    c372:	429a      	cmpcs	r2, r3
    c374:	d0f7      	beq.n	c366 <strcmp>
    c376:	1ad0      	subs	r0, r2, r3
    c378:	4770      	bx	lr

0000c37a <strcpy>:
    c37a:	4603      	mov	r3, r0
    c37c:	f811 2b01 	ldrb.w	r2, [r1], #1
    c380:	f803 2b01 	strb.w	r2, [r3], #1
    c384:	2a00      	cmp	r2, #0
    c386:	d1f9      	bne.n	c37c <strcpy+0x2>
    c388:	4770      	bx	lr

0000c38a <strlen>:
    c38a:	4603      	mov	r3, r0
    c38c:	f813 2b01 	ldrb.w	r2, [r3], #1
    c390:	2a00      	cmp	r2, #0
    c392:	d1fb      	bne.n	c38c <strlen+0x2>
    c394:	1a18      	subs	r0, r3, r0
    c396:	3801      	subs	r0, #1
    c398:	4770      	bx	lr
	...

0000c39c <_strtol_r>:
    c39c:	4684      	mov	r12, r0
    c39e:	483f      	ldr	r0, [pc, #252]	; (c49c <_strtol_r+0x100>)
    c3a0:	e92d 4ff0 	stmdb	sp!, {r4, r5, r6, r7, r8, r9, r10, r11, lr}
    c3a4:	f8d0 8000 	ldr.w	r8, [r0]
    c3a8:	460e      	mov	r6, r1
    c3aa:	4634      	mov	r4, r6
    c3ac:	f814 5b01 	ldrb.w	r5, [r4], #1
    c3b0:	eb08 0005 	add.w	r0, r8, r5
    c3b4:	7840      	ldrb	r0, [r0, #1]
    c3b6:	f000 0008 	and.w	r0, r0, #8
    c3ba:	f000 07ff 	and.w	r7, r0, #255	; 0xff
    c3be:	b108      	cbz	r0, c3c4 <_strtol_r+0x28>
    c3c0:	4626      	mov	r6, r4
    c3c2:	e7f2      	b.n	c3aa <_strtol_r+0xe>
    c3c4:	2d2d      	cmp	r5, #45	; 0x2d
    c3c6:	d103      	bne.n	c3d0 <_strtol_r+0x34>
    c3c8:	1cb4      	adds	r4, r6, #2
    c3ca:	7875      	ldrb	r5, [r6, #1]
    c3cc:	2701      	movs	r7, #1
    c3ce:	e003      	b.n	c3d8 <_strtol_r+0x3c>
    c3d0:	2d2b      	cmp	r5, #43	; 0x2b
    c3d2:	bf04      	itt	eq
    c3d4:	7875      	ldrbeq	r5, [r6, #1]
    c3d6:	1cb4      	addeq	r4, r6, #2
    c3d8:	f033 0010 	bics.w	r0, r3, #16
    c3dc:	d10d      	bne.n	c3fa <_strtol_r+0x5e>
    c3de:	2d30      	cmp	r5, #48	; 0x30
    c3e0:	d108      	bne.n	c3f4 <_strtol_r+0x58>
    c3e2:	7820      	ldrb	r0, [r4, #0]
    c3e4:	f000 00df 	and.w	r0, r0, #223	; 0xdf
    c3e8:	2858      	cmp	r0, #88	; 0x58
    c3ea:	d151      	bne.n	c490 <_strtol_r+0xf4>
    c3ec:	7865      	ldrb	r5, [r4, #1]
    c3ee:	2310      	movs	r3, #16
    c3f0:	3402      	adds	r4, #2
    c3f2:	e002      	b.n	c3fa <_strtol_r+0x5e>
    c3f4:	2b00      	cmp	r3, #0
    c3f6:	bf08      	it	eq
    c3f8:	230a      	moveq	r3, #10
    c3fa:	2f00      	cmp	r7, #0
    c3fc:	bf0c      	ite	eq
    c3fe:	f06f 4a00 	mvneq.w	r10, #2147483648	; 0x80000000
    c402:	f04f 4a00 	movne.w	r10, #2147483648	; 0x80000000
    c406:	fbba f9f3 	udiv	r9, r10, r3
    c40a:	fb03 aa19 	mls	r10, r3, r9, r10
    c40e:	2600      	movs	r6, #0
    c410:	4630      	mov	r0, r6
    c412:	eb08 0b05 	add.w	r11, r8, r5
    c416:	f89b b001 	ldrb.w	r11, [r11, #1]
    c41a:	f01b 0f04 	tst.w	r11, #4
    c41e:	d001      	beq.n	c424 <_strtol_r+0x88>
    c420:	3d30      	subs	r5, #48	; 0x30
    c422:	e00b      	b.n	c43c <_strtol_r+0xa0>
    c424:	f01b 0b03 	ands.w	r11, r11, #3
    c428:	d01b      	beq.n	c462 <_strtol_r+0xc6>
    c42a:	f1bb 0f01 	cmp.w	r11, #1
    c42e:	bf14      	ite	ne
    c430:	f04f 0b57 	movne.w	r11, #87	; 0x57
    c434:	f04f 0b37 	moveq.w	r11, #55	; 0x37
    c438:	ebcb 0505 	rsb	r5, r11, r5
    c43c:	429d      	cmp	r5, r3
    c43e:	da10      	bge.n	c462 <_strtol_r+0xc6>
    c440:	f1b6 3fff 	cmp.w	r6, #4294967295	; 0xffffffff
    c444:	d00a      	beq.n	c45c <_strtol_r+0xc0>
    c446:	4548      	cmp	r0, r9
    c448:	d806      	bhi.n	c458 <_strtol_r+0xbc>
    c44a:	d101      	bne.n	c450 <_strtol_r+0xb4>
    c44c:	4555      	cmp	r5, r10
    c44e:	dc03      	bgt.n	c458 <_strtol_r+0xbc>
    c450:	fb03 5000 	mla	r0, r3, r0, r5
    c454:	2601      	movs	r6, #1
    c456:	e001      	b.n	c45c <_strtol_r+0xc0>
    c458:	f04f 36ff 	mov.w	r6, #4294967295	; 0xffffffff
    c45c:	f814 5b01 	ldrb.w	r5, [r4], #1
    c460:	e7d7      	b.n	c412 <_strtol_r+0x76>
    c462:	1c73      	adds	r3, r6, #1
    c464:	d10c      	bne.n	c480 <_strtol_r+0xe4>
    c466:	2f00      	cmp	r7, #0
    c468:	f04f 0322 	mov.w	r3, #34	; 0x22
    c46c:	bf0c      	ite	eq
    c46e:	f06f 4000 	mvneq.w	r0, #2147483648	; 0x80000000
    c472:	f04f 4000 	movne.w	r0, #2147483648	; 0x80000000
    c476:	f8cc 3000 	str.w	r3, [r12]
    c47a:	b92a      	cbnz	r2, c488 <_strtol_r+0xec>
    c47c:	e8bd 8ff0 	ldmia.w	sp!, {r4, r5, r6, r7, r8, r9, r10, r11, pc}
    c480:	b107      	cbz	r7, c484 <_strtol_r+0xe8>
    c482:	4240      	negs	r0, r0
    c484:	b142      	cbz	r2, c498 <_strtol_r+0xfc>
    c486:	b106      	cbz	r6, c48a <_strtol_r+0xee>
    c488:	1e61      	subs	r1, r4, #1
    c48a:	6011      	str	r1, [r2, #0]
    c48c:	e8bd 8ff0 	ldmia.w	sp!, {r4, r5, r6, r7, r8, r9, r10, r11, pc}
    c490:	2b00      	cmp	r3, #0
    c492:	bf08      	it	eq
    c494:	2308      	moveq	r3, #8
    c496:	e7b0      	b.n	c3fa <_strtol_r+0x5e>
    c498:	e8bd 8ff0 	ldmia.w	sp!, {r4, r5, r6, r7, r8, r9, r10, r11, pc}
    c49c:	100001d8 	.word	0x100001d8

0000c4a0 <__ssputs_r>:
    c4a0:	e92d 47f0 	stmdb	sp!, {r4, r5, r6, r7, r8, r9, r10, lr}
    c4a4:	688d      	ldr	r5, [r1, #8]
    c4a6:	4681      	mov	r9, r0
    c4a8:	42ab      	cmp	r3, r5
    c4aa:	460c      	mov	r4, r1
    c4ac:	4692      	mov	r10, r2
    c4ae:	461f      	mov	r7, r3
    c4b0:	d343      	bcc.n	c53a <__ssputs_r+0x9a>
    c4b2:	898b      	ldrh	r3, [r1, #12]
    c4b4:	f413 6f90 	tst.w	r3, #1152	; 0x480
    c4b8:	d03d      	beq.n	c536 <__ssputs_r+0x96>
    c4ba:	6826      	ldr	r6, [r4, #0]
    c4bc:	6909      	ldr	r1, [r1, #16]
    c4be:	2202      	movs	r2, #2
    c4c0:	ebc1 0806 	rsb	r8, r1, r6
    c4c4:	6966      	ldr	r6, [r4, #20]
    c4c6:	eb06 0646 	add.w	r6, r6, r6, lsl #1
    c4ca:	fb96 f6f2 	sdiv	r6, r6, r2
    c4ce:	f108 0201 	add.w	r2, r8, #1
    c4d2:	443a      	add	r2, r7
    c4d4:	4296      	cmp	r6, r2
    c4d6:	bf38      	it	cc
    c4d8:	4616      	movcc	r6, r2
    c4da:	055b      	lsls	r3, r3, #21
    c4dc:	d50f      	bpl.n	c4fe <__ssputs_r+0x5e>
    c4de:	4631      	mov	r1, r6
    c4e0:	f7ff fdea 	bl	c0b8 <_malloc_r>
    c4e4:	4605      	mov	r5, r0
    c4e6:	b198      	cbz	r0, c510 <__ssputs_r+0x70>
    c4e8:	6921      	ldr	r1, [r4, #16]
    c4ea:	4642      	mov	r2, r8
    c4ec:	f001 f8c4 	bl	d678 <memcpy>
    c4f0:	89a3      	ldrh	r3, [r4, #12]
    c4f2:	f423 6390 	bic.w	r3, r3, #1152	; 0x480
    c4f6:	f043 0380 	orr.w	r3, r3, #128	; 0x80
    c4fa:	81a3      	strh	r3, [r4, #12]
    c4fc:	e013      	b.n	c526 <__ssputs_r+0x86>
    c4fe:	4632      	mov	r2, r6
    c500:	f001 f8de 	bl	d6c0 <_realloc_r>
    c504:	4605      	mov	r5, r0
    c506:	b970      	cbnz	r0, c526 <__ssputs_r+0x86>
    c508:	4648      	mov	r0, r9
    c50a:	6921      	ldr	r1, [r4, #16]
    c50c:	f7ff fd90 	bl	c030 <_free_r>
    c510:	230c      	movs	r3, #12
    c512:	f8c9 3000 	str.w	r3, [r9]
    c516:	89a3      	ldrh	r3, [r4, #12]
    c518:	f04f 30ff 	mov.w	r0, #4294967295	; 0xffffffff
    c51c:	f043 0340 	orr.w	r3, r3, #64	; 0x40
    c520:	81a3      	strh	r3, [r4, #12]
    c522:	e8bd 87f0 	ldmia.w	sp!, {r4, r5, r6, r7, r8, r9, r10, pc}
    c526:	6125      	str	r5, [r4, #16]
    c528:	6166      	str	r6, [r4, #20]
    c52a:	4445      	add	r5, r8
    c52c:	ebc8 0606 	rsb	r6, r8, r6
    c530:	6025      	str	r5, [r4, #0]
    c532:	60a6      	str	r6, [r4, #8]
    c534:	463d      	mov	r5, r7
    c536:	42af      	cmp	r7, r5
    c538:	d200      	bcs.n	c53c <__ssputs_r+0x9c>
    c53a:	463d      	mov	r5, r7
    c53c:	462a      	mov	r2, r5
    c53e:	6820      	ldr	r0, [r4, #0]
    c540:	4651      	mov	r1, r10
    c542:	f001 f8a2 	bl	d68a <memmove>
    c546:	68a3      	ldr	r3, [r4, #8]
    c548:	2000      	movs	r0, #0
    c54a:	1b5b      	subs	r3, r3, r5
    c54c:	60a3      	str	r3, [r4, #8]
    c54e:	6823      	ldr	r3, [r4, #0]
    c550:	441d      	add	r5, r3
    c552:	6025      	str	r5, [r4, #0]
    c554:	e8bd 87f0 	ldmia.w	sp!, {r4, r5, r6, r7, r8, r9, r10, pc}

0000c558 <_svfiprintf_r>:
    c558:	e92d 43f0 	stmdb	sp!, {r4, r5, r6, r7, r8, r9, lr}
    c55c:	b09d      	sub	sp, #116	; 0x74
    c55e:	9303      	str	r3, [sp, #12]
    c560:	898b      	ldrh	r3, [r1, #12]
    c562:	4607      	mov	r7, r0
    c564:	061c      	lsls	r4, r3, #24
    c566:	460d      	mov	r5, r1
    c568:	4616      	mov	r6, r2
    c56a:	d50c      	bpl.n	c586 <_svfiprintf_r+0x2e>
    c56c:	690b      	ldr	r3, [r1, #16]
    c56e:	b953      	cbnz	r3, c586 <_svfiprintf_r+0x2e>
    c570:	2140      	movs	r1, #64	; 0x40
    c572:	f7ff fda1 	bl	c0b8 <_malloc_r>
    c576:	6028      	str	r0, [r5, #0]
    c578:	6128      	str	r0, [r5, #16]
    c57a:	b910      	cbnz	r0, c582 <_svfiprintf_r+0x2a>
    c57c:	230c      	movs	r3, #12
    c57e:	603b      	str	r3, [r7, #0]
    c580:	e0c7      	b.n	c712 <_svfiprintf_r+0x1ba>
    c582:	2340      	movs	r3, #64	; 0x40
    c584:	616b      	str	r3, [r5, #20]
    c586:	2300      	movs	r3, #0
    c588:	9309      	str	r3, [sp, #36]	; 0x24
    c58a:	2320      	movs	r3, #32
    c58c:	f88d 3029 	strb.w	r3, [sp, #41]	; 0x29
    c590:	2330      	movs	r3, #48	; 0x30
    c592:	f88d 302a 	strb.w	r3, [sp, #42]	; 0x2a
    c596:	4633      	mov	r3, r6
    c598:	461c      	mov	r4, r3
    c59a:	f813 2b01 	ldrb.w	r2, [r3], #1
    c59e:	b91a      	cbnz	r2, c5a8 <_svfiprintf_r+0x50>
    c5a0:	ebb4 0906 	subs.w	r9, r4, r6
    c5a4:	d00f      	beq.n	c5c6 <_svfiprintf_r+0x6e>
    c5a6:	e002      	b.n	c5ae <_svfiprintf_r+0x56>
    c5a8:	2a25      	cmp	r2, #37	; 0x25
    c5aa:	d1f5      	bne.n	c598 <_svfiprintf_r+0x40>
    c5ac:	e7f8      	b.n	c5a0 <_svfiprintf_r+0x48>
    c5ae:	4638      	mov	r0, r7
    c5b0:	4629      	mov	r1, r5
    c5b2:	4632      	mov	r2, r6
    c5b4:	464b      	mov	r3, r9
    c5b6:	f7ff ff73 	bl	c4a0 <__ssputs_r>
    c5ba:	3001      	adds	r0, #1
    c5bc:	f000 80a4 	beq.w	c708 <_svfiprintf_r+0x1b0>
    c5c0:	9b09      	ldr	r3, [sp, #36]	; 0x24
    c5c2:	444b      	add	r3, r9
    c5c4:	9309      	str	r3, [sp, #36]	; 0x24
    c5c6:	7823      	ldrb	r3, [r4, #0]
    c5c8:	2b00      	cmp	r3, #0
    c5ca:	f000 809d 	beq.w	c708 <_svfiprintf_r+0x1b0>
    c5ce:	2300      	movs	r3, #0
    c5d0:	f04f 32ff 	mov.w	r2, #4294967295	; 0xffffffff
    c5d4:	9304      	str	r3, [sp, #16]
    c5d6:	9307      	str	r3, [sp, #28]
    c5d8:	9205      	str	r2, [sp, #20]
    c5da:	9306      	str	r3, [sp, #24]
    c5dc:	f88d 3053 	strb.w	r3, [sp, #83]	; 0x53
    c5e0:	931a      	str	r3, [sp, #104]	; 0x68
    c5e2:	f104 0901 	add.w	r9, r4, #1
    c5e6:	4e4d      	ldr	r6, [pc, #308]	; (c71c <_svfiprintf_r+0x1c4>)
    c5e8:	464c      	mov	r4, r9
    c5ea:	4630      	mov	r0, r6
    c5ec:	7821      	ldrb	r1, [r4, #0]
    c5ee:	2205      	movs	r2, #5
    c5f0:	f001 f834 	bl	d65c <memchr>
    c5f4:	f109 0901 	add.w	r9, r9, #1
    c5f8:	9b04      	ldr	r3, [sp, #16]
    c5fa:	b128      	cbz	r0, c608 <_svfiprintf_r+0xb0>
    c5fc:	1b86      	subs	r6, r0, r6
    c5fe:	2001      	movs	r0, #1
    c600:	40b0      	lsls	r0, r6
    c602:	4303      	orrs	r3, r0
    c604:	9304      	str	r3, [sp, #16]
    c606:	e7ee      	b.n	c5e6 <_svfiprintf_r+0x8e>
    c608:	06d9      	lsls	r1, r3, #27
    c60a:	bf44      	itt	mi
    c60c:	2220      	movmi	r2, #32
    c60e:	f88d 2053 	strbmi.w	r2, [sp, #83]	; 0x53
    c612:	071a      	lsls	r2, r3, #28
    c614:	bf44      	itt	mi
    c616:	222b      	movmi	r2, #43	; 0x2b
    c618:	f88d 2053 	strbmi.w	r2, [sp, #83]	; 0x53
    c61c:	7822      	ldrb	r2, [r4, #0]
    c61e:	2a2a      	cmp	r2, #42	; 0x2a
    c620:	d002      	beq.n	c628 <_svfiprintf_r+0xd0>
    c622:	9b07      	ldr	r3, [sp, #28]
    c624:	4621      	mov	r1, r4
    c626:	e00e      	b.n	c646 <_svfiprintf_r+0xee>
    c628:	9a03      	ldr	r2, [sp, #12]
    c62a:	1d11      	adds	r1, r2, #4
    c62c:	6812      	ldr	r2, [r2, #0]
    c62e:	9103      	str	r1, [sp, #12]
    c630:	2a00      	cmp	r2, #0
    c632:	db01      	blt.n	c638 <_svfiprintf_r+0xe0>
    c634:	9207      	str	r2, [sp, #28]
    c636:	e004      	b.n	c642 <_svfiprintf_r+0xea>
    c638:	4252      	negs	r2, r2
    c63a:	f043 0302 	orr.w	r3, r3, #2
    c63e:	9207      	str	r2, [sp, #28]
    c640:	9304      	str	r3, [sp, #16]
    c642:	3401      	adds	r4, #1
    c644:	e00a      	b.n	c65c <_svfiprintf_r+0x104>
    c646:	460c      	mov	r4, r1
    c648:	7822      	ldrb	r2, [r4, #0]
    c64a:	3101      	adds	r1, #1
    c64c:	3a30      	subs	r2, #48	; 0x30
    c64e:	2a09      	cmp	r2, #9
    c650:	d803      	bhi.n	c65a <_svfiprintf_r+0x102>
    c652:	200a      	movs	r0, #10
    c654:	fb00 2303 	mla	r3, r0, r3, r2
    c658:	e7f5      	b.n	c646 <_svfiprintf_r+0xee>
    c65a:	9307      	str	r3, [sp, #28]
    c65c:	7823      	ldrb	r3, [r4, #0]
    c65e:	2b2e      	cmp	r3, #46	; 0x2e
    c660:	d119      	bne.n	c696 <_svfiprintf_r+0x13e>
    c662:	7863      	ldrb	r3, [r4, #1]
    c664:	2b2a      	cmp	r3, #42	; 0x2a
    c666:	d109      	bne.n	c67c <_svfiprintf_r+0x124>
    c668:	9b03      	ldr	r3, [sp, #12]
    c66a:	3402      	adds	r4, #2
    c66c:	1d1a      	adds	r2, r3, #4
    c66e:	681b      	ldr	r3, [r3, #0]
    c670:	9203      	str	r2, [sp, #12]
    c672:	2b00      	cmp	r3, #0
    c674:	bfb8      	it	lt
    c676:	f04f 33ff 	movlt.w	r3, #4294967295	; 0xffffffff
    c67a:	e00b      	b.n	c694 <_svfiprintf_r+0x13c>
    c67c:	1c61      	adds	r1, r4, #1
    c67e:	2300      	movs	r3, #0
    c680:	460c      	mov	r4, r1
    c682:	7822      	ldrb	r2, [r4, #0]
    c684:	3101      	adds	r1, #1
    c686:	3a30      	subs	r2, #48	; 0x30
    c688:	2a09      	cmp	r2, #9
    c68a:	d803      	bhi.n	c694 <_svfiprintf_r+0x13c>
    c68c:	200a      	movs	r0, #10
    c68e:	fb00 2303 	mla	r3, r0, r3, r2
    c692:	e7f5      	b.n	c680 <_svfiprintf_r+0x128>
    c694:	9305      	str	r3, [sp, #20]
    c696:	4e22      	ldr	r6, [pc, #136]	; (c720 <_svfiprintf_r+0x1c8>)
    c698:	7821      	ldrb	r1, [r4, #0]
    c69a:	4630      	mov	r0, r6
    c69c:	2203      	movs	r2, #3
    c69e:	f000 ffdd 	bl	d65c <memchr>
    c6a2:	b130      	cbz	r0, c6b2 <_svfiprintf_r+0x15a>
    c6a4:	1b86      	subs	r6, r0, r6
    c6a6:	2040      	movs	r0, #64	; 0x40
    c6a8:	40b0      	lsls	r0, r6
    c6aa:	9b04      	ldr	r3, [sp, #16]
    c6ac:	3401      	adds	r4, #1
    c6ae:	4303      	orrs	r3, r0
    c6b0:	9304      	str	r3, [sp, #16]
    c6b2:	7821      	ldrb	r1, [r4, #0]
    c6b4:	481b      	ldr	r0, [pc, #108]	; (c724 <_svfiprintf_r+0x1cc>)
    c6b6:	2206      	movs	r2, #6
    c6b8:	1c66      	adds	r6, r4, #1
    c6ba:	f88d 1028 	strb.w	r1, [sp, #40]	; 0x28
    c6be:	f000 ffcd 	bl	d65c <memchr>
    c6c2:	b188      	cbz	r0, c6e8 <_svfiprintf_r+0x190>
    c6c4:	4b18      	ldr	r3, [pc, #96]	; (c728 <_svfiprintf_r+0x1d0>)
    c6c6:	b933      	cbnz	r3, c6d6 <_svfiprintf_r+0x17e>
    c6c8:	9b03      	ldr	r3, [sp, #12]
    c6ca:	3307      	adds	r3, #7
    c6cc:	f023 0307 	bic.w	r3, r3, #7
    c6d0:	3308      	adds	r3, #8
    c6d2:	9303      	str	r3, [sp, #12]
    c6d4:	e014      	b.n	c700 <_svfiprintf_r+0x1a8>
    c6d6:	ab03      	add	r3, sp, #12
    c6d8:	9300      	str	r3, [sp, #0]
    c6da:	4638      	mov	r0, r7
    c6dc:	a904      	add	r1, sp, #16
    c6de:	462a      	mov	r2, r5
    c6e0:	4b12      	ldr	r3, [pc, #72]	; (c72c <_svfiprintf_r+0x1d4>)
    c6e2:	f3af 8000 	nop.w
    c6e6:	e007      	b.n	c6f8 <_svfiprintf_r+0x1a0>
    c6e8:	ab03      	add	r3, sp, #12
    c6ea:	9300      	str	r3, [sp, #0]
    c6ec:	4638      	mov	r0, r7
    c6ee:	a904      	add	r1, sp, #16
    c6f0:	462a      	mov	r2, r5
    c6f2:	4b0e      	ldr	r3, [pc, #56]	; (c72c <_svfiprintf_r+0x1d4>)
    c6f4:	f000 fbaa 	bl	ce4c <_printf_i>
    c6f8:	f1b0 3fff 	cmp.w	r0, #4294967295	; 0xffffffff
    c6fc:	4680      	mov	r8, r0
    c6fe:	d003      	beq.n	c708 <_svfiprintf_r+0x1b0>
    c700:	9b09      	ldr	r3, [sp, #36]	; 0x24
    c702:	4443      	add	r3, r8
    c704:	9309      	str	r3, [sp, #36]	; 0x24
    c706:	e746      	b.n	c596 <_svfiprintf_r+0x3e>
    c708:	89ab      	ldrh	r3, [r5, #12]
    c70a:	065b      	lsls	r3, r3, #25
    c70c:	d401      	bmi.n	c712 <_svfiprintf_r+0x1ba>
    c70e:	9809      	ldr	r0, [sp, #36]	; 0x24
    c710:	e001      	b.n	c716 <_svfiprintf_r+0x1be>
    c712:	f04f 30ff 	mov.w	r0, #4294967295	; 0xffffffff
    c716:	b01d      	add	sp, #116	; 0x74
    c718:	e8bd 83f0 	ldmia.w	sp!, {r4, r5, r6, r7, r8, r9, pc}
    c71c:	0000ddd4 	.word	0x0000ddd4
    c720:	0000ddda 	.word	0x0000ddda
    c724:	0000ddde 	.word	0x0000ddde
    c728:	00000000 	.word	0x00000000
    c72c:	0000c4a1 	.word	0x0000c4a1

0000c730 <_sungetc_r>:
    c730:	b538      	push	{r3, r4, r5, lr}
    c732:	1c4b      	adds	r3, r1, #1
    c734:	4614      	mov	r4, r2
    c736:	d102      	bne.n	c73e <_sungetc_r+0xe>
    c738:	f04f 30ff 	mov.w	r0, #4294967295	; 0xffffffff
    c73c:	bd38      	pop	{r3, r4, r5, pc}
    c73e:	8993      	ldrh	r3, [r2, #12]
    c740:	b2cd      	uxtb	r5, r1
    c742:	f023 0320 	bic.w	r3, r3, #32
    c746:	8193      	strh	r3, [r2, #12]
    c748:	6b53      	ldr	r3, [r2, #52]	; 0x34
    c74a:	6852      	ldr	r2, [r2, #4]
    c74c:	b183      	cbz	r3, c770 <_sungetc_r+0x40>
    c74e:	6ba3      	ldr	r3, [r4, #56]	; 0x38
    c750:	429a      	cmp	r2, r3
    c752:	da07      	bge.n	c764 <_sungetc_r+0x34>
    c754:	6823      	ldr	r3, [r4, #0]
    c756:	1e5a      	subs	r2, r3, #1
    c758:	6022      	str	r2, [r4, #0]
    c75a:	f803 5c01 	strb.w	r5, [r3, #-1]
    c75e:	6863      	ldr	r3, [r4, #4]
    c760:	3301      	adds	r3, #1
    c762:	e01f      	b.n	c7a4 <_sungetc_r+0x74>
    c764:	4621      	mov	r1, r4
    c766:	f000 f98b 	bl	ca80 <__submore>
    c76a:	2800      	cmp	r0, #0
    c76c:	d0f2      	beq.n	c754 <_sungetc_r+0x24>
    c76e:	e7e3      	b.n	c738 <_sungetc_r+0x8>
    c770:	6921      	ldr	r1, [r4, #16]
    c772:	6823      	ldr	r3, [r4, #0]
    c774:	b151      	cbz	r1, c78c <_sungetc_r+0x5c>
    c776:	428b      	cmp	r3, r1
    c778:	d908      	bls.n	c78c <_sungetc_r+0x5c>
    c77a:	f813 0c01 	ldrb.w	r0, [r3, #-1]
    c77e:	42a8      	cmp	r0, r5
    c780:	d104      	bne.n	c78c <_sungetc_r+0x5c>
    c782:	3b01      	subs	r3, #1
    c784:	3201      	adds	r2, #1
    c786:	6023      	str	r3, [r4, #0]
    c788:	6062      	str	r2, [r4, #4]
    c78a:	bd38      	pop	{r3, r4, r5, pc}
    c78c:	63e3      	str	r3, [r4, #60]	; 0x3c
    c78e:	f104 0344 	add.w	r3, r4, #68	; 0x44
    c792:	6363      	str	r3, [r4, #52]	; 0x34
    c794:	2303      	movs	r3, #3
    c796:	63a3      	str	r3, [r4, #56]	; 0x38
    c798:	4623      	mov	r3, r4
    c79a:	6422      	str	r2, [r4, #64]	; 0x40
    c79c:	f803 5f46 	strb.w	r5, [r3, #70]!
    c7a0:	6023      	str	r3, [r4, #0]
    c7a2:	2301      	movs	r3, #1
    c7a4:	6063      	str	r3, [r4, #4]
    c7a6:	4628      	mov	r0, r5
    c7a8:	bd38      	pop	{r3, r4, r5, pc}

0000c7aa <__ssrefill_r>:
    c7aa:	b510      	push	{r4, lr}
    c7ac:	460c      	mov	r4, r1
    c7ae:	6b49      	ldr	r1, [r1, #52]	; 0x34
    c7b0:	b169      	cbz	r1, c7ce <__ssrefill_r+0x24>
    c7b2:	f104 0344 	add.w	r3, r4, #68	; 0x44
    c7b6:	4299      	cmp	r1, r3
    c7b8:	d001      	beq.n	c7be <__ssrefill_r+0x14>
    c7ba:	f7ff fc39 	bl	c030 <_free_r>
    c7be:	6c23      	ldr	r3, [r4, #64]	; 0x40
    c7c0:	2000      	movs	r0, #0
    c7c2:	6360      	str	r0, [r4, #52]	; 0x34
    c7c4:	6063      	str	r3, [r4, #4]
    c7c6:	b113      	cbz	r3, c7ce <__ssrefill_r+0x24>
    c7c8:	6be3      	ldr	r3, [r4, #60]	; 0x3c
    c7ca:	6023      	str	r3, [r4, #0]
    c7cc:	bd10      	pop	{r4, pc}
    c7ce:	6923      	ldr	r3, [r4, #16]
    c7d0:	f04f 30ff 	mov.w	r0, #4294967295	; 0xffffffff
    c7d4:	6023      	str	r3, [r4, #0]
    c7d6:	2300      	movs	r3, #0
    c7d8:	6063      	str	r3, [r4, #4]
    c7da:	89a3      	ldrh	r3, [r4, #12]
    c7dc:	f043 0320 	orr.w	r3, r3, #32
    c7e0:	81a3      	strh	r3, [r4, #12]
    c7e2:	bd10      	pop	{r4, pc}

0000c7e4 <__ssvfiscanf_r>:
    c7e4:	e92d 47f0 	stmdb	sp!, {r4, r5, r6, r7, r8, r9, r10, lr}
    c7e8:	f5ad 7d24 	sub.w	sp, sp, #656	; 0x290
    c7ec:	9301      	str	r3, [sp, #4]
    c7ee:	2300      	movs	r3, #0
    c7f0:	9346      	str	r3, [sp, #280]	; 0x118
    c7f2:	9347      	str	r3, [sp, #284]	; 0x11c
    c7f4:	4b9d      	ldr	r3, [pc, #628]	; (ca6c <__ssvfiscanf_r+0x288>)
    c7f6:	f10d 090c 	add.w	r9, sp, #12
    c7fa:	93a2      	str	r3, [sp, #648]	; 0x288
    c7fc:	4b9c      	ldr	r3, [pc, #624]	; (ca70 <__ssvfiscanf_r+0x28c>)
    c7fe:	4607      	mov	r7, r0
    c800:	460c      	mov	r4, r1
    c802:	4690      	mov	r8, r2
    c804:	f8cd 9120 	str.w	r9, [sp, #288]	; 0x120
    c808:	93a3      	str	r3, [sp, #652]	; 0x28c
    c80a:	f898 5000 	ldrb.w	r5, [r8]
    c80e:	2d00      	cmp	r5, #0
    c810:	f000 8124 	beq.w	ca5c <__ssvfiscanf_r+0x278>
    c814:	4997      	ldr	r1, [pc, #604]	; (ca74 <__ssvfiscanf_r+0x290>)
    c816:	680b      	ldr	r3, [r1, #0]
    c818:	468a      	mov	r10, r1
    c81a:	442b      	add	r3, r5
    c81c:	785a      	ldrb	r2, [r3, #1]
    c81e:	f002 0208 	and.w	r2, r2, #8
    c822:	f002 03ff 	and.w	r3, r2, #255	; 0xff
    c826:	b1ea      	cbz	r2, c864 <__ssvfiscanf_r+0x80>
    c828:	6863      	ldr	r3, [r4, #4]
    c82a:	2b00      	cmp	r3, #0
    c82c:	dd10      	ble.n	c850 <__ssvfiscanf_r+0x6c>
    c82e:	6823      	ldr	r3, [r4, #0]
    c830:	f8da 2000 	ldr.w	r2, [r10]
    c834:	7819      	ldrb	r1, [r3, #0]
    c836:	440a      	add	r2, r1
    c838:	7852      	ldrb	r2, [r2, #1]
    c83a:	0715      	lsls	r5, r2, #28
    c83c:	d50e      	bpl.n	c85c <__ssvfiscanf_r+0x78>
    c83e:	9a47      	ldr	r2, [sp, #284]	; 0x11c
    c840:	3301      	adds	r3, #1
    c842:	3201      	adds	r2, #1
    c844:	9247      	str	r2, [sp, #284]	; 0x11c
    c846:	6862      	ldr	r2, [r4, #4]
    c848:	6023      	str	r3, [r4, #0]
    c84a:	3a01      	subs	r2, #1
    c84c:	6062      	str	r2, [r4, #4]
    c84e:	e7eb      	b.n	c828 <__ssvfiscanf_r+0x44>
    c850:	9ba3      	ldr	r3, [sp, #652]	; 0x28c
    c852:	4638      	mov	r0, r7
    c854:	4621      	mov	r1, r4
    c856:	4798      	blx	r3
    c858:	2800      	cmp	r0, #0
    c85a:	d0e8      	beq.n	c82e <__ssvfiscanf_r+0x4a>
    c85c:	f108 0601 	add.w	r6, r8, #1
    c860:	46b0      	mov	r8, r6
    c862:	e7d2      	b.n	c80a <__ssvfiscanf_r+0x26>
    c864:	2d25      	cmp	r5, #37	; 0x25
    c866:	f108 0601 	add.w	r6, r8, #1
    c86a:	d14f      	bne.n	c90c <__ssvfiscanf_r+0x128>
    c86c:	9345      	str	r3, [sp, #276]	; 0x114
    c86e:	9343      	str	r3, [sp, #268]	; 0x10c
    c870:	f898 3001 	ldrb.w	r3, [r8, #1]
    c874:	2b2a      	cmp	r3, #42	; 0x2a
    c876:	d103      	bne.n	c880 <__ssvfiscanf_r+0x9c>
    c878:	2310      	movs	r3, #16
    c87a:	9343      	str	r3, [sp, #268]	; 0x10c
    c87c:	f108 0602 	add.w	r6, r8, #2
    c880:	7831      	ldrb	r1, [r6, #0]
    c882:	4635      	mov	r5, r6
    c884:	f1a1 0330 	sub.w	r3, r1, #48	; 0x30
    c888:	2b09      	cmp	r3, #9
    c88a:	f106 0601 	add.w	r6, r6, #1
    c88e:	d806      	bhi.n	c89e <__ssvfiscanf_r+0xba>
    c890:	9b45      	ldr	r3, [sp, #276]	; 0x114
    c892:	220a      	movs	r2, #10
    c894:	fb02 1303 	mla	r3, r2, r3, r1
    c898:	3b30      	subs	r3, #48	; 0x30
    c89a:	9345      	str	r3, [sp, #276]	; 0x114
    c89c:	e7f0      	b.n	c880 <__ssvfiscanf_r+0x9c>
    c89e:	f8df 81dc 	ldr.w	r8, [pc, #476]	; ca7c <__ssvfiscanf_r+0x298>
    c8a2:	2203      	movs	r2, #3
    c8a4:	4640      	mov	r0, r8
    c8a6:	f000 fed9 	bl	d65c <memchr>
    c8aa:	b140      	cbz	r0, c8be <__ssvfiscanf_r+0xda>
    c8ac:	ebc8 0800 	rsb	r8, r8, r0
    c8b0:	2001      	movs	r0, #1
    c8b2:	fa00 f008 	lsl.w	r0, r0, r8
    c8b6:	9b43      	ldr	r3, [sp, #268]	; 0x10c
    c8b8:	4635      	mov	r5, r6
    c8ba:	4303      	orrs	r3, r0
    c8bc:	9343      	str	r3, [sp, #268]	; 0x10c
    c8be:	1c6e      	adds	r6, r5, #1
    c8c0:	782d      	ldrb	r5, [r5, #0]
    c8c2:	2d67      	cmp	r5, #103	; 0x67
    c8c4:	d80f      	bhi.n	c8e6 <__ssvfiscanf_r+0x102>
    c8c6:	2d65      	cmp	r5, #101	; 0x65
    c8c8:	d278      	bcs.n	c9bc <__ssvfiscanf_r+0x1d8>
    c8ca:	2d5b      	cmp	r5, #91	; 0x5b
    c8cc:	d054      	beq.n	c978 <__ssvfiscanf_r+0x194>
    c8ce:	d805      	bhi.n	c8dc <__ssvfiscanf_r+0xf8>
    c8d0:	2d00      	cmp	r5, #0
    c8d2:	f000 80c5 	beq.w	ca60 <__ssvfiscanf_r+0x27c>
    c8d6:	2d25      	cmp	r5, #37	; 0x25
    c8d8:	d018      	beq.n	c90c <__ssvfiscanf_r+0x128>
    c8da:	e071      	b.n	c9c0 <__ssvfiscanf_r+0x1dc>
    c8dc:	2d63      	cmp	r5, #99	; 0x63
    c8de:	d057      	beq.n	c990 <__ssvfiscanf_r+0x1ac>
    c8e0:	2d64      	cmp	r5, #100	; 0x64
    c8e2:	d03f      	beq.n	c964 <__ssvfiscanf_r+0x180>
    c8e4:	e06c      	b.n	c9c0 <__ssvfiscanf_r+0x1dc>
    c8e6:	2d70      	cmp	r5, #112	; 0x70
    c8e8:	d032      	beq.n	c950 <__ssvfiscanf_r+0x16c>
    c8ea:	d807      	bhi.n	c8fc <__ssvfiscanf_r+0x118>
    c8ec:	2d6e      	cmp	r5, #110	; 0x6e
    c8ee:	d055      	beq.n	c99c <__ssvfiscanf_r+0x1b8>
    c8f0:	d83a      	bhi.n	c968 <__ssvfiscanf_r+0x184>
    c8f2:	2d69      	cmp	r5, #105	; 0x69
    c8f4:	d164      	bne.n	c9c0 <__ssvfiscanf_r+0x1dc>
    c8f6:	2300      	movs	r3, #0
    c8f8:	9344      	str	r3, [sp, #272]	; 0x110
    c8fa:	e039      	b.n	c970 <__ssvfiscanf_r+0x18c>
    c8fc:	2d75      	cmp	r5, #117	; 0x75
    c8fe:	d031      	beq.n	c964 <__ssvfiscanf_r+0x180>
    c900:	2d78      	cmp	r5, #120	; 0x78
    c902:	d029      	beq.n	c958 <__ssvfiscanf_r+0x174>
    c904:	2d73      	cmp	r5, #115	; 0x73
    c906:	d15b      	bne.n	c9c0 <__ssvfiscanf_r+0x1dc>
    c908:	2302      	movs	r3, #2
    c90a:	e03f      	b.n	c98c <__ssvfiscanf_r+0x1a8>
    c90c:	6863      	ldr	r3, [r4, #4]
    c90e:	2b00      	cmp	r3, #0
    c910:	dd0d      	ble.n	c92e <__ssvfiscanf_r+0x14a>
    c912:	6823      	ldr	r3, [r4, #0]
    c914:	781a      	ldrb	r2, [r3, #0]
    c916:	42aa      	cmp	r2, r5
    c918:	f040 80a0 	bne.w	ca5c <__ssvfiscanf_r+0x278>
    c91c:	3301      	adds	r3, #1
    c91e:	6862      	ldr	r2, [r4, #4]
    c920:	6023      	str	r3, [r4, #0]
    c922:	9b47      	ldr	r3, [sp, #284]	; 0x11c
    c924:	3a01      	subs	r2, #1
    c926:	3301      	adds	r3, #1
    c928:	6062      	str	r2, [r4, #4]
    c92a:	9347      	str	r3, [sp, #284]	; 0x11c
    c92c:	e798      	b.n	c860 <__ssvfiscanf_r+0x7c>
    c92e:	9ba3      	ldr	r3, [sp, #652]	; 0x28c
    c930:	4638      	mov	r0, r7
    c932:	4621      	mov	r1, r4
    c934:	4798      	blx	r3
    c936:	2800      	cmp	r0, #0
    c938:	d0eb      	beq.n	c912 <__ssvfiscanf_r+0x12e>
    c93a:	9846      	ldr	r0, [sp, #280]	; 0x118
    c93c:	2800      	cmp	r0, #0
    c93e:	f000 808f 	beq.w	ca60 <__ssvfiscanf_r+0x27c>
    c942:	89a3      	ldrh	r3, [r4, #12]
    c944:	f013 0f40 	tst.w	r3, #64	; 0x40
    c948:	bf18      	it	ne
    c94a:	f04f 30ff 	movne.w	r0, #4294967295	; 0xffffffff
    c94e:	e089      	b.n	ca64 <__ssvfiscanf_r+0x280>
    c950:	9b43      	ldr	r3, [sp, #268]	; 0x10c
    c952:	f043 0320 	orr.w	r3, r3, #32
    c956:	9343      	str	r3, [sp, #268]	; 0x10c
    c958:	9b43      	ldr	r3, [sp, #268]	; 0x10c
    c95a:	f443 7300 	orr.w	r3, r3, #512	; 0x200
    c95e:	9343      	str	r3, [sp, #268]	; 0x10c
    c960:	2310      	movs	r3, #16
    c962:	e002      	b.n	c96a <__ssvfiscanf_r+0x186>
    c964:	230a      	movs	r3, #10
    c966:	e000      	b.n	c96a <__ssvfiscanf_r+0x186>
    c968:	2308      	movs	r3, #8
    c96a:	2d6e      	cmp	r5, #110	; 0x6e
    c96c:	9344      	str	r3, [sp, #272]	; 0x110
    c96e:	dc01      	bgt.n	c974 <__ssvfiscanf_r+0x190>
    c970:	2303      	movs	r3, #3
    c972:	e00b      	b.n	c98c <__ssvfiscanf_r+0x1a8>
    c974:	2304      	movs	r3, #4
    c976:	e009      	b.n	c98c <__ssvfiscanf_r+0x1a8>
    c978:	4631      	mov	r1, r6
    c97a:	4648      	mov	r0, r9
    c97c:	f000 fed8 	bl	d730 <__sccl>
    c980:	9b43      	ldr	r3, [sp, #268]	; 0x10c
    c982:	4606      	mov	r6, r0
    c984:	f043 0340 	orr.w	r3, r3, #64	; 0x40
    c988:	9343      	str	r3, [sp, #268]	; 0x10c
    c98a:	2301      	movs	r3, #1
    c98c:	9349      	str	r3, [sp, #292]	; 0x124
    c98e:	e01b      	b.n	c9c8 <__ssvfiscanf_r+0x1e4>
    c990:	9b43      	ldr	r3, [sp, #268]	; 0x10c
    c992:	f043 0340 	orr.w	r3, r3, #64	; 0x40
    c996:	9343      	str	r3, [sp, #268]	; 0x10c
    c998:	2300      	movs	r3, #0
    c99a:	e7f7      	b.n	c98c <__ssvfiscanf_r+0x1a8>
    c99c:	9a43      	ldr	r2, [sp, #268]	; 0x10c
    c99e:	06d0      	lsls	r0, r2, #27
    c9a0:	f53f af5e 	bmi.w	c860 <__ssvfiscanf_r+0x7c>
    c9a4:	f012 0f01 	tst.w	r2, #1
    c9a8:	9a01      	ldr	r2, [sp, #4]
    c9aa:	9b47      	ldr	r3, [sp, #284]	; 0x11c
    c9ac:	f102 0104 	add.w	r1, r2, #4
    c9b0:	9101      	str	r1, [sp, #4]
    c9b2:	6812      	ldr	r2, [r2, #0]
    c9b4:	bf14      	ite	ne
    c9b6:	8013      	strhne	r3, [r2, #0]
    c9b8:	6013      	streq	r3, [r2, #0]
    c9ba:	e751      	b.n	c860 <__ssvfiscanf_r+0x7c>
    c9bc:	2305      	movs	r3, #5
    c9be:	e7e5      	b.n	c98c <__ssvfiscanf_r+0x1a8>
    c9c0:	2303      	movs	r3, #3
    c9c2:	9349      	str	r3, [sp, #292]	; 0x124
    c9c4:	230a      	movs	r3, #10
    c9c6:	9344      	str	r3, [sp, #272]	; 0x110
    c9c8:	6863      	ldr	r3, [r4, #4]
    c9ca:	2b00      	cmp	r3, #0
    c9cc:	dd03      	ble.n	c9d6 <__ssvfiscanf_r+0x1f2>
    c9ce:	9b43      	ldr	r3, [sp, #268]	; 0x10c
    c9d0:	0659      	lsls	r1, r3, #25
    c9d2:	d511      	bpl.n	c9f8 <__ssvfiscanf_r+0x214>
    c9d4:	e018      	b.n	ca08 <__ssvfiscanf_r+0x224>
    c9d6:	9ba3      	ldr	r3, [sp, #652]	; 0x28c
    c9d8:	4638      	mov	r0, r7
    c9da:	4621      	mov	r1, r4
    c9dc:	4798      	blx	r3
    c9de:	2800      	cmp	r0, #0
    c9e0:	d0f5      	beq.n	c9ce <__ssvfiscanf_r+0x1ea>
    c9e2:	e7aa      	b.n	c93a <__ssvfiscanf_r+0x156>
    c9e4:	9a47      	ldr	r2, [sp, #284]	; 0x11c
    c9e6:	3201      	adds	r2, #1
    c9e8:	9247      	str	r2, [sp, #284]	; 0x11c
    c9ea:	6862      	ldr	r2, [r4, #4]
    c9ec:	3a01      	subs	r2, #1
    c9ee:	2a00      	cmp	r2, #0
    c9f0:	6062      	str	r2, [r4, #4]
    c9f2:	dd13      	ble.n	ca1c <__ssvfiscanf_r+0x238>
    c9f4:	3301      	adds	r3, #1
    c9f6:	6023      	str	r3, [r4, #0]
    c9f8:	6823      	ldr	r3, [r4, #0]
    c9fa:	f8da 2000 	ldr.w	r2, [r10]
    c9fe:	7819      	ldrb	r1, [r3, #0]
    ca00:	440a      	add	r2, r1
    ca02:	7852      	ldrb	r2, [r2, #1]
    ca04:	0712      	lsls	r2, r2, #28
    ca06:	d4ed      	bmi.n	c9e4 <__ssvfiscanf_r+0x200>
    ca08:	9b49      	ldr	r3, [sp, #292]	; 0x124
    ca0a:	2b02      	cmp	r3, #2
    ca0c:	dc0d      	bgt.n	ca2a <__ssvfiscanf_r+0x246>
    ca0e:	4638      	mov	r0, r7
    ca10:	a943      	add	r1, sp, #268	; 0x10c
    ca12:	4622      	mov	r2, r4
    ca14:	ab01      	add	r3, sp, #4
    ca16:	f000 fb2d 	bl	d074 <_scanf_chars>
    ca1a:	e019      	b.n	ca50 <__ssvfiscanf_r+0x26c>
    ca1c:	9ba3      	ldr	r3, [sp, #652]	; 0x28c
    ca1e:	4638      	mov	r0, r7
    ca20:	4621      	mov	r1, r4
    ca22:	4798      	blx	r3
    ca24:	2800      	cmp	r0, #0
    ca26:	d0e7      	beq.n	c9f8 <__ssvfiscanf_r+0x214>
    ca28:	e787      	b.n	c93a <__ssvfiscanf_r+0x156>
    ca2a:	2b04      	cmp	r3, #4
    ca2c:	dc06      	bgt.n	ca3c <__ssvfiscanf_r+0x258>
    ca2e:	4638      	mov	r0, r7
    ca30:	a943      	add	r1, sp, #268	; 0x10c
    ca32:	4622      	mov	r2, r4
    ca34:	ab01      	add	r3, sp, #4
    ca36:	f000 fb7d 	bl	d134 <_scanf_i>
    ca3a:	e009      	b.n	ca50 <__ssvfiscanf_r+0x26c>
    ca3c:	4b0e      	ldr	r3, [pc, #56]	; (ca78 <__ssvfiscanf_r+0x294>)
    ca3e:	2b00      	cmp	r3, #0
    ca40:	f43f af0e 	beq.w	c860 <__ssvfiscanf_r+0x7c>
    ca44:	4638      	mov	r0, r7
    ca46:	a943      	add	r1, sp, #268	; 0x10c
    ca48:	4622      	mov	r2, r4
    ca4a:	ab01      	add	r3, sp, #4
    ca4c:	f3af 8000 	nop.w
    ca50:	2801      	cmp	r0, #1
    ca52:	d003      	beq.n	ca5c <__ssvfiscanf_r+0x278>
    ca54:	2802      	cmp	r0, #2
    ca56:	f47f af03 	bne.w	c860 <__ssvfiscanf_r+0x7c>
    ca5a:	e76e      	b.n	c93a <__ssvfiscanf_r+0x156>
    ca5c:	9846      	ldr	r0, [sp, #280]	; 0x118
    ca5e:	e001      	b.n	ca64 <__ssvfiscanf_r+0x280>
    ca60:	f04f 30ff 	mov.w	r0, #4294967295	; 0xffffffff
    ca64:	f50d 7d24 	add.w	sp, sp, #656	; 0x290
    ca68:	e8bd 87f0 	ldmia.w	sp!, {r4, r5, r6, r7, r8, r9, r10, pc}
    ca6c:	0000c731 	.word	0x0000c731
    ca70:	0000c7ab 	.word	0x0000c7ab
    ca74:	100001d8 	.word	0x100001d8
    ca78:	00000000 	.word	0x00000000
    ca7c:	0000ddda 	.word	0x0000ddda

0000ca80 <__submore>:
    ca80:	e92d 41f0 	stmdb	sp!, {r4, r5, r6, r7, r8, lr}
    ca84:	460c      	mov	r4, r1
    ca86:	6b49      	ldr	r1, [r1, #52]	; 0x34
    ca88:	f104 0344 	add.w	r3, r4, #68	; 0x44
    ca8c:	4299      	cmp	r1, r3
    ca8e:	d11a      	bne.n	cac6 <__submore+0x46>
    ca90:	f44f 6180 	mov.w	r1, #1024	; 0x400
    ca94:	f7ff fb10 	bl	c0b8 <_malloc_r>
    ca98:	b918      	cbnz	r0, caa2 <__submore+0x22>
    ca9a:	f04f 30ff 	mov.w	r0, #4294967295	; 0xffffffff
    ca9e:	e8bd 81f0 	ldmia.w	sp!, {r4, r5, r6, r7, r8, pc}
    caa2:	f44f 6380 	mov.w	r3, #1024	; 0x400
    caa6:	63a3      	str	r3, [r4, #56]	; 0x38
    caa8:	f894 3046 	ldrb.w	r3, [r4, #70]	; 0x46
    caac:	6360      	str	r0, [r4, #52]	; 0x34
    caae:	f880 33ff 	strb.w	r3, [r0, #1023]	; 0x3ff
    cab2:	f894 3045 	ldrb.w	r3, [r4, #69]	; 0x45
    cab6:	f200 30fd 	addw	r0, r0, #1021	; 0x3fd
    caba:	7043      	strb	r3, [r0, #1]
    cabc:	f894 3044 	ldrb.w	r3, [r4, #68]	; 0x44
    cac0:	7003      	strb	r3, [r0, #0]
    cac2:	6020      	str	r0, [r4, #0]
    cac4:	e012      	b.n	caec <__submore+0x6c>
    cac6:	6ba6      	ldr	r6, [r4, #56]	; 0x38
    cac8:	0077      	lsls	r7, r6, #1
    caca:	463a      	mov	r2, r7
    cacc:	f000 fdf8 	bl	d6c0 <_realloc_r>
    cad0:	4605      	mov	r5, r0
    cad2:	2800      	cmp	r0, #0
    cad4:	d0e1      	beq.n	ca9a <__submore+0x1a>
    cad6:	eb00 0806 	add.w	r8, r0, r6
    cada:	4640      	mov	r0, r8
    cadc:	4629      	mov	r1, r5
    cade:	4632      	mov	r2, r6
    cae0:	f000 fdca 	bl	d678 <memcpy>
    cae4:	f8c4 8000 	str.w	r8, [r4]
    cae8:	6365      	str	r5, [r4, #52]	; 0x34
    caea:	63a7      	str	r7, [r4, #56]	; 0x38
    caec:	2000      	movs	r0, #0
    caee:	e8bd 81f0 	ldmia.w	sp!, {r4, r5, r6, r7, r8, pc}

0000caf2 <__sfputc_r>:
    caf2:	6893      	ldr	r3, [r2, #8]
    caf4:	b510      	push	{r4, lr}
    caf6:	3b01      	subs	r3, #1
    caf8:	2b00      	cmp	r3, #0
    cafa:	6093      	str	r3, [r2, #8]
    cafc:	da05      	bge.n	cb0a <__sfputc_r+0x18>
    cafe:	6994      	ldr	r4, [r2, #24]
    cb00:	42a3      	cmp	r3, r4
    cb02:	db08      	blt.n	cb16 <__sfputc_r+0x24>
    cb04:	b2cb      	uxtb	r3, r1
    cb06:	2b0a      	cmp	r3, #10
    cb08:	d005      	beq.n	cb16 <__sfputc_r+0x24>
    cb0a:	6813      	ldr	r3, [r2, #0]
    cb0c:	1c58      	adds	r0, r3, #1
    cb0e:	6010      	str	r0, [r2, #0]
    cb10:	7019      	strb	r1, [r3, #0]
    cb12:	b2c8      	uxtb	r0, r1
    cb14:	bd10      	pop	{r4, pc}
    cb16:	e8bd 4010 	ldmia.w	sp!, {r4, lr}
    cb1a:	f000 bc01 	b.w	d320 <__swbuf_r>

0000cb1e <__sfputs_r>:
    cb1e:	b5f8      	push	{r3, r4, r5, r6, r7, lr}
    cb20:	4605      	mov	r5, r0
    cb22:	460e      	mov	r6, r1
    cb24:	4614      	mov	r4, r2
    cb26:	18d7      	adds	r7, r2, r3
    cb28:	42bc      	cmp	r4, r7
    cb2a:	d008      	beq.n	cb3e <__sfputs_r+0x20>
    cb2c:	4628      	mov	r0, r5
    cb2e:	f814 1b01 	ldrb.w	r1, [r4], #1
    cb32:	4632      	mov	r2, r6
    cb34:	f7ff ffdd 	bl	caf2 <__sfputc_r>
    cb38:	1c43      	adds	r3, r0, #1
    cb3a:	d1f5      	bne.n	cb28 <__sfputs_r+0xa>
    cb3c:	e000      	b.n	cb40 <__sfputs_r+0x22>
    cb3e:	2000      	movs	r0, #0
    cb40:	bdf8      	pop	{r3, r4, r5, r6, r7, pc}
	...

0000cb44 <_vfiprintf_r>:
    cb44:	e92d 43f0 	stmdb	sp!, {r4, r5, r6, r7, r8, r9, lr}
    cb48:	b09d      	sub	sp, #116	; 0x74
    cb4a:	460d      	mov	r5, r1
    cb4c:	4617      	mov	r7, r2
    cb4e:	9303      	str	r3, [sp, #12]
    cb50:	4606      	mov	r6, r0
    cb52:	b118      	cbz	r0, cb5c <_vfiprintf_r+0x18>
    cb54:	6983      	ldr	r3, [r0, #24]
    cb56:	b90b      	cbnz	r3, cb5c <_vfiprintf_r+0x18>
    cb58:	f7ff f996 	bl	be88 <__sinit>
    cb5c:	4b73      	ldr	r3, [pc, #460]	; (cd2c <_vfiprintf_r+0x1e8>)
    cb5e:	429d      	cmp	r5, r3
    cb60:	d101      	bne.n	cb66 <_vfiprintf_r+0x22>
    cb62:	6875      	ldr	r5, [r6, #4]
    cb64:	e008      	b.n	cb78 <_vfiprintf_r+0x34>
    cb66:	4b72      	ldr	r3, [pc, #456]	; (cd30 <_vfiprintf_r+0x1ec>)
    cb68:	429d      	cmp	r5, r3
    cb6a:	d101      	bne.n	cb70 <_vfiprintf_r+0x2c>
    cb6c:	68b5      	ldr	r5, [r6, #8]
    cb6e:	e003      	b.n	cb78 <_vfiprintf_r+0x34>
    cb70:	4b70      	ldr	r3, [pc, #448]	; (cd34 <_vfiprintf_r+0x1f0>)
    cb72:	429d      	cmp	r5, r3
    cb74:	bf08      	it	eq
    cb76:	68f5      	ldreq	r5, [r6, #12]
    cb78:	89ab      	ldrh	r3, [r5, #12]
    cb7a:	0718      	lsls	r0, r3, #28
    cb7c:	d50a      	bpl.n	cb94 <_vfiprintf_r+0x50>
    cb7e:	692b      	ldr	r3, [r5, #16]
    cb80:	b143      	cbz	r3, cb94 <_vfiprintf_r+0x50>
    cb82:	2300      	movs	r3, #0
    cb84:	9309      	str	r3, [sp, #36]	; 0x24
    cb86:	2320      	movs	r3, #32
    cb88:	f88d 3029 	strb.w	r3, [sp, #41]	; 0x29
    cb8c:	2330      	movs	r3, #48	; 0x30
    cb8e:	f88d 302a 	strb.w	r3, [sp, #42]	; 0x2a
    cb92:	e038      	b.n	cc06 <_vfiprintf_r+0xc2>
    cb94:	4630      	mov	r0, r6
    cb96:	4629      	mov	r1, r5
    cb98:	f000 fc28 	bl	d3ec <__swsetup_r>
    cb9c:	2800      	cmp	r0, #0
    cb9e:	d0f0      	beq.n	cb82 <_vfiprintf_r+0x3e>
    cba0:	f04f 30ff 	mov.w	r0, #4294967295	; 0xffffffff
    cba4:	e0be      	b.n	cd24 <_vfiprintf_r+0x1e0>
    cba6:	9a03      	ldr	r2, [sp, #12]
    cba8:	1d11      	adds	r1, r2, #4
    cbaa:	6812      	ldr	r2, [r2, #0]
    cbac:	9103      	str	r1, [sp, #12]
    cbae:	2a00      	cmp	r2, #0
    cbb0:	db70      	blt.n	cc94 <_vfiprintf_r+0x150>
    cbb2:	9207      	str	r2, [sp, #28]
    cbb4:	3401      	adds	r4, #1
    cbb6:	7823      	ldrb	r3, [r4, #0]
    cbb8:	2b2e      	cmp	r3, #46	; 0x2e
    cbba:	d07d      	beq.n	ccb8 <_vfiprintf_r+0x174>
    cbbc:	4f5e      	ldr	r7, [pc, #376]	; (cd38 <_vfiprintf_r+0x1f4>)
    cbbe:	7821      	ldrb	r1, [r4, #0]
    cbc0:	4638      	mov	r0, r7
    cbc2:	2203      	movs	r2, #3
    cbc4:	f000 fd4a 	bl	d65c <memchr>
    cbc8:	b130      	cbz	r0, cbd8 <_vfiprintf_r+0x94>
    cbca:	1bc7      	subs	r7, r0, r7
    cbcc:	2040      	movs	r0, #64	; 0x40
    cbce:	40b8      	lsls	r0, r7
    cbd0:	9b04      	ldr	r3, [sp, #16]
    cbd2:	3401      	adds	r4, #1
    cbd4:	4303      	orrs	r3, r0
    cbd6:	9304      	str	r3, [sp, #16]
    cbd8:	7821      	ldrb	r1, [r4, #0]
    cbda:	4858      	ldr	r0, [pc, #352]	; (cd3c <_vfiprintf_r+0x1f8>)
    cbdc:	2206      	movs	r2, #6
    cbde:	1c67      	adds	r7, r4, #1
    cbe0:	f88d 1028 	strb.w	r1, [sp, #40]	; 0x28
    cbe4:	f000 fd3a 	bl	d65c <memchr>
    cbe8:	2800      	cmp	r0, #0
    cbea:	f000 8089 	beq.w	cd00 <_vfiprintf_r+0x1bc>
    cbee:	4b54      	ldr	r3, [pc, #336]	; (cd40 <_vfiprintf_r+0x1fc>)
    cbf0:	2b00      	cmp	r3, #0
    cbf2:	d17c      	bne.n	ccee <_vfiprintf_r+0x1aa>
    cbf4:	9b03      	ldr	r3, [sp, #12]
    cbf6:	3307      	adds	r3, #7
    cbf8:	f023 0307 	bic.w	r3, r3, #7
    cbfc:	3308      	adds	r3, #8
    cbfe:	9303      	str	r3, [sp, #12]
    cc00:	9b09      	ldr	r3, [sp, #36]	; 0x24
    cc02:	4443      	add	r3, r8
    cc04:	9309      	str	r3, [sp, #36]	; 0x24
    cc06:	463b      	mov	r3, r7
    cc08:	461c      	mov	r4, r3
    cc0a:	f813 2b01 	ldrb.w	r2, [r3], #1
    cc0e:	b91a      	cbnz	r2, cc18 <_vfiprintf_r+0xd4>
    cc10:	ebb4 0907 	subs.w	r9, r4, r7
    cc14:	d00e      	beq.n	cc34 <_vfiprintf_r+0xf0>
    cc16:	e002      	b.n	cc1e <_vfiprintf_r+0xda>
    cc18:	2a25      	cmp	r2, #37	; 0x25
    cc1a:	d1f5      	bne.n	cc08 <_vfiprintf_r+0xc4>
    cc1c:	e7f8      	b.n	cc10 <_vfiprintf_r+0xcc>
    cc1e:	4630      	mov	r0, r6
    cc20:	4629      	mov	r1, r5
    cc22:	463a      	mov	r2, r7
    cc24:	464b      	mov	r3, r9
    cc26:	f7ff ff7a 	bl	cb1e <__sfputs_r>
    cc2a:	3001      	adds	r0, #1
    cc2c:	d075      	beq.n	cd1a <_vfiprintf_r+0x1d6>
    cc2e:	9b09      	ldr	r3, [sp, #36]	; 0x24
    cc30:	444b      	add	r3, r9
    cc32:	9309      	str	r3, [sp, #36]	; 0x24
    cc34:	7823      	ldrb	r3, [r4, #0]
    cc36:	2b00      	cmp	r3, #0
    cc38:	d06f      	beq.n	cd1a <_vfiprintf_r+0x1d6>
    cc3a:	2300      	movs	r3, #0
    cc3c:	f04f 32ff 	mov.w	r2, #4294967295	; 0xffffffff
    cc40:	9304      	str	r3, [sp, #16]
    cc42:	9307      	str	r3, [sp, #28]
    cc44:	9205      	str	r2, [sp, #20]
    cc46:	9306      	str	r3, [sp, #24]
    cc48:	f88d 3053 	strb.w	r3, [sp, #83]	; 0x53
    cc4c:	931a      	str	r3, [sp, #104]	; 0x68
    cc4e:	f104 0901 	add.w	r9, r4, #1
    cc52:	4f3c      	ldr	r7, [pc, #240]	; (cd44 <_vfiprintf_r+0x200>)
    cc54:	464c      	mov	r4, r9
    cc56:	4638      	mov	r0, r7
    cc58:	7821      	ldrb	r1, [r4, #0]
    cc5a:	2205      	movs	r2, #5
    cc5c:	f000 fcfe 	bl	d65c <memchr>
    cc60:	f109 0901 	add.w	r9, r9, #1
    cc64:	9b04      	ldr	r3, [sp, #16]
    cc66:	b128      	cbz	r0, cc74 <_vfiprintf_r+0x130>
    cc68:	1bc7      	subs	r7, r0, r7
    cc6a:	2001      	movs	r0, #1
    cc6c:	40b8      	lsls	r0, r7
    cc6e:	4303      	orrs	r3, r0
    cc70:	9304      	str	r3, [sp, #16]
    cc72:	e7ee      	b.n	cc52 <_vfiprintf_r+0x10e>
    cc74:	06d9      	lsls	r1, r3, #27
    cc76:	bf44      	itt	mi
    cc78:	2220      	movmi	r2, #32
    cc7a:	f88d 2053 	strbmi.w	r2, [sp, #83]	; 0x53
    cc7e:	071a      	lsls	r2, r3, #28
    cc80:	bf44      	itt	mi
    cc82:	222b      	movmi	r2, #43	; 0x2b
    cc84:	f88d 2053 	strbmi.w	r2, [sp, #83]	; 0x53
    cc88:	7822      	ldrb	r2, [r4, #0]
    cc8a:	2a2a      	cmp	r2, #42	; 0x2a
    cc8c:	d08b      	beq.n	cba6 <_vfiprintf_r+0x62>
    cc8e:	9b07      	ldr	r3, [sp, #28]
    cc90:	4621      	mov	r1, r4
    cc92:	e005      	b.n	cca0 <_vfiprintf_r+0x15c>
    cc94:	4252      	negs	r2, r2
    cc96:	f043 0302 	orr.w	r3, r3, #2
    cc9a:	9207      	str	r2, [sp, #28]
    cc9c:	9304      	str	r3, [sp, #16]
    cc9e:	e789      	b.n	cbb4 <_vfiprintf_r+0x70>
    cca0:	460c      	mov	r4, r1
    cca2:	7822      	ldrb	r2, [r4, #0]
    cca4:	3101      	adds	r1, #1
    cca6:	3a30      	subs	r2, #48	; 0x30
    cca8:	2a09      	cmp	r2, #9
    ccaa:	d803      	bhi.n	ccb4 <_vfiprintf_r+0x170>
    ccac:	200a      	movs	r0, #10
    ccae:	fb00 2303 	mla	r3, r0, r3, r2
    ccb2:	e7f5      	b.n	cca0 <_vfiprintf_r+0x15c>
    ccb4:	9307      	str	r3, [sp, #28]
    ccb6:	e77e      	b.n	cbb6 <_vfiprintf_r+0x72>
    ccb8:	7863      	ldrb	r3, [r4, #1]
    ccba:	2b2a      	cmp	r3, #42	; 0x2a
    ccbc:	d109      	bne.n	ccd2 <_vfiprintf_r+0x18e>
    ccbe:	9b03      	ldr	r3, [sp, #12]
    ccc0:	3402      	adds	r4, #2
    ccc2:	1d1a      	adds	r2, r3, #4
    ccc4:	681b      	ldr	r3, [r3, #0]
    ccc6:	9203      	str	r2, [sp, #12]
    ccc8:	2b00      	cmp	r3, #0
    ccca:	bfb8      	it	lt
    cccc:	f04f 33ff 	movlt.w	r3, #4294967295	; 0xffffffff
    ccd0:	e00b      	b.n	ccea <_vfiprintf_r+0x1a6>
    ccd2:	1c61      	adds	r1, r4, #1
    ccd4:	2300      	movs	r3, #0
    ccd6:	460c      	mov	r4, r1
    ccd8:	7822      	ldrb	r2, [r4, #0]
    ccda:	3101      	adds	r1, #1
    ccdc:	3a30      	subs	r2, #48	; 0x30
    ccde:	2a09      	cmp	r2, #9
    cce0:	d803      	bhi.n	ccea <_vfiprintf_r+0x1a6>
    cce2:	200a      	movs	r0, #10
    cce4:	fb00 2303 	mla	r3, r0, r3, r2
    cce8:	e7f5      	b.n	ccd6 <_vfiprintf_r+0x192>
    ccea:	9305      	str	r3, [sp, #20]
    ccec:	e766      	b.n	cbbc <_vfiprintf_r+0x78>
    ccee:	ab03      	add	r3, sp, #12
    ccf0:	9300      	str	r3, [sp, #0]
    ccf2:	4630      	mov	r0, r6
    ccf4:	a904      	add	r1, sp, #16
    ccf6:	462a      	mov	r2, r5
    ccf8:	4b13      	ldr	r3, [pc, #76]	; (cd48 <_vfiprintf_r+0x204>)
    ccfa:	f3af 8000 	nop.w
    ccfe:	e007      	b.n	cd10 <_vfiprintf_r+0x1cc>
    cd00:	ab03      	add	r3, sp, #12
    cd02:	9300      	str	r3, [sp, #0]
    cd04:	4630      	mov	r0, r6
    cd06:	a904      	add	r1, sp, #16
    cd08:	462a      	mov	r2, r5
    cd0a:	4b0f      	ldr	r3, [pc, #60]	; (cd48 <_vfiprintf_r+0x204>)
    cd0c:	f000 f89e 	bl	ce4c <_printf_i>
    cd10:	f1b0 3fff 	cmp.w	r0, #4294967295	; 0xffffffff
    cd14:	4680      	mov	r8, r0
    cd16:	f47f af73 	bne.w	cc00 <_vfiprintf_r+0xbc>
    cd1a:	89ab      	ldrh	r3, [r5, #12]
    cd1c:	065b      	lsls	r3, r3, #25
    cd1e:	f53f af3f 	bmi.w	cba0 <_vfiprintf_r+0x5c>
    cd22:	9809      	ldr	r0, [sp, #36]	; 0x24
    cd24:	b01d      	add	sp, #116	; 0x74
    cd26:	e8bd 83f0 	ldmia.w	sp!, {r4, r5, r6, r7, r8, r9, pc}
    cd2a:	bf00      	nop
    cd2c:	0000dd6c 	.word	0x0000dd6c
    cd30:	0000dd8c 	.word	0x0000dd8c
    cd34:	0000ddac 	.word	0x0000ddac
    cd38:	0000ddda 	.word	0x0000ddda
    cd3c:	0000ddde 	.word	0x0000ddde
    cd40:	00000000 	.word	0x00000000
    cd44:	0000ddd4 	.word	0x0000ddd4
    cd48:	0000cb1f 	.word	0x0000cb1f

0000cd4c <vfiprintf>:
    cd4c:	b530      	push	{r4, r5, lr}
    cd4e:	4613      	mov	r3, r2
    cd50:	4a04      	ldr	r2, [pc, #16]	; (cd64 <vfiprintf+0x18>)
    cd52:	4605      	mov	r5, r0
    cd54:	460c      	mov	r4, r1
    cd56:	6810      	ldr	r0, [r2, #0]
    cd58:	4629      	mov	r1, r5
    cd5a:	4622      	mov	r2, r4
    cd5c:	e8bd 4030 	ldmia.w	sp!, {r4, r5, lr}
    cd60:	f7ff bef0 	b.w	cb44 <_vfiprintf_r>
    cd64:	100001d4 	.word	0x100001d4

0000cd68 <_printf_common>:
    cd68:	e92d 43f8 	stmdb	sp!, {r3, r4, r5, r6, r7, r8, r9, lr}
    cd6c:	4615      	mov	r5, r2
    cd6e:	461f      	mov	r7, r3
    cd70:	688a      	ldr	r2, [r1, #8]
    cd72:	690b      	ldr	r3, [r1, #16]
    cd74:	4606      	mov	r6, r0
    cd76:	429a      	cmp	r2, r3
    cd78:	bfa8      	it	ge
    cd7a:	4613      	movge	r3, r2
    cd7c:	602b      	str	r3, [r5, #0]
    cd7e:	f891 2043 	ldrb.w	r2, [r1, #67]	; 0x43
    cd82:	460c      	mov	r4, r1
    cd84:	f8dd 8020 	ldr.w	r8, [sp, #32]
    cd88:	b10a      	cbz	r2, cd8e <_printf_common+0x26>
    cd8a:	3301      	adds	r3, #1
    cd8c:	602b      	str	r3, [r5, #0]
    cd8e:	6823      	ldr	r3, [r4, #0]
    cd90:	0699      	lsls	r1, r3, #26
    cd92:	d502      	bpl.n	cd9a <_printf_common+0x32>
    cd94:	682b      	ldr	r3, [r5, #0]
    cd96:	3302      	adds	r3, #2
    cd98:	602b      	str	r3, [r5, #0]
    cd9a:	6823      	ldr	r3, [r4, #0]
    cd9c:	f013 0906 	ands.w	r9, r3, #6
    cda0:	d01d      	beq.n	cdde <_printf_common+0x76>
    cda2:	f894 3043 	ldrb.w	r3, [r4, #67]	; 0x43
    cda6:	6822      	ldr	r2, [r4, #0]
    cda8:	3300      	adds	r3, #0
    cdaa:	bf18      	it	ne
    cdac:	2301      	movne	r3, #1
    cdae:	0692      	lsls	r2, r2, #26
    cdb0:	d51f      	bpl.n	cdf2 <_printf_common+0x8a>
    cdb2:	18e1      	adds	r1, r4, r3
    cdb4:	2030      	movs	r0, #48	; 0x30
    cdb6:	f881 0043 	strb.w	r0, [r1, #67]	; 0x43
    cdba:	1c5a      	adds	r2, r3, #1
    cdbc:	f894 1045 	ldrb.w	r1, [r4, #69]	; 0x45
    cdc0:	4422      	add	r2, r4
    cdc2:	3302      	adds	r3, #2
    cdc4:	f882 1043 	strb.w	r1, [r2, #67]	; 0x43
    cdc8:	e013      	b.n	cdf2 <_printf_common+0x8a>
    cdca:	4630      	mov	r0, r6
    cdcc:	4639      	mov	r1, r7
    cdce:	f104 0219 	add.w	r2, r4, #25
    cdd2:	2301      	movs	r3, #1
    cdd4:	47c0      	blx	r8
    cdd6:	3001      	adds	r0, #1
    cdd8:	d007      	beq.n	cdea <_printf_common+0x82>
    cdda:	f109 0901 	add.w	r9, r9, #1
    cdde:	68e2      	ldr	r2, [r4, #12]
    cde0:	682b      	ldr	r3, [r5, #0]
    cde2:	1ad3      	subs	r3, r2, r3
    cde4:	4599      	cmp	r9, r3
    cde6:	dbf0      	blt.n	cdca <_printf_common+0x62>
    cde8:	e7db      	b.n	cda2 <_printf_common+0x3a>
    cdea:	f04f 30ff 	mov.w	r0, #4294967295	; 0xffffffff
    cdee:	e8bd 83f8 	ldmia.w	sp!, {r3, r4, r5, r6, r7, r8, r9, pc}
    cdf2:	4630      	mov	r0, r6
    cdf4:	4639      	mov	r1, r7
    cdf6:	f104 0243 	add.w	r2, r4, #67	; 0x43
    cdfa:	47c0      	blx	r8
    cdfc:	3001      	adds	r0, #1
    cdfe:	d0f4      	beq.n	cdea <_printf_common+0x82>
    ce00:	6823      	ldr	r3, [r4, #0]
    ce02:	682a      	ldr	r2, [r5, #0]
    ce04:	f003 0306 	and.w	r3, r3, #6
    ce08:	68e1      	ldr	r1, [r4, #12]
    ce0a:	2b04      	cmp	r3, #4
    ce0c:	bf08      	it	eq
    ce0e:	ebc2 0501 	rsbeq	r5, r2, r1
    ce12:	6923      	ldr	r3, [r4, #16]
    ce14:	68a2      	ldr	r2, [r4, #8]
    ce16:	bf0c      	ite	eq
    ce18:	ea25 75e5 	biceq.w	r5, r5, r5, asr #31
    ce1c:	2500      	movne	r5, #0
    ce1e:	429a      	cmp	r2, r3
    ce20:	bfc4      	itt	gt
    ce22:	ebc3 0302 	rsbgt	r3, r3, r2
    ce26:	18ed      	addgt	r5, r5, r3
    ce28:	f04f 0900 	mov.w	r9, #0
    ce2c:	45a9      	cmp	r9, r5
    ce2e:	da0a      	bge.n	ce46 <_printf_common+0xde>
    ce30:	4630      	mov	r0, r6
    ce32:	4639      	mov	r1, r7
    ce34:	f104 021a 	add.w	r2, r4, #26
    ce38:	2301      	movs	r3, #1
    ce3a:	47c0      	blx	r8
    ce3c:	3001      	adds	r0, #1
    ce3e:	d0d4      	beq.n	cdea <_printf_common+0x82>
    ce40:	f109 0901 	add.w	r9, r9, #1
    ce44:	e7f2      	b.n	ce2c <_printf_common+0xc4>
    ce46:	2000      	movs	r0, #0
    ce48:	e8bd 83f8 	ldmia.w	sp!, {r3, r4, r5, r6, r7, r8, r9, pc}

0000ce4c <_printf_i>:
    ce4c:	e92d 47ff 	stmdb	sp!, {r0, r1, r2, r3, r4, r5, r6, r7, r8, r9, r10, lr}
    ce50:	7e0e      	ldrb	r6, [r1, #24]
    ce52:	4680      	mov	r8, r0
    ce54:	2e6e      	cmp	r6, #110	; 0x6e
    ce56:	460c      	mov	r4, r1
    ce58:	4691      	mov	r9, r2
    ce5a:	469a      	mov	r10, r3
    ce5c:	9d0c      	ldr	r5, [sp, #48]	; 0x30
    ce5e:	f101 0043 	add.w	r0, r1, #67	; 0x43
    ce62:	f000 80a5 	beq.w	cfb0 <_printf_i+0x164>
    ce66:	d811      	bhi.n	ce8c <_printf_i+0x40>
    ce68:	2e63      	cmp	r6, #99	; 0x63
    ce6a:	d022      	beq.n	ceb2 <_printf_i+0x66>
    ce6c:	d809      	bhi.n	ce82 <_printf_i+0x36>
    ce6e:	2e00      	cmp	r6, #0
    ce70:	f000 80af 	beq.w	cfd2 <_printf_i+0x186>
    ce74:	2e58      	cmp	r6, #88	; 0x58
    ce76:	f040 80bf 	bne.w	cff8 <_printf_i+0x1ac>
    ce7a:	f881 6045 	strb.w	r6, [r1, #69]	; 0x45
    ce7e:	4a7b      	ldr	r2, [pc, #492]	; (d06c <_printf_i+0x220>)
    ce80:	e04f      	b.n	cf22 <_printf_i+0xd6>
    ce82:	2e64      	cmp	r6, #100	; 0x64
    ce84:	d01e      	beq.n	cec4 <_printf_i+0x78>
    ce86:	2e69      	cmp	r6, #105	; 0x69
    ce88:	d01c      	beq.n	cec4 <_printf_i+0x78>
    ce8a:	e0b5      	b.n	cff8 <_printf_i+0x1ac>
    ce8c:	2e73      	cmp	r6, #115	; 0x73
    ce8e:	f000 80a4 	beq.w	cfda <_printf_i+0x18e>
    ce92:	d809      	bhi.n	cea8 <_printf_i+0x5c>
    ce94:	2e6f      	cmp	r6, #111	; 0x6f
    ce96:	d02b      	beq.n	cef0 <_printf_i+0xa4>
    ce98:	2e70      	cmp	r6, #112	; 0x70
    ce9a:	f040 80ad 	bne.w	cff8 <_printf_i+0x1ac>
    ce9e:	680b      	ldr	r3, [r1, #0]
    cea0:	f043 0320 	orr.w	r3, r3, #32
    cea4:	600b      	str	r3, [r1, #0]
    cea6:	e038      	b.n	cf1a <_printf_i+0xce>
    cea8:	2e75      	cmp	r6, #117	; 0x75
    ceaa:	d021      	beq.n	cef0 <_printf_i+0xa4>
    ceac:	2e78      	cmp	r6, #120	; 0x78
    ceae:	d034      	beq.n	cf1a <_printf_i+0xce>
    ceb0:	e0a2      	b.n	cff8 <_printf_i+0x1ac>
    ceb2:	682b      	ldr	r3, [r5, #0]
    ceb4:	f101 0742 	add.w	r7, r1, #66	; 0x42
    ceb8:	1d1a      	adds	r2, r3, #4
    ceba:	681b      	ldr	r3, [r3, #0]
    cebc:	602a      	str	r2, [r5, #0]
    cebe:	f881 3042 	strb.w	r3, [r1, #66]	; 0x42
    cec2:	e09d      	b.n	d000 <_printf_i+0x1b4>
    cec4:	6822      	ldr	r2, [r4, #0]
    cec6:	682b      	ldr	r3, [r5, #0]
    cec8:	f012 0f80 	tst.w	r2, #128	; 0x80
    cecc:	d003      	beq.n	ced6 <_printf_i+0x8a>
    cece:	1d1a      	adds	r2, r3, #4
    ced0:	602a      	str	r2, [r5, #0]
    ced2:	681d      	ldr	r5, [r3, #0]
    ced4:	e005      	b.n	cee2 <_printf_i+0x96>
    ced6:	0651      	lsls	r1, r2, #25
    ced8:	d5f9      	bpl.n	cece <_printf_i+0x82>
    ceda:	1d1a      	adds	r2, r3, #4
    cedc:	602a      	str	r2, [r5, #0]
    cede:	f9b3 5000 	ldrsh.w	r5, [r3]
    cee2:	2d00      	cmp	r5, #0
    cee4:	da39      	bge.n	cf5a <_printf_i+0x10e>
    cee6:	232d      	movs	r3, #45	; 0x2d
    cee8:	426d      	negs	r5, r5
    ceea:	f884 3043 	strb.w	r3, [r4, #67]	; 0x43
    ceee:	e034      	b.n	cf5a <_printf_i+0x10e>
    cef0:	6822      	ldr	r2, [r4, #0]
    cef2:	682b      	ldr	r3, [r5, #0]
    cef4:	f012 0f80 	tst.w	r2, #128	; 0x80
    cef8:	d003      	beq.n	cf02 <_printf_i+0xb6>
    cefa:	1d1a      	adds	r2, r3, #4
    cefc:	602a      	str	r2, [r5, #0]
    cefe:	681d      	ldr	r5, [r3, #0]
    cf00:	e004      	b.n	cf0c <_printf_i+0xc0>
    cf02:	0652      	lsls	r2, r2, #25
    cf04:	d5f9      	bpl.n	cefa <_printf_i+0xae>
    cf06:	1d1a      	adds	r2, r3, #4
    cf08:	602a      	str	r2, [r5, #0]
    cf0a:	881d      	ldrh	r5, [r3, #0]
    cf0c:	7e23      	ldrb	r3, [r4, #24]
    cf0e:	4a57      	ldr	r2, [pc, #348]	; (d06c <_printf_i+0x220>)
    cf10:	2b6f      	cmp	r3, #111	; 0x6f
    cf12:	bf14      	ite	ne
    cf14:	230a      	movne	r3, #10
    cf16:	2308      	moveq	r3, #8
    cf18:	e01b      	b.n	cf52 <_printf_i+0x106>
    cf1a:	2378      	movs	r3, #120	; 0x78
    cf1c:	4a54      	ldr	r2, [pc, #336]	; (d070 <_printf_i+0x224>)
    cf1e:	f884 3045 	strb.w	r3, [r4, #69]	; 0x45
    cf22:	6823      	ldr	r3, [r4, #0]
    cf24:	6829      	ldr	r1, [r5, #0]
    cf26:	f013 0f80 	tst.w	r3, #128	; 0x80
    cf2a:	f101 0604 	add.w	r6, r1, #4
    cf2e:	602e      	str	r6, [r5, #0]
    cf30:	d001      	beq.n	cf36 <_printf_i+0xea>
    cf32:	680d      	ldr	r5, [r1, #0]
    cf34:	e002      	b.n	cf3c <_printf_i+0xf0>
    cf36:	065f      	lsls	r7, r3, #25
    cf38:	d5fb      	bpl.n	cf32 <_printf_i+0xe6>
    cf3a:	880d      	ldrh	r5, [r1, #0]
    cf3c:	07de      	lsls	r6, r3, #31
    cf3e:	bf44      	itt	mi
    cf40:	f043 0320 	orrmi.w	r3, r3, #32
    cf44:	6023      	strmi	r3, [r4, #0]
    cf46:	b91d      	cbnz	r5, cf50 <_printf_i+0x104>
    cf48:	6823      	ldr	r3, [r4, #0]
    cf4a:	f023 0320 	bic.w	r3, r3, #32
    cf4e:	6023      	str	r3, [r4, #0]
    cf50:	2310      	movs	r3, #16
    cf52:	2100      	movs	r1, #0
    cf54:	f884 1043 	strb.w	r1, [r4, #67]	; 0x43
    cf58:	e001      	b.n	cf5e <_printf_i+0x112>
    cf5a:	4a44      	ldr	r2, [pc, #272]	; (d06c <_printf_i+0x220>)
    cf5c:	230a      	movs	r3, #10
    cf5e:	6866      	ldr	r6, [r4, #4]
    cf60:	2e00      	cmp	r6, #0
    cf62:	60a6      	str	r6, [r4, #8]
    cf64:	db03      	blt.n	cf6e <_printf_i+0x122>
    cf66:	6821      	ldr	r1, [r4, #0]
    cf68:	f021 0104 	bic.w	r1, r1, #4
    cf6c:	6021      	str	r1, [r4, #0]
    cf6e:	b905      	cbnz	r5, cf72 <_printf_i+0x126>
    cf70:	b16e      	cbz	r6, cf8e <_printf_i+0x142>
    cf72:	f104 0142 	add.w	r1, r4, #66	; 0x42
    cf76:	fbb5 f6f3 	udiv	r6, r5, r3
    cf7a:	fb03 5516 	mls	r5, r3, r6, r5
    cf7e:	5d55      	ldrb	r5, [r2, r5]
    cf80:	460f      	mov	r7, r1
    cf82:	f801 5901 	strb.w	r5, [r1], #-1
    cf86:	4635      	mov	r5, r6
    cf88:	2e00      	cmp	r6, #0
    cf8a:	d1f4      	bne.n	cf76 <_printf_i+0x12a>
    cf8c:	e000      	b.n	cf90 <_printf_i+0x144>
    cf8e:	4607      	mov	r7, r0
    cf90:	2b08      	cmp	r3, #8
    cf92:	d10a      	bne.n	cfaa <_printf_i+0x15e>
    cf94:	6823      	ldr	r3, [r4, #0]
    cf96:	07dd      	lsls	r5, r3, #31
    cf98:	d507      	bpl.n	cfaa <_printf_i+0x15e>
    cf9a:	6862      	ldr	r2, [r4, #4]
    cf9c:	6923      	ldr	r3, [r4, #16]
    cf9e:	429a      	cmp	r2, r3
    cfa0:	dc03      	bgt.n	cfaa <_printf_i+0x15e>
    cfa2:	2330      	movs	r3, #48	; 0x30
    cfa4:	f807 3c01 	strb.w	r3, [r7, #-1]
    cfa8:	3f01      	subs	r7, #1
    cfaa:	1bc0      	subs	r0, r0, r7
    cfac:	6120      	str	r0, [r4, #16]
    cfae:	e02c      	b.n	d00a <_printf_i+0x1be>
    cfb0:	6809      	ldr	r1, [r1, #0]
    cfb2:	682b      	ldr	r3, [r5, #0]
    cfb4:	f011 0f80 	tst.w	r1, #128	; 0x80
    cfb8:	6962      	ldr	r2, [r4, #20]
    cfba:	d004      	beq.n	cfc6 <_printf_i+0x17a>
    cfbc:	1d19      	adds	r1, r3, #4
    cfbe:	6029      	str	r1, [r5, #0]
    cfc0:	681b      	ldr	r3, [r3, #0]
    cfc2:	601a      	str	r2, [r3, #0]
    cfc4:	e005      	b.n	cfd2 <_printf_i+0x186>
    cfc6:	0649      	lsls	r1, r1, #25
    cfc8:	d5f8      	bpl.n	cfbc <_printf_i+0x170>
    cfca:	1d19      	adds	r1, r3, #4
    cfcc:	6029      	str	r1, [r5, #0]
    cfce:	681b      	ldr	r3, [r3, #0]
    cfd0:	801a      	strh	r2, [r3, #0]
    cfd2:	2300      	movs	r3, #0
    cfd4:	6123      	str	r3, [r4, #16]
    cfd6:	4607      	mov	r7, r0
    cfd8:	e017      	b.n	d00a <_printf_i+0x1be>
    cfda:	682b      	ldr	r3, [r5, #0]
    cfdc:	1d1a      	adds	r2, r3, #4
    cfde:	602a      	str	r2, [r5, #0]
    cfe0:	681f      	ldr	r7, [r3, #0]
    cfe2:	4638      	mov	r0, r7
    cfe4:	f7ff f9d1 	bl	c38a <strlen>
    cfe8:	6863      	ldr	r3, [r4, #4]
    cfea:	6120      	str	r0, [r4, #16]
    cfec:	4298      	cmp	r0, r3
    cfee:	bf88      	it	hi
    cff0:	6123      	strhi	r3, [r4, #16]
    cff2:	6923      	ldr	r3, [r4, #16]
    cff4:	6063      	str	r3, [r4, #4]
    cff6:	e005      	b.n	d004 <_printf_i+0x1b8>
    cff8:	f104 0742 	add.w	r7, r4, #66	; 0x42
    cffc:	f884 6042 	strb.w	r6, [r4, #66]	; 0x42
    d000:	2301      	movs	r3, #1
    d002:	6123      	str	r3, [r4, #16]
    d004:	2300      	movs	r3, #0
    d006:	f884 3043 	strb.w	r3, [r4, #67]	; 0x43
    d00a:	f8cd a000 	str.w	r10, [sp]
    d00e:	4640      	mov	r0, r8
    d010:	4621      	mov	r1, r4
    d012:	aa03      	add	r2, sp, #12
    d014:	464b      	mov	r3, r9
    d016:	f7ff fea7 	bl	cd68 <_printf_common>
    d01a:	3001      	adds	r0, #1
    d01c:	d102      	bne.n	d024 <_printf_i+0x1d8>
    d01e:	f04f 30ff 	mov.w	r0, #4294967295	; 0xffffffff
    d022:	e01f      	b.n	d064 <_printf_i+0x218>
    d024:	4640      	mov	r0, r8
    d026:	4649      	mov	r1, r9
    d028:	463a      	mov	r2, r7
    d02a:	6923      	ldr	r3, [r4, #16]
    d02c:	47d0      	blx	r10
    d02e:	3001      	adds	r0, #1
    d030:	d0f5      	beq.n	d01e <_printf_i+0x1d2>
    d032:	6823      	ldr	r3, [r4, #0]
    d034:	079b      	lsls	r3, r3, #30
    d036:	d405      	bmi.n	d044 <_printf_i+0x1f8>
    d038:	68e0      	ldr	r0, [r4, #12]
    d03a:	9b03      	ldr	r3, [sp, #12]
    d03c:	4298      	cmp	r0, r3
    d03e:	bfb8      	it	lt
    d040:	4618      	movlt	r0, r3
    d042:	e00f      	b.n	d064 <_printf_i+0x218>
    d044:	2500      	movs	r5, #0
    d046:	68e2      	ldr	r2, [r4, #12]
    d048:	9b03      	ldr	r3, [sp, #12]
    d04a:	1ad3      	subs	r3, r2, r3
    d04c:	429d      	cmp	r5, r3
    d04e:	daf3      	bge.n	d038 <_printf_i+0x1ec>
    d050:	4640      	mov	r0, r8
    d052:	4649      	mov	r1, r9
    d054:	f104 0219 	add.w	r2, r4, #25
    d058:	2301      	movs	r3, #1
    d05a:	47d0      	blx	r10
    d05c:	3001      	adds	r0, #1
    d05e:	d0de      	beq.n	d01e <_printf_i+0x1d2>
    d060:	3501      	adds	r5, #1
    d062:	e7f0      	b.n	d046 <_printf_i+0x1fa>
    d064:	b004      	add	sp, #16
    d066:	e8bd 87f0 	ldmia.w	sp!, {r4, r5, r6, r7, r8, r9, r10, pc}
    d06a:	bf00      	nop
    d06c:	0000dde5 	.word	0x0000dde5
    d070:	0000ddf6 	.word	0x0000ddf6

0000d074 <_scanf_chars>:
    d074:	e92d 41f0 	stmdb	sp!, {r4, r5, r6, r7, r8, lr}
    d078:	4615      	mov	r5, r2
    d07a:	688a      	ldr	r2, [r1, #8]
    d07c:	4680      	mov	r8, r0
    d07e:	460c      	mov	r4, r1
    d080:	b932      	cbnz	r2, d090 <_scanf_chars+0x1c>
    d082:	698a      	ldr	r2, [r1, #24]
    d084:	2a00      	cmp	r2, #0
    d086:	bf14      	ite	ne
    d088:	f04f 32ff 	movne.w	r2, #4294967295	; 0xffffffff
    d08c:	2201      	moveq	r2, #1
    d08e:	608a      	str	r2, [r1, #8]
    d090:	6822      	ldr	r2, [r4, #0]
    d092:	06d1      	lsls	r1, r2, #27
    d094:	d403      	bmi.n	d09e <_scanf_chars+0x2a>
    d096:	681a      	ldr	r2, [r3, #0]
    d098:	1d11      	adds	r1, r2, #4
    d09a:	6019      	str	r1, [r3, #0]
    d09c:	6817      	ldr	r7, [r2, #0]
    d09e:	2600      	movs	r6, #0
    d0a0:	69a0      	ldr	r0, [r4, #24]
    d0a2:	b9e0      	cbnz	r0, d0de <_scanf_chars+0x6a>
    d0a4:	6823      	ldr	r3, [r4, #0]
    d0a6:	3601      	adds	r6, #1
    d0a8:	06da      	lsls	r2, r3, #27
    d0aa:	d404      	bmi.n	d0b6 <_scanf_chars+0x42>
    d0ac:	682b      	ldr	r3, [r5, #0]
    d0ae:	3701      	adds	r7, #1
    d0b0:	781b      	ldrb	r3, [r3, #0]
    d0b2:	f807 3c01 	strb.w	r3, [r7, #-1]
    d0b6:	682a      	ldr	r2, [r5, #0]
    d0b8:	686b      	ldr	r3, [r5, #4]
    d0ba:	3201      	adds	r2, #1
    d0bc:	602a      	str	r2, [r5, #0]
    d0be:	68a2      	ldr	r2, [r4, #8]
    d0c0:	3b01      	subs	r3, #1
    d0c2:	3a01      	subs	r2, #1
    d0c4:	606b      	str	r3, [r5, #4]
    d0c6:	60a2      	str	r2, [r4, #8]
    d0c8:	b312      	cbz	r2, d110 <_scanf_chars+0x9c>
    d0ca:	2b00      	cmp	r3, #0
    d0cc:	dce8      	bgt.n	d0a0 <_scanf_chars+0x2c>
    d0ce:	f8d4 3180 	ldr.w	r3, [r4, #384]	; 0x180
    d0d2:	4640      	mov	r0, r8
    d0d4:	4629      	mov	r1, r5
    d0d6:	4798      	blx	r3
    d0d8:	2800      	cmp	r0, #0
    d0da:	d0e1      	beq.n	d0a0 <_scanf_chars+0x2c>
    d0dc:	e018      	b.n	d110 <_scanf_chars+0x9c>
    d0de:	2801      	cmp	r0, #1
    d0e0:	d107      	bne.n	d0f2 <_scanf_chars+0x7e>
    d0e2:	682a      	ldr	r2, [r5, #0]
    d0e4:	7811      	ldrb	r1, [r2, #0]
    d0e6:	6962      	ldr	r2, [r4, #20]
    d0e8:	5c52      	ldrb	r2, [r2, r1]
    d0ea:	2a00      	cmp	r2, #0
    d0ec:	d1da      	bne.n	d0a4 <_scanf_chars+0x30>
    d0ee:	b1ee      	cbz	r6, d12c <_scanf_chars+0xb8>
    d0f0:	e00e      	b.n	d110 <_scanf_chars+0x9c>
    d0f2:	2802      	cmp	r0, #2
    d0f4:	d001      	beq.n	d0fa <_scanf_chars+0x86>
    d0f6:	b14e      	cbz	r6, d10c <_scanf_chars+0x98>
    d0f8:	e00a      	b.n	d110 <_scanf_chars+0x9c>
    d0fa:	682a      	ldr	r2, [r5, #0]
    d0fc:	490c      	ldr	r1, [pc, #48]	; (d130 <_scanf_chars+0xbc>)
    d0fe:	7812      	ldrb	r2, [r2, #0]
    d100:	6809      	ldr	r1, [r1, #0]
    d102:	440a      	add	r2, r1
    d104:	7852      	ldrb	r2, [r2, #1]
    d106:	0713      	lsls	r3, r2, #28
    d108:	d5cc      	bpl.n	d0a4 <_scanf_chars+0x30>
    d10a:	e7f4      	b.n	d0f6 <_scanf_chars+0x82>
    d10c:	2801      	cmp	r0, #1
    d10e:	d00d      	beq.n	d12c <_scanf_chars+0xb8>
    d110:	6823      	ldr	r3, [r4, #0]
    d112:	f013 0310 	ands.w	r3, r3, #16
    d116:	d105      	bne.n	d124 <_scanf_chars+0xb0>
    d118:	68e2      	ldr	r2, [r4, #12]
    d11a:	3201      	adds	r2, #1
    d11c:	60e2      	str	r2, [r4, #12]
    d11e:	69a2      	ldr	r2, [r4, #24]
    d120:	b102      	cbz	r2, d124 <_scanf_chars+0xb0>
    d122:	703b      	strb	r3, [r7, #0]
    d124:	6923      	ldr	r3, [r4, #16]
    d126:	2000      	movs	r0, #0
    d128:	441e      	add	r6, r3
    d12a:	6126      	str	r6, [r4, #16]
    d12c:	e8bd 81f0 	ldmia.w	sp!, {r4, r5, r6, r7, r8, pc}
    d130:	100001d8 	.word	0x100001d8

0000d134 <_scanf_i>:
    d134:	e92d 4ff0 	stmdb	sp!, {r4, r5, r6, r7, r8, r9, r10, r11, lr}
    d138:	b089      	sub	sp, #36	; 0x24
    d13a:	460c      	mov	r4, r1
    d13c:	4698      	mov	r8, r3
    d13e:	a905      	add	r1, sp, #20
    d140:	4b73      	ldr	r3, [pc, #460]	; (d310 <_scanf_i+0x1dc>)
    d142:	9102      	str	r1, [sp, #8]
    d144:	4681      	mov	r9, r0
    d146:	4616      	mov	r6, r2
    d148:	e893 0007 	ldmia.w	r3, {r0, r1, r2}
    d14c:	9b02      	ldr	r3, [sp, #8]
    d14e:	e883 0007 	stmia.w	r3, {r0, r1, r2}
    d152:	69a3      	ldr	r3, [r4, #24]
    d154:	4a6f      	ldr	r2, [pc, #444]	; (d314 <_scanf_i+0x1e0>)
    d156:	4970      	ldr	r1, [pc, #448]	; (d318 <_scanf_i+0x1e4>)
    d158:	2b03      	cmp	r3, #3
    d15a:	bf08      	it	eq
    d15c:	4611      	moveq	r1, r2
    d15e:	68a3      	ldr	r3, [r4, #8]
    d160:	9103      	str	r1, [sp, #12]
    d162:	1e5a      	subs	r2, r3, #1
    d164:	f5b2 7fae 	cmp.w	r2, #348	; 0x15c
    d168:	d907      	bls.n	d17a <_scanf_i+0x46>
    d16a:	f46f 75ae 	mvn.w	r5, #348	; 0x15c
    d16e:	eb03 0a05 	add.w	r10, r3, r5
    d172:	f240 135d 	movw	r3, #349	; 0x15d
    d176:	60a3      	str	r3, [r4, #8]
    d178:	e001      	b.n	d17e <_scanf_i+0x4a>
    d17a:	f04f 0a00 	mov.w	r10, #0
    d17e:	6823      	ldr	r3, [r4, #0]
    d180:	f104 071c 	add.w	r7, r4, #28
    d184:	f443 6350 	orr.w	r3, r3, #3328	; 0xd00
    d188:	6023      	str	r3, [r4, #0]
    d18a:	46bb      	mov	r11, r7
    d18c:	2300      	movs	r3, #0
    d18e:	6832      	ldr	r2, [r6, #0]
    d190:	a905      	add	r1, sp, #20
    d192:	f851 0023 	ldr.w	r0, [r1, r3, lsl #2]
    d196:	7811      	ldrb	r1, [r2, #0]
    d198:	2202      	movs	r2, #2
    d19a:	9301      	str	r3, [sp, #4]
    d19c:	f000 fa5e 	bl	d65c <memchr>
    d1a0:	9b01      	ldr	r3, [sp, #4]
    d1a2:	2800      	cmp	r0, #0
    d1a4:	d035      	beq.n	d212 <_scanf_i+0xde>
    d1a6:	2b01      	cmp	r3, #1
    d1a8:	d10b      	bne.n	d1c2 <_scanf_i+0x8e>
    d1aa:	6862      	ldr	r2, [r4, #4]
    d1ac:	b92a      	cbnz	r2, d1ba <_scanf_i+0x86>
    d1ae:	2208      	movs	r2, #8
    d1b0:	6062      	str	r2, [r4, #4]
    d1b2:	6822      	ldr	r2, [r4, #0]
    d1b4:	f442 7200 	orr.w	r2, r2, #512	; 0x200
    d1b8:	6022      	str	r2, [r4, #0]
    d1ba:	6822      	ldr	r2, [r4, #0]
    d1bc:	f422 62a0 	bic.w	r2, r2, #1280	; 0x500
    d1c0:	e00b      	b.n	d1da <_scanf_i+0xa6>
    d1c2:	2b02      	cmp	r3, #2
    d1c4:	d10a      	bne.n	d1dc <_scanf_i+0xa8>
    d1c6:	6822      	ldr	r2, [r4, #0]
    d1c8:	f402 61c0 	and.w	r1, r2, #1536	; 0x600
    d1cc:	f5b1 7f00 	cmp.w	r1, #512	; 0x200
    d1d0:	d11f      	bne.n	d212 <_scanf_i+0xde>
    d1d2:	2110      	movs	r1, #16
    d1d4:	6061      	str	r1, [r4, #4]
    d1d6:	f442 7280 	orr.w	r2, r2, #256	; 0x100
    d1da:	6022      	str	r2, [r4, #0]
    d1dc:	68a2      	ldr	r2, [r4, #8]
    d1de:	1e51      	subs	r1, r2, #1
    d1e0:	60a1      	str	r1, [r4, #8]
    d1e2:	b1b2      	cbz	r2, d212 <_scanf_i+0xde>
    d1e4:	6832      	ldr	r2, [r6, #0]
    d1e6:	f10b 0501 	add.w	r5, r11, #1
    d1ea:	1c51      	adds	r1, r2, #1
    d1ec:	6031      	str	r1, [r6, #0]
    d1ee:	7812      	ldrb	r2, [r2, #0]
    d1f0:	f88b 2000 	strb.w	r2, [r11]
    d1f4:	6872      	ldr	r2, [r6, #4]
    d1f6:	3a01      	subs	r2, #1
    d1f8:	2a00      	cmp	r2, #0
    d1fa:	6072      	str	r2, [r6, #4]
    d1fc:	dc08      	bgt.n	d210 <_scanf_i+0xdc>
    d1fe:	9301      	str	r3, [sp, #4]
    d200:	f8d4 2180 	ldr.w	r2, [r4, #384]	; 0x180
    d204:	4648      	mov	r0, r9
    d206:	4631      	mov	r1, r6
    d208:	4790      	blx	r2
    d20a:	9b01      	ldr	r3, [sp, #4]
    d20c:	2800      	cmp	r0, #0
    d20e:	d141      	bne.n	d294 <_scanf_i+0x160>
    d210:	46ab      	mov	r11, r5
    d212:	3301      	adds	r3, #1
    d214:	2b03      	cmp	r3, #3
    d216:	d1ba      	bne.n	d18e <_scanf_i+0x5a>
    d218:	6863      	ldr	r3, [r4, #4]
    d21a:	b90b      	cbnz	r3, d220 <_scanf_i+0xec>
    d21c:	230a      	movs	r3, #10
    d21e:	6063      	str	r3, [r4, #4]
    d220:	6863      	ldr	r3, [r4, #4]
    d222:	493e      	ldr	r1, [pc, #248]	; (d31c <_scanf_i+0x1e8>)
    d224:	6960      	ldr	r0, [r4, #20]
    d226:	1ac9      	subs	r1, r1, r3
    d228:	f000 fa82 	bl	d730 <__sccl>
    d22c:	465d      	mov	r5, r11
    d22e:	f04f 0b00 	mov.w	r11, #0
    d232:	68a3      	ldr	r3, [r4, #8]
    d234:	2b00      	cmp	r3, #0
    d236:	d02f      	beq.n	d298 <_scanf_i+0x164>
    d238:	6832      	ldr	r2, [r6, #0]
    d23a:	6960      	ldr	r0, [r4, #20]
    d23c:	7811      	ldrb	r1, [r2, #0]
    d23e:	5c40      	ldrb	r0, [r0, r1]
    d240:	b350      	cbz	r0, d298 <_scanf_i+0x164>
    d242:	2930      	cmp	r1, #48	; 0x30
    d244:	6821      	ldr	r1, [r4, #0]
    d246:	d10b      	bne.n	d260 <_scanf_i+0x12c>
    d248:	0508      	lsls	r0, r1, #20
    d24a:	d509      	bpl.n	d260 <_scanf_i+0x12c>
    d24c:	f10b 0b01 	add.w	r11, r11, #1
    d250:	f1ba 0f00 	cmp.w	r10, #0
    d254:	d00b      	beq.n	d26e <_scanf_i+0x13a>
    d256:	3301      	adds	r3, #1
    d258:	f10a 3aff 	add.w	r10, r10, #4294967295	; 0xffffffff
    d25c:	60a3      	str	r3, [r4, #8]
    d25e:	e006      	b.n	d26e <_scanf_i+0x13a>
    d260:	f421 6110 	bic.w	r1, r1, #2304	; 0x900
    d264:	6021      	str	r1, [r4, #0]
    d266:	7813      	ldrb	r3, [r2, #0]
    d268:	3501      	adds	r5, #1
    d26a:	f805 3c01 	strb.w	r3, [r5, #-1]
    d26e:	6873      	ldr	r3, [r6, #4]
    d270:	3b01      	subs	r3, #1
    d272:	2b00      	cmp	r3, #0
    d274:	6073      	str	r3, [r6, #4]
    d276:	dd03      	ble.n	d280 <_scanf_i+0x14c>
    d278:	6833      	ldr	r3, [r6, #0]
    d27a:	3301      	adds	r3, #1
    d27c:	6033      	str	r3, [r6, #0]
    d27e:	e005      	b.n	d28c <_scanf_i+0x158>
    d280:	f8d4 3180 	ldr.w	r3, [r4, #384]	; 0x180
    d284:	4648      	mov	r0, r9
    d286:	4631      	mov	r1, r6
    d288:	4798      	blx	r3
    d28a:	b928      	cbnz	r0, d298 <_scanf_i+0x164>
    d28c:	68a3      	ldr	r3, [r4, #8]
    d28e:	3b01      	subs	r3, #1
    d290:	60a3      	str	r3, [r4, #8]
    d292:	e7ce      	b.n	d232 <_scanf_i+0xfe>
    d294:	f04f 0b00 	mov.w	r11, #0
    d298:	6823      	ldr	r3, [r4, #0]
    d29a:	05d9      	lsls	r1, r3, #23
    d29c:	d50d      	bpl.n	d2ba <_scanf_i+0x186>
    d29e:	42bd      	cmp	r5, r7
    d2a0:	d909      	bls.n	d2b6 <_scanf_i+0x182>
    d2a2:	f815 1c01 	ldrb.w	r1, [r5, #-1]
    d2a6:	f8d4 317c 	ldr.w	r3, [r4, #380]	; 0x17c
    d2aa:	4648      	mov	r0, r9
    d2ac:	4632      	mov	r2, r6
    d2ae:	4798      	blx	r3
    d2b0:	f105 3aff 	add.w	r10, r5, #4294967295	; 0xffffffff
    d2b4:	4655      	mov	r5, r10
    d2b6:	42bd      	cmp	r5, r7
    d2b8:	d026      	beq.n	d308 <_scanf_i+0x1d4>
    d2ba:	6822      	ldr	r2, [r4, #0]
    d2bc:	f012 0210 	ands.w	r2, r2, #16
    d2c0:	d11b      	bne.n	d2fa <_scanf_i+0x1c6>
    d2c2:	702a      	strb	r2, [r5, #0]
    d2c4:	6863      	ldr	r3, [r4, #4]
    d2c6:	4648      	mov	r0, r9
    d2c8:	4639      	mov	r1, r7
    d2ca:	9e03      	ldr	r6, [sp, #12]
    d2cc:	47b0      	blx	r6
    d2ce:	6822      	ldr	r2, [r4, #0]
    d2d0:	f8d8 3000 	ldr.w	r3, [r8]
    d2d4:	f012 0f20 	tst.w	r2, #32
    d2d8:	d107      	bne.n	d2ea <_scanf_i+0x1b6>
    d2da:	07d2      	lsls	r2, r2, #31
    d2dc:	d505      	bpl.n	d2ea <_scanf_i+0x1b6>
    d2de:	1d1a      	adds	r2, r3, #4
    d2e0:	f8c8 2000 	str.w	r2, [r8]
    d2e4:	681b      	ldr	r3, [r3, #0]
    d2e6:	8018      	strh	r0, [r3, #0]
    d2e8:	e004      	b.n	d2f4 <_scanf_i+0x1c0>
    d2ea:	1d1a      	adds	r2, r3, #4
    d2ec:	f8c8 2000 	str.w	r2, [r8]
    d2f0:	681b      	ldr	r3, [r3, #0]
    d2f2:	6018      	str	r0, [r3, #0]
    d2f4:	68e3      	ldr	r3, [r4, #12]
    d2f6:	3301      	adds	r3, #1
    d2f8:	60e3      	str	r3, [r4, #12]
    d2fa:	6923      	ldr	r3, [r4, #16]
    d2fc:	1bed      	subs	r5, r5, r7
    d2fe:	44ab      	add	r11, r5
    d300:	445b      	add	r3, r11
    d302:	6123      	str	r3, [r4, #16]
    d304:	2000      	movs	r0, #0
    d306:	e000      	b.n	d30a <_scanf_i+0x1d6>
    d308:	2001      	movs	r0, #1
    d30a:	b009      	add	sp, #36	; 0x24
    d30c:	e8bd 8ff0 	ldmia.w	sp!, {r4, r5, r6, r7, r8, r9, r10, r11, pc}
    d310:	0000de08 	.word	0x0000de08
    d314:	0000c39d 	.word	0x0000c39d
    d318:	0000d795 	.word	0x0000d795
    d31c:	0000de24 	.word	0x0000de24

0000d320 <__swbuf_r>:
    d320:	b570      	push	{r4, r5, r6, lr}
    d322:	460e      	mov	r6, r1
    d324:	4614      	mov	r4, r2
    d326:	4605      	mov	r5, r0
    d328:	b118      	cbz	r0, d332 <__swbuf_r+0x12>
    d32a:	6983      	ldr	r3, [r0, #24]
    d32c:	b90b      	cbnz	r3, d332 <__swbuf_r+0x12>
    d32e:	f7fe fdab 	bl	be88 <__sinit>
    d332:	4b22      	ldr	r3, [pc, #136]	; (d3bc <__swbuf_r+0x9c>)
    d334:	429c      	cmp	r4, r3
    d336:	d101      	bne.n	d33c <__swbuf_r+0x1c>
    d338:	686c      	ldr	r4, [r5, #4]
    d33a:	e008      	b.n	d34e <__swbuf_r+0x2e>
    d33c:	4b20      	ldr	r3, [pc, #128]	; (d3c0 <__swbuf_r+0xa0>)
    d33e:	429c      	cmp	r4, r3
    d340:	d101      	bne.n	d346 <__swbuf_r+0x26>
    d342:	68ac      	ldr	r4, [r5, #8]
    d344:	e003      	b.n	d34e <__swbuf_r+0x2e>
    d346:	4b1f      	ldr	r3, [pc, #124]	; (d3c4 <__swbuf_r+0xa4>)
    d348:	429c      	cmp	r4, r3
    d34a:	bf08      	it	eq
    d34c:	68ec      	ldreq	r4, [r5, #12]
    d34e:	69a3      	ldr	r3, [r4, #24]
    d350:	60a3      	str	r3, [r4, #8]
    d352:	89a3      	ldrh	r3, [r4, #12]
    d354:	071a      	lsls	r2, r3, #28
    d356:	d509      	bpl.n	d36c <__swbuf_r+0x4c>
    d358:	6923      	ldr	r3, [r4, #16]
    d35a:	b13b      	cbz	r3, d36c <__swbuf_r+0x4c>
    d35c:	6923      	ldr	r3, [r4, #16]
    d35e:	6820      	ldr	r0, [r4, #0]
    d360:	b2f6      	uxtb	r6, r6
    d362:	1ac0      	subs	r0, r0, r3
    d364:	6963      	ldr	r3, [r4, #20]
    d366:	4298      	cmp	r0, r3
    d368:	db0f      	blt.n	d38a <__swbuf_r+0x6a>
    d36a:	e008      	b.n	d37e <__swbuf_r+0x5e>
    d36c:	4628      	mov	r0, r5
    d36e:	4621      	mov	r1, r4
    d370:	f000 f83c 	bl	d3ec <__swsetup_r>
    d374:	2800      	cmp	r0, #0
    d376:	d0f1      	beq.n	d35c <__swbuf_r+0x3c>
    d378:	f04f 30ff 	mov.w	r0, #4294967295	; 0xffffffff
    d37c:	bd70      	pop	{r4, r5, r6, pc}
    d37e:	4628      	mov	r0, r5
    d380:	4621      	mov	r1, r4
    d382:	f7fe fcf1 	bl	bd68 <_fflush_r>
    d386:	2800      	cmp	r0, #0
    d388:	d1f6      	bne.n	d378 <__swbuf_r+0x58>
    d38a:	68a3      	ldr	r3, [r4, #8]
    d38c:	3001      	adds	r0, #1
    d38e:	3b01      	subs	r3, #1
    d390:	60a3      	str	r3, [r4, #8]
    d392:	6823      	ldr	r3, [r4, #0]
    d394:	1c5a      	adds	r2, r3, #1
    d396:	6022      	str	r2, [r4, #0]
    d398:	701e      	strb	r6, [r3, #0]
    d39a:	6963      	ldr	r3, [r4, #20]
    d39c:	4298      	cmp	r0, r3
    d39e:	d004      	beq.n	d3aa <__swbuf_r+0x8a>
    d3a0:	89a3      	ldrh	r3, [r4, #12]
    d3a2:	07db      	lsls	r3, r3, #31
    d3a4:	d507      	bpl.n	d3b6 <__swbuf_r+0x96>
    d3a6:	2e0a      	cmp	r6, #10
    d3a8:	d105      	bne.n	d3b6 <__swbuf_r+0x96>
    d3aa:	4628      	mov	r0, r5
    d3ac:	4621      	mov	r1, r4
    d3ae:	f7fe fcdb 	bl	bd68 <_fflush_r>
    d3b2:	2800      	cmp	r0, #0
    d3b4:	d1e0      	bne.n	d378 <__swbuf_r+0x58>
    d3b6:	4630      	mov	r0, r6
    d3b8:	bd70      	pop	{r4, r5, r6, pc}
    d3ba:	bf00      	nop
    d3bc:	0000dd6c 	.word	0x0000dd6c
    d3c0:	0000dd8c 	.word	0x0000dd8c
    d3c4:	0000ddac 	.word	0x0000ddac

0000d3c8 <_write_r>:
    d3c8:	b538      	push	{r3, r4, r5, lr}
    d3ca:	4c07      	ldr	r4, [pc, #28]	; (d3e8 <_write_r+0x20>)
    d3cc:	4605      	mov	r5, r0
    d3ce:	2000      	movs	r0, #0
    d3d0:	6020      	str	r0, [r4, #0]
    d3d2:	4608      	mov	r0, r1
    d3d4:	4611      	mov	r1, r2
    d3d6:	461a      	mov	r2, r3
    d3d8:	f7fd fea8 	bl	b12c <_write>
    d3dc:	1c43      	adds	r3, r0, #1
    d3de:	d102      	bne.n	d3e6 <_write_r+0x1e>
    d3e0:	6823      	ldr	r3, [r4, #0]
    d3e2:	b103      	cbz	r3, d3e6 <_write_r+0x1e>
    d3e4:	602b      	str	r3, [r5, #0]
    d3e6:	bd38      	pop	{r3, r4, r5, pc}
    d3e8:	10001bb8 	.word	0x10001bb8

0000d3ec <__swsetup_r>:
    d3ec:	4b32      	ldr	r3, [pc, #200]	; (d4b8 <__swsetup_r+0xcc>)
    d3ee:	b570      	push	{r4, r5, r6, lr}
    d3f0:	681d      	ldr	r5, [r3, #0]
    d3f2:	4606      	mov	r6, r0
    d3f4:	460c      	mov	r4, r1
    d3f6:	b125      	cbz	r5, d402 <__swsetup_r+0x16>
    d3f8:	69ab      	ldr	r3, [r5, #24]
    d3fa:	b913      	cbnz	r3, d402 <__swsetup_r+0x16>
    d3fc:	4628      	mov	r0, r5
    d3fe:	f7fe fd43 	bl	be88 <__sinit>
    d402:	4b2e      	ldr	r3, [pc, #184]	; (d4bc <__swsetup_r+0xd0>)
    d404:	429c      	cmp	r4, r3
    d406:	d101      	bne.n	d40c <__swsetup_r+0x20>
    d408:	686c      	ldr	r4, [r5, #4]
    d40a:	e008      	b.n	d41e <__swsetup_r+0x32>
    d40c:	4b2c      	ldr	r3, [pc, #176]	; (d4c0 <__swsetup_r+0xd4>)
    d40e:	429c      	cmp	r4, r3
    d410:	d101      	bne.n	d416 <__swsetup_r+0x2a>
    d412:	68ac      	ldr	r4, [r5, #8]
    d414:	e003      	b.n	d41e <__swsetup_r+0x32>
    d416:	4b2b      	ldr	r3, [pc, #172]	; (d4c4 <__swsetup_r+0xd8>)
    d418:	429c      	cmp	r4, r3
    d41a:	bf08      	it	eq
    d41c:	68ec      	ldreq	r4, [r5, #12]
    d41e:	89a2      	ldrh	r2, [r4, #12]
    d420:	b293      	uxth	r3, r2
    d422:	0719      	lsls	r1, r3, #28
    d424:	d420      	bmi.n	d468 <__swsetup_r+0x7c>
    d426:	06dd      	lsls	r5, r3, #27
    d428:	d405      	bmi.n	d436 <__swsetup_r+0x4a>
    d42a:	2309      	movs	r3, #9
    d42c:	f042 0240 	orr.w	r2, r2, #64	; 0x40
    d430:	6033      	str	r3, [r6, #0]
    d432:	81a2      	strh	r2, [r4, #12]
    d434:	e03b      	b.n	d4ae <__swsetup_r+0xc2>
    d436:	0758      	lsls	r0, r3, #29
    d438:	d512      	bpl.n	d460 <__swsetup_r+0x74>
    d43a:	6b61      	ldr	r1, [r4, #52]	; 0x34
    d43c:	b141      	cbz	r1, d450 <__swsetup_r+0x64>
    d43e:	f104 0344 	add.w	r3, r4, #68	; 0x44
    d442:	4299      	cmp	r1, r3
    d444:	d002      	beq.n	d44c <__swsetup_r+0x60>
    d446:	4630      	mov	r0, r6
    d448:	f7fe fdf2 	bl	c030 <_free_r>
    d44c:	2300      	movs	r3, #0
    d44e:	6363      	str	r3, [r4, #52]	; 0x34
    d450:	89a3      	ldrh	r3, [r4, #12]
    d452:	f023 0324 	bic.w	r3, r3, #36	; 0x24
    d456:	81a3      	strh	r3, [r4, #12]
    d458:	2300      	movs	r3, #0
    d45a:	6063      	str	r3, [r4, #4]
    d45c:	6923      	ldr	r3, [r4, #16]
    d45e:	6023      	str	r3, [r4, #0]
    d460:	89a3      	ldrh	r3, [r4, #12]
    d462:	f043 0308 	orr.w	r3, r3, #8
    d466:	81a3      	strh	r3, [r4, #12]
    d468:	6923      	ldr	r3, [r4, #16]
    d46a:	b94b      	cbnz	r3, d480 <__swsetup_r+0x94>
    d46c:	89a3      	ldrh	r3, [r4, #12]
    d46e:	f403 7320 	and.w	r3, r3, #640	; 0x280
    d472:	f5b3 7f00 	cmp.w	r3, #512	; 0x200
    d476:	d003      	beq.n	d480 <__swsetup_r+0x94>
    d478:	4630      	mov	r0, r6
    d47a:	4621      	mov	r1, r4
    d47c:	f000 f8a2 	bl	d5c4 <__smakebuf_r>
    d480:	89a3      	ldrh	r3, [r4, #12]
    d482:	f013 0201 	ands.w	r2, r3, #1
    d486:	d005      	beq.n	d494 <__swsetup_r+0xa8>
    d488:	2200      	movs	r2, #0
    d48a:	60a2      	str	r2, [r4, #8]
    d48c:	6962      	ldr	r2, [r4, #20]
    d48e:	4252      	negs	r2, r2
    d490:	61a2      	str	r2, [r4, #24]
    d492:	e003      	b.n	d49c <__swsetup_r+0xb0>
    d494:	0799      	lsls	r1, r3, #30
    d496:	bf58      	it	pl
    d498:	6962      	ldrpl	r2, [r4, #20]
    d49a:	60a2      	str	r2, [r4, #8]
    d49c:	6922      	ldr	r2, [r4, #16]
    d49e:	b94a      	cbnz	r2, d4b4 <__swsetup_r+0xc8>
    d4a0:	f003 0080 	and.w	r0, r3, #128	; 0x80
    d4a4:	b280      	uxth	r0, r0
    d4a6:	b130      	cbz	r0, d4b6 <__swsetup_r+0xca>
    d4a8:	f043 0340 	orr.w	r3, r3, #64	; 0x40
    d4ac:	81a3      	strh	r3, [r4, #12]
    d4ae:	f04f 30ff 	mov.w	r0, #4294967295	; 0xffffffff
    d4b2:	bd70      	pop	{r4, r5, r6, pc}
    d4b4:	2000      	movs	r0, #0
    d4b6:	bd70      	pop	{r4, r5, r6, pc}
    d4b8:	100001d4 	.word	0x100001d4
    d4bc:	0000dd6c 	.word	0x0000dd6c
    d4c0:	0000dd8c 	.word	0x0000dd8c
    d4c4:	0000ddac 	.word	0x0000ddac

0000d4c8 <__register_exitproc>:
    d4c8:	e92d 43f8 	stmdb	sp!, {r3, r4, r5, r6, r7, r8, r9, lr}
    d4cc:	4d29      	ldr	r5, [pc, #164]	; (d574 <__register_exitproc+0xac>)
    d4ce:	4606      	mov	r6, r0
    d4d0:	682c      	ldr	r4, [r5, #0]
    d4d2:	460f      	mov	r7, r1
    d4d4:	4691      	mov	r9, r2
    d4d6:	4698      	mov	r8, r3
    d4d8:	b90c      	cbnz	r4, d4de <__register_exitproc+0x16>
    d4da:	4c27      	ldr	r4, [pc, #156]	; (d578 <__register_exitproc+0xb0>)
    d4dc:	602c      	str	r4, [r5, #0]
    d4de:	6863      	ldr	r3, [r4, #4]
    d4e0:	2b1f      	cmp	r3, #31
    d4e2:	dd12      	ble.n	d50a <__register_exitproc+0x42>
    d4e4:	4b25      	ldr	r3, [pc, #148]	; (d57c <__register_exitproc+0xb4>)
    d4e6:	b91b      	cbnz	r3, d4f0 <__register_exitproc+0x28>
    d4e8:	f04f 30ff 	mov.w	r0, #4294967295	; 0xffffffff
    d4ec:	e8bd 83f8 	ldmia.w	sp!, {r3, r4, r5, r6, r7, r8, r9, pc}
    d4f0:	208c      	movs	r0, #140	; 0x8c
    d4f2:	f7f2 fe77 	bl	1e4 <__wrap_malloc>
    d4f6:	4604      	mov	r4, r0
    d4f8:	2800      	cmp	r0, #0
    d4fa:	d0f5      	beq.n	d4e8 <__register_exitproc+0x20>
    d4fc:	682a      	ldr	r2, [r5, #0]
    d4fe:	2300      	movs	r3, #0
    d500:	6002      	str	r2, [r0, #0]
    d502:	6043      	str	r3, [r0, #4]
    d504:	6028      	str	r0, [r5, #0]
    d506:	f8c0 3088 	str.w	r3, [r0, #136]	; 0x88
    d50a:	b34e      	cbz	r6, d560 <__register_exitproc+0x98>
    d50c:	f8d4 0088 	ldr.w	r0, [r4, #136]	; 0x88
    d510:	b978      	cbnz	r0, d532 <__register_exitproc+0x6a>
    d512:	4b1a      	ldr	r3, [pc, #104]	; (d57c <__register_exitproc+0xb4>)
    d514:	2b00      	cmp	r3, #0
    d516:	d0e7      	beq.n	d4e8 <__register_exitproc+0x20>
    d518:	f44f 7084 	mov.w	r0, #264	; 0x108
    d51c:	f7f2 fe62 	bl	1e4 <__wrap_malloc>
    d520:	2800      	cmp	r0, #0
    d522:	d0e1      	beq.n	d4e8 <__register_exitproc+0x20>
    d524:	2300      	movs	r3, #0
    d526:	f8c0 3100 	str.w	r3, [r0, #256]	; 0x100
    d52a:	f8c0 3104 	str.w	r3, [r0, #260]	; 0x104
    d52e:	f8c4 0088 	str.w	r0, [r4, #136]	; 0x88
    d532:	6865      	ldr	r5, [r4, #4]
    d534:	2301      	movs	r3, #1
    d536:	f840 9025 	str.w	r9, [r0, r5, lsl #2]
    d53a:	eb00 0285 	add.w	r2, r0, r5, lsl #2
    d53e:	fa03 f505 	lsl.w	r5, r3, r5
    d542:	f8d0 3100 	ldr.w	r3, [r0, #256]	; 0x100
    d546:	2e02      	cmp	r6, #2
    d548:	ea43 0305 	orr.w	r3, r3, r5
    d54c:	f8c0 3100 	str.w	r3, [r0, #256]	; 0x100
    d550:	f8c2 8080 	str.w	r8, [r2, #128]	; 0x80
    d554:	d104      	bne.n	d560 <__register_exitproc+0x98>
    d556:	f8d0 3104 	ldr.w	r3, [r0, #260]	; 0x104
    d55a:	431d      	orrs	r5, r3
    d55c:	f8c0 5104 	str.w	r5, [r0, #260]	; 0x104
    d560:	6863      	ldr	r3, [r4, #4]
    d562:	2000      	movs	r0, #0
    d564:	1c5a      	adds	r2, r3, #1
    d566:	3302      	adds	r3, #2
    d568:	6062      	str	r2, [r4, #4]
    d56a:	f844 7023 	str.w	r7, [r4, r3, lsl #2]
    d56e:	e8bd 83f8 	ldmia.w	sp!, {r3, r4, r5, r6, r7, r8, r9, pc}
    d572:	bf00      	nop
    d574:	10000fb0 	.word	0x10000fb0
    d578:	10000f24 	.word	0x10000f24
    d57c:	000001e5 	.word	0x000001e5

0000d580 <_close_r>:
    d580:	b538      	push	{r3, r4, r5, lr}
    d582:	4c06      	ldr	r4, [pc, #24]	; (d59c <_close_r+0x1c>)
    d584:	2300      	movs	r3, #0
    d586:	4605      	mov	r5, r0
    d588:	4608      	mov	r0, r1
    d58a:	6023      	str	r3, [r4, #0]
    d58c:	f7fd fdb8 	bl	b100 <_close>
    d590:	1c43      	adds	r3, r0, #1
    d592:	d102      	bne.n	d59a <_close_r+0x1a>
    d594:	6823      	ldr	r3, [r4, #0]
    d596:	b103      	cbz	r3, d59a <_close_r+0x1a>
    d598:	602b      	str	r3, [r5, #0]
    d59a:	bd38      	pop	{r3, r4, r5, pc}
    d59c:	10001bb8 	.word	0x10001bb8

0000d5a0 <_lseek_r>:
    d5a0:	b538      	push	{r3, r4, r5, lr}
    d5a2:	4c07      	ldr	r4, [pc, #28]	; (d5c0 <_lseek_r+0x20>)
    d5a4:	4605      	mov	r5, r0
    d5a6:	2000      	movs	r0, #0
    d5a8:	6020      	str	r0, [r4, #0]
    d5aa:	4608      	mov	r0, r1
    d5ac:	4611      	mov	r1, r2
    d5ae:	461a      	mov	r2, r3
    d5b0:	f7fd fe1e 	bl	b1f0 <_lseek>
    d5b4:	1c43      	adds	r3, r0, #1
    d5b6:	d102      	bne.n	d5be <_lseek_r+0x1e>
    d5b8:	6823      	ldr	r3, [r4, #0]
    d5ba:	b103      	cbz	r3, d5be <_lseek_r+0x1e>
    d5bc:	602b      	str	r3, [r5, #0]
    d5be:	bd38      	pop	{r3, r4, r5, pc}
    d5c0:	10001bb8 	.word	0x10001bb8

0000d5c4 <__smakebuf_r>:
    d5c4:	b5f0      	push	{r4, r5, r6, r7, lr}
    d5c6:	898b      	ldrh	r3, [r1, #12]
    d5c8:	b091      	sub	sp, #68	; 0x44
    d5ca:	079e      	lsls	r6, r3, #30
    d5cc:	4605      	mov	r5, r0
    d5ce:	460c      	mov	r4, r1
    d5d0:	d425      	bmi.n	d61e <__smakebuf_r+0x5a>
    d5d2:	f9b1 100e 	ldrsh.w	r1, [r1, #14]
    d5d6:	2900      	cmp	r1, #0
    d5d8:	da08      	bge.n	d5ec <__smakebuf_r+0x28>
    d5da:	89a3      	ldrh	r3, [r4, #12]
    d5dc:	2700      	movs	r7, #0
    d5de:	f013 0f80 	tst.w	r3, #128	; 0x80
    d5e2:	bf14      	ite	ne
    d5e4:	2640      	movne	r6, #64	; 0x40
    d5e6:	f44f 6680 	moveq.w	r6, #1024	; 0x400
    d5ea:	e00d      	b.n	d608 <__smakebuf_r+0x44>
    d5ec:	aa01      	add	r2, sp, #4
    d5ee:	f000 f949 	bl	d884 <_fstat_r>
    d5f2:	2800      	cmp	r0, #0
    d5f4:	dbf1      	blt.n	d5da <__smakebuf_r+0x16>
    d5f6:	9f02      	ldr	r7, [sp, #8]
    d5f8:	f44f 6680 	mov.w	r6, #1024	; 0x400
    d5fc:	f407 4770 	and.w	r7, r7, #61440	; 0xf000
    d600:	f5b7 5100 	subs.w	r1, r7, #8192	; 0x2000
    d604:	424f      	negs	r7, r1
    d606:	414f      	adcs	r7, r1
    d608:	4628      	mov	r0, r5
    d60a:	4631      	mov	r1, r6
    d60c:	f7fe fd54 	bl	c0b8 <_malloc_r>
    d610:	b960      	cbnz	r0, d62c <__smakebuf_r+0x68>
    d612:	89a3      	ldrh	r3, [r4, #12]
    d614:	059a      	lsls	r2, r3, #22
    d616:	d41d      	bmi.n	d654 <__smakebuf_r+0x90>
    d618:	f043 0302 	orr.w	r3, r3, #2
    d61c:	81a3      	strh	r3, [r4, #12]
    d61e:	f104 0347 	add.w	r3, r4, #71	; 0x47
    d622:	6023      	str	r3, [r4, #0]
    d624:	6123      	str	r3, [r4, #16]
    d626:	2301      	movs	r3, #1
    d628:	6163      	str	r3, [r4, #20]
    d62a:	e013      	b.n	d654 <__smakebuf_r+0x90>
    d62c:	4b0a      	ldr	r3, [pc, #40]	; (d658 <__smakebuf_r+0x94>)
    d62e:	62ab      	str	r3, [r5, #40]	; 0x28
    d630:	89a3      	ldrh	r3, [r4, #12]
    d632:	6020      	str	r0, [r4, #0]
    d634:	f043 0380 	orr.w	r3, r3, #128	; 0x80
    d638:	81a3      	strh	r3, [r4, #12]
    d63a:	6120      	str	r0, [r4, #16]
    d63c:	6166      	str	r6, [r4, #20]
    d63e:	b14f      	cbz	r7, d654 <__smakebuf_r+0x90>
    d640:	4628      	mov	r0, r5
    d642:	f9b4 100e 	ldrsh.w	r1, [r4, #14]
    d646:	f000 f92f 	bl	d8a8 <_isatty_r>
    d64a:	b118      	cbz	r0, d654 <__smakebuf_r+0x90>
    d64c:	89a3      	ldrh	r3, [r4, #12]
    d64e:	f043 0301 	orr.w	r3, r3, #1
    d652:	81a3      	strh	r3, [r4, #12]
    d654:	b011      	add	sp, #68	; 0x44
    d656:	bdf0      	pop	{r4, r5, r6, r7, pc}
    d658:	0000bde1 	.word	0x0000bde1

0000d65c <memchr>:
    d65c:	b510      	push	{r4, lr}
    d65e:	b2c9      	uxtb	r1, r1
    d660:	4402      	add	r2, r0
    d662:	4290      	cmp	r0, r2
    d664:	4603      	mov	r3, r0
    d666:	d005      	beq.n	d674 <memchr+0x18>
    d668:	781c      	ldrb	r4, [r3, #0]
    d66a:	3001      	adds	r0, #1
    d66c:	428c      	cmp	r4, r1
    d66e:	d1f8      	bne.n	d662 <memchr+0x6>
    d670:	4618      	mov	r0, r3
    d672:	bd10      	pop	{r4, pc}
    d674:	2000      	movs	r0, #0
    d676:	bd10      	pop	{r4, pc}

0000d678 <memcpy>:
    d678:	b510      	push	{r4, lr}
    d67a:	2300      	movs	r3, #0
    d67c:	4293      	cmp	r3, r2
    d67e:	d003      	beq.n	d688 <memcpy+0x10>
    d680:	5ccc      	ldrb	r4, [r1, r3]
    d682:	54c4      	strb	r4, [r0, r3]
    d684:	3301      	adds	r3, #1
    d686:	e7f9      	b.n	d67c <memcpy+0x4>
    d688:	bd10      	pop	{r4, pc}

0000d68a <memmove>:
    d68a:	4281      	cmp	r1, r0
    d68c:	b570      	push	{r4, r5, r6, lr}
    d68e:	d301      	bcc.n	d694 <memmove+0xa>
    d690:	2300      	movs	r3, #0
    d692:	e00e      	b.n	d6b2 <memmove+0x28>
    d694:	188c      	adds	r4, r1, r2
    d696:	42a0      	cmp	r0, r4
    d698:	d2fa      	bcs.n	d690 <memmove+0x6>
    d69a:	1885      	adds	r5, r0, r2
    d69c:	4613      	mov	r3, r2
    d69e:	f113 33ff 	adds.w	r3, r3, #4294967295	; 0xffffffff
    d6a2:	d305      	bcc.n	d6b0 <memmove+0x26>
    d6a4:	4251      	negs	r1, r2
    d6a6:	1866      	adds	r6, r4, r1
    d6a8:	5cf6      	ldrb	r6, [r6, r3]
    d6aa:	4429      	add	r1, r5
    d6ac:	54ce      	strb	r6, [r1, r3]
    d6ae:	e7f6      	b.n	d69e <memmove+0x14>
    d6b0:	bd70      	pop	{r4, r5, r6, pc}
    d6b2:	4293      	cmp	r3, r2
    d6b4:	d003      	beq.n	d6be <memmove+0x34>
    d6b6:	5ccc      	ldrb	r4, [r1, r3]
    d6b8:	54c4      	strb	r4, [r0, r3]
    d6ba:	3301      	adds	r3, #1
    d6bc:	e7f9      	b.n	d6b2 <memmove+0x28>
    d6be:	bd70      	pop	{r4, r5, r6, pc}

0000d6c0 <_realloc_r>:
    d6c0:	b5f8      	push	{r3, r4, r5, r6, r7, lr}
    d6c2:	4606      	mov	r6, r0
    d6c4:	4614      	mov	r4, r2
    d6c6:	460d      	mov	r5, r1
    d6c8:	b921      	cbnz	r1, d6d4 <_realloc_r+0x14>
    d6ca:	4611      	mov	r1, r2
    d6cc:	e8bd 40f8 	ldmia.w	sp!, {r3, r4, r5, r6, r7, lr}
    d6d0:	f7fe bcf2 	b.w	c0b8 <_malloc_r>
    d6d4:	b91a      	cbnz	r2, d6de <_realloc_r+0x1e>
    d6d6:	f7fe fcab 	bl	c030 <_free_r>
    d6da:	4620      	mov	r0, r4
    d6dc:	bdf8      	pop	{r3, r4, r5, r6, r7, pc}
    d6de:	f000 f8f3 	bl	d8c8 <_malloc_usable_size_r>
    d6e2:	42a0      	cmp	r0, r4
    d6e4:	d20e      	bcs.n	d704 <_realloc_r+0x44>
    d6e6:	4630      	mov	r0, r6
    d6e8:	4621      	mov	r1, r4
    d6ea:	f7fe fce5 	bl	c0b8 <_malloc_r>
    d6ee:	4607      	mov	r7, r0
    d6f0:	b150      	cbz	r0, d708 <_realloc_r+0x48>
    d6f2:	4629      	mov	r1, r5
    d6f4:	4622      	mov	r2, r4
    d6f6:	f7ff ffbf 	bl	d678 <memcpy>
    d6fa:	4630      	mov	r0, r6
    d6fc:	4629      	mov	r1, r5
    d6fe:	f7fe fc97 	bl	c030 <_free_r>
    d702:	e001      	b.n	d708 <_realloc_r+0x48>
    d704:	4628      	mov	r0, r5
    d706:	bdf8      	pop	{r3, r4, r5, r6, r7, pc}
    d708:	4638      	mov	r0, r7
    d70a:	bdf8      	pop	{r3, r4, r5, r6, r7, pc}

0000d70c <_read_r>:
    d70c:	b538      	push	{r3, r4, r5, lr}
    d70e:	4c07      	ldr	r4, [pc, #28]	; (d72c <_read_r+0x20>)
    d710:	4605      	mov	r5, r0
    d712:	2000      	movs	r0, #0
    d714:	6020      	str	r0, [r4, #0]
    d716:	4608      	mov	r0, r1
    d718:	4611      	mov	r1, r2
    d71a:	461a      	mov	r2, r3
    d71c:	f7fd fd2e 	bl	b17c <_read>
    d720:	1c43      	adds	r3, r0, #1
    d722:	d102      	bne.n	d72a <_read_r+0x1e>
    d724:	6823      	ldr	r3, [r4, #0]
    d726:	b103      	cbz	r3, d72a <_read_r+0x1e>
    d728:	602b      	str	r3, [r5, #0]
    d72a:	bd38      	pop	{r3, r4, r5, pc}
    d72c:	10001bb8 	.word	0x10001bb8

0000d730 <__sccl>:
    d730:	b5f0      	push	{r4, r5, r6, r7, lr}
    d732:	780b      	ldrb	r3, [r1, #0]
    d734:	2b5e      	cmp	r3, #94	; 0x5e
    d736:	d002      	beq.n	d73e <__sccl+0xe>
    d738:	1c4c      	adds	r4, r1, #1
    d73a:	2100      	movs	r1, #0
    d73c:	e002      	b.n	d744 <__sccl+0x14>
    d73e:	1c8c      	adds	r4, r1, #2
    d740:	784b      	ldrb	r3, [r1, #1]
    d742:	2101      	movs	r1, #1
    d744:	2200      	movs	r2, #0
    d746:	5481      	strb	r1, [r0, r2]
    d748:	3201      	adds	r2, #1
    d74a:	f5b2 7f80 	cmp.w	r2, #256	; 0x100
    d74e:	d1fa      	bne.n	d746 <__sccl+0x16>
    d750:	b90b      	cbnz	r3, d756 <__sccl+0x26>
    d752:	1e65      	subs	r5, r4, #1
    d754:	e01b      	b.n	d78e <__sccl+0x5e>
    d756:	f1c1 0701 	rsb	r7, r1, #1
    d75a:	b2fe      	uxtb	r6, r7
    d75c:	54c6      	strb	r6, [r0, r3]
    d75e:	1c62      	adds	r2, r4, #1
    d760:	f812 1c01 	ldrb.w	r1, [r2, #-1]
    d764:	1e55      	subs	r5, r2, #1
    d766:	292d      	cmp	r1, #45	; 0x2d
    d768:	4614      	mov	r4, r2
    d76a:	d004      	beq.n	d776 <__sccl+0x46>
    d76c:	295d      	cmp	r1, #93	; 0x5d
    d76e:	d00d      	beq.n	d78c <__sccl+0x5c>
    d770:	b169      	cbz	r1, d78e <__sccl+0x5e>
    d772:	460b      	mov	r3, r1
    d774:	e7f1      	b.n	d75a <__sccl+0x2a>
    d776:	7815      	ldrb	r5, [r2, #0]
    d778:	2d5d      	cmp	r5, #93	; 0x5d
    d77a:	d0fa      	beq.n	d772 <__sccl+0x42>
    d77c:	429d      	cmp	r5, r3
    d77e:	dbf8      	blt.n	d772 <__sccl+0x42>
    d780:	3301      	adds	r3, #1
    d782:	42ab      	cmp	r3, r5
    d784:	54c6      	strb	r6, [r0, r3]
    d786:	dbfb      	blt.n	d780 <__sccl+0x50>
    d788:	3202      	adds	r2, #2
    d78a:	e7e9      	b.n	d760 <__sccl+0x30>
    d78c:	4615      	mov	r5, r2
    d78e:	4628      	mov	r0, r5
    d790:	bdf0      	pop	{r4, r5, r6, r7, pc}
	...

0000d794 <_strtoul_r>:
    d794:	4684      	mov	r12, r0
    d796:	483a      	ldr	r0, [pc, #232]	; (d880 <_strtoul_r+0xec>)
    d798:	e92d 4ff0 	stmdb	sp!, {r4, r5, r6, r7, r8, r9, r10, r11, lr}
    d79c:	f8d0 8000 	ldr.w	r8, [r0]
    d7a0:	460e      	mov	r6, r1
    d7a2:	4634      	mov	r4, r6
    d7a4:	f814 5b01 	ldrb.w	r5, [r4], #1
    d7a8:	eb08 0005 	add.w	r0, r8, r5
    d7ac:	7840      	ldrb	r0, [r0, #1]
    d7ae:	f000 0008 	and.w	r0, r0, #8
    d7b2:	f000 07ff 	and.w	r7, r0, #255	; 0xff
    d7b6:	b108      	cbz	r0, d7bc <_strtoul_r+0x28>
    d7b8:	4626      	mov	r6, r4
    d7ba:	e7f2      	b.n	d7a2 <_strtoul_r+0xe>
    d7bc:	2d2d      	cmp	r5, #45	; 0x2d
    d7be:	d103      	bne.n	d7c8 <_strtoul_r+0x34>
    d7c0:	1cb4      	adds	r4, r6, #2
    d7c2:	7875      	ldrb	r5, [r6, #1]
    d7c4:	2701      	movs	r7, #1
    d7c6:	e003      	b.n	d7d0 <_strtoul_r+0x3c>
    d7c8:	2d2b      	cmp	r5, #43	; 0x2b
    d7ca:	bf04      	itt	eq
    d7cc:	7875      	ldrbeq	r5, [r6, #1]
    d7ce:	1cb4      	addeq	r4, r6, #2
    d7d0:	f033 0010 	bics.w	r0, r3, #16
    d7d4:	d10d      	bne.n	d7f2 <_strtoul_r+0x5e>
    d7d6:	2d30      	cmp	r5, #48	; 0x30
    d7d8:	d108      	bne.n	d7ec <_strtoul_r+0x58>
    d7da:	7820      	ldrb	r0, [r4, #0]
    d7dc:	f000 00df 	and.w	r0, r0, #223	; 0xdf
    d7e0:	2858      	cmp	r0, #88	; 0x58
    d7e2:	d147      	bne.n	d874 <_strtoul_r+0xe0>
    d7e4:	7865      	ldrb	r5, [r4, #1]
    d7e6:	2310      	movs	r3, #16
    d7e8:	3402      	adds	r4, #2
    d7ea:	e002      	b.n	d7f2 <_strtoul_r+0x5e>
    d7ec:	2b00      	cmp	r3, #0
    d7ee:	bf08      	it	eq
    d7f0:	230a      	moveq	r3, #10
    d7f2:	f04f 39ff 	mov.w	r9, #4294967295	; 0xffffffff
    d7f6:	fbb9 f9f3 	udiv	r9, r9, r3
    d7fa:	fb03 fa09 	mul.w	r10, r3, r9
    d7fe:	2600      	movs	r6, #0
    d800:	ea6f 0a0a 	mvn.w	r10, r10
    d804:	4630      	mov	r0, r6
    d806:	eb08 0b05 	add.w	r11, r8, r5
    d80a:	f89b b001 	ldrb.w	r11, [r11, #1]
    d80e:	f01b 0f04 	tst.w	r11, #4
    d812:	d001      	beq.n	d818 <_strtoul_r+0x84>
    d814:	3d30      	subs	r5, #48	; 0x30
    d816:	e00b      	b.n	d830 <_strtoul_r+0x9c>
    d818:	f01b 0b03 	ands.w	r11, r11, #3
    d81c:	d01a      	beq.n	d854 <_strtoul_r+0xc0>
    d81e:	f1bb 0f01 	cmp.w	r11, #1
    d822:	bf14      	ite	ne
    d824:	f04f 0b57 	movne.w	r11, #87	; 0x57
    d828:	f04f 0b37 	moveq.w	r11, #55	; 0x37
    d82c:	ebcb 0505 	rsb	r5, r11, r5
    d830:	429d      	cmp	r5, r3
    d832:	da0f      	bge.n	d854 <_strtoul_r+0xc0>
    d834:	2e00      	cmp	r6, #0
    d836:	db08      	blt.n	d84a <_strtoul_r+0xb6>
    d838:	4548      	cmp	r0, r9
    d83a:	d806      	bhi.n	d84a <_strtoul_r+0xb6>
    d83c:	d101      	bne.n	d842 <_strtoul_r+0xae>
    d83e:	4555      	cmp	r5, r10
    d840:	dc03      	bgt.n	d84a <_strtoul_r+0xb6>
    d842:	fb03 5000 	mla	r0, r3, r0, r5
    d846:	2601      	movs	r6, #1
    d848:	e001      	b.n	d84e <_strtoul_r+0xba>
    d84a:	f04f 36ff 	mov.w	r6, #4294967295	; 0xffffffff
    d84e:	f814 5b01 	ldrb.w	r5, [r4], #1
    d852:	e7d8      	b.n	d806 <_strtoul_r+0x72>
    d854:	2e00      	cmp	r6, #0
    d856:	da05      	bge.n	d864 <_strtoul_r+0xd0>
    d858:	2322      	movs	r3, #34	; 0x22
    d85a:	f8cc 3000 	str.w	r3, [r12]
    d85e:	f04f 30ff 	mov.w	r0, #4294967295	; 0xffffffff
    d862:	e001      	b.n	d868 <_strtoul_r+0xd4>
    d864:	b107      	cbz	r7, d868 <_strtoul_r+0xd4>
    d866:	4240      	negs	r0, r0
    d868:	b142      	cbz	r2, d87c <_strtoul_r+0xe8>
    d86a:	b106      	cbz	r6, d86e <_strtoul_r+0xda>
    d86c:	1e61      	subs	r1, r4, #1
    d86e:	6011      	str	r1, [r2, #0]
    d870:	e8bd 8ff0 	ldmia.w	sp!, {r4, r5, r6, r7, r8, r9, r10, r11, pc}
    d874:	2b00      	cmp	r3, #0
    d876:	bf08      	it	eq
    d878:	2308      	moveq	r3, #8
    d87a:	e7ba      	b.n	d7f2 <_strtoul_r+0x5e>
    d87c:	e8bd 8ff0 	ldmia.w	sp!, {r4, r5, r6, r7, r8, r9, r10, r11, pc}
    d880:	100001d8 	.word	0x100001d8

0000d884 <_fstat_r>:
    d884:	b538      	push	{r3, r4, r5, lr}
    d886:	4c07      	ldr	r4, [pc, #28]	; (d8a4 <_fstat_r+0x20>)
    d888:	2300      	movs	r3, #0
    d88a:	4605      	mov	r5, r0
    d88c:	4608      	mov	r0, r1
    d88e:	4611      	mov	r1, r2
    d890:	6023      	str	r3, [r4, #0]
    d892:	f7fd fcc1 	bl	b218 <_fstat>
    d896:	1c43      	adds	r3, r0, #1
    d898:	d102      	bne.n	d8a0 <_fstat_r+0x1c>
    d89a:	6823      	ldr	r3, [r4, #0]
    d89c:	b103      	cbz	r3, d8a0 <_fstat_r+0x1c>
    d89e:	602b      	str	r3, [r5, #0]
    d8a0:	bd38      	pop	{r3, r4, r5, pc}
    d8a2:	bf00      	nop
    d8a4:	10001bb8 	.word	0x10001bb8

0000d8a8 <_isatty_r>:
    d8a8:	b538      	push	{r3, r4, r5, lr}
    d8aa:	4c06      	ldr	r4, [pc, #24]	; (d8c4 <_isatty_r+0x1c>)
    d8ac:	2300      	movs	r3, #0
    d8ae:	4605      	mov	r5, r0
    d8b0:	4608      	mov	r0, r1
    d8b2:	6023      	str	r3, [r4, #0]
    d8b4:	f7f2 fc90 	bl	1d8 <__wrap__isatty>
    d8b8:	1c43      	adds	r3, r0, #1
    d8ba:	d102      	bne.n	d8c2 <_isatty_r+0x1a>
    d8bc:	6823      	ldr	r3, [r4, #0]
    d8be:	b103      	cbz	r3, d8c2 <_isatty_r+0x1a>
    d8c0:	602b      	str	r3, [r5, #0]
    d8c2:	bd38      	pop	{r3, r4, r5, pc}
    d8c4:	10001bb8 	.word	0x10001bb8

0000d8c8 <_malloc_usable_size_r>:
    d8c8:	f851 0c04 	ldr.w	r0, [r1, #-4]
    d8cc:	2800      	cmp	r0, #0
    d8ce:	da02      	bge.n	d8d6 <_malloc_usable_size_r+0xe>
    d8d0:	3904      	subs	r1, #4
    d8d2:	580b      	ldr	r3, [r1, r0]
    d8d4:	4418      	add	r0, r3
    d8d6:	3804      	subs	r0, #4
    d8d8:	4770      	bx	lr
	...

0000d8dc <_init>:
    d8dc:	b5f8      	push	{r3, r4, r5, r6, r7, lr}
    d8de:	bf00      	nop
    d8e0:	bcf8      	pop	{r3, r4, r5, r6, r7}
    d8e2:	bc08      	pop	{r3}
    d8e4:	469e      	mov	lr, r3
    d8e6:	4770      	bx	lr

0000d8e8 <_fini>:
    d8e8:	b5f8      	push	{r3, r4, r5, r6, r7, lr}
    d8ea:	bf00      	nop
    d8ec:	bcf8      	pop	{r3, r4, r5, r6, r7}
    d8ee:	bc08      	pop	{r3}
    d8f0:	469e      	mov	lr, r3
    d8f2:	4770      	bx	lr
    d8f4:	41205049 	.word	0x41205049
    d8f8:	65726464 	.word	0x65726464
    d8fc:	69207373 	.word	0x69207373
    d900:	73252073 	.word	0x73252073
    d904:	0000000a 	.word	0x0000000a
    d908:	6465626d 	.word	0x6465626d
    d90c:	67726f2e 	.word	0x67726f2e
    d910:	00000000 	.word	0x00000000
    d914:	65636552 	.word	0x65636552
    d918:	64657669 	.word	0x64657669
    d91c:	20642520 	.word	0x20642520
    d920:	72616863 	.word	0x72616863
    d924:	72662073 	.word	0x72662073
    d928:	73206d6f 	.word	0x73206d6f
    d92c:	65767265 	.word	0x65767265
    d930:	250a3a72 	.word	0x250a3a72
    d934:	00000a73 	.word	0x00000a73
    d938:	20544547 	.word	0x20544547
    d93c:	64656d2f 	.word	0x64656d2f
    d940:	752f6169 	.word	0x752f6169
    d944:	616f6c70 	.word	0x616f6c70
    d948:	6d2f7364 	.word	0x6d2f7364
    d94c:	5f646562 	.word	0x5f646562
    d950:	6966666f 	.word	0x6966666f
    d954:	6c616963 	.word	0x6c616963
    d958:	6c65682f 	.word	0x6c65682f
    d95c:	742e6f6c 	.word	0x742e6f6c
    d960:	48207478 	.word	0x48207478
    d964:	2f505454 	.word	0x2f505454
    d968:	0a302e31 	.word	0x0a302e31
    d96c:	0000000a 	.word	0x0000000a

0000d970 <err_to_errno_table>:
    d970:	00000000 0000000c 00000069 0000000b     ........i.......
    d980:	00000071 00000073 00000016 0000000b     q...s...........
    d990:	00000062 00000072 00000067 00000068     b...r...g...h...
    d9a0:	0000006b 0000006b 00000005 ffffffff     k...k...........
    d9b0:	69706374 68745f70 64616572 00000000     tcpip_thread....

0000d9c0 <memp_num>:
    d9c0:	00040004 00100004 000f0005 00040002     ................
    d9d0:	00080008 00100008 00080001 00000005     ................

0000d9e0 <memp_sizes>:
    d9e0:	00a80024 00140020 00180020 00ac0014     $... ... .......
    d9f0:	00140014 00100014 00100134 000005fc     ........4.......

0000da00 <tcp_pcb_lists>:
    da00:	10000fc4 10000fcc 10000fbc 10000fd0     ................

0000da10 <tcp_backoff>:
    da10:	04030201 07070605 07070707 00000007     ................

0000da20 <tcp_persist_backoff>:
    da20:	180c0603 00786030                       ....0`x.

0000da28 <ip_addr_broadcast>:
    da28:	ffffffff                                ....

0000da2c <ip_addr_any>:
    da2c:	00000000                                ....

0000da30 <ethbroadcast>:
    da30:	ffffffff 0000ffff                       ........

0000da38 <ethzero>:
	...
    da40:	2e753325 2e753325 2e753325 00753325     %3u.%3u.%3u.%3u.
    da50:	5f737973 786f626d 77656e5f 7a697320     sys_mbox_new siz
    da60:	72652065 0a726f72 00000000 5f737973     e error.....sys_
    da70:	786f626d 6572665f 72652065 0a726f72     mbox_free error.
    da80:	00000000 5f737973 786f626d 736f705f     ....sys_mbox_pos
    da90:	72652074 0a726f72 00000000 5f737973     t error.....sys_
    daa0:	5f6d6573 2077656e 61657263 65206574     sem_new create e
    dab0:	726f7272 0000000a 5f737973 6574756d     rror....sys_mute
    dac0:	6f6c5f78 65206b63 726f7272 0000000a     x_lock error....
    dad0:	5f737973 6574756d 6e755f78 6b636f6c     sys_mutex_unlock
    dae0:	72726520 000a726f 5f737973 74696e69      error..sys_init
    daf0:	72726520 000a726f 5f737973 68637261      error..sys_arch
    db00:	6f72705f 74636574 72726520 000a726f     _protect error..
    db10:	5f737973 68637261 706e755f 65746f72     sys_arch_unprote
    db20:	65207463 726f7272 0000000a 5f737973     ct error....sys_
    db30:	65726874 6e5f6461 6e207765 65626d75     thread_new numbe
    db40:	72652072 0a726f72 00000000 6f727245     r error.....Erro
    db50:	6c612072 61636f6c 676e6974 65687420     r allocating the
    db60:	61747320 6d206b63 726f6d65 00000079      stack memory...
    db70:	5f737973 65726874 6e5f6461 63207765     sys_thread_new c
    db80:	74616572 72652065 0a726f72 00000000     reate error.....
    db90:	2e383032 322e3736 322e3232 00003232     208.67.222.222..
    dba0:	78323025 3230253a 30253a78 253a7832     %02x:%02x:%02x:%
    dbb0:	3a783230 78323025 3230253a 00000078     02x:%02x:%02x...
    dbc0:	7069776c 0063706c 65636572 5f657669     lwiplpc.receive_
    dbd0:	65726874 00006461 6c637874 5f6e6165     thread..txclean_
    dbe0:	65726874 00006461                       thread..

0000dbe8 <os_maxtaskrun>:
    dbe8:	0000000f                                ....

0000dbec <os_clockrate>:
    dbec:	000003e8                                ....

0000dbf0 <os_rrobin>:
    dbf0:	00010005                                ....

0000dbf4 <os_flags>:
    dbf4:	00800001                                         ..

0000dbf6 <idle_task_stack_size>:
    dbf6:	00100080                                         ..

0000dbf8 <os_fifo_size>:
    dbf8:	00000010                                ....

0000dbfc <os_trv>:
    dbfc:	000176ff 00783225                       .v..%2x.

0000dc04 <PinMap_UART_RTS>:
    dc04:	2009c016 40010000 00000001 2009c047     ... ...@....G.. 
    dc14:	40010000 00000002 ffffffff ffffffff     ...@............
    dc24:	00000000                                ....

0000dc28 <PinMap_UART_RX>:
    dc28:	2009c001 4009c000 00000002 2009c003     ... ...@....... 
    dc38:	4000c000 00000001 2009c00b 40098000     ...@....... ...@
    dc48:	00000001 2009c010 40010000 00000001     ....... ...@....
    dc58:	2009c01a 4009c000 00000003 2009c041     ... ...@....A.. 
    dc68:	40010000 00000002 2009c049 40098000     ...@....I.. ...@
    dc78:	00000002 2009c09d 4009c000 00000003     ....... ...@....
    dc88:	ffffffff ffffffff 00000000              ............

0000dc94 <PinMap_UART_TX>:
    dc94:	2009c000 4009c000 00000002 2009c002     ... ...@....... 
    dca4:	4000c000 00000001 2009c00a 40098000     ...@....... ...@
    dcb4:	00000001 2009c00f 40010000 00000001     ....... ...@....
    dcc4:	2009c019 4009c000 00000003 2009c040     ... ...@....@.. 
    dcd4:	40010000 00000002 2009c048 40098000     ...@....H.. ...@
    dce4:	00000002 2009c09c 4009c000 00000003     ....... ...@....
    dcf4:	ffffffff ffffffff 00000000              ............

0000dd00 <PinMap_UART_CTS>:
    dd00:	2009c011 40010000 00000001 2009c042     ... ...@....B.. 
    dd10:	40010000 00000002 ffffffff ffffffff     ...@............
    dd20:	00000000 6c756f63 6f6e2064 69702074     ....could not pi
    dd30:	74756f6e 00000000 6d6e6970 6d207061     nout....pinmap m
    dd40:	6d2d7369 68637461 00000000 6d6e6970     is-match....pinm
    dd50:	6e207061 6620746f 646e756f 726f6620     ap not found for
    dd60:	72657020 65687069 006c6172               peripheral.

0000dd6c <__sf_fake_stdin>:
	...

0000dd8c <__sf_fake_stdout>:
	...

0000ddac <__sf_fake_stderr>:
	...
    ddcc:	00000043                                C...

0000ddd0 <_global_impure_ptr>:
    ddd0:	10000174 2b302d23 6c680020 6665004c     t...#-0+ .hlL.ef
    dde0:	47464567 32313000 36353433 41393837     gEFG.0123456789A
    ddf0:	45444342 31300046 35343332 39383736     BCDEF.0123456789
    de00:	64636261 00006665 0000de26 0000de29     abcdef..&...)...
    de10:	0000de2c 61462d41 3938662d 33323130     ,...A-Fa-f890123
    de20:	37363534 2d2b005d 00303000 00005878              4567].+-.00.xX.

0000de2f <_ctype_>:
    de2f:	20202000 20202020 28282020 20282828     .         ((((( 
    de3f:	20202020 20202020 20202020 20202020                     
    de4f:	10108820 10101010 10101010 10101010      ...............
    de5f:	04040410 04040404 10040404 10101010     ................
    de6f:	41411010 41414141 01010101 01010101     ..AAAAAA........
    de7f:	01010101 01010101 01010101 10101010     ................
    de8f:	42421010 42424242 02020202 02020202     ..BBBBBB........
    de9f:	02020202 02020202 02020202 10101010     ................
    deaf:	00000020 00000000 00000000 00000000      ...............
	...

0000df30 <__EH_FRAME_BEGIN__>:
    df30:	00000000                                ....
