
LPC1768/TCPSocket_HelloWorld.elf:     file format elf32-littlearm
architecture: arm, flags 0x00000112:
EXEC_P, HAS_SYMS, D_PAGED
start address 0x0000b261


Disassembly of section .text:

00000000 <__isr_vector>:
       0:	10008000 	.word	0x10008000
       4:	0000b261 	.word	0x0000b261
       8:	0000b291 	.word	0x0000b291
       c:	0000b293 	.word	0x0000b293
      10:	0000b295 	.word	0x0000b295
      14:	0000b297 	.word	0x0000b297
      18:	0000b299 	.word	0x0000b299
	...
      2c:	0000aac1 	.word	0x0000aac1
      30:	0000b29d 	.word	0x0000b29d
      34:	00000000 	.word	0x00000000
      38:	0000ab2f 	.word	0x0000ab2f
      3c:	0000ab67 	.word	0x0000ab67
      40:	0000b2a3 	.word	0x0000b2a3
      44:	0000b2a3 	.word	0x0000b2a3
      48:	0000b2a3 	.word	0x0000b2a3
      4c:	0000b2a3 	.word	0x0000b2a3
      50:	0000b2a3 	.word	0x0000b2a3
      54:	0000b2a3 	.word	0x0000b2a3
      58:	0000b2a3 	.word	0x0000b2a3
      5c:	0000b2a3 	.word	0x0000b2a3
      60:	0000b2a3 	.word	0x0000b2a3
      64:	0000b2a3 	.word	0x0000b2a3
      68:	0000b2a3 	.word	0x0000b2a3
      6c:	0000b2a3 	.word	0x0000b2a3
      70:	0000b2a3 	.word	0x0000b2a3
      74:	0000b2a3 	.word	0x0000b2a3
      78:	0000b2a3 	.word	0x0000b2a3
      7c:	0000b2a3 	.word	0x0000b2a3
      80:	0000b2a3 	.word	0x0000b2a3
      84:	0000b2a3 	.word	0x0000b2a3
      88:	0000b2a3 	.word	0x0000b2a3
      8c:	0000b2a3 	.word	0x0000b2a3
      90:	0000b2a3 	.word	0x0000b2a3
      94:	0000b2a3 	.word	0x0000b2a3
      98:	0000b2a3 	.word	0x0000b2a3
      9c:	0000b2a3 	.word	0x0000b2a3
      a0:	0000b2a3 	.word	0x0000b2a3
      a4:	0000b2a3 	.word	0x0000b2a3
      a8:	0000b2a3 	.word	0x0000b2a3
      ac:	0000b2a3 	.word	0x0000b2a3
      b0:	00008c79 	.word	0x00008c79
      b4:	0000b2a3 	.word	0x0000b2a3
      b8:	0000b2a3 	.word	0x0000b2a3
      bc:	0000b2a3 	.word	0x0000b2a3
      c0:	0000b2a3 	.word	0x0000b2a3
      c4:	0000b2a3 	.word	0x0000b2a3
      c8:	0000b2a3 	.word	0x0000b2a3

000000cc <__do_global_dtors_aux>:
      cc:	b510      	push	{r4, lr}
      ce:	4c05      	ldr	r4, [pc, #20]	; (e4 <__do_global_dtors_aux+0x18>)
      d0:	7823      	ldrb	r3, [r4, #0]
      d2:	b933      	cbnz	r3, e2 <__do_global_dtors_aux+0x16>
      d4:	4b04      	ldr	r3, [pc, #16]	; (e8 <__do_global_dtors_aux+0x1c>)
      d6:	b113      	cbz	r3, de <__do_global_dtors_aux+0x12>
      d8:	4804      	ldr	r0, [pc, #16]	; (ec <__do_global_dtors_aux+0x20>)
      da:	f3af 8000 	nop.w
      de:	2301      	movs	r3, #1
      e0:	7023      	strb	r3, [r4, #0]
      e2:	bd10      	pop	{r4, pc}
      e4:	100001e8 	.word	0x100001e8
      e8:	00000000 	.word	0x00000000
      ec:	0000df30 	.word	0x0000df30

000000f0 <frame_dummy>:
      f0:	b508      	push	{r3, lr}
      f2:	4b06      	ldr	r3, [pc, #24]	; (10c <frame_dummy+0x1c>)
      f4:	b11b      	cbz	r3, fe <frame_dummy+0xe>
      f6:	4806      	ldr	r0, [pc, #24]	; (110 <frame_dummy+0x20>)
      f8:	4906      	ldr	r1, [pc, #24]	; (114 <frame_dummy+0x24>)
      fa:	f3af 8000 	nop.w
      fe:	4806      	ldr	r0, [pc, #24]	; (118 <frame_dummy+0x28>)
     100:	6803      	ldr	r3, [r0, #0]
     102:	b113      	cbz	r3, 10a <frame_dummy+0x1a>
     104:	4b05      	ldr	r3, [pc, #20]	; (11c <frame_dummy+0x2c>)
     106:	b103      	cbz	r3, 10a <frame_dummy+0x1a>
     108:	4798      	blx	r3
     10a:	bd08      	pop	{r3, pc}
     10c:	00000000 	.word	0x00000000
     110:	0000df30 	.word	0x0000df30
     114:	100001ec 	.word	0x100001ec
     118:	100001e8 	.word	0x100001e8
     11c:	00000000 	.word	0x00000000

00000120 <main>:
     120:	b530      	push	{r4, r5, lr}
     122:	b0e7      	sub	sp, #412	; 0x19c
     124:	f008 fad2 	bl	86cc <EthernetInterface::init()>
     128:	f643 2098 	movw	r0, #15000	; 0x3a98
     12c:	f008 fade 	bl	86ec <EthernetInterface::connect(unsigned int)>
     130:	f008 fb18 	bl	8764 <EthernetInterface::getIPAddress()>
     134:	4601      	mov	r1, r0
     136:	481a      	ldr	r0, [pc, #104]	; (1a0 <main+0x80>)
     138:	f00c f812 	bl	c160 <iprintf>
     13c:	4d19      	ldr	r5, [pc, #100]	; (1a4 <main+0x84>)
     13e:	4668      	mov	r0, sp
     140:	f000 f8e2 	bl	308 <TCPSocketConnection::TCPSocketConnection()>
     144:	ac0d      	add	r4, sp, #52	; 0x34
     146:	4918      	ldr	r1, [pc, #96]	; (1a8 <main+0x88>)
     148:	2250      	movs	r2, #80	; 0x50
     14a:	4668      	mov	r0, sp
     14c:	f000 f8ea 	bl	324 <TCPSocketConnection::connect(char const*, int)>
     150:	cd0f      	ldmia	r5!, {r0, r1, r2, r3}
     152:	c40f      	stmia	r4!, {r0, r1, r2, r3}
     154:	cd0f      	ldmia	r5!, {r0, r1, r2, r3}
     156:	c40f      	stmia	r4!, {r0, r1, r2, r3}
     158:	cd0f      	ldmia	r5!, {r0, r1, r2, r3}
     15a:	c40f      	stmia	r4!, {r0, r1, r2, r3}
     15c:	e895 0003 	ldmia.w	r5, {r0, r1}
     160:	f844 0b04 	str.w	r0, [r4], #4
     164:	8021      	strh	r1, [r4, #0]
     166:	4668      	mov	r0, sp
     168:	a90d      	add	r1, sp, #52	; 0x34
     16a:	2235      	movs	r2, #53	; 0x35
     16c:	f000 f900 	bl	370 <TCPSocketConnection::send_all(char*, int)>
     170:	ac1b      	add	r4, sp, #108	; 0x6c
     172:	2500      	movs	r5, #0
     174:	e005      	b.n	182 <main+0x62>
     176:	4619      	mov	r1, r3
     178:	480c      	ldr	r0, [pc, #48]	; (1ac <main+0x8c>)
     17a:	4622      	mov	r2, r4
     17c:	54e5      	strb	r5, [r4, r3]
     17e:	f00b ffef 	bl	c160 <iprintf>
     182:	4668      	mov	r0, sp
     184:	4621      	mov	r1, r4
     186:	f240 122b 	movw	r2, #299	; 0x12b
     18a:	f000 f925 	bl	3d8 <TCPSocketConnection::receive(char*, int)>
     18e:	1e03      	subs	r3, r0, #0
     190:	dcf1      	bgt.n	176 <main+0x56>
     192:	2101      	movs	r1, #1
     194:	4668      	mov	r0, sp
     196:	f000 f88f 	bl	2b8 <Socket::close(bool)>
     19a:	f008 facb 	bl	8734 <EthernetInterface::disconnect()>
     19e:	e7fe      	b.n	19e <main+0x7e>
     1a0:	0000d8f4 	.word	0x0000d8f4
     1a4:	0000d938 	.word	0x0000d938
     1a8:	0000d908 	.word	0x0000d908
     1ac:	0000d914 	.word	0x0000d914

000001b0 <_start>:
     1b0:	4807      	ldr	r0, [pc, #28]	; (1d0 <_start+0x20>)
     1b2:	4a08      	ldr	r2, [pc, #32]	; (1d4 <_start+0x24>)
     1b4:	b508      	push	{r3, lr}
     1b6:	1a12      	subs	r2, r2, r0
     1b8:	2100      	movs	r1, #0
     1ba:	f00b ff31 	bl	c020 <memset>
     1be:	f00a fd2f 	bl	ac20 <software_init_hook>
     1c2:	f00b feff 	bl	bfc4 <__libc_init_array>
     1c6:	f7ff ffab 	bl	120 <main>
     1ca:	f00a fe99 	bl	af00 <exit>
     1ce:	bf00      	nop
     1d0:	100001e8 	.word	0x100001e8
     1d4:	10001bbc 	.word	0x10001bbc

000001d8 <__wrap__isatty>:
     1d8:	2802      	cmp	r0, #2
     1da:	dc01      	bgt.n	1e0 <__wrap__isatty+0x8>
     1dc:	2001      	movs	r0, #1
     1de:	4770      	bx	lr
     1e0:	f00a bff2 	b.w	b1c8 <_isatty>

000001e4 <__wrap_malloc>:
     1e4:	f3ef 8305 	mrs	r3, IPSR
     1e8:	b103      	cbz	r3, 1ec <__wrap_malloc+0x8>
     1ea:	be00      	bkpt	0x0000
     1ec:	f00b bf10 	b.w	c010 <malloc>

000001f0 <Socket::Socket()>:
     1f0:	b410      	push	{r4}
     1f2:	f04f 34ff 	mov.w	r4, #4294967295	; 0xffffffff
     1f6:	2101      	movs	r1, #1
     1f8:	f240 52dc 	movw	r2, #1500	; 0x5dc
     1fc:	6004      	str	r4, [r0, #0]
     1fe:	7101      	strb	r1, [r0, #4]
     200:	6082      	str	r2, [r0, #8]
     202:	f85d 4b04 	ldr.w	r4, [sp], #4
     206:	4770      	bx	lr

00000208 <Socket::init_socket(int)>:
     208:	6803      	ldr	r3, [r0, #0]
     20a:	b510      	push	{r4, lr}
     20c:	3301      	adds	r3, #1
     20e:	4604      	mov	r4, r0
     210:	d108      	bne.n	224 <Socket::init_socket(int)+0x1c>
     212:	2002      	movs	r0, #2
     214:	2200      	movs	r2, #0
     216:	f000 fc9d 	bl	b54 <lwip_socket>
     21a:	2800      	cmp	r0, #0
     21c:	db02      	blt.n	224 <Socket::init_socket(int)+0x1c>
     21e:	6020      	str	r0, [r4, #0]
     220:	2000      	movs	r0, #0
     222:	bd10      	pop	{r4, pc}
     224:	f04f 30ff 	mov.w	r0, #4294967295	; 0xffffffff
     228:	bd10      	pop	{r4, pc}
     22a:	bf00      	nop

0000022c <Socket::select(timeval*, bool, bool)>:
     22c:	b570      	push	{r4, r5, r6, lr}
     22e:	6804      	ldr	r4, [r0, #0]
     230:	2600      	movs	r6, #0
     232:	42b4      	cmp	r4, r6
     234:	b084      	sub	sp, #16
     236:	f88d 600c 	strb.w	r6, [sp, #12]
     23a:	4605      	mov	r5, r0
     23c:	f04f 0601 	mov.w	r6, #1
     240:	4620      	mov	r0, r4
     242:	bfb8      	it	lt
     244:	1de0      	addlt	r0, r4, #7
     246:	f004 0407 	and.w	r4, r4, #7
     24a:	fa06 f404 	lsl.w	r4, r6, r4
     24e:	ae04      	add	r6, sp, #16
     250:	eb06 00e0 	add.w	r0, r6, r0, asr #3
     254:	f800 4c04 	strb.w	r4, [r0, #-4]
     258:	b1f2      	cbz	r2, 298 <Socket::select(timeval*, bool, bool)+0x6c>
     25a:	a803      	add	r0, sp, #12
     25c:	b1fb      	cbz	r3, 29e <Socket::select(timeval*, bool, bool)+0x72>
     25e:	aa03      	add	r2, sp, #12
     260:	9100      	str	r1, [sp, #0]
     262:	2300      	movs	r3, #0
     264:	4601      	mov	r1, r0
     266:	2004      	movs	r0, #4
     268:	f000 fcb2 	bl	bd0 <lwip_select>
     26c:	2800      	cmp	r0, #0
     26e:	dd18      	ble.n	2a2 <Socket::select(timeval*, bool, bool)+0x76>
     270:	682b      	ldr	r3, [r5, #0]
     272:	a904      	add	r1, sp, #16
     274:	2b00      	cmp	r3, #0
     276:	461a      	mov	r2, r3
     278:	bfb8      	it	lt
     27a:	1dda      	addlt	r2, r3, #7
     27c:	eb01 02e2 	add.w	r2, r1, r2, asr #3
     280:	f812 0c04 	ldrb.w	r0, [r2, #-4]
     284:	f003 0307 	and.w	r3, r3, #7
     288:	4118      	asrs	r0, r3
     28a:	f000 0001 	and.w	r0, r0, #1
     28e:	f080 0001 	eor.w	r0, r0, #1
     292:	4240      	negs	r0, r0
     294:	b004      	add	sp, #16
     296:	bd70      	pop	{r4, r5, r6, pc}
     298:	4610      	mov	r0, r2
     29a:	2b00      	cmp	r3, #0
     29c:	d1df      	bne.n	25e <Socket::select(timeval*, bool, bool)+0x32>
     29e:	461a      	mov	r2, r3
     2a0:	e7de      	b.n	260 <Socket::select(timeval*, bool, bool)+0x34>
     2a2:	f04f 30ff 	mov.w	r0, #4294967295	; 0xffffffff
     2a6:	e7f5      	b.n	294 <Socket::select(timeval*, bool, bool)+0x68>

000002a8 <Socket::wait_readable(TimeInterval&)>:
     2a8:	2201      	movs	r2, #1
     2aa:	2300      	movs	r3, #0
     2ac:	f7ff bfbe 	b.w	22c <Socket::select(timeval*, bool, bool)>

000002b0 <Socket::wait_writable(TimeInterval&)>:
     2b0:	2200      	movs	r2, #0
     2b2:	2301      	movs	r3, #1
     2b4:	f7ff bfba 	b.w	22c <Socket::select(timeval*, bool, bool)>

000002b8 <Socket::close(bool)>:
     2b8:	b510      	push	{r4, lr}
     2ba:	4604      	mov	r4, r0
     2bc:	6800      	ldr	r0, [r0, #0]
     2be:	2800      	cmp	r0, #0
     2c0:	db0c      	blt.n	2dc <Socket::close(bool)+0x24>
     2c2:	b931      	cbnz	r1, 2d2 <Socket::close(bool)+0x1a>
     2c4:	f000 fa18 	bl	6f8 <lwip_close>
     2c8:	f04f 33ff 	mov.w	r3, #4294967295	; 0xffffffff
     2cc:	6023      	str	r3, [r4, #0]
     2ce:	2000      	movs	r0, #0
     2d0:	bd10      	pop	{r4, pc}
     2d2:	2102      	movs	r1, #2
     2d4:	f000 fdba 	bl	e4c <lwip_shutdown>
     2d8:	6820      	ldr	r0, [r4, #0]
     2da:	e7f3      	b.n	2c4 <Socket::close(bool)+0xc>
     2dc:	f04f 30ff 	mov.w	r0, #4294967295	; 0xffffffff
     2e0:	bd10      	pop	{r4, pc}
     2e2:	bf00      	nop

000002e4 <TimeInterval::TimeInterval(unsigned int)>:
     2e4:	4a06      	ldr	r2, [pc, #24]	; (300 <TimeInterval::TimeInterval(unsigned int)+0x1c>)
     2e6:	fba2 3201 	umull	r3, r2, r2, r1
     2ea:	4b06      	ldr	r3, [pc, #24]	; (304 <TimeInterval::TimeInterval(unsigned int)+0x20>)
     2ec:	0992      	lsrs	r2, r2, #6
     2ee:	fb03 1102 	mla	r1, r3, r2, r1
     2f2:	f44f 737a 	mov.w	r3, #1000	; 0x3e8
     2f6:	fb03 f101 	mul.w	r1, r3, r1
     2fa:	6002      	str	r2, [r0, #0]
     2fc:	6041      	str	r1, [r0, #4]
     2fe:	4770      	bx	lr
     300:	10624dd3 	.word	0x10624dd3
     304:	fffffc18 	.word	0xfffffc18

00000308 <TCPSocketConnection::TCPSocketConnection()>:
     308:	b510      	push	{r4, lr}
     30a:	4604      	mov	r4, r0
     30c:	f7ff ff70 	bl	1f0 <Socket::Socket()>
     310:	f104 000c 	add.w	r0, r4, #12
     314:	f004 fa9c 	bl	4850 <Endpoint::Endpoint()>
     318:	2300      	movs	r3, #0
     31a:	f884 3030 	strb.w	r3, [r4, #48]	; 0x30
     31e:	4620      	mov	r0, r4
     320:	bd10      	pop	{r4, pc}
     322:	bf00      	nop

00000324 <TCPSocketConnection::connect(char const*, int)>:
     324:	b570      	push	{r4, r5, r6, lr}
     326:	460d      	mov	r5, r1
     328:	2101      	movs	r1, #1
     32a:	4616      	mov	r6, r2
     32c:	4604      	mov	r4, r0
     32e:	f7ff ff6b 	bl	208 <Socket::init_socket(int)>
     332:	2800      	cmp	r0, #0
     334:	db18      	blt.n	368 <TCPSocketConnection::connect(char const*, int)+0x44>
     336:	4629      	mov	r1, r5
     338:	4632      	mov	r2, r6
     33a:	f104 000c 	add.w	r0, r4, #12
     33e:	f004 fa93 	bl	4868 <Endpoint::set_address(char const*, int)>
     342:	4605      	mov	r5, r0
     344:	b980      	cbnz	r0, 368 <TCPSocketConnection::connect(char const*, int)+0x44>
     346:	4621      	mov	r1, r4
     348:	f851 0b20 	ldr.w	r0, [r1], #32
     34c:	2210      	movs	r2, #16
     34e:	f000 fa09 	bl	764 <lwip_connect>
     352:	2800      	cmp	r0, #0
     354:	db04      	blt.n	360 <TCPSocketConnection::connect(char const*, int)+0x3c>
     356:	2301      	movs	r3, #1
     358:	f884 3030 	strb.w	r3, [r4, #48]	; 0x30
     35c:	4628      	mov	r0, r5
     35e:	bd70      	pop	{r4, r5, r6, pc}
     360:	4620      	mov	r0, r4
     362:	2101      	movs	r1, #1
     364:	f7ff ffa8 	bl	2b8 <Socket::close(bool)>
     368:	f04f 35ff 	mov.w	r5, #4294967295	; 0xffffffff
     36c:	4628      	mov	r0, r5
     36e:	bd70      	pop	{r4, r5, r6, pc}

00000370 <TCPSocketConnection::send_all(char*, int)>:
     370:	b5f0      	push	{r4, r5, r6, r7, lr}
     372:	6803      	ldr	r3, [r0, #0]
     374:	b083      	sub	sp, #12
     376:	2b00      	cmp	r3, #0
     378:	4605      	mov	r5, r0
     37a:	460f      	mov	r7, r1
     37c:	4616      	mov	r6, r2
     37e:	db25      	blt.n	3cc <TCPSocketConnection::send_all(char*, int)+0x5c>
     380:	f890 3030 	ldrb.w	r3, [r0, #48]	; 0x30
     384:	b313      	cbz	r3, 3cc <TCPSocketConnection::send_all(char*, int)+0x5c>
     386:	4668      	mov	r0, sp
     388:	68a9      	ldr	r1, [r5, #8]
     38a:	f7ff ffab 	bl	2e4 <TimeInterval::TimeInterval(unsigned int)>
     38e:	2e00      	cmp	r6, #0
     390:	dd20      	ble.n	3d4 <TCPSocketConnection::send_all(char*, int)+0x64>
     392:	2400      	movs	r4, #0
     394:	e002      	b.n	39c <TCPSocketConnection::send_all(char*, int)+0x2c>
     396:	4404      	add	r4, r0
     398:	42a6      	cmp	r6, r4
     39a:	dd14      	ble.n	3c6 <TCPSocketConnection::send_all(char*, int)+0x56>
     39c:	792b      	ldrb	r3, [r5, #4]
     39e:	4669      	mov	r1, sp
     3a0:	4628      	mov	r0, r5
     3a2:	b913      	cbnz	r3, 3aa <TCPSocketConnection::send_all(char*, int)+0x3a>
     3a4:	f7ff ff84 	bl	2b0 <Socket::wait_writable(TimeInterval&)>
     3a8:	b968      	cbnz	r0, 3c6 <TCPSocketConnection::send_all(char*, int)+0x56>
     3aa:	6828      	ldr	r0, [r5, #0]
     3ac:	1939      	adds	r1, r7, r4
     3ae:	1b32      	subs	r2, r6, r4
     3b0:	2300      	movs	r3, #0
     3b2:	f000 fb7d 	bl	ab0 <lwip_send>
     3b6:	2800      	cmp	r0, #0
     3b8:	dced      	bgt.n	396 <TCPSocketConnection::send_all(char*, int)+0x26>
     3ba:	d107      	bne.n	3cc <TCPSocketConnection::send_all(char*, int)+0x5c>
     3bc:	f885 0030 	strb.w	r0, [r5, #48]	; 0x30
     3c0:	4620      	mov	r0, r4
     3c2:	b003      	add	sp, #12
     3c4:	bdf0      	pop	{r4, r5, r6, r7, pc}
     3c6:	4620      	mov	r0, r4
     3c8:	b003      	add	sp, #12
     3ca:	bdf0      	pop	{r4, r5, r6, r7, pc}
     3cc:	f04f 30ff 	mov.w	r0, #4294967295	; 0xffffffff
     3d0:	b003      	add	sp, #12
     3d2:	bdf0      	pop	{r4, r5, r6, r7, pc}
     3d4:	2000      	movs	r0, #0
     3d6:	e7f7      	b.n	3c8 <TCPSocketConnection::send_all(char*, int)+0x58>

000003d8 <TCPSocketConnection::receive(char*, int)>:
     3d8:	b570      	push	{r4, r5, r6, lr}
     3da:	4604      	mov	r4, r0
     3dc:	6800      	ldr	r0, [r0, #0]
     3de:	b082      	sub	sp, #8
     3e0:	2800      	cmp	r0, #0
     3e2:	460d      	mov	r5, r1
     3e4:	4616      	mov	r6, r2
     3e6:	db1a      	blt.n	41e <TCPSocketConnection::receive(char*, int)+0x46>
     3e8:	f894 3030 	ldrb.w	r3, [r4, #48]	; 0x30
     3ec:	b1bb      	cbz	r3, 41e <TCPSocketConnection::receive(char*, int)+0x46>
     3ee:	7923      	ldrb	r3, [r4, #4]
     3f0:	b94b      	cbnz	r3, 406 <TCPSocketConnection::receive(char*, int)+0x2e>
     3f2:	68a1      	ldr	r1, [r4, #8]
     3f4:	4668      	mov	r0, sp
     3f6:	f7ff ff75 	bl	2e4 <TimeInterval::TimeInterval(unsigned int)>
     3fa:	4620      	mov	r0, r4
     3fc:	4669      	mov	r1, sp
     3fe:	f7ff ff53 	bl	2a8 <Socket::wait_readable(TimeInterval&)>
     402:	b960      	cbnz	r0, 41e <TCPSocketConnection::receive(char*, int)+0x46>
     404:	6820      	ldr	r0, [r4, #0]
     406:	2300      	movs	r3, #0
     408:	4629      	mov	r1, r5
     40a:	4632      	mov	r2, r6
     40c:	f000 fade 	bl	9cc <lwip_recv>
     410:	1c03      	adds	r3, r0, #0
     412:	bf18      	it	ne
     414:	2301      	movne	r3, #1
     416:	f884 3030 	strb.w	r3, [r4, #48]	; 0x30
     41a:	b002      	add	sp, #8
     41c:	bd70      	pop	{r4, r5, r6, pc}
     41e:	f04f 30ff 	mov.w	r0, #4294967295	; 0xffffffff
     422:	e7fa      	b.n	41a <TCPSocketConnection::receive(char*, int)+0x42>

00000424 <alloc_socket>:
     424:	e92d 47f0 	stmdb	sp!, {r4, r5, r6, r7, r8, r9, r10, lr}
     428:	2400      	movs	r4, #0
     42a:	4f1c      	ldr	r7, [pc, #112]	; (49c <alloc_socket+0x78>)
     42c:	4680      	mov	r8, r0
     42e:	4689      	mov	r9, r1
     430:	4625      	mov	r5, r4
     432:	f004 fbc7 	bl	4bc4 <sys_arch_protect>
     436:	593e      	ldr	r6, [r7, r4]
     438:	4b18      	ldr	r3, [pc, #96]	; (49c <alloc_socket+0x78>)
     43a:	3418      	adds	r4, #24
     43c:	b146      	cbz	r6, 450 <alloc_socket+0x2c>
     43e:	3501      	adds	r5, #1
     440:	f004 fbd2 	bl	4be8 <sys_arch_unprotect>
     444:	2d04      	cmp	r5, #4
     446:	d1f4      	bne.n	432 <alloc_socket+0xe>
     448:	f04f 30ff 	mov.w	r0, #4294967295	; 0xffffffff
     44c:	e8bd 87f0 	ldmia.w	sp!, {r4, r5, r6, r7, r8, r9, r10, pc}
     450:	ea4f 0a45 	mov.w	r10, r5, lsl #1
     454:	eb0a 0405 	add.w	r4, r10, r5
     458:	00e4      	lsls	r4, r4, #3
     45a:	f843 8004 	str.w	r8, [r3, r4]
     45e:	441c      	add	r4, r3
     460:	f004 fbc2 	bl	4be8 <sys_arch_unprotect>
     464:	f898 3000 	ldrb.w	r3, [r8]
     468:	6066      	str	r6, [r4, #4]
     46a:	2b10      	cmp	r3, #16
     46c:	8126      	strh	r6, [r4, #8]
     46e:	8166      	strh	r6, [r4, #10]
     470:	d00e      	beq.n	490 <alloc_socket+0x6c>
     472:	f04f 0901 	mov.w	r9, #1
     476:	44aa      	add	r10, r5
     478:	eb07 07ca 	add.w	r7, r7, r10, lsl #3
     47c:	2300      	movs	r3, #0
     47e:	f8a7 900c 	strh.w	r9, [r7, #12]
     482:	81fb      	strh	r3, [r7, #14]
     484:	f847 3f10 	str.w	r3, [r7, #16]!
     488:	4628      	mov	r0, r5
     48a:	607b      	str	r3, [r7, #4]
     48c:	e8bd 87f0 	ldmia.w	sp!, {r4, r5, r6, r7, r8, r9, r10, pc}
     490:	f119 0900 	adds.w	r9, r9, #0
     494:	bf18      	it	ne
     496:	f04f 0901 	movne.w	r9, #1
     49a:	e7ec      	b.n	476 <alloc_socket+0x52>
     49c:	10000208 	.word	0x10000208

000004a0 <lwip_selscan>:
     4a0:	e92d 4ff0 	stmdb	sp!, {r4, r5, r6, r7, r8, r9, r10, r11, lr}
     4a4:	2800      	cmp	r0, #0
     4a6:	b089      	sub	sp, #36	; 0x24
     4a8:	f04f 0700 	mov.w	r7, #0
     4ac:	9102      	str	r1, [sp, #8]
     4ae:	4691      	mov	r9, r2
     4b0:	469a      	mov	r10, r3
     4b2:	f88d 7014 	strb.w	r7, [sp, #20]
     4b6:	f88d 7018 	strb.w	r7, [sp, #24]
     4ba:	f88d 701c 	strb.w	r7, [sp, #28]
     4be:	9003      	str	r0, [sp, #12]
     4c0:	9701      	str	r7, [sp, #4]
     4c2:	dd62      	ble.n	58a <lwip_selscan+0xea>
     4c4:	4d44      	ldr	r5, [pc, #272]	; (5d8 <lwip_selscan+0x138>)
     4c6:	463c      	mov	r4, r7
     4c8:	f004 fb7c 	bl	4bc4 <sys_arch_protect>
     4cc:	2c03      	cmp	r4, #3
     4ce:	d970      	bls.n	5b2 <lwip_selscan+0x112>
     4d0:	2600      	movs	r6, #0
     4d2:	46b3      	mov	r11, r6
     4d4:	4637      	mov	r7, r6
     4d6:	46b0      	mov	r8, r6
     4d8:	f004 fb86 	bl	4be8 <sys_arch_unprotect>
     4dc:	9902      	ldr	r1, [sp, #8]
     4de:	b1d1      	cbz	r1, 516 <lwip_selscan+0x76>
     4e0:	9a02      	ldr	r2, [sp, #8]
     4e2:	10e1      	asrs	r1, r4, #3
     4e4:	f812 c001 	ldrb.w	r12, [r2, r1]
     4e8:	f004 0007 	and.w	r0, r4, #7
     4ec:	fa4c fc00 	asr.w	r12, r12, r0
     4f0:	f01c 0f01 	tst.w	r12, #1
     4f4:	d00f      	beq.n	516 <lwip_selscan+0x76>
     4f6:	f1b8 0f00 	cmp.w	r8, #0
     4fa:	d056      	beq.n	5aa <lwip_selscan+0x10a>
     4fc:	2301      	movs	r3, #1
     4fe:	fa03 f000 	lsl.w	r0, r3, r0
     502:	aa08      	add	r2, sp, #32
     504:	4411      	add	r1, r2
     506:	f811 2c0c 	ldrb.w	r2, [r1, #-12]
     50a:	9b01      	ldr	r3, [sp, #4]
     50c:	4310      	orrs	r0, r2
     50e:	3301      	adds	r3, #1
     510:	9301      	str	r3, [sp, #4]
     512:	f801 0c0c 	strb.w	r0, [r1, #-12]
     516:	f1b9 0f00 	cmp.w	r9, #0
     51a:	d017      	beq.n	54c <lwip_selscan+0xac>
     51c:	10e2      	asrs	r2, r4, #3
     51e:	f819 0002 	ldrb.w	r0, [r9, r2]
     522:	f004 0107 	and.w	r1, r4, #7
     526:	4108      	asrs	r0, r1
     528:	07c0      	lsls	r0, r0, #31
     52a:	d50f      	bpl.n	54c <lwip_selscan+0xac>
     52c:	f1bb 0f00 	cmp.w	r11, #0
     530:	d00c      	beq.n	54c <lwip_selscan+0xac>
     532:	2001      	movs	r0, #1
     534:	fa00 f101 	lsl.w	r1, r0, r1
     538:	ab08      	add	r3, sp, #32
     53a:	441a      	add	r2, r3
     53c:	f812 3c08 	ldrb.w	r3, [r2, #-8]
     540:	9801      	ldr	r0, [sp, #4]
     542:	4319      	orrs	r1, r3
     544:	3001      	adds	r0, #1
     546:	9001      	str	r0, [sp, #4]
     548:	f802 1c08 	strb.w	r1, [r2, #-8]
     54c:	f1ba 0f00 	cmp.w	r10, #0
     550:	d015      	beq.n	57e <lwip_selscan+0xde>
     552:	10e3      	asrs	r3, r4, #3
     554:	f81a 1003 	ldrb.w	r1, [r10, r3]
     558:	f004 0207 	and.w	r2, r4, #7
     55c:	4111      	asrs	r1, r2
     55e:	07c9      	lsls	r1, r1, #31
     560:	d50d      	bpl.n	57e <lwip_selscan+0xde>
     562:	b166      	cbz	r6, 57e <lwip_selscan+0xde>
     564:	2101      	movs	r1, #1
     566:	fa01 f202 	lsl.w	r2, r1, r2
     56a:	a808      	add	r0, sp, #32
     56c:	4403      	add	r3, r0
     56e:	f813 1c04 	ldrb.w	r1, [r3, #-4]
     572:	9801      	ldr	r0, [sp, #4]
     574:	430a      	orrs	r2, r1
     576:	3001      	adds	r0, #1
     578:	9001      	str	r0, [sp, #4]
     57a:	f803 2c04 	strb.w	r2, [r3, #-4]
     57e:	9903      	ldr	r1, [sp, #12]
     580:	3401      	adds	r4, #1
     582:	428c      	cmp	r4, r1
     584:	f105 0518 	add.w	r5, r5, #24
     588:	d19e      	bne.n	4c8 <lwip_selscan+0x28>
     58a:	f89d 1014 	ldrb.w	r1, [sp, #20]
     58e:	9c12      	ldr	r4, [sp, #72]	; 0x48
     590:	f89d 2018 	ldrb.w	r2, [sp, #24]
     594:	7021      	strb	r1, [r4, #0]
     596:	9913      	ldr	r1, [sp, #76]	; 0x4c
     598:	f89d 301c 	ldrb.w	r3, [sp, #28]
     59c:	700a      	strb	r2, [r1, #0]
     59e:	9801      	ldr	r0, [sp, #4]
     5a0:	9a14      	ldr	r2, [sp, #80]	; 0x50
     5a2:	7013      	strb	r3, [r2, #0]
     5a4:	b009      	add	sp, #36	; 0x24
     5a6:	e8bd 8ff0 	ldmia.w	sp!, {r4, r5, r6, r7, r8, r9, r10, r11, pc}
     5aa:	b23f      	sxth	r7, r7
     5ac:	2f00      	cmp	r7, #0
     5ae:	dca5      	bgt.n	4fc <lwip_selscan+0x5c>
     5b0:	e7b1      	b.n	516 <lwip_selscan+0x76>
     5b2:	682e      	ldr	r6, [r5, #0]
     5b4:	b13e      	cbz	r6, 5c6 <lwip_selscan+0x126>
     5b6:	b155      	cbz	r5, 5ce <lwip_selscan+0x12e>
     5b8:	f8d5 8004 	ldr.w	r8, [r5, #4]
     5bc:	896f      	ldrh	r7, [r5, #10]
     5be:	f8b5 b00c 	ldrh.w	r11, [r5, #12]
     5c2:	89ee      	ldrh	r6, [r5, #14]
     5c4:	e788      	b.n	4d8 <lwip_selscan+0x38>
     5c6:	46b3      	mov	r11, r6
     5c8:	4637      	mov	r7, r6
     5ca:	46b0      	mov	r8, r6
     5cc:	e784      	b.n	4d8 <lwip_selscan+0x38>
     5ce:	462e      	mov	r6, r5
     5d0:	46ab      	mov	r11, r5
     5d2:	462f      	mov	r7, r5
     5d4:	46a8      	mov	r8, r5
     5d6:	e77f      	b.n	4d8 <lwip_selscan+0x38>
     5d8:	10000208 	.word	0x10000208

000005dc <event_callback>:
     5dc:	e92d 4ff8 	stmdb	sp!, {r3, r4, r5, r6, r7, r8, r9, r10, r11, lr}
     5e0:	4605      	mov	r5, r0
     5e2:	460e      	mov	r6, r1
     5e4:	b1b8      	cbz	r0, 616 <event_callback+0x3a>
     5e6:	f8d0 4094 	ldr.w	r4, [r0, #148]	; 0x94
     5ea:	2c00      	cmp	r4, #0
     5ec:	db68      	blt.n	6c0 <event_callback+0xe4>
     5ee:	2c03      	cmp	r4, #3
     5f0:	d811      	bhi.n	616 <event_callback+0x3a>
     5f2:	4f3d      	ldr	r7, [pc, #244]	; (6e8 <event_callback+0x10c>)
     5f4:	eb04 0344 	add.w	r3, r4, r4, lsl #1
     5f8:	00db      	lsls	r3, r3, #3
     5fa:	58fa      	ldr	r2, [r7, r3]
     5fc:	441f      	add	r7, r3
     5fe:	b152      	cbz	r2, 616 <event_callback+0x3a>
     600:	b14f      	cbz	r7, 616 <event_callback+0x3a>
     602:	f004 fadf 	bl	4bc4 <sys_arch_protect>
     606:	4605      	mov	r5, r0
     608:	2e04      	cmp	r6, #4
     60a:	d809      	bhi.n	620 <event_callback+0x44>
     60c:	e8df f006 	tbb	[pc, r6]
     610:	4e515405 	.word	0x4e515405
     614:	4b          	.byte	0x4b
     615:	00          	.byte	0x00
     616:	e8bd 8ff8 	ldmia.w	sp!, {r3, r4, r5, r6, r7, r8, r9, r10, r11, pc}
     61a:	897b      	ldrh	r3, [r7, #10]
     61c:	3301      	adds	r3, #1
     61e:	817b      	strh	r3, [r7, #10]
     620:	697b      	ldr	r3, [r7, #20]
     622:	2b00      	cmp	r3, #0
     624:	d033      	beq.n	68e <event_callback+0xb2>
     626:	f04f 0901 	mov.w	r9, #1
     62a:	fa09 f804 	lsl.w	r8, r9, r4
     62e:	f8df a0c0 	ldr.w	r10, [pc, #192]	; 6f0 <event_callback+0x114>
     632:	4e2e      	ldr	r6, [pc, #184]	; (6ec <event_callback+0x110>)
     634:	f8da 4000 	ldr.w	r4, [r10]
     638:	b34c      	cbz	r4, 68e <event_callback+0xb2>
     63a:	6963      	ldr	r3, [r4, #20]
     63c:	b9cb      	cbnz	r3, 672 <event_callback+0x96>
     63e:	f9b7 300a 	ldrsh.w	r3, [r7, #10]
     642:	2b00      	cmp	r3, #0
     644:	dd05      	ble.n	652 <event_callback+0x76>
     646:	68a3      	ldr	r3, [r4, #8]
     648:	b11b      	cbz	r3, 652 <event_callback+0x76>
     64a:	781b      	ldrb	r3, [r3, #0]
     64c:	ea13 0f08 	tst.w	r3, r8
     650:	d122      	bne.n	698 <event_callback+0xbc>
     652:	89bb      	ldrh	r3, [r7, #12]
     654:	b12b      	cbz	r3, 662 <event_callback+0x86>
     656:	68e3      	ldr	r3, [r4, #12]
     658:	b11b      	cbz	r3, 662 <event_callback+0x86>
     65a:	781b      	ldrb	r3, [r3, #0]
     65c:	ea13 0f08 	tst.w	r3, r8
     660:	d11a      	bne.n	698 <event_callback+0xbc>
     662:	89fb      	ldrh	r3, [r7, #14]
     664:	b12b      	cbz	r3, 672 <event_callback+0x96>
     666:	6923      	ldr	r3, [r4, #16]
     668:	b11b      	cbz	r3, 672 <event_callback+0x96>
     66a:	781b      	ldrb	r3, [r3, #0]
     66c:	ea13 0f08 	tst.w	r3, r8
     670:	d112      	bne.n	698 <event_callback+0xbc>
     672:	4628      	mov	r0, r5
     674:	f8d6 b000 	ldr.w	r11, [r6]
     678:	f004 fab6 	bl	4be8 <sys_arch_unprotect>
     67c:	f004 faa2 	bl	4bc4 <sys_arch_protect>
     680:	6833      	ldr	r3, [r6, #0]
     682:	4605      	mov	r5, r0
     684:	459b      	cmp	r11, r3
     686:	d1d5      	bne.n	634 <event_callback+0x58>
     688:	6824      	ldr	r4, [r4, #0]
     68a:	2c00      	cmp	r4, #0
     68c:	d1d5      	bne.n	63a <event_callback+0x5e>
     68e:	4628      	mov	r0, r5
     690:	e8bd 4ff8 	ldmia.w	sp!, {r3, r4, r5, r6, r7, r8, r9, r10, r11, lr}
     694:	f004 baa8 	b.w	4be8 <sys_arch_unprotect>
     698:	f8c4 9014 	str.w	r9, [r4, #20]
     69c:	f104 0018 	add.w	r0, r4, #24
     6a0:	f004 fa34 	bl	4b0c <sys_sem_signal>
     6a4:	e7e5      	b.n	672 <event_callback+0x96>
     6a6:	2301      	movs	r3, #1
     6a8:	81fb      	strh	r3, [r7, #14]
     6aa:	e7b9      	b.n	620 <event_callback+0x44>
     6ac:	2300      	movs	r3, #0
     6ae:	81bb      	strh	r3, [r7, #12]
     6b0:	e7b6      	b.n	620 <event_callback+0x44>
     6b2:	2301      	movs	r3, #1
     6b4:	81bb      	strh	r3, [r7, #12]
     6b6:	e7b3      	b.n	620 <event_callback+0x44>
     6b8:	897b      	ldrh	r3, [r7, #10]
     6ba:	3b01      	subs	r3, #1
     6bc:	817b      	strh	r3, [r7, #10]
     6be:	e7af      	b.n	620 <event_callback+0x44>
     6c0:	f004 fa80 	bl	4bc4 <sys_arch_protect>
     6c4:	f8d5 4094 	ldr.w	r4, [r5, #148]	; 0x94
     6c8:	4603      	mov	r3, r0
     6ca:	2c00      	cmp	r4, #0
     6cc:	db02      	blt.n	6d4 <event_callback+0xf8>
     6ce:	f004 fa8b 	bl	4be8 <sys_arch_unprotect>
     6d2:	e78c      	b.n	5ee <event_callback+0x12>
     6d4:	b916      	cbnz	r6, 6dc <event_callback+0x100>
     6d6:	3c01      	subs	r4, #1
     6d8:	f8c5 4094 	str.w	r4, [r5, #148]	; 0x94
     6dc:	4618      	mov	r0, r3
     6de:	e8bd 4ff8 	ldmia.w	sp!, {r3, r4, r5, r6, r7, r8, r9, r10, r11, lr}
     6e2:	f004 ba81 	b.w	4be8 <sys_arch_unprotect>
     6e6:	bf00      	nop
     6e8:	10000208 	.word	0x10000208
     6ec:	10000268 	.word	0x10000268
     6f0:	10000204 	.word	0x10000204

000006f4 <lwip_socket_init>:
     6f4:	4770      	bx	lr
     6f6:	bf00      	nop

000006f8 <lwip_close>:
     6f8:	2803      	cmp	r0, #3
     6fa:	e92d 43f8 	stmdb	sp!, {r3, r4, r5, r6, r7, r8, r9, lr}
     6fe:	d824      	bhi.n	74a <lwip_close+0x52>
     700:	f8df 805c 	ldr.w	r8, [pc, #92]	; 760 <lwip_close+0x68>
     704:	eb00 0040 	add.w	r0, r0, r0, lsl #1
     708:	00c7      	lsls	r7, r0, #3
     70a:	f858 3007 	ldr.w	r3, [r8, r7]
     70e:	eb08 0507 	add.w	r5, r8, r7
     712:	b1d3      	cbz	r3, 74a <lwip_close+0x52>
     714:	b1cd      	cbz	r5, 74a <lwip_close+0x52>
     716:	2400      	movs	r4, #0
     718:	4618      	mov	r0, r3
     71a:	f893 9000 	ldrb.w	r9, [r3]
     71e:	f004 fb67 	bl	4df0 <netconn_delete>
     722:	686e      	ldr	r6, [r5, #4]
     724:	812c      	strh	r4, [r5, #8]
     726:	606c      	str	r4, [r5, #4]
     728:	612c      	str	r4, [r5, #16]
     72a:	f004 fa4b 	bl	4bc4 <sys_arch_protect>
     72e:	f848 4007 	str.w	r4, [r8, r7]
     732:	f004 fa59 	bl	4be8 <sys_arch_unprotect>
     736:	4630      	mov	r0, r6
     738:	b186      	cbz	r6, 75c <lwip_close+0x64>
     73a:	f1b9 0f10 	cmp.w	r9, #16
     73e:	d008      	beq.n	752 <lwip_close+0x5a>
     740:	f005 f9a8 	bl	5a94 <netbuf_delete>
     744:	4620      	mov	r0, r4
     746:	e8bd 83f8 	ldmia.w	sp!, {r3, r4, r5, r6, r7, r8, r9, pc}
     74a:	f04f 30ff 	mov.w	r0, #4294967295	; 0xffffffff
     74e:	e8bd 83f8 	ldmia.w	sp!, {r3, r4, r5, r6, r7, r8, r9, pc}
     752:	f000 ffe3 	bl	171c <pbuf_free>
     756:	4620      	mov	r0, r4
     758:	e8bd 83f8 	ldmia.w	sp!, {r3, r4, r5, r6, r7, r8, r9, pc}
     75c:	e8bd 83f8 	ldmia.w	sp!, {r3, r4, r5, r6, r7, r8, r9, pc}
     760:	10000208 	.word	0x10000208

00000764 <lwip_connect>:
     764:	b530      	push	{r4, r5, lr}
     766:	2803      	cmp	r0, #3
     768:	b083      	sub	sp, #12
     76a:	d81c      	bhi.n	7a6 <lwip_connect+0x42>
     76c:	eb00 0040 	add.w	r0, r0, r0, lsl #1
     770:	4b15      	ldr	r3, [pc, #84]	; (7c8 <lwip_connect+0x64>)
     772:	00c4      	lsls	r4, r0, #3
     774:	5918      	ldr	r0, [r3, r4]
     776:	441c      	add	r4, r3
     778:	b1a8      	cbz	r0, 7a6 <lwip_connect+0x42>
     77a:	b1a4      	cbz	r4, 7a6 <lwip_connect+0x42>
     77c:	2a10      	cmp	r2, #16
     77e:	d116      	bne.n	7ae <lwip_connect+0x4a>
     780:	784b      	ldrb	r3, [r1, #1]
     782:	2b02      	cmp	r3, #2
     784:	d113      	bne.n	7ae <lwip_connect+0x4a>
     786:	078b      	lsls	r3, r1, #30
     788:	d111      	bne.n	7ae <lwip_connect+0x4a>
     78a:	684d      	ldr	r5, [r1, #4]
     78c:	ab02      	add	r3, sp, #8
     78e:	884a      	ldrh	r2, [r1, #2]
     790:	f843 5d04 	str.w	r5, [r3, #-4]!
     794:	ba52      	rev16	r2, r2
     796:	4619      	mov	r1, r3
     798:	b292      	uxth	r2, r2
     79a:	f004 fb5d 	bl	4e58 <netconn_connect>
     79e:	b960      	cbnz	r0, 7ba <lwip_connect+0x56>
     7a0:	6120      	str	r0, [r4, #16]
     7a2:	b003      	add	sp, #12
     7a4:	bd30      	pop	{r4, r5, pc}
     7a6:	f04f 30ff 	mov.w	r0, #4294967295	; 0xffffffff
     7aa:	b003      	add	sp, #12
     7ac:	bd30      	pop	{r4, r5, pc}
     7ae:	2305      	movs	r3, #5
     7b0:	f04f 30ff 	mov.w	r0, #4294967295	; 0xffffffff
     7b4:	6123      	str	r3, [r4, #16]
     7b6:	b003      	add	sp, #12
     7b8:	bd30      	pop	{r4, r5, pc}
     7ba:	4240      	negs	r0, r0
     7bc:	280f      	cmp	r0, #15
     7be:	d8f6      	bhi.n	7ae <lwip_connect+0x4a>
     7c0:	4b02      	ldr	r3, [pc, #8]	; (7cc <lwip_connect+0x68>)
     7c2:	f853 3020 	ldr.w	r3, [r3, r0, lsl #2]
     7c6:	e7f3      	b.n	7b0 <lwip_connect+0x4c>
     7c8:	10000208 	.word	0x10000208
     7cc:	0000d970 	.word	0x0000d970

000007d0 <lwip_recvfrom>:
     7d0:	e92d 4ff0 	stmdb	sp!, {r4, r5, r6, r7, r8, r9, r10, r11, lr}
     7d4:	2803      	cmp	r0, #3
     7d6:	b08d      	sub	sp, #52	; 0x34
     7d8:	f04f 0700 	mov.w	r7, #0
     7dc:	468b      	mov	r11, r1
     7de:	4692      	mov	r10, r2
     7e0:	4699      	mov	r9, r3
     7e2:	9706      	str	r7, [sp, #24]
     7e4:	d85d      	bhi.n	8a2 <Heap_Size+0xa2>
     7e6:	4977      	ldr	r1, [pc, #476]	; (9c4 <Heap_Size+0x1c4>)
     7e8:	eb00 0040 	add.w	r0, r0, r0, lsl #1
     7ec:	00c0      	lsls	r0, r0, #3
     7ee:	580b      	ldr	r3, [r1, r0]
     7f0:	460c      	mov	r4, r1
     7f2:	9003      	str	r0, [sp, #12]
     7f4:	4404      	add	r4, r0
     7f6:	2b00      	cmp	r3, #0
     7f8:	d053      	beq.n	8a2 <Heap_Size+0xa2>
     7fa:	2c00      	cmp	r4, #0
     7fc:	d051      	beq.n	8a2 <Heap_Size+0xa2>
     7fe:	f009 0208 	and.w	r2, r9, #8
     802:	f8cd 9004 	str.w	r9, [sp, #4]
     806:	46b9      	mov	r9, r7
     808:	9f16      	ldr	r7, [sp, #88]	; 0x58
     80a:	9202      	str	r2, [sp, #8]
     80c:	6865      	ldr	r5, [r4, #4]
     80e:	2d00      	cmp	r5, #0
     810:	f000 8089 	beq.w	926 <Heap_Size+0x126>
     814:	9506      	str	r5, [sp, #24]
     816:	6823      	ldr	r3, [r4, #0]
     818:	eb0b 0109 	add.w	r1, r11, r9
     81c:	781b      	ldrb	r3, [r3, #0]
     81e:	2b10      	cmp	r3, #16
     820:	bf18      	it	ne
     822:	682d      	ldrne	r5, [r5, #0]
     824:	8923      	ldrh	r3, [r4, #8]
     826:	f8b5 8008 	ldrh.w	r8, [r5, #8]
     82a:	4628      	mov	r0, r5
     82c:	ebc3 0808 	rsb	r8, r3, r8
     830:	fa1f f888 	uxth.w	r8, r8
     834:	45c2      	cmp	r10, r8
     836:	bf94      	ite	ls
     838:	fa1f f68a 	uxthls.w	r6, r10
     83c:	4646      	movhi	r6, r8
     83e:	4632      	mov	r2, r6
     840:	f001 f8e8 	bl	1a14 <pbuf_copy_partial>
     844:	6820      	ldr	r0, [r4, #0]
     846:	44b1      	add	r9, r6
     848:	7803      	ldrb	r3, [r0, #0]
     84a:	2b10      	cmp	r3, #16
     84c:	d167      	bne.n	91e <Heap_Size+0x11e>
     84e:	ebba 0a06 	subs.w	r10, r10, r6
     852:	d02b      	beq.n	8ac <Heap_Size+0xac>
     854:	7b6a      	ldrb	r2, [r5, #13]
     856:	07d2      	lsls	r2, r2, #31
     858:	d461      	bmi.n	91e <Heap_Size+0x11e>
     85a:	f9b4 200a 	ldrsh.w	r2, [r4, #10]
     85e:	2a00      	cmp	r2, #0
     860:	dd24      	ble.n	8ac <Heap_Size+0xac>
     862:	9901      	ldr	r1, [sp, #4]
     864:	f011 0201 	ands.w	r2, r1, #1
     868:	d157      	bne.n	91a <Heap_Size+0x11a>
     86a:	4615      	mov	r5, r2
     86c:	ebc6 0808 	rsb	r8, r6, r8
     870:	f1b8 0f00 	cmp.w	r8, #0
     874:	f340 808b 	ble.w	98e <Heap_Size+0x18e>
     878:	8922      	ldrh	r2, [r4, #8]
     87a:	9b06      	ldr	r3, [sp, #24]
     87c:	4416      	add	r6, r2
     87e:	8126      	strh	r6, [r4, #8]
     880:	6063      	str	r3, [r4, #4]
     882:	2d00      	cmp	r5, #0
     884:	d0c2      	beq.n	80c <Heap_Size+0xc>
     886:	464f      	mov	r7, r9
     888:	b12f      	cbz	r7, 896 <Heap_Size+0x96>
     88a:	4b4e      	ldr	r3, [pc, #312]	; (9c4 <Heap_Size+0x1c4>)
     88c:	9a03      	ldr	r2, [sp, #12]
     88e:	5898      	ldr	r0, [r3, r2]
     890:	4639      	mov	r1, r7
     892:	f004 fb4b 	bl	4f2c <netconn_recved>
     896:	2300      	movs	r3, #0
     898:	4638      	mov	r0, r7
     89a:	6123      	str	r3, [r4, #16]
     89c:	b00d      	add	sp, #52	; 0x34
     89e:	e8bd 8ff0 	ldmia.w	sp!, {r4, r5, r6, r7, r8, r9, r10, r11, pc}
     8a2:	f04f 30ff 	mov.w	r0, #4294967295	; 0xffffffff
     8a6:	b00d      	add	sp, #52	; 0x34
     8a8:	e8bd 8ff0 	ldmia.w	sp!, {r4, r5, r6, r7, r8, r9, r10, r11, pc}
     8ac:	9a01      	ldr	r2, [sp, #4]
     8ae:	f002 0501 	and.w	r5, r2, #1
     8b2:	b32f      	cbz	r7, 900 <Heap_Size+0x100>
     8b4:	9a17      	ldr	r2, [sp, #92]	; 0x5c
     8b6:	b31a      	cbz	r2, 900 <Heap_Size+0x100>
     8b8:	2b10      	cmp	r3, #16
     8ba:	d04a      	beq.n	952 <Heap_Size+0x152>
     8bc:	9a06      	ldr	r2, [sp, #24]
     8be:	8993      	ldrh	r3, [r2, #12]
     8c0:	3208      	adds	r2, #8
     8c2:	f8ad 3016 	strh.w	r3, [sp, #22]
     8c6:	4619      	mov	r1, r3
     8c8:	2300      	movs	r3, #0
     8ca:	9308      	str	r3, [sp, #32]
     8cc:	2002      	movs	r0, #2
     8ce:	9309      	str	r3, [sp, #36]	; 0x24
     8d0:	930a      	str	r3, [sp, #40]	; 0x28
     8d2:	930b      	str	r3, [sp, #44]	; 0x2c
     8d4:	f04f 0310 	mov.w	r3, #16
     8d8:	f88d 3020 	strb.w	r3, [sp, #32]
     8dc:	f88d 0021 	strb.w	r0, [sp, #33]	; 0x21
     8e0:	ba4b      	rev16	r3, r1
     8e2:	9817      	ldr	r0, [sp, #92]	; 0x5c
     8e4:	6811      	ldr	r1, [r2, #0]
     8e6:	6802      	ldr	r2, [r0, #0]
     8e8:	9109      	str	r1, [sp, #36]	; 0x24
     8ea:	2a10      	cmp	r2, #16
     8ec:	f8ad 3022 	strh.w	r3, [sp, #34]	; 0x22
     8f0:	d902      	bls.n	8f8 <Heap_Size+0xf8>
     8f2:	2110      	movs	r1, #16
     8f4:	6001      	str	r1, [r0, #0]
     8f6:	460a      	mov	r2, r1
     8f8:	a908      	add	r1, sp, #32
     8fa:	4638      	mov	r0, r7
     8fc:	f004 f824 	bl	4948 <thumb2_memcpy>
     900:	2d00      	cmp	r5, #0
     902:	d1c0      	bne.n	886 <Heap_Size+0x86>
     904:	6823      	ldr	r3, [r4, #0]
     906:	781b      	ldrb	r3, [r3, #0]
     908:	2b10      	cmp	r3, #16
     90a:	d059      	beq.n	9c0 <Heap_Size+0x1c0>
     90c:	9806      	ldr	r0, [sp, #24]
     90e:	6065      	str	r5, [r4, #4]
     910:	8125      	strh	r5, [r4, #8]
     912:	464f      	mov	r7, r9
     914:	f005 f8be 	bl	5a94 <netbuf_delete>
     918:	e7b6      	b.n	888 <Heap_Size+0x88>
     91a:	2501      	movs	r5, #1
     91c:	e7c9      	b.n	8b2 <Heap_Size+0xb2>
     91e:	9901      	ldr	r1, [sp, #4]
     920:	f001 0501 	and.w	r5, r1, #1
     924:	e7c5      	b.n	8b2 <Heap_Size+0xb2>
     926:	9b02      	ldr	r3, [sp, #8]
     928:	b923      	cbnz	r3, 934 <Heap_Size+0x134>
     92a:	6820      	ldr	r0, [r4, #0]
     92c:	f890 309c 	ldrb.w	r3, [r0, #156]	; 0x9c
     930:	0799      	lsls	r1, r3, #30
     932:	d504      	bpl.n	93e <Heap_Size+0x13e>
     934:	f9b4 300a 	ldrsh.w	r3, [r4, #10]
     938:	2b00      	cmp	r3, #0
     93a:	dd32      	ble.n	9a2 <Heap_Size+0x1a2>
     93c:	6820      	ldr	r0, [r4, #0]
     93e:	7803      	ldrb	r3, [r0, #0]
     940:	a906      	add	r1, sp, #24
     942:	2b10      	cmp	r3, #16
     944:	d00f      	beq.n	966 <Heap_Size+0x166>
     946:	f004 fab1 	bl	4eac <netconn_recv>
     94a:	b980      	cbnz	r0, 96e <Heap_Size+0x16e>
     94c:	9d06      	ldr	r5, [sp, #24]
     94e:	6065      	str	r5, [r4, #4]
     950:	e761      	b.n	816 <Heap_Size+0x16>
     952:	a907      	add	r1, sp, #28
     954:	f10d 0216 	add.w	r2, sp, #22
     958:	2300      	movs	r3, #0
     95a:	f004 fa5b 	bl	4e14 <netconn_getaddr>
     95e:	aa07      	add	r2, sp, #28
     960:	f8bd 1016 	ldrh.w	r1, [sp, #22]
     964:	e7b0      	b.n	8c8 <Heap_Size+0xc8>
     966:	f004 fa97 	bl	4e98 <netconn_recv_tcp_pbuf>
     96a:	2800      	cmp	r0, #0
     96c:	d0ee      	beq.n	94c <Heap_Size+0x14c>
     96e:	464f      	mov	r7, r9
     970:	b9ef      	cbnz	r7, 9ae <Heap_Size+0x1ae>
     972:	b240      	sxtb	r0, r0
     974:	4243      	negs	r3, r0
     976:	2b0f      	cmp	r3, #15
     978:	bf96      	itet	ls
     97a:	4a13      	ldrls	r2, [pc, #76]	; (9c8 <Heap_Size+0x1c8>)
     97c:	2305      	movhi	r3, #5
     97e:	f852 3023 	ldrls.w	r3, [r2, r3, lsl #2]
     982:	300c      	adds	r0, #12
     984:	bf18      	it	ne
     986:	2001      	movne	r0, #1
     988:	4240      	negs	r0, r0
     98a:	6123      	str	r3, [r4, #16]
     98c:	e78b      	b.n	8a6 <Heap_Size+0xa6>
     98e:	2300      	movs	r3, #0
     990:	9806      	ldr	r0, [sp, #24]
     992:	6063      	str	r3, [r4, #4]
     994:	8123      	strh	r3, [r4, #8]
     996:	f000 fec1 	bl	171c <pbuf_free>
     99a:	2d00      	cmp	r5, #0
     99c:	f43f af36 	beq.w	80c <Heap_Size+0xc>
     9a0:	e771      	b.n	886 <Heap_Size+0x86>
     9a2:	464f      	mov	r7, r9
     9a4:	b13f      	cbz	r7, 9b6 <Heap_Size+0x1b6>
     9a6:	4a07      	ldr	r2, [pc, #28]	; (9c4 <Heap_Size+0x1c4>)
     9a8:	9903      	ldr	r1, [sp, #12]
     9aa:	5850      	ldr	r0, [r2, r1]
     9ac:	e770      	b.n	890 <Heap_Size+0x90>
     9ae:	4905      	ldr	r1, [pc, #20]	; (9c4 <Heap_Size+0x1c4>)
     9b0:	9b03      	ldr	r3, [sp, #12]
     9b2:	58c8      	ldr	r0, [r1, r3]
     9b4:	e76c      	b.n	890 <Heap_Size+0x90>
     9b6:	230b      	movs	r3, #11
     9b8:	6123      	str	r3, [r4, #16]
     9ba:	f04f 30ff 	mov.w	r0, #4294967295	; 0xffffffff
     9be:	e772      	b.n	8a6 <Heap_Size+0xa6>
     9c0:	2501      	movs	r5, #1
     9c2:	e753      	b.n	86c <Heap_Size+0x6c>
     9c4:	10000208 	.word	0x10000208
     9c8:	0000d970 	.word	0x0000d970

000009cc <lwip_recv>:
     9cc:	b510      	push	{r4, lr}
     9ce:	2400      	movs	r4, #0
     9d0:	b082      	sub	sp, #8
     9d2:	9400      	str	r4, [sp, #0]
     9d4:	9401      	str	r4, [sp, #4]
     9d6:	f7ff fefb 	bl	7d0 <lwip_recvfrom>
     9da:	b002      	add	sp, #8
     9dc:	bd10      	pop	{r4, pc}
     9de:	bf00      	nop

000009e0 <lwip_sendto>:
     9e0:	e92d 47f0 	stmdb	sp!, {r4, r5, r6, r7, r8, r9, r10, lr}
     9e4:	2803      	cmp	r0, #3
     9e6:	b086      	sub	sp, #24
     9e8:	468c      	mov	r12, r1
     9ea:	9c0e      	ldr	r4, [sp, #56]	; 0x38
     9ec:	9e0f      	ldr	r6, [sp, #60]	; 0x3c
     9ee:	d841      	bhi.n	a74 <lwip_sendto+0x94>
     9f0:	eb00 0540 	add.w	r5, r0, r0, lsl #1
     9f4:	f8df 80b4 	ldr.w	r8, [pc, #180]	; aac <lwip_sendto+0xcc>
     9f8:	ea4f 09c5 	mov.w	r9, r5, lsl #3
     9fc:	f858 7009 	ldr.w	r7, [r8, r9]
     a00:	eb08 0509 	add.w	r5, r8, r9
     a04:	2f00      	cmp	r7, #0
     a06:	d035      	beq.n	a74 <lwip_sendto+0x94>
     a08:	2d00      	cmp	r5, #0
     a0a:	d033      	beq.n	a74 <lwip_sendto+0x94>
     a0c:	783f      	ldrb	r7, [r7, #0]
     a0e:	2f10      	cmp	r7, #16
     a10:	d047      	beq.n	aa2 <lwip_sendto+0xc2>
     a12:	b297      	uxth	r7, r2
     a14:	2c00      	cmp	r4, #0
     a16:	d039      	beq.n	a8c <lwip_sendto+0xac>
     a18:	2e10      	cmp	r6, #16
     a1a:	d129      	bne.n	a70 <lwip_sendto+0x90>
     a1c:	7863      	ldrb	r3, [r4, #1]
     a1e:	2b02      	cmp	r3, #2
     a20:	d126      	bne.n	a70 <lwip_sendto+0x90>
     a22:	f014 0303 	ands.w	r3, r4, #3
     a26:	d123      	bne.n	a70 <lwip_sendto+0x90>
     a28:	9302      	str	r3, [sp, #8]
     a2a:	9301      	str	r3, [sp, #4]
     a2c:	f88d 3012 	strb.w	r3, [sp, #18]
     a30:	2c00      	cmp	r4, #0
     a32:	d031      	beq.n	a98 <lwip_sendto+0xb8>
     a34:	6863      	ldr	r3, [r4, #4]
     a36:	8862      	ldrh	r2, [r4, #2]
     a38:	9303      	str	r3, [sp, #12]
     a3a:	ba53      	rev16	r3, r2
     a3c:	f8ad 3010 	strh.w	r3, [sp, #16]
     a40:	4661      	mov	r1, r12
     a42:	a801      	add	r0, sp, #4
     a44:	463a      	mov	r2, r7
     a46:	f005 f843 	bl	5ad0 <netbuf_ref>
     a4a:	4604      	mov	r4, r0
     a4c:	b1b8      	cbz	r0, a7e <lwip_sendto+0x9e>
     a4e:	a801      	add	r0, sp, #4
     a50:	f005 f832 	bl	5ab8 <netbuf_free>
     a54:	b263      	sxtb	r3, r4
     a56:	425b      	negs	r3, r3
     a58:	2b0f      	cmp	r3, #15
     a5a:	bf96      	itet	ls
     a5c:	4a12      	ldrls	r2, [pc, #72]	; (aa8 <lwip_sendto+0xc8>)
     a5e:	2305      	movhi	r3, #5
     a60:	f852 3023 	ldrls.w	r3, [r2, r3, lsl #2]
     a64:	612b      	str	r3, [r5, #16]
     a66:	b92c      	cbnz	r4, a74 <lwip_sendto+0x94>
     a68:	4638      	mov	r0, r7
     a6a:	b006      	add	sp, #24
     a6c:	e8bd 87f0 	ldmia.w	sp!, {r4, r5, r6, r7, r8, r9, r10, pc}
     a70:	2305      	movs	r3, #5
     a72:	612b      	str	r3, [r5, #16]
     a74:	f04f 30ff 	mov.w	r0, #4294967295	; 0xffffffff
     a78:	b006      	add	sp, #24
     a7a:	e8bd 87f0 	ldmia.w	sp!, {r4, r5, r6, r7, r8, r9, r10, pc}
     a7e:	f858 0009 	ldr.w	r0, [r8, r9]
     a82:	a901      	add	r1, sp, #4
     a84:	f004 fa6c 	bl	4f60 <netconn_send>
     a88:	4604      	mov	r4, r0
     a8a:	e7e0      	b.n	a4e <lwip_sendto+0x6e>
     a8c:	2e00      	cmp	r6, #0
     a8e:	d1c3      	bne.n	a18 <lwip_sendto+0x38>
     a90:	9602      	str	r6, [sp, #8]
     a92:	9601      	str	r6, [sp, #4]
     a94:	f88d 6012 	strb.w	r6, [sp, #18]
     a98:	2300      	movs	r3, #0
     a9a:	9303      	str	r3, [sp, #12]
     a9c:	f8ad 3010 	strh.w	r3, [sp, #16]
     aa0:	e7ce      	b.n	a40 <lwip_sendto+0x60>
     aa2:	f000 f805 	bl	ab0 <lwip_send>
     aa6:	e7e7      	b.n	a78 <lwip_sendto+0x98>
     aa8:	0000d970 	.word	0x0000d970
     aac:	10000208 	.word	0x10000208

00000ab0 <lwip_send>:
     ab0:	e92d 41f0 	stmdb	sp!, {r4, r5, r6, r7, r8, lr}
     ab4:	2803      	cmp	r0, #3
     ab6:	b082      	sub	sp, #8
     ab8:	4688      	mov	r8, r1
     aba:	4617      	mov	r7, r2
     abc:	461e      	mov	r6, r3
     abe:	d837      	bhi.n	b30 <lwip_send+0x80>
     ac0:	f8df c08c 	ldr.w	r12, [pc, #140]	; b50 <lwip_send+0xa0>
     ac4:	eb00 0440 	add.w	r4, r0, r0, lsl #1
     ac8:	00e4      	lsls	r4, r4, #3
     aca:	f85c 5004 	ldr.w	r5, [r12, r4]
     ace:	4464      	add	r4, r12
     ad0:	b375      	cbz	r5, b30 <lwip_send+0x80>
     ad2:	b36c      	cbz	r4, b30 <lwip_send+0x80>
     ad4:	f895 c000 	ldrb.w	r12, [r5]
     ad8:	f1bc 0f10 	cmp.w	r12, #16
     adc:	d12d      	bne.n	b3a <lwip_send+0x8a>
     ade:	f013 0208 	ands.w	r2, r3, #8
     ae2:	d11f      	bne.n	b24 <lwip_send+0x74>
     ae4:	f895 309c 	ldrb.w	r3, [r5, #156]	; 0x9c
     ae8:	079b      	lsls	r3, r3, #30
     aea:	d41b      	bmi.n	b24 <lwip_send+0x74>
     aec:	f016 0f10 	tst.w	r6, #16
     af0:	bf0c      	ite	eq
     af2:	2301      	moveq	r3, #1
     af4:	2303      	movne	r3, #3
     af6:	2a00      	cmp	r2, #0
     af8:	bf0c      	ite	eq
     afa:	2200      	moveq	r2, #0
     afc:	2204      	movne	r2, #4
     afe:	4313      	orrs	r3, r2
     b00:	4628      	mov	r0, r5
     b02:	463a      	mov	r2, r7
     b04:	4641      	mov	r1, r8
     b06:	f004 fa49 	bl	4f9c <netconn_write>
     b0a:	4243      	negs	r3, r0
     b0c:	2b0f      	cmp	r3, #15
     b0e:	bf96      	itet	ls
     b10:	4a0e      	ldrls	r2, [pc, #56]	; (b4c <lwip_send+0x9c>)
     b12:	2305      	movhi	r3, #5
     b14:	f852 3023 	ldrls.w	r3, [r2, r3, lsl #2]
     b18:	6123      	str	r3, [r4, #16]
     b1a:	b948      	cbnz	r0, b30 <lwip_send+0x80>
     b1c:	4638      	mov	r0, r7
     b1e:	b002      	add	sp, #8
     b20:	e8bd 81f0 	ldmia.w	sp!, {r4, r5, r6, r7, r8, pc}
     b24:	f640 3368 	movw	r3, #2920	; 0xb68
     b28:	429f      	cmp	r7, r3
     b2a:	d9df      	bls.n	aec <lwip_send+0x3c>
     b2c:	235a      	movs	r3, #90	; 0x5a
     b2e:	6123      	str	r3, [r4, #16]
     b30:	f04f 30ff 	mov.w	r0, #4294967295	; 0xffffffff
     b34:	b002      	add	sp, #8
     b36:	e8bd 81f0 	ldmia.w	sp!, {r4, r5, r6, r7, r8, pc}
     b3a:	2400      	movs	r4, #0
     b3c:	9400      	str	r4, [sp, #0]
     b3e:	9401      	str	r4, [sp, #4]
     b40:	f7ff ff4e 	bl	9e0 <lwip_sendto>
     b44:	b002      	add	sp, #8
     b46:	e8bd 81f0 	ldmia.w	sp!, {r4, r5, r6, r7, r8, pc}
     b4a:	bf00      	nop
     b4c:	0000d970 	.word	0x0000d970
     b50:	10000208 	.word	0x10000208

00000b54 <lwip_socket>:
     b54:	2902      	cmp	r1, #2
     b56:	b538      	push	{r3, r4, r5, lr}
     b58:	d027      	beq.n	baa <lwip_socket+0x56>
     b5a:	2903      	cmp	r1, #3
     b5c:	d01c      	beq.n	b98 <lwip_socket+0x44>
     b5e:	2901      	cmp	r1, #1
     b60:	d002      	beq.n	b68 <lwip_socket+0x14>
     b62:	f04f 30ff 	mov.w	r0, #4294967295	; 0xffffffff
     b66:	bd38      	pop	{r3, r4, r5, pc}
     b68:	2010      	movs	r0, #16
     b6a:	2100      	movs	r1, #0
     b6c:	4a17      	ldr	r2, [pc, #92]	; (bcc <lwip_socket+0x78>)
     b6e:	f004 f919 	bl	4da4 <netconn_new_with_proto_and_callback>
     b72:	4604      	mov	r4, r0
     b74:	2800      	cmp	r0, #0
     b76:	d0f4      	beq.n	b62 <lwip_socket+0xe>
     b78:	f890 309c 	ldrb.w	r3, [r0, #156]	; 0x9c
     b7c:	f043 0308 	orr.w	r3, r3, #8
     b80:	f880 309c 	strb.w	r3, [r0, #156]	; 0x9c
     b84:	4620      	mov	r0, r4
     b86:	2100      	movs	r1, #0
     b88:	f7ff fc4c 	bl	424 <alloc_socket>
     b8c:	1c43      	adds	r3, r0, #1
     b8e:	4605      	mov	r5, r0
     b90:	d017      	beq.n	bc2 <lwip_socket+0x6e>
     b92:	f8c4 0094 	str.w	r0, [r4, #148]	; 0x94
     b96:	bd38      	pop	{r3, r4, r5, pc}
     b98:	b2d1      	uxtb	r1, r2
     b9a:	2040      	movs	r0, #64	; 0x40
     b9c:	4a0b      	ldr	r2, [pc, #44]	; (bcc <lwip_socket+0x78>)
     b9e:	f004 f901 	bl	4da4 <netconn_new_with_proto_and_callback>
     ba2:	4604      	mov	r4, r0
     ba4:	2c00      	cmp	r4, #0
     ba6:	d1ed      	bne.n	b84 <lwip_socket+0x30>
     ba8:	e7db      	b.n	b62 <lwip_socket+0xe>
     baa:	2a88      	cmp	r2, #136	; 0x88
     bac:	bf14      	ite	ne
     bae:	2020      	movne	r0, #32
     bb0:	2021      	moveq	r0, #33	; 0x21
     bb2:	2100      	movs	r1, #0
     bb4:	4a05      	ldr	r2, [pc, #20]	; (bcc <lwip_socket+0x78>)
     bb6:	f004 f8f5 	bl	4da4 <netconn_new_with_proto_and_callback>
     bba:	4604      	mov	r4, r0
     bbc:	2c00      	cmp	r4, #0
     bbe:	d1e1      	bne.n	b84 <lwip_socket+0x30>
     bc0:	e7cf      	b.n	b62 <lwip_socket+0xe>
     bc2:	4620      	mov	r0, r4
     bc4:	f004 f914 	bl	4df0 <netconn_delete>
     bc8:	4628      	mov	r0, r5
     bca:	bd38      	pop	{r3, r4, r5, pc}
     bcc:	000005dd 	.word	0x000005dd

00000bd0 <lwip_select>:
     bd0:	e92d 4ff0 	stmdb	sp!, {r4, r5, r6, r7, r8, r9, r10, r11, lr}
     bd4:	b095      	sub	sp, #84	; 0x54
     bd6:	ac07      	add	r4, sp, #28
     bd8:	9400      	str	r4, [sp, #0]
     bda:	ae08      	add	r6, sp, #32
     bdc:	ac09      	add	r4, sp, #36	; 0x24
     bde:	9601      	str	r6, [sp, #4]
     be0:	9402      	str	r4, [sp, #8]
     be2:	4680      	mov	r8, r0
     be4:	460c      	mov	r4, r1
     be6:	4615      	mov	r5, r2
     be8:	4699      	mov	r9, r3
     bea:	9e1e      	ldr	r6, [sp, #120]	; 0x78
     bec:	f7ff fc58 	bl	4a0 <lwip_selscan>
     bf0:	4682      	mov	r10, r0
     bf2:	2800      	cmp	r0, #0
     bf4:	f040 80d0 	bne.w	d98 <Stack_Size+0x198>
     bf8:	b12e      	cbz	r6, c06 <Stack_Size+0x6>
     bfa:	6833      	ldr	r3, [r6, #0]
     bfc:	b91b      	cbnz	r3, c06 <Stack_Size+0x6>
     bfe:	6873      	ldr	r3, [r6, #4]
     c00:	2b00      	cmp	r3, #0
     c02:	f000 80c9 	beq.w	d98 <Stack_Size+0x198>
     c06:	2300      	movs	r3, #0
     c08:	aa0a      	add	r2, sp, #40	; 0x28
     c0a:	4619      	mov	r1, r3
     c0c:	a810      	add	r0, sp, #64	; 0x40
     c0e:	940c      	str	r4, [sp, #48]	; 0x30
     c10:	950d      	str	r5, [sp, #52]	; 0x34
     c12:	f8cd 9038 	str.w	r9, [sp, #56]	; 0x38
     c16:	930a      	str	r3, [sp, #40]	; 0x28
     c18:	930b      	str	r3, [sp, #44]	; 0x2c
     c1a:	930f      	str	r3, [sp, #60]	; 0x3c
     c1c:	9204      	str	r2, [sp, #16]
     c1e:	f003 ff3b 	bl	4a98 <sys_sem_new>
     c22:	2800      	cmp	r0, #0
     c24:	f040 80f8 	bne.w	e18 <Stack_Size+0x218>
     c28:	f003 ffcc 	bl	4bc4 <sys_arch_protect>
     c2c:	4983      	ldr	r1, [pc, #524]	; (e3c <Stack_Size+0x23c>)
     c2e:	680b      	ldr	r3, [r1, #0]
     c30:	930a      	str	r3, [sp, #40]	; 0x28
     c32:	b10b      	cbz	r3, c38 <Stack_Size+0x38>
     c34:	aa0a      	add	r2, sp, #40	; 0x28
     c36:	605a      	str	r2, [r3, #4]
     c38:	4981      	ldr	r1, [pc, #516]	; (e40 <Stack_Size+0x240>)
     c3a:	aa0a      	add	r2, sp, #40	; 0x28
     c3c:	680b      	ldr	r3, [r1, #0]
     c3e:	497f      	ldr	r1, [pc, #508]	; (e3c <Stack_Size+0x23c>)
     c40:	3301      	adds	r3, #1
     c42:	600a      	str	r2, [r1, #0]
     c44:	4a7e      	ldr	r2, [pc, #504]	; (e40 <Stack_Size+0x240>)
     c46:	6013      	str	r3, [r2, #0]
     c48:	f003 ffce 	bl	4be8 <sys_arch_unprotect>
     c4c:	f1b8 0f00 	cmp.w	r8, #0
     c50:	dd23      	ble.n	c9a <Stack_Size+0x9a>
     c52:	f8df b1f4 	ldr.w	r11, [pc, #500]	; e48 <Stack_Size+0x248>
     c56:	f04f 0a00 	mov.w	r10, #0
     c5a:	2c00      	cmp	r4, #0
     c5c:	f000 80af 	beq.w	dbe <Stack_Size+0x1be>
     c60:	ea4f 03ea 	mov.w	r3, r10, asr #3
     c64:	5ce2      	ldrb	r2, [r4, r3]
     c66:	f00a 0307 	and.w	r3, r10, #7
     c6a:	fa42 f303 	asr.w	r3, r2, r3
     c6e:	07db      	lsls	r3, r3, #31
     c70:	f140 80a5 	bpl.w	dbe <Stack_Size+0x1be>
     c74:	f1ba 0f03 	cmp.w	r10, #3
     c78:	bf88      	it	hi
     c7a:	2700      	movhi	r7, #0
     c7c:	f240 80d7 	bls.w	e2e <Stack_Size+0x22e>
     c80:	f003 ffa0 	bl	4bc4 <sys_arch_protect>
     c84:	697b      	ldr	r3, [r7, #20]
     c86:	3301      	adds	r3, #1
     c88:	617b      	str	r3, [r7, #20]
     c8a:	f003 ffad 	bl	4be8 <sys_arch_unprotect>
     c8e:	f10a 0a01 	add.w	r10, r10, #1
     c92:	45c2      	cmp	r10, r8
     c94:	f10b 0b18 	add.w	r11, r11, #24
     c98:	d1df      	bne.n	c5a <Stack_Size+0x5a>
     c9a:	ab07      	add	r3, sp, #28
     c9c:	a908      	add	r1, sp, #32
     c9e:	aa09      	add	r2, sp, #36	; 0x24
     ca0:	9300      	str	r3, [sp, #0]
     ca2:	9101      	str	r1, [sp, #4]
     ca4:	9202      	str	r2, [sp, #8]
     ca6:	4640      	mov	r0, r8
     ca8:	4621      	mov	r1, r4
     caa:	462a      	mov	r2, r5
     cac:	464b      	mov	r3, r9
     cae:	f7ff fbf7 	bl	4a0 <lwip_selscan>
     cb2:	4682      	mov	r10, r0
     cb4:	b9c0      	cbnz	r0, ce8 <Stack_Size+0xe8>
     cb6:	2e00      	cmp	r6, #0
     cb8:	f000 80b1 	beq.w	e1e <Stack_Size+0x21e>
     cbc:	6873      	ldr	r3, [r6, #4]
     cbe:	4961      	ldr	r1, [pc, #388]	; (e44 <Stack_Size+0x244>)
     cc0:	f503 73fa 	add.w	r3, r3, #500	; 0x1f4
     cc4:	fb81 2103 	smull	r2, r1, r1, r3
     cc8:	6832      	ldr	r2, [r6, #0]
     cca:	17db      	asrs	r3, r3, #31
     ccc:	ebc3 13a1 	rsb	r3, r3, r1, asr #6
     cd0:	f44f 717a 	mov.w	r1, #1000	; 0x3e8
     cd4:	fb01 3102 	mla	r1, r1, r2, r3
     cd8:	2900      	cmp	r1, #0
     cda:	bf08      	it	eq
     cdc:	2101      	moveq	r1, #1
     cde:	a810      	add	r0, sp, #64	; 0x40
     ce0:	f003 fef6 	bl	4ad0 <sys_arch_sem_wait>
     ce4:	9005      	str	r0, [sp, #20]
     ce6:	e001      	b.n	cec <Stack_Size+0xec>
     ce8:	2300      	movs	r3, #0
     cea:	9305      	str	r3, [sp, #20]
     cec:	f1b8 0f00 	cmp.w	r8, #0
     cf0:	dd29      	ble.n	d46 <Stack_Size+0x146>
     cf2:	4e55      	ldr	r6, [pc, #340]	; (e48 <Stack_Size+0x248>)
     cf4:	f04f 0b00 	mov.w	r11, #0
     cf8:	b144      	cbz	r4, d0c <Stack_Size+0x10c>
     cfa:	ea4f 03eb 	mov.w	r3, r11, asr #3
     cfe:	5ce2      	ldrb	r2, [r4, r3]
     d00:	f00b 0307 	and.w	r3, r11, #7
     d04:	fa42 f303 	asr.w	r3, r2, r3
     d08:	07d9      	lsls	r1, r3, #31
     d0a:	d40a      	bmi.n	d22 <Stack_Size+0x122>
     d0c:	2d00      	cmp	r5, #0
     d0e:	d071      	beq.n	df4 <Stack_Size+0x1f4>
     d10:	ea4f 03eb 	mov.w	r3, r11, asr #3
     d14:	5cea      	ldrb	r2, [r5, r3]
     d16:	f00b 0307 	and.w	r3, r11, #7
     d1a:	fa42 f303 	asr.w	r3, r2, r3
     d1e:	07da      	lsls	r2, r3, #31
     d20:	d568      	bpl.n	df4 <Stack_Size+0x1f4>
     d22:	f1bb 0f03 	cmp.w	r11, #3
     d26:	bf88      	it	hi
     d28:	2700      	movhi	r7, #0
     d2a:	d97a      	bls.n	e22 <Stack_Size+0x222>
     d2c:	f003 ff4a 	bl	4bc4 <sys_arch_protect>
     d30:	697b      	ldr	r3, [r7, #20]
     d32:	3b01      	subs	r3, #1
     d34:	617b      	str	r3, [r7, #20]
     d36:	f003 ff57 	bl	4be8 <sys_arch_unprotect>
     d3a:	f10b 0b01 	add.w	r11, r11, #1
     d3e:	45c3      	cmp	r11, r8
     d40:	f106 0618 	add.w	r6, r6, #24
     d44:	d1d8      	bne.n	cf8 <Stack_Size+0xf8>
     d46:	f003 ff3d 	bl	4bc4 <sys_arch_protect>
     d4a:	9b0a      	ldr	r3, [sp, #40]	; 0x28
     d4c:	b10b      	cbz	r3, d52 <Stack_Size+0x152>
     d4e:	9a0b      	ldr	r2, [sp, #44]	; 0x2c
     d50:	605a      	str	r2, [r3, #4]
     d52:	4e3a      	ldr	r6, [pc, #232]	; (e3c <Stack_Size+0x23c>)
     d54:	6832      	ldr	r2, [r6, #0]
     d56:	4631      	mov	r1, r6
     d58:	9e04      	ldr	r6, [sp, #16]
     d5a:	42b2      	cmp	r2, r6
     d5c:	bf0c      	ite	eq
     d5e:	600b      	streq	r3, [r1, #0]
     d60:	9a0b      	ldrne	r2, [sp, #44]	; 0x2c
     d62:	4937      	ldr	r1, [pc, #220]	; (e40 <Stack_Size+0x240>)
     d64:	bf18      	it	ne
     d66:	6013      	strne	r3, [r2, #0]
     d68:	680b      	ldr	r3, [r1, #0]
     d6a:	3301      	adds	r3, #1
     d6c:	600b      	str	r3, [r1, #0]
     d6e:	f003 ff3b 	bl	4be8 <sys_arch_unprotect>
     d72:	a810      	add	r0, sp, #64	; 0x40
     d74:	f003 fed4 	bl	4b20 <sys_sem_free>
     d78:	9a05      	ldr	r2, [sp, #20]
     d7a:	3201      	adds	r2, #1
     d7c:	d00c      	beq.n	d98 <Stack_Size+0x198>
     d7e:	ab07      	add	r3, sp, #28
     d80:	a909      	add	r1, sp, #36	; 0x24
     d82:	ae08      	add	r6, sp, #32
     d84:	9300      	str	r3, [sp, #0]
     d86:	9102      	str	r1, [sp, #8]
     d88:	9601      	str	r6, [sp, #4]
     d8a:	4640      	mov	r0, r8
     d8c:	4621      	mov	r1, r4
     d8e:	462a      	mov	r2, r5
     d90:	464b      	mov	r3, r9
     d92:	f7ff fb85 	bl	4a0 <lwip_selscan>
     d96:	4682      	mov	r10, r0
     d98:	b114      	cbz	r4, da0 <Stack_Size+0x1a0>
     d9a:	f89d 301c 	ldrb.w	r3, [sp, #28]
     d9e:	7023      	strb	r3, [r4, #0]
     da0:	b115      	cbz	r5, da8 <Stack_Size+0x1a8>
     da2:	f89d 3020 	ldrb.w	r3, [sp, #32]
     da6:	702b      	strb	r3, [r5, #0]
     da8:	f1b9 0f00 	cmp.w	r9, #0
     dac:	d030      	beq.n	e10 <Stack_Size+0x210>
     dae:	f89d 3024 	ldrb.w	r3, [sp, #36]	; 0x24
     db2:	4650      	mov	r0, r10
     db4:	f889 3000 	strb.w	r3, [r9]
     db8:	b015      	add	sp, #84	; 0x54
     dba:	e8bd 8ff0 	ldmia.w	sp!, {r4, r5, r6, r7, r8, r9, r10, r11, pc}
     dbe:	b14d      	cbz	r5, dd4 <Stack_Size+0x1d4>
     dc0:	ea4f 03ea 	mov.w	r3, r10, asr #3
     dc4:	5cea      	ldrb	r2, [r5, r3]
     dc6:	f00a 0307 	and.w	r3, r10, #7
     dca:	fa42 f303 	asr.w	r3, r2, r3
     dce:	07df      	lsls	r7, r3, #31
     dd0:	f53f af50 	bmi.w	c74 <Stack_Size+0x74>
     dd4:	f1b9 0f00 	cmp.w	r9, #0
     dd8:	f43f af59 	beq.w	c8e <Stack_Size+0x8e>
     ddc:	ea4f 03ea 	mov.w	r3, r10, asr #3
     de0:	f819 2003 	ldrb.w	r2, [r9, r3]
     de4:	f00a 0307 	and.w	r3, r10, #7
     de8:	fa42 f303 	asr.w	r3, r2, r3
     dec:	07d8      	lsls	r0, r3, #31
     dee:	f57f af4e 	bpl.w	c8e <Stack_Size+0x8e>
     df2:	e73f      	b.n	c74 <Stack_Size+0x74>
     df4:	f1b9 0f00 	cmp.w	r9, #0
     df8:	d09f      	beq.n	d3a <Stack_Size+0x13a>
     dfa:	ea4f 03eb 	mov.w	r3, r11, asr #3
     dfe:	f819 2003 	ldrb.w	r2, [r9, r3]
     e02:	f00b 0307 	and.w	r3, r11, #7
     e06:	fa42 f303 	asr.w	r3, r2, r3
     e0a:	07db      	lsls	r3, r3, #31
     e0c:	d595      	bpl.n	d3a <Stack_Size+0x13a>
     e0e:	e788      	b.n	d22 <Stack_Size+0x122>
     e10:	4650      	mov	r0, r10
     e12:	b015      	add	sp, #84	; 0x54
     e14:	e8bd 8ff0 	ldmia.w	sp!, {r4, r5, r6, r7, r8, r9, r10, r11, pc}
     e18:	f04f 30ff 	mov.w	r0, #4294967295	; 0xffffffff
     e1c:	e7cc      	b.n	db8 <Stack_Size+0x1b8>
     e1e:	4601      	mov	r1, r0
     e20:	e75d      	b.n	cde <Stack_Size+0xde>
     e22:	6833      	ldr	r3, [r6, #0]
     e24:	2b00      	cmp	r3, #0
     e26:	bf14      	ite	ne
     e28:	4637      	movne	r7, r6
     e2a:	2700      	moveq	r7, #0
     e2c:	e77e      	b.n	d2c <Stack_Size+0x12c>
     e2e:	f8db 3000 	ldr.w	r3, [r11]
     e32:	2b00      	cmp	r3, #0
     e34:	bf14      	ite	ne
     e36:	465f      	movne	r7, r11
     e38:	2700      	moveq	r7, #0
     e3a:	e721      	b.n	c80 <Stack_Size+0x80>
     e3c:	10000204 	.word	0x10000204
     e40:	10000268 	.word	0x10000268
     e44:	10624dd3 	.word	0x10624dd3
     e48:	10000208 	.word	0x10000208

00000e4c <lwip_shutdown>:
     e4c:	2803      	cmp	r0, #3
     e4e:	b510      	push	{r4, lr}
     e50:	d80d      	bhi.n	e6e <lwip_shutdown+0x22>
     e52:	eb00 0040 	add.w	r0, r0, r0, lsl #1
     e56:	4b17      	ldr	r3, [pc, #92]	; (eb4 <lwip_shutdown+0x68>)
     e58:	00c4      	lsls	r4, r0, #3
     e5a:	5918      	ldr	r0, [r3, r4]
     e5c:	441c      	add	r4, r3
     e5e:	b130      	cbz	r0, e6e <lwip_shutdown+0x22>
     e60:	b12c      	cbz	r4, e6e <lwip_shutdown+0x22>
     e62:	7803      	ldrb	r3, [r0, #0]
     e64:	2b10      	cmp	r3, #16
     e66:	d005      	beq.n	e74 <lwip_shutdown+0x28>
     e68:	205f      	movs	r0, #95	; 0x5f
     e6a:	6120      	str	r0, [r4, #16]
     e6c:	bd10      	pop	{r4, pc}
     e6e:	f04f 30ff 	mov.w	r0, #4294967295	; 0xffffffff
     e72:	bd10      	pop	{r4, pc}
     e74:	b131      	cbz	r1, e84 <lwip_shutdown+0x38>
     e76:	2901      	cmp	r1, #1
     e78:	d015      	beq.n	ea6 <lwip_shutdown+0x5a>
     e7a:	2902      	cmp	r1, #2
     e7c:	d016      	beq.n	eac <lwip_shutdown+0x60>
     e7e:	2016      	movs	r0, #22
     e80:	6120      	str	r0, [r4, #16]
     e82:	bd10      	pop	{r4, pc}
     e84:	460a      	mov	r2, r1
     e86:	2101      	movs	r1, #1
     e88:	f004 f8b2 	bl	4ff0 <netconn_shutdown>
     e8c:	4243      	negs	r3, r0
     e8e:	2b0f      	cmp	r3, #15
     e90:	bf96      	itet	ls
     e92:	4a09      	ldrls	r2, [pc, #36]	; (eb8 <lwip_shutdown+0x6c>)
     e94:	2305      	movhi	r3, #5
     e96:	f852 3023 	ldrls.w	r3, [r2, r3, lsl #2]
     e9a:	3000      	adds	r0, #0
     e9c:	bf18      	it	ne
     e9e:	2001      	movne	r0, #1
     ea0:	4240      	negs	r0, r0
     ea2:	6123      	str	r3, [r4, #16]
     ea4:	bd10      	pop	{r4, pc}
     ea6:	460a      	mov	r2, r1
     ea8:	2100      	movs	r1, #0
     eaa:	e7ed      	b.n	e88 <lwip_shutdown+0x3c>
     eac:	2201      	movs	r2, #1
     eae:	4611      	mov	r1, r2
     eb0:	e7ea      	b.n	e88 <lwip_shutdown+0x3c>
     eb2:	bf00      	nop
     eb4:	10000208 	.word	0x10000208
     eb8:	0000d970 	.word	0x0000d970

00000ebc <tcpip_thread>:
     ebc:	b500      	push	{lr}
     ebe:	4b23      	ldr	r3, [pc, #140]	; (f4c <tcpip_thread+0x90>)
     ec0:	b083      	sub	sp, #12
     ec2:	681b      	ldr	r3, [r3, #0]
     ec4:	b113      	cbz	r3, ecc <tcpip_thread+0x10>
     ec6:	4a22      	ldr	r2, [pc, #136]	; (f50 <tcpip_thread+0x94>)
     ec8:	6810      	ldr	r0, [r2, #0]
     eca:	4798      	blx	r3
     ecc:	4821      	ldr	r0, [pc, #132]	; (f54 <tcpip_thread+0x98>)
     ece:	a901      	add	r1, sp, #4
     ed0:	f002 f948 	bl	3164 <sys_timeouts_mbox_fetch>
     ed4:	9b01      	ldr	r3, [sp, #4]
     ed6:	781a      	ldrb	r2, [r3, #0]
     ed8:	2a04      	cmp	r2, #4
     eda:	d8f7      	bhi.n	ecc <tcpip_thread+0x10>
     edc:	e8df f002 	tbb	[pc, r2]
     ee0:	0b141e2d 	.word	0x0b141e2d
     ee4:	03          	.byte	0x03
     ee5:	00          	.byte	0x00
     ee6:	68d8      	ldr	r0, [r3, #12]
     ee8:	689a      	ldr	r2, [r3, #8]
     eea:	4790      	blx	r2
     eec:	2008      	movs	r0, #8
     eee:	9901      	ldr	r1, [sp, #4]
     ef0:	f000 faaa 	bl	1448 <memp_free>
     ef4:	e7ea      	b.n	ecc <tcpip_thread+0x10>
     ef6:	68d8      	ldr	r0, [r3, #12]
     ef8:	6919      	ldr	r1, [r3, #16]
     efa:	f002 f90f 	bl	311c <sys_untimeout>
     efe:	2008      	movs	r0, #8
     f00:	9901      	ldr	r1, [sp, #4]
     f02:	f000 faa1 	bl	1448 <memp_free>
     f06:	e7e1      	b.n	ecc <tcpip_thread+0x10>
     f08:	f103 0008 	add.w	r0, r3, #8
     f0c:	c807      	ldmia	r0, {r0, r1, r2}
     f0e:	f002 f80d 	bl	2f2c <sys_timeout>
     f12:	2008      	movs	r0, #8
     f14:	9901      	ldr	r1, [sp, #4]
     f16:	f000 fa97 	bl	1448 <memp_free>
     f1a:	e7d7      	b.n	ecc <tcpip_thread+0x10>
     f1c:	68da      	ldr	r2, [r3, #12]
     f1e:	f892 0039 	ldrb.w	r0, [r2, #57]	; 0x39
     f22:	4611      	mov	r1, r2
     f24:	f010 0f60 	tst.w	r0, #96	; 0x60
     f28:	6898      	ldr	r0, [r3, #8]
     f2a:	d00b      	beq.n	f44 <tcpip_thread+0x88>
     f2c:	f003 fbd0 	bl	46d0 <ethernet_input>
     f30:	2009      	movs	r0, #9
     f32:	9901      	ldr	r1, [sp, #4]
     f34:	f000 fa88 	bl	1448 <memp_free>
     f38:	e7c8      	b.n	ecc <tcpip_thread+0x10>
     f3a:	6898      	ldr	r0, [r3, #8]
     f3c:	6803      	ldr	r3, [r0, #0]
     f3e:	3004      	adds	r0, #4
     f40:	4798      	blx	r3
     f42:	e7c3      	b.n	ecc <tcpip_thread+0x10>
     f44:	f002 fbae 	bl	36a4 <ip_input>
     f48:	e7f2      	b.n	f30 <tcpip_thread+0x74>
     f4a:	bf00      	nop
     f4c:	100002ac 	.word	0x100002ac
     f50:	100002a8 	.word	0x100002a8
     f54:	1000026c 	.word	0x1000026c

00000f58 <tcpip_input>:
     f58:	b5f8      	push	{r3, r4, r5, r6, r7, lr}
     f5a:	4d0f      	ldr	r5, [pc, #60]	; (f98 <tcpip_input+0x40>)
     f5c:	4606      	mov	r6, r0
     f5e:	682b      	ldr	r3, [r5, #0]
     f60:	460f      	mov	r7, r1
     f62:	b17b      	cbz	r3, f84 <tcpip_input+0x2c>
     f64:	2009      	movs	r0, #9
     f66:	f000 fa59 	bl	141c <memp_malloc>
     f6a:	4604      	mov	r4, r0
     f6c:	b160      	cbz	r0, f88 <tcpip_input+0x30>
     f6e:	2301      	movs	r3, #1
     f70:	6086      	str	r6, [r0, #8]
     f72:	60c7      	str	r7, [r0, #12]
     f74:	4621      	mov	r1, r4
     f76:	4628      	mov	r0, r5
     f78:	7023      	strb	r3, [r4, #0]
     f7a:	f003 fd49 	bl	4a10 <sys_mbox_trypost>
     f7e:	b928      	cbnz	r0, f8c <tcpip_input+0x34>
     f80:	b240      	sxtb	r0, r0
     f82:	bdf8      	pop	{r3, r4, r5, r6, r7, pc}
     f84:	20fa      	movs	r0, #250	; 0xfa
     f86:	e7fb      	b.n	f80 <tcpip_input+0x28>
     f88:	20ff      	movs	r0, #255	; 0xff
     f8a:	e7f9      	b.n	f80 <tcpip_input+0x28>
     f8c:	2009      	movs	r0, #9
     f8e:	4621      	mov	r1, r4
     f90:	f000 fa5a 	bl	1448 <memp_free>
     f94:	20ff      	movs	r0, #255	; 0xff
     f96:	e7f3      	b.n	f80 <tcpip_input+0x28>
     f98:	1000026c 	.word	0x1000026c

00000f9c <tcpip_callback_with_block>:
     f9c:	e92d 41f0 	stmdb	sp!, {r4, r5, r6, r7, r8, lr}
     fa0:	4d14      	ldr	r5, [pc, #80]	; (ff4 <tcpip_callback_with_block+0x58>)
     fa2:	4606      	mov	r6, r0
     fa4:	682b      	ldr	r3, [r5, #0]
     fa6:	460f      	mov	r7, r1
     fa8:	4690      	mov	r8, r2
     faa:	b1cb      	cbz	r3, fe0 <tcpip_callback_with_block+0x44>
     fac:	2008      	movs	r0, #8
     fae:	f000 fa35 	bl	141c <memp_malloc>
     fb2:	4604      	mov	r4, r0
     fb4:	b1e0      	cbz	r0, ff0 <tcpip_callback_with_block+0x54>
     fb6:	2304      	movs	r3, #4
     fb8:	6086      	str	r6, [r0, #8]
     fba:	60c7      	str	r7, [r0, #12]
     fbc:	7003      	strb	r3, [r0, #0]
     fbe:	4621      	mov	r1, r4
     fc0:	4628      	mov	r0, r5
     fc2:	f1b8 0f00 	cmp.w	r8, #0
     fc6:	d105      	bne.n	fd4 <tcpip_callback_with_block+0x38>
     fc8:	f003 fd22 	bl	4a10 <sys_mbox_trypost>
     fcc:	b950      	cbnz	r0, fe4 <tcpip_callback_with_block+0x48>
     fce:	b240      	sxtb	r0, r0
     fd0:	e8bd 81f0 	ldmia.w	sp!, {r4, r5, r6, r7, r8, pc}
     fd4:	f003 fd0c 	bl	49f0 <sys_mbox_post>
     fd8:	2000      	movs	r0, #0
     fda:	b240      	sxtb	r0, r0
     fdc:	e8bd 81f0 	ldmia.w	sp!, {r4, r5, r6, r7, r8, pc}
     fe0:	20fa      	movs	r0, #250	; 0xfa
     fe2:	e7f4      	b.n	fce <tcpip_callback_with_block+0x32>
     fe4:	2008      	movs	r0, #8
     fe6:	4621      	mov	r1, r4
     fe8:	f000 fa2e 	bl	1448 <memp_free>
     fec:	20ff      	movs	r0, #255	; 0xff
     fee:	e7ee      	b.n	fce <tcpip_callback_with_block+0x32>
     ff0:	20ff      	movs	r0, #255	; 0xff
     ff2:	e7ec      	b.n	fce <tcpip_callback_with_block+0x32>
     ff4:	1000026c 	.word	0x1000026c

00000ff8 <tcpip_apimsg>:
     ff8:	b530      	push	{r4, r5, lr}
     ffa:	4b0c      	ldr	r3, [pc, #48]	; (102c <tcpip_apimsg+0x34>)
     ffc:	b087      	sub	sp, #28
     ffe:	681a      	ldr	r2, [r3, #0]
    1000:	4604      	mov	r4, r0
    1002:	b182      	cbz	r2, 1026 <tcpip_apimsg+0x2e>
    1004:	4618      	mov	r0, r3
    1006:	2500      	movs	r5, #0
    1008:	a901      	add	r1, sp, #4
    100a:	9403      	str	r4, [sp, #12]
    100c:	f88d 5004 	strb.w	r5, [sp, #4]
    1010:	f003 fcee 	bl	49f0 <sys_mbox_post>
    1014:	6860      	ldr	r0, [r4, #4]
    1016:	4629      	mov	r1, r5
    1018:	300c      	adds	r0, #12
    101a:	f003 fd59 	bl	4ad0 <sys_arch_sem_wait>
    101e:	7a20      	ldrb	r0, [r4, #8]
    1020:	b240      	sxtb	r0, r0
    1022:	b007      	add	sp, #28
    1024:	bd30      	pop	{r4, r5, pc}
    1026:	20fa      	movs	r0, #250	; 0xfa
    1028:	e7fa      	b.n	1020 <tcpip_apimsg+0x28>
    102a:	bf00      	nop
    102c:	1000026c 	.word	0x1000026c

00001030 <tcpip_init>:
    1030:	b530      	push	{r4, r5, lr}
    1032:	b083      	sub	sp, #12
    1034:	4605      	mov	r5, r0
    1036:	460c      	mov	r4, r1
    1038:	f000 f81c 	bl	1074 <lwip_init>
    103c:	4a08      	ldr	r2, [pc, #32]	; (1060 <tcpip_init+0x30>)
    103e:	4b09      	ldr	r3, [pc, #36]	; (1064 <tcpip_init+0x34>)
    1040:	2108      	movs	r1, #8
    1042:	4809      	ldr	r0, [pc, #36]	; (1068 <tcpip_init+0x38>)
    1044:	6015      	str	r5, [r2, #0]
    1046:	601c      	str	r4, [r3, #0]
    1048:	f003 fc9c 	bl	4984 <sys_mbox_new>
    104c:	2200      	movs	r2, #0
    104e:	9200      	str	r2, [sp, #0]
    1050:	4906      	ldr	r1, [pc, #24]	; (106c <tcpip_init+0x3c>)
    1052:	f44f 6380 	mov.w	r3, #1024	; 0x400
    1056:	4806      	ldr	r0, [pc, #24]	; (1070 <tcpip_init+0x40>)
    1058:	f003 fdd6 	bl	4c08 <sys_thread_new>
    105c:	b003      	add	sp, #12
    105e:	bd30      	pop	{r4, r5, pc}
    1060:	100002ac 	.word	0x100002ac
    1064:	100002a8 	.word	0x100002a8
    1068:	1000026c 	.word	0x1000026c
    106c:	00000ebd 	.word	0x00000ebd
    1070:	0000d9b0 	.word	0x0000d9b0

00001074 <lwip_init>:
    1074:	b508      	push	{r3, lr}
    1076:	f003 fd8f 	bl	4b98 <sys_init>
    107a:	f000 f80f 	bl	109c <mem_init>
    107e:	f000 f991 	bl	13a4 <memp_init>
    1082:	f000 f9f5 	bl	1470 <netif_init>
    1086:	f7ff fb35 	bl	6f4 <lwip_socket_init>
    108a:	f002 f937 	bl	32fc <igmp_init>
    108e:	f005 ff79 	bl	6f84 <dns_init>
    1092:	e8bd 4008 	ldmia.w	sp!, {r3, lr}
    1096:	f001 bfbd 	b.w	3014 <sys_timeouts_init>
    109a:	bf00      	nop

0000109c <mem_init>:
    109c:	b4f0      	push	{r4, r5, r6, r7}
    109e:	4b0d      	ldr	r3, [pc, #52]	; (10d4 <mem_init+0x38>)
    10a0:	f643 72ec 	movw	r2, #16364	; 0x3fec
    10a4:	f023 0303 	bic.w	r3, r3, #3
    10a8:	1899      	adds	r1, r3, r2
    10aa:	2400      	movs	r4, #0
    10ac:	4f0a      	ldr	r7, [pc, #40]	; (10d8 <mem_init+0x3c>)
    10ae:	4e0b      	ldr	r6, [pc, #44]	; (10dc <mem_init+0x40>)
    10b0:	2501      	movs	r5, #1
    10b2:	805c      	strh	r4, [r3, #2]
    10b4:	711c      	strb	r4, [r3, #4]
    10b6:	801a      	strh	r2, [r3, #0]
    10b8:	f8df c028 	ldr.w	r12, [pc, #40]	; 10e4 <mem_init+0x48>
    10bc:	710d      	strb	r5, [r1, #4]
    10be:	603b      	str	r3, [r7, #0]
    10c0:	6031      	str	r1, [r6, #0]
    10c2:	529a      	strh	r2, [r3, r2]
    10c4:	4806      	ldr	r0, [pc, #24]	; (10e0 <mem_init+0x44>)
    10c6:	804a      	strh	r2, [r1, #2]
    10c8:	bcf0      	pop	{r4, r5, r6, r7}
    10ca:	f8cc 3000 	str.w	r3, [r12]
    10ce:	f003 bd29 	b.w	4b24 <sys_mutex_new>
    10d2:	bf00      	nop
    10d4:	2007c003 	.word	0x2007c003
    10d8:	100002b0 	.word	0x100002b0
    10dc:	100002b4 	.word	0x100002b4
    10e0:	100002b8 	.word	0x100002b8
    10e4:	100002cc 	.word	0x100002cc

000010e8 <mem_free>:
    10e8:	b5f8      	push	{r3, r4, r5, r6, r7, lr}
    10ea:	4604      	mov	r4, r0
    10ec:	2800      	cmp	r0, #0
    10ee:	d04c      	beq.n	118a <mem_free+0xa2>
    10f0:	4d26      	ldr	r5, [pc, #152]	; (118c <mem_free+0xa4>)
    10f2:	682b      	ldr	r3, [r5, #0]
    10f4:	4298      	cmp	r0, r3
    10f6:	d303      	bcc.n	1100 <mem_free+0x18>
    10f8:	4e25      	ldr	r6, [pc, #148]	; (1190 <mem_free+0xa8>)
    10fa:	6833      	ldr	r3, [r6, #0]
    10fc:	4298      	cmp	r0, r3
    10fe:	d305      	bcc.n	110c <mem_free+0x24>
    1100:	f003 fd60 	bl	4bc4 <sys_arch_protect>
    1104:	e8bd 40f8 	ldmia.w	sp!, {r3, r4, r5, r6, r7, lr}
    1108:	f003 bd6e 	b.w	4be8 <sys_arch_unprotect>
    110c:	4821      	ldr	r0, [pc, #132]	; (1194 <mem_free+0xac>)
    110e:	f003 fd25 	bl	4b5c <sys_mutex_lock>
    1112:	4821      	ldr	r0, [pc, #132]	; (1198 <mem_free+0xb0>)
    1114:	f1a4 0208 	sub.w	r2, r4, #8
    1118:	6803      	ldr	r3, [r0, #0]
    111a:	2100      	movs	r1, #0
    111c:	429a      	cmp	r2, r3
    111e:	682b      	ldr	r3, [r5, #0]
    1120:	f834 5c08 	ldrh.w	r5, [r4, #-8]
    1124:	f804 1c04 	strb.w	r1, [r4, #-4]
    1128:	eb03 0105 	add.w	r1, r3, r5
    112c:	bf38      	it	cc
    112e:	6002      	strcc	r2, [r0, #0]
    1130:	428a      	cmp	r2, r1
    1132:	d011      	beq.n	1158 <mem_free+0x70>
    1134:	790f      	ldrb	r7, [r1, #4]
    1136:	b97f      	cbnz	r7, 1158 <mem_free+0x70>
    1138:	6836      	ldr	r6, [r6, #0]
    113a:	42b1      	cmp	r1, r6
    113c:	d00c      	beq.n	1158 <mem_free+0x70>
    113e:	6806      	ldr	r6, [r0, #0]
    1140:	4f15      	ldr	r7, [pc, #84]	; (1198 <mem_free+0xb0>)
    1142:	42b1      	cmp	r1, r6
    1144:	5b59      	ldrh	r1, [r3, r5]
    1146:	ebc3 0602 	rsb	r6, r3, r2
    114a:	f824 1c08 	strh.w	r1, [r4, #-8]
    114e:	5b59      	ldrh	r1, [r3, r5]
    1150:	bf08      	it	eq
    1152:	603a      	streq	r2, [r7, #0]
    1154:	4419      	add	r1, r3
    1156:	804e      	strh	r6, [r1, #2]
    1158:	f834 5c06 	ldrh.w	r5, [r4, #-6]
    115c:	1959      	adds	r1, r3, r5
    115e:	428a      	cmp	r2, r1
    1160:	d00e      	beq.n	1180 <mem_free+0x98>
    1162:	790e      	ldrb	r6, [r1, #4]
    1164:	b966      	cbnz	r6, 1180 <mem_free+0x98>
    1166:	6800      	ldr	r0, [r0, #0]
    1168:	4e0b      	ldr	r6, [pc, #44]	; (1198 <mem_free+0xb0>)
    116a:	4282      	cmp	r2, r0
    116c:	f834 2c08 	ldrh.w	r2, [r4, #-8]
    1170:	bf08      	it	eq
    1172:	6031      	streq	r1, [r6, #0]
    1174:	535a      	strh	r2, [r3, r5]
    1176:	f834 2c08 	ldrh.w	r2, [r4, #-8]
    117a:	1ac9      	subs	r1, r1, r3
    117c:	4413      	add	r3, r2
    117e:	8059      	strh	r1, [r3, #2]
    1180:	4804      	ldr	r0, [pc, #16]	; (1194 <mem_free+0xac>)
    1182:	e8bd 40f8 	ldmia.w	sp!, {r3, r4, r5, r6, r7, lr}
    1186:	f003 bcf9 	b.w	4b7c <sys_mutex_unlock>
    118a:	bdf8      	pop	{r3, r4, r5, r6, r7, pc}
    118c:	100002cc 	.word	0x100002cc
    1190:	100002b4 	.word	0x100002b4
    1194:	100002b8 	.word	0x100002b8
    1198:	100002b0 	.word	0x100002b0

0000119c <mem_trim>:
    119c:	e92d 41f0 	stmdb	sp!, {r4, r5, r6, r7, r8, lr}
    11a0:	3103      	adds	r1, #3
    11a2:	f64f 74fc 	movw	r4, #65532	; 0xfffc
    11a6:	400c      	ands	r4, r1
    11a8:	2c0b      	cmp	r4, #11
    11aa:	4605      	mov	r5, r0
    11ac:	d945      	bls.n	123a <mem_trim+0x9e>
    11ae:	f643 73ec 	movw	r3, #16364	; 0x3fec
    11b2:	429c      	cmp	r4, r3
    11b4:	d868      	bhi.n	1288 <mem_trim+0xec>
    11b6:	4e37      	ldr	r6, [pc, #220]	; (1294 <mem_trim+0xf8>)
    11b8:	6833      	ldr	r3, [r6, #0]
    11ba:	42ab      	cmp	r3, r5
    11bc:	d842      	bhi.n	1244 <mem_trim+0xa8>
    11be:	4a36      	ldr	r2, [pc, #216]	; (1298 <mem_trim+0xfc>)
    11c0:	6812      	ldr	r2, [r2, #0]
    11c2:	4295      	cmp	r5, r2
    11c4:	d23e      	bcs.n	1244 <mem_trim+0xa8>
    11c6:	f1a5 0808 	sub.w	r8, r5, #8
    11ca:	f835 7c08 	ldrh.w	r7, [r5, #-8]
    11ce:	ebc3 0308 	rsb	r3, r3, r8
    11d2:	fa1f f883 	uxth.w	r8, r3
    11d6:	3f08      	subs	r7, #8
    11d8:	ebc8 0707 	rsb	r7, r8, r7
    11dc:	b2bf      	uxth	r7, r7
    11de:	42a7      	cmp	r7, r4
    11e0:	d352      	bcc.n	1288 <mem_trim+0xec>
    11e2:	42bc      	cmp	r4, r7
    11e4:	d053      	beq.n	128e <mem_trim+0xf2>
    11e6:	482d      	ldr	r0, [pc, #180]	; (129c <mem_trim+0x100>)
    11e8:	f003 fcb8 	bl	4b5c <sys_mutex_lock>
    11ec:	6833      	ldr	r3, [r6, #0]
    11ee:	f835 2c08 	ldrh.w	r2, [r5, #-8]
    11f2:	1899      	adds	r1, r3, r2
    11f4:	7908      	ldrb	r0, [r1, #4]
    11f6:	bb60      	cbnz	r0, 1252 <mem_trim+0xb6>
    11f8:	4e29      	ldr	r6, [pc, #164]	; (12a0 <mem_trim+0x104>)
    11fa:	f108 0708 	add.w	r7, r8, #8
    11fe:	6830      	ldr	r0, [r6, #0]
    1200:	443c      	add	r4, r7
    1202:	b2a4      	uxth	r4, r4
    1204:	5a9f      	ldrh	r7, [r3, r2]
    1206:	4288      	cmp	r0, r1
    1208:	eb03 0204 	add.w	r2, r3, r4
    120c:	f04f 0100 	mov.w	r1, #0
    1210:	7111      	strb	r1, [r2, #4]
    1212:	8017      	strh	r7, [r2, #0]
    1214:	f8a2 8002 	strh.w	r8, [r2, #2]
    1218:	f825 4c08 	strh.w	r4, [r5, #-8]
    121c:	bf08      	it	eq
    121e:	6032      	streq	r2, [r6, #0]
    1220:	8812      	ldrh	r2, [r2, #0]
    1222:	f643 71ec 	movw	r1, #16364	; 0x3fec
    1226:	428a      	cmp	r2, r1
    1228:	d001      	beq.n	122e <mem_trim+0x92>
    122a:	4413      	add	r3, r2
    122c:	805c      	strh	r4, [r3, #2]
    122e:	481b      	ldr	r0, [pc, #108]	; (129c <mem_trim+0x100>)
    1230:	f003 fca4 	bl	4b7c <sys_mutex_unlock>
    1234:	4628      	mov	r0, r5
    1236:	e8bd 81f0 	ldmia.w	sp!, {r4, r5, r6, r7, r8, pc}
    123a:	4e16      	ldr	r6, [pc, #88]	; (1294 <mem_trim+0xf8>)
    123c:	240c      	movs	r4, #12
    123e:	6833      	ldr	r3, [r6, #0]
    1240:	42ab      	cmp	r3, r5
    1242:	d9bc      	bls.n	11be <mem_trim+0x22>
    1244:	f003 fcbe 	bl	4bc4 <sys_arch_protect>
    1248:	f003 fcce 	bl	4be8 <sys_arch_unprotect>
    124c:	4628      	mov	r0, r5
    124e:	e8bd 81f0 	ldmia.w	sp!, {r4, r5, r6, r7, r8, pc}
    1252:	f104 0114 	add.w	r1, r4, #20
    1256:	42b9      	cmp	r1, r7
    1258:	d8e9      	bhi.n	122e <mem_trim+0x92>
    125a:	4811      	ldr	r0, [pc, #68]	; (12a0 <mem_trim+0x104>)
    125c:	f108 0108 	add.w	r1, r8, #8
    1260:	440c      	add	r4, r1
    1262:	b2a4      	uxth	r4, r4
    1264:	6806      	ldr	r6, [r0, #0]
    1266:	1919      	adds	r1, r3, r4
    1268:	42b1      	cmp	r1, r6
    126a:	bf38      	it	cc
    126c:	6001      	strcc	r1, [r0, #0]
    126e:	2000      	movs	r0, #0
    1270:	7108      	strb	r0, [r1, #4]
    1272:	531a      	strh	r2, [r3, r4]
    1274:	f8a1 8002 	strh.w	r8, [r1, #2]
    1278:	f825 4c08 	strh.w	r4, [r5, #-8]
    127c:	5b1a      	ldrh	r2, [r3, r4]
    127e:	f643 71ec 	movw	r1, #16364	; 0x3fec
    1282:	428a      	cmp	r2, r1
    1284:	d1d1      	bne.n	122a <mem_trim+0x8e>
    1286:	e7d2      	b.n	122e <mem_trim+0x92>
    1288:	2000      	movs	r0, #0
    128a:	e8bd 81f0 	ldmia.w	sp!, {r4, r5, r6, r7, r8, pc}
    128e:	4628      	mov	r0, r5
    1290:	e8bd 81f0 	ldmia.w	sp!, {r4, r5, r6, r7, r8, pc}
    1294:	100002cc 	.word	0x100002cc
    1298:	100002b4 	.word	0x100002b4
    129c:	100002b8 	.word	0x100002b8
    12a0:	100002b0 	.word	0x100002b0

000012a4 <mem_malloc>:
    12a4:	e92d 41f0 	stmdb	sp!, {r4, r5, r6, r7, r8, lr}
    12a8:	b378      	cbz	r0, 130a <mem_malloc+0x66>
    12aa:	3003      	adds	r0, #3
    12ac:	f64f 77fc 	movw	r7, #65532	; 0xfffc
    12b0:	4007      	ands	r7, r0
    12b2:	2f0b      	cmp	r7, #11
    12b4:	d92b      	bls.n	130e <mem_malloc+0x6a>
    12b6:	f643 73ec 	movw	r3, #16364	; 0x3fec
    12ba:	429f      	cmp	r7, r3
    12bc:	d824      	bhi.n	1308 <mem_malloc+0x64>
    12be:	f5c7 557f 	rsb	r5, r7, #16320	; 0x3fc0
    12c2:	352c      	adds	r5, #44	; 0x2c
    12c4:	4833      	ldr	r0, [pc, #204]	; (1394 <mem_malloc+0xf0>)
    12c6:	f003 fc49 	bl	4b5c <sys_mutex_lock>
    12ca:	f8df 80d0 	ldr.w	r8, [pc, #208]	; 139c <mem_malloc+0xf8>
    12ce:	f8df c0d0 	ldr.w	r12, [pc, #208]	; 13a0 <mem_malloc+0xfc>
    12d2:	f8d8 2000 	ldr.w	r2, [r8]
    12d6:	f8dc e000 	ldr.w	lr, [r12]
    12da:	ebc2 030e 	rsb	r3, r2, lr
    12de:	b29b      	uxth	r3, r3
    12e0:	42ab      	cmp	r3, r5
    12e2:	da0b      	bge.n	12fc <mem_malloc+0x58>
    12e4:	18d4      	adds	r4, r2, r3
    12e6:	7921      	ldrb	r1, [r4, #4]
    12e8:	b9a9      	cbnz	r1, 1316 <mem_malloc+0x72>
    12ea:	5ad0      	ldrh	r0, [r2, r3]
    12ec:	f1a0 0608 	sub.w	r6, r0, #8
    12f0:	1af6      	subs	r6, r6, r3
    12f2:	42be      	cmp	r6, r7
    12f4:	d211      	bcs.n	131a <mem_malloc+0x76>
    12f6:	4603      	mov	r3, r0
    12f8:	42ab      	cmp	r3, r5
    12fa:	dbf3      	blt.n	12e4 <mem_malloc+0x40>
    12fc:	4825      	ldr	r0, [pc, #148]	; (1394 <mem_malloc+0xf0>)
    12fe:	f003 fc3d 	bl	4b7c <sys_mutex_unlock>
    1302:	2000      	movs	r0, #0
    1304:	e8bd 81f0 	ldmia.w	sp!, {r4, r5, r6, r7, r8, pc}
    1308:	2000      	movs	r0, #0
    130a:	e8bd 81f0 	ldmia.w	sp!, {r4, r5, r6, r7, r8, pc}
    130e:	f643 75e0 	movw	r5, #16352	; 0x3fe0
    1312:	270c      	movs	r7, #12
    1314:	e7d6      	b.n	12c4 <mem_malloc+0x20>
    1316:	5ad3      	ldrh	r3, [r2, r3]
    1318:	e7e2      	b.n	12e0 <mem_malloc+0x3c>
    131a:	f107 0514 	add.w	r5, r7, #20
    131e:	42b5      	cmp	r5, r6
    1320:	d90a      	bls.n	1338 <mem_malloc+0x94>
    1322:	2301      	movs	r3, #1
    1324:	7123      	strb	r3, [r4, #4]
    1326:	45a6      	cmp	lr, r4
    1328:	d019      	beq.n	135e <mem_malloc+0xba>
    132a:	481a      	ldr	r0, [pc, #104]	; (1394 <mem_malloc+0xf0>)
    132c:	f003 fc26 	bl	4b7c <sys_mutex_unlock>
    1330:	f104 0008 	add.w	r0, r4, #8
    1334:	e8bd 81f0 	ldmia.w	sp!, {r4, r5, r6, r7, r8, pc}
    1338:	f107 0508 	add.w	r5, r7, #8
    133c:	441d      	add	r5, r3
    133e:	b2ad      	uxth	r5, r5
    1340:	1956      	adds	r6, r2, r5
    1342:	7131      	strb	r1, [r6, #4]
    1344:	5350      	strh	r0, [r2, r5]
    1346:	8073      	strh	r3, [r6, #2]
    1348:	8025      	strh	r5, [r4, #0]
    134a:	5b53      	ldrh	r3, [r2, r5]
    134c:	f643 71ec 	movw	r1, #16364	; 0x3fec
    1350:	2001      	movs	r0, #1
    1352:	428b      	cmp	r3, r1
    1354:	7120      	strb	r0, [r4, #4]
    1356:	d0e6      	beq.n	1326 <mem_malloc+0x82>
    1358:	4413      	add	r3, r2
    135a:	805d      	strh	r5, [r3, #2]
    135c:	e7e3      	b.n	1326 <mem_malloc+0x82>
    135e:	f89e 3004 	ldrb.w	r3, [lr, #4]
    1362:	2b00      	cmp	r3, #0
    1364:	d0e1      	beq.n	132a <mem_malloc+0x86>
    1366:	4b0c      	ldr	r3, [pc, #48]	; (1398 <mem_malloc+0xf4>)
    1368:	6819      	ldr	r1, [r3, #0]
    136a:	458e      	cmp	lr, r1
    136c:	d0dd      	beq.n	132a <mem_malloc+0x86>
    136e:	f8d8 0000 	ldr.w	r0, [r8]
    1372:	e001      	b.n	1378 <mem_malloc+0xd4>
    1374:	428b      	cmp	r3, r1
    1376:	d009      	beq.n	138c <mem_malloc+0xe8>
    1378:	f8be 3000 	ldrh.w	r3, [lr]
    137c:	4403      	add	r3, r0
    137e:	791a      	ldrb	r2, [r3, #4]
    1380:	469e      	mov	lr, r3
    1382:	2a00      	cmp	r2, #0
    1384:	d1f6      	bne.n	1374 <mem_malloc+0xd0>
    1386:	f8cc 3000 	str.w	r3, [r12]
    138a:	e7ce      	b.n	132a <mem_malloc+0x86>
    138c:	f8cc 1000 	str.w	r1, [r12]
    1390:	e7cb      	b.n	132a <mem_malloc+0x86>
    1392:	bf00      	nop
    1394:	100002b8 	.word	0x100002b8
    1398:	100002b4 	.word	0x100002b4
    139c:	100002cc 	.word	0x100002cc
    13a0:	100002b0 	.word	0x100002b0

000013a4 <memp_init>:
    13a4:	4b19      	ldr	r3, [pc, #100]	; (140c <memp_init+0x68>)
    13a6:	f8df c068 	ldr.w	r12, [pc, #104]	; 1410 <memp_init+0x6c>
    13aa:	e92d 0ff0 	stmdb	sp!, {r4, r5, r6, r7, r8, r9, r10, r11}
    13ae:	f8df b064 	ldr.w	r11, [pc, #100]	; 1414 <memp_init+0x70>
    13b2:	f8df 9064 	ldr.w	r9, [pc, #100]	; 1418 <memp_init+0x74>
    13b6:	2700      	movs	r7, #0
    13b8:	f023 0803 	bic.w	r8, r3, #3
    13bc:	f10c 0a3c 	add.w	r10, r12, #60	; 0x3c
    13c0:	f83b 6007 	ldrh.w	r6, [r11, r7]
    13c4:	2300      	movs	r3, #0
    13c6:	f84c 3b04 	str.w	r3, [r12], #4
    13ca:	b1be      	cbz	r6, 13fc <memp_init+0x58>
    13cc:	461a      	mov	r2, r3
    13ce:	4618      	mov	r0, r3
    13d0:	f837 5009 	ldrh.w	r5, [r7, r9]
    13d4:	4643      	mov	r3, r8
    13d6:	e001      	b.n	13dc <memp_init+0x38>
    13d8:	4618      	mov	r0, r3
    13da:	4623      	mov	r3, r4
    13dc:	3201      	adds	r2, #1
    13de:	b291      	uxth	r1, r2
    13e0:	428e      	cmp	r6, r1
    13e2:	6018      	str	r0, [r3, #0]
    13e4:	eb03 0405 	add.w	r4, r3, r5
    13e8:	d8f6      	bhi.n	13d8 <memp_init+0x34>
    13ea:	3e01      	subs	r6, #1
    13ec:	b2b6      	uxth	r6, r6
    13ee:	fb06 5305 	mla	r3, r6, r5, r5
    13f2:	fb05 8506 	mla	r5, r5, r6, r8
    13f6:	4498      	add	r8, r3
    13f8:	f84c 5c04 	str.w	r5, [r12, #-4]
    13fc:	45d4      	cmp	r12, r10
    13fe:	f107 0702 	add.w	r7, r7, #2
    1402:	d1dd      	bne.n	13c0 <memp_init+0x1c>
    1404:	e8bd 0ff0 	ldmia.w	sp!, {r4, r5, r6, r7, r8, r9, r10, r11}
    1408:	4770      	bx	lr
    140a:	bf00      	nop
    140c:	20080003 	.word	0x20080003
    1410:	100002d0 	.word	0x100002d0
    1414:	0000d9c0 	.word	0x0000d9c0
    1418:	0000d9e0 	.word	0x0000d9e0

0000141c <memp_malloc>:
    141c:	280e      	cmp	r0, #14
    141e:	b538      	push	{r3, r4, r5, lr}
    1420:	4604      	mov	r4, r0
    1422:	d80c      	bhi.n	143e <memp_malloc+0x22>
    1424:	f003 fbce 	bl	4bc4 <sys_arch_protect>
    1428:	4b06      	ldr	r3, [pc, #24]	; (1444 <memp_malloc+0x28>)
    142a:	f853 5024 	ldr.w	r5, [r3, r4, lsl #2]
    142e:	b115      	cbz	r5, 1436 <memp_malloc+0x1a>
    1430:	682a      	ldr	r2, [r5, #0]
    1432:	f843 2024 	str.w	r2, [r3, r4, lsl #2]
    1436:	f003 fbd7 	bl	4be8 <sys_arch_unprotect>
    143a:	4628      	mov	r0, r5
    143c:	bd38      	pop	{r3, r4, r5, pc}
    143e:	2000      	movs	r0, #0
    1440:	bd38      	pop	{r3, r4, r5, pc}
    1442:	bf00      	nop
    1444:	100002d0 	.word	0x100002d0

00001448 <memp_free>:
    1448:	b538      	push	{r3, r4, r5, lr}
    144a:	460c      	mov	r4, r1
    144c:	4605      	mov	r5, r0
    144e:	b159      	cbz	r1, 1468 <memp_free+0x20>
    1450:	f003 fbb8 	bl	4bc4 <sys_arch_protect>
    1454:	4b05      	ldr	r3, [pc, #20]	; (146c <memp_free+0x24>)
    1456:	f853 2025 	ldr.w	r2, [r3, r5, lsl #2]
    145a:	6022      	str	r2, [r4, #0]
    145c:	f843 4025 	str.w	r4, [r3, r5, lsl #2]
    1460:	e8bd 4038 	ldmia.w	sp!, {r3, r4, r5, lr}
    1464:	f003 bbc0 	b.w	4be8 <sys_arch_unprotect>
    1468:	bd38      	pop	{r3, r4, r5, pc}
    146a:	bf00      	nop
    146c:	100002d0 	.word	0x100002d0

00001470 <netif_init>:
    1470:	4770      	bx	lr
    1472:	bf00      	nop

00001474 <netif_set_ipaddr>:
    1474:	b570      	push	{r4, r5, r6, lr}
    1476:	4e19      	ldr	r6, [pc, #100]	; (14dc <netif_set_ipaddr+0x68>)
    1478:	6842      	ldr	r2, [r0, #4]
    147a:	2900      	cmp	r1, #0
    147c:	bf18      	it	ne
    147e:	460e      	movne	r6, r1
    1480:	6833      	ldr	r3, [r6, #0]
    1482:	4605      	mov	r5, r0
    1484:	4293      	cmp	r3, r2
    1486:	d023      	beq.n	14d0 <netif_set_ipaddr+0x5c>
    1488:	4b15      	ldr	r3, [pc, #84]	; (14e0 <netif_set_ipaddr+0x6c>)
    148a:	6818      	ldr	r0, [r3, #0]
    148c:	b170      	cbz	r0, 14ac <netif_set_ipaddr+0x38>
    148e:	6804      	ldr	r4, [r0, #0]
    1490:	42a2      	cmp	r2, r4
    1492:	d005      	beq.n	14a0 <netif_set_ipaddr+0x2c>
    1494:	68c0      	ldr	r0, [r0, #12]
    1496:	b148      	cbz	r0, 14ac <netif_set_ipaddr+0x38>
    1498:	686a      	ldr	r2, [r5, #4]
    149a:	6804      	ldr	r4, [r0, #0]
    149c:	42a2      	cmp	r2, r4
    149e:	d1f9      	bne.n	1494 <netif_set_ipaddr+0x20>
    14a0:	68c4      	ldr	r4, [r0, #12]
    14a2:	f000 fecd 	bl	2240 <tcp_abort>
    14a6:	4620      	mov	r0, r4
    14a8:	2800      	cmp	r0, #0
    14aa:	d1f5      	bne.n	1498 <netif_set_ipaddr+0x24>
    14ac:	4b0d      	ldr	r3, [pc, #52]	; (14e4 <netif_set_ipaddr+0x70>)
    14ae:	681b      	ldr	r3, [r3, #0]
    14b0:	b913      	cbnz	r3, 14b8 <netif_set_ipaddr+0x44>
    14b2:	e00d      	b.n	14d0 <netif_set_ipaddr+0x5c>
    14b4:	68db      	ldr	r3, [r3, #12]
    14b6:	b15b      	cbz	r3, 14d0 <netif_set_ipaddr+0x5c>
    14b8:	681a      	ldr	r2, [r3, #0]
    14ba:	2a00      	cmp	r2, #0
    14bc:	d0fa      	beq.n	14b4 <netif_set_ipaddr+0x40>
    14be:	6868      	ldr	r0, [r5, #4]
    14c0:	4282      	cmp	r2, r0
    14c2:	d1f7      	bne.n	14b4 <netif_set_ipaddr+0x40>
    14c4:	b146      	cbz	r6, 14d8 <netif_set_ipaddr+0x64>
    14c6:	6832      	ldr	r2, [r6, #0]
    14c8:	601a      	str	r2, [r3, #0]
    14ca:	68db      	ldr	r3, [r3, #12]
    14cc:	2b00      	cmp	r3, #0
    14ce:	d1f3      	bne.n	14b8 <netif_set_ipaddr+0x44>
    14d0:	b106      	cbz	r6, 14d4 <netif_set_ipaddr+0x60>
    14d2:	6836      	ldr	r6, [r6, #0]
    14d4:	606e      	str	r6, [r5, #4]
    14d6:	bd70      	pop	{r4, r5, r6, pc}
    14d8:	4632      	mov	r2, r6
    14da:	e7f5      	b.n	14c8 <netif_set_ipaddr+0x54>
    14dc:	0000da2c 	.word	0x0000da2c
    14e0:	10000fbc 	.word	0x10000fbc
    14e4:	10000fc4 	.word	0x10000fc4

000014e8 <netif_add>:
    14e8:	b5f8      	push	{r3, r4, r5, r6, r7, lr}
    14ea:	4f1c      	ldr	r7, [pc, #112]	; (155c <netif_add+0x74>)
    14ec:	4616      	mov	r6, r2
    14ee:	9a06      	ldr	r2, [sp, #24]
    14f0:	f897 c000 	ldrb.w	r12, [r7]
    14f4:	6242      	str	r2, [r0, #36]	; 0x24
    14f6:	9a08      	ldr	r2, [sp, #32]
    14f8:	2500      	movs	r5, #0
    14fa:	f10c 0e01 	add.w	lr, r12, #1
    14fe:	6045      	str	r5, [r0, #4]
    1500:	6085      	str	r5, [r0, #8]
    1502:	60c5      	str	r5, [r0, #12]
    1504:	f880 5039 	strb.w	r5, [r0, #57]	; 0x39
    1508:	6285      	str	r5, [r0, #40]	; 0x28
    150a:	61c5      	str	r5, [r0, #28]
    150c:	6205      	str	r5, [r0, #32]
    150e:	6405      	str	r5, [r0, #64]	; 0x40
    1510:	f880 c03c 	strb.w	r12, [r0, #60]	; 0x3c
    1514:	6102      	str	r2, [r0, #16]
    1516:	f887 e000 	strb.w	lr, [r7]
    151a:	4604      	mov	r4, r0
    151c:	461d      	mov	r5, r3
    151e:	9f07      	ldr	r7, [sp, #28]
    1520:	f7ff ffa8 	bl	1474 <netif_set_ipaddr>
    1524:	b18e      	cbz	r6, 154a <netif_add+0x62>
    1526:	6833      	ldr	r3, [r6, #0]
    1528:	60a3      	str	r3, [r4, #8]
    152a:	b105      	cbz	r5, 152e <netif_add+0x46>
    152c:	682d      	ldr	r5, [r5, #0]
    152e:	60e5      	str	r5, [r4, #12]
    1530:	4620      	mov	r0, r4
    1532:	47b8      	blx	r7
    1534:	b978      	cbnz	r0, 1556 <netif_add+0x6e>
    1536:	4b0a      	ldr	r3, [pc, #40]	; (1560 <netif_add+0x78>)
    1538:	f994 1039 	ldrsb.w	r1, [r4, #57]	; 0x39
    153c:	681a      	ldr	r2, [r3, #0]
    153e:	2900      	cmp	r1, #0
    1540:	6022      	str	r2, [r4, #0]
    1542:	4620      	mov	r0, r4
    1544:	601c      	str	r4, [r3, #0]
    1546:	db02      	blt.n	154e <netif_add+0x66>
    1548:	bdf8      	pop	{r3, r4, r5, r6, r7, pc}
    154a:	4633      	mov	r3, r6
    154c:	e7ec      	b.n	1528 <netif_add+0x40>
    154e:	f001 fee5 	bl	331c <igmp_start>
    1552:	4620      	mov	r0, r4
    1554:	bdf8      	pop	{r3, r4, r5, r6, r7, pc}
    1556:	2000      	movs	r0, #0
    1558:	bdf8      	pop	{r3, r4, r5, r6, r7, pc}
    155a:	bf00      	nop
    155c:	1000030c 	.word	0x1000030c
    1560:	10000fb4 	.word	0x10000fb4

00001564 <netif_set_gw>:
    1564:	b101      	cbz	r1, 1568 <netif_set_gw+0x4>
    1566:	6809      	ldr	r1, [r1, #0]
    1568:	60c1      	str	r1, [r0, #12]
    156a:	4770      	bx	lr

0000156c <netif_set_netmask>:
    156c:	b101      	cbz	r1, 1570 <netif_set_netmask+0x4>
    156e:	6809      	ldr	r1, [r1, #0]
    1570:	6081      	str	r1, [r0, #8]
    1572:	4770      	bx	lr

00001574 <netif_set_default>:
    1574:	4b01      	ldr	r3, [pc, #4]	; (157c <netif_set_default+0x8>)
    1576:	6018      	str	r0, [r3, #0]
    1578:	4770      	bx	lr
    157a:	bf00      	nop
    157c:	10000fb8 	.word	0x10000fb8

00001580 <netif_set_up>:
    1580:	b510      	push	{r4, lr}
    1582:	f890 3039 	ldrb.w	r3, [r0, #57]	; 0x39
    1586:	4604      	mov	r4, r0
    1588:	07da      	lsls	r2, r3, #31
    158a:	d40e      	bmi.n	15aa <netif_set_up+0x2a>
    158c:	69c2      	ldr	r2, [r0, #28]
    158e:	f043 0301 	orr.w	r3, r3, #1
    1592:	f880 3039 	strb.w	r3, [r0, #57]	; 0x39
    1596:	b112      	cbz	r2, 159e <netif_set_up+0x1e>
    1598:	4790      	blx	r2
    159a:	f894 3039 	ldrb.w	r3, [r4, #57]	; 0x39
    159e:	06d9      	lsls	r1, r3, #27
    15a0:	d503      	bpl.n	15aa <netif_set_up+0x2a>
    15a2:	069a      	lsls	r2, r3, #26
    15a4:	d407      	bmi.n	15b6 <netif_set_up+0x36>
    15a6:	061b      	lsls	r3, r3, #24
    15a8:	d400      	bmi.n	15ac <netif_set_up+0x2c>
    15aa:	bd10      	pop	{r4, pc}
    15ac:	4620      	mov	r0, r4
    15ae:	e8bd 4010 	ldmia.w	sp!, {r4, lr}
    15b2:	f001 becf 	b.w	3354 <igmp_report_groups>
    15b6:	4620      	mov	r0, r4
    15b8:	1d21      	adds	r1, r4, #4
    15ba:	f002 ff43 	bl	4444 <etharp_request>
    15be:	f894 3039 	ldrb.w	r3, [r4, #57]	; 0x39
    15c2:	e7f0      	b.n	15a6 <netif_set_up+0x26>

000015c4 <netif_set_down>:
    15c4:	f890 2039 	ldrb.w	r2, [r0, #57]	; 0x39
    15c8:	b508      	push	{r3, lr}
    15ca:	07d1      	lsls	r1, r2, #31
    15cc:	d506      	bpl.n	15dc <netif_set_down+0x18>
    15ce:	69c1      	ldr	r1, [r0, #28]
    15d0:	f022 0201 	bic.w	r2, r2, #1
    15d4:	f880 2039 	strb.w	r2, [r0, #57]	; 0x39
    15d8:	b101      	cbz	r1, 15dc <netif_set_down+0x18>
    15da:	4788      	blx	r1
    15dc:	bd08      	pop	{r3, pc}
    15de:	bf00      	nop

000015e0 <netif_set_status_callback>:
    15e0:	b100      	cbz	r0, 15e4 <netif_set_status_callback+0x4>
    15e2:	61c1      	str	r1, [r0, #28]
    15e4:	4770      	bx	lr
    15e6:	bf00      	nop

000015e8 <netif_set_link_up>:
    15e8:	b510      	push	{r4, lr}
    15ea:	f890 3039 	ldrb.w	r3, [r0, #57]	; 0x39
    15ee:	4604      	mov	r4, r0
    15f0:	06da      	lsls	r2, r3, #27
    15f2:	d413      	bmi.n	161c <netif_set_link_up+0x34>
    15f4:	6a82      	ldr	r2, [r0, #40]	; 0x28
    15f6:	f043 0310 	orr.w	r3, r3, #16
    15fa:	f880 3039 	strb.w	r3, [r0, #57]	; 0x39
    15fe:	b11a      	cbz	r2, 1608 <netif_set_link_up+0x20>
    1600:	f005 f8b6 	bl	6770 <dhcp_network_changed>
    1604:	f894 3039 	ldrb.w	r3, [r4, #57]	; 0x39
    1608:	07d9      	lsls	r1, r3, #31
    160a:	d503      	bpl.n	1614 <netif_set_link_up+0x2c>
    160c:	069a      	lsls	r2, r3, #26
    160e:	d406      	bmi.n	161e <netif_set_link_up+0x36>
    1610:	061b      	lsls	r3, r3, #24
    1612:	d40b      	bmi.n	162c <netif_set_link_up+0x44>
    1614:	6a23      	ldr	r3, [r4, #32]
    1616:	b10b      	cbz	r3, 161c <netif_set_link_up+0x34>
    1618:	4620      	mov	r0, r4
    161a:	4798      	blx	r3
    161c:	bd10      	pop	{r4, pc}
    161e:	4620      	mov	r0, r4
    1620:	1d21      	adds	r1, r4, #4
    1622:	f002 ff0f 	bl	4444 <etharp_request>
    1626:	f894 3039 	ldrb.w	r3, [r4, #57]	; 0x39
    162a:	e7f1      	b.n	1610 <netif_set_link_up+0x28>
    162c:	4620      	mov	r0, r4
    162e:	f001 fe91 	bl	3354 <igmp_report_groups>
    1632:	e7ef      	b.n	1614 <netif_set_link_up+0x2c>

00001634 <netif_set_link_down>:
    1634:	f890 2039 	ldrb.w	r2, [r0, #57]	; 0x39
    1638:	b508      	push	{r3, lr}
    163a:	06d1      	lsls	r1, r2, #27
    163c:	d506      	bpl.n	164c <netif_set_link_down+0x18>
    163e:	6a01      	ldr	r1, [r0, #32]
    1640:	f022 0210 	bic.w	r2, r2, #16
    1644:	f880 2039 	strb.w	r2, [r0, #57]	; 0x39
    1648:	b101      	cbz	r1, 164c <netif_set_link_down+0x18>
    164a:	4788      	blx	r1
    164c:	bd08      	pop	{r3, pc}
    164e:	bf00      	nop

00001650 <netif_set_link_callback>:
    1650:	b100      	cbz	r0, 1654 <netif_set_link_callback+0x4>
    1652:	6201      	str	r1, [r0, #32]
    1654:	4770      	bx	lr
    1656:	bf00      	nop

00001658 <pbuf_alloced_custom>:
    1658:	b470      	push	{r4, r5, r6}
    165a:	9c03      	ldr	r4, [sp, #12]
    165c:	f8bd 5010 	ldrh.w	r5, [sp, #16]
    1660:	2803      	cmp	r0, #3
    1662:	d823      	bhi.n	16ac <pbuf_alloced_custom+0x54>
    1664:	e8df f000 	tbb	[pc, r0]
    1668:	02171d1a 	.word	0x02171d1a
    166c:	2000      	movs	r0, #0
    166e:	4606      	mov	r6, r0
    1670:	4408      	add	r0, r1
    1672:	42a8      	cmp	r0, r5
    1674:	f04f 0000 	mov.w	r0, #0
    1678:	db0b      	blt.n	1692 <pbuf_alloced_custom+0x3a>
    167a:	6018      	str	r0, [r3, #0]
    167c:	b1a4      	cbz	r4, 16a8 <pbuf_alloced_custom+0x50>
    167e:	4434      	add	r4, r6
    1680:	605c      	str	r4, [r3, #4]
    1682:	2001      	movs	r0, #1
    1684:	2402      	movs	r4, #2
    1686:	81d8      	strh	r0, [r3, #14]
    1688:	8119      	strh	r1, [r3, #8]
    168a:	8159      	strh	r1, [r3, #10]
    168c:	731a      	strb	r2, [r3, #12]
    168e:	735c      	strb	r4, [r3, #13]
    1690:	4618      	mov	r0, r3
    1692:	bc70      	pop	{r4, r5, r6}
    1694:	4770      	bx	lr
    1696:	2010      	movs	r0, #16
    1698:	260e      	movs	r6, #14
    169a:	e7e9      	b.n	1670 <pbuf_alloced_custom+0x18>
    169c:	2038      	movs	r0, #56	; 0x38
    169e:	2636      	movs	r6, #54	; 0x36
    16a0:	e7e6      	b.n	1670 <pbuf_alloced_custom+0x18>
    16a2:	2024      	movs	r0, #36	; 0x24
    16a4:	2622      	movs	r6, #34	; 0x22
    16a6:	e7e3      	b.n	1670 <pbuf_alloced_custom+0x18>
    16a8:	605c      	str	r4, [r3, #4]
    16aa:	e7ea      	b.n	1682 <pbuf_alloced_custom+0x2a>
    16ac:	2000      	movs	r0, #0
    16ae:	e7f0      	b.n	1692 <pbuf_alloced_custom+0x3a>

000016b0 <pbuf_header>:
    16b0:	b410      	push	{r4}
    16b2:	b1e1      	cbz	r1, 16ee <pbuf_header+0x3e>
    16b4:	b158      	cbz	r0, 16ce <pbuf_header+0x1e>
    16b6:	2900      	cmp	r1, #0
    16b8:	db1d      	blt.n	16f6 <pbuf_header+0x46>
    16ba:	b28c      	uxth	r4, r1
    16bc:	7b03      	ldrb	r3, [r0, #12]
    16be:	6842      	ldr	r2, [r0, #4]
    16c0:	b143      	cbz	r3, 16d4 <pbuf_header+0x24>
    16c2:	2b03      	cmp	r3, #3
    16c4:	d006      	beq.n	16d4 <pbuf_header+0x24>
    16c6:	3b01      	subs	r3, #1
    16c8:	2b01      	cmp	r3, #1
    16ca:	d91f      	bls.n	170c <pbuf_header+0x5c>
    16cc:	2001      	movs	r0, #1
    16ce:	f85d 4b04 	ldr.w	r4, [sp], #4
    16d2:	4770      	bx	lr
    16d4:	1a53      	subs	r3, r2, r1
    16d6:	f100 0410 	add.w	r4, r0, #16
    16da:	42a3      	cmp	r3, r4
    16dc:	6043      	str	r3, [r0, #4]
    16de:	d310      	bcc.n	1702 <pbuf_header+0x52>
    16e0:	8943      	ldrh	r3, [r0, #10]
    16e2:	8902      	ldrh	r2, [r0, #8]
    16e4:	b289      	uxth	r1, r1
    16e6:	440b      	add	r3, r1
    16e8:	4411      	add	r1, r2
    16ea:	8143      	strh	r3, [r0, #10]
    16ec:	8101      	strh	r1, [r0, #8]
    16ee:	2000      	movs	r0, #0
    16f0:	f85d 4b04 	ldr.w	r4, [sp], #4
    16f4:	4770      	bx	lr
    16f6:	424c      	negs	r4, r1
    16f8:	8943      	ldrh	r3, [r0, #10]
    16fa:	b2a4      	uxth	r4, r4
    16fc:	42a3      	cmp	r3, r4
    16fe:	d2dd      	bcs.n	16bc <pbuf_header+0xc>
    1700:	e7e4      	b.n	16cc <pbuf_header+0x1c>
    1702:	6042      	str	r2, [r0, #4]
    1704:	f85d 4b04 	ldr.w	r4, [sp], #4
    1708:	2001      	movs	r0, #1
    170a:	4770      	bx	lr
    170c:	2900      	cmp	r1, #0
    170e:	dadd      	bge.n	16cc <pbuf_header+0x1c>
    1710:	8943      	ldrh	r3, [r0, #10]
    1712:	429c      	cmp	r4, r3
    1714:	d8da      	bhi.n	16cc <pbuf_header+0x1c>
    1716:	1a52      	subs	r2, r2, r1
    1718:	6042      	str	r2, [r0, #4]
    171a:	e7e2      	b.n	16e2 <pbuf_header+0x32>

0000171c <pbuf_free>:
    171c:	b570      	push	{r4, r5, r6, lr}
    171e:	4604      	mov	r4, r0
    1720:	2800      	cmp	r0, #0
    1722:	d02f      	beq.n	1784 <pbuf_free+0x68>
    1724:	2600      	movs	r6, #0
    1726:	f003 fa4d 	bl	4bc4 <sys_arch_protect>
    172a:	89e5      	ldrh	r5, [r4, #14]
    172c:	3d01      	subs	r5, #1
    172e:	b2ad      	uxth	r5, r5
    1730:	81e5      	strh	r5, [r4, #14]
    1732:	f003 fa59 	bl	4be8 <sys_arch_unprotect>
    1736:	b9cd      	cbnz	r5, 176c <pbuf_free+0x50>
    1738:	7b62      	ldrb	r2, [r4, #13]
    173a:	7b23      	ldrb	r3, [r4, #12]
    173c:	f012 0f02 	tst.w	r2, #2
    1740:	6825      	ldr	r5, [r4, #0]
    1742:	f103 32ff 	add.w	r2, r3, #4294967295	; 0xffffffff
    1746:	4620      	mov	r0, r4
    1748:	d10a      	bne.n	1760 <pbuf_free+0x44>
    174a:	2b03      	cmp	r3, #3
    174c:	d015      	beq.n	177a <pbuf_free+0x5e>
    174e:	2a01      	cmp	r2, #1
    1750:	d90e      	bls.n	1770 <pbuf_free+0x54>
    1752:	f7ff fcc9 	bl	10e8 <mem_free>
    1756:	3601      	adds	r6, #1
    1758:	b2f6      	uxtb	r6, r6
    175a:	b13d      	cbz	r5, 176c <pbuf_free+0x50>
    175c:	462c      	mov	r4, r5
    175e:	e7e2      	b.n	1726 <pbuf_free+0xa>
    1760:	6923      	ldr	r3, [r4, #16]
    1762:	3601      	adds	r6, #1
    1764:	4798      	blx	r3
    1766:	b2f6      	uxtb	r6, r6
    1768:	2d00      	cmp	r5, #0
    176a:	d1f7      	bne.n	175c <pbuf_free+0x40>
    176c:	4630      	mov	r0, r6
    176e:	bd70      	pop	{r4, r5, r6, pc}
    1770:	4621      	mov	r1, r4
    1772:	200d      	movs	r0, #13
    1774:	f7ff fe68 	bl	1448 <memp_free>
    1778:	e7ed      	b.n	1756 <pbuf_free+0x3a>
    177a:	4621      	mov	r1, r4
    177c:	200e      	movs	r0, #14
    177e:	f7ff fe63 	bl	1448 <memp_free>
    1782:	e7e8      	b.n	1756 <pbuf_free+0x3a>
    1784:	bd70      	pop	{r4, r5, r6, pc}
    1786:	bf00      	nop

00001788 <pbuf_alloc>:
    1788:	e92d 41f0 	stmdb	sp!, {r4, r5, r6, r7, r8, lr}
    178c:	460c      	mov	r4, r1
    178e:	b082      	sub	sp, #8
    1790:	2803      	cmp	r0, #3
    1792:	f200 808b 	bhi.w	18ac <pbuf_alloc+0x124>
    1796:	e8df f000 	tbb	[pc, r0]
    179a:	8785      	.short	0x8785
    179c:	0283      	.short	0x0283
    179e:	2500      	movs	r5, #0
    17a0:	2a03      	cmp	r2, #3
    17a2:	f200 8083 	bhi.w	18ac <pbuf_alloc+0x124>
    17a6:	e8df f002 	tbb	[pc, r2]
    17aa:	4e5c      	.short	0x4e5c
    17ac:	024e      	.short	0x024e
    17ae:	200e      	movs	r0, #14
    17b0:	f7ff fe34 	bl	141c <memp_malloc>
    17b4:	4606      	mov	r6, r0
    17b6:	2800      	cmp	r0, #0
    17b8:	d078      	beq.n	18ac <pbuf_alloc+0x124>
    17ba:	1ceb      	adds	r3, r5, #3
    17bc:	f023 0303 	bic.w	r3, r3, #3
    17c0:	f5c3 63bd 	rsb	r3, r3, #1512	; 0x5e8
    17c4:	3304      	adds	r3, #4
    17c6:	1947      	adds	r7, r0, r5
    17c8:	42a3      	cmp	r3, r4
    17ca:	bfa8      	it	ge
    17cc:	4623      	movge	r3, r4
    17ce:	2100      	movs	r1, #0
    17d0:	3713      	adds	r7, #19
    17d2:	1ae5      	subs	r5, r4, r3
    17d4:	f027 0703 	bic.w	r7, r7, #3
    17d8:	2003      	movs	r0, #3
    17da:	2201      	movs	r2, #1
    17dc:	428d      	cmp	r5, r1
    17de:	8134      	strh	r4, [r6, #8]
    17e0:	8173      	strh	r3, [r6, #10]
    17e2:	6077      	str	r7, [r6, #4]
    17e4:	7330      	strb	r0, [r6, #12]
    17e6:	6031      	str	r1, [r6, #0]
    17e8:	81f2      	strh	r2, [r6, #14]
    17ea:	dd51      	ble.n	1890 <pbuf_alloc+0x108>
    17ec:	4637      	mov	r7, r6
    17ee:	e016      	b.n	181e <pbuf_alloc+0x96>
    17f0:	4563      	cmp	r3, r12
    17f2:	bf98      	it	ls
    17f4:	4619      	movls	r1, r3
    17f6:	ebc1 0505 	rsb	r5, r1, r5
    17fa:	bf88      	it	hi
    17fc:	460a      	movhi	r2, r1
    17fe:	f884 800c 	strb.w	r8, [r4, #12]
    1802:	7360      	strb	r0, [r4, #13]
    1804:	6020      	str	r0, [r4, #0]
    1806:	f104 0110 	add.w	r1, r4, #16
    180a:	603c      	str	r4, [r7, #0]
    180c:	2d00      	cmp	r5, #0
    180e:	8123      	strh	r3, [r4, #8]
    1810:	f04f 0301 	mov.w	r3, #1
    1814:	8162      	strh	r2, [r4, #10]
    1816:	6061      	str	r1, [r4, #4]
    1818:	81e3      	strh	r3, [r4, #14]
    181a:	dd39      	ble.n	1890 <pbuf_alloc+0x108>
    181c:	4627      	mov	r7, r4
    181e:	200e      	movs	r0, #14
    1820:	f7ff fdfc 	bl	141c <memp_malloc>
    1824:	b2ab      	uxth	r3, r5
    1826:	4604      	mov	r4, r0
    1828:	f04f 0803 	mov.w	r8, #3
    182c:	2000      	movs	r0, #0
    182e:	f240 5ceb 	movw	r12, #1515	; 0x5eb
    1832:	f240 51ec 	movw	r1, #1516	; 0x5ec
    1836:	461a      	mov	r2, r3
    1838:	2c00      	cmp	r4, #0
    183a:	d1d9      	bne.n	17f0 <pbuf_alloc+0x68>
    183c:	4630      	mov	r0, r6
    183e:	f7ff ff6d 	bl	171c <pbuf_free>
    1842:	4620      	mov	r0, r4
    1844:	e029      	b.n	189a <pbuf_alloc+0x112>
    1846:	200d      	movs	r0, #13
    1848:	9201      	str	r2, [sp, #4]
    184a:	f7ff fde7 	bl	141c <memp_malloc>
    184e:	9a01      	ldr	r2, [sp, #4]
    1850:	4606      	mov	r6, r0
    1852:	b358      	cbz	r0, 18ac <pbuf_alloc+0x124>
    1854:	2300      	movs	r3, #0
    1856:	8104      	strh	r4, [r0, #8]
    1858:	8144      	strh	r4, [r0, #10]
    185a:	7302      	strb	r2, [r0, #12]
    185c:	6043      	str	r3, [r0, #4]
    185e:	6003      	str	r3, [r0, #0]
    1860:	e016      	b.n	1890 <pbuf_alloc+0x108>
    1862:	f105 0013 	add.w	r0, r5, #19
    1866:	1ce3      	adds	r3, r4, #3
    1868:	f023 0303 	bic.w	r3, r3, #3
    186c:	f020 0003 	bic.w	r0, r0, #3
    1870:	4418      	add	r0, r3
    1872:	b280      	uxth	r0, r0
    1874:	f7ff fd16 	bl	12a4 <mem_malloc>
    1878:	4606      	mov	r6, r0
    187a:	b1b8      	cbz	r0, 18ac <pbuf_alloc+0x124>
    187c:	4405      	add	r5, r0
    187e:	3513      	adds	r5, #19
    1880:	2300      	movs	r3, #0
    1882:	f025 0503 	bic.w	r5, r5, #3
    1886:	6045      	str	r5, [r0, #4]
    1888:	8104      	strh	r4, [r0, #8]
    188a:	8144      	strh	r4, [r0, #10]
    188c:	6003      	str	r3, [r0, #0]
    188e:	7303      	strb	r3, [r0, #12]
    1890:	2201      	movs	r2, #1
    1892:	2300      	movs	r3, #0
    1894:	81f2      	strh	r2, [r6, #14]
    1896:	7373      	strb	r3, [r6, #13]
    1898:	4630      	mov	r0, r6
    189a:	b002      	add	sp, #8
    189c:	e8bd 81f0 	ldmia.w	sp!, {r4, r5, r6, r7, r8, pc}
    18a0:	250e      	movs	r5, #14
    18a2:	e77d      	b.n	17a0 <pbuf_alloc+0x18>
    18a4:	2536      	movs	r5, #54	; 0x36
    18a6:	e77b      	b.n	17a0 <pbuf_alloc+0x18>
    18a8:	2522      	movs	r5, #34	; 0x22
    18aa:	e779      	b.n	17a0 <pbuf_alloc+0x18>
    18ac:	2000      	movs	r0, #0
    18ae:	e7f4      	b.n	189a <pbuf_alloc+0x112>

000018b0 <pbuf_realloc>:
    18b0:	8902      	ldrh	r2, [r0, #8]
    18b2:	b538      	push	{r3, r4, r5, lr}
    18b4:	428a      	cmp	r2, r1
    18b6:	4604      	mov	r4, r0
    18b8:	460d      	mov	r5, r1
    18ba:	d922      	bls.n	1902 <pbuf_realloc+0x52>
    18bc:	8943      	ldrh	r3, [r0, #10]
    18be:	1a89      	subs	r1, r1, r2
    18c0:	429d      	cmp	r5, r3
    18c2:	d90a      	bls.n	18da <pbuf_realloc+0x2a>
    18c4:	b289      	uxth	r1, r1
    18c6:	e000      	b.n	18ca <pbuf_realloc+0x1a>
    18c8:	8922      	ldrh	r2, [r4, #8]
    18ca:	440a      	add	r2, r1
    18cc:	8122      	strh	r2, [r4, #8]
    18ce:	6824      	ldr	r4, [r4, #0]
    18d0:	1aed      	subs	r5, r5, r3
    18d2:	8963      	ldrh	r3, [r4, #10]
    18d4:	b2ad      	uxth	r5, r5
    18d6:	42ab      	cmp	r3, r5
    18d8:	d3f6      	bcc.n	18c8 <pbuf_realloc+0x18>
    18da:	7b22      	ldrb	r2, [r4, #12]
    18dc:	b94a      	cbnz	r2, 18f2 <pbuf_realloc+0x42>
    18de:	429d      	cmp	r5, r3
    18e0:	d007      	beq.n	18f2 <pbuf_realloc+0x42>
    18e2:	6863      	ldr	r3, [r4, #4]
    18e4:	4620      	mov	r0, r4
    18e6:	1b1b      	subs	r3, r3, r4
    18e8:	18e9      	adds	r1, r5, r3
    18ea:	b289      	uxth	r1, r1
    18ec:	f7ff fc56 	bl	119c <mem_trim>
    18f0:	4604      	mov	r4, r0
    18f2:	6820      	ldr	r0, [r4, #0]
    18f4:	8165      	strh	r5, [r4, #10]
    18f6:	8125      	strh	r5, [r4, #8]
    18f8:	b108      	cbz	r0, 18fe <pbuf_realloc+0x4e>
    18fa:	f7ff ff0f 	bl	171c <pbuf_free>
    18fe:	2300      	movs	r3, #0
    1900:	6023      	str	r3, [r4, #0]
    1902:	bd38      	pop	{r3, r4, r5, pc}

00001904 <pbuf_clen>:
    1904:	4603      	mov	r3, r0
    1906:	b130      	cbz	r0, 1916 <pbuf_clen+0x12>
    1908:	2000      	movs	r0, #0
    190a:	681b      	ldr	r3, [r3, #0]
    190c:	3001      	adds	r0, #1
    190e:	b2c0      	uxtb	r0, r0
    1910:	2b00      	cmp	r3, #0
    1912:	d1fa      	bne.n	190a <pbuf_clen+0x6>
    1914:	4770      	bx	lr
    1916:	4770      	bx	lr

00001918 <pbuf_ref>:
    1918:	b510      	push	{r4, lr}
    191a:	4604      	mov	r4, r0
    191c:	b140      	cbz	r0, 1930 <pbuf_ref+0x18>
    191e:	f003 f951 	bl	4bc4 <sys_arch_protect>
    1922:	89e3      	ldrh	r3, [r4, #14]
    1924:	3301      	adds	r3, #1
    1926:	81e3      	strh	r3, [r4, #14]
    1928:	e8bd 4010 	ldmia.w	sp!, {r4, lr}
    192c:	f003 b95c 	b.w	4be8 <sys_arch_unprotect>
    1930:	bd10      	pop	{r4, pc}
    1932:	bf00      	nop

00001934 <pbuf_cat>:
    1934:	b430      	push	{r4, r5}
    1936:	b188      	cbz	r0, 195c <pbuf_cat+0x28>
    1938:	b181      	cbz	r1, 195c <pbuf_cat+0x28>
    193a:	6803      	ldr	r3, [r0, #0]
    193c:	b913      	cbnz	r3, 1944 <pbuf_cat+0x10>
    193e:	e00f      	b.n	1960 <pbuf_cat+0x2c>
    1940:	4618      	mov	r0, r3
    1942:	4613      	mov	r3, r2
    1944:	890d      	ldrh	r5, [r1, #8]
    1946:	8904      	ldrh	r4, [r0, #8]
    1948:	681a      	ldr	r2, [r3, #0]
    194a:	442c      	add	r4, r5
    194c:	8104      	strh	r4, [r0, #8]
    194e:	2a00      	cmp	r2, #0
    1950:	d1f6      	bne.n	1940 <pbuf_cat+0xc>
    1952:	8908      	ldrh	r0, [r1, #8]
    1954:	891a      	ldrh	r2, [r3, #8]
    1956:	6019      	str	r1, [r3, #0]
    1958:	4402      	add	r2, r0
    195a:	811a      	strh	r2, [r3, #8]
    195c:	bc30      	pop	{r4, r5}
    195e:	4770      	bx	lr
    1960:	4603      	mov	r3, r0
    1962:	e7f6      	b.n	1952 <pbuf_cat+0x1e>

00001964 <pbuf_chain>:
    1964:	b510      	push	{r4, lr}
    1966:	460c      	mov	r4, r1
    1968:	f7ff ffe4 	bl	1934 <pbuf_cat>
    196c:	4620      	mov	r0, r4
    196e:	e8bd 4010 	ldmia.w	sp!, {r4, lr}
    1972:	f7ff bfd1 	b.w	1918 <pbuf_ref>
    1976:	bf00      	nop

00001978 <pbuf_copy>:
    1978:	e92d 41f0 	stmdb	sp!, {r4, r5, r6, r7, r8, lr}
    197c:	4605      	mov	r5, r0
    197e:	460c      	mov	r4, r1
    1980:	2800      	cmp	r0, #0
    1982:	d045      	beq.n	1a10 <pbuf_copy+0x98>
    1984:	2900      	cmp	r1, #0
    1986:	d043      	beq.n	1a10 <pbuf_copy+0x98>
    1988:	8902      	ldrh	r2, [r0, #8]
    198a:	890b      	ldrh	r3, [r1, #8]
    198c:	429a      	cmp	r2, r3
    198e:	d33f      	bcc.n	1a10 <pbuf_copy+0x98>
    1990:	2600      	movs	r6, #0
    1992:	4637      	mov	r7, r6
    1994:	896b      	ldrh	r3, [r5, #10]
    1996:	f8b4 800a 	ldrh.w	r8, [r4, #10]
    199a:	1bdb      	subs	r3, r3, r7
    199c:	ebc6 0808 	rsb	r8, r6, r8
    19a0:	4543      	cmp	r3, r8
    19a2:	6868      	ldr	r0, [r5, #4]
    19a4:	6861      	ldr	r1, [r4, #4]
    19a6:	bfb4      	ite	lt
    19a8:	fa1f f883 	uxthlt.w	r8, r3
    19ac:	fa1f f888 	uxthge.w	r8, r8
    19b0:	4438      	add	r0, r7
    19b2:	4431      	add	r1, r6
    19b4:	4642      	mov	r2, r8
    19b6:	f002 ffc7 	bl	4948 <thumb2_memcpy>
    19ba:	4447      	add	r7, r8
    19bc:	896b      	ldrh	r3, [r5, #10]
    19be:	b2bf      	uxth	r7, r7
    19c0:	42bb      	cmp	r3, r7
    19c2:	4446      	add	r6, r8
    19c4:	8963      	ldrh	r3, [r4, #10]
    19c6:	b2b6      	uxth	r6, r6
    19c8:	bf04      	itt	eq
    19ca:	682d      	ldreq	r5, [r5, #0]
    19cc:	2700      	moveq	r7, #0
    19ce:	42b3      	cmp	r3, r6
    19d0:	bf9c      	itt	ls
    19d2:	6824      	ldrls	r4, [r4, #0]
    19d4:	2600      	movls	r6, #0
    19d6:	b11c      	cbz	r4, 19e0 <pbuf_copy+0x68>
    19d8:	8962      	ldrh	r2, [r4, #10]
    19da:	8923      	ldrh	r3, [r4, #8]
    19dc:	429a      	cmp	r2, r3
    19de:	d00a      	beq.n	19f6 <pbuf_copy+0x7e>
    19e0:	b11d      	cbz	r5, 19ea <pbuf_copy+0x72>
    19e2:	896a      	ldrh	r2, [r5, #10]
    19e4:	892b      	ldrh	r3, [r5, #8]
    19e6:	429a      	cmp	r2, r3
    19e8:	d00c      	beq.n	1a04 <pbuf_copy+0x8c>
    19ea:	2c00      	cmp	r4, #0
    19ec:	d1d2      	bne.n	1994 <pbuf_copy+0x1c>
    19ee:	4620      	mov	r0, r4
    19f0:	b240      	sxtb	r0, r0
    19f2:	e8bd 81f0 	ldmia.w	sp!, {r4, r5, r6, r7, r8, pc}
    19f6:	6823      	ldr	r3, [r4, #0]
    19f8:	2b00      	cmp	r3, #0
    19fa:	d0f1      	beq.n	19e0 <pbuf_copy+0x68>
    19fc:	20fa      	movs	r0, #250	; 0xfa
    19fe:	b240      	sxtb	r0, r0
    1a00:	e8bd 81f0 	ldmia.w	sp!, {r4, r5, r6, r7, r8, pc}
    1a04:	682b      	ldr	r3, [r5, #0]
    1a06:	2b00      	cmp	r3, #0
    1a08:	d1f8      	bne.n	19fc <pbuf_copy+0x84>
    1a0a:	2c00      	cmp	r4, #0
    1a0c:	d1c2      	bne.n	1994 <pbuf_copy+0x1c>
    1a0e:	e7ee      	b.n	19ee <pbuf_copy+0x76>
    1a10:	20f2      	movs	r0, #242	; 0xf2
    1a12:	e7ed      	b.n	19f0 <pbuf_copy+0x78>

00001a14 <pbuf_copy_partial>:
    1a14:	e92d 43f8 	stmdb	sp!, {r3, r4, r5, r6, r7, r8, r9, lr}
    1a18:	4604      	mov	r4, r0
    1a1a:	4688      	mov	r8, r1
    1a1c:	4616      	mov	r6, r2
    1a1e:	b348      	cbz	r0, 1a74 <pbuf_copy_partial+0x60>
    1a20:	b351      	cbz	r1, 1a78 <pbuf_copy_partial+0x64>
    1a22:	b362      	cbz	r2, 1a7e <pbuf_copy_partial+0x6a>
    1a24:	f04f 0900 	mov.w	r9, #0
    1a28:	464f      	mov	r7, r9
    1a2a:	e006      	b.n	1a3a <pbuf_copy_partial+0x26>
    1a2c:	429d      	cmp	r5, r3
    1a2e:	d809      	bhi.n	1a44 <pbuf_copy_partial+0x30>
    1a30:	1b5b      	subs	r3, r3, r5
    1a32:	b29b      	uxth	r3, r3
    1a34:	6824      	ldr	r4, [r4, #0]
    1a36:	b1d6      	cbz	r6, 1a6e <pbuf_copy_partial+0x5a>
    1a38:	b1cc      	cbz	r4, 1a6e <pbuf_copy_partial+0x5a>
    1a3a:	eb08 0007 	add.w	r0, r8, r7
    1a3e:	8965      	ldrh	r5, [r4, #10]
    1a40:	2b00      	cmp	r3, #0
    1a42:	d1f3      	bne.n	1a2c <pbuf_copy_partial+0x18>
    1a44:	1aed      	subs	r5, r5, r3
    1a46:	b2ad      	uxth	r5, r5
    1a48:	42b5      	cmp	r5, r6
    1a4a:	bf28      	it	cs
    1a4c:	4635      	movcs	r5, r6
    1a4e:	6861      	ldr	r1, [r4, #4]
    1a50:	1b76      	subs	r6, r6, r5
    1a52:	4419      	add	r1, r3
    1a54:	462a      	mov	r2, r5
    1a56:	44a9      	add	r9, r5
    1a58:	442f      	add	r7, r5
    1a5a:	b2b6      	uxth	r6, r6
    1a5c:	f002 ff74 	bl	4948 <thumb2_memcpy>
    1a60:	fa1f f989 	uxth.w	r9, r9
    1a64:	b2bf      	uxth	r7, r7
    1a66:	2300      	movs	r3, #0
    1a68:	6824      	ldr	r4, [r4, #0]
    1a6a:	2e00      	cmp	r6, #0
    1a6c:	d1e4      	bne.n	1a38 <pbuf_copy_partial+0x24>
    1a6e:	4648      	mov	r0, r9
    1a70:	e8bd 83f8 	ldmia.w	sp!, {r3, r4, r5, r6, r7, r8, r9, pc}
    1a74:	e8bd 83f8 	ldmia.w	sp!, {r3, r4, r5, r6, r7, r8, r9, pc}
    1a78:	4608      	mov	r0, r1
    1a7a:	e8bd 83f8 	ldmia.w	sp!, {r3, r4, r5, r6, r7, r8, r9, pc}
    1a7e:	4610      	mov	r0, r2
    1a80:	e8bd 83f8 	ldmia.w	sp!, {r3, r4, r5, r6, r7, r8, r9, pc}

00001a84 <tcp_new_port>:
    1a84:	b470      	push	{r4, r5, r6}
    1a86:	4e0e      	ldr	r6, [pc, #56]	; (1ac0 <tcp_new_port+0x3c>)
    1a88:	4d0e      	ldr	r5, [pc, #56]	; (1ac4 <tcp_new_port+0x40>)
    1a8a:	8830      	ldrh	r0, [r6, #0]
    1a8c:	f64f 74ff 	movw	r4, #65535	; 0xffff
    1a90:	42a0      	cmp	r0, r4
    1a92:	bf18      	it	ne
    1a94:	3001      	addne	r0, #1
    1a96:	490c      	ldr	r1, [pc, #48]	; (1ac8 <tcp_new_port+0x44>)
    1a98:	bf14      	ite	ne
    1a9a:	b280      	uxthne	r0, r0
    1a9c:	f44f 4040 	moveq.w	r0, #49152	; 0xc000
    1aa0:	f851 3f04 	ldr.w	r3, [r1, #4]!
    1aa4:	681b      	ldr	r3, [r3, #0]
    1aa6:	b12b      	cbz	r3, 1ab4 <tcp_new_port+0x30>
    1aa8:	8b9a      	ldrh	r2, [r3, #28]
    1aaa:	4282      	cmp	r2, r0
    1aac:	d0f0      	beq.n	1a90 <tcp_new_port+0xc>
    1aae:	68db      	ldr	r3, [r3, #12]
    1ab0:	2b00      	cmp	r3, #0
    1ab2:	d1f9      	bne.n	1aa8 <tcp_new_port+0x24>
    1ab4:	42a9      	cmp	r1, r5
    1ab6:	d1f3      	bne.n	1aa0 <tcp_new_port+0x1c>
    1ab8:	8030      	strh	r0, [r6, #0]
    1aba:	bc70      	pop	{r4, r5, r6}
    1abc:	4770      	bx	lr
    1abe:	bf00      	nop
    1ac0:	100000d0 	.word	0x100000d0
    1ac4:	0000da0c 	.word	0x0000da0c
    1ac8:	0000d9fc 	.word	0x0000d9fc

00001acc <tcp_update_rcv_ann_wnd>:
    1acc:	b470      	push	{r4, r5, r6}
    1ace:	8d02      	ldrh	r2, [r0, #40]	; 0x28
    1ad0:	6ac4      	ldr	r4, [r0, #44]	; 0x2c
    1ad2:	6a41      	ldr	r1, [r0, #36]	; 0x24
    1ad4:	8f06      	ldrh	r6, [r0, #56]	; 0x38
    1ad6:	4603      	mov	r3, r0
    1ad8:	f240 55b4 	movw	r5, #1460	; 0x5b4
    1adc:	1b10      	subs	r0, r2, r4
    1ade:	42ae      	cmp	r6, r5
    1ae0:	bf38      	it	cc
    1ae2:	4635      	movcc	r5, r6
    1ae4:	4408      	add	r0, r1
    1ae6:	1b45      	subs	r5, r0, r5
    1ae8:	2d00      	cmp	r5, #0
    1aea:	db02      	blt.n	1af2 <tcp_update_rcv_ann_wnd+0x26>
    1aec:	bc70      	pop	{r4, r5, r6}
    1aee:	855a      	strh	r2, [r3, #42]	; 0x2a
    1af0:	4770      	bx	lr
    1af2:	1b0a      	subs	r2, r1, r4
    1af4:	2a00      	cmp	r2, #0
    1af6:	dd03      	ble.n	1b00 <tcp_update_rcv_ann_wnd+0x34>
    1af8:	bc70      	pop	{r4, r5, r6}
    1afa:	2000      	movs	r0, #0
    1afc:	8558      	strh	r0, [r3, #42]	; 0x2a
    1afe:	4770      	bx	lr
    1b00:	1a61      	subs	r1, r4, r1
    1b02:	2000      	movs	r0, #0
    1b04:	8559      	strh	r1, [r3, #42]	; 0x2a
    1b06:	bc70      	pop	{r4, r5, r6}
    1b08:	4770      	bx	lr
    1b0a:	bf00      	nop

00001b0c <tcp_recved>:
    1b0c:	8d02      	ldrh	r2, [r0, #40]	; 0x28
    1b0e:	f640 3368 	movw	r3, #2920	; 0xb68
    1b12:	4411      	add	r1, r2
    1b14:	b289      	uxth	r1, r1
    1b16:	4299      	cmp	r1, r3
    1b18:	b510      	push	{r4, lr}
    1b1a:	bf8c      	ite	hi
    1b1c:	8503      	strhhi	r3, [r0, #40]	; 0x28
    1b1e:	8501      	strhls	r1, [r0, #40]	; 0x28
    1b20:	4604      	mov	r4, r0
    1b22:	f7ff ffd3 	bl	1acc <tcp_update_rcv_ann_wnd>
    1b26:	f240 23d9 	movw	r3, #729	; 0x2d9
    1b2a:	4298      	cmp	r0, r3
    1b2c:	dc00      	bgt.n	1b30 <tcp_recved+0x24>
    1b2e:	bd10      	pop	{r4, pc}
    1b30:	f894 3020 	ldrb.w	r3, [r4, #32]
    1b34:	4620      	mov	r0, r4
    1b36:	f043 0302 	orr.w	r3, r3, #2
    1b3a:	f884 3020 	strb.w	r3, [r4, #32]
    1b3e:	e8bd 4010 	ldmia.w	sp!, {r4, lr}
    1b42:	f000 bf7d 	b.w	2a40 <tcp_output>
    1b46:	bf00      	nop

00001b48 <tcp_seg_free>:
    1b48:	b510      	push	{r4, lr}
    1b4a:	4604      	mov	r4, r0
    1b4c:	b148      	cbz	r0, 1b62 <tcp_seg_free+0x1a>
    1b4e:	6840      	ldr	r0, [r0, #4]
    1b50:	b108      	cbz	r0, 1b56 <tcp_seg_free+0xe>
    1b52:	f7ff fde3 	bl	171c <pbuf_free>
    1b56:	4621      	mov	r1, r4
    1b58:	2003      	movs	r0, #3
    1b5a:	e8bd 4010 	ldmia.w	sp!, {r4, lr}
    1b5e:	f7ff bc73 	b.w	1448 <memp_free>
    1b62:	bd10      	pop	{r4, pc}

00001b64 <tcp_segs_free>:
    1b64:	b510      	push	{r4, lr}
    1b66:	b908      	cbnz	r0, 1b6c <tcp_segs_free+0x8>
    1b68:	e005      	b.n	1b76 <tcp_segs_free+0x12>
    1b6a:	4620      	mov	r0, r4
    1b6c:	6804      	ldr	r4, [r0, #0]
    1b6e:	f7ff ffeb 	bl	1b48 <tcp_seg_free>
    1b72:	2c00      	cmp	r4, #0
    1b74:	d1f9      	bne.n	1b6a <tcp_segs_free+0x6>
    1b76:	bd10      	pop	{r4, pc}

00001b78 <tcp_arg>:
    1b78:	6141      	str	r1, [r0, #20]
    1b7a:	4770      	bx	lr

00001b7c <tcp_recv>:
    1b7c:	f8c0 1084 	str.w	r1, [r0, #132]	; 0x84
    1b80:	4770      	bx	lr
    1b82:	bf00      	nop

00001b84 <tcp_sent>:
    1b84:	f8c0 1080 	str.w	r1, [r0, #128]	; 0x80
    1b88:	4770      	bx	lr
    1b8a:	bf00      	nop

00001b8c <tcp_err>:
    1b8c:	f8c0 1090 	str.w	r1, [r0, #144]	; 0x90
    1b90:	4770      	bx	lr
    1b92:	bf00      	nop

00001b94 <tcp_accept>:
    1b94:	6181      	str	r1, [r0, #24]
    1b96:	4770      	bx	lr

00001b98 <tcp_poll>:
    1b98:	f8c0 108c 	str.w	r1, [r0, #140]	; 0x8c
    1b9c:	f880 2035 	strb.w	r2, [r0, #53]	; 0x35
    1ba0:	4770      	bx	lr
    1ba2:	bf00      	nop

00001ba4 <tcp_pcb_purge>:
    1ba4:	b538      	push	{r3, r4, r5, lr}
    1ba6:	7c03      	ldrb	r3, [r0, #16]
    1ba8:	4605      	mov	r5, r0
    1baa:	2b01      	cmp	r3, #1
    1bac:	d920      	bls.n	1bf0 <tcp_pcb_purge+0x4c>
    1bae:	2b0a      	cmp	r3, #10
    1bb0:	d01e      	beq.n	1bf0 <tcp_pcb_purge+0x4c>
    1bb2:	6fc0      	ldr	r0, [r0, #124]	; 0x7c
    1bb4:	b118      	cbz	r0, 1bbe <tcp_pcb_purge+0x1a>
    1bb6:	f7ff fdb1 	bl	171c <pbuf_free>
    1bba:	2300      	movs	r3, #0
    1bbc:	67eb      	str	r3, [r5, #124]	; 0x7c
    1bbe:	6f68      	ldr	r0, [r5, #116]	; 0x74
    1bc0:	f64f 73ff 	movw	r3, #65535	; 0xffff
    1bc4:	86eb      	strh	r3, [r5, #54]	; 0x36
    1bc6:	b908      	cbnz	r0, 1bcc <tcp_pcb_purge+0x28>
    1bc8:	e005      	b.n	1bd6 <tcp_pcb_purge+0x32>
    1bca:	4620      	mov	r0, r4
    1bcc:	6804      	ldr	r4, [r0, #0]
    1bce:	f7ff ffbb 	bl	1b48 <tcp_seg_free>
    1bd2:	2c00      	cmp	r4, #0
    1bd4:	d1f9      	bne.n	1bca <tcp_pcb_purge+0x26>
    1bd6:	6fa8      	ldr	r0, [r5, #120]	; 0x78
    1bd8:	b908      	cbnz	r0, 1bde <tcp_pcb_purge+0x3a>
    1bda:	e005      	b.n	1be8 <tcp_pcb_purge+0x44>
    1bdc:	4620      	mov	r0, r4
    1bde:	6804      	ldr	r4, [r0, #0]
    1be0:	f7ff ffb2 	bl	1b48 <tcp_seg_free>
    1be4:	2c00      	cmp	r4, #0
    1be6:	d1f9      	bne.n	1bdc <tcp_pcb_purge+0x38>
    1be8:	2300      	movs	r3, #0
    1bea:	676b      	str	r3, [r5, #116]	; 0x74
    1bec:	67ab      	str	r3, [r5, #120]	; 0x78
    1bee:	bd38      	pop	{r3, r4, r5, pc}
    1bf0:	bd38      	pop	{r3, r4, r5, pc}
    1bf2:	bf00      	nop

00001bf4 <tcp_slowtmr>:
    1bf4:	e92d 4ff0 	stmdb	sp!, {r4, r5, r6, r7, r8, r9, r10, r11, lr}
    1bf8:	4da8      	ldr	r5, [pc, #672]	; (1e9c <tcp_slowtmr+0x2a8>)
    1bfa:	f8df 92ac 	ldr.w	r9, [pc, #684]	; 1ea8 <tcp_slowtmr+0x2b4>
    1bfe:	682b      	ldr	r3, [r5, #0]
    1c00:	f8d9 4000 	ldr.w	r4, [r9]
    1c04:	3301      	adds	r3, #1
    1c06:	b085      	sub	sp, #20
    1c08:	602b      	str	r3, [r5, #0]
    1c0a:	2c00      	cmp	r4, #0
    1c0c:	f000 8089 	beq.w	1d22 <tcp_slowtmr+0x12e>
    1c10:	7c23      	ldrb	r3, [r4, #16]
    1c12:	f8df 8298 	ldr.w	r8, [pc, #664]	; 1eac <tcp_slowtmr+0x2b8>
    1c16:	2b02      	cmp	r3, #2
    1c18:	f04f 0600 	mov.w	r6, #0
    1c1c:	f894 104a 	ldrb.w	r1, [r4, #74]	; 0x4a
    1c20:	d059      	beq.n	1cd6 <tcp_slowtmr+0xe2>
    1c22:	290c      	cmp	r1, #12
    1c24:	f000 80ea 	beq.w	1dfc <tcp_slowtmr+0x208>
    1c28:	f894 20a4 	ldrb.w	r2, [r4, #164]	; 0xa4
    1c2c:	2a00      	cmp	r2, #0
    1c2e:	f000 8097 	beq.w	1d60 <tcp_slowtmr+0x16c>
    1c32:	f8d4 10a0 	ldr.w	r1, [r4, #160]	; 0xa0
    1c36:	eb08 0002 	add.w	r0, r8, r2
    1c3a:	f810 0c01 	ldrb.w	r0, [r0, #-1]
    1c3e:	3101      	adds	r1, #1
    1c40:	4281      	cmp	r1, r0
    1c42:	f8c4 10a0 	str.w	r1, [r4, #160]	; 0xa0
    1c46:	f0c0 80ce 	bcc.w	1de6 <tcp_slowtmr+0x1f2>
    1c4a:	2a06      	cmp	r2, #6
    1c4c:	f04f 0300 	mov.w	r3, #0
    1c50:	bf98      	it	ls
    1c52:	3201      	addls	r2, #1
    1c54:	f8c4 30a0 	str.w	r3, [r4, #160]	; 0xa0
    1c58:	bf98      	it	ls
    1c5a:	f884 20a4 	strbls.w	r2, [r4, #164]	; 0xa4
    1c5e:	4620      	mov	r0, r4
    1c60:	f001 f90c 	bl	2e7c <tcp_zero_window_probe>
    1c64:	7c23      	ldrb	r3, [r4, #16]
    1c66:	2200      	movs	r2, #0
    1c68:	2b06      	cmp	r3, #6
    1c6a:	f000 80b2 	beq.w	1dd2 <tcp_slowtmr+0x1de>
    1c6e:	7a21      	ldrb	r1, [r4, #8]
    1c70:	0709      	lsls	r1, r1, #28
    1c72:	d505      	bpl.n	1c80 <tcp_slowtmr+0x8c>
    1c74:	2b04      	cmp	r3, #4
    1c76:	f000 80c3 	beq.w	1e00 <tcp_slowtmr+0x20c>
    1c7a:	2b07      	cmp	r3, #7
    1c7c:	f000 80c0 	beq.w	1e00 <tcp_slowtmr+0x20c>
    1c80:	f04f 0b00 	mov.w	r11, #0
    1c84:	2b03      	cmp	r3, #3
    1c86:	f000 80b0 	beq.w	1dea <tcp_slowtmr+0x1f6>
    1c8a:	2b09      	cmp	r3, #9
    1c8c:	d027      	beq.n	1cde <tcp_slowtmr+0xea>
    1c8e:	bb5a      	cbnz	r2, 1ce8 <tcp_slowtmr+0xf4>
    1c90:	f894 3034 	ldrb.w	r3, [r4, #52]	; 0x34
    1c94:	f894 1035 	ldrb.w	r1, [r4, #53]	; 0x35
    1c98:	3301      	adds	r3, #1
    1c9a:	b2db      	uxtb	r3, r3
    1c9c:	4299      	cmp	r1, r3
    1c9e:	f884 3034 	strb.w	r3, [r4, #52]	; 0x34
    1ca2:	f8d4 b00c 	ldr.w	r11, [r4, #12]
    1ca6:	d80c      	bhi.n	1cc2 <tcp_slowtmr+0xce>
    1ca8:	f8d4 308c 	ldr.w	r3, [r4, #140]	; 0x8c
    1cac:	f884 2034 	strb.w	r2, [r4, #52]	; 0x34
    1cb0:	2b00      	cmp	r3, #0
    1cb2:	f000 80d6 	beq.w	1e62 <tcp_slowtmr+0x26e>
    1cb6:	6960      	ldr	r0, [r4, #20]
    1cb8:	4621      	mov	r1, r4
    1cba:	4798      	blx	r3
    1cbc:	2800      	cmp	r0, #0
    1cbe:	f000 80d0 	beq.w	1e62 <tcp_slowtmr+0x26e>
    1cc2:	f1bb 0f00 	cmp.w	r11, #0
    1cc6:	d02c      	beq.n	1d22 <tcp_slowtmr+0x12e>
    1cc8:	4626      	mov	r6, r4
    1cca:	465c      	mov	r4, r11
    1ccc:	7c23      	ldrb	r3, [r4, #16]
    1cce:	f894 104a 	ldrb.w	r1, [r4, #74]	; 0x4a
    1cd2:	2b02      	cmp	r3, #2
    1cd4:	d1a5      	bne.n	1c22 <tcp_slowtmr+0x2e>
    1cd6:	2906      	cmp	r1, #6
    1cd8:	d1a3      	bne.n	1c22 <tcp_slowtmr+0x2e>
    1cda:	2201      	movs	r2, #1
    1cdc:	e7d0      	b.n	1c80 <tcp_slowtmr+0x8c>
    1cde:	6829      	ldr	r1, [r5, #0]
    1ce0:	6b23      	ldr	r3, [r4, #48]	; 0x30
    1ce2:	1acb      	subs	r3, r1, r3
    1ce4:	2bf0      	cmp	r3, #240	; 0xf0
    1ce6:	d9d2      	bls.n	1c8e <tcp_slowtmr+0x9a>
    1ce8:	4620      	mov	r0, r4
    1cea:	f7ff ff5b 	bl	1ba4 <tcp_pcb_purge>
    1cee:	68e3      	ldr	r3, [r4, #12]
    1cf0:	2e00      	cmp	r6, #0
    1cf2:	f000 80cb 	beq.w	1e8c <tcp_slowtmr+0x298>
    1cf6:	60f3      	str	r3, [r6, #12]
    1cf8:	f8d4 3090 	ldr.w	r3, [r4, #144]	; 0x90
    1cfc:	b11b      	cbz	r3, 1d06 <tcp_slowtmr+0x112>
    1cfe:	6960      	ldr	r0, [r4, #20]
    1d00:	f06f 0109 	mvn.w	r1, #9
    1d04:	4798      	blx	r3
    1d06:	f1bb 0f00 	cmp.w	r11, #0
    1d0a:	f040 80b4 	bne.w	1e76 <tcp_slowtmr+0x282>
    1d0e:	f8d4 b00c 	ldr.w	r11, [r4, #12]
    1d12:	4621      	mov	r1, r4
    1d14:	2001      	movs	r0, #1
    1d16:	f7ff fb97 	bl	1448 <memp_free>
    1d1a:	4634      	mov	r4, r6
    1d1c:	f1bb 0f00 	cmp.w	r11, #0
    1d20:	d1d2      	bne.n	1cc8 <tcp_slowtmr+0xd4>
    1d22:	f8df 818c 	ldr.w	r8, [pc, #396]	; 1eb0 <tcp_slowtmr+0x2bc>
    1d26:	2600      	movs	r6, #0
    1d28:	f8d8 4000 	ldr.w	r4, [r8]
    1d2c:	b1ac      	cbz	r4, 1d5a <tcp_slowtmr+0x166>
    1d2e:	682a      	ldr	r2, [r5, #0]
    1d30:	6b23      	ldr	r3, [r4, #48]	; 0x30
    1d32:	4620      	mov	r0, r4
    1d34:	1ad3      	subs	r3, r2, r3
    1d36:	2bf0      	cmp	r3, #240	; 0xf0
    1d38:	f240 8097 	bls.w	1e6a <tcp_slowtmr+0x276>
    1d3c:	f7ff ff32 	bl	1ba4 <tcp_pcb_purge>
    1d40:	2e00      	cmp	r6, #0
    1d42:	f000 80a6 	beq.w	1e92 <tcp_slowtmr+0x29e>
    1d46:	68e3      	ldr	r3, [r4, #12]
    1d48:	60f3      	str	r3, [r6, #12]
    1d4a:	68e7      	ldr	r7, [r4, #12]
    1d4c:	4621      	mov	r1, r4
    1d4e:	2001      	movs	r0, #1
    1d50:	463c      	mov	r4, r7
    1d52:	f7ff fb79 	bl	1448 <memp_free>
    1d56:	2c00      	cmp	r4, #0
    1d58:	d1e9      	bne.n	1d2e <tcp_slowtmr+0x13a>
    1d5a:	b005      	add	sp, #20
    1d5c:	e8bd 8ff0 	ldmia.w	sp!, {r4, r5, r6, r7, r8, r9, r10, r11, pc}
    1d60:	8ee2      	ldrh	r2, [r4, #54]	; 0x36
    1d62:	0410      	lsls	r0, r2, #16
    1d64:	bf5c      	itt	pl
    1d66:	3201      	addpl	r2, #1
    1d68:	86e2      	strhpl	r2, [r4, #54]	; 0x36
    1d6a:	6fa2      	ldr	r2, [r4, #120]	; 0x78
    1d6c:	2a00      	cmp	r2, #0
    1d6e:	f43f af7b 	beq.w	1c68 <tcp_slowtmr+0x74>
    1d72:	f9b4 0036 	ldrsh.w	r0, [r4, #54]	; 0x36
    1d76:	f9b4 2048 	ldrsh.w	r2, [r4, #72]	; 0x48
    1d7a:	4290      	cmp	r0, r2
    1d7c:	db33      	blt.n	1de6 <tcp_slowtmr+0x1f2>
    1d7e:	2b02      	cmp	r3, #2
    1d80:	d00a      	beq.n	1d98 <tcp_slowtmr+0x1a4>
    1d82:	4f47      	ldr	r7, [pc, #284]	; (1ea0 <tcp_slowtmr+0x2ac>)
    1d84:	f9b4 0044 	ldrsh.w	r0, [r4, #68]	; 0x44
    1d88:	f9b4 3046 	ldrsh.w	r3, [r4, #70]	; 0x46
    1d8c:	5c7a      	ldrb	r2, [r7, r1]
    1d8e:	eb03 03e0 	add.w	r3, r3, r0, asr #3
    1d92:	4093      	lsls	r3, r2
    1d94:	f8a4 3048 	strh.w	r3, [r4, #72]	; 0x48
    1d98:	f8b4 1052 	ldrh.w	r1, [r4, #82]	; 0x52
    1d9c:	f8b4 205c 	ldrh.w	r2, [r4, #92]	; 0x5c
    1da0:	8f23      	ldrh	r3, [r4, #56]	; 0x38
    1da2:	4291      	cmp	r1, r2
    1da4:	bf38      	it	cc
    1da6:	460a      	movcc	r2, r1
    1da8:	0852      	lsrs	r2, r2, #1
    1daa:	0059      	lsls	r1, r3, #1
    1dac:	428a      	cmp	r2, r1
    1dae:	f04f 0000 	mov.w	r0, #0
    1db2:	f8a4 2054 	strh.w	r2, [r4, #84]	; 0x54
    1db6:	86e0      	strh	r0, [r4, #54]	; 0x36
    1db8:	bfb8      	it	lt
    1dba:	f8a4 1054 	strhlt.w	r1, [r4, #84]	; 0x54
    1dbe:	f8a4 3052 	strh.w	r3, [r4, #82]	; 0x52
    1dc2:	4620      	mov	r0, r4
    1dc4:	f000 ffce 	bl	2d64 <tcp_rexmit_rto>
    1dc8:	7c23      	ldrb	r3, [r4, #16]
    1dca:	2200      	movs	r2, #0
    1dcc:	2b06      	cmp	r3, #6
    1dce:	f47f af4e 	bne.w	1c6e <tcp_slowtmr+0x7a>
    1dd2:	6829      	ldr	r1, [r5, #0]
    1dd4:	6b23      	ldr	r3, [r4, #48]	; 0x30
    1dd6:	1acb      	subs	r3, r1, r3
    1dd8:	2b28      	cmp	r3, #40	; 0x28
    1dda:	d901      	bls.n	1de0 <tcp_slowtmr+0x1ec>
    1ddc:	3201      	adds	r2, #1
    1dde:	b2d2      	uxtb	r2, r2
    1de0:	f04f 0b00 	mov.w	r11, #0
    1de4:	e753      	b.n	1c8e <tcp_slowtmr+0x9a>
    1de6:	2200      	movs	r2, #0
    1de8:	e73e      	b.n	1c68 <tcp_slowtmr+0x74>
    1dea:	6829      	ldr	r1, [r5, #0]
    1dec:	6b23      	ldr	r3, [r4, #48]	; 0x30
    1dee:	1acb      	subs	r3, r1, r3
    1df0:	2b28      	cmp	r3, #40	; 0x28
    1df2:	f67f af4c 	bls.w	1c8e <tcp_slowtmr+0x9a>
    1df6:	3201      	adds	r2, #1
    1df8:	b2d2      	uxtb	r2, r2
    1dfa:	e748      	b.n	1c8e <tcp_slowtmr+0x9a>
    1dfc:	2201      	movs	r2, #1
    1dfe:	e733      	b.n	1c68 <tcp_slowtmr+0x74>
    1e00:	f8d4 709c 	ldr.w	r7, [r4, #156]	; 0x9c
    1e04:	f8d4 1094 	ldr.w	r1, [r4, #148]	; 0x94
    1e08:	f8d4 c098 	ldr.w	r12, [r4, #152]	; 0x98
    1e0c:	f8df a094 	ldr.w	r10, [pc, #148]	; 1ea4 <tcp_slowtmr+0x2b0>
    1e10:	fb07 100c 	mla	r0, r7, r12, r1
    1e14:	fbaa ab00 	umull	r10, r11, r10, r0
    1e18:	6b27      	ldr	r7, [r4, #48]	; 0x30
    1e1a:	6828      	ldr	r0, [r5, #0]
    1e1c:	ebc7 0a00 	rsb	r10, r7, r0
    1e20:	ebba 1f5b 	cmp.w	r10, r11, lsr #5
    1e24:	d904      	bls.n	1e30 <tcp_slowtmr+0x23c>
    1e26:	3201      	adds	r2, #1
    1e28:	b2d2      	uxtb	r2, r2
    1e2a:	f04f 0b01 	mov.w	r11, #1
    1e2e:	e729      	b.n	1c84 <tcp_slowtmr+0x90>
    1e30:	f894 b0a5 	ldrb.w	r11, [r4, #165]	; 0xa5
    1e34:	481b      	ldr	r0, [pc, #108]	; (1ea4 <tcp_slowtmr+0x2b0>)
    1e36:	fb0c 110b 	mla	r1, r12, r11, r1
    1e3a:	fba0 0101 	umull	r0, r1, r0, r1
    1e3e:	ebba 1f51 	cmp.w	r10, r1, lsr #5
    1e42:	f67f af1d 	bls.w	1c80 <tcp_slowtmr+0x8c>
    1e46:	4620      	mov	r0, r4
    1e48:	9203      	str	r2, [sp, #12]
    1e4a:	f000 ffef 	bl	2e2c <tcp_keepalive>
    1e4e:	f894 10a5 	ldrb.w	r1, [r4, #165]	; 0xa5
    1e52:	7c23      	ldrb	r3, [r4, #16]
    1e54:	3101      	adds	r1, #1
    1e56:	f884 10a5 	strb.w	r1, [r4, #165]	; 0xa5
    1e5a:	f04f 0b00 	mov.w	r11, #0
    1e5e:	9a03      	ldr	r2, [sp, #12]
    1e60:	e710      	b.n	1c84 <tcp_slowtmr+0x90>
    1e62:	4620      	mov	r0, r4
    1e64:	f000 fdec 	bl	2a40 <tcp_output>
    1e68:	e72b      	b.n	1cc2 <tcp_slowtmr+0xce>
    1e6a:	4626      	mov	r6, r4
    1e6c:	68e4      	ldr	r4, [r4, #12]
    1e6e:	2c00      	cmp	r4, #0
    1e70:	f47f af5d 	bne.w	1d2e <tcp_slowtmr+0x13a>
    1e74:	e771      	b.n	1d5a <tcp_slowtmr+0x166>
    1e76:	8ba3      	ldrh	r3, [r4, #28]
    1e78:	6da0      	ldr	r0, [r4, #88]	; 0x58
    1e7a:	6a61      	ldr	r1, [r4, #36]	; 0x24
    1e7c:	9300      	str	r3, [sp, #0]
    1e7e:	8be3      	ldrh	r3, [r4, #30]
    1e80:	4622      	mov	r2, r4
    1e82:	9301      	str	r3, [sp, #4]
    1e84:	1d23      	adds	r3, r4, #4
    1e86:	f000 ff23 	bl	2cd0 <tcp_rst>
    1e8a:	e740      	b.n	1d0e <tcp_slowtmr+0x11a>
    1e8c:	f8c9 3000 	str.w	r3, [r9]
    1e90:	e732      	b.n	1cf8 <tcp_slowtmr+0x104>
    1e92:	68e7      	ldr	r7, [r4, #12]
    1e94:	f8c8 7000 	str.w	r7, [r8]
    1e98:	e758      	b.n	1d4c <tcp_slowtmr+0x158>
    1e9a:	bf00      	nop
    1e9c:	10000fc0 	.word	0x10000fc0
    1ea0:	0000da10 	.word	0x0000da10
    1ea4:	10624dd3 	.word	0x10624dd3
    1ea8:	10000fbc 	.word	0x10000fbc
    1eac:	0000da20 	.word	0x0000da20
    1eb0:	10000fd0 	.word	0x10000fd0

00001eb4 <tcp_pcb_remove>:
    1eb4:	6802      	ldr	r2, [r0, #0]
    1eb6:	b510      	push	{r4, lr}
    1eb8:	428a      	cmp	r2, r1
    1eba:	460c      	mov	r4, r1
    1ebc:	d02c      	beq.n	1f18 <tcp_pcb_remove+0x64>
    1ebe:	4919      	ldr	r1, [pc, #100]	; (1f24 <tcp_pcb_remove+0x70>)
    1ec0:	600a      	str	r2, [r1, #0]
    1ec2:	b152      	cbz	r2, 1eda <tcp_pcb_remove+0x26>
    1ec4:	68d3      	ldr	r3, [r2, #12]
    1ec6:	42a3      	cmp	r3, r4
    1ec8:	d029      	beq.n	1f1e <tcp_pcb_remove+0x6a>
    1eca:	b12b      	cbz	r3, 1ed8 <tcp_pcb_remove+0x24>
    1ecc:	68da      	ldr	r2, [r3, #12]
    1ece:	42a2      	cmp	r2, r4
    1ed0:	d01e      	beq.n	1f10 <tcp_pcb_remove+0x5c>
    1ed2:	4613      	mov	r3, r2
    1ed4:	2b00      	cmp	r3, #0
    1ed6:	d1f9      	bne.n	1ecc <tcp_pcb_remove+0x18>
    1ed8:	600b      	str	r3, [r1, #0]
    1eda:	2300      	movs	r3, #0
    1edc:	60e3      	str	r3, [r4, #12]
    1ede:	4620      	mov	r0, r4
    1ee0:	f7ff fe60 	bl	1ba4 <tcp_pcb_purge>
    1ee4:	7c23      	ldrb	r3, [r4, #16]
    1ee6:	2b0a      	cmp	r3, #10
    1ee8:	d005      	beq.n	1ef6 <tcp_pcb_remove+0x42>
    1eea:	2b01      	cmp	r3, #1
    1eec:	d003      	beq.n	1ef6 <tcp_pcb_remove+0x42>
    1eee:	f894 3020 	ldrb.w	r3, [r4, #32]
    1ef2:	07da      	lsls	r2, r3, #31
    1ef4:	d402      	bmi.n	1efc <tcp_pcb_remove+0x48>
    1ef6:	2300      	movs	r3, #0
    1ef8:	7423      	strb	r3, [r4, #16]
    1efa:	bd10      	pop	{r4, pc}
    1efc:	f043 0302 	orr.w	r3, r3, #2
    1f00:	f884 3020 	strb.w	r3, [r4, #32]
    1f04:	4620      	mov	r0, r4
    1f06:	f000 fd9b 	bl	2a40 <tcp_output>
    1f0a:	2300      	movs	r3, #0
    1f0c:	7423      	strb	r3, [r4, #16]
    1f0e:	bd10      	pop	{r4, pc}
    1f10:	600b      	str	r3, [r1, #0]
    1f12:	68e1      	ldr	r1, [r4, #12]
    1f14:	60d9      	str	r1, [r3, #12]
    1f16:	e7e0      	b.n	1eda <tcp_pcb_remove+0x26>
    1f18:	68cb      	ldr	r3, [r1, #12]
    1f1a:	6003      	str	r3, [r0, #0]
    1f1c:	e7dd      	b.n	1eda <tcp_pcb_remove+0x26>
    1f1e:	4613      	mov	r3, r2
    1f20:	e7f7      	b.n	1f12 <tcp_pcb_remove+0x5e>
    1f22:	bf00      	nop
    1f24:	10000fc8 	.word	0x10000fc8

00001f28 <tcp_close_shutdown>:
    1f28:	b510      	push	{r4, lr}
    1f2a:	7c03      	ldrb	r3, [r0, #16]
    1f2c:	b082      	sub	sp, #8
    1f2e:	4604      	mov	r4, r0
    1f30:	2900      	cmp	r1, #0
    1f32:	d034      	beq.n	1f9e <tcp_close_shutdown+0x76>
    1f34:	2b01      	cmp	r3, #1
    1f36:	d053      	beq.n	1fe0 <tcp_close_shutdown+0xb8>
    1f38:	6fc2      	ldr	r2, [r0, #124]	; 0x7c
    1f3a:	2a00      	cmp	r2, #0
    1f3c:	d02a      	beq.n	1f94 <tcp_close_shutdown+0x6c>
    1f3e:	8ba2      	ldrh	r2, [r4, #28]
    1f40:	8be3      	ldrh	r3, [r4, #30]
    1f42:	6da0      	ldr	r0, [r4, #88]	; 0x58
    1f44:	6a61      	ldr	r1, [r4, #36]	; 0x24
    1f46:	e88d 000c 	stmia.w	sp, {r2, r3}
    1f4a:	4622      	mov	r2, r4
    1f4c:	1d23      	adds	r3, r4, #4
    1f4e:	f000 febf 	bl	2cd0 <tcp_rst>
    1f52:	4620      	mov	r0, r4
    1f54:	f7ff fe26 	bl	1ba4 <tcp_pcb_purge>
    1f58:	4b3e      	ldr	r3, [pc, #248]	; (2054 <tcp_close_shutdown+0x12c>)
    1f5a:	681a      	ldr	r2, [r3, #0]
    1f5c:	42a2      	cmp	r2, r4
    1f5e:	d06f      	beq.n	2040 <tcp_close_shutdown+0x118>
    1f60:	493d      	ldr	r1, [pc, #244]	; (2058 <tcp_close_shutdown+0x130>)
    1f62:	600a      	str	r2, [r1, #0]
    1f64:	b152      	cbz	r2, 1f7c <tcp_close_shutdown+0x54>
    1f66:	68d3      	ldr	r3, [r2, #12]
    1f68:	42a3      	cmp	r3, r4
    1f6a:	d061      	beq.n	2030 <tcp_close_shutdown+0x108>
    1f6c:	b12b      	cbz	r3, 1f7a <tcp_close_shutdown+0x52>
    1f6e:	68da      	ldr	r2, [r3, #12]
    1f70:	42a2      	cmp	r2, r4
    1f72:	d059      	beq.n	2028 <tcp_close_shutdown+0x100>
    1f74:	4613      	mov	r3, r2
    1f76:	2b00      	cmp	r3, #0
    1f78:	d1f9      	bne.n	1f6e <tcp_close_shutdown+0x46>
    1f7a:	600b      	str	r3, [r1, #0]
    1f7c:	4b37      	ldr	r3, [pc, #220]	; (205c <tcp_close_shutdown+0x134>)
    1f7e:	210a      	movs	r1, #10
    1f80:	681a      	ldr	r2, [r3, #0]
    1f82:	7421      	strb	r1, [r4, #16]
    1f84:	60e2      	str	r2, [r4, #12]
    1f86:	601c      	str	r4, [r3, #0]
    1f88:	f001 f808 	bl	2f9c <tcp_timer_needed>
    1f8c:	2000      	movs	r0, #0
    1f8e:	b240      	sxtb	r0, r0
    1f90:	b002      	add	sp, #8
    1f92:	bd10      	pop	{r4, pc}
    1f94:	8d01      	ldrh	r1, [r0, #40]	; 0x28
    1f96:	f640 3268 	movw	r2, #2920	; 0xb68
    1f9a:	4291      	cmp	r1, r2
    1f9c:	d1cf      	bne.n	1f3e <tcp_close_shutdown+0x16>
    1f9e:	2b07      	cmp	r3, #7
    1fa0:	d80d      	bhi.n	1fbe <tcp_close_shutdown+0x96>
    1fa2:	e8df f003 	tbb	[pc, r3]
    1fa6:	1d2e      	.short	0x1d2e
    1fa8:	0c101004 	.word	0x0c101004
    1fac:	260c      	.short	0x260c
    1fae:	4829      	ldr	r0, [pc, #164]	; (2054 <tcp_close_shutdown+0x12c>)
    1fb0:	4621      	mov	r1, r4
    1fb2:	f7ff ff7f 	bl	1eb4 <tcp_pcb_remove>
    1fb6:	4621      	mov	r1, r4
    1fb8:	2001      	movs	r0, #1
    1fba:	f7ff fa45 	bl	1448 <memp_free>
    1fbe:	2000      	movs	r0, #0
    1fc0:	b240      	sxtb	r0, r0
    1fc2:	b002      	add	sp, #8
    1fc4:	bd10      	pop	{r4, pc}
    1fc6:	4620      	mov	r0, r4
    1fc8:	f000 fcf6 	bl	29b8 <tcp_send_fin>
    1fcc:	2800      	cmp	r0, #0
    1fce:	d1f7      	bne.n	1fc0 <tcp_close_shutdown+0x98>
    1fd0:	2305      	movs	r3, #5
    1fd2:	7423      	strb	r3, [r4, #16]
    1fd4:	2c00      	cmp	r4, #0
    1fd6:	d0f2      	beq.n	1fbe <tcp_close_shutdown+0x96>
    1fd8:	4620      	mov	r0, r4
    1fda:	f000 fd31 	bl	2a40 <tcp_output>
    1fde:	e7ee      	b.n	1fbe <tcp_close_shutdown+0x96>
    1fe0:	4621      	mov	r1, r4
    1fe2:	481f      	ldr	r0, [pc, #124]	; (2060 <tcp_close_shutdown+0x138>)
    1fe4:	f7ff ff66 	bl	1eb4 <tcp_pcb_remove>
    1fe8:	4621      	mov	r1, r4
    1fea:	2002      	movs	r0, #2
    1fec:	f7ff fa2c 	bl	1448 <memp_free>
    1ff0:	e7e5      	b.n	1fbe <tcp_close_shutdown+0x96>
    1ff2:	4620      	mov	r0, r4
    1ff4:	f000 fce0 	bl	29b8 <tcp_send_fin>
    1ff8:	2800      	cmp	r0, #0
    1ffa:	d1e1      	bne.n	1fc0 <tcp_close_shutdown+0x98>
    1ffc:	2309      	movs	r3, #9
    1ffe:	7423      	strb	r3, [r4, #16]
    2000:	e7e8      	b.n	1fd4 <tcp_close_shutdown+0xac>
    2002:	8ba3      	ldrh	r3, [r4, #28]
    2004:	2b00      	cmp	r3, #0
    2006:	d0d6      	beq.n	1fb6 <tcp_close_shutdown+0x8e>
    2008:	4b16      	ldr	r3, [pc, #88]	; (2064 <tcp_close_shutdown+0x13c>)
    200a:	681a      	ldr	r2, [r3, #0]
    200c:	42a2      	cmp	r2, r4
    200e:	d01e      	beq.n	204e <tcp_close_shutdown+0x126>
    2010:	4911      	ldr	r1, [pc, #68]	; (2058 <tcp_close_shutdown+0x130>)
    2012:	600a      	str	r2, [r1, #0]
    2014:	b18a      	cbz	r2, 203a <tcp_close_shutdown+0x112>
    2016:	68d3      	ldr	r3, [r2, #12]
    2018:	42a3      	cmp	r3, r4
    201a:	d00b      	beq.n	2034 <tcp_close_shutdown+0x10c>
    201c:	b19b      	cbz	r3, 2046 <tcp_close_shutdown+0x11e>
    201e:	68da      	ldr	r2, [r3, #12]
    2020:	42a2      	cmp	r2, r4
    2022:	d012      	beq.n	204a <tcp_close_shutdown+0x122>
    2024:	4613      	mov	r3, r2
    2026:	e7f9      	b.n	201c <tcp_close_shutdown+0xf4>
    2028:	600b      	str	r3, [r1, #0]
    202a:	68e1      	ldr	r1, [r4, #12]
    202c:	60d9      	str	r1, [r3, #12]
    202e:	e7a5      	b.n	1f7c <tcp_close_shutdown+0x54>
    2030:	4613      	mov	r3, r2
    2032:	e7fa      	b.n	202a <tcp_close_shutdown+0x102>
    2034:	4613      	mov	r3, r2
    2036:	68e1      	ldr	r1, [r4, #12]
    2038:	60d9      	str	r1, [r3, #12]
    203a:	2300      	movs	r3, #0
    203c:	60e3      	str	r3, [r4, #12]
    203e:	e7ba      	b.n	1fb6 <tcp_close_shutdown+0x8e>
    2040:	68e2      	ldr	r2, [r4, #12]
    2042:	601a      	str	r2, [r3, #0]
    2044:	e79a      	b.n	1f7c <tcp_close_shutdown+0x54>
    2046:	600b      	str	r3, [r1, #0]
    2048:	e7f7      	b.n	203a <tcp_close_shutdown+0x112>
    204a:	600b      	str	r3, [r1, #0]
    204c:	e7f3      	b.n	2036 <tcp_close_shutdown+0x10e>
    204e:	68e2      	ldr	r2, [r4, #12]
    2050:	601a      	str	r2, [r3, #0]
    2052:	e7f2      	b.n	203a <tcp_close_shutdown+0x112>
    2054:	10000fbc 	.word	0x10000fbc
    2058:	10000fc8 	.word	0x10000fc8
    205c:	10000fd0 	.word	0x10000fd0
    2060:	10000fc4 	.word	0x10000fc4
    2064:	10000fcc 	.word	0x10000fcc

00002068 <tcp_close>:
    2068:	7c03      	ldrb	r3, [r0, #16]
    206a:	2b01      	cmp	r3, #1
    206c:	d005      	beq.n	207a <tcp_close+0x12>
    206e:	f890 3020 	ldrb.w	r3, [r0, #32]
    2072:	f043 0310 	orr.w	r3, r3, #16
    2076:	f880 3020 	strb.w	r3, [r0, #32]
    207a:	2101      	movs	r1, #1
    207c:	f7ff bf54 	b.w	1f28 <tcp_close_shutdown>

00002080 <tcp_recv_null>:
    2080:	b510      	push	{r4, lr}
    2082:	4614      	mov	r4, r2
    2084:	b142      	cbz	r2, 2098 <tcp_recv_null+0x18>
    2086:	4608      	mov	r0, r1
    2088:	8911      	ldrh	r1, [r2, #8]
    208a:	f7ff fd3f 	bl	1b0c <tcp_recved>
    208e:	4620      	mov	r0, r4
    2090:	f7ff fb44 	bl	171c <pbuf_free>
    2094:	2000      	movs	r0, #0
    2096:	bd10      	pop	{r4, pc}
    2098:	2b00      	cmp	r3, #0
    209a:	d1fb      	bne.n	2094 <tcp_recv_null+0x14>
    209c:	4608      	mov	r0, r1
    209e:	e8bd 4010 	ldmia.w	sp!, {r4, lr}
    20a2:	f7ff bfe1 	b.w	2068 <tcp_close>
    20a6:	bf00      	nop

000020a8 <tcp_fasttmr>:
    20a8:	4b18      	ldr	r3, [pc, #96]	; (210c <tcp_fasttmr+0x64>)
    20aa:	b570      	push	{r4, r5, r6, lr}
    20ac:	681c      	ldr	r4, [r3, #0]
    20ae:	b30c      	cbz	r4, 20f4 <tcp_fasttmr+0x4c>
    20b0:	6fe2      	ldr	r2, [r4, #124]	; 0x7c
    20b2:	68e5      	ldr	r5, [r4, #12]
    20b4:	b142      	cbz	r2, 20c8 <tcp_fasttmr+0x20>
    20b6:	f8d4 6084 	ldr.w	r6, [r4, #132]	; 0x84
    20ba:	b306      	cbz	r6, 20fe <tcp_fasttmr+0x56>
    20bc:	6960      	ldr	r0, [r4, #20]
    20be:	4621      	mov	r1, r4
    20c0:	2300      	movs	r3, #0
    20c2:	47b0      	blx	r6
    20c4:	b9b8      	cbnz	r0, 20f6 <tcp_fasttmr+0x4e>
    20c6:	67e0      	str	r0, [r4, #124]	; 0x7c
    20c8:	f894 3020 	ldrb.w	r3, [r4, #32]
    20cc:	07da      	lsls	r2, r3, #31
    20ce:	d402      	bmi.n	20d6 <tcp_fasttmr+0x2e>
    20d0:	b185      	cbz	r5, 20f4 <tcp_fasttmr+0x4c>
    20d2:	462c      	mov	r4, r5
    20d4:	e7ec      	b.n	20b0 <tcp_fasttmr+0x8>
    20d6:	f043 0302 	orr.w	r3, r3, #2
    20da:	f884 3020 	strb.w	r3, [r4, #32]
    20de:	4620      	mov	r0, r4
    20e0:	f000 fcae 	bl	2a40 <tcp_output>
    20e4:	f894 3020 	ldrb.w	r3, [r4, #32]
    20e8:	f023 0303 	bic.w	r3, r3, #3
    20ec:	f884 3020 	strb.w	r3, [r4, #32]
    20f0:	2d00      	cmp	r5, #0
    20f2:	d1ee      	bne.n	20d2 <tcp_fasttmr+0x2a>
    20f4:	bd70      	pop	{r4, r5, r6, pc}
    20f6:	b240      	sxtb	r0, r0
    20f8:	300a      	adds	r0, #10
    20fa:	d1e5      	bne.n	20c8 <tcp_fasttmr+0x20>
    20fc:	e7e8      	b.n	20d0 <tcp_fasttmr+0x28>
    20fe:	4630      	mov	r0, r6
    2100:	4633      	mov	r3, r6
    2102:	4621      	mov	r1, r4
    2104:	f7ff ffbc 	bl	2080 <tcp_recv_null>
    2108:	e7dc      	b.n	20c4 <tcp_fasttmr+0x1c>
    210a:	bf00      	nop
    210c:	10000fbc 	.word	0x10000fbc

00002110 <tcp_tmr>:
    2110:	b508      	push	{r3, lr}
    2112:	f7ff ffc9 	bl	20a8 <tcp_fasttmr>
    2116:	4a06      	ldr	r2, [pc, #24]	; (2130 <tcp_tmr+0x20>)
    2118:	7813      	ldrb	r3, [r2, #0]
    211a:	3301      	adds	r3, #1
    211c:	b2db      	uxtb	r3, r3
    211e:	7013      	strb	r3, [r2, #0]
    2120:	07db      	lsls	r3, r3, #31
    2122:	d400      	bmi.n	2126 <tcp_tmr+0x16>
    2124:	bd08      	pop	{r3, pc}
    2126:	e8bd 4008 	ldmia.w	sp!, {r3, lr}
    212a:	f7ff bd63 	b.w	1bf4 <tcp_slowtmr>
    212e:	bf00      	nop
    2130:	1000030d 	.word	0x1000030d

00002134 <tcp_shutdown>:
    2134:	b538      	push	{r3, r4, r5, lr}
    2136:	7c03      	ldrb	r3, [r0, #16]
    2138:	4604      	mov	r4, r0
    213a:	2b01      	cmp	r3, #1
    213c:	4615      	mov	r5, r2
    213e:	d024      	beq.n	218a <tcp_shutdown+0x56>
    2140:	b159      	cbz	r1, 215a <tcp_shutdown+0x26>
    2142:	6fc0      	ldr	r0, [r0, #124]	; 0x7c
    2144:	b118      	cbz	r0, 214e <tcp_shutdown+0x1a>
    2146:	f7ff fae9 	bl	171c <pbuf_free>
    214a:	2300      	movs	r3, #0
    214c:	67e3      	str	r3, [r4, #124]	; 0x7c
    214e:	f894 3020 	ldrb.w	r3, [r4, #32]
    2152:	f043 0310 	orr.w	r3, r3, #16
    2156:	f884 3020 	strb.w	r3, [r4, #32]
    215a:	b155      	cbz	r5, 2172 <tcp_shutdown+0x3e>
    215c:	7c23      	ldrb	r3, [r4, #16]
    215e:	3b03      	subs	r3, #3
    2160:	b2db      	uxtb	r3, r3
    2162:	2b04      	cmp	r3, #4
    2164:	d808      	bhi.n	2178 <tcp_shutdown+0x44>
    2166:	2501      	movs	r5, #1
    2168:	fa05 f303 	lsl.w	r3, r5, r3
    216c:	f013 0513 	ands.w	r5, r3, #19
    2170:	d105      	bne.n	217e <tcp_shutdown+0x4a>
    2172:	4628      	mov	r0, r5
    2174:	b240      	sxtb	r0, r0
    2176:	bd38      	pop	{r3, r4, r5, pc}
    2178:	2000      	movs	r0, #0
    217a:	b240      	sxtb	r0, r0
    217c:	bd38      	pop	{r3, r4, r5, pc}
    217e:	4620      	mov	r0, r4
    2180:	2100      	movs	r1, #0
    2182:	e8bd 4038 	ldmia.w	sp!, {r3, r4, r5, lr}
    2186:	f7ff becf 	b.w	1f28 <tcp_close_shutdown>
    218a:	20f3      	movs	r0, #243	; 0xf3
    218c:	e7f2      	b.n	2174 <tcp_shutdown+0x40>
    218e:	bf00      	nop

00002190 <tcp_abandon>:
    2190:	e92d 4ff0 	stmdb	sp!, {r4, r5, r6, r7, r8, r9, r10, r11, lr}
    2194:	7c03      	ldrb	r3, [r0, #16]
    2196:	b087      	sub	sp, #28
    2198:	2b0a      	cmp	r3, #10
    219a:	4604      	mov	r4, r0
    219c:	460e      	mov	r6, r1
    219e:	d03f      	beq.n	2220 <tcp_abandon+0x90>
    21a0:	e890 000c 	ldmia.w	r0, {r2, r3}
    21a4:	9304      	str	r3, [sp, #16]
    21a6:	6963      	ldr	r3, [r4, #20]
    21a8:	4823      	ldr	r0, [pc, #140]	; (2238 <tcp_abandon+0xa8>)
    21aa:	4621      	mov	r1, r4
    21ac:	9205      	str	r2, [sp, #20]
    21ae:	f8d4 9058 	ldr.w	r9, [r4, #88]	; 0x58
    21b2:	f8d4 8024 	ldr.w	r8, [r4, #36]	; 0x24
    21b6:	f8b4 b01c 	ldrh.w	r11, [r4, #28]
    21ba:	f8b4 a01e 	ldrh.w	r10, [r4, #30]
    21be:	f8d4 5090 	ldr.w	r5, [r4, #144]	; 0x90
    21c2:	9303      	str	r3, [sp, #12]
    21c4:	f7ff fe76 	bl	1eb4 <tcp_pcb_remove>
    21c8:	6fa0      	ldr	r0, [r4, #120]	; 0x78
    21ca:	b908      	cbnz	r0, 21d0 <tcp_abandon+0x40>
    21cc:	e005      	b.n	21da <tcp_abandon+0x4a>
    21ce:	4638      	mov	r0, r7
    21d0:	6807      	ldr	r7, [r0, #0]
    21d2:	f7ff fcb9 	bl	1b48 <tcp_seg_free>
    21d6:	2f00      	cmp	r7, #0
    21d8:	d1f9      	bne.n	21ce <tcp_abandon+0x3e>
    21da:	6f60      	ldr	r0, [r4, #116]	; 0x74
    21dc:	b908      	cbnz	r0, 21e2 <tcp_abandon+0x52>
    21de:	e005      	b.n	21ec <tcp_abandon+0x5c>
    21e0:	4638      	mov	r0, r7
    21e2:	6807      	ldr	r7, [r0, #0]
    21e4:	f7ff fcb0 	bl	1b48 <tcp_seg_free>
    21e8:	2f00      	cmp	r7, #0
    21ea:	d1f9      	bne.n	21e0 <tcp_abandon+0x50>
    21ec:	4621      	mov	r1, r4
    21ee:	2001      	movs	r0, #1
    21f0:	f7ff f92a 	bl	1448 <memp_free>
    21f4:	b11d      	cbz	r5, 21fe <tcp_abandon+0x6e>
    21f6:	9803      	ldr	r0, [sp, #12]
    21f8:	f06f 0109 	mvn.w	r1, #9
    21fc:	47a8      	blx	r5
    21fe:	b916      	cbnz	r6, 2206 <tcp_abandon+0x76>
    2200:	b007      	add	sp, #28
    2202:	e8bd 8ff0 	ldmia.w	sp!, {r4, r5, r6, r7, r8, r9, r10, r11, pc}
    2206:	f8cd b000 	str.w	r11, [sp]
    220a:	f8cd a004 	str.w	r10, [sp, #4]
    220e:	4648      	mov	r0, r9
    2210:	4641      	mov	r1, r8
    2212:	aa05      	add	r2, sp, #20
    2214:	ab04      	add	r3, sp, #16
    2216:	f000 fd5b 	bl	2cd0 <tcp_rst>
    221a:	b007      	add	sp, #28
    221c:	e8bd 8ff0 	ldmia.w	sp!, {r4, r5, r6, r7, r8, r9, r10, r11, pc}
    2220:	4621      	mov	r1, r4
    2222:	4806      	ldr	r0, [pc, #24]	; (223c <tcp_abandon+0xac>)
    2224:	f7ff fe46 	bl	1eb4 <tcp_pcb_remove>
    2228:	4621      	mov	r1, r4
    222a:	2001      	movs	r0, #1
    222c:	f7ff f90c 	bl	1448 <memp_free>
    2230:	b007      	add	sp, #28
    2232:	e8bd 8ff0 	ldmia.w	sp!, {r4, r5, r6, r7, r8, r9, r10, r11, pc}
    2236:	bf00      	nop
    2238:	10000fbc 	.word	0x10000fbc
    223c:	10000fd0 	.word	0x10000fd0

00002240 <tcp_abort>:
    2240:	2101      	movs	r1, #1
    2242:	f7ff bfa5 	b.w	2190 <tcp_abandon>
    2246:	bf00      	nop

00002248 <tcp_alloc>:
    2248:	e92d 4ff8 	stmdb	sp!, {r3, r4, r5, r6, r7, r8, r9, r10, r11, lr}
    224c:	4607      	mov	r7, r0
    224e:	2001      	movs	r0, #1
    2250:	f7ff f8e4 	bl	141c <memp_malloc>
    2254:	4604      	mov	r4, r0
    2256:	2800      	cmp	r0, #0
    2258:	d045      	beq.n	22e6 <tcp_alloc+0x9e>
    225a:	2100      	movs	r1, #0
    225c:	22a8      	movs	r2, #168	; 0xa8
    225e:	4620      	mov	r0, r4
    2260:	f009 fede 	bl	c020 <memset>
    2264:	4e3d      	ldr	r6, [pc, #244]	; (235c <tcp_alloc+0x114>)
    2266:	4b3e      	ldr	r3, [pc, #248]	; (2360 <tcp_alloc+0x118>)
    2268:	6832      	ldr	r2, [r6, #0]
    226a:	6818      	ldr	r0, [r3, #0]
    226c:	f8df b100 	ldr.w	r11, [pc, #256]	; 2370 <tcp_alloc+0x128>
    2270:	4402      	add	r2, r0
    2272:	f8df a100 	ldr.w	r10, [pc, #256]	; 2374 <tcp_alloc+0x12c>
    2276:	6032      	str	r2, [r6, #0]
    2278:	6662      	str	r2, [r4, #100]	; 0x64
    227a:	65a2      	str	r2, [r4, #88]	; 0x58
    227c:	64e2      	str	r2, [r4, #76]	; 0x4c
    227e:	66a2      	str	r2, [r4, #104]	; 0x68
    2280:	4a38      	ldr	r2, [pc, #224]	; (2364 <tcp_alloc+0x11c>)
    2282:	2300      	movs	r3, #0
    2284:	f640 3168 	movw	r1, #2920	; 0xb68
    2288:	2506      	movs	r5, #6
    228a:	f04f 08ff 	mov.w	r8, #255	; 0xff
    228e:	f44f 7c06 	mov.w	r12, #536	; 0x218
    2292:	f64f 79ff 	movw	r9, #65535	; 0xffff
    2296:	7467      	strb	r7, [r4, #17]
    2298:	6320      	str	r0, [r4, #48]	; 0x30
    229a:	2701      	movs	r7, #1
    229c:	2009      	movs	r0, #9
    229e:	f8c4 b084 	str.w	r11, [r4, #132]	; 0x84
    22a2:	f8c4 a094 	str.w	r10, [r4, #148]	; 0x94
    22a6:	f8c4 2098 	str.w	r2, [r4, #152]	; 0x98
    22aa:	f8a4 106e 	strh.w	r1, [r4, #110]	; 0x6e
    22ae:	8521      	strh	r1, [r4, #40]	; 0x28
    22b0:	8561      	strh	r1, [r4, #42]	; 0x2a
    22b2:	f8a4 3070 	strh.w	r3, [r4, #112]	; 0x70
    22b6:	7263      	strb	r3, [r4, #9]
    22b8:	f8a4 3044 	strh.w	r3, [r4, #68]	; 0x44
    22bc:	f884 3034 	strb.w	r3, [r4, #52]	; 0x34
    22c0:	f884 30a5 	strb.w	r3, [r4, #165]	; 0xa5
    22c4:	f884 800a 	strb.w	r8, [r4, #10]
    22c8:	f8a4 c038 	strh.w	r12, [r4, #56]	; 0x38
    22cc:	f8a4 5048 	strh.w	r5, [r4, #72]	; 0x48
    22d0:	f8a4 5046 	strh.w	r5, [r4, #70]	; 0x46
    22d4:	f8a4 9036 	strh.w	r9, [r4, #54]	; 0x36
    22d8:	f8a4 7052 	strh.w	r7, [r4, #82]	; 0x52
    22dc:	f8c4 009c 	str.w	r0, [r4, #156]	; 0x9c
    22e0:	4620      	mov	r0, r4
    22e2:	e8bd 8ff8 	ldmia.w	sp!, {r3, r4, r5, r6, r7, r8, r9, r10, r11, pc}
    22e6:	4b20      	ldr	r3, [pc, #128]	; (2368 <tcp_alloc+0x120>)
    22e8:	681b      	ldr	r3, [r3, #0]
    22ea:	b18b      	cbz	r3, 2310 <tcp_alloc+0xc8>
    22ec:	4a1c      	ldr	r2, [pc, #112]	; (2360 <tcp_alloc+0x118>)
    22ee:	6b19      	ldr	r1, [r3, #48]	; 0x30
    22f0:	6814      	ldr	r4, [r2, #0]
    22f2:	4618      	mov	r0, r3
    22f4:	1a61      	subs	r1, r4, r1
    22f6:	e005      	b.n	2304 <tcp_alloc+0xbc>
    22f8:	6b1a      	ldr	r2, [r3, #48]	; 0x30
    22fa:	1aa2      	subs	r2, r4, r2
    22fc:	428a      	cmp	r2, r1
    22fe:	bf24      	itt	cs
    2300:	4611      	movcs	r1, r2
    2302:	4618      	movcs	r0, r3
    2304:	68db      	ldr	r3, [r3, #12]
    2306:	2b00      	cmp	r3, #0
    2308:	d1f6      	bne.n	22f8 <tcp_alloc+0xb0>
    230a:	2101      	movs	r1, #1
    230c:	f7ff ff40 	bl	2190 <tcp_abandon>
    2310:	2001      	movs	r0, #1
    2312:	f7ff f883 	bl	141c <memp_malloc>
    2316:	4604      	mov	r4, r0
    2318:	2800      	cmp	r0, #0
    231a:	d19e      	bne.n	225a <tcp_alloc+0x12>
    231c:	4b13      	ldr	r3, [pc, #76]	; (236c <tcp_alloc+0x124>)
    231e:	681b      	ldr	r3, [r3, #0]
    2320:	b1ab      	cbz	r3, 234e <tcp_alloc+0x106>
    2322:	4a0f      	ldr	r2, [pc, #60]	; (2360 <tcp_alloc+0x118>)
    2324:	217f      	movs	r1, #127	; 0x7f
    2326:	6816      	ldr	r6, [r2, #0]
    2328:	7c5a      	ldrb	r2, [r3, #17]
    232a:	4297      	cmp	r7, r2
    232c:	d308      	bcc.n	2340 <tcp_alloc+0xf8>
    232e:	428a      	cmp	r2, r1
    2330:	d806      	bhi.n	2340 <tcp_alloc+0xf8>
    2332:	6b1d      	ldr	r5, [r3, #48]	; 0x30
    2334:	1b75      	subs	r5, r6, r5
    2336:	42a5      	cmp	r5, r4
    2338:	d302      	bcc.n	2340 <tcp_alloc+0xf8>
    233a:	4611      	mov	r1, r2
    233c:	462c      	mov	r4, r5
    233e:	4618      	mov	r0, r3
    2340:	68db      	ldr	r3, [r3, #12]
    2342:	2b00      	cmp	r3, #0
    2344:	d1f0      	bne.n	2328 <tcp_alloc+0xe0>
    2346:	b110      	cbz	r0, 234e <tcp_alloc+0x106>
    2348:	2101      	movs	r1, #1
    234a:	f7ff ff21 	bl	2190 <tcp_abandon>
    234e:	2001      	movs	r0, #1
    2350:	f7ff f864 	bl	141c <memp_malloc>
    2354:	4604      	mov	r4, r0
    2356:	2800      	cmp	r0, #0
    2358:	d0c2      	beq.n	22e0 <tcp_alloc+0x98>
    235a:	e77e      	b.n	225a <tcp_alloc+0x12>
    235c:	100000cc 	.word	0x100000cc
    2360:	10000fc0 	.word	0x10000fc0
    2364:	000124f8 	.word	0x000124f8
    2368:	10000fd0 	.word	0x10000fd0
    236c:	10000fbc 	.word	0x10000fbc
    2370:	00002081 	.word	0x00002081
    2374:	006ddd00 	.word	0x006ddd00

00002378 <tcp_new>:
    2378:	2040      	movs	r0, #64	; 0x40
    237a:	f7ff bf65 	b.w	2248 <tcp_alloc>
    237e:	bf00      	nop

00002380 <tcp_eff_send_mss>:
    2380:	b510      	push	{r4, lr}
    2382:	4604      	mov	r4, r0
    2384:	4608      	mov	r0, r1
    2386:	f001 f969 	bl	365c <ip_route>
    238a:	b130      	cbz	r0, 239a <tcp_eff_send_mss+0x1a>
    238c:	8e03      	ldrh	r3, [r0, #48]	; 0x30
    238e:	b123      	cbz	r3, 239a <tcp_eff_send_mss+0x1a>
    2390:	3b28      	subs	r3, #40	; 0x28
    2392:	b29b      	uxth	r3, r3
    2394:	429c      	cmp	r4, r3
    2396:	bf28      	it	cs
    2398:	461c      	movcs	r4, r3
    239a:	4620      	mov	r0, r4
    239c:	bd10      	pop	{r4, pc}
    239e:	bf00      	nop

000023a0 <tcp_connect>:
    23a0:	e92d 43f8 	stmdb	sp!, {r3, r4, r5, r6, r7, r8, r9, lr}
    23a4:	4604      	mov	r4, r0
    23a6:	7c00      	ldrb	r0, [r0, #16]
    23a8:	460d      	mov	r5, r1
    23aa:	4699      	mov	r9, r3
    23ac:	2800      	cmp	r0, #0
    23ae:	d170      	bne.n	2492 <tcp_connect+0xf2>
    23b0:	2900      	cmp	r1, #0
    23b2:	d052      	beq.n	245a <tcp_connect+0xba>
    23b4:	680b      	ldr	r3, [r1, #0]
    23b6:	83e2      	strh	r2, [r4, #30]
    23b8:	6063      	str	r3, [r4, #4]
    23ba:	b10c      	cbz	r4, 23c0 <tcp_connect+0x20>
    23bc:	6823      	ldr	r3, [r4, #0]
    23be:	b933      	cbnz	r3, 23ce <tcp_connect+0x2e>
    23c0:	1d20      	adds	r0, r4, #4
    23c2:	f001 f94b 	bl	365c <ip_route>
    23c6:	2800      	cmp	r0, #0
    23c8:	d068      	beq.n	249c <tcp_connect+0xfc>
    23ca:	6843      	ldr	r3, [r0, #4]
    23cc:	6023      	str	r3, [r4, #0]
    23ce:	f8b4 801c 	ldrh.w	r8, [r4, #28]
    23d2:	f1b8 0f00 	cmp.w	r8, #0
    23d6:	d054      	beq.n	2482 <tcp_connect+0xe2>
    23d8:	4b31      	ldr	r3, [pc, #196]	; (24a0 <tcp_connect+0x100>)
    23da:	4f32      	ldr	r7, [pc, #200]	; (24a4 <tcp_connect+0x104>)
    23dc:	6819      	ldr	r1, [r3, #0]
    23de:	683a      	ldr	r2, [r7, #0]
    23e0:	2300      	movs	r3, #0
    23e2:	440a      	add	r2, r1
    23e4:	f102 3eff 	add.w	lr, r2, #4294967295	; 0xffffffff
    23e8:	f640 3668 	movw	r6, #2920	; 0xb68
    23ec:	f44f 7006 	mov.w	r0, #536	; 0x218
    23f0:	4629      	mov	r1, r5
    23f2:	65a2      	str	r2, [r4, #88]	; 0x58
    23f4:	6263      	str	r3, [r4, #36]	; 0x24
    23f6:	62e3      	str	r3, [r4, #44]	; 0x2c
    23f8:	f8c4 e04c 	str.w	lr, [r4, #76]	; 0x4c
    23fc:	f8c4 e068 	str.w	lr, [r4, #104]	; 0x68
    2400:	8526      	strh	r6, [r4, #40]	; 0x28
    2402:	8566      	strh	r6, [r4, #42]	; 0x2a
    2404:	f8a4 605c 	strh.w	r6, [r4, #92]	; 0x5c
    2408:	8720      	strh	r0, [r4, #56]	; 0x38
    240a:	603a      	str	r2, [r7, #0]
    240c:	f7ff ffb8 	bl	2380 <tcp_eff_send_mss>
    2410:	eb00 0280 	add.w	r2, r0, r0, lsl #2
    2414:	0052      	lsls	r2, r2, #1
    2416:	2301      	movs	r3, #1
    2418:	8720      	strh	r0, [r4, #56]	; 0x38
    241a:	f8a4 2054 	strh.w	r2, [r4, #84]	; 0x54
    241e:	f8c4 9088 	str.w	r9, [r4, #136]	; 0x88
    2422:	f8a4 3052 	strh.w	r3, [r4, #82]	; 0x52
    2426:	4620      	mov	r0, r4
    2428:	2102      	movs	r1, #2
    242a:	f000 fa6b 	bl	2904 <tcp_enqueue_flags>
    242e:	b9a8      	cbnz	r0, 245c <tcp_connect+0xbc>
    2430:	2302      	movs	r3, #2
    2432:	7423      	strb	r3, [r4, #16]
    2434:	f1b8 0f00 	cmp.w	r8, #0
    2438:	d016      	beq.n	2468 <tcp_connect+0xc8>
    243a:	4b1b      	ldr	r3, [pc, #108]	; (24a8 <tcp_connect+0x108>)
    243c:	681a      	ldr	r2, [r3, #0]
    243e:	42a2      	cmp	r2, r4
    2440:	d029      	beq.n	2496 <tcp_connect+0xf6>
    2442:	491a      	ldr	r1, [pc, #104]	; (24ac <tcp_connect+0x10c>)
    2444:	600a      	str	r2, [r1, #0]
    2446:	b17a      	cbz	r2, 2468 <tcp_connect+0xc8>
    2448:	68d3      	ldr	r3, [r2, #12]
    244a:	42a3      	cmp	r3, r4
    244c:	d01f      	beq.n	248e <tcp_connect+0xee>
    244e:	b1e3      	cbz	r3, 248a <tcp_connect+0xea>
    2450:	68da      	ldr	r2, [r3, #12]
    2452:	42a2      	cmp	r2, r4
    2454:	d005      	beq.n	2462 <tcp_connect+0xc2>
    2456:	4613      	mov	r3, r2
    2458:	e7f9      	b.n	244e <tcp_connect+0xae>
    245a:	20fa      	movs	r0, #250	; 0xfa
    245c:	b240      	sxtb	r0, r0
    245e:	e8bd 83f8 	ldmia.w	sp!, {r3, r4, r5, r6, r7, r8, r9, pc}
    2462:	600b      	str	r3, [r1, #0]
    2464:	68e1      	ldr	r1, [r4, #12]
    2466:	60d9      	str	r1, [r3, #12]
    2468:	4b11      	ldr	r3, [pc, #68]	; (24b0 <tcp_connect+0x110>)
    246a:	681a      	ldr	r2, [r3, #0]
    246c:	601c      	str	r4, [r3, #0]
    246e:	60e2      	str	r2, [r4, #12]
    2470:	f000 fd94 	bl	2f9c <tcp_timer_needed>
    2474:	4620      	mov	r0, r4
    2476:	f000 fae3 	bl	2a40 <tcp_output>
    247a:	2000      	movs	r0, #0
    247c:	b240      	sxtb	r0, r0
    247e:	e8bd 83f8 	ldmia.w	sp!, {r3, r4, r5, r6, r7, r8, r9, pc}
    2482:	f7ff faff 	bl	1a84 <tcp_new_port>
    2486:	83a0      	strh	r0, [r4, #28]
    2488:	e7a6      	b.n	23d8 <tcp_connect+0x38>
    248a:	600b      	str	r3, [r1, #0]
    248c:	e7ec      	b.n	2468 <tcp_connect+0xc8>
    248e:	4613      	mov	r3, r2
    2490:	e7e8      	b.n	2464 <tcp_connect+0xc4>
    2492:	20f7      	movs	r0, #247	; 0xf7
    2494:	e7e2      	b.n	245c <tcp_connect+0xbc>
    2496:	68e2      	ldr	r2, [r4, #12]
    2498:	601a      	str	r2, [r3, #0]
    249a:	e7e5      	b.n	2468 <tcp_connect+0xc8>
    249c:	20fc      	movs	r0, #252	; 0xfc
    249e:	e7dd      	b.n	245c <tcp_connect+0xbc>
    24a0:	10000fc0 	.word	0x10000fc0
    24a4:	100000cc 	.word	0x100000cc
    24a8:	10000fcc 	.word	0x10000fcc
    24ac:	10000fc8 	.word	0x10000fc8
    24b0:	10000fbc 	.word	0x10000fbc

000024b4 <tcp_create_segment.isra.0>:
    24b4:	e92d 47f0 	stmdb	sp!, {r4, r5, r6, r7, r8, r9, r10, lr}
    24b8:	f89d 5024 	ldrb.w	r5, [sp, #36]	; 0x24
    24bc:	4682      	mov	r10, r0
    24be:	f015 0f01 	tst.w	r5, #1
    24c2:	bf0c      	ite	eq
    24c4:	2400      	moveq	r4, #0
    24c6:	2404      	movne	r4, #4
    24c8:	2003      	movs	r0, #3
    24ca:	f015 0f02 	tst.w	r5, #2
    24ce:	bf0c      	ite	eq
    24d0:	2700      	moveq	r7, #0
    24d2:	270c      	movne	r7, #12
    24d4:	4689      	mov	r9, r1
    24d6:	4616      	mov	r6, r2
    24d8:	4698      	mov	r8, r3
    24da:	f7fe ff9f 	bl	141c <memp_malloc>
    24de:	4427      	add	r7, r4
    24e0:	4604      	mov	r4, r0
    24e2:	b380      	cbz	r0, 2546 <tcp_create_segment.isra.0+0x92>
    24e4:	7345      	strb	r5, [r0, #13]
    24e6:	8933      	ldrh	r3, [r6, #8]
    24e8:	2500      	movs	r5, #0
    24ea:	1bdb      	subs	r3, r3, r7
    24ec:	6046      	str	r6, [r0, #4]
    24ee:	8103      	strh	r3, [r0, #8]
    24f0:	2114      	movs	r1, #20
    24f2:	4630      	mov	r0, r6
    24f4:	6025      	str	r5, [r4, #0]
    24f6:	8165      	strh	r5, [r4, #10]
    24f8:	7325      	strb	r5, [r4, #12]
    24fa:	f7ff f8d9 	bl	16b0 <pbuf_header>
    24fe:	b9e0      	cbnz	r0, 253a <tcp_create_segment.isra.0+0x86>
    2500:	6863      	ldr	r3, [r4, #4]
    2502:	f8ba 1000 	ldrh.w	r1, [r10]
    2506:	685a      	ldr	r2, [r3, #4]
    2508:	6122      	str	r2, [r4, #16]
    250a:	ba4b      	rev16	r3, r1
    250c:	8013      	strh	r3, [r2, #0]
    250e:	f8b9 1000 	ldrh.w	r1, [r9]
    2512:	ba49      	rev16	r1, r1
    2514:	9808      	ldr	r0, [sp, #32]
    2516:	02bf      	lsls	r7, r7, #10
    2518:	f507 47a0 	add.w	r7, r7, #20480	; 0x5000
    251c:	ba03      	rev	r3, r0
    251e:	ea47 0808 	orr.w	r8, r7, r8
    2522:	8051      	strh	r1, [r2, #2]
    2524:	6053      	str	r3, [r2, #4]
    2526:	fa98 f898 	rev16.w	r8, r8
    252a:	2300      	movs	r3, #0
    252c:	f8a2 800c 	strh.w	r8, [r2, #12]
    2530:	4620      	mov	r0, r4
    2532:	7493      	strb	r3, [r2, #18]
    2534:	74d3      	strb	r3, [r2, #19]
    2536:	e8bd 87f0 	ldmia.w	sp!, {r4, r5, r6, r7, r8, r9, r10, pc}
    253a:	4620      	mov	r0, r4
    253c:	f7ff fb04 	bl	1b48 <tcp_seg_free>
    2540:	4628      	mov	r0, r5
    2542:	e8bd 87f0 	ldmia.w	sp!, {r4, r5, r6, r7, r8, r9, r10, pc}
    2546:	4630      	mov	r0, r6
    2548:	f7ff f8e8 	bl	171c <pbuf_free>
    254c:	4620      	mov	r0, r4
    254e:	e8bd 87f0 	ldmia.w	sp!, {r4, r5, r6, r7, r8, r9, r10, pc}
    2552:	bf00      	nop

00002554 <tcp_output_alloc_header.constprop.1>:
    2554:	3114      	adds	r1, #20
    2556:	b570      	push	{r4, r5, r6, lr}
    2558:	b289      	uxth	r1, r1
    255a:	4604      	mov	r4, r0
    255c:	4615      	mov	r5, r2
    255e:	2001      	movs	r0, #1
    2560:	2200      	movs	r2, #0
    2562:	f7ff f911 	bl	1788 <pbuf_alloc>
    2566:	b1c0      	cbz	r0, 259a <tcp_output_alloc_header.constprop.1+0x46>
    2568:	6843      	ldr	r3, [r0, #4]
    256a:	8ba2      	ldrh	r2, [r4, #28]
    256c:	ba52      	rev16	r2, r2
    256e:	801a      	strh	r2, [r3, #0]
    2570:	8be2      	ldrh	r2, [r4, #30]
    2572:	ba52      	rev16	r2, r2
    2574:	6a61      	ldr	r1, [r4, #36]	; 0x24
    2576:	805a      	strh	r2, [r3, #2]
    2578:	ba0a      	rev	r2, r1
    257a:	609a      	str	r2, [r3, #8]
    257c:	605d      	str	r5, [r3, #4]
    257e:	f245 0210 	movw	r2, #20496	; 0x5010
    2582:	ba52      	rev16	r2, r2
    2584:	819a      	strh	r2, [r3, #12]
    2586:	8d65      	ldrh	r5, [r4, #42]	; 0x2a
    2588:	ba6e      	rev16	r6, r5
    258a:	2200      	movs	r2, #0
    258c:	4429      	add	r1, r5
    258e:	81de      	strh	r6, [r3, #14]
    2590:	741a      	strb	r2, [r3, #16]
    2592:	745a      	strb	r2, [r3, #17]
    2594:	749a      	strb	r2, [r3, #18]
    2596:	74da      	strb	r2, [r3, #19]
    2598:	62e1      	str	r1, [r4, #44]	; 0x2c
    259a:	bd70      	pop	{r4, r5, r6, pc}

0000259c <tcp_write>:
    259c:	e92d 4ff0 	stmdb	sp!, {r4, r5, r6, r7, r8, r9, r10, r11, lr}
    25a0:	b08f      	sub	sp, #60	; 0x3c
    25a2:	9105      	str	r1, [sp, #20]
    25a4:	4607      	mov	r7, r0
    25a6:	9203      	str	r2, [sp, #12]
    25a8:	9309      	str	r3, [sp, #36]	; 0x24
    25aa:	2900      	cmp	r1, #0
    25ac:	f000 81a0 	beq.w	28f0 <tcp_write+0x354>
    25b0:	7c03      	ldrb	r3, [r0, #16]
    25b2:	2b07      	cmp	r3, #7
    25b4:	d007      	beq.n	25c6 <tcp_write+0x2a>
    25b6:	3b02      	subs	r3, #2
    25b8:	2b02      	cmp	r3, #2
    25ba:	d904      	bls.n	25c6 <tcp_write+0x2a>
    25bc:	20f3      	movs	r0, #243	; 0xf3
    25be:	b240      	sxtb	r0, r0
    25c0:	b00f      	add	sp, #60	; 0x3c
    25c2:	e8bd 8ff0 	ldmia.w	sp!, {r4, r5, r6, r7, r8, r9, r10, r11, pc}
    25c6:	9c03      	ldr	r4, [sp, #12]
    25c8:	2c00      	cmp	r4, #0
    25ca:	f000 8113 	beq.w	27f4 <tcp_write+0x258>
    25ce:	f8b7 306e 	ldrh.w	r3, [r7, #110]	; 0x6e
    25d2:	42a3      	cmp	r3, r4
    25d4:	f0c0 816a 	bcc.w	28ac <tcp_write+0x310>
    25d8:	f8b7 9070 	ldrh.w	r9, [r7, #112]	; 0x70
    25dc:	f1b9 0f03 	cmp.w	r9, #3
    25e0:	f200 8164 	bhi.w	28ac <tcp_write+0x310>
    25e4:	6f7c      	ldr	r4, [r7, #116]	; 0x74
    25e6:	9408      	str	r4, [sp, #32]
    25e8:	2c00      	cmp	r4, #0
    25ea:	f000 810a 	beq.w	2802 <tcp_write+0x266>
    25ee:	9b08      	ldr	r3, [sp, #32]
    25f0:	e000      	b.n	25f4 <tcp_write+0x58>
    25f2:	4633      	mov	r3, r6
    25f4:	681e      	ldr	r6, [r3, #0]
    25f6:	2e00      	cmp	r6, #0
    25f8:	d1fb      	bne.n	25f2 <tcp_write+0x56>
    25fa:	9308      	str	r3, [sp, #32]
    25fc:	7b5b      	ldrb	r3, [r3, #13]
    25fe:	9c08      	ldr	r4, [sp, #32]
    2600:	f013 0f01 	tst.w	r3, #1
    2604:	bf0c      	ite	eq
    2606:	2100      	moveq	r1, #0
    2608:	2104      	movne	r1, #4
    260a:	f013 0f02 	tst.w	r3, #2
    260e:	8923      	ldrh	r3, [r4, #8]
    2610:	9c03      	ldr	r4, [sp, #12]
    2612:	8f38      	ldrh	r0, [r7, #56]	; 0x38
    2614:	bf0c      	ite	eq
    2616:	2200      	moveq	r2, #0
    2618:	220c      	movne	r2, #12
    261a:	bb1c      	cbnz	r4, 2664 <tcp_write+0xc8>
    261c:	9b03      	ldr	r3, [sp, #12]
    261e:	9c08      	ldr	r4, [sp, #32]
    2620:	2c00      	cmp	r4, #0
    2622:	f000 8163 	beq.w	28ec <tcp_write+0x350>
    2626:	9c08      	ldr	r4, [sp, #32]
    2628:	6026      	str	r6, [r4, #0]
    262a:	6eba      	ldr	r2, [r7, #104]	; 0x68
    262c:	f8b7 106e 	ldrh.w	r1, [r7, #110]	; 0x6e
    2630:	9c03      	ldr	r4, [sp, #12]
    2632:	f8a7 9070 	strh.w	r9, [r7, #112]	; 0x70
    2636:	4422      	add	r2, r4
    2638:	1b09      	subs	r1, r1, r4
    263a:	66ba      	str	r2, [r7, #104]	; 0x68
    263c:	f8a7 106e 	strh.w	r1, [r7, #110]	; 0x6e
    2640:	2b00      	cmp	r3, #0
    2642:	f000 812c 	beq.w	289e <tcp_write+0x302>
    2646:	691b      	ldr	r3, [r3, #16]
    2648:	2b00      	cmp	r3, #0
    264a:	f000 8128 	beq.w	289e <tcp_write+0x302>
    264e:	9c09      	ldr	r4, [sp, #36]	; 0x24
    2650:	07a2      	lsls	r2, r4, #30
    2652:	f100 8124 	bmi.w	289e <tcp_write+0x302>
    2656:	2208      	movs	r2, #8
    2658:	ba52      	rev16	r2, r2
    265a:	8999      	ldrh	r1, [r3, #12]
    265c:	2000      	movs	r0, #0
    265e:	430a      	orrs	r2, r1
    2660:	819a      	strh	r2, [r3, #12]
    2662:	e7ac      	b.n	25be <tcp_write+0x22>
    2664:	1ac0      	subs	r0, r0, r3
    2666:	1a41      	subs	r1, r0, r1
    2668:	1a8a      	subs	r2, r1, r2
    266a:	b292      	uxth	r2, r2
    266c:	2a00      	cmp	r2, #0
    266e:	f040 80e0 	bne.w	2832 <tcp_write+0x296>
    2672:	960d      	str	r6, [sp, #52]	; 0x34
    2674:	960c      	str	r6, [sp, #48]	; 0x30
    2676:	960b      	str	r6, [sp, #44]	; 0x2c
    2678:	960a      	str	r6, [sp, #40]	; 0x28
    267a:	9c03      	ldr	r4, [sp, #12]
    267c:	980b      	ldr	r0, [sp, #44]	; 0x2c
    267e:	4284      	cmp	r4, r0
    2680:	f240 813c 	bls.w	28fc <tcp_write+0x360>
    2684:	9c09      	ldr	r4, [sp, #36]	; 0x24
    2686:	2600      	movs	r6, #0
    2688:	f004 0801 	and.w	r8, r4, #1
    268c:	4604      	mov	r4, r0
    268e:	f107 001c 	add.w	r0, r7, #28
    2692:	9604      	str	r6, [sp, #16]
    2694:	9606      	str	r6, [sp, #24]
    2696:	9007      	str	r0, [sp, #28]
    2698:	4646      	mov	r6, r8
    269a:	e044      	b.n	2726 <tcp_write+0x18a>
    269c:	2000      	movs	r0, #0
    269e:	4602      	mov	r2, r0
    26a0:	4629      	mov	r1, r5
    26a2:	f7ff f871 	bl	1788 <pbuf_alloc>
    26a6:	4683      	mov	r11, r0
    26a8:	2800      	cmp	r0, #0
    26aa:	f000 80ac 	beq.w	2806 <tcp_write+0x26a>
    26ae:	9905      	ldr	r1, [sp, #20]
    26b0:	6840      	ldr	r0, [r0, #4]
    26b2:	4421      	add	r1, r4
    26b4:	462a      	mov	r2, r5
    26b6:	f000 ffc5 	bl	3644 <lwip_chksum_copy>
    26ba:	f015 0a01 	ands.w	r10, r5, #1
    26be:	4680      	mov	r8, r0
    26c0:	d005      	beq.n	26ce <tcp_write+0x132>
    26c2:	fa90 f890 	rev16.w	r8, r0
    26c6:	f04f 0a01 	mov.w	r10, #1
    26ca:	fa1f f888 	uxth.w	r8, r8
    26ce:	4658      	mov	r0, r11
    26d0:	f7ff f918 	bl	1904 <pbuf_clen>
    26d4:	4448      	add	r0, r9
    26d6:	fa1f f980 	uxth.w	r9, r0
    26da:	f1b9 0f04 	cmp.w	r9, #4
    26de:	f200 80d4 	bhi.w	288a <tcp_write+0x2ee>
    26e2:	6eb9      	ldr	r1, [r7, #104]	; 0x68
    26e4:	2200      	movs	r2, #0
    26e6:	4421      	add	r1, r4
    26e8:	9201      	str	r2, [sp, #4]
    26ea:	9100      	str	r1, [sp, #0]
    26ec:	465a      	mov	r2, r11
    26ee:	9807      	ldr	r0, [sp, #28]
    26f0:	f107 011e 	add.w	r1, r7, #30
    26f4:	2300      	movs	r3, #0
    26f6:	f7ff fedd 	bl	24b4 <tcp_create_segment.isra.0>
    26fa:	2800      	cmp	r0, #0
    26fc:	f000 8083 	beq.w	2806 <tcp_write+0x26a>
    2700:	7b43      	ldrb	r3, [r0, #13]
    2702:	f8a0 800a 	strh.w	r8, [r0, #10]
    2706:	f043 0304 	orr.w	r3, r3, #4
    270a:	7343      	strb	r3, [r0, #13]
    270c:	9b06      	ldr	r3, [sp, #24]
    270e:	f880 a00c 	strb.w	r10, [r0, #12]
    2712:	2b00      	cmp	r3, #0
    2714:	d033      	beq.n	277e <tcp_write+0x1e2>
    2716:	442c      	add	r4, r5
    2718:	9a03      	ldr	r2, [sp, #12]
    271a:	9904      	ldr	r1, [sp, #16]
    271c:	b2a4      	uxth	r4, r4
    271e:	42a2      	cmp	r2, r4
    2720:	6008      	str	r0, [r1, #0]
    2722:	d932      	bls.n	278a <tcp_write+0x1ee>
    2724:	9004      	str	r0, [sp, #16]
    2726:	9903      	ldr	r1, [sp, #12]
    2728:	8f3b      	ldrh	r3, [r7, #56]	; 0x38
    272a:	1b0d      	subs	r5, r1, r4
    272c:	b2ad      	uxth	r5, r5
    272e:	429d      	cmp	r5, r3
    2730:	bf28      	it	cs
    2732:	461d      	movcs	r5, r3
    2734:	2e00      	cmp	r6, #0
    2736:	d1b1      	bne.n	269c <tcp_write+0x100>
    2738:	4630      	mov	r0, r6
    273a:	4629      	mov	r1, r5
    273c:	2201      	movs	r2, #1
    273e:	f7ff f823 	bl	1788 <pbuf_alloc>
    2742:	4682      	mov	r10, r0
    2744:	2800      	cmp	r0, #0
    2746:	d05e      	beq.n	2806 <tcp_write+0x26a>
    2748:	f8dd 8014 	ldr.w	r8, [sp, #20]
    274c:	4629      	mov	r1, r5
    274e:	44a0      	add	r8, r4
    2750:	4640      	mov	r0, r8
    2752:	f000 ff4f 	bl	35f4 <inet_chksum>
    2756:	f8ca 8004 	str.w	r8, [r10, #4]
    275a:	4631      	mov	r1, r6
    275c:	ea6f 0800 	mvn.w	r8, r0
    2760:	4632      	mov	r2, r6
    2762:	4630      	mov	r0, r6
    2764:	f7ff f810 	bl	1788 <pbuf_alloc>
    2768:	fa1f f888 	uxth.w	r8, r8
    276c:	4683      	mov	r11, r0
    276e:	2800      	cmp	r0, #0
    2770:	f000 8097 	beq.w	28a2 <tcp_write+0x306>
    2774:	4651      	mov	r1, r10
    2776:	f7ff f8dd 	bl	1934 <pbuf_cat>
    277a:	46b2      	mov	r10, r6
    277c:	e7a7      	b.n	26ce <tcp_write+0x132>
    277e:	442c      	add	r4, r5
    2780:	9a03      	ldr	r2, [sp, #12]
    2782:	b2a4      	uxth	r4, r4
    2784:	42a2      	cmp	r2, r4
    2786:	9006      	str	r0, [sp, #24]
    2788:	d8cc      	bhi.n	2724 <tcp_write+0x188>
    278a:	9e06      	ldr	r6, [sp, #24]
    278c:	4603      	mov	r3, r0
    278e:	9c0a      	ldr	r4, [sp, #40]	; 0x28
    2790:	2c00      	cmp	r4, #0
    2792:	f43f af44 	beq.w	261e <tcp_write+0x82>
    2796:	9c08      	ldr	r4, [sp, #32]
    2798:	990a      	ldr	r1, [sp, #40]	; 0x28
    279a:	6860      	ldr	r0, [r4, #4]
    279c:	9302      	str	r3, [sp, #8]
    279e:	f7ff f8c9 	bl	1934 <pbuf_cat>
    27a2:	9c0a      	ldr	r4, [sp, #40]	; 0x28
    27a4:	9b02      	ldr	r3, [sp, #8]
    27a6:	8921      	ldrh	r1, [r4, #8]
    27a8:	9c08      	ldr	r4, [sp, #32]
    27aa:	8922      	ldrh	r2, [r4, #8]
    27ac:	440a      	add	r2, r1
    27ae:	8122      	strh	r2, [r4, #8]
    27b0:	9c0b      	ldr	r4, [sp, #44]	; 0x2c
    27b2:	2c00      	cmp	r4, #0
    27b4:	f43f af33 	beq.w	261e <tcp_write+0x82>
    27b8:	9c0d      	ldr	r4, [sp, #52]	; 0x34
    27ba:	b11c      	cbz	r4, 27c4 <tcp_write+0x228>
    27bc:	9c0c      	ldr	r4, [sp, #48]	; 0x30
    27be:	ba62      	rev16	r2, r4
    27c0:	b292      	uxth	r2, r2
    27c2:	920c      	str	r2, [sp, #48]	; 0x30
    27c4:	9c08      	ldr	r4, [sp, #32]
    27c6:	8962      	ldrh	r2, [r4, #10]
    27c8:	9c0c      	ldr	r4, [sp, #48]	; 0x30
    27ca:	4422      	add	r2, r4
    27cc:	9c0b      	ldr	r4, [sp, #44]	; 0x2c
    27ce:	eb02 4212 	add.w	r2, r2, r2, lsr #16
    27d2:	07e1      	lsls	r1, r4, #31
    27d4:	b292      	uxth	r2, r2
    27d6:	d506      	bpl.n	27e6 <tcp_write+0x24a>
    27d8:	9c08      	ldr	r4, [sp, #32]
    27da:	7b21      	ldrb	r1, [r4, #12]
    27dc:	f1c1 0101 	rsb	r1, r1, #1
    27e0:	7321      	strb	r1, [r4, #12]
    27e2:	ba52      	rev16	r2, r2
    27e4:	b292      	uxth	r2, r2
    27e6:	9c08      	ldr	r4, [sp, #32]
    27e8:	7b61      	ldrb	r1, [r4, #13]
    27ea:	8162      	strh	r2, [r4, #10]
    27ec:	f041 0204 	orr.w	r2, r1, #4
    27f0:	7362      	strb	r2, [r4, #13]
    27f2:	e714      	b.n	261e <tcp_write+0x82>
    27f4:	6f7c      	ldr	r4, [r7, #116]	; 0x74
    27f6:	f8b7 9070 	ldrh.w	r9, [r7, #112]	; 0x70
    27fa:	9408      	str	r4, [sp, #32]
    27fc:	2c00      	cmp	r4, #0
    27fe:	f47f aef6 	bne.w	25ee <tcp_write+0x52>
    2802:	9e08      	ldr	r6, [sp, #32]
    2804:	e735      	b.n	2672 <tcp_write+0xd6>
    2806:	9e06      	ldr	r6, [sp, #24]
    2808:	f897 3020 	ldrb.w	r3, [r7, #32]
    280c:	9c0a      	ldr	r4, [sp, #40]	; 0x28
    280e:	f063 037f 	orn	r3, r3, #127	; 0x7f
    2812:	f887 3020 	strb.w	r3, [r7, #32]
    2816:	b114      	cbz	r4, 281e <tcp_write+0x282>
    2818:	4620      	mov	r0, r4
    281a:	f7fe ff7f 	bl	171c <pbuf_free>
    281e:	2e00      	cmp	r6, #0
    2820:	d038      	beq.n	2894 <tcp_write+0x2f8>
    2822:	4630      	mov	r0, r6
    2824:	f7ff f99e 	bl	1b64 <tcp_segs_free>
    2828:	20ff      	movs	r0, #255	; 0xff
    282a:	b240      	sxtb	r0, r0
    282c:	b00f      	add	sp, #60	; 0x3c
    282e:	e8bd 8ff0 	ldmia.w	sp!, {r4, r5, r6, r7, r8, r9, r10, r11, pc}
    2832:	2b00      	cmp	r3, #0
    2834:	f43f af1d 	beq.w	2672 <tcp_write+0xd6>
    2838:	42a2      	cmp	r2, r4
    283a:	bfb8      	it	lt
    283c:	4614      	movlt	r4, r2
    283e:	940b      	str	r4, [sp, #44]	; 0x2c
    2840:	9c09      	ldr	r4, [sp, #36]	; 0x24
    2842:	07e0      	lsls	r0, r4, #31
    2844:	d43a      	bmi.n	28bc <tcp_write+0x320>
    2846:	2003      	movs	r0, #3
    2848:	990b      	ldr	r1, [sp, #44]	; 0x2c
    284a:	2201      	movs	r2, #1
    284c:	f7fe ff9c 	bl	1788 <pbuf_alloc>
    2850:	900a      	str	r0, [sp, #40]	; 0x28
    2852:	b358      	cbz	r0, 28ac <tcp_write+0x310>
    2854:	9805      	ldr	r0, [sp, #20]
    2856:	990b      	ldr	r1, [sp, #44]	; 0x2c
    2858:	f000 fecc 	bl	35f4 <inet_chksum>
    285c:	9c0b      	ldr	r4, [sp, #44]	; 0x2c
    285e:	43c0      	mvns	r0, r0
    2860:	b280      	uxth	r0, r0
    2862:	f014 0301 	ands.w	r3, r4, #1
    2866:	900c      	str	r0, [sp, #48]	; 0x30
    2868:	d044      	beq.n	28f4 <tcp_write+0x358>
    286a:	ba43      	rev16	r3, r0
    286c:	2401      	movs	r4, #1
    286e:	b29b      	uxth	r3, r3
    2870:	940d      	str	r4, [sp, #52]	; 0x34
    2872:	930c      	str	r3, [sp, #48]	; 0x30
    2874:	9c05      	ldr	r4, [sp, #20]
    2876:	980a      	ldr	r0, [sp, #40]	; 0x28
    2878:	6044      	str	r4, [r0, #4]
    287a:	980a      	ldr	r0, [sp, #40]	; 0x28
    287c:	f7ff f842 	bl	1904 <pbuf_clen>
    2880:	4448      	add	r0, r9
    2882:	fa1f f980 	uxth.w	r9, r0
    2886:	9e08      	ldr	r6, [sp, #32]
    2888:	e6f7      	b.n	267a <tcp_write+0xde>
    288a:	4658      	mov	r0, r11
    288c:	9e06      	ldr	r6, [sp, #24]
    288e:	f7fe ff45 	bl	171c <pbuf_free>
    2892:	e7b9      	b.n	2808 <tcp_write+0x26c>
    2894:	20ff      	movs	r0, #255	; 0xff
    2896:	b240      	sxtb	r0, r0
    2898:	b00f      	add	sp, #60	; 0x3c
    289a:	e8bd 8ff0 	ldmia.w	sp!, {r4, r5, r6, r7, r8, r9, r10, r11, pc}
    289e:	2000      	movs	r0, #0
    28a0:	e68d      	b.n	25be <tcp_write+0x22>
    28a2:	4650      	mov	r0, r10
    28a4:	9e06      	ldr	r6, [sp, #24]
    28a6:	f7fe ff39 	bl	171c <pbuf_free>
    28aa:	e7ad      	b.n	2808 <tcp_write+0x26c>
    28ac:	f897 3020 	ldrb.w	r3, [r7, #32]
    28b0:	20ff      	movs	r0, #255	; 0xff
    28b2:	f063 037f 	orn	r3, r3, #127	; 0x7f
    28b6:	f887 3020 	strb.w	r3, [r7, #32]
    28ba:	e680      	b.n	25be <tcp_write+0x22>
    28bc:	4632      	mov	r2, r6
    28be:	2003      	movs	r0, #3
    28c0:	990b      	ldr	r1, [sp, #44]	; 0x2c
    28c2:	f7fe ff61 	bl	1788 <pbuf_alloc>
    28c6:	900a      	str	r0, [sp, #40]	; 0x28
    28c8:	2800      	cmp	r0, #0
    28ca:	d0ef      	beq.n	28ac <tcp_write+0x310>
    28cc:	6840      	ldr	r0, [r0, #4]
    28ce:	9905      	ldr	r1, [sp, #20]
    28d0:	9a0b      	ldr	r2, [sp, #44]	; 0x2c
    28d2:	f000 feb7 	bl	3644 <lwip_chksum_copy>
    28d6:	9c0b      	ldr	r4, [sp, #44]	; 0x2c
    28d8:	900c      	str	r0, [sp, #48]	; 0x30
    28da:	f014 0301 	ands.w	r3, r4, #1
    28de:	d00b      	beq.n	28f8 <tcp_write+0x35c>
    28e0:	ba43      	rev16	r3, r0
    28e2:	2401      	movs	r4, #1
    28e4:	b29b      	uxth	r3, r3
    28e6:	940d      	str	r4, [sp, #52]	; 0x34
    28e8:	930c      	str	r3, [sp, #48]	; 0x30
    28ea:	e7c6      	b.n	287a <tcp_write+0x2de>
    28ec:	677e      	str	r6, [r7, #116]	; 0x74
    28ee:	e69c      	b.n	262a <tcp_write+0x8e>
    28f0:	20f2      	movs	r0, #242	; 0xf2
    28f2:	e664      	b.n	25be <tcp_write+0x22>
    28f4:	930d      	str	r3, [sp, #52]	; 0x34
    28f6:	e7bd      	b.n	2874 <tcp_write+0x2d8>
    28f8:	930d      	str	r3, [sp, #52]	; 0x34
    28fa:	e7be      	b.n	287a <tcp_write+0x2de>
    28fc:	4633      	mov	r3, r6
    28fe:	2600      	movs	r6, #0
    2900:	e745      	b.n	278e <tcp_write+0x1f2>
    2902:	bf00      	nop

00002904 <tcp_enqueue_flags>:
    2904:	b570      	push	{r4, r5, r6, lr}
    2906:	f8b0 3070 	ldrh.w	r3, [r0, #112]	; 0x70
    290a:	b082      	sub	sp, #8
    290c:	2b03      	cmp	r3, #3
    290e:	4605      	mov	r5, r0
    2910:	460e      	mov	r6, r1
    2912:	d849      	bhi.n	29a8 <tcp_enqueue_flags+0xa4>
    2914:	f001 0302 	and.w	r3, r1, #2
    2918:	f003 04ff 	and.w	r4, r3, #255	; 0xff
    291c:	2b00      	cmp	r3, #0
    291e:	d13c      	bne.n	299a <tcp_enqueue_flags+0x96>
    2920:	4621      	mov	r1, r4
    2922:	f8b5 306e 	ldrh.w	r3, [r5, #110]	; 0x6e
    2926:	2b00      	cmp	r3, #0
    2928:	d03c      	beq.n	29a4 <tcp_enqueue_flags+0xa0>
    292a:	2000      	movs	r0, #0
    292c:	4602      	mov	r2, r0
    292e:	f7fe ff2b 	bl	1788 <pbuf_alloc>
    2932:	2800      	cmp	r0, #0
    2934:	d038      	beq.n	29a8 <tcp_enqueue_flags+0xa4>
    2936:	6eab      	ldr	r3, [r5, #104]	; 0x68
    2938:	4602      	mov	r2, r0
    293a:	9300      	str	r3, [sp, #0]
    293c:	9401      	str	r4, [sp, #4]
    293e:	f105 001c 	add.w	r0, r5, #28
    2942:	f105 011e 	add.w	r1, r5, #30
    2946:	4633      	mov	r3, r6
    2948:	f7ff fdb4 	bl	24b4 <tcp_create_segment.isra.0>
    294c:	b360      	cbz	r0, 29a8 <tcp_enqueue_flags+0xa4>
    294e:	6f6c      	ldr	r4, [r5, #116]	; 0x74
    2950:	b90c      	cbnz	r4, 2956 <tcp_enqueue_flags+0x52>
    2952:	e025      	b.n	29a0 <tcp_enqueue_flags+0x9c>
    2954:	4614      	mov	r4, r2
    2956:	6822      	ldr	r2, [r4, #0]
    2958:	2a00      	cmp	r2, #0
    295a:	d1fb      	bne.n	2954 <tcp_enqueue_flags+0x50>
    295c:	6020      	str	r0, [r4, #0]
    295e:	07b2      	lsls	r2, r6, #30
    2960:	d007      	beq.n	2972 <tcp_enqueue_flags+0x6e>
    2962:	6eab      	ldr	r3, [r5, #104]	; 0x68
    2964:	f8b5 206e 	ldrh.w	r2, [r5, #110]	; 0x6e
    2968:	3301      	adds	r3, #1
    296a:	3a01      	subs	r2, #1
    296c:	66ab      	str	r3, [r5, #104]	; 0x68
    296e:	f8a5 206e 	strh.w	r2, [r5, #110]	; 0x6e
    2972:	07f3      	lsls	r3, r6, #31
    2974:	d505      	bpl.n	2982 <tcp_enqueue_flags+0x7e>
    2976:	f895 3020 	ldrb.w	r3, [r5, #32]
    297a:	f043 0320 	orr.w	r3, r3, #32
    297e:	f885 3020 	strb.w	r3, [r5, #32]
    2982:	6840      	ldr	r0, [r0, #4]
    2984:	f8b5 4070 	ldrh.w	r4, [r5, #112]	; 0x70
    2988:	f7fe ffbc 	bl	1904 <pbuf_clen>
    298c:	4420      	add	r0, r4
    298e:	f8a5 0070 	strh.w	r0, [r5, #112]	; 0x70
    2992:	2000      	movs	r0, #0
    2994:	b240      	sxtb	r0, r0
    2996:	b002      	add	sp, #8
    2998:	bd70      	pop	{r4, r5, r6, pc}
    299a:	2401      	movs	r4, #1
    299c:	2104      	movs	r1, #4
    299e:	e7c0      	b.n	2922 <tcp_enqueue_flags+0x1e>
    29a0:	6768      	str	r0, [r5, #116]	; 0x74
    29a2:	e7dc      	b.n	295e <tcp_enqueue_flags+0x5a>
    29a4:	20ff      	movs	r0, #255	; 0xff
    29a6:	e7f5      	b.n	2994 <tcp_enqueue_flags+0x90>
    29a8:	f895 3020 	ldrb.w	r3, [r5, #32]
    29ac:	20ff      	movs	r0, #255	; 0xff
    29ae:	f063 037f 	orn	r3, r3, #127	; 0x7f
    29b2:	f885 3020 	strb.w	r3, [r5, #32]
    29b6:	e7ed      	b.n	2994 <tcp_enqueue_flags+0x90>

000029b8 <tcp_send_fin>:
    29b8:	6f42      	ldr	r2, [r0, #116]	; 0x74
    29ba:	b90a      	cbnz	r2, 29c0 <tcp_send_fin+0x8>
    29bc:	e008      	b.n	29d0 <tcp_send_fin+0x18>
    29be:	461a      	mov	r2, r3
    29c0:	6813      	ldr	r3, [r2, #0]
    29c2:	2b00      	cmp	r3, #0
    29c4:	d1fb      	bne.n	29be <tcp_send_fin+0x6>
    29c6:	6913      	ldr	r3, [r2, #16]
    29c8:	899a      	ldrh	r2, [r3, #12]
    29ca:	ba51      	rev16	r1, r2
    29cc:	0749      	lsls	r1, r1, #29
    29ce:	d002      	beq.n	29d6 <tcp_send_fin+0x1e>
    29d0:	2101      	movs	r1, #1
    29d2:	f7ff bf97 	b.w	2904 <tcp_enqueue_flags>
    29d6:	2101      	movs	r1, #1
    29d8:	ba49      	rev16	r1, r1
    29da:	430a      	orrs	r2, r1
    29dc:	819a      	strh	r2, [r3, #12]
    29de:	2000      	movs	r0, #0
    29e0:	4770      	bx	lr
    29e2:	bf00      	nop

000029e4 <tcp_send_empty_ack>:
    29e4:	b5f0      	push	{r4, r5, r6, r7, lr}
    29e6:	6d82      	ldr	r2, [r0, #88]	; 0x58
    29e8:	b083      	sub	sp, #12
    29ea:	2100      	movs	r1, #0
    29ec:	ba12      	rev	r2, r2
    29ee:	4604      	mov	r4, r0
    29f0:	f7ff fdb0 	bl	2554 <tcp_output_alloc_header.constprop.1>
    29f4:	4605      	mov	r5, r0
    29f6:	b300      	cbz	r0, 2a3a <tcp_send_empty_ack+0x56>
    29f8:	f894 3020 	ldrb.w	r3, [r4, #32]
    29fc:	6847      	ldr	r7, [r0, #4]
    29fe:	f023 0303 	bic.w	r3, r3, #3
    2a02:	f884 3020 	strb.w	r3, [r4, #32]
    2a06:	8903      	ldrh	r3, [r0, #8]
    2a08:	1d26      	adds	r6, r4, #4
    2a0a:	9300      	str	r3, [sp, #0]
    2a0c:	4632      	mov	r2, r6
    2a0e:	4621      	mov	r1, r4
    2a10:	2306      	movs	r3, #6
    2a12:	f000 fd5b 	bl	34cc <inet_chksum_pseudo>
    2a16:	8238      	strh	r0, [r7, #16]
    2a18:	7a61      	ldrb	r1, [r4, #9]
    2a1a:	2006      	movs	r0, #6
    2a1c:	7aa3      	ldrb	r3, [r4, #10]
    2a1e:	4632      	mov	r2, r6
    2a20:	9100      	str	r1, [sp, #0]
    2a22:	9001      	str	r0, [sp, #4]
    2a24:	4621      	mov	r1, r4
    2a26:	4628      	mov	r0, r5
    2a28:	f000 ffe6 	bl	39f8 <ip_output>
    2a2c:	4628      	mov	r0, r5
    2a2e:	f7fe fe75 	bl	171c <pbuf_free>
    2a32:	2000      	movs	r0, #0
    2a34:	b240      	sxtb	r0, r0
    2a36:	b003      	add	sp, #12
    2a38:	bdf0      	pop	{r4, r5, r6, r7, pc}
    2a3a:	20fe      	movs	r0, #254	; 0xfe
    2a3c:	e7fa      	b.n	2a34 <tcp_send_empty_ack+0x50>
    2a3e:	bf00      	nop

00002a40 <tcp_output>:
    2a40:	e92d 4ff0 	stmdb	sp!, {r4, r5, r6, r7, r8, r9, r10, r11, lr}
    2a44:	4b9f      	ldr	r3, [pc, #636]	; (2cc4 <tcp_output+0x284>)
    2a46:	b085      	sub	sp, #20
    2a48:	681b      	ldr	r3, [r3, #0]
    2a4a:	4604      	mov	r4, r0
    2a4c:	4283      	cmp	r3, r0
    2a4e:	f000 80ff 	beq.w	2c50 <tcp_output+0x210>
    2a52:	f8b0 705c 	ldrh.w	r7, [r0, #92]	; 0x5c
    2a56:	f8b0 3052 	ldrh.w	r3, [r0, #82]	; 0x52
    2a5a:	f890 2020 	ldrb.w	r2, [r0, #32]
    2a5e:	429f      	cmp	r7, r3
    2a60:	bf28      	it	cs
    2a62:	461f      	movcs	r7, r3
    2a64:	6f45      	ldr	r5, [r0, #116]	; 0x74
    2a66:	0790      	lsls	r0, r2, #30
    2a68:	9703      	str	r7, [sp, #12]
    2a6a:	f100 8116 	bmi.w	2c9a <tcp_output+0x25a>
    2a6e:	6fa6      	ldr	r6, [r4, #120]	; 0x78
    2a70:	b90e      	cbnz	r6, 2a76 <tcp_output+0x36>
    2a72:	e003      	b.n	2a7c <tcp_output+0x3c>
    2a74:	461e      	mov	r6, r3
    2a76:	6833      	ldr	r3, [r6, #0]
    2a78:	2b00      	cmp	r3, #0
    2a7a:	d1fb      	bne.n	2a74 <tcp_output+0x34>
    2a7c:	2d00      	cmp	r5, #0
    2a7e:	f000 80e3 	beq.w	2c48 <tcp_output+0x208>
    2a82:	f04f 0810 	mov.w	r8, #16
    2a86:	f8df 9240 	ldr.w	r9, [pc, #576]	; 2cc8 <tcp_output+0x288>
    2a8a:	f8df a240 	ldr.w	r10, [pc, #576]	; 2ccc <tcp_output+0x28c>
    2a8e:	e042      	b.n	2b16 <tcp_output+0xd6>
    2a90:	896b      	ldrh	r3, [r5, #10]
    2a92:	43db      	mvns	r3, r3
    2a94:	b29b      	uxth	r3, r3
    2a96:	4418      	add	r0, r3
    2a98:	692b      	ldr	r3, [r5, #16]
    2a9a:	eb00 4010 	add.w	r0, r0, r0, lsr #16
    2a9e:	8218      	strh	r0, [r3, #16]
    2aa0:	f894 e009 	ldrb.w	lr, [r4, #9]
    2aa4:	2106      	movs	r1, #6
    2aa6:	7aa3      	ldrb	r3, [r4, #10]
    2aa8:	6868      	ldr	r0, [r5, #4]
    2aaa:	465a      	mov	r2, r11
    2aac:	9101      	str	r1, [sp, #4]
    2aae:	f8cd e000 	str.w	lr, [sp]
    2ab2:	4621      	mov	r1, r4
    2ab4:	f000 ffa0 	bl	39f8 <ip_output>
    2ab8:	692b      	ldr	r3, [r5, #16]
    2aba:	8928      	ldrh	r0, [r5, #8]
    2abc:	685a      	ldr	r2, [r3, #4]
    2abe:	899b      	ldrh	r3, [r3, #12]
    2ac0:	ba12      	rev	r2, r2
    2ac2:	ba59      	rev16	r1, r3
    2ac4:	f011 0103 	ands.w	r1, r1, #3
    2ac8:	bf18      	it	ne
    2aca:	2101      	movne	r1, #1
    2acc:	6da7      	ldr	r7, [r4, #88]	; 0x58
    2ace:	4401      	add	r1, r0
    2ad0:	4411      	add	r1, r2
    2ad2:	ebc1 0c07 	rsb	r12, r1, r7
    2ad6:	f1bc 0f00 	cmp.w	r12, #0
    2ada:	bfb8      	it	lt
    2adc:	65a1      	strlt	r1, [r4, #88]	; 0x58
    2ade:	ba5b      	rev16	r3, r3
    2ae0:	f013 0303 	ands.w	r3, r3, #3
    2ae4:	bf18      	it	ne
    2ae6:	2301      	movne	r3, #1
    2ae8:	4403      	add	r3, r0
    2aea:	2b00      	cmp	r3, #0
    2aec:	f000 80b4 	beq.w	2c58 <tcp_output+0x218>
    2af0:	6fa3      	ldr	r3, [r4, #120]	; 0x78
    2af2:	2100      	movs	r1, #0
    2af4:	6029      	str	r1, [r5, #0]
    2af6:	2b00      	cmp	r3, #0
    2af8:	f000 80b2 	beq.w	2c60 <tcp_output+0x220>
    2afc:	6931      	ldr	r1, [r6, #16]
    2afe:	6849      	ldr	r1, [r1, #4]
    2b00:	ba09      	rev	r1, r1
    2b02:	1a51      	subs	r1, r2, r1
    2b04:	2900      	cmp	r1, #0
    2b06:	f2c0 808b 	blt.w	2c20 <tcp_output+0x1e0>
    2b0a:	6035      	str	r5, [r6, #0]
    2b0c:	462e      	mov	r6, r5
    2b0e:	6f65      	ldr	r5, [r4, #116]	; 0x74
    2b10:	2d00      	cmp	r5, #0
    2b12:	f000 8097 	beq.w	2c44 <tcp_output+0x204>
    2b16:	692b      	ldr	r3, [r5, #16]
    2b18:	8929      	ldrh	r1, [r5, #8]
    2b1a:	f8d3 c004 	ldr.w	r12, [r3, #4]
    2b1e:	6ce2      	ldr	r2, [r4, #76]	; 0x4c
    2b20:	fa9c fc8c 	rev.w	r12, r12
    2b24:	1a8a      	subs	r2, r1, r2
    2b26:	9f03      	ldr	r7, [sp, #12]
    2b28:	4494      	add	r12, r2
    2b2a:	4567      	cmp	r7, r12
    2b2c:	f0c0 80c6 	bcc.w	2cbc <tcp_output+0x27c>
    2b30:	6fa2      	ldr	r2, [r4, #120]	; 0x78
    2b32:	b15a      	cbz	r2, 2b4c <tcp_output+0x10c>
    2b34:	f894 2020 	ldrb.w	r2, [r4, #32]
    2b38:	f012 0f44 	tst.w	r2, #68	; 0x44
    2b3c:	d106      	bne.n	2b4c <tcp_output+0x10c>
    2b3e:	2d00      	cmp	r5, #0
    2b40:	f000 8095 	beq.w	2c6e <tcp_output+0x22e>
    2b44:	6828      	ldr	r0, [r5, #0]
    2b46:	2800      	cmp	r0, #0
    2b48:	f000 808d 	beq.w	2c66 <tcp_output+0x226>
    2b4c:	7c21      	ldrb	r1, [r4, #16]
    2b4e:	682a      	ldr	r2, [r5, #0]
    2b50:	2902      	cmp	r1, #2
    2b52:	6762      	str	r2, [r4, #116]	; 0x74
    2b54:	d00b      	beq.n	2b6e <tcp_output+0x12e>
    2b56:	fa98 f298 	rev16.w	r2, r8
    2b5a:	8999      	ldrh	r1, [r3, #12]
    2b5c:	430a      	orrs	r2, r1
    2b5e:	819a      	strh	r2, [r3, #12]
    2b60:	f894 3020 	ldrb.w	r3, [r4, #32]
    2b64:	f023 0303 	bic.w	r3, r3, #3
    2b68:	f884 3020 	strb.w	r3, [r4, #32]
    2b6c:	692b      	ldr	r3, [r5, #16]
    2b6e:	6a61      	ldr	r1, [r4, #36]	; 0x24
    2b70:	461a      	mov	r2, r3
    2b72:	ba08      	rev	r0, r1
    2b74:	6098      	str	r0, [r3, #8]
    2b76:	8d60      	ldrh	r0, [r4, #42]	; 0x2a
    2b78:	fa90 fe90 	rev16.w	lr, r0
    2b7c:	4401      	add	r1, r0
    2b7e:	f8a3 e00e 	strh.w	lr, [r3, #14]
    2b82:	62e1      	str	r1, [r4, #44]	; 0x2c
    2b84:	7b69      	ldrb	r1, [r5, #13]
    2b86:	f104 0b04 	add.w	r11, r4, #4
    2b8a:	07c9      	lsls	r1, r1, #31
    2b8c:	bf48      	it	mi
    2b8e:	f8c3 9014 	strmi.w	r9, [r3, #20]
    2b92:	f9b4 3036 	ldrsh.w	r3, [r4, #54]	; 0x36
    2b96:	3301      	adds	r3, #1
    2b98:	bf04      	itt	eq
    2b9a:	2300      	moveq	r3, #0
    2b9c:	86e3      	strheq	r3, [r4, #54]	; 0x36
    2b9e:	b10c      	cbz	r4, 2ba4 <tcp_output+0x164>
    2ba0:	6823      	ldr	r3, [r4, #0]
    2ba2:	b93b      	cbnz	r3, 2bb4 <tcp_output+0x174>
    2ba4:	4658      	mov	r0, r11
    2ba6:	f000 fd59 	bl	365c <ip_route>
    2baa:	2800      	cmp	r0, #0
    2bac:	d084      	beq.n	2ab8 <tcp_output+0x78>
    2bae:	6843      	ldr	r3, [r0, #4]
    2bb0:	692a      	ldr	r2, [r5, #16]
    2bb2:	6023      	str	r3, [r4, #0]
    2bb4:	6be3      	ldr	r3, [r4, #60]	; 0x3c
    2bb6:	b92b      	cbnz	r3, 2bc4 <tcp_output+0x184>
    2bb8:	f8da 3000 	ldr.w	r3, [r10]
    2bbc:	63e3      	str	r3, [r4, #60]	; 0x3c
    2bbe:	6853      	ldr	r3, [r2, #4]
    2bc0:	ba1b      	rev	r3, r3
    2bc2:	6423      	str	r3, [r4, #64]	; 0x40
    2bc4:	6868      	ldr	r0, [r5, #4]
    2bc6:	2100      	movs	r1, #0
    2bc8:	6847      	ldr	r7, [r0, #4]
    2bca:	8903      	ldrh	r3, [r0, #8]
    2bcc:	ebc7 0e02 	rsb	lr, r7, r2
    2bd0:	f8b0 c00a 	ldrh.w	r12, [r0, #10]
    2bd4:	fa1f fe8e 	uxth.w	lr, lr
    2bd8:	ebce 0303 	rsb	r3, lr, r3
    2bdc:	b29b      	uxth	r3, r3
    2bde:	ebce 0e0c 	rsb	lr, lr, r12
    2be2:	6042      	str	r2, [r0, #4]
    2be4:	f8a0 e00a 	strh.w	lr, [r0, #10]
    2be8:	8103      	strh	r3, [r0, #8]
    2bea:	f8b2 e00c 	ldrh.w	lr, [r2, #12]
    2bee:	7411      	strb	r1, [r2, #16]
    2bf0:	7451      	strb	r1, [r2, #17]
    2bf2:	fa9e f29e 	rev16.w	r2, lr
    2bf6:	0b12      	lsrs	r2, r2, #12
    2bf8:	0092      	lsls	r2, r2, #2
    2bfa:	b292      	uxth	r2, r2
    2bfc:	9201      	str	r2, [sp, #4]
    2bfe:	9300      	str	r3, [sp, #0]
    2c00:	4621      	mov	r1, r4
    2c02:	2306      	movs	r3, #6
    2c04:	465a      	mov	r2, r11
    2c06:	f000 fc9f 	bl	3548 <inet_chksum_pseudo_partial>
    2c0a:	7b2b      	ldrb	r3, [r5, #12]
    2c0c:	2b00      	cmp	r3, #0
    2c0e:	f43f af3f 	beq.w	2a90 <tcp_output+0x50>
    2c12:	896b      	ldrh	r3, [r5, #10]
    2c14:	ba5b      	rev16	r3, r3
    2c16:	2200      	movs	r2, #0
    2c18:	b29b      	uxth	r3, r3
    2c1a:	816b      	strh	r3, [r5, #10]
    2c1c:	732a      	strb	r2, [r5, #12]
    2c1e:	e738      	b.n	2a92 <tcp_output+0x52>
    2c20:	f104 0078 	add.w	r0, r4, #120	; 0x78
    2c24:	e002      	b.n	2c2c <tcp_output+0x1ec>
    2c26:	4618      	mov	r0, r3
    2c28:	681b      	ldr	r3, [r3, #0]
    2c2a:	b12b      	cbz	r3, 2c38 <tcp_output+0x1f8>
    2c2c:	6919      	ldr	r1, [r3, #16]
    2c2e:	6849      	ldr	r1, [r1, #4]
    2c30:	ba09      	rev	r1, r1
    2c32:	1a89      	subs	r1, r1, r2
    2c34:	2900      	cmp	r1, #0
    2c36:	dbf6      	blt.n	2c26 <tcp_output+0x1e6>
    2c38:	602b      	str	r3, [r5, #0]
    2c3a:	6005      	str	r5, [r0, #0]
    2c3c:	6f65      	ldr	r5, [r4, #116]	; 0x74
    2c3e:	2d00      	cmp	r5, #0
    2c40:	f47f af69 	bne.w	2b16 <tcp_output+0xd6>
    2c44:	f894 2020 	ldrb.w	r2, [r4, #32]
    2c48:	f002 027f 	and.w	r2, r2, #127	; 0x7f
    2c4c:	f884 2020 	strb.w	r2, [r4, #32]
    2c50:	2000      	movs	r0, #0
    2c52:	b005      	add	sp, #20
    2c54:	e8bd 8ff0 	ldmia.w	sp!, {r4, r5, r6, r7, r8, r9, r10, r11, pc}
    2c58:	4628      	mov	r0, r5
    2c5a:	f7fe ff75 	bl	1b48 <tcp_seg_free>
    2c5e:	e756      	b.n	2b0e <tcp_output+0xce>
    2c60:	67a5      	str	r5, [r4, #120]	; 0x78
    2c62:	462e      	mov	r6, r5
    2c64:	e753      	b.n	2b0e <tcp_output+0xce>
    2c66:	8f20      	ldrh	r0, [r4, #56]	; 0x38
    2c68:	4281      	cmp	r1, r0
    2c6a:	f4bf af6f 	bcs.w	2b4c <tcp_output+0x10c>
    2c6e:	f012 0fa0 	tst.w	r2, #160	; 0xa0
    2c72:	f47f af6b 	bne.w	2b4c <tcp_output+0x10c>
    2c76:	f894 30a4 	ldrb.w	r3, [r4, #164]	; 0xa4
    2c7a:	2b00      	cmp	r3, #0
    2c7c:	d1e4      	bne.n	2c48 <tcp_output+0x208>
    2c7e:	f8b4 105c 	ldrh.w	r1, [r4, #92]	; 0x5c
    2c82:	4561      	cmp	r1, r12
    2c84:	d2e0      	bcs.n	2c48 <tcp_output+0x208>
    2c86:	2101      	movs	r1, #1
    2c88:	f002 027f 	and.w	r2, r2, #127	; 0x7f
    2c8c:	f8c4 30a0 	str.w	r3, [r4, #160]	; 0xa0
    2c90:	f884 10a4 	strb.w	r1, [r4, #164]	; 0xa4
    2c94:	f884 2020 	strb.w	r2, [r4, #32]
    2c98:	e7da      	b.n	2c50 <tcp_output+0x210>
    2c9a:	b14d      	cbz	r5, 2cb0 <tcp_output+0x270>
    2c9c:	6929      	ldr	r1, [r5, #16]
    2c9e:	8928      	ldrh	r0, [r5, #8]
    2ca0:	6849      	ldr	r1, [r1, #4]
    2ca2:	6ce3      	ldr	r3, [r4, #76]	; 0x4c
    2ca4:	ba09      	rev	r1, r1
    2ca6:	1ac3      	subs	r3, r0, r3
    2ca8:	440b      	add	r3, r1
    2caa:	429f      	cmp	r7, r3
    2cac:	f4bf aedf 	bcs.w	2a6e <tcp_output+0x2e>
    2cb0:	4620      	mov	r0, r4
    2cb2:	b005      	add	sp, #20
    2cb4:	e8bd 4ff0 	ldmia.w	sp!, {r4, r5, r6, r7, r8, r9, r10, r11, lr}
    2cb8:	f7ff be94 	b.w	29e4 <tcp_send_empty_ack>
    2cbc:	f894 2020 	ldrb.w	r2, [r4, #32]
    2cc0:	e7d9      	b.n	2c76 <tcp_output+0x236>
    2cc2:	bf00      	nop
    2cc4:	1000102c 	.word	0x1000102c
    2cc8:	b4050402 	.word	0xb4050402
    2ccc:	10000fc0 	.word	0x10000fc0

00002cd0 <tcp_rst>:
    2cd0:	e92d 4ff0 	stmdb	sp!, {r4, r5, r6, r7, r8, r9, r10, r11, lr}
    2cd4:	4681      	mov	r9, r0
    2cd6:	b083      	sub	sp, #12
    2cd8:	460e      	mov	r6, r1
    2cda:	4690      	mov	r8, r2
    2cdc:	2001      	movs	r0, #1
    2cde:	2114      	movs	r1, #20
    2ce0:	2200      	movs	r2, #0
    2ce2:	461f      	mov	r7, r3
    2ce4:	f8bd b030 	ldrh.w	r11, [sp, #48]	; 0x30
    2ce8:	f8bd a034 	ldrh.w	r10, [sp, #52]	; 0x34
    2cec:	f7fe fd4c 	bl	1788 <pbuf_alloc>
    2cf0:	4605      	mov	r5, r0
    2cf2:	2800      	cmp	r0, #0
    2cf4:	d033      	beq.n	2d5e <tcp_rst+0x8e>
    2cf6:	6844      	ldr	r4, [r0, #4]
    2cf8:	fa9b fb9b 	rev16.w	r11, r11
    2cfc:	f8a4 b000 	strh.w	r11, [r4]
    2d00:	fa9a fa9a 	rev16.w	r10, r10
    2d04:	fa99 f989 	rev.w	r9, r9
    2d08:	ba36      	rev	r6, r6
    2d0a:	f8c4 9004 	str.w	r9, [r4, #4]
    2d0e:	60a6      	str	r6, [r4, #8]
    2d10:	f8a4 a002 	strh.w	r10, [r4, #2]
    2d14:	f245 0014 	movw	r0, #20500	; 0x5014
    2d18:	ba40      	rev16	r0, r0
    2d1a:	892b      	ldrh	r3, [r5, #8]
    2d1c:	2600      	movs	r6, #0
    2d1e:	210b      	movs	r1, #11
    2d20:	2268      	movs	r2, #104	; 0x68
    2d22:	81a0      	strh	r0, [r4, #12]
    2d24:	73a1      	strb	r1, [r4, #14]
    2d26:	73e2      	strb	r2, [r4, #15]
    2d28:	7426      	strb	r6, [r4, #16]
    2d2a:	7466      	strb	r6, [r4, #17]
    2d2c:	74a6      	strb	r6, [r4, #18]
    2d2e:	74e6      	strb	r6, [r4, #19]
    2d30:	4641      	mov	r1, r8
    2d32:	9300      	str	r3, [sp, #0]
    2d34:	463a      	mov	r2, r7
    2d36:	4628      	mov	r0, r5
    2d38:	2306      	movs	r3, #6
    2d3a:	f000 fbc7 	bl	34cc <inet_chksum_pseudo>
    2d3e:	2306      	movs	r3, #6
    2d40:	8220      	strh	r0, [r4, #16]
    2d42:	4641      	mov	r1, r8
    2d44:	9301      	str	r3, [sp, #4]
    2d46:	9600      	str	r6, [sp, #0]
    2d48:	463a      	mov	r2, r7
    2d4a:	4628      	mov	r0, r5
    2d4c:	23ff      	movs	r3, #255	; 0xff
    2d4e:	f000 fe53 	bl	39f8 <ip_output>
    2d52:	4628      	mov	r0, r5
    2d54:	b003      	add	sp, #12
    2d56:	e8bd 4ff0 	ldmia.w	sp!, {r4, r5, r6, r7, r8, r9, r10, r11, lr}
    2d5a:	f7fe bcdf 	b.w	171c <pbuf_free>
    2d5e:	b003      	add	sp, #12
    2d60:	e8bd 8ff0 	ldmia.w	sp!, {r4, r5, r6, r7, r8, r9, r10, r11, pc}

00002d64 <tcp_rexmit_rto>:
    2d64:	b430      	push	{r4, r5}
    2d66:	6f84      	ldr	r4, [r0, #120]	; 0x78
    2d68:	4601      	mov	r1, r0
    2d6a:	b19c      	cbz	r4, 2d94 <tcp_rexmit_rto+0x30>
    2d6c:	4622      	mov	r2, r4
    2d6e:	e000      	b.n	2d72 <tcp_rexmit_rto+0xe>
    2d70:	461a      	mov	r2, r3
    2d72:	6813      	ldr	r3, [r2, #0]
    2d74:	2b00      	cmp	r3, #0
    2d76:	d1fb      	bne.n	2d70 <tcp_rexmit_rto+0xc>
    2d78:	6f4d      	ldr	r5, [r1, #116]	; 0x74
    2d7a:	4608      	mov	r0, r1
    2d7c:	6015      	str	r5, [r2, #0]
    2d7e:	f891 204a 	ldrb.w	r2, [r1, #74]	; 0x4a
    2d82:	674c      	str	r4, [r1, #116]	; 0x74
    2d84:	3201      	adds	r2, #1
    2d86:	f881 204a 	strb.w	r2, [r1, #74]	; 0x4a
    2d8a:	678b      	str	r3, [r1, #120]	; 0x78
    2d8c:	63cb      	str	r3, [r1, #60]	; 0x3c
    2d8e:	bc30      	pop	{r4, r5}
    2d90:	f7ff be56 	b.w	2a40 <tcp_output>
    2d94:	bc30      	pop	{r4, r5}
    2d96:	4770      	bx	lr

00002d98 <tcp_rexmit>:
    2d98:	b430      	push	{r4, r5}
    2d9a:	6f85      	ldr	r5, [r0, #120]	; 0x78
    2d9c:	b1dd      	cbz	r5, 2dd6 <tcp_rexmit+0x3e>
    2d9e:	682a      	ldr	r2, [r5, #0]
    2da0:	6f43      	ldr	r3, [r0, #116]	; 0x74
    2da2:	6782      	str	r2, [r0, #120]	; 0x78
    2da4:	f100 0174 	add.w	r1, r0, #116	; 0x74
    2da8:	b163      	cbz	r3, 2dc4 <tcp_rexmit+0x2c>
    2daa:	692a      	ldr	r2, [r5, #16]
    2dac:	6854      	ldr	r4, [r2, #4]
    2dae:	ba24      	rev	r4, r4
    2db0:	e002      	b.n	2db8 <tcp_rexmit+0x20>
    2db2:	4619      	mov	r1, r3
    2db4:	681b      	ldr	r3, [r3, #0]
    2db6:	b12b      	cbz	r3, 2dc4 <tcp_rexmit+0x2c>
    2db8:	691a      	ldr	r2, [r3, #16]
    2dba:	6852      	ldr	r2, [r2, #4]
    2dbc:	ba12      	rev	r2, r2
    2dbe:	1b12      	subs	r2, r2, r4
    2dc0:	2a00      	cmp	r2, #0
    2dc2:	dbf6      	blt.n	2db2 <tcp_rexmit+0x1a>
    2dc4:	602b      	str	r3, [r5, #0]
    2dc6:	600d      	str	r5, [r1, #0]
    2dc8:	f890 204a 	ldrb.w	r2, [r0, #74]	; 0x4a
    2dcc:	2300      	movs	r3, #0
    2dce:	3201      	adds	r2, #1
    2dd0:	f880 204a 	strb.w	r2, [r0, #74]	; 0x4a
    2dd4:	63c3      	str	r3, [r0, #60]	; 0x3c
    2dd6:	bc30      	pop	{r4, r5}
    2dd8:	4770      	bx	lr
    2dda:	bf00      	nop

00002ddc <tcp_rexmit_fast>:
    2ddc:	6f83      	ldr	r3, [r0, #120]	; 0x78
    2dde:	b510      	push	{r4, lr}
    2de0:	4604      	mov	r4, r0
    2de2:	b30b      	cbz	r3, 2e28 <tcp_rexmit_fast+0x4c>
    2de4:	f890 3020 	ldrb.w	r3, [r0, #32]
    2de8:	075b      	lsls	r3, r3, #29
    2dea:	d41d      	bmi.n	2e28 <tcp_rexmit_fast+0x4c>
    2dec:	f7ff ffd4 	bl	2d98 <tcp_rexmit>
    2df0:	f8b4 3052 	ldrh.w	r3, [r4, #82]	; 0x52
    2df4:	f8b4 205c 	ldrh.w	r2, [r4, #92]	; 0x5c
    2df8:	8f21      	ldrh	r1, [r4, #56]	; 0x38
    2dfa:	4293      	cmp	r3, r2
    2dfc:	bf8c      	ite	hi
    2dfe:	0853      	lsrhi	r3, r2, #1
    2e00:	085b      	lsrls	r3, r3, #1
    2e02:	004a      	lsls	r2, r1, #1
    2e04:	4293      	cmp	r3, r2
    2e06:	f894 0020 	ldrb.w	r0, [r4, #32]
    2e0a:	f8a4 3054 	strh.w	r3, [r4, #84]	; 0x54
    2e0e:	bfb8      	it	lt
    2e10:	b293      	uxthlt	r3, r2
    2e12:	440a      	add	r2, r1
    2e14:	bfb8      	it	lt
    2e16:	f8a4 3054 	strhlt.w	r3, [r4, #84]	; 0x54
    2e1a:	f040 0004 	orr.w	r0, r0, #4
    2e1e:	4413      	add	r3, r2
    2e20:	f8a4 3052 	strh.w	r3, [r4, #82]	; 0x52
    2e24:	f884 0020 	strb.w	r0, [r4, #32]
    2e28:	bd10      	pop	{r4, pc}
    2e2a:	bf00      	nop

00002e2c <tcp_keepalive>:
    2e2c:	b5f0      	push	{r4, r5, r6, r7, lr}
    2e2e:	6d82      	ldr	r2, [r0, #88]	; 0x58
    2e30:	b083      	sub	sp, #12
    2e32:	3a01      	subs	r2, #1
    2e34:	2100      	movs	r1, #0
    2e36:	ba12      	rev	r2, r2
    2e38:	4604      	mov	r4, r0
    2e3a:	f7ff fb8b 	bl	2554 <tcp_output_alloc_header.constprop.1>
    2e3e:	4605      	mov	r5, r0
    2e40:	b1c8      	cbz	r0, 2e76 <tcp_keepalive+0x4a>
    2e42:	8903      	ldrh	r3, [r0, #8]
    2e44:	1d26      	adds	r6, r4, #4
    2e46:	6847      	ldr	r7, [r0, #4]
    2e48:	4632      	mov	r2, r6
    2e4a:	9300      	str	r3, [sp, #0]
    2e4c:	4621      	mov	r1, r4
    2e4e:	2306      	movs	r3, #6
    2e50:	f000 fb3c 	bl	34cc <inet_chksum_pseudo>
    2e54:	8238      	strh	r0, [r7, #16]
    2e56:	2700      	movs	r7, #0
    2e58:	2006      	movs	r0, #6
    2e5a:	7aa3      	ldrb	r3, [r4, #10]
    2e5c:	4632      	mov	r2, r6
    2e5e:	9001      	str	r0, [sp, #4]
    2e60:	4621      	mov	r1, r4
    2e62:	9700      	str	r7, [sp, #0]
    2e64:	4628      	mov	r0, r5
    2e66:	f000 fdc7 	bl	39f8 <ip_output>
    2e6a:	4628      	mov	r0, r5
    2e6c:	b003      	add	sp, #12
    2e6e:	e8bd 40f0 	ldmia.w	sp!, {r4, r5, r6, r7, lr}
    2e72:	f7fe bc53 	b.w	171c <pbuf_free>
    2e76:	b003      	add	sp, #12
    2e78:	bdf0      	pop	{r4, r5, r6, r7, pc}
    2e7a:	bf00      	nop

00002e7c <tcp_zero_window_probe>:
    2e7c:	e92d 41f0 	stmdb	sp!, {r4, r5, r6, r7, r8, lr}
    2e80:	6f86      	ldr	r6, [r0, #120]	; 0x78
    2e82:	b082      	sub	sp, #8
    2e84:	4604      	mov	r4, r0
    2e86:	2e00      	cmp	r6, #0
    2e88:	d049      	beq.n	2f1e <tcp_zero_window_probe+0xa2>
    2e8a:	6933      	ldr	r3, [r6, #16]
    2e8c:	899a      	ldrh	r2, [r3, #12]
    2e8e:	ba52      	rev16	r2, r2
    2e90:	f012 0801 	ands.w	r8, r2, #1
    2e94:	d12c      	bne.n	2ef0 <tcp_zero_window_probe+0x74>
    2e96:	2101      	movs	r1, #1
    2e98:	685a      	ldr	r2, [r3, #4]
    2e9a:	4620      	mov	r0, r4
    2e9c:	f7ff fb5a 	bl	2554 <tcp_output_alloc_header.constprop.1>
    2ea0:	4605      	mov	r5, r0
    2ea2:	2800      	cmp	r0, #0
    2ea4:	d03e      	beq.n	2f24 <tcp_zero_window_probe+0xa8>
    2ea6:	6847      	ldr	r7, [r0, #4]
    2ea8:	f1b8 0f00 	cmp.w	r8, #0
    2eac:	d026      	beq.n	2efc <tcp_zero_window_probe+0x80>
    2eae:	2211      	movs	r2, #17
    2eb0:	ba52      	rev16	r2, r2
    2eb2:	89bb      	ldrh	r3, [r7, #12]
    2eb4:	f423 537c 	bic.w	r3, r3, #16128	; 0x3f00
    2eb8:	4313      	orrs	r3, r2
    2eba:	81bb      	strh	r3, [r7, #12]
    2ebc:	892b      	ldrh	r3, [r5, #8]
    2ebe:	1d26      	adds	r6, r4, #4
    2ec0:	9300      	str	r3, [sp, #0]
    2ec2:	4632      	mov	r2, r6
    2ec4:	4621      	mov	r1, r4
    2ec6:	4628      	mov	r0, r5
    2ec8:	2306      	movs	r3, #6
    2eca:	f000 faff 	bl	34cc <inet_chksum_pseudo>
    2ece:	8238      	strh	r0, [r7, #16]
    2ed0:	2700      	movs	r7, #0
    2ed2:	2006      	movs	r0, #6
    2ed4:	7aa3      	ldrb	r3, [r4, #10]
    2ed6:	4632      	mov	r2, r6
    2ed8:	9001      	str	r0, [sp, #4]
    2eda:	4621      	mov	r1, r4
    2edc:	9700      	str	r7, [sp, #0]
    2ede:	4628      	mov	r0, r5
    2ee0:	f000 fd8a 	bl	39f8 <ip_output>
    2ee4:	4628      	mov	r0, r5
    2ee6:	b002      	add	sp, #8
    2ee8:	e8bd 41f0 	ldmia.w	sp!, {r4, r5, r6, r7, r8, lr}
    2eec:	f7fe bc16 	b.w	171c <pbuf_free>
    2ef0:	8931      	ldrh	r1, [r6, #8]
    2ef2:	b189      	cbz	r1, 2f18 <tcp_zero_window_probe+0x9c>
    2ef4:	2101      	movs	r1, #1
    2ef6:	f04f 0800 	mov.w	r8, #0
    2efa:	e7cd      	b.n	2e98 <tcp_zero_window_probe+0x1c>
    2efc:	6870      	ldr	r0, [r6, #4]
    2efe:	6843      	ldr	r3, [r0, #4]
    2f00:	899a      	ldrh	r2, [r3, #12]
    2f02:	ba52      	rev16	r2, r2
    2f04:	f64f 73fc 	movw	r3, #65532	; 0xfffc
    2f08:	0a92      	lsrs	r2, r2, #10
    2f0a:	4013      	ands	r3, r2
    2f0c:	f107 0114 	add.w	r1, r7, #20
    2f10:	2201      	movs	r2, #1
    2f12:	f7fe fd7f 	bl	1a14 <pbuf_copy_partial>
    2f16:	e7d1      	b.n	2ebc <tcp_zero_window_probe+0x40>
    2f18:	f04f 0801 	mov.w	r8, #1
    2f1c:	e7bc      	b.n	2e98 <tcp_zero_window_probe+0x1c>
    2f1e:	6f46      	ldr	r6, [r0, #116]	; 0x74
    2f20:	2e00      	cmp	r6, #0
    2f22:	d1b2      	bne.n	2e8a <tcp_zero_window_probe+0xe>
    2f24:	b002      	add	sp, #8
    2f26:	e8bd 81f0 	ldmia.w	sp!, {r4, r5, r6, r7, r8, pc}
    2f2a:	bf00      	nop

00002f2c <sys_timeout>:
    2f2c:	e92d 41f0 	stmdb	sp!, {r4, r5, r6, r7, r8, lr}
    2f30:	4606      	mov	r6, r0
    2f32:	200b      	movs	r0, #11
    2f34:	4688      	mov	r8, r1
    2f36:	4617      	mov	r7, r2
    2f38:	f7fe fa70 	bl	141c <memp_malloc>
    2f3c:	4605      	mov	r5, r0
    2f3e:	b1d0      	cbz	r0, 2f76 <sys_timeout+0x4a>
    2f40:	4815      	ldr	r0, [pc, #84]	; (2f98 <sys_timeout+0x6c>)
    2f42:	2300      	movs	r3, #0
    2f44:	6804      	ldr	r4, [r0, #0]
    2f46:	f8c5 8008 	str.w	r8, [r5, #8]
    2f4a:	60ef      	str	r7, [r5, #12]
    2f4c:	e885 0048 	stmia.w	r5, {r3, r6}
    2f50:	b1fc      	cbz	r4, 2f92 <sys_timeout+0x66>
    2f52:	6861      	ldr	r1, [r4, #4]
    2f54:	428e      	cmp	r6, r1
    2f56:	d310      	bcc.n	2f7a <sys_timeout+0x4e>
    2f58:	4633      	mov	r3, r6
    2f5a:	e003      	b.n	2f64 <sys_timeout+0x38>
    2f5c:	6851      	ldr	r1, [r2, #4]
    2f5e:	428b      	cmp	r3, r1
    2f60:	d311      	bcc.n	2f86 <sys_timeout+0x5a>
    2f62:	4614      	mov	r4, r2
    2f64:	6822      	ldr	r2, [r4, #0]
    2f66:	1a5b      	subs	r3, r3, r1
    2f68:	606b      	str	r3, [r5, #4]
    2f6a:	2a00      	cmp	r2, #0
    2f6c:	d1f6      	bne.n	2f5c <sys_timeout+0x30>
    2f6e:	602a      	str	r2, [r5, #0]
    2f70:	6025      	str	r5, [r4, #0]
    2f72:	e8bd 81f0 	ldmia.w	sp!, {r4, r5, r6, r7, r8, pc}
    2f76:	e8bd 81f0 	ldmia.w	sp!, {r4, r5, r6, r7, r8, pc}
    2f7a:	1b89      	subs	r1, r1, r6
    2f7c:	6061      	str	r1, [r4, #4]
    2f7e:	6005      	str	r5, [r0, #0]
    2f80:	602c      	str	r4, [r5, #0]
    2f82:	e8bd 81f0 	ldmia.w	sp!, {r4, r5, r6, r7, r8, pc}
    2f86:	1acb      	subs	r3, r1, r3
    2f88:	6053      	str	r3, [r2, #4]
    2f8a:	602a      	str	r2, [r5, #0]
    2f8c:	6025      	str	r5, [r4, #0]
    2f8e:	e8bd 81f0 	ldmia.w	sp!, {r4, r5, r6, r7, r8, pc}
    2f92:	6005      	str	r5, [r0, #0]
    2f94:	e8bd 81f0 	ldmia.w	sp!, {r4, r5, r6, r7, r8, pc}
    2f98:	10000314 	.word	0x10000314

00002f9c <tcp_timer_needed>:
    2f9c:	4b0b      	ldr	r3, [pc, #44]	; (2fcc <tcp_timer_needed+0x30>)
    2f9e:	b410      	push	{r4}
    2fa0:	681a      	ldr	r2, [r3, #0]
    2fa2:	b97a      	cbnz	r2, 2fc4 <tcp_timer_needed+0x28>
    2fa4:	4a0a      	ldr	r2, [pc, #40]	; (2fd0 <tcp_timer_needed+0x34>)
    2fa6:	6812      	ldr	r2, [r2, #0]
    2fa8:	b142      	cbz	r2, 2fbc <tcp_timer_needed+0x20>
    2faa:	2401      	movs	r4, #1
    2fac:	601c      	str	r4, [r3, #0]
    2fae:	20fa      	movs	r0, #250	; 0xfa
    2fb0:	4908      	ldr	r1, [pc, #32]	; (2fd4 <tcp_timer_needed+0x38>)
    2fb2:	2200      	movs	r2, #0
    2fb4:	f85d 4b04 	ldr.w	r4, [sp], #4
    2fb8:	f7ff bfb8 	b.w	2f2c <sys_timeout>
    2fbc:	4a06      	ldr	r2, [pc, #24]	; (2fd8 <tcp_timer_needed+0x3c>)
    2fbe:	6812      	ldr	r2, [r2, #0]
    2fc0:	2a00      	cmp	r2, #0
    2fc2:	d1f2      	bne.n	2faa <tcp_timer_needed+0xe>
    2fc4:	f85d 4b04 	ldr.w	r4, [sp], #4
    2fc8:	4770      	bx	lr
    2fca:	bf00      	nop
    2fcc:	10000310 	.word	0x10000310
    2fd0:	10000fbc 	.word	0x10000fbc
    2fd4:	00002fdd 	.word	0x00002fdd
    2fd8:	10000fd0 	.word	0x10000fd0

00002fdc <tcpip_tcp_timer>:
    2fdc:	b508      	push	{r3, lr}
    2fde:	f7ff f897 	bl	2110 <tcp_tmr>
    2fe2:	4b08      	ldr	r3, [pc, #32]	; (3004 <tcpip_tcp_timer+0x28>)
    2fe4:	681b      	ldr	r3, [r3, #0]
    2fe6:	b133      	cbz	r3, 2ff6 <tcpip_tcp_timer+0x1a>
    2fe8:	20fa      	movs	r0, #250	; 0xfa
    2fea:	4907      	ldr	r1, [pc, #28]	; (3008 <tcpip_tcp_timer+0x2c>)
    2fec:	2200      	movs	r2, #0
    2fee:	e8bd 4008 	ldmia.w	sp!, {r3, lr}
    2ff2:	f7ff bf9b 	b.w	2f2c <sys_timeout>
    2ff6:	4b05      	ldr	r3, [pc, #20]	; (300c <tcpip_tcp_timer+0x30>)
    2ff8:	681b      	ldr	r3, [r3, #0]
    2ffa:	2b00      	cmp	r3, #0
    2ffc:	d1f4      	bne.n	2fe8 <tcpip_tcp_timer+0xc>
    2ffe:	4a04      	ldr	r2, [pc, #16]	; (3010 <tcpip_tcp_timer+0x34>)
    3000:	6013      	str	r3, [r2, #0]
    3002:	bd08      	pop	{r3, pc}
    3004:	10000fbc 	.word	0x10000fbc
    3008:	00002fdd 	.word	0x00002fdd
    300c:	10000fd0 	.word	0x10000fd0
    3010:	10000310 	.word	0x10000310

00003014 <sys_timeouts_init>:
    3014:	b508      	push	{r3, lr}
    3016:	f44f 707a 	mov.w	r0, #1000	; 0x3e8
    301a:	4911      	ldr	r1, [pc, #68]	; (3060 <sys_timeouts_init+0x4c>)
    301c:	2200      	movs	r2, #0
    301e:	f7ff ff85 	bl	2f2c <sys_timeout>
    3022:	f241 3088 	movw	r0, #5000	; 0x1388
    3026:	490f      	ldr	r1, [pc, #60]	; (3064 <sys_timeouts_init+0x50>)
    3028:	2200      	movs	r2, #0
    302a:	f7ff ff7f 	bl	2f2c <sys_timeout>
    302e:	f64e 2060 	movw	r0, #60000	; 0xea60
    3032:	490d      	ldr	r1, [pc, #52]	; (3068 <sys_timeouts_init+0x54>)
    3034:	2200      	movs	r2, #0
    3036:	f7ff ff79 	bl	2f2c <sys_timeout>
    303a:	f44f 70fa 	mov.w	r0, #500	; 0x1f4
    303e:	490b      	ldr	r1, [pc, #44]	; (306c <sys_timeouts_init+0x58>)
    3040:	2200      	movs	r2, #0
    3042:	f7ff ff73 	bl	2f2c <sys_timeout>
    3046:	2064      	movs	r0, #100	; 0x64
    3048:	4909      	ldr	r1, [pc, #36]	; (3070 <sys_timeouts_init+0x5c>)
    304a:	2200      	movs	r2, #0
    304c:	f7ff ff6e 	bl	2f2c <sys_timeout>
    3050:	e8bd 4008 	ldmia.w	sp!, {r3, lr}
    3054:	f44f 707a 	mov.w	r0, #1000	; 0x3e8
    3058:	4906      	ldr	r1, [pc, #24]	; (3074 <sys_timeouts_init+0x60>)
    305a:	2200      	movs	r2, #0
    305c:	f7ff bf66 	b.w	2f2c <sys_timeout>
    3060:	00003101 	.word	0x00003101
    3064:	000030e5 	.word	0x000030e5
    3068:	000030c9 	.word	0x000030c9
    306c:	000030ad 	.word	0x000030ad
    3070:	00003095 	.word	0x00003095
    3074:	00003079 	.word	0x00003079

00003078 <dns_timer>:
    3078:	b508      	push	{r3, lr}
    307a:	f003 ffc9 	bl	7010 <dns_tmr>
    307e:	e8bd 4008 	ldmia.w	sp!, {r3, lr}
    3082:	f44f 707a 	mov.w	r0, #1000	; 0x3e8
    3086:	4902      	ldr	r1, [pc, #8]	; (3090 <dns_timer+0x18>)
    3088:	2200      	movs	r2, #0
    308a:	f7ff bf4f 	b.w	2f2c <sys_timeout>
    308e:	bf00      	nop
    3090:	00003079 	.word	0x00003079

00003094 <igmp_timer>:
    3094:	b508      	push	{r3, lr}
    3096:	f000 fa01 	bl	349c <igmp_tmr>
    309a:	e8bd 4008 	ldmia.w	sp!, {r3, lr}
    309e:	2064      	movs	r0, #100	; 0x64
    30a0:	4901      	ldr	r1, [pc, #4]	; (30a8 <igmp_timer+0x14>)
    30a2:	2200      	movs	r2, #0
    30a4:	f7ff bf42 	b.w	2f2c <sys_timeout>
    30a8:	00003095 	.word	0x00003095

000030ac <dhcp_timer_fine>:
    30ac:	b508      	push	{r3, lr}
    30ae:	f003 fce1 	bl	6a74 <dhcp_fine_tmr>
    30b2:	e8bd 4008 	ldmia.w	sp!, {r3, lr}
    30b6:	f44f 70fa 	mov.w	r0, #500	; 0x1f4
    30ba:	4902      	ldr	r1, [pc, #8]	; (30c4 <dhcp_timer_fine+0x18>)
    30bc:	2200      	movs	r2, #0
    30be:	f7ff bf35 	b.w	2f2c <sys_timeout>
    30c2:	bf00      	nop
    30c4:	000030ad 	.word	0x000030ad

000030c8 <dhcp_timer_coarse>:
    30c8:	b508      	push	{r3, lr}
    30ca:	f003 fc49 	bl	6960 <dhcp_coarse_tmr>
    30ce:	e8bd 4008 	ldmia.w	sp!, {r3, lr}
    30d2:	f64e 2060 	movw	r0, #60000	; 0xea60
    30d6:	4902      	ldr	r1, [pc, #8]	; (30e0 <dhcp_timer_coarse+0x18>)
    30d8:	2200      	movs	r2, #0
    30da:	f7ff bf27 	b.w	2f2c <sys_timeout>
    30de:	bf00      	nop
    30e0:	000030c9 	.word	0x000030c9

000030e4 <arp_timer>:
    30e4:	b508      	push	{r3, lr}
    30e6:	f001 f981 	bl	43ec <etharp_tmr>
    30ea:	e8bd 4008 	ldmia.w	sp!, {r3, lr}
    30ee:	f241 3088 	movw	r0, #5000	; 0x1388
    30f2:	4902      	ldr	r1, [pc, #8]	; (30fc <arp_timer+0x18>)
    30f4:	2200      	movs	r2, #0
    30f6:	f7ff bf19 	b.w	2f2c <sys_timeout>
    30fa:	bf00      	nop
    30fc:	000030e5 	.word	0x000030e5

00003100 <ip_reass_timer>:
    3100:	b508      	push	{r3, lr}
    3102:	f000 fe55 	bl	3db0 <ip_reass_tmr>
    3106:	e8bd 4008 	ldmia.w	sp!, {r3, lr}
    310a:	f44f 707a 	mov.w	r0, #1000	; 0x3e8
    310e:	4902      	ldr	r1, [pc, #8]	; (3118 <ip_reass_timer+0x18>)
    3110:	2200      	movs	r2, #0
    3112:	f7ff bf0b 	b.w	2f2c <sys_timeout>
    3116:	bf00      	nop
    3118:	00003101 	.word	0x00003101

0000311c <sys_untimeout>:
    311c:	b430      	push	{r4, r5}
    311e:	4d10      	ldr	r5, [pc, #64]	; (3160 <sys_untimeout+0x44>)
    3120:	682b      	ldr	r3, [r5, #0]
    3122:	b1cb      	cbz	r3, 3158 <sys_untimeout+0x3c>
    3124:	2400      	movs	r4, #0
    3126:	e003      	b.n	3130 <sys_untimeout+0x14>
    3128:	681a      	ldr	r2, [r3, #0]
    312a:	461c      	mov	r4, r3
    312c:	b1a2      	cbz	r2, 3158 <sys_untimeout+0x3c>
    312e:	4613      	mov	r3, r2
    3130:	689a      	ldr	r2, [r3, #8]
    3132:	4282      	cmp	r2, r0
    3134:	d1f8      	bne.n	3128 <sys_untimeout+0xc>
    3136:	68da      	ldr	r2, [r3, #12]
    3138:	428a      	cmp	r2, r1
    313a:	d1f5      	bne.n	3128 <sys_untimeout+0xc>
    313c:	681a      	ldr	r2, [r3, #0]
    313e:	b16c      	cbz	r4, 315c <sys_untimeout+0x40>
    3140:	6022      	str	r2, [r4, #0]
    3142:	681a      	ldr	r2, [r3, #0]
    3144:	b11a      	cbz	r2, 314e <sys_untimeout+0x32>
    3146:	6850      	ldr	r0, [r2, #4]
    3148:	6859      	ldr	r1, [r3, #4]
    314a:	4401      	add	r1, r0
    314c:	6051      	str	r1, [r2, #4]
    314e:	4619      	mov	r1, r3
    3150:	200b      	movs	r0, #11
    3152:	bc30      	pop	{r4, r5}
    3154:	f7fe b978 	b.w	1448 <memp_free>
    3158:	bc30      	pop	{r4, r5}
    315a:	4770      	bx	lr
    315c:	602a      	str	r2, [r5, #0]
    315e:	e7f1      	b.n	3144 <sys_untimeout+0x28>
    3160:	10000314 	.word	0x10000314

00003164 <sys_timeouts_mbox_fetch>:
    3164:	e92d 47f0 	stmdb	sp!, {r4, r5, r6, r7, r8, r9, r10, lr}
    3168:	4c19      	ldr	r4, [pc, #100]	; (31d0 <sys_timeouts_mbox_fetch+0x6c>)
    316a:	4606      	mov	r6, r0
    316c:	460d      	mov	r5, r1
    316e:	46a2      	mov	r10, r4
    3170:	e009      	b.n	3186 <sys_timeouts_mbox_fetch+0x22>
    3172:	681a      	ldr	r2, [r3, #0]
    3174:	689f      	ldr	r7, [r3, #8]
    3176:	200b      	movs	r0, #11
    3178:	4619      	mov	r1, r3
    317a:	6022      	str	r2, [r4, #0]
    317c:	f8d3 900c 	ldr.w	r9, [r3, #12]
    3180:	f7fe f962 	bl	1448 <memp_free>
    3184:	bb0f      	cbnz	r7, 31ca <sys_timeouts_mbox_fetch+0x66>
    3186:	6823      	ldr	r3, [r4, #0]
    3188:	f8df 8044 	ldr.w	r8, [pc, #68]	; 31d0 <sys_timeouts_mbox_fetch+0x6c>
    318c:	b15b      	cbz	r3, 31a6 <sys_timeouts_mbox_fetch+0x42>
    318e:	685a      	ldr	r2, [r3, #4]
    3190:	2a00      	cmp	r2, #0
    3192:	d0ee      	beq.n	3172 <sys_timeouts_mbox_fetch+0xe>
    3194:	4630      	mov	r0, r6
    3196:	4629      	mov	r1, r5
    3198:	f001 fc44 	bl	4a24 <sys_arch_mbox_fetch>
    319c:	1c43      	adds	r3, r0, #1
    319e:	d109      	bne.n	31b4 <sys_timeouts_mbox_fetch+0x50>
    31a0:	f8da 3000 	ldr.w	r3, [r10]
    31a4:	e7e5      	b.n	3172 <sys_timeouts_mbox_fetch+0xe>
    31a6:	4630      	mov	r0, r6
    31a8:	4629      	mov	r1, r5
    31aa:	461a      	mov	r2, r3
    31ac:	e8bd 47f0 	ldmia.w	sp!, {r4, r5, r6, r7, r8, r9, r10, lr}
    31b0:	f001 bc38 	b.w	4a24 <sys_arch_mbox_fetch>
    31b4:	f8d8 3000 	ldr.w	r3, [r8]
    31b8:	685a      	ldr	r2, [r3, #4]
    31ba:	4282      	cmp	r2, r0
    31bc:	bf8c      	ite	hi
    31be:	ebc0 0202 	rsbhi	r2, r0, r2
    31c2:	2200      	movls	r2, #0
    31c4:	605a      	str	r2, [r3, #4]
    31c6:	e8bd 87f0 	ldmia.w	sp!, {r4, r5, r6, r7, r8, r9, r10, pc}
    31ca:	4648      	mov	r0, r9
    31cc:	47b8      	blx	r7
    31ce:	e7da      	b.n	3186 <sys_timeouts_mbox_fetch+0x22>
    31d0:	10000314 	.word	0x10000314

000031d4 <igmp_send>:
    31d4:	e92d 43f0 	stmdb	sp!, {r4, r5, r6, r7, r8, r9, lr}
    31d8:	4b25      	ldr	r3, [pc, #148]	; (3270 <igmp_send+0x9c>)
    31da:	4606      	mov	r6, r0
    31dc:	681b      	ldr	r3, [r3, #0]
    31de:	2000      	movs	r0, #0
    31e0:	b089      	sub	sp, #36	; 0x24
    31e2:	460f      	mov	r7, r1
    31e4:	4602      	mov	r2, r0
    31e6:	2108      	movs	r1, #8
    31e8:	9306      	str	r3, [sp, #24]
    31ea:	f7fe facd 	bl	1788 <pbuf_alloc>
    31ee:	4604      	mov	r4, r0
    31f0:	b150      	cbz	r0, 3208 <igmp_send+0x34>
    31f2:	6873      	ldr	r3, [r6, #4]
    31f4:	2f16      	cmp	r7, #22
    31f6:	685b      	ldr	r3, [r3, #4]
    31f8:	6845      	ldr	r5, [r0, #4]
    31fa:	9306      	str	r3, [sp, #24]
    31fc:	d007      	beq.n	320e <igmp_send+0x3a>
    31fe:	2f17      	cmp	r7, #23
    3200:	d030      	beq.n	3264 <igmp_send+0x90>
    3202:	4620      	mov	r0, r4
    3204:	f7fe fa8a 	bl	171c <pbuf_free>
    3208:	b009      	add	sp, #36	; 0x24
    320a:	e8bd 83f0 	ldmia.w	sp!, {r4, r5, r6, r7, r8, r9, pc}
    320e:	68b3      	ldr	r3, [r6, #8]
    3210:	2201      	movs	r2, #1
    3212:	606b      	str	r3, [r5, #4]
    3214:	f106 0908 	add.w	r9, r6, #8
    3218:	7332      	strb	r2, [r6, #12]
    321a:	f04f 0800 	mov.w	r8, #0
    321e:	702f      	strb	r7, [r5, #0]
    3220:	f885 8001 	strb.w	r8, [r5, #1]
    3224:	f885 8002 	strb.w	r8, [r5, #2]
    3228:	f885 8003 	strb.w	r8, [r5, #3]
    322c:	4628      	mov	r0, r5
    322e:	2108      	movs	r1, #8
    3230:	f000 f9e0 	bl	35f4 <inet_chksum>
    3234:	6877      	ldr	r7, [r6, #4]
    3236:	a907      	add	r1, sp, #28
    3238:	2602      	movs	r6, #2
    323a:	2304      	movs	r3, #4
    323c:	8068      	strh	r0, [r5, #2]
    323e:	464a      	mov	r2, r9
    3240:	9103      	str	r1, [sp, #12]
    3242:	9304      	str	r3, [sp, #16]
    3244:	f240 4594 	movw	r5, #1172	; 0x494
    3248:	f8cd 8000 	str.w	r8, [sp]
    324c:	9702      	str	r7, [sp, #8]
    324e:	9601      	str	r6, [sp, #4]
    3250:	4620      	mov	r0, r4
    3252:	a906      	add	r1, sp, #24
    3254:	2301      	movs	r3, #1
    3256:	f8ad 801e 	strh.w	r8, [sp, #30]
    325a:	f8ad 501c 	strh.w	r5, [sp, #28]
    325e:	f000 fb03 	bl	3868 <ip_output_if_opt>
    3262:	e7ce      	b.n	3202 <igmp_send+0x2e>
    3264:	68b3      	ldr	r3, [r6, #8]
    3266:	f8df 900c 	ldr.w	r9, [pc, #12]	; 3274 <igmp_send+0xa0>
    326a:	606b      	str	r3, [r5, #4]
    326c:	e7d5      	b.n	321a <igmp_send+0x46>
    326e:	bf00      	nop
    3270:	0000da2c 	.word	0x0000da2c
    3274:	1000031c 	.word	0x1000031c

00003278 <igmp_delaying_member>:
    3278:	b538      	push	{r3, r4, r5, lr}
    327a:	7b43      	ldrb	r3, [r0, #13]
    327c:	4604      	mov	r4, r0
    327e:	2b02      	cmp	r3, #2
    3280:	d004      	beq.n	328c <igmp_delaying_member+0x14>
    3282:	2b01      	cmp	r3, #1
    3284:	d000      	beq.n	3288 <igmp_delaying_member+0x10>
    3286:	bd38      	pop	{r3, r4, r5, pc}
    3288:	89c3      	ldrh	r3, [r0, #14]
    328a:	b973      	cbnz	r3, 32aa <igmp_delaying_member+0x32>
    328c:	b159      	cbz	r1, 32a6 <igmp_delaying_member+0x2e>
    328e:	1e4d      	subs	r5, r1, #1
    3290:	f008 ff7e 	bl	c190 <rand>
    3294:	fb90 f1f5 	sdiv	r1, r0, r5
    3298:	fb01 0015 	mls	r0, r1, r5, r0
    329c:	2301      	movs	r3, #1
    329e:	18c1      	adds	r1, r0, r3
    32a0:	7363      	strb	r3, [r4, #13]
    32a2:	81e1      	strh	r1, [r4, #14]
    32a4:	bd38      	pop	{r3, r4, r5, pc}
    32a6:	460d      	mov	r5, r1
    32a8:	e7f2      	b.n	3290 <igmp_delaying_member+0x18>
    32aa:	428b      	cmp	r3, r1
    32ac:	d8ee      	bhi.n	328c <igmp_delaying_member+0x14>
    32ae:	e7ea      	b.n	3286 <igmp_delaying_member+0xe>

000032b0 <igmp_lookup_group>:
    32b0:	b570      	push	{r4, r5, r6, lr}
    32b2:	4e11      	ldr	r6, [pc, #68]	; (32f8 <igmp_lookup_group+0x48>)
    32b4:	4604      	mov	r4, r0
    32b6:	6833      	ldr	r3, [r6, #0]
    32b8:	460d      	mov	r5, r1
    32ba:	b913      	cbnz	r3, 32c2 <igmp_lookup_group+0x12>
    32bc:	e00a      	b.n	32d4 <igmp_lookup_group+0x24>
    32be:	681b      	ldr	r3, [r3, #0]
    32c0:	b143      	cbz	r3, 32d4 <igmp_lookup_group+0x24>
    32c2:	685a      	ldr	r2, [r3, #4]
    32c4:	4294      	cmp	r4, r2
    32c6:	d1fa      	bne.n	32be <igmp_lookup_group+0xe>
    32c8:	6898      	ldr	r0, [r3, #8]
    32ca:	682a      	ldr	r2, [r5, #0]
    32cc:	4290      	cmp	r0, r2
    32ce:	d1f6      	bne.n	32be <igmp_lookup_group+0xe>
    32d0:	4618      	mov	r0, r3
    32d2:	bd70      	pop	{r4, r5, r6, pc}
    32d4:	200a      	movs	r0, #10
    32d6:	f7fe f8a1 	bl	141c <memp_malloc>
    32da:	b160      	cbz	r0, 32f6 <igmp_lookup_group+0x46>
    32dc:	6044      	str	r4, [r0, #4]
    32de:	b105      	cbz	r5, 32e2 <igmp_lookup_group+0x32>
    32e0:	682d      	ldr	r5, [r5, #0]
    32e2:	2300      	movs	r3, #0
    32e4:	6832      	ldr	r2, [r6, #0]
    32e6:	7343      	strb	r3, [r0, #13]
    32e8:	7303      	strb	r3, [r0, #12]
    32ea:	7403      	strb	r3, [r0, #16]
    32ec:	6085      	str	r5, [r0, #8]
    32ee:	6002      	str	r2, [r0, #0]
    32f0:	6030      	str	r0, [r6, #0]
    32f2:	81c3      	strh	r3, [r0, #14]
    32f4:	bd70      	pop	{r4, r5, r6, pc}
    32f6:	bd70      	pop	{r4, r5, r6, pc}
    32f8:	10000320 	.word	0x10000320

000032fc <igmp_init>:
    32fc:	4903      	ldr	r1, [pc, #12]	; (330c <igmp_init+0x10>)
    32fe:	4804      	ldr	r0, [pc, #16]	; (3310 <igmp_init+0x14>)
    3300:	4b04      	ldr	r3, [pc, #16]	; (3314 <igmp_init+0x18>)
    3302:	4a05      	ldr	r2, [pc, #20]	; (3318 <igmp_init+0x1c>)
    3304:	6008      	str	r0, [r1, #0]
    3306:	601a      	str	r2, [r3, #0]
    3308:	4770      	bx	lr
    330a:	bf00      	nop
    330c:	10000318 	.word	0x10000318
    3310:	010000e0 	.word	0x010000e0
    3314:	1000031c 	.word	0x1000031c
    3318:	020000e0 	.word	0x020000e0

0000331c <igmp_start>:
    331c:	b510      	push	{r4, lr}
    331e:	490c      	ldr	r1, [pc, #48]	; (3350 <igmp_start+0x34>)
    3320:	4604      	mov	r4, r0
    3322:	f7ff ffc5 	bl	32b0 <igmp_lookup_group>
    3326:	b180      	cbz	r0, 334a <igmp_start+0x2e>
    3328:	7c01      	ldrb	r1, [r0, #16]
    332a:	2202      	movs	r2, #2
    332c:	3101      	adds	r1, #1
    332e:	7401      	strb	r1, [r0, #16]
    3330:	7342      	strb	r2, [r0, #13]
    3332:	6c23      	ldr	r3, [r4, #64]	; 0x40
    3334:	b133      	cbz	r3, 3344 <igmp_start+0x28>
    3336:	4620      	mov	r0, r4
    3338:	4905      	ldr	r1, [pc, #20]	; (3350 <igmp_start+0x34>)
    333a:	2201      	movs	r2, #1
    333c:	4798      	blx	r3
    333e:	2000      	movs	r0, #0
    3340:	b240      	sxtb	r0, r0
    3342:	bd10      	pop	{r4, pc}
    3344:	4618      	mov	r0, r3
    3346:	b240      	sxtb	r0, r0
    3348:	bd10      	pop	{r4, pc}
    334a:	20ff      	movs	r0, #255	; 0xff
    334c:	e7f8      	b.n	3340 <igmp_start+0x24>
    334e:	bf00      	nop
    3350:	10000318 	.word	0x10000318

00003354 <igmp_report_groups>:
    3354:	b538      	push	{r3, r4, r5, lr}
    3356:	4b08      	ldr	r3, [pc, #32]	; (3378 <igmp_report_groups+0x24>)
    3358:	4605      	mov	r5, r0
    335a:	681c      	ldr	r4, [r3, #0]
    335c:	b12c      	cbz	r4, 336a <igmp_report_groups+0x16>
    335e:	6863      	ldr	r3, [r4, #4]
    3360:	42ab      	cmp	r3, r5
    3362:	d003      	beq.n	336c <igmp_report_groups+0x18>
    3364:	6824      	ldr	r4, [r4, #0]
    3366:	2c00      	cmp	r4, #0
    3368:	d1f9      	bne.n	335e <igmp_report_groups+0xa>
    336a:	bd38      	pop	{r3, r4, r5, pc}
    336c:	4620      	mov	r0, r4
    336e:	2105      	movs	r1, #5
    3370:	f7ff ff82 	bl	3278 <igmp_delaying_member>
    3374:	e7f6      	b.n	3364 <igmp_report_groups+0x10>
    3376:	bf00      	nop
    3378:	10000320 	.word	0x10000320

0000337c <igmp_lookfor_group>:
    337c:	b410      	push	{r4}
    337e:	4b07      	ldr	r3, [pc, #28]	; (339c <igmp_lookfor_group+0x20>)
    3380:	681b      	ldr	r3, [r3, #0]
    3382:	b133      	cbz	r3, 3392 <igmp_lookfor_group+0x16>
    3384:	685a      	ldr	r2, [r3, #4]
    3386:	4282      	cmp	r2, r0
    3388:	d1fa      	bne.n	3380 <igmp_lookfor_group+0x4>
    338a:	689c      	ldr	r4, [r3, #8]
    338c:	680a      	ldr	r2, [r1, #0]
    338e:	4294      	cmp	r4, r2
    3390:	d1f6      	bne.n	3380 <igmp_lookfor_group+0x4>
    3392:	4618      	mov	r0, r3
    3394:	f85d 4b04 	ldr.w	r4, [sp], #4
    3398:	4770      	bx	lr
    339a:	bf00      	nop
    339c:	10000320 	.word	0x10000320

000033a0 <igmp_input>:
    33a0:	e92d 41f0 	stmdb	sp!, {r4, r5, r6, r7, r8, lr}
    33a4:	6843      	ldr	r3, [r0, #4]
    33a6:	b082      	sub	sp, #8
    33a8:	460d      	mov	r5, r1
    33aa:	4606      	mov	r6, r0
    33ac:	4617      	mov	r7, r2
    33ae:	8819      	ldrh	r1, [r3, #0]
    33b0:	ba49      	rev16	r1, r1
    33b2:	f3c1 2103 	ubfx	r1, r1, #8, #4
    33b6:	0089      	lsls	r1, r1, #2
    33b8:	4249      	negs	r1, r1
    33ba:	f7fe f979 	bl	16b0 <pbuf_header>
    33be:	b910      	cbnz	r0, 33c6 <igmp_input+0x26>
    33c0:	8971      	ldrh	r1, [r6, #10]
    33c2:	2907      	cmp	r1, #7
    33c4:	d805      	bhi.n	33d2 <igmp_input+0x32>
    33c6:	4630      	mov	r0, r6
    33c8:	b002      	add	sp, #8
    33ca:	e8bd 41f0 	ldmia.w	sp!, {r4, r5, r6, r7, r8, lr}
    33ce:	f7fe b9a5 	b.w	171c <pbuf_free>
    33d2:	f8d6 8004 	ldr.w	r8, [r6, #4]
    33d6:	4640      	mov	r0, r8
    33d8:	f000 f90c 	bl	35f4 <inet_chksum>
    33dc:	2800      	cmp	r0, #0
    33de:	d1f2      	bne.n	33c6 <igmp_input+0x26>
    33e0:	4b2c      	ldr	r3, [pc, #176]	; (3494 <igmp_input+0xf4>)
    33e2:	681a      	ldr	r2, [r3, #0]
    33e4:	2a00      	cmp	r2, #0
    33e6:	d0ee      	beq.n	33c6 <igmp_input+0x26>
    33e8:	4613      	mov	r3, r2
    33ea:	e002      	b.n	33f2 <igmp_input+0x52>
    33ec:	681b      	ldr	r3, [r3, #0]
    33ee:	2b00      	cmp	r3, #0
    33f0:	d0e9      	beq.n	33c6 <igmp_input+0x26>
    33f2:	685c      	ldr	r4, [r3, #4]
    33f4:	42a5      	cmp	r5, r4
    33f6:	d1f9      	bne.n	33ec <igmp_input+0x4c>
    33f8:	6899      	ldr	r1, [r3, #8]
    33fa:	683c      	ldr	r4, [r7, #0]
    33fc:	42a1      	cmp	r1, r4
    33fe:	d1f5      	bne.n	33ec <igmp_input+0x4c>
    3400:	f898 0000 	ldrb.w	r0, [r8]
    3404:	2811      	cmp	r0, #17
    3406:	d00a      	beq.n	341e <igmp_input+0x7e>
    3408:	2816      	cmp	r0, #22
    340a:	d1dc      	bne.n	33c6 <igmp_input+0x26>
    340c:	7b5a      	ldrb	r2, [r3, #13]
    340e:	2a01      	cmp	r2, #1
    3410:	d1d9      	bne.n	33c6 <igmp_input+0x26>
    3412:	2200      	movs	r2, #0
    3414:	2102      	movs	r1, #2
    3416:	81da      	strh	r2, [r3, #14]
    3418:	731a      	strb	r2, [r3, #12]
    341a:	7359      	strb	r1, [r3, #13]
    341c:	e7d3      	b.n	33c6 <igmp_input+0x26>
    341e:	4c1e      	ldr	r4, [pc, #120]	; (3498 <igmp_input+0xf8>)
    3420:	6820      	ldr	r0, [r4, #0]
    3422:	4288      	cmp	r0, r1
    3424:	d00c      	beq.n	3440 <igmp_input+0xa0>
    3426:	f118 0f04 	cmn.w	r8, #4
    342a:	d0cc      	beq.n	33c6 <igmp_input+0x26>
    342c:	f8d8 1004 	ldr.w	r1, [r8, #4]
    3430:	2900      	cmp	r1, #0
    3432:	d0c8      	beq.n	33c6 <igmp_input+0x26>
    3434:	4618      	mov	r0, r3
    3436:	f898 1001 	ldrb.w	r1, [r8, #1]
    343a:	f7ff ff1d 	bl	3278 <igmp_delaying_member>
    343e:	e7c2      	b.n	33c6 <igmp_input+0x26>
    3440:	f118 0f04 	cmn.w	r8, #4
    3444:	d002      	beq.n	344c <igmp_input+0xac>
    3446:	f8d8 1004 	ldr.w	r1, [r8, #4]
    344a:	b9d9      	cbnz	r1, 3484 <igmp_input+0xe4>
    344c:	f898 3001 	ldrb.w	r3, [r8, #1]
    3450:	b933      	cbnz	r3, 3460 <igmp_input+0xc0>
    3452:	230a      	movs	r3, #10
    3454:	f888 3001 	strb.w	r3, [r8, #1]
    3458:	e002      	b.n	3460 <igmp_input+0xc0>
    345a:	6812      	ldr	r2, [r2, #0]
    345c:	2a00      	cmp	r2, #0
    345e:	d0b2      	beq.n	33c6 <igmp_input+0x26>
    3460:	6853      	ldr	r3, [r2, #4]
    3462:	42ab      	cmp	r3, r5
    3464:	d1f9      	bne.n	345a <igmp_input+0xba>
    3466:	6891      	ldr	r1, [r2, #8]
    3468:	6823      	ldr	r3, [r4, #0]
    346a:	4610      	mov	r0, r2
    346c:	4299      	cmp	r1, r3
    346e:	d0f4      	beq.n	345a <igmp_input+0xba>
    3470:	f898 1001 	ldrb.w	r1, [r8, #1]
    3474:	9201      	str	r2, [sp, #4]
    3476:	f7ff feff 	bl	3278 <igmp_delaying_member>
    347a:	9a01      	ldr	r2, [sp, #4]
    347c:	e7ed      	b.n	345a <igmp_input+0xba>
    347e:	6812      	ldr	r2, [r2, #0]
    3480:	2a00      	cmp	r2, #0
    3482:	d0a0      	beq.n	33c6 <igmp_input+0x26>
    3484:	6853      	ldr	r3, [r2, #4]
    3486:	429d      	cmp	r5, r3
    3488:	d1f9      	bne.n	347e <igmp_input+0xde>
    348a:	6893      	ldr	r3, [r2, #8]
    348c:	4299      	cmp	r1, r3
    348e:	d1f6      	bne.n	347e <igmp_input+0xde>
    3490:	4613      	mov	r3, r2
    3492:	e7cf      	b.n	3434 <igmp_input+0x94>
    3494:	10000320 	.word	0x10000320
    3498:	10000318 	.word	0x10000318

0000349c <igmp_tmr>:
    349c:	4b0a      	ldr	r3, [pc, #40]	; (34c8 <igmp_tmr+0x2c>)
    349e:	b510      	push	{r4, lr}
    34a0:	681c      	ldr	r4, [r3, #0]
    34a2:	b15c      	cbz	r4, 34bc <igmp_tmr+0x20>
    34a4:	89e3      	ldrh	r3, [r4, #14]
    34a6:	1e5a      	subs	r2, r3, #1
    34a8:	b292      	uxth	r2, r2
    34aa:	b123      	cbz	r3, 34b6 <igmp_tmr+0x1a>
    34ac:	81e2      	strh	r2, [r4, #14]
    34ae:	b912      	cbnz	r2, 34b6 <igmp_tmr+0x1a>
    34b0:	7b63      	ldrb	r3, [r4, #13]
    34b2:	2b01      	cmp	r3, #1
    34b4:	d003      	beq.n	34be <igmp_tmr+0x22>
    34b6:	6824      	ldr	r4, [r4, #0]
    34b8:	2c00      	cmp	r4, #0
    34ba:	d1f3      	bne.n	34a4 <igmp_tmr+0x8>
    34bc:	bd10      	pop	{r4, pc}
    34be:	4620      	mov	r0, r4
    34c0:	2116      	movs	r1, #22
    34c2:	f7ff fe87 	bl	31d4 <igmp_send>
    34c6:	e7f6      	b.n	34b6 <igmp_tmr+0x1a>
    34c8:	10000320 	.word	0x10000320

000034cc <inet_chksum_pseudo>:
    34cc:	e92d 47f0 	stmdb	sp!, {r4, r5, r6, r7, r8, r9, r10, lr}
    34d0:	4604      	mov	r4, r0
    34d2:	468a      	mov	r10, r1
    34d4:	4691      	mov	r9, r2
    34d6:	4698      	mov	r8, r3
    34d8:	f8bd 7020 	ldrh.w	r7, [sp, #32]
    34dc:	2800      	cmp	r0, #0
    34de:	d030      	beq.n	3542 <inet_chksum_pseudo+0x76>
    34e0:	2600      	movs	r6, #0
    34e2:	4635      	mov	r5, r6
    34e4:	6860      	ldr	r0, [r4, #4]
    34e6:	8961      	ldrh	r1, [r4, #10]
    34e8:	f001 f9f0 	bl	48cc <thumb2_checksum>
    34ec:	8963      	ldrh	r3, [r4, #10]
    34ee:	4428      	add	r0, r5
    34f0:	b285      	uxth	r5, r0
    34f2:	07db      	lsls	r3, r3, #31
    34f4:	eb05 4510 	add.w	r5, r5, r0, lsr #16
    34f8:	d503      	bpl.n	3502 <inet_chksum_pseudo+0x36>
    34fa:	f1c6 0601 	rsb	r6, r6, #1
    34fe:	b2f6      	uxtb	r6, r6
    3500:	ba6d      	rev16	r5, r5
    3502:	6824      	ldr	r4, [r4, #0]
    3504:	2c00      	cmp	r4, #0
    3506:	d1ed      	bne.n	34e4 <inet_chksum_pseudo+0x18>
    3508:	b106      	cbz	r6, 350c <inet_chksum_pseudo+0x40>
    350a:	ba6d      	rev16	r5, r5
    350c:	f8da 2000 	ldr.w	r2, [r10]
    3510:	f8d9 3000 	ldr.w	r3, [r9]
    3514:	b291      	uxth	r1, r2
    3516:	eb01 4212 	add.w	r2, r1, r2, lsr #16
    351a:	b299      	uxth	r1, r3
    351c:	440a      	add	r2, r1
    351e:	eb02 4313 	add.w	r3, r2, r3, lsr #16
    3522:	441d      	add	r5, r3
    3524:	fa98 f898 	rev16.w	r8, r8
    3528:	4445      	add	r5, r8
    352a:	ba7f      	rev16	r7, r7
    352c:	442f      	add	r7, r5
    352e:	b2bb      	uxth	r3, r7
    3530:	eb03 4717 	add.w	r7, r3, r7, lsr #16
    3534:	b2b8      	uxth	r0, r7
    3536:	eb00 4717 	add.w	r7, r0, r7, lsr #16
    353a:	43f8      	mvns	r0, r7
    353c:	b280      	uxth	r0, r0
    353e:	e8bd 87f0 	ldmia.w	sp!, {r4, r5, r6, r7, r8, r9, r10, pc}
    3542:	4605      	mov	r5, r0
    3544:	e7e2      	b.n	350c <inet_chksum_pseudo+0x40>
    3546:	bf00      	nop

00003548 <inet_chksum_pseudo_partial>:
    3548:	e92d 4ff0 	stmdb	sp!, {r4, r5, r6, r7, r8, r9, r10, r11, lr}
    354c:	b083      	sub	sp, #12
    354e:	4699      	mov	r9, r3
    3550:	f8bd 3030 	ldrh.w	r3, [sp, #48]	; 0x30
    3554:	4604      	mov	r4, r0
    3556:	468b      	mov	r11, r1
    3558:	4692      	mov	r10, r2
    355a:	9301      	str	r3, [sp, #4]
    355c:	f8bd 5034 	ldrh.w	r5, [sp, #52]	; 0x34
    3560:	2800      	cmp	r0, #0
    3562:	d042      	beq.n	35ea <inet_chksum_pseudo_partial+0xa2>
    3564:	2d00      	cmp	r5, #0
    3566:	d042      	beq.n	35ee <inet_chksum_pseudo_partial+0xa6>
    3568:	2700      	movs	r7, #0
    356a:	463e      	mov	r6, r7
    356c:	e000      	b.n	3570 <inet_chksum_pseudo_partial+0x28>
    356e:	b1cd      	cbz	r5, 35a4 <inet_chksum_pseudo_partial+0x5c>
    3570:	8963      	ldrh	r3, [r4, #10]
    3572:	6860      	ldr	r0, [r4, #4]
    3574:	429d      	cmp	r5, r3
    3576:	bf34      	ite	cc
    3578:	46a8      	movcc	r8, r5
    357a:	4698      	movcs	r8, r3
    357c:	4641      	mov	r1, r8
    357e:	f001 f9a5 	bl	48cc <thumb2_checksum>
    3582:	8962      	ldrh	r2, [r4, #10]
    3584:	4430      	add	r0, r6
    3586:	ebc8 0505 	rsb	r5, r8, r5
    358a:	b286      	uxth	r6, r0
    358c:	07d3      	lsls	r3, r2, #31
    358e:	b2ad      	uxth	r5, r5
    3590:	eb06 4610 	add.w	r6, r6, r0, lsr #16
    3594:	d503      	bpl.n	359e <inet_chksum_pseudo_partial+0x56>
    3596:	f1c7 0701 	rsb	r7, r7, #1
    359a:	b2ff      	uxtb	r7, r7
    359c:	ba76      	rev16	r6, r6
    359e:	6824      	ldr	r4, [r4, #0]
    35a0:	2c00      	cmp	r4, #0
    35a2:	d1e4      	bne.n	356e <inet_chksum_pseudo_partial+0x26>
    35a4:	b107      	cbz	r7, 35a8 <inet_chksum_pseudo_partial+0x60>
    35a6:	ba76      	rev16	r6, r6
    35a8:	f8db 2000 	ldr.w	r2, [r11]
    35ac:	f8da 3000 	ldr.w	r3, [r10]
    35b0:	b291      	uxth	r1, r2
    35b2:	eb01 4212 	add.w	r2, r1, r2, lsr #16
    35b6:	b299      	uxth	r1, r3
    35b8:	440a      	add	r2, r1
    35ba:	eb02 4313 	add.w	r3, r2, r3, lsr #16
    35be:	441e      	add	r6, r3
    35c0:	fa99 f999 	rev16.w	r9, r9
    35c4:	444e      	add	r6, r9
    35c6:	9b01      	ldr	r3, [sp, #4]
    35c8:	fa93 f893 	rev16.w	r8, r3
    35cc:	44b0      	add	r8, r6
    35ce:	fa1f f388 	uxth.w	r3, r8
    35d2:	eb03 4818 	add.w	r8, r3, r8, lsr #16
    35d6:	fa1f f088 	uxth.w	r0, r8
    35da:	eb00 4818 	add.w	r8, r0, r8, lsr #16
    35de:	ea6f 0008 	mvn.w	r0, r8
    35e2:	b280      	uxth	r0, r0
    35e4:	b003      	add	sp, #12
    35e6:	e8bd 8ff0 	ldmia.w	sp!, {r4, r5, r6, r7, r8, r9, r10, r11, pc}
    35ea:	4606      	mov	r6, r0
    35ec:	e7dc      	b.n	35a8 <inet_chksum_pseudo_partial+0x60>
    35ee:	462e      	mov	r6, r5
    35f0:	e7da      	b.n	35a8 <inet_chksum_pseudo_partial+0x60>
    35f2:	bf00      	nop

000035f4 <inet_chksum>:
    35f4:	b508      	push	{r3, lr}
    35f6:	f001 f969 	bl	48cc <thumb2_checksum>
    35fa:	43c0      	mvns	r0, r0
    35fc:	b280      	uxth	r0, r0
    35fe:	bd08      	pop	{r3, pc}

00003600 <inet_chksum_pbuf>:
    3600:	b570      	push	{r4, r5, r6, lr}
    3602:	4604      	mov	r4, r0
    3604:	b1d8      	cbz	r0, 363e <inet_chksum_pbuf+0x3e>
    3606:	2600      	movs	r6, #0
    3608:	4635      	mov	r5, r6
    360a:	6860      	ldr	r0, [r4, #4]
    360c:	8961      	ldrh	r1, [r4, #10]
    360e:	f001 f95d 	bl	48cc <thumb2_checksum>
    3612:	8963      	ldrh	r3, [r4, #10]
    3614:	4428      	add	r0, r5
    3616:	b285      	uxth	r5, r0
    3618:	07db      	lsls	r3, r3, #31
    361a:	eb05 4510 	add.w	r5, r5, r0, lsr #16
    361e:	d503      	bpl.n	3628 <inet_chksum_pbuf+0x28>
    3620:	f1c6 0601 	rsb	r6, r6, #1
    3624:	b2f6      	uxtb	r6, r6
    3626:	ba6d      	rev16	r5, r5
    3628:	6824      	ldr	r4, [r4, #0]
    362a:	2c00      	cmp	r4, #0
    362c:	d1ed      	bne.n	360a <inet_chksum_pbuf+0xa>
    362e:	b11e      	cbz	r6, 3638 <inet_chksum_pbuf+0x38>
    3630:	ba68      	rev16	r0, r5
    3632:	43c0      	mvns	r0, r0
    3634:	b280      	uxth	r0, r0
    3636:	bd70      	pop	{r4, r5, r6, pc}
    3638:	43e8      	mvns	r0, r5
    363a:	b280      	uxth	r0, r0
    363c:	bd70      	pop	{r4, r5, r6, pc}
    363e:	f64f 70ff 	movw	r0, #65535	; 0xffff
    3642:	bd70      	pop	{r4, r5, r6, pc}

00003644 <lwip_chksum_copy>:
    3644:	b538      	push	{r3, r4, r5, lr}
    3646:	4605      	mov	r5, r0
    3648:	4614      	mov	r4, r2
    364a:	f001 f97d 	bl	4948 <thumb2_memcpy>
    364e:	4628      	mov	r0, r5
    3650:	4621      	mov	r1, r4
    3652:	e8bd 4038 	ldmia.w	sp!, {r3, r4, r5, lr}
    3656:	f001 b939 	b.w	48cc <thumb2_checksum>
    365a:	bf00      	nop

0000365c <ip_route>:
    365c:	b410      	push	{r4}
    365e:	4b0f      	ldr	r3, [pc, #60]	; (369c <ip_route+0x40>)
    3660:	681b      	ldr	r3, [r3, #0]
    3662:	b16b      	cbz	r3, 3680 <ip_route+0x24>
    3664:	f893 2039 	ldrb.w	r2, [r3, #57]	; 0x39
    3668:	07d2      	lsls	r2, r2, #31
    366a:	d5f9      	bpl.n	3660 <ip_route+0x4>
    366c:	685c      	ldr	r4, [r3, #4]
    366e:	6801      	ldr	r1, [r0, #0]
    3670:	689a      	ldr	r2, [r3, #8]
    3672:	4061      	eors	r1, r4
    3674:	4211      	tst	r1, r2
    3676:	d1f3      	bne.n	3660 <ip_route+0x4>
    3678:	4618      	mov	r0, r3
    367a:	f85d 4b04 	ldr.w	r4, [sp], #4
    367e:	4770      	bx	lr
    3680:	4b07      	ldr	r3, [pc, #28]	; (36a0 <ip_route+0x44>)
    3682:	681b      	ldr	r3, [r3, #0]
    3684:	2b00      	cmp	r3, #0
    3686:	d0f7      	beq.n	3678 <ip_route+0x1c>
    3688:	f893 2039 	ldrb.w	r2, [r3, #57]	; 0x39
    368c:	f85d 4b04 	ldr.w	r4, [sp], #4
    3690:	f012 0f01 	tst.w	r2, #1
    3694:	bf14      	ite	ne
    3696:	4618      	movne	r0, r3
    3698:	2000      	moveq	r0, #0
    369a:	4770      	bx	lr
    369c:	10000fb4 	.word	0x10000fb4
    36a0:	10000fb8 	.word	0x10000fb8

000036a4 <ip_input>:
    36a4:	e92d 4ff8 	stmdb	sp!, {r3, r4, r5, r6, r7, r8, r9, r10, r11, lr}
    36a8:	6847      	ldr	r7, [r0, #4]
    36aa:	4605      	mov	r5, r0
    36ac:	468b      	mov	r11, r1
    36ae:	f8b7 8000 	ldrh.w	r8, [r7]
    36b2:	fa98 f398 	rev16.w	r3, r8
    36b6:	0b1b      	lsrs	r3, r3, #12
    36b8:	2b04      	cmp	r3, #4
    36ba:	d10e      	bne.n	36da <ip_input+0x36>
    36bc:	fa98 f898 	rev16.w	r8, r8
    36c0:	f3c8 2803 	ubfx	r8, r8, #8, #4
    36c4:	ea4f 0888 	mov.w	r8, r8, lsl #2
    36c8:	8879      	ldrh	r1, [r7, #2]
    36ca:	ba49      	rev16	r1, r1
    36cc:	8943      	ldrh	r3, [r0, #10]
    36ce:	b28c      	uxth	r4, r1
    36d0:	4543      	cmp	r3, r8
    36d2:	d302      	bcc.n	36da <ip_input+0x36>
    36d4:	8903      	ldrh	r3, [r0, #8]
    36d6:	42a3      	cmp	r3, r4
    36d8:	d205      	bcs.n	36e6 <ip_input+0x42>
    36da:	4628      	mov	r0, r5
    36dc:	f7fe f81e 	bl	171c <pbuf_free>
    36e0:	2000      	movs	r0, #0
    36e2:	e8bd 8ff8 	ldmia.w	sp!, {r3, r4, r5, r6, r7, r8, r9, r10, r11, pc}
    36e6:	4638      	mov	r0, r7
    36e8:	4641      	mov	r1, r8
    36ea:	f7ff ff83 	bl	35f4 <inet_chksum>
    36ee:	2800      	cmp	r0, #0
    36f0:	d1f3      	bne.n	36da <ip_input+0x36>
    36f2:	4621      	mov	r1, r4
    36f4:	4628      	mov	r0, r5
    36f6:	f7fe f8db 	bl	18b0 <pbuf_realloc>
    36fa:	f8df 9164 	ldr.w	r9, [pc, #356]	; 3860 <ip_input+0x1bc>
    36fe:	693b      	ldr	r3, [r7, #16]
    3700:	4954      	ldr	r1, [pc, #336]	; (3854 <ip_input+0x1b0>)
    3702:	f8c9 3000 	str.w	r3, [r9]
    3706:	68fa      	ldr	r2, [r7, #12]
    3708:	f003 03f0 	and.w	r3, r3, #240	; 0xf0
    370c:	2be0      	cmp	r3, #224	; 0xe0
    370e:	600a      	str	r2, [r1, #0]
    3710:	f000 8086 	beq.w	3820 <ip_input+0x17c>
    3714:	f8df a14c 	ldr.w	r10, [pc, #332]	; 3864 <ip_input+0x1c0>
    3718:	465c      	mov	r4, r11
    371a:	2601      	movs	r6, #1
    371c:	f894 3039 	ldrb.w	r3, [r4, #57]	; 0x39
    3720:	07da      	lsls	r2, r3, #31
    3722:	d50b      	bpl.n	373c <ip_input+0x98>
    3724:	1d23      	adds	r3, r4, #4
    3726:	d009      	beq.n	373c <ip_input+0x98>
    3728:	6863      	ldr	r3, [r4, #4]
    372a:	b13b      	cbz	r3, 373c <ip_input+0x98>
    372c:	f8d9 0000 	ldr.w	r0, [r9]
    3730:	4283      	cmp	r3, r0
    3732:	d016      	beq.n	3762 <ip_input+0xbe>
    3734:	4621      	mov	r1, r4
    3736:	f000 f981 	bl	3a3c <ip4_addr_isbroadcast>
    373a:	b990      	cbnz	r0, 3762 <ip_input+0xbe>
    373c:	b146      	cbz	r6, 3750 <ip_input+0xac>
    373e:	f8da 4000 	ldr.w	r4, [r10]
    3742:	455c      	cmp	r4, r11
    3744:	bf08      	it	eq
    3746:	6824      	ldreq	r4, [r4, #0]
    3748:	2c00      	cmp	r4, #0
    374a:	d06d      	beq.n	3828 <ip_input+0x184>
    374c:	2600      	movs	r6, #0
    374e:	e7e5      	b.n	371c <ip_input+0x78>
    3750:	6824      	ldr	r4, [r4, #0]
    3752:	e7f6      	b.n	3742 <ip_input+0x9e>
    3754:	4658      	mov	r0, r11
    3756:	4649      	mov	r1, r9
    3758:	f7ff fe10 	bl	337c <igmp_lookfor_group>
    375c:	2800      	cmp	r0, #0
    375e:	d063      	beq.n	3828 <ip_input+0x184>
    3760:	465c      	mov	r4, r11
    3762:	2c00      	cmp	r4, #0
    3764:	d060      	beq.n	3828 <ip_input+0x184>
    3766:	4a3b      	ldr	r2, [pc, #236]	; (3854 <ip_input+0x1b0>)
    3768:	6810      	ldr	r0, [r2, #0]
    376a:	4616      	mov	r6, r2
    376c:	b9d0      	cbnz	r0, 37a4 <ip_input+0x100>
    376e:	2c00      	cmp	r4, #0
    3770:	d0b3      	beq.n	36da <ip_input+0x36>
    3772:	88fb      	ldrh	r3, [r7, #6]
    3774:	f023 03c0 	bic.w	r3, r3, #192	; 0xc0
    3778:	2b00      	cmp	r3, #0
    377a:	d15a      	bne.n	3832 <ip_input+0x18e>
    377c:	7a7b      	ldrb	r3, [r7, #9]
    377e:	4e36      	ldr	r6, [pc, #216]	; (3858 <ip_input+0x1b4>)
    3780:	4c36      	ldr	r4, [pc, #216]	; (385c <ip_input+0x1b8>)
    3782:	3b01      	subs	r3, #1
    3784:	f8c6 b000 	str.w	r11, [r6]
    3788:	6027      	str	r7, [r4, #0]
    378a:	2b10      	cmp	r3, #16
    378c:	d831      	bhi.n	37f2 <ip_input+0x14e>
    378e:	e8df f003 	tbb	[pc, r3]
    3792:	252b      	.short	0x252b
    3794:	20303030 	.word	0x20303030
    3798:	30303030 	.word	0x30303030
    379c:	30303030 	.word	0x30303030
    37a0:	3030      	.short	0x3030
    37a2:	14          	.byte	0x14
    37a3:	00          	.byte	0x00
    37a4:	4659      	mov	r1, r11
    37a6:	f000 f949 	bl	3a3c <ip4_addr_isbroadcast>
    37aa:	2800      	cmp	r0, #0
    37ac:	d195      	bne.n	36da <ip_input+0x36>
    37ae:	6833      	ldr	r3, [r6, #0]
    37b0:	f003 03f0 	and.w	r3, r3, #240	; 0xf0
    37b4:	2be0      	cmp	r3, #224	; 0xe0
    37b6:	d1da      	bne.n	376e <ip_input+0xca>
    37b8:	e78f      	b.n	36da <ip_input+0x36>
    37ba:	4628      	mov	r0, r5
    37bc:	4659      	mov	r1, r11
    37be:	f004 fb9b 	bl	7ef8 <udp_input>
    37c2:	4924      	ldr	r1, [pc, #144]	; (3854 <ip_input+0x1b0>)
    37c4:	2300      	movs	r3, #0
    37c6:	6033      	str	r3, [r6, #0]
    37c8:	6023      	str	r3, [r4, #0]
    37ca:	600b      	str	r3, [r1, #0]
    37cc:	f8c9 3000 	str.w	r3, [r9]
    37d0:	e786      	b.n	36e0 <ip_input+0x3c>
    37d2:	4628      	mov	r0, r5
    37d4:	4659      	mov	r1, r11
    37d6:	f003 ff33 	bl	7640 <tcp_input>
    37da:	e7f2      	b.n	37c2 <ip_input+0x11e>
    37dc:	4628      	mov	r0, r5
    37de:	4659      	mov	r1, r11
    37e0:	4a1f      	ldr	r2, [pc, #124]	; (3860 <ip_input+0x1bc>)
    37e2:	f7ff fddd 	bl	33a0 <igmp_input>
    37e6:	e7ec      	b.n	37c2 <ip_input+0x11e>
    37e8:	4628      	mov	r0, r5
    37ea:	4659      	mov	r1, r11
    37ec:	f004 fe3a 	bl	8464 <icmp_input>
    37f0:	e7e7      	b.n	37c2 <ip_input+0x11e>
    37f2:	4659      	mov	r1, r11
    37f4:	f8d9 0000 	ldr.w	r0, [r9]
    37f8:	f8df 8064 	ldr.w	r8, [pc, #100]	; 3860 <ip_input+0x1bc>
    37fc:	f000 f91e 	bl	3a3c <ip4_addr_isbroadcast>
    3800:	b950      	cbnz	r0, 3818 <ip_input+0x174>
    3802:	f8d8 3000 	ldr.w	r3, [r8]
    3806:	f003 03f0 	and.w	r3, r3, #240	; 0xf0
    380a:	2be0      	cmp	r3, #224	; 0xe0
    380c:	d004      	beq.n	3818 <ip_input+0x174>
    380e:	606f      	str	r7, [r5, #4]
    3810:	4628      	mov	r0, r5
    3812:	2102      	movs	r1, #2
    3814:	f004 feb2 	bl	857c <icmp_dest_unreach>
    3818:	4628      	mov	r0, r5
    381a:	f7fd ff7f 	bl	171c <pbuf_free>
    381e:	e7d0      	b.n	37c2 <ip_input+0x11e>
    3820:	f99b 3039 	ldrsb.w	r3, [r11, #57]	; 0x39
    3824:	2b00      	cmp	r3, #0
    3826:	db95      	blt.n	3754 <ip_input+0xb0>
    3828:	7a7b      	ldrb	r3, [r7, #9]
    382a:	2b11      	cmp	r3, #17
    382c:	d00a      	beq.n	3844 <ip_input+0x1a0>
    382e:	2400      	movs	r4, #0
    3830:	e799      	b.n	3766 <ip_input+0xc2>
    3832:	4628      	mov	r0, r5
    3834:	f000 fad4 	bl	3de0 <ip_reass>
    3838:	4605      	mov	r5, r0
    383a:	2800      	cmp	r0, #0
    383c:	f43f af50 	beq.w	36e0 <ip_input+0x3c>
    3840:	6847      	ldr	r7, [r0, #4]
    3842:	e79b      	b.n	377c <ip_input+0xd8>
    3844:	44b8      	add	r8, r7
    3846:	f8b8 3002 	ldrh.w	r3, [r8, #2]
    384a:	f5b3 4f88 	cmp.w	r3, #17408	; 0x4400
    384e:	d1ee      	bne.n	382e <ip_input+0x18a>
    3850:	465c      	mov	r4, r11
    3852:	e78c      	b.n	376e <ip_input+0xca>
    3854:	10000fd4 	.word	0x10000fd4
    3858:	10000fd8 	.word	0x10000fd8
    385c:	10000fe0 	.word	0x10000fe0
    3860:	10000fdc 	.word	0x10000fdc
    3864:	10000fb4 	.word	0x10000fb4

00003868 <ip_output_if_opt>:
    3868:	e92d 4ff0 	stmdb	sp!, {r4, r5, r6, r7, r8, r9, r10, r11, lr}
    386c:	b087      	sub	sp, #28
    386e:	4615      	mov	r5, r2
    3870:	468a      	mov	r10, r1
    3872:	4698      	mov	r8, r3
    3874:	4604      	mov	r4, r0
    3876:	f89d b040 	ldrb.w	r11, [sp, #64]	; 0x40
    387a:	f89d 9044 	ldrb.w	r9, [sp, #68]	; 0x44
    387e:	9e12      	ldr	r6, [sp, #72]	; 0x48
    3880:	f8bd 7050 	ldrh.w	r7, [sp, #80]	; 0x50
    3884:	2a00      	cmp	r2, #0
    3886:	f000 808a 	beq.w	399e <ip_output_if_opt+0x136>
    388a:	2f00      	cmp	r7, #0
    388c:	d15a      	bne.n	3944 <ip_output_if_opt+0xdc>
    388e:	2314      	movs	r3, #20
    3890:	9303      	str	r3, [sp, #12]
    3892:	4620      	mov	r0, r4
    3894:	2114      	movs	r1, #20
    3896:	f7fd ff0b 	bl	16b0 <pbuf_header>
    389a:	2800      	cmp	r0, #0
    389c:	f040 8096 	bne.w	39cc <ip_output_if_opt+0x164>
    38a0:	6863      	ldr	r3, [r4, #4]
    38a2:	9903      	ldr	r1, [sp, #12]
    38a4:	f883 8008 	strb.w	r8, [r3, #8]
    38a8:	f883 9009 	strb.w	r9, [r3, #9]
    38ac:	682a      	ldr	r2, [r5, #0]
    38ae:	f44b 4e80 	orr.w	lr, r11, #16384	; 0x4000
    38b2:	ea48 2809 	orr.w	r8, r8, r9, lsl #8
    38b6:	ea4e 1e81 	orr.w	lr, lr, r1, lsl #6
    38ba:	611a      	str	r2, [r3, #16]
    38bc:	fa1f fc82 	uxth.w	r12, r2
    38c0:	ea4f 4912 	mov.w	r9, r2, lsr #16
    38c4:	fa9e fe9e 	rev16.w	lr, lr
    38c8:	f8a3 e000 	strh.w	lr, [r3]
    38cc:	8920      	ldrh	r0, [r4, #8]
    38ce:	fa1f fe8e 	uxth.w	lr, lr
    38d2:	ba40      	rev16	r0, r0
    38d4:	493e      	ldr	r1, [pc, #248]	; (39d0 <ip_output_if_opt+0x168>)
    38d6:	2200      	movs	r2, #0
    38d8:	8058      	strh	r0, [r3, #2]
    38da:	719a      	strb	r2, [r3, #6]
    38dc:	b280      	uxth	r0, r0
    38de:	71da      	strb	r2, [r3, #7]
    38e0:	f8b1 b000 	ldrh.w	r11, [r1]
    38e4:	fa9b f19b 	rev16.w	r1, r11
    38e8:	4a39      	ldr	r2, [pc, #228]	; (39d0 <ip_output_if_opt+0x168>)
    38ea:	f10b 0b01 	add.w	r11, r11, #1
    38ee:	8099      	strh	r1, [r3, #4]
    38f0:	f8a2 b000 	strh.w	r11, [r2]
    38f4:	b289      	uxth	r1, r1
    38f6:	f1ba 0f00 	cmp.w	r10, #0
    38fa:	d04d      	beq.n	3998 <ip_output_if_opt+0x130>
    38fc:	f8da 2000 	ldr.w	r2, [r10]
    3900:	2a00      	cmp	r2, #0
    3902:	d049      	beq.n	3998 <ip_output_if_opt+0x130>
    3904:	60da      	str	r2, [r3, #12]
    3906:	44cc      	add	r12, r9
    3908:	44e0      	add	r8, r12
    390a:	4447      	add	r7, r8
    390c:	44be      	add	lr, r7
    390e:	4470      	add	r0, lr
    3910:	b297      	uxth	r7, r2
    3912:	4401      	add	r1, r0
    3914:	4439      	add	r1, r7
    3916:	eb01 4212 	add.w	r2, r1, r2, lsr #16
    391a:	b291      	uxth	r1, r2
    391c:	eb01 4212 	add.w	r2, r1, r2, lsr #16
    3920:	eb02 4212 	add.w	r2, r2, r2, lsr #16
    3924:	43d2      	mvns	r2, r2
    3926:	815a      	strh	r2, [r3, #10]
    3928:	8e33      	ldrh	r3, [r6, #48]	; 0x30
    392a:	b113      	cbz	r3, 3932 <ip_output_if_opt+0xca>
    392c:	8922      	ldrh	r2, [r4, #8]
    392e:	429a      	cmp	r2, r3
    3930:	d83b      	bhi.n	39aa <ip_output_if_opt+0x142>
    3932:	4621      	mov	r1, r4
    3934:	462a      	mov	r2, r5
    3936:	6973      	ldr	r3, [r6, #20]
    3938:	4630      	mov	r0, r6
    393a:	4798      	blx	r3
    393c:	b240      	sxtb	r0, r0
    393e:	b007      	add	sp, #28
    3940:	e8bd 8ff0 	ldmia.w	sp!, {r4, r5, r6, r7, r8, r9, r10, r11, pc}
    3944:	1cfb      	adds	r3, r7, #3
    3946:	f023 0303 	bic.w	r3, r3, #3
    394a:	b29b      	uxth	r3, r3
    394c:	f103 0214 	add.w	r2, r3, #20
    3950:	b219      	sxth	r1, r3
    3952:	b292      	uxth	r2, r2
    3954:	9301      	str	r3, [sp, #4]
    3956:	9203      	str	r2, [sp, #12]
    3958:	f7fd feaa 	bl	16b0 <pbuf_header>
    395c:	9b01      	ldr	r3, [sp, #4]
    395e:	4684      	mov	r12, r0
    3960:	2800      	cmp	r0, #0
    3962:	d133      	bne.n	39cc <ip_output_if_opt+0x164>
    3964:	6860      	ldr	r0, [r4, #4]
    3966:	9913      	ldr	r1, [sp, #76]	; 0x4c
    3968:	463a      	mov	r2, r7
    396a:	9301      	str	r3, [sp, #4]
    396c:	f8cd c008 	str.w	r12, [sp, #8]
    3970:	f000 ffea 	bl	4948 <thumb2_memcpy>
    3974:	9b01      	ldr	r3, [sp, #4]
    3976:	f8dd c008 	ldr.w	r12, [sp, #8]
    397a:	429f      	cmp	r7, r3
    397c:	d31e      	bcc.n	39bc <ip_output_if_opt+0x154>
    397e:	085f      	lsrs	r7, r3, #1
    3980:	2b00      	cmp	r3, #0
    3982:	d086      	beq.n	3892 <ip_output_if_opt+0x2a>
    3984:	2300      	movs	r3, #0
    3986:	6860      	ldr	r0, [r4, #4]
    3988:	0079      	lsls	r1, r7, #1
    398a:	461f      	mov	r7, r3
    398c:	5ac2      	ldrh	r2, [r0, r3]
    398e:	3302      	adds	r3, #2
    3990:	428b      	cmp	r3, r1
    3992:	4417      	add	r7, r2
    3994:	d1fa      	bne.n	398c <ip_output_if_opt+0x124>
    3996:	e77c      	b.n	3892 <ip_output_if_opt+0x2a>
    3998:	6872      	ldr	r2, [r6, #4]
    399a:	60da      	str	r2, [r3, #12]
    399c:	e7b3      	b.n	3906 <ip_output_if_opt+0x9e>
    399e:	6843      	ldr	r3, [r0, #4]
    39a0:	ad06      	add	r5, sp, #24
    39a2:	691b      	ldr	r3, [r3, #16]
    39a4:	f845 3d04 	str.w	r3, [r5, #-4]!
    39a8:	e7be      	b.n	3928 <ip_output_if_opt+0xc0>
    39aa:	4620      	mov	r0, r4
    39ac:	4631      	mov	r1, r6
    39ae:	462a      	mov	r2, r5
    39b0:	f000 fb94 	bl	40dc <ip_frag>
    39b4:	b240      	sxtb	r0, r0
    39b6:	b007      	add	sp, #28
    39b8:	e8bd 8ff0 	ldmia.w	sp!, {r4, r5, r6, r7, r8, r9, r10, r11, pc}
    39bc:	6860      	ldr	r0, [r4, #4]
    39be:	1bda      	subs	r2, r3, r7
    39c0:	4661      	mov	r1, r12
    39c2:	4438      	add	r0, r7
    39c4:	f008 fb2c 	bl	c020 <memset>
    39c8:	9b01      	ldr	r3, [sp, #4]
    39ca:	e7d8      	b.n	397e <ip_output_if_opt+0x116>
    39cc:	20fe      	movs	r0, #254	; 0xfe
    39ce:	e7b5      	b.n	393c <ip_output_if_opt+0xd4>
    39d0:	10000324 	.word	0x10000324

000039d4 <ip_output_if>:
    39d4:	b5f0      	push	{r4, r5, r6, r7, lr}
    39d6:	b087      	sub	sp, #28
    39d8:	f89d 7030 	ldrb.w	r7, [sp, #48]	; 0x30
    39dc:	f89d 6034 	ldrb.w	r6, [sp, #52]	; 0x34
    39e0:	9d0e      	ldr	r5, [sp, #56]	; 0x38
    39e2:	2400      	movs	r4, #0
    39e4:	9700      	str	r7, [sp, #0]
    39e6:	9601      	str	r6, [sp, #4]
    39e8:	9502      	str	r5, [sp, #8]
    39ea:	9403      	str	r4, [sp, #12]
    39ec:	9404      	str	r4, [sp, #16]
    39ee:	f7ff ff3b 	bl	3868 <ip_output_if_opt>
    39f2:	b007      	add	sp, #28
    39f4:	bdf0      	pop	{r4, r5, r6, r7, pc}
    39f6:	bf00      	nop

000039f8 <ip_output>:
    39f8:	e92d 41f0 	stmdb	sp!, {r4, r5, r6, r7, r8, lr}
    39fc:	4606      	mov	r6, r0
    39fe:	b086      	sub	sp, #24
    3a00:	4610      	mov	r0, r2
    3a02:	4688      	mov	r8, r1
    3a04:	461f      	mov	r7, r3
    3a06:	4614      	mov	r4, r2
    3a08:	f7ff fe28 	bl	365c <ip_route>
    3a0c:	f89d 1030 	ldrb.w	r1, [sp, #48]	; 0x30
    3a10:	f89d 3034 	ldrb.w	r3, [sp, #52]	; 0x34
    3a14:	b178      	cbz	r0, 3a36 <ip_output+0x3e>
    3a16:	2500      	movs	r5, #0
    3a18:	e88d 000a 	stmia.w	sp, {r1, r3}
    3a1c:	9002      	str	r0, [sp, #8]
    3a1e:	4641      	mov	r1, r8
    3a20:	4630      	mov	r0, r6
    3a22:	4622      	mov	r2, r4
    3a24:	463b      	mov	r3, r7
    3a26:	9503      	str	r5, [sp, #12]
    3a28:	9504      	str	r5, [sp, #16]
    3a2a:	f7ff ff1d 	bl	3868 <ip_output_if_opt>
    3a2e:	b240      	sxtb	r0, r0
    3a30:	b006      	add	sp, #24
    3a32:	e8bd 81f0 	ldmia.w	sp!, {r4, r5, r6, r7, r8, pc}
    3a36:	20fc      	movs	r0, #252	; 0xfc
    3a38:	e7f9      	b.n	3a2e <ip_output+0x36>
    3a3a:	bf00      	nop

00003a3c <ip4_addr_isbroadcast>:
    3a3c:	1e42      	subs	r2, r0, #1
    3a3e:	3203      	adds	r2, #3
    3a40:	4603      	mov	r3, r0
    3a42:	d815      	bhi.n	3a70 <ip4_addr_isbroadcast+0x34>
    3a44:	f891 2039 	ldrb.w	r2, [r1, #57]	; 0x39
    3a48:	f002 0202 	and.w	r2, r2, #2
    3a4c:	f002 00ff 	and.w	r0, r2, #255	; 0xff
    3a50:	b16a      	cbz	r2, 3a6e <ip4_addr_isbroadcast+0x32>
    3a52:	684a      	ldr	r2, [r1, #4]
    3a54:	429a      	cmp	r2, r3
    3a56:	d009      	beq.n	3a6c <ip4_addr_isbroadcast+0x30>
    3a58:	6888      	ldr	r0, [r1, #8]
    3a5a:	405a      	eors	r2, r3
    3a5c:	4202      	tst	r2, r0
    3a5e:	d105      	bne.n	3a6c <ip4_addr_isbroadcast+0x30>
    3a60:	43c0      	mvns	r0, r0
    3a62:	4003      	ands	r3, r0
    3a64:	1ac3      	subs	r3, r0, r3
    3a66:	4258      	negs	r0, r3
    3a68:	4158      	adcs	r0, r3
    3a6a:	4770      	bx	lr
    3a6c:	2000      	movs	r0, #0
    3a6e:	4770      	bx	lr
    3a70:	2001      	movs	r0, #1
    3a72:	4770      	bx	lr

00003a74 <ipaddr_aton>:
    3a74:	e92d 03f0 	stmdb	sp!, {r4, r5, r6, r7, r8, r9}
    3a78:	7803      	ldrb	r3, [r0, #0]
    3a7a:	b084      	sub	sp, #16
    3a7c:	f1a3 0230 	sub.w	r2, r3, #48	; 0x30
    3a80:	b2d4      	uxtb	r4, r2
    3a82:	2c09      	cmp	r4, #9
