
LPC11U24/LocalFileSystem.elf:     file format elf32-littlearm
architecture: arm, flags 0x00000112:
EXEC_P, HAS_SYMS, D_PAGED
start address 0x000000c1


Disassembly of section .text:

00000000 <__isr_vector>:
       0:	10002000 	.word	0x10002000
       4:	000000c1 	.word	0x000000c1
       8:	00000db9 	.word	0x00000db9
       c:	00000dbb 	.word	0x00000dbb
	...
      2c:	00000dbd 	.word	0x00000dbd
	...
      38:	00000dbf 	.word	0x00000dbf
      3c:	00000dc1 	.word	0x00000dc1
      40:	00000dc3 	.word	0x00000dc3
      44:	00000dc3 	.word	0x00000dc3
      48:	00000dc3 	.word	0x00000dc3
      4c:	00000dc3 	.word	0x00000dc3
      50:	00000dc3 	.word	0x00000dc3
      54:	00000dc3 	.word	0x00000dc3
      58:	00000dc3 	.word	0x00000dc3
      5c:	00000dc3 	.word	0x00000dc3
      60:	00000dc3 	.word	0x00000dc3
      64:	00000dc3 	.word	0x00000dc3
      68:	00000dc3 	.word	0x00000dc3
      6c:	00000dc3 	.word	0x00000dc3
      70:	00000dc3 	.word	0x00000dc3
      74:	00000dc3 	.word	0x00000dc3
      78:	00000dc3 	.word	0x00000dc3
      7c:	00000dc3 	.word	0x00000dc3
      80:	00000dc3 	.word	0x00000dc3
      84:	00000dc3 	.word	0x00000dc3
      88:	00000dc3 	.word	0x00000dc3
      8c:	00000dc3 	.word	0x00000dc3
      90:	00000dc3 	.word	0x00000dc3
      94:	00000dc3 	.word	0x00000dc3
      98:	00000dc3 	.word	0x00000dc3
      9c:	00000dc3 	.word	0x00000dc3
      a0:	00000dc3 	.word	0x00000dc3
      a4:	00000dc3 	.word	0x00000dc3
      a8:	00000dc3 	.word	0x00000dc3
      ac:	00000dc3 	.word	0x00000dc3
      b0:	00000dc3 	.word	0x00000dc3
      b4:	00000dc3 	.word	0x00000dc3
      b8:	00000dc3 	.word	0x00000dc3
      bc:	00000dc3 	.word	0x00000dc3

000000c0 <Reset_Handler>:
      c0:	4907      	ldr	r1, [pc, #28]	; (e0 <Reset_Handler+0x20>)
      c2:	4a08      	ldr	r2, [pc, #32]	; (e4 <Reset_Handler+0x24>)
      c4:	4b08      	ldr	r3, [pc, #32]	; (e8 <Reset_Handler+0x28>)
      c6:	1a9b      	subs	r3, r3, r2
      c8:	dd05      	ble.n	d6 <Reset_Handler+0x16>
      ca:	2400      	movs	r4, #0
      cc:	5908      	ldr	r0, [r1, r4]
      ce:	5110      	str	r0, [r2, r4]
      d0:	3404      	adds	r4, #4
      d2:	429c      	cmp	r4, r3
      d4:	dbfa      	blt.n	cc <Reset_Handler+0xc>
      d6:	4805      	ldr	r0, [pc, #20]	; (ec <Reset_Handler+0x2c>)
      d8:	4780      	blx	r0
      da:	4805      	ldr	r0, [pc, #20]	; (f0 <Reset_Handler+0x30>)
      dc:	4700      	bx	r0
      de:	0000      	.short	0x0000
      e0:	00004140 	.word	0x00004140
      e4:	100000c0 	.word	0x100000c0
      e8:	10000144 	.word	0x10000144
      ec:	000000f5 	.word	0x000000f5
      f0:	000004d1 	.word	0x000004d1

000000f4 <SystemInit>:
      f4:	b510      	push	{r4, lr}
      f6:	4b34      	ldr	r3, [pc, #208]	; (1c8 <SystemInit+0xd4>)
      f8:	228e      	movs	r2, #142	; 0x8e
      fa:	0092      	lsls	r2, r2, #2
      fc:	5899      	ldr	r1, [r3, r2]
      fe:	2020      	movs	r0, #32
     100:	4381      	bics	r1, r0
     102:	5099      	str	r1, [r3, r2]
     104:	b082      	sub	sp, #8
     106:	2200      	movs	r2, #0
     108:	621a      	str	r2, [r3, #32]
     10a:	9201      	str	r2, [sp, #4]
     10c:	9b01      	ldr	r3, [sp, #4]
     10e:	2bc7      	cmp	r3, #199	; 0xc7
     110:	d806      	bhi.n	120 <SystemInit+0x2c>
     112:	46c0      	nop			; (mov r8, r8)
     114:	9b01      	ldr	r3, [sp, #4]
     116:	3301      	adds	r3, #1
     118:	9301      	str	r3, [sp, #4]
     11a:	9b01      	ldr	r3, [sp, #4]
     11c:	2bc7      	cmp	r3, #199	; 0xc7
     11e:	d9f8      	bls.n	112 <SystemInit+0x1e>
     120:	4829      	ldr	r0, [pc, #164]	; (1c8 <SystemInit+0xd4>)
     122:	2301      	movs	r3, #1
     124:	2200      	movs	r2, #0
     126:	6403      	str	r3, [r0, #64]	; 0x40
     128:	2101      	movs	r1, #1
     12a:	6443      	str	r3, [r0, #68]	; 0x44
     12c:	6442      	str	r2, [r0, #68]	; 0x44
     12e:	6443      	str	r3, [r0, #68]	; 0x44
     130:	6c43      	ldr	r3, [r0, #68]	; 0x44
     132:	4a25      	ldr	r2, [pc, #148]	; (1c8 <SystemInit+0xd4>)
     134:	4219      	tst	r1, r3
     136:	d0fb      	beq.n	130 <SystemInit+0x3c>
     138:	2323      	movs	r3, #35	; 0x23
     13a:	6093      	str	r3, [r2, #8]
     13c:	238e      	movs	r3, #142	; 0x8e
     13e:	009b      	lsls	r3, r3, #2
     140:	58d1      	ldr	r1, [r2, r3]
     142:	2080      	movs	r0, #128	; 0x80
     144:	4381      	bics	r1, r0
     146:	50d1      	str	r1, [r2, r3]
     148:	1c14      	adds	r4, r2, #0
     14a:	2001      	movs	r0, #1
     14c:	68e3      	ldr	r3, [r4, #12]
     14e:	4a1e      	ldr	r2, [pc, #120]	; (1c8 <SystemInit+0xd4>)
     150:	2101      	movs	r1, #1
     152:	4218      	tst	r0, r3
     154:	d0fa      	beq.n	14c <SystemInit+0x58>
     156:	2303      	movs	r3, #3
     158:	6713      	str	r3, [r2, #112]	; 0x70
     15a:	2300      	movs	r3, #0
     15c:	6751      	str	r1, [r2, #116]	; 0x74
     15e:	1c14      	adds	r4, r2, #0
     160:	6753      	str	r3, [r2, #116]	; 0x74
     162:	2001      	movs	r0, #1
     164:	6751      	str	r1, [r2, #116]	; 0x74
     166:	6f63      	ldr	r3, [r4, #116]	; 0x74
     168:	4a17      	ldr	r2, [pc, #92]	; (1c8 <SystemInit+0xd4>)
     16a:	2101      	movs	r1, #1
     16c:	4218      	tst	r0, r3
     16e:	d0fa      	beq.n	166 <SystemInit+0x72>
     170:	238e      	movs	r3, #142	; 0x8e
     172:	6791      	str	r1, [r2, #120]	; 0x78
     174:	009b      	lsls	r3, r3, #2
     176:	58d4      	ldr	r4, [r2, r3]
     178:	4814      	ldr	r0, [pc, #80]	; (1cc <SystemInit+0xd8>)
     17a:	4020      	ands	r0, r4
     17c:	50d0      	str	r0, [r2, r3]
     17e:	58d4      	ldr	r4, [r2, r3]
     180:	4813      	ldr	r0, [pc, #76]	; (1d0 <SystemInit+0xdc>)
     182:	4020      	ands	r0, r4
     184:	50d0      	str	r0, [r2, r3]
     186:	2300      	movs	r3, #0
     188:	6491      	str	r1, [r2, #72]	; 0x48
     18a:	2001      	movs	r0, #1
     18c:	64d1      	str	r1, [r2, #76]	; 0x4c
     18e:	64d3      	str	r3, [r2, #76]	; 0x4c
     190:	64d1      	str	r1, [r2, #76]	; 0x4c
     192:	6cd3      	ldr	r3, [r2, #76]	; 0x4c
     194:	490c      	ldr	r1, [pc, #48]	; (1c8 <SystemInit+0xd4>)
     196:	4218      	tst	r0, r3
     198:	d0fb      	beq.n	192 <SystemInit+0x9e>
     19a:	2323      	movs	r3, #35	; 0x23
     19c:	610b      	str	r3, [r1, #16]
     19e:	2001      	movs	r0, #1
     1a0:	694b      	ldr	r3, [r1, #20]
     1a2:	4a09      	ldr	r2, [pc, #36]	; (1c8 <SystemInit+0xd4>)
     1a4:	4218      	tst	r0, r3
     1a6:	d0fb      	beq.n	1a0 <SystemInit+0xac>
     1a8:	23c0      	movs	r3, #192	; 0xc0
     1aa:	2100      	movs	r1, #0
     1ac:	50d1      	str	r1, [r2, r3]
     1ae:	50d1      	str	r1, [r2, r3]
     1b0:	23c8      	movs	r3, #200	; 0xc8
     1b2:	2101      	movs	r1, #1
     1b4:	50d1      	str	r1, [r2, r3]
     1b6:	2380      	movs	r3, #128	; 0x80
     1b8:	58d0      	ldr	r0, [r2, r3]
     1ba:	2180      	movs	r1, #128	; 0x80
     1bc:	0249      	lsls	r1, r1, #9
     1be:	4301      	orrs	r1, r0
     1c0:	50d1      	str	r1, [r2, r3]
     1c2:	b002      	add	sp, #8
     1c4:	bd10      	pop	{r4, pc}
     1c6:	46c0      	nop			; (mov r8, r8)
     1c8:	40048000 	.word	0x40048000
     1cc:	fffffbff 	.word	0xfffffbff
     1d0:	fffffeff 	.word	0xfffffeff
	...

00000200 <__do_global_dtors_aux>:
     200:	b510      	push	{r4, lr}
     202:	4c06      	ldr	r4, [pc, #24]	; (21c <__do_global_dtors_aux+0x1c>)
     204:	7823      	ldrb	r3, [r4, #0]
     206:	2b00      	cmp	r3, #0
     208:	d107      	bne.n	21a <__do_global_dtors_aux+0x1a>
     20a:	4b05      	ldr	r3, [pc, #20]	; (220 <__do_global_dtors_aux+0x20>)
     20c:	2b00      	cmp	r3, #0
     20e:	d002      	beq.n	216 <__do_global_dtors_aux+0x16>
     210:	4804      	ldr	r0, [pc, #16]	; (224 <__do_global_dtors_aux+0x24>)
     212:	e000      	b.n	216 <__do_global_dtors_aux+0x16>
     214:	bf00      	nop
     216:	2301      	movs	r3, #1
     218:	7023      	strb	r3, [r4, #0]
     21a:	bd10      	pop	{r4, pc}
     21c:	10000144 	.word	0x10000144
     220:	00000000 	.word	0x00000000
     224:	0000413c 	.word	0x0000413c

00000228 <frame_dummy>:
     228:	b508      	push	{r3, lr}
     22a:	4b08      	ldr	r3, [pc, #32]	; (24c <frame_dummy+0x24>)
     22c:	2b00      	cmp	r3, #0
     22e:	d003      	beq.n	238 <frame_dummy+0x10>
     230:	4807      	ldr	r0, [pc, #28]	; (250 <frame_dummy+0x28>)
     232:	4908      	ldr	r1, [pc, #32]	; (254 <frame_dummy+0x2c>)
     234:	e000      	b.n	238 <frame_dummy+0x10>
     236:	bf00      	nop
     238:	4807      	ldr	r0, [pc, #28]	; (258 <frame_dummy+0x30>)
     23a:	6803      	ldr	r3, [r0, #0]
     23c:	2b00      	cmp	r3, #0
     23e:	d003      	beq.n	248 <frame_dummy+0x20>
     240:	4b06      	ldr	r3, [pc, #24]	; (25c <frame_dummy+0x34>)
     242:	2b00      	cmp	r3, #0
     244:	d000      	beq.n	248 <frame_dummy+0x20>
     246:	4798      	blx	r3
     248:	bd08      	pop	{r3, pc}
     24a:	46c0      	nop			; (mov r8, r8)
     24c:	00000000 	.word	0x00000000
     250:	0000413c 	.word	0x0000413c
     254:	10000148 	.word	0x10000148
     258:	10000144 	.word	0x10000144
     25c:	00000000 	.word	0x00000000

00000260 <mbed::LocalFileSystem::~LocalFileSystem()>:
     260:	b510      	push	{r4, lr}
     262:	4b03      	ldr	r3, [pc, #12]	; (270 <mbed::LocalFileSystem::~LocalFileSystem()+0x10>)
     264:	1c04      	adds	r4, r0, #0
     266:	6003      	str	r3, [r0, #0]
     268:	f000 fa86 	bl	778 <mbed::FileSystemLike::~FileSystemLike()>
     26c:	1c20      	adds	r0, r4, #0
     26e:	bd10      	pop	{r4, pc}
     270:	00003e10 	.word	0x00003e10

00000274 <mbed::LocalFileSystem::~LocalFileSystem()>:
     274:	b510      	push	{r4, lr}
     276:	4b05      	ldr	r3, [pc, #20]	; (28c <mbed::LocalFileSystem::~LocalFileSystem()+0x18>)
     278:	1c04      	adds	r4, r0, #0
     27a:	6003      	str	r3, [r0, #0]
     27c:	f000 fa7c 	bl	778 <mbed::FileSystemLike::~FileSystemLike()>
     280:	1c20      	adds	r0, r4, #0
     282:	f001 f986 	bl	1592 <operator delete(void*)>
     286:	1c20      	adds	r0, r4, #0
     288:	bd10      	pop	{r4, pc}
     28a:	46c0      	nop			; (mov r8, r8)
     28c:	00003e10 	.word	0x00003e10

00000290 <main>:
     290:	b530      	push	{r4, r5, lr}
     292:	4862      	ldr	r0, [pc, #392]	; (41c <main+0x18c>)
     294:	b089      	sub	sp, #36	; 0x24
     296:	f001 ff67 	bl	2168 <puts>
     29a:	4861      	ldr	r0, [pc, #388]	; (420 <main+0x190>)
     29c:	f001 ff64 	bl	2168 <puts>
     2a0:	4860      	ldr	r0, [pc, #384]	; (424 <main+0x194>)
     2a2:	f001 ff61 	bl	2168 <puts>
     2a6:	4d60      	ldr	r5, [pc, #384]	; (428 <main+0x198>)
     2a8:	4960      	ldr	r1, [pc, #384]	; (42c <main+0x19c>)
     2aa:	1c28      	adds	r0, r5, #0
     2ac:	f001 fc22 	bl	1af4 <fopen>
     2b0:	1e04      	subs	r4, r0, #0
     2b2:	d100      	bne.n	2b6 <main+0x26>
     2b4:	e0ab      	b.n	40e <main+0x17e>
     2b6:	485e      	ldr	r0, [pc, #376]	; (430 <main+0x1a0>)
     2b8:	f001 ff56 	bl	2168 <puts>
     2bc:	1c20      	adds	r0, r4, #0
     2be:	495d      	ldr	r1, [pc, #372]	; (434 <main+0x1a4>)
     2c0:	f001 fc24 	bl	1b0c <fiprintf>
     2c4:	2800      	cmp	r0, #0
     2c6:	da00      	bge.n	2ca <main+0x3a>
     2c8:	e08f      	b.n	3ea <main+0x15a>
     2ca:	485b      	ldr	r0, [pc, #364]	; (438 <main+0x1a8>)
     2cc:	f001 ff4c 	bl	2168 <puts>
     2d0:	1c20      	adds	r0, r4, #0
     2d2:	f001 fa37 	bl	1744 <fclose>
     2d6:	2800      	cmp	r0, #0
     2d8:	d163      	bne.n	3a2 <main+0x112>
     2da:	4858      	ldr	r0, [pc, #352]	; (43c <main+0x1ac>)
     2dc:	f001 ff44 	bl	2168 <puts>
     2e0:	1c28      	adds	r0, r5, #0
     2e2:	4957      	ldr	r1, [pc, #348]	; (440 <main+0x1b0>)
     2e4:	f001 fc06 	bl	1af4 <fopen>
     2e8:	1e04      	subs	r4, r0, #0
     2ea:	d100      	bne.n	2ee <main+0x5e>
     2ec:	e083      	b.n	3f6 <main+0x166>
     2ee:	4855      	ldr	r0, [pc, #340]	; (444 <main+0x1b4>)
     2f0:	f001 ff3a 	bl	2168 <puts>
     2f4:	1c20      	adds	r0, r4, #0
     2f6:	4954      	ldr	r1, [pc, #336]	; (448 <main+0x1b8>)
     2f8:	466a      	mov	r2, sp
     2fa:	f001 fc19 	bl	1b30 <fiscanf>
     2fe:	3001      	adds	r0, #1
     300:	d100      	bne.n	304 <main+0x74>
     302:	e06c      	b.n	3de <main+0x14e>
     304:	4669      	mov	r1, sp
     306:	4851      	ldr	r0, [pc, #324]	; (44c <main+0x1bc>)
     308:	f001 feb2 	bl	2070 <iprintf>
     30c:	4668      	mov	r0, sp
     30e:	4950      	ldr	r1, [pc, #320]	; (450 <main+0x1c0>)
     310:	f001 ffbc 	bl	228c <strcmp>
     314:	2800      	cmp	r0, #0
     316:	d15c      	bne.n	3d2 <main+0x142>
     318:	484e      	ldr	r0, [pc, #312]	; (454 <main+0x1c4>)
     31a:	f001 ff25 	bl	2168 <puts>
     31e:	1c20      	adds	r0, r4, #0
     320:	2100      	movs	r1, #0
     322:	2202      	movs	r2, #2
     324:	f001 fc1a 	bl	1b5c <fseek>
     328:	2800      	cmp	r0, #0
     32a:	d14c      	bne.n	3c6 <main+0x136>
     32c:	1c20      	adds	r0, r4, #0
     32e:	f001 fcbb 	bl	1ca8 <ftell>
     332:	280c      	cmp	r0, #12
     334:	d004      	beq.n	340 <main+0xb0>
     336:	4848      	ldr	r0, [pc, #288]	; (458 <main+0x1c8>)
     338:	4948      	ldr	r1, [pc, #288]	; (45c <main+0x1cc>)
     33a:	2250      	movs	r2, #80	; 0x50
     33c:	f000 f902 	bl	544 <error>
     340:	4847      	ldr	r0, [pc, #284]	; (460 <main+0x1d0>)
     342:	f001 ff11 	bl	2168 <puts>
     346:	1c20      	adds	r0, r4, #0
     348:	f001 f9fc 	bl	1744 <fclose>
     34c:	2800      	cmp	r0, #0
     34e:	d134      	bne.n	3ba <main+0x12a>
     350:	4844      	ldr	r0, [pc, #272]	; (464 <main+0x1d4>)
     352:	f001 ff09 	bl	2168 <puts>
     356:	1c28      	adds	r0, r5, #0
     358:	f000 fcd6 	bl	d08 <remove>
     35c:	2800      	cmp	r0, #0
     35e:	d126      	bne.n	3ae <main+0x11e>
     360:	4841      	ldr	r0, [pc, #260]	; (468 <main+0x1d8>)
     362:	f001 ff01 	bl	2168 <puts>
     366:	4841      	ldr	r0, [pc, #260]	; (46c <main+0x1dc>)
     368:	f000 fce6 	bl	d38 <opendir>
     36c:	1e04      	subs	r4, r0, #0
     36e:	d048      	beq.n	402 <main+0x172>
     370:	483f      	ldr	r0, [pc, #252]	; (470 <main+0x1e0>)
     372:	f001 fef9 	bl	2168 <puts>
     376:	4d3f      	ldr	r5, [pc, #252]	; (474 <main+0x1e4>)
     378:	e002      	b.n	380 <main+0xf0>
     37a:	1c28      	adds	r0, r5, #0
     37c:	f001 fe78 	bl	2070 <iprintf>
     380:	1c20      	adds	r0, r4, #0
     382:	f000 fcf9 	bl	d78 <readdir>
     386:	1e01      	subs	r1, r0, #0
     388:	d1f7      	bne.n	37a <main+0xea>
     38a:	483b      	ldr	r0, [pc, #236]	; (478 <main+0x1e8>)
     38c:	f001 feec 	bl	2168 <puts>
     390:	1c20      	adds	r0, r4, #0
     392:	f000 fcf7 	bl	d84 <closedir>
     396:	4839      	ldr	r0, [pc, #228]	; (47c <main+0x1ec>)
     398:	f001 fee6 	bl	2168 <puts>
     39c:	2000      	movs	r0, #0
     39e:	b009      	add	sp, #36	; 0x24
     3a0:	bd30      	pop	{r4, r5, pc}
     3a2:	4837      	ldr	r0, [pc, #220]	; (480 <main+0x1f0>)
     3a4:	492d      	ldr	r1, [pc, #180]	; (45c <main+0x1cc>)
     3a6:	222f      	movs	r2, #47	; 0x2f
     3a8:	f000 f8cc 	bl	544 <error>
     3ac:	e795      	b.n	2da <main+0x4a>
     3ae:	4835      	ldr	r0, [pc, #212]	; (484 <main+0x1f4>)
     3b0:	492a      	ldr	r1, [pc, #168]	; (45c <main+0x1cc>)
     3b2:	2260      	movs	r2, #96	; 0x60
     3b4:	f000 f8c6 	bl	544 <error>
     3b8:	e7d2      	b.n	360 <main+0xd0>
     3ba:	4831      	ldr	r0, [pc, #196]	; (480 <main+0x1f0>)
     3bc:	4927      	ldr	r1, [pc, #156]	; (45c <main+0x1cc>)
     3be:	2257      	movs	r2, #87	; 0x57
     3c0:	f000 f8c0 	bl	544 <error>
     3c4:	e7c4      	b.n	350 <main+0xc0>
     3c6:	4830      	ldr	r0, [pc, #192]	; (488 <main+0x1f8>)
     3c8:	4924      	ldr	r1, [pc, #144]	; (45c <main+0x1cc>)
     3ca:	224b      	movs	r2, #75	; 0x4b
     3cc:	f000 f8ba 	bl	544 <error>
     3d0:	e7ac      	b.n	32c <main+0x9c>
     3d2:	482e      	ldr	r0, [pc, #184]	; (48c <main+0x1fc>)
     3d4:	4921      	ldr	r1, [pc, #132]	; (45c <main+0x1cc>)
     3d6:	2244      	movs	r2, #68	; 0x44
     3d8:	f000 f8b4 	bl	544 <error>
     3dc:	e79c      	b.n	318 <main+0x88>
     3de:	482c      	ldr	r0, [pc, #176]	; (490 <main+0x200>)
     3e0:	491e      	ldr	r1, [pc, #120]	; (45c <main+0x1cc>)
     3e2:	223f      	movs	r2, #63	; 0x3f
     3e4:	f000 f8ae 	bl	544 <error>
     3e8:	e78c      	b.n	304 <main+0x74>
     3ea:	482a      	ldr	r0, [pc, #168]	; (494 <main+0x204>)
     3ec:	491b      	ldr	r1, [pc, #108]	; (45c <main+0x1cc>)
     3ee:	2228      	movs	r2, #40	; 0x28
     3f0:	f000 f8a8 	bl	544 <error>
     3f4:	e769      	b.n	2ca <main+0x3a>
     3f6:	4828      	ldr	r0, [pc, #160]	; (498 <main+0x208>)
     3f8:	4918      	ldr	r1, [pc, #96]	; (45c <main+0x1cc>)
     3fa:	2238      	movs	r2, #56	; 0x38
     3fc:	f000 f8a2 	bl	544 <error>
     400:	e775      	b.n	2ee <main+0x5e>
     402:	4826      	ldr	r0, [pc, #152]	; (49c <main+0x20c>)
     404:	4915      	ldr	r1, [pc, #84]	; (45c <main+0x1cc>)
     406:	226f      	movs	r2, #111	; 0x6f
     408:	f000 f89c 	bl	544 <error>
     40c:	e7b0      	b.n	370 <main+0xe0>
     40e:	4822      	ldr	r0, [pc, #136]	; (498 <main+0x208>)
     410:	4912      	ldr	r1, [pc, #72]	; (45c <main+0x1cc>)
     412:	2221      	movs	r2, #33	; 0x21
     414:	f000 f896 	bl	544 <error>
     418:	e74d      	b.n	2b6 <main+0x26>
     41a:	46c0      	nop			; (mov r8, r8)
     41c:	00003a34 	.word	0x00003a34
     420:	00003a50 	.word	0x00003a50
     424:	00003a6c 	.word	0x00003a6c
     428:	00003a88 	.word	0x00003a88
     42c:	00003a98 	.word	0x00003a98
     430:	00003ac0 	.word	0x00003ac0
     434:	00003ad4 	.word	0x00003ad4
     438:	00003b00 	.word	0x00003b00
     43c:	00003b40 	.word	0x00003b40
     440:	00003b5c 	.word	0x00003b5c
     444:	00003b60 	.word	0x00003b60
     448:	00003b74 	.word	0x00003b74
     44c:	00003b98 	.word	0x00003b98
     450:	00003bbc 	.word	0x00003bbc
     454:	00003bec 	.word	0x00003bec
     458:	00003c54 	.word	0x00003c54
     45c:	00003ab4 	.word	0x00003ab4
     460:	00003c8c 	.word	0x00003c8c
     464:	00003cac 	.word	0x00003cac
     468:	00003cdc 	.word	0x00003cdc
     46c:	00003cf0 	.word	0x00003cf0
     470:	00003d14 	.word	0x00003d14
     474:	00003bb4 	.word	0x00003bb4
     478:	00003d38 	.word	0x00003d38
     47c:	00003d4c 	.word	0x00003d4c
     480:	00003b24 	.word	0x00003b24
     484:	00003cc0 	.word	0x00003cc0
     488:	00003c2c 	.word	0x00003c2c
     48c:	00003bc4 	.word	0x00003bc4
     490:	00003b7c 	.word	0x00003b7c
     494:	00003ae4 	.word	0x00003ae4
     498:	00003a9c 	.word	0x00003a9c
     49c:	00003cf8 	.word	0x00003cf8

000004a0 <_GLOBAL__sub_I_local>:
     4a0:	b510      	push	{r4, lr}
     4a2:	4c06      	ldr	r4, [pc, #24]	; (4bc <_GLOBAL__sub_I_local+0x1c>)
     4a4:	4906      	ldr	r1, [pc, #24]	; (4c0 <_GLOBAL__sub_I_local+0x20>)
     4a6:	1c20      	adds	r0, r4, #0
     4a8:	f000 f980 	bl	7ac <mbed::FileSystemLike::FileSystemLike(char const*)>
     4ac:	4b05      	ldr	r3, [pc, #20]	; (4c4 <_GLOBAL__sub_I_local+0x24>)
     4ae:	1c20      	adds	r0, r4, #0
     4b0:	4905      	ldr	r1, [pc, #20]	; (4c8 <_GLOBAL__sub_I_local+0x28>)
     4b2:	4a06      	ldr	r2, [pc, #24]	; (4cc <_GLOBAL__sub_I_local+0x2c>)
     4b4:	6023      	str	r3, [r4, #0]
     4b6:	f001 f865 	bl	1584 <__aeabi_atexit>
     4ba:	bd10      	pop	{r4, pc}
     4bc:	10000160 	.word	0x10000160
     4c0:	00003d60 	.word	0x00003d60
     4c4:	00003e10 	.word	0x00003e10
     4c8:	00000261 	.word	0x00000261
     4cc:	100000c0 	.word	0x100000c0

000004d0 <_start>:
     4d0:	4807      	ldr	r0, [pc, #28]	; (4f0 <_start+0x20>)
     4d2:	4a08      	ldr	r2, [pc, #32]	; (4f4 <_start+0x24>)
     4d4:	b508      	push	{r3, lr}
     4d6:	1a12      	subs	r2, r2, r0
     4d8:	2100      	movs	r1, #0
     4da:	f001 fd10 	bl	1efe <memset>
     4de:	e000      	b.n	4e2 <_start+0x12>
     4e0:	bf00      	nop
     4e2:	f001 fc79 	bl	1dd8 <__libc_init_array>
     4e6:	f7ff fed3 	bl	290 <main>
     4ea:	f000 f83d 	bl	568 <exit>
     4ee:	46c0      	nop			; (mov r8, r8)
     4f0:	10000144 	.word	0x10000144
     4f4:	1000029c 	.word	0x1000029c

000004f8 <__wrap__isatty>:
     4f8:	b508      	push	{r3, lr}
     4fa:	2301      	movs	r3, #1
     4fc:	2802      	cmp	r0, #2
     4fe:	dd02      	ble.n	506 <__wrap__isatty+0xe>
     500:	f000 fbca 	bl	c98 <_isatty>
     504:	1c03      	adds	r3, r0, #0
     506:	1c18      	adds	r0, r3, #0
     508:	bd08      	pop	{r3, pc}
     50a:	46c0      	nop			; (mov r8, r8)

0000050c <__wrap_malloc>:
     50c:	b508      	push	{r3, lr}
     50e:	f3ef 8305 	mrs	r3, IPSR
     512:	2b00      	cmp	r3, #0
     514:	d000      	beq.n	518 <__wrap_malloc+0xc>
     516:	be00      	bkpt	0x0000
     518:	f001 fcd4 	bl	1ec4 <malloc>
     51c:	bd08      	pop	{r3, pc}
     51e:	46c0      	nop			; (mov r8, r8)

00000520 <__wrap_free>:
     520:	b508      	push	{r3, lr}
     522:	f3ef 8305 	mrs	r3, IPSR
     526:	2b00      	cmp	r3, #0
     528:	d000      	beq.n	52c <__wrap_free+0xc>
     52a:	be00      	bkpt	0x0000
     52c:	f001 fcd4 	bl	1ed8 <free>
     530:	bd08      	pop	{r3, pc}
     532:	46c0      	nop			; (mov r8, r8)

00000534 <abort>:
     534:	b508      	push	{r3, lr}
     536:	2001      	movs	r0, #1
     538:	f000 f816 	bl	568 <exit>

0000053c <__cxa_pure_virtual>:
     53c:	b508      	push	{r3, lr}
     53e:	f7ff fff9 	bl	534 <abort>
     542:	46c0      	nop			; (mov r8, r8)

00000544 <error>:
     544:	b40f      	push	{r0, r1, r2, r3}
     546:	b500      	push	{lr}
     548:	b083      	sub	sp, #12
     54a:	aa04      	add	r2, sp, #16
     54c:	ca08      	ldmia	r2!, {r3}
     54e:	4b05      	ldr	r3, [pc, #20]	; (564 <error+0x20>)
     550:	9904      	ldr	r1, [sp, #16]
     552:	681b      	ldr	r3, [r3, #0]
     554:	9201      	str	r2, [sp, #4]
     556:	68d8      	ldr	r0, [r3, #12]
     558:	f002 fa68 	bl	2a2c <vfiprintf>
     55c:	2001      	movs	r0, #1
     55e:	f000 f803 	bl	568 <exit>
     562:	46c0      	nop			; (mov r8, r8)
     564:	10000130 	.word	0x10000130

00000568 <exit>:
     568:	b538      	push	{r3, r4, r5, lr}
     56a:	4c0b      	ldr	r4, [pc, #44]	; (598 <exit+0x30>)
     56c:	1c05      	adds	r5, r0, #0
     56e:	6823      	ldr	r3, [r4, #0]
     570:	6898      	ldr	r0, [r3, #8]
     572:	f001 f9a7 	bl	18c4 <fflush>
     576:	6823      	ldr	r3, [r4, #0]
     578:	68d8      	ldr	r0, [r3, #12]
     57a:	f001 f9a3 	bl	18c4 <fflush>
     57e:	f000 f80d 	bl	59c <mbed_interface_connected>
     582:	2800      	cmp	r0, #0
     584:	d105      	bne.n	592 <exit+0x2a>
     586:	2d00      	cmp	r5, #0
     588:	d100      	bne.n	58c <exit+0x24>
     58a:	e7fe      	b.n	58a <exit+0x22>
     58c:	f000 fd66 	bl	105c <mbed_die>
     590:	e7fb      	b.n	58a <exit+0x22>
     592:	f000 f885 	bl	6a0 <semihost_exit>
     596:	e7f6      	b.n	586 <exit+0x1e>
     598:	10000130 	.word	0x10000130

0000059c <mbed_interface_connected>:
     59c:	b508      	push	{r3, lr}
     59e:	f000 f88b 	bl	6b8 <semihost_connected>
     5a2:	bd08      	pop	{r3, pc}

000005a4 <semihost_open>:
     5a4:	b530      	push	{r4, r5, lr}
     5a6:	b085      	sub	sp, #20
     5a8:	9001      	str	r0, [sp, #4]
     5aa:	9102      	str	r1, [sp, #8]
     5ac:	f001 fe78 	bl	22a0 <strlen>
     5b0:	ac01      	add	r4, sp, #4
     5b2:	60a0      	str	r0, [r4, #8]
     5b4:	2501      	movs	r5, #1
     5b6:	1c28      	adds	r0, r5, #0
     5b8:	1c21      	adds	r1, r4, #0
     5ba:	beab      	bkpt	0x00ab
     5bc:	1c04      	adds	r4, r0, #0
     5be:	1c20      	adds	r0, r4, #0
     5c0:	b005      	add	sp, #20
     5c2:	bd30      	pop	{r4, r5, pc}

000005c4 <semihost_close>:
     5c4:	b530      	push	{r4, r5, lr}
     5c6:	b083      	sub	sp, #12
     5c8:	9001      	str	r0, [sp, #4]
     5ca:	ad01      	add	r5, sp, #4
     5cc:	2402      	movs	r4, #2
     5ce:	1c20      	adds	r0, r4, #0
     5d0:	1c29      	adds	r1, r5, #0
     5d2:	beab      	bkpt	0x00ab
     5d4:	1c04      	adds	r4, r0, #0
     5d6:	1c20      	adds	r0, r4, #0
     5d8:	b003      	add	sp, #12
     5da:	bd30      	pop	{r4, r5, pc}

000005dc <semihost_write>:
     5dc:	b530      	push	{r4, r5, lr}
     5de:	2400      	movs	r4, #0
     5e0:	b085      	sub	sp, #20
     5e2:	2a00      	cmp	r2, #0
     5e4:	d008      	beq.n	5f8 <semihost_write+0x1c>
     5e6:	ac01      	add	r4, sp, #4
     5e8:	9001      	str	r0, [sp, #4]
     5ea:	6061      	str	r1, [r4, #4]
     5ec:	60a2      	str	r2, [r4, #8]
     5ee:	2505      	movs	r5, #5
     5f0:	1c28      	adds	r0, r5, #0
     5f2:	1c21      	adds	r1, r4, #0
     5f4:	beab      	bkpt	0x00ab
     5f6:	1c04      	adds	r4, r0, #0
     5f8:	1c20      	adds	r0, r4, #0
     5fa:	b005      	add	sp, #20
     5fc:	bd30      	pop	{r4, r5, pc}
     5fe:	46c0      	nop			; (mov r8, r8)

00000600 <semihost_read>:
     600:	b530      	push	{r4, r5, lr}
     602:	b085      	sub	sp, #20
     604:	ac01      	add	r4, sp, #4
     606:	9001      	str	r0, [sp, #4]
     608:	9102      	str	r1, [sp, #8]
     60a:	9203      	str	r2, [sp, #12]
     60c:	2506      	movs	r5, #6
     60e:	1c28      	adds	r0, r5, #0
     610:	1c21      	adds	r1, r4, #0
     612:	beab      	bkpt	0x00ab
     614:	1c04      	adds	r4, r0, #0
     616:	1c20      	adds	r0, r4, #0
     618:	b005      	add	sp, #20
     61a:	bd30      	pop	{r4, r5, pc}

0000061c <semihost_istty>:
     61c:	b530      	push	{r4, r5, lr}
     61e:	b083      	sub	sp, #12
     620:	9001      	str	r0, [sp, #4]
     622:	ad01      	add	r5, sp, #4
     624:	2409      	movs	r4, #9
     626:	1c20      	adds	r0, r4, #0
     628:	1c29      	adds	r1, r5, #0
     62a:	beab      	bkpt	0x00ab
     62c:	1c04      	adds	r4, r0, #0
     62e:	1c20      	adds	r0, r4, #0
     630:	b003      	add	sp, #12
     632:	bd30      	pop	{r4, r5, pc}

00000634 <semihost_seek>:
     634:	b530      	push	{r4, r5, lr}
     636:	b083      	sub	sp, #12
     638:	466c      	mov	r4, sp
     63a:	9000      	str	r0, [sp, #0]
     63c:	9101      	str	r1, [sp, #4]
     63e:	250a      	movs	r5, #10
     640:	1c28      	adds	r0, r5, #0
     642:	1c21      	adds	r1, r4, #0
     644:	beab      	bkpt	0x00ab
     646:	1c04      	adds	r4, r0, #0
     648:	1c20      	adds	r0, r4, #0
     64a:	b003      	add	sp, #12
     64c:	bd30      	pop	{r4, r5, pc}
     64e:	46c0      	nop			; (mov r8, r8)

00000650 <semihost_ensure>:
     650:	b530      	push	{r4, r5, lr}
     652:	b083      	sub	sp, #12
     654:	9001      	str	r0, [sp, #4]
     656:	ad01      	add	r5, sp, #4
     658:	240b      	movs	r4, #11
     65a:	1c20      	adds	r0, r4, #0
     65c:	1c29      	adds	r1, r5, #0
     65e:	beab      	bkpt	0x00ab
     660:	1c04      	adds	r4, r0, #0
     662:	1c20      	adds	r0, r4, #0
     664:	b003      	add	sp, #12
     666:	bd30      	pop	{r4, r5, pc}

00000668 <semihost_flen>:
     668:	b530      	push	{r4, r5, lr}
     66a:	b083      	sub	sp, #12
     66c:	9001      	str	r0, [sp, #4]
     66e:	ad01      	add	r5, sp, #4
     670:	240c      	movs	r4, #12
     672:	1c20      	adds	r0, r4, #0
     674:	1c29      	adds	r1, r5, #0
     676:	beab      	bkpt	0x00ab
     678:	1c04      	adds	r4, r0, #0
     67a:	1c20      	adds	r0, r4, #0
     67c:	b003      	add	sp, #12
     67e:	bd30      	pop	{r4, r5, pc}

00000680 <semihost_remove>:
     680:	b530      	push	{r4, r5, lr}
     682:	b083      	sub	sp, #12
     684:	9000      	str	r0, [sp, #0]
     686:	f001 fe0b 	bl	22a0 <strlen>
     68a:	466c      	mov	r4, sp
     68c:	9001      	str	r0, [sp, #4]
     68e:	250e      	movs	r5, #14
     690:	1c28      	adds	r0, r5, #0
     692:	1c21      	adds	r1, r4, #0
     694:	beab      	bkpt	0x00ab
     696:	1c04      	adds	r4, r0, #0
     698:	1c20      	adds	r0, r4, #0
     69a:	b003      	add	sp, #12
     69c:	bd30      	pop	{r4, r5, pc}
     69e:	46c0      	nop			; (mov r8, r8)

000006a0 <semihost_exit>:
     6a0:	b530      	push	{r4, r5, lr}
     6a2:	b085      	sub	sp, #20
     6a4:	466d      	mov	r5, sp
     6a6:	2418      	movs	r4, #24
     6a8:	1c20      	adds	r0, r4, #0
     6aa:	1c29      	adds	r1, r5, #0
     6ac:	beab      	bkpt	0x00ab
     6ae:	1c04      	adds	r4, r0, #0
     6b0:	1c20      	adds	r0, r4, #0
     6b2:	b005      	add	sp, #20
     6b4:	bd30      	pop	{r4, r5, pc}
     6b6:	46c0      	nop			; (mov r8, r8)

000006b8 <semihost_connected>:
     6b8:	4b01      	ldr	r3, [pc, #4]	; (6c0 <semihost_connected+0x8>)
     6ba:	6818      	ldr	r0, [r3, #0]
     6bc:	4770      	bx	lr
     6be:	46c0      	nop			; (mov r8, r8)
     6c0:	100000c4 	.word	0x100000c4

000006c4 <mbed::DirHandle::telldir()>:
     6c4:	2001      	movs	r0, #1
     6c6:	4240      	negs	r0, r0
     6c8:	4770      	bx	lr
     6ca:	46c0      	nop			; (mov r8, r8)

000006cc <mbed::DirHandle::seekdir(long)>:
     6cc:	4770      	bx	lr
     6ce:	46c0      	nop			; (mov r8, r8)

000006d0 <mbed::DirHandle::~DirHandle()>:
     6d0:	4b01      	ldr	r3, [pc, #4]	; (6d8 <mbed::DirHandle::~DirHandle()+0x8>)
     6d2:	6003      	str	r3, [r0, #0]
     6d4:	4770      	bx	lr
     6d6:	46c0      	nop			; (mov r8, r8)
     6d8:	00003d70 	.word	0x00003d70

000006dc <mbed::FileSystemLike::remove(char const*)>:
     6dc:	2001      	movs	r0, #1
     6de:	4240      	negs	r0, r0
     6e0:	4770      	bx	lr
     6e2:	46c0      	nop			; (mov r8, r8)

000006e4 <mbed::FileSystemLike::rename(char const*, char const*)>:
     6e4:	2001      	movs	r0, #1
     6e6:	4240      	negs	r0, r0
     6e8:	4770      	bx	lr
     6ea:	46c0      	nop			; (mov r8, r8)

000006ec <mbed::FileSystemLike::opendir(char const*)>:
     6ec:	2000      	movs	r0, #0
     6ee:	4770      	bx	lr

000006f0 <mbed::FileSystemLike::mkdir(char const*, unsigned int)>:
     6f0:	2001      	movs	r0, #1
     6f2:	4240      	negs	r0, r0
     6f4:	4770      	bx	lr
     6f6:	46c0      	nop			; (mov r8, r8)

000006f8 <mbed::BaseDirHandle::closedir()>:
     6f8:	b508      	push	{r3, lr}
     6fa:	2800      	cmp	r0, #0
     6fc:	d002      	beq.n	704 <mbed::BaseDirHandle::closedir()+0xc>
     6fe:	6803      	ldr	r3, [r0, #0]
     700:	699b      	ldr	r3, [r3, #24]
     702:	4798      	blx	r3
     704:	2000      	movs	r0, #0
     706:	bd08      	pop	{r3, pc}

00000708 <mbed::BaseDirHandle::telldir()>:
     708:	6840      	ldr	r0, [r0, #4]
     70a:	4770      	bx	lr

0000070c <mbed::BaseDirHandle::seekdir(long)>:
     70c:	6041      	str	r1, [r0, #4]
     70e:	4770      	bx	lr

00000710 <mbed::BaseDirHandle::rewinddir()>:
     710:	2300      	movs	r3, #0
     712:	6043      	str	r3, [r0, #4]
     714:	4770      	bx	lr
     716:	46c0      	nop			; (mov r8, r8)

00000718 <mbed::BaseDirHandle::~BaseDirHandle()>:
     718:	4b01      	ldr	r3, [pc, #4]	; (720 <mbed::BaseDirHandle::~BaseDirHandle()+0x8>)
     71a:	6003      	str	r3, [r0, #0]
     71c:	4770      	bx	lr
     71e:	46c0      	nop			; (mov r8, r8)
     720:	00003d70 	.word	0x00003d70

00000724 <mbed::DirHandle::~DirHandle()>:
     724:	b510      	push	{r4, lr}
     726:	4b03      	ldr	r3, [pc, #12]	; (734 <mbed::DirHandle::~DirHandle()+0x10>)
     728:	1c04      	adds	r4, r0, #0
     72a:	6003      	str	r3, [r0, #0]
     72c:	f000 ff31 	bl	1592 <operator delete(void*)>
     730:	1c20      	adds	r0, r4, #0
     732:	bd10      	pop	{r4, pc}
     734:	00003d70 	.word	0x00003d70

00000738 <mbed::BaseDirHandle::~BaseDirHandle()>:
     738:	b510      	push	{r4, lr}
     73a:	4b03      	ldr	r3, [pc, #12]	; (748 <mbed::BaseDirHandle::~BaseDirHandle()+0x10>)
     73c:	1c04      	adds	r4, r0, #0
     73e:	6003      	str	r3, [r0, #0]
     740:	f000 ff27 	bl	1592 <operator delete(void*)>
     744:	1c20      	adds	r0, r4, #0
     746:	bd10      	pop	{r4, pc}
     748:	00003d70 	.word	0x00003d70

0000074c <mbed::BaseDirHandle::readdir()>:
     74c:	b510      	push	{r4, lr}
     74e:	1c04      	adds	r4, r0, #0
     750:	6840      	ldr	r0, [r0, #4]
     752:	f000 fd8f 	bl	1274 <mbed::FileBase::get(int)>
     756:	2800      	cmp	r0, #0
     758:	d00c      	beq.n	774 <mbed::BaseDirHandle::readdir()+0x28>
     75a:	6863      	ldr	r3, [r4, #4]
     75c:	3301      	adds	r3, #1
     75e:	6063      	str	r3, [r4, #4]
     760:	f000 fd9c 	bl	129c <mbed::FileBase::getName()>
     764:	3408      	adds	r4, #8
     766:	1c01      	adds	r1, r0, #0
     768:	22ff      	movs	r2, #255	; 0xff
     76a:	1c20      	adds	r0, r4, #0
     76c:	f001 fdb5 	bl	22da <strncpy>
     770:	1c20      	adds	r0, r4, #0
     772:	bd10      	pop	{r4, pc}
     774:	2000      	movs	r0, #0
     776:	e7fc      	b.n	772 <mbed::BaseDirHandle::readdir()+0x26>

00000778 <mbed::FileSystemLike::~FileSystemLike()>:
     778:	b510      	push	{r4, lr}
     77a:	4b04      	ldr	r3, [pc, #16]	; (78c <mbed::FileSystemLike::~FileSystemLike()+0x14>)
     77c:	1c04      	adds	r4, r0, #0
     77e:	3308      	adds	r3, #8
     780:	6003      	str	r3, [r0, #0]
     782:	f000 fd0b 	bl	119c <mbed::FileBase::~FileBase()>
     786:	1c20      	adds	r0, r4, #0
     788:	bd10      	pop	{r4, pc}
     78a:	46c0      	nop			; (mov r8, r8)
     78c:	00003db8 	.word	0x00003db8

00000790 <mbed::FileSystemLike::~FileSystemLike()>:
     790:	b510      	push	{r4, lr}
     792:	4b05      	ldr	r3, [pc, #20]	; (7a8 <mbed::FileSystemLike::~FileSystemLike()+0x18>)
     794:	1c04      	adds	r4, r0, #0
     796:	3308      	adds	r3, #8
     798:	6003      	str	r3, [r0, #0]
     79a:	f000 fcff 	bl	119c <mbed::FileBase::~FileBase()>
     79e:	1c20      	adds	r0, r4, #0
     7a0:	f000 fef7 	bl	1592 <operator delete(void*)>
     7a4:	1c20      	adds	r0, r4, #0
     7a6:	bd10      	pop	{r4, pc}
     7a8:	00003db8 	.word	0x00003db8

000007ac <mbed::FileSystemLike::FileSystemLike(char const*)>:
     7ac:	b510      	push	{r4, lr}
     7ae:	2201      	movs	r2, #1
     7b0:	1c04      	adds	r4, r0, #0
     7b2:	f000 fd2d 	bl	1210 <mbed::FileBase::FileBase(char const*, mbed::PathType)>
     7b6:	4b02      	ldr	r3, [pc, #8]	; (7c0 <mbed::FileSystemLike::FileSystemLike(char const*)+0x14>)
     7b8:	1c20      	adds	r0, r4, #0
     7ba:	3308      	adds	r3, #8
     7bc:	6023      	str	r3, [r4, #0]
     7be:	bd10      	pop	{r4, pc}
     7c0:	00003db8 	.word	0x00003db8

000007c4 <mbed::FileSystemLike::opendir()>:
     7c4:	2084      	movs	r0, #132	; 0x84
     7c6:	b510      	push	{r4, lr}
     7c8:	0040      	lsls	r0, r0, #1
     7ca:	f000 fee9 	bl	15a0 <operator new(unsigned int)>
     7ce:	4b06      	ldr	r3, [pc, #24]	; (7e8 <mbed::FileSystemLike::opendir()+0x24>)
     7d0:	2280      	movs	r2, #128	; 0x80
     7d2:	6003      	str	r3, [r0, #0]
     7d4:	2300      	movs	r3, #0
     7d6:	1c04      	adds	r4, r0, #0
     7d8:	6043      	str	r3, [r0, #4]
     7da:	2100      	movs	r1, #0
     7dc:	0052      	lsls	r2, r2, #1
     7de:	3008      	adds	r0, #8
     7e0:	f001 fb8d 	bl	1efe <memset>
     7e4:	1c20      	adds	r0, r4, #0
     7e6:	bd10      	pop	{r4, pc}
     7e8:	00003d98 	.word	0x00003d98

000007ec <mbed::LocalDirHandle::closedir()>:
     7ec:	b508      	push	{r3, lr}
     7ee:	2800      	cmp	r0, #0
     7f0:	d002      	beq.n	7f8 <mbed::LocalDirHandle::closedir()+0xc>
     7f2:	6803      	ldr	r3, [r0, #0]
     7f4:	699b      	ldr	r3, [r3, #24]
     7f6:	4798      	blx	r3
     7f8:	2000      	movs	r0, #0
     7fa:	bd08      	pop	{r3, pc}

000007fc <mbed::LocalDirHandle::rewinddir()>:
     7fc:	2394      	movs	r3, #148	; 0x94
     7fe:	2200      	movs	r2, #0
     800:	005b      	lsls	r3, r3, #1
     802:	50c2      	str	r2, [r0, r3]
     804:	4770      	bx	lr
     806:	46c0      	nop			; (mov r8, r8)

00000808 <mbed::LocalDirHandle::telldir()>:
     808:	2394      	movs	r3, #148	; 0x94
     80a:	005b      	lsls	r3, r3, #1
     80c:	58c0      	ldr	r0, [r0, r3]
     80e:	4770      	bx	lr

00000810 <mbed::LocalDirHandle::seekdir(long)>:
     810:	2394      	movs	r3, #148	; 0x94
     812:	005b      	lsls	r3, r3, #1
     814:	50c1      	str	r1, [r0, r3]
     816:	4770      	bx	lr

00000818 <mbed::LocalDirHandle::~LocalDirHandle()>:
     818:	4b01      	ldr	r3, [pc, #4]	; (820 <mbed::LocalDirHandle::~LocalDirHandle()+0x8>)
     81a:	6003      	str	r3, [r0, #0]
     81c:	4770      	bx	lr
     81e:	46c0      	nop			; (mov r8, r8)
     820:	00003d70 	.word	0x00003d70

00000824 <mbed::LocalDirHandle::~LocalDirHandle()>:
     824:	b510      	push	{r4, lr}
     826:	4b03      	ldr	r3, [pc, #12]	; (834 <mbed::LocalDirHandle::~LocalDirHandle()+0x10>)
     828:	1c04      	adds	r4, r0, #0
     82a:	6003      	str	r3, [r0, #0]
     82c:	f000 feb1 	bl	1592 <operator delete(void*)>
     830:	1c20      	adds	r0, r4, #0
     832:	bd10      	pop	{r4, pc}
     834:	00003d70 	.word	0x00003d70

00000838 <mbed::LocalFileHandle::close()>:
     838:	b538      	push	{r3, r4, r5, lr}
     83a:	1c04      	adds	r4, r0, #0
     83c:	6840      	ldr	r0, [r0, #4]
     83e:	f7ff fec1 	bl	5c4 <semihost_close>
     842:	1c05      	adds	r5, r0, #0
     844:	2c00      	cmp	r4, #0
     846:	d003      	beq.n	850 <mbed::LocalFileHandle::close()+0x18>
     848:	6823      	ldr	r3, [r4, #0]
     84a:	1c20      	adds	r0, r4, #0
     84c:	6a1b      	ldr	r3, [r3, #32]
     84e:	4798      	blx	r3
     850:	1c28      	adds	r0, r5, #0
     852:	bd38      	pop	{r3, r4, r5, pc}

00000854 <mbed::LocalFileHandle::write(void const*, unsigned int)>:
     854:	b538      	push	{r3, r4, r5, lr}
     856:	1c04      	adds	r4, r0, #0
     858:	2300      	movs	r3, #0
     85a:	6840      	ldr	r0, [r0, #4]
     85c:	1c15      	adds	r5, r2, #0
     85e:	f7ff febd 	bl	5dc <semihost_write>
     862:	68a2      	ldr	r2, [r4, #8]
     864:	1a28      	subs	r0, r5, r0
     866:	1813      	adds	r3, r2, r0
     868:	60a3      	str	r3, [r4, #8]
     86a:	bd38      	pop	{r3, r4, r5, pc}

0000086c <mbed::LocalFileHandle::read(void*, unsigned int)>:
     86c:	b538      	push	{r3, r4, r5, lr}
     86e:	1c04      	adds	r4, r0, #0
     870:	2300      	movs	r3, #0
     872:	6840      	ldr	r0, [r0, #4]
     874:	1c15      	adds	r5, r2, #0
     876:	f7ff fec3 	bl	600 <semihost_read>
     87a:	68a2      	ldr	r2, [r4, #8]
     87c:	1a28      	subs	r0, r5, r0
     87e:	1813      	adds	r3, r2, r0
     880:	60a3      	str	r3, [r4, #8]
     882:	bd38      	pop	{r3, r4, r5, pc}

00000884 <mbed::LocalFileHandle::isatty()>:
     884:	b508      	push	{r3, lr}
     886:	6840      	ldr	r0, [r0, #4]
     888:	f7ff fec8 	bl	61c <semihost_istty>
     88c:	bd08      	pop	{r3, pc}
     88e:	46c0      	nop			; (mov r8, r8)

00000890 <mbed::LocalFileHandle::flen()>:
     890:	b508      	push	{r3, lr}
     892:	6840      	ldr	r0, [r0, #4]
     894:	f7ff fee8 	bl	668 <semihost_flen>
     898:	bd08      	pop	{r3, pc}
     89a:	46c0      	nop			; (mov r8, r8)

0000089c <mbed::LocalFileHandle::lseek(long, int)>:
     89c:	b538      	push	{r3, r4, r5, lr}
     89e:	1c05      	adds	r5, r0, #0
     8a0:	1c0c      	adds	r4, r1, #0
     8a2:	2a01      	cmp	r2, #1
     8a4:	d008      	beq.n	8b8 <mbed::LocalFileHandle::lseek(long, int)+0x1c>
     8a6:	2a02      	cmp	r2, #2
     8a8:	d009      	beq.n	8be <mbed::LocalFileHandle::lseek(long, int)+0x22>
     8aa:	6868      	ldr	r0, [r5, #4]
     8ac:	1c21      	adds	r1, r4, #0
     8ae:	f7ff fec1 	bl	634 <semihost_seek>
     8b2:	60ac      	str	r4, [r5, #8]
     8b4:	1c20      	adds	r0, r4, #0
     8b6:	bd38      	pop	{r3, r4, r5, pc}
     8b8:	6883      	ldr	r3, [r0, #8]
     8ba:	18cc      	adds	r4, r1, r3
     8bc:	e7f5      	b.n	8aa <mbed::LocalFileHandle::lseek(long, int)+0xe>
     8be:	6840      	ldr	r0, [r0, #4]
     8c0:	f7ff fed2 	bl	668 <semihost_flen>
     8c4:	1824      	adds	r4, r4, r0
     8c6:	e7f0      	b.n	8aa <mbed::LocalFileHandle::lseek(long, int)+0xe>

000008c8 <mbed::LocalFileHandle::fsync()>:
     8c8:	b508      	push	{r3, lr}
     8ca:	6840      	ldr	r0, [r0, #4]
     8cc:	f7ff fec0 	bl	650 <semihost_ensure>
     8d0:	bd08      	pop	{r3, pc}
     8d2:	46c0      	nop			; (mov r8, r8)

000008d4 <mbed::LocalFileSystem::opendir(char const*)>:
     8d4:	209e      	movs	r0, #158	; 0x9e
     8d6:	b510      	push	{r4, lr}
     8d8:	0040      	lsls	r0, r0, #1
     8da:	f000 fe61 	bl	15a0 <operator new(unsigned int)>
     8de:	4b0e      	ldr	r3, [pc, #56]	; (918 <mbed::LocalFileSystem::opendir(char const*)+0x44>)
     8e0:	2280      	movs	r2, #128	; 0x80
     8e2:	1c04      	adds	r4, r0, #0
     8e4:	2100      	movs	r1, #0
     8e6:	c008      	stmia	r0!, {r3}
     8e8:	0052      	lsls	r2, r2, #1
     8ea:	f001 fb08 	bl	1efe <memset>
     8ee:	2282      	movs	r2, #130	; 0x82
     8f0:	2300      	movs	r3, #0
     8f2:	0052      	lsls	r2, r2, #1
     8f4:	50a3      	str	r3, [r4, r2]
     8f6:	1d62      	adds	r2, r4, #5
     8f8:	32ff      	adds	r2, #255	; 0xff
     8fa:	1c20      	adds	r0, r4, #0
     8fc:	6053      	str	r3, [r2, #4]
     8fe:	6093      	str	r3, [r2, #8]
     900:	60d3      	str	r3, [r2, #12]
     902:	6113      	str	r3, [r2, #16]
     904:	6153      	str	r3, [r2, #20]
     906:	6193      	str	r3, [r2, #24]
     908:	61d3      	str	r3, [r2, #28]
     90a:	6213      	str	r3, [r2, #32]
     90c:	6253      	str	r3, [r2, #36]	; 0x24
     90e:	6293      	str	r3, [r2, #40]	; 0x28
     910:	62d3      	str	r3, [r2, #44]	; 0x2c
     912:	6313      	str	r3, [r2, #48]	; 0x30
     914:	6353      	str	r3, [r2, #52]	; 0x34
     916:	bd10      	pop	{r4, pc}
     918:	00003de8 	.word	0x00003de8

0000091c <mbed::LocalFileSystem::remove(char const*)>:
     91c:	b508      	push	{r3, lr}
     91e:	1c08      	adds	r0, r1, #0
     920:	f7ff feae 	bl	680 <semihost_remove>
     924:	bd08      	pop	{r3, pc}
     926:	46c0      	nop			; (mov r8, r8)

00000928 <mbed::LocalFileHandle::~LocalFileHandle()>:
     928:	b510      	push	{r4, lr}
     92a:	4b04      	ldr	r3, [pc, #16]	; (93c <mbed::LocalFileHandle::~LocalFileHandle()+0x14>)
     92c:	1c04      	adds	r4, r0, #0
     92e:	3308      	adds	r3, #8
     930:	6003      	str	r3, [r0, #0]
     932:	f000 f891 	bl	a58 <mbed::FileHandle::~FileHandle()>
     936:	1c20      	adds	r0, r4, #0
     938:	bd10      	pop	{r4, pc}
     93a:	46c0      	nop			; (mov r8, r8)
     93c:	00003e30 	.word	0x00003e30

00000940 <mbed::LocalFileHandle::~LocalFileHandle()>:
     940:	b510      	push	{r4, lr}
     942:	4b05      	ldr	r3, [pc, #20]	; (958 <mbed::LocalFileHandle::~LocalFileHandle()+0x18>)
     944:	1c04      	adds	r4, r0, #0
     946:	3308      	adds	r3, #8
     948:	6003      	str	r3, [r0, #0]
     94a:	f000 f885 	bl	a58 <mbed::FileHandle::~FileHandle()>
     94e:	1c20      	adds	r0, r4, #0
     950:	f000 fe1f 	bl	1592 <operator delete(void*)>
     954:	1c20      	adds	r0, r4, #0
     956:	bd10      	pop	{r4, pc}
     958:	00003e30 	.word	0x00003e30

0000095c <mbed::LocalDirHandle::readdir()>:
     95c:	b5f0      	push	{r4, r5, r6, r7, lr}
     95e:	4b0f      	ldr	r3, [pc, #60]	; (99c <mbed::LocalDirHandle::readdir()+0x40>)
     960:	b085      	sub	sp, #20
     962:	1d45      	adds	r5, r0, #5
     964:	9300      	str	r3, [sp, #0]
     966:	2301      	movs	r3, #1
     968:	35ff      	adds	r5, #255	; 0xff
     96a:	9301      	str	r3, [sp, #4]
     96c:	2780      	movs	r7, #128	; 0x80
     96e:	2338      	movs	r3, #56	; 0x38
     970:	1c06      	adds	r6, r0, #0
     972:	466c      	mov	r4, sp
     974:	9502      	str	r5, [sp, #8]
     976:	9303      	str	r3, [sp, #12]
     978:	007f      	lsls	r7, r7, #1
     97a:	1c38      	adds	r0, r7, #0
     97c:	1c21      	adds	r1, r4, #0
     97e:	beab      	bkpt	0x00ab
     980:	1c04      	adds	r4, r0, #0
     982:	2c00      	cmp	r4, #0
     984:	d108      	bne.n	998 <mbed::LocalDirHandle::readdir()+0x3c>
     986:	3604      	adds	r6, #4
     988:	1c30      	adds	r0, r6, #0
     98a:	1c29      	adds	r1, r5, #0
     98c:	2220      	movs	r2, #32
     98e:	f001 faad 	bl	1eec <memcpy>
     992:	1c30      	adds	r0, r6, #0
     994:	b005      	add	sp, #20
     996:	bdf0      	pop	{r4, r5, r6, r7, pc}
     998:	2000      	movs	r0, #0
     99a:	e7fb      	b.n	994 <mbed::LocalDirHandle::readdir()+0x38>
     99c:	00003e60 	.word	0x00003e60

000009a0 <mbed::posix_to_semihost_open_flags(int)>:
     9a0:	0782      	lsls	r2, r0, #30
     9a2:	d504      	bpl.n	9ae <mbed::posix_to_semihost_open_flags(int)+0xe>
     9a4:	230a      	movs	r3, #10
     9a6:	0702      	lsls	r2, r0, #28
     9a8:	d50c      	bpl.n	9c4 <mbed::posix_to_semihost_open_flags(int)+0x24>
     9aa:	1c18      	adds	r0, r3, #0
     9ac:	4770      	bx	lr
     9ae:	07c3      	lsls	r3, r0, #31
     9b0:	d504      	bpl.n	9bc <mbed::posix_to_semihost_open_flags(int)+0x1c>
     9b2:	2304      	movs	r3, #4
     9b4:	0702      	lsls	r2, r0, #28
     9b6:	d5f8      	bpl.n	9aa <mbed::posix_to_semihost_open_flags(int)+0xa>
     9b8:	2308      	movs	r3, #8
     9ba:	e7f6      	b.n	9aa <mbed::posix_to_semihost_open_flags(int)+0xa>
     9bc:	1e43      	subs	r3, r0, #1
     9be:	4198      	sbcs	r0, r3
     9c0:	4243      	negs	r3, r0
     9c2:	e7f2      	b.n	9aa <mbed::posix_to_semihost_open_flags(int)+0xa>
     9c4:	2302      	movs	r3, #2
     9c6:	0542      	lsls	r2, r0, #21
     9c8:	d5ef      	bpl.n	9aa <mbed::posix_to_semihost_open_flags(int)+0xa>
     9ca:	2306      	movs	r3, #6
     9cc:	e7ed      	b.n	9aa <mbed::posix_to_semihost_open_flags(int)+0xa>
     9ce:	46c0      	nop			; (mov r8, r8)

000009d0 <mbed::LocalFileSystem::open(char const*, int)>:
     9d0:	b538      	push	{r3, r4, r5, lr}
     9d2:	780b      	ldrb	r3, [r1, #0]
     9d4:	1c0d      	adds	r5, r1, #0
     9d6:	2b00      	cmp	r3, #0
     9d8:	d009      	beq.n	9ee <mbed::LocalFileSystem::open(char const*, int)+0x1e>
     9da:	2b2f      	cmp	r3, #47	; 0x2f
     9dc:	d01d      	beq.n	a1a <mbed::LocalFileSystem::open(char const*, int)+0x4a>
     9de:	1c0b      	adds	r3, r1, #0
     9e0:	e001      	b.n	9e6 <mbed::LocalFileSystem::open(char const*, int)+0x16>
     9e2:	2c2f      	cmp	r4, #47	; 0x2f
     9e4:	d019      	beq.n	a1a <mbed::LocalFileSystem::open(char const*, int)+0x4a>
     9e6:	3301      	adds	r3, #1
     9e8:	781c      	ldrb	r4, [r3, #0]
     9ea:	2c00      	cmp	r4, #0
     9ec:	d1f9      	bne.n	9e2 <mbed::LocalFileSystem::open(char const*, int)+0x12>
     9ee:	1c10      	adds	r0, r2, #0
     9f0:	f7ff ffd6 	bl	9a0 <mbed::posix_to_semihost_open_flags(int)>
     9f4:	1c01      	adds	r1, r0, #0
     9f6:	1c43      	adds	r3, r0, #1
     9f8:	d00f      	beq.n	a1a <mbed::LocalFileSystem::open(char const*, int)+0x4a>
     9fa:	1c28      	adds	r0, r5, #0
     9fc:	f7ff fdd2 	bl	5a4 <semihost_open>
     a00:	1c04      	adds	r4, r0, #0
     a02:	1c43      	adds	r3, r0, #1
     a04:	d009      	beq.n	a1a <mbed::LocalFileSystem::open(char const*, int)+0x4a>
     a06:	200c      	movs	r0, #12
     a08:	f000 fdca 	bl	15a0 <operator new(unsigned int)>
     a0c:	4b04      	ldr	r3, [pc, #16]	; (a20 <mbed::LocalFileSystem::open(char const*, int)+0x50>)
     a0e:	6044      	str	r4, [r0, #4]
     a10:	3308      	adds	r3, #8
     a12:	6003      	str	r3, [r0, #0]
     a14:	2300      	movs	r3, #0
     a16:	6083      	str	r3, [r0, #8]
     a18:	e000      	b.n	a1c <mbed::LocalFileSystem::open(char const*, int)+0x4c>
     a1a:	2000      	movs	r0, #0
     a1c:	bd38      	pop	{r3, r4, r5, pc}
     a1e:	46c0      	nop			; (mov r8, r8)
     a20:	00003e30 	.word	0x00003e30

00000a24 <mbed::FileHandle::flen()>:
     a24:	6803      	ldr	r3, [r0, #0]
     a26:	b570      	push	{r4, r5, r6, lr}
     a28:	691b      	ldr	r3, [r3, #16]
     a2a:	2100      	movs	r1, #0
     a2c:	2201      	movs	r2, #1
     a2e:	1c04      	adds	r4, r0, #0
     a30:	4798      	blx	r3
     a32:	1c05      	adds	r5, r0, #0
     a34:	1c43      	adds	r3, r0, #1
     a36:	d00d      	beq.n	a54 <mbed::FileHandle::flen()+0x30>
     a38:	6823      	ldr	r3, [r4, #0]
     a3a:	2100      	movs	r1, #0
     a3c:	691b      	ldr	r3, [r3, #16]
     a3e:	2202      	movs	r2, #2
     a40:	1c20      	adds	r0, r4, #0
     a42:	4798      	blx	r3
     a44:	6823      	ldr	r3, [r4, #0]
     a46:	1c06      	adds	r6, r0, #0
     a48:	691b      	ldr	r3, [r3, #16]
     a4a:	1c20      	adds	r0, r4, #0
     a4c:	1c29      	adds	r1, r5, #0
     a4e:	2200      	movs	r2, #0
     a50:	4798      	blx	r3
     a52:	1c30      	adds	r0, r6, #0
     a54:	bd70      	pop	{r4, r5, r6, pc}
     a56:	46c0      	nop			; (mov r8, r8)

00000a58 <mbed::FileHandle::~FileHandle()>:
     a58:	4b09      	ldr	r3, [pc, #36]	; (a80 <mbed::FileHandle::~FileHandle()+0x28>)
     a5a:	b510      	push	{r4, lr}
     a5c:	3308      	adds	r3, #8
     a5e:	6003      	str	r3, [r0, #0]
     a60:	4b08      	ldr	r3, [pc, #32]	; (a84 <mbed::FileHandle::~FileHandle()+0x2c>)
     a62:	2100      	movs	r1, #0
     a64:	1c5a      	adds	r2, r3, #1
     a66:	32ff      	adds	r2, #255	; 0xff
     a68:	e002      	b.n	a70 <mbed::FileHandle::~FileHandle()+0x18>
     a6a:	3304      	adds	r3, #4
     a6c:	4293      	cmp	r3, r2
     a6e:	d006      	beq.n	a7e <mbed::FileHandle::~FileHandle()+0x26>
     a70:	681c      	ldr	r4, [r3, #0]
     a72:	4284      	cmp	r4, r0
     a74:	d1f9      	bne.n	a6a <mbed::FileHandle::~FileHandle()+0x12>
     a76:	6019      	str	r1, [r3, #0]
     a78:	3304      	adds	r3, #4
     a7a:	4293      	cmp	r3, r2
     a7c:	d1f8      	bne.n	a70 <mbed::FileHandle::~FileHandle()+0x18>
     a7e:	bd10      	pop	{r4, pc}
     a80:	00003e80 	.word	0x00003e80
     a84:	10000170 	.word	0x10000170

00000a88 <mbed::FileHandle::~FileHandle()>:
     a88:	4b0c      	ldr	r3, [pc, #48]	; (abc <mbed::FileHandle::~FileHandle()+0x34>)
     a8a:	b510      	push	{r4, lr}
     a8c:	3308      	adds	r3, #8
     a8e:	6003      	str	r3, [r0, #0]
     a90:	4b0b      	ldr	r3, [pc, #44]	; (ac0 <mbed::FileHandle::~FileHandle()+0x38>)
     a92:	1c04      	adds	r4, r0, #0
     a94:	1c5a      	adds	r2, r3, #1
     a96:	32ff      	adds	r2, #255	; 0xff
     a98:	2100      	movs	r1, #0
     a9a:	e002      	b.n	aa2 <mbed::FileHandle::~FileHandle()+0x1a>
     a9c:	3304      	adds	r3, #4
     a9e:	4293      	cmp	r3, r2
     aa0:	d006      	beq.n	ab0 <mbed::FileHandle::~FileHandle()+0x28>
     aa2:	6818      	ldr	r0, [r3, #0]
     aa4:	4284      	cmp	r4, r0
     aa6:	d1f9      	bne.n	a9c <mbed::FileHandle::~FileHandle()+0x14>
     aa8:	6019      	str	r1, [r3, #0]
     aaa:	3304      	adds	r3, #4
     aac:	4293      	cmp	r3, r2
     aae:	d1f8      	bne.n	aa2 <mbed::FileHandle::~FileHandle()+0x1a>
     ab0:	1c20      	adds	r0, r4, #0
     ab2:	f000 fd6e 	bl	1592 <operator delete(void*)>
     ab6:	1c20      	adds	r0, r4, #0
     ab8:	bd10      	pop	{r4, pc}
     aba:	46c0      	nop			; (mov r8, r8)
     abc:	00003e80 	.word	0x00003e80
     ac0:	10000170 	.word	0x10000170

00000ac4 <init_serial() [clone .part.0]>:
     ac4:	b508      	push	{r3, lr}
     ac6:	4803      	ldr	r0, [pc, #12]	; (ad4 <init_serial() [clone .part.0]+0x10>)
     ac8:	2113      	movs	r1, #19
     aca:	2212      	movs	r2, #18
     acc:	f000 fa38 	bl	f40 <serial_init>
     ad0:	bd08      	pop	{r3, pc}
     ad2:	46c0      	nop			; (mov r8, r8)
     ad4:	10000290 	.word	0x10000290

00000ad8 <_open>:
     ad8:	b5f0      	push	{r4, r5, r6, r7, lr}
     ada:	4647      	mov	r7, r8
     adc:	b480      	push	{r7}
     ade:	1c0e      	adds	r6, r1, #0
     ae0:	b082      	sub	sp, #8
     ae2:	4934      	ldr	r1, [pc, #208]	; (bb4 <_open+0xdc>)
     ae4:	1c05      	adds	r5, r0, #0
     ae6:	f001 fbd1 	bl	228c <strcmp>
     aea:	1e04      	subs	r4, r0, #0
     aec:	d108      	bne.n	b00 <_open+0x28>
     aee:	4b32      	ldr	r3, [pc, #200]	; (bb8 <_open+0xe0>)
     af0:	681b      	ldr	r3, [r3, #0]
     af2:	2b00      	cmp	r3, #0
     af4:	d00f      	beq.n	b16 <_open+0x3e>
     af6:	1c20      	adds	r0, r4, #0
     af8:	b002      	add	sp, #8
     afa:	bc04      	pop	{r2}
     afc:	4690      	mov	r8, r2
     afe:	bdf0      	pop	{r4, r5, r6, r7, pc}
     b00:	1c28      	adds	r0, r5, #0
     b02:	492e      	ldr	r1, [pc, #184]	; (bbc <_open+0xe4>)
     b04:	f001 fbc2 	bl	228c <strcmp>
     b08:	2800      	cmp	r0, #0
     b0a:	d107      	bne.n	b1c <_open+0x44>
     b0c:	4b2a      	ldr	r3, [pc, #168]	; (bb8 <_open+0xe0>)
     b0e:	2401      	movs	r4, #1
     b10:	681b      	ldr	r3, [r3, #0]
     b12:	2b00      	cmp	r3, #0
     b14:	d1ef      	bne.n	af6 <_open+0x1e>
     b16:	f7ff ffd5 	bl	ac4 <init_serial() [clone .part.0]>
     b1a:	e7ec      	b.n	af6 <_open+0x1e>
     b1c:	1c28      	adds	r0, r5, #0
     b1e:	4928      	ldr	r1, [pc, #160]	; (bc0 <_open+0xe8>)
     b20:	f001 fbb4 	bl	228c <strcmp>
     b24:	2800      	cmp	r0, #0
     b26:	d030      	beq.n	b8a <_open+0xb2>
     b28:	4f26      	ldr	r7, [pc, #152]	; (bc4 <_open+0xec>)
     b2a:	2400      	movs	r4, #0
     b2c:	1c3b      	adds	r3, r7, #0
     b2e:	e003      	b.n	b38 <_open+0x60>
     b30:	3401      	adds	r4, #1
     b32:	3304      	adds	r3, #4
     b34:	2c40      	cmp	r4, #64	; 0x40
     b36:	d032      	beq.n	b9e <_open+0xc6>
     b38:	681a      	ldr	r2, [r3, #0]
     b3a:	2a00      	cmp	r2, #0
     b3c:	d1f8      	bne.n	b30 <_open+0x58>
     b3e:	782b      	ldrb	r3, [r5, #0]
     b40:	2b3a      	cmp	r3, #58	; 0x3a
     b42:	d02f      	beq.n	ba4 <_open+0xcc>
     b44:	4668      	mov	r0, sp
     b46:	1c29      	adds	r1, r5, #0
     b48:	f000 fbac 	bl	12a4 <mbed::FilePath::FilePath(char const*)>
     b4c:	4668      	mov	r0, sp
     b4e:	f000 fc01 	bl	1354 <mbed::FilePath::exists()>
     b52:	2800      	cmp	r0, #0
     b54:	d023      	beq.n	b9e <_open+0xc6>
     b56:	4668      	mov	r0, sp
     b58:	f000 fbe0 	bl	131c <mbed::FilePath::isFile()>
     b5c:	2800      	cmp	r0, #0
     b5e:	d11a      	bne.n	b96 <_open+0xbe>
     b60:	4668      	mov	r0, sp
     b62:	f000 fbcd 	bl	1300 <mbed::FilePath::fileSystem()>
     b66:	1e05      	subs	r5, r0, #0
     b68:	d019      	beq.n	b9e <_open+0xc6>
     b6a:	6803      	ldr	r3, [r0, #0]
     b6c:	4668      	mov	r0, sp
     b6e:	689a      	ldr	r2, [r3, #8]
     b70:	4690      	mov	r8, r2
     b72:	f000 fbc3 	bl	12fc <mbed::FilePath::fileName()>
     b76:	1c32      	adds	r2, r6, #0
     b78:	1c01      	adds	r1, r0, #0
     b7a:	1c28      	adds	r0, r5, #0
     b7c:	47c0      	blx	r8
     b7e:	2800      	cmp	r0, #0
     b80:	d00d      	beq.n	b9e <_open+0xc6>
     b82:	00a3      	lsls	r3, r4, #2
     b84:	50f8      	str	r0, [r7, r3]
     b86:	3403      	adds	r4, #3
     b88:	e7b5      	b.n	af6 <_open+0x1e>
     b8a:	4b0b      	ldr	r3, [pc, #44]	; (bb8 <_open+0xe0>)
     b8c:	2402      	movs	r4, #2
     b8e:	681b      	ldr	r3, [r3, #0]
     b90:	2b00      	cmp	r3, #0
     b92:	d1b0      	bne.n	af6 <_open+0x1e>
     b94:	e7bf      	b.n	b16 <_open+0x3e>
     b96:	4668      	mov	r0, sp
     b98:	f000 fbcc 	bl	1334 <mbed::FilePath::file()>
     b9c:	e7ef      	b.n	b7e <_open+0xa6>
     b9e:	2401      	movs	r4, #1
     ba0:	4264      	negs	r4, r4
     ba2:	e7a8      	b.n	af6 <_open+0x1e>
     ba4:	1c28      	adds	r0, r5, #0
     ba6:	4908      	ldr	r1, [pc, #32]	; (bc8 <_open+0xf0>)
     ba8:	466a      	mov	r2, sp
     baa:	f001 faf9 	bl	21a0 <siscanf>
     bae:	9800      	ldr	r0, [sp, #0]
     bb0:	e7e5      	b.n	b7e <_open+0xa6>
     bb2:	46c0      	nop			; (mov r8, r8)
     bb4:	00003e64 	.word	0x00003e64
     bb8:	10000270 	.word	0x10000270
     bbc:	00003e74 	.word	0x00003e74
     bc0:	00003e6c 	.word	0x00003e6c
     bc4:	10000170 	.word	0x10000170
     bc8:	00003eb0 	.word	0x00003eb0

00000bcc <_close>:
     bcc:	b508      	push	{r3, lr}
     bce:	2300      	movs	r3, #0
     bd0:	2802      	cmp	r0, #2
     bd2:	dd0a      	ble.n	bea <_close+0x1e>
     bd4:	3803      	subs	r0, #3
     bd6:	4a07      	ldr	r2, [pc, #28]	; (bf4 <_close+0x28>)
     bd8:	0081      	lsls	r1, r0, #2
     bda:	5888      	ldr	r0, [r1, r2]
     bdc:	508b      	str	r3, [r1, r2]
     bde:	2800      	cmp	r0, #0
     be0:	d005      	beq.n	bee <_close+0x22>
     be2:	6803      	ldr	r3, [r0, #0]
     be4:	685b      	ldr	r3, [r3, #4]
     be6:	4798      	blx	r3
     be8:	1c03      	adds	r3, r0, #0
     bea:	1c18      	adds	r0, r3, #0
     bec:	bd08      	pop	{r3, pc}
     bee:	2301      	movs	r3, #1
     bf0:	425b      	negs	r3, r3
     bf2:	e7fa      	b.n	bea <_close+0x1e>
     bf4:	10000170 	.word	0x10000170

00000bf8 <_write>:
     bf8:	b5f8      	push	{r3, r4, r5, r6, r7, lr}
     bfa:	1c0c      	adds	r4, r1, #0
     bfc:	1c17      	adds	r7, r2, #0
     bfe:	2802      	cmp	r0, #2
     c00:	dc12      	bgt.n	c28 <_write+0x30>
     c02:	4b10      	ldr	r3, [pc, #64]	; (c44 <_write+0x4c>)
     c04:	681b      	ldr	r3, [r3, #0]
     c06:	2b00      	cmp	r3, #0
     c08:	d101      	bne.n	c0e <_write+0x16>
     c0a:	f7ff ff5b 	bl	ac4 <init_serial() [clone .part.0]>
     c0e:	2f00      	cmp	r7, #0
     c10:	d008      	beq.n	c24 <_write+0x2c>
     c12:	4d0d      	ldr	r5, [pc, #52]	; (c48 <_write+0x50>)
     c14:	19e6      	adds	r6, r4, r7
     c16:	7821      	ldrb	r1, [r4, #0]
     c18:	1c28      	adds	r0, r5, #0
     c1a:	3401      	adds	r4, #1
     c1c:	f000 f9f6 	bl	100c <serial_putc>
     c20:	42b4      	cmp	r4, r6
     c22:	d1f8      	bne.n	c16 <_write+0x1e>
     c24:	1c38      	adds	r0, r7, #0
     c26:	bdf8      	pop	{r3, r4, r5, r6, r7, pc}
     c28:	3803      	subs	r0, #3
     c2a:	4b08      	ldr	r3, [pc, #32]	; (c4c <_write+0x54>)
     c2c:	0080      	lsls	r0, r0, #2
     c2e:	58c0      	ldr	r0, [r0, r3]
     c30:	2800      	cmp	r0, #0
     c32:	d003      	beq.n	c3c <_write+0x44>
     c34:	6803      	ldr	r3, [r0, #0]
     c36:	681b      	ldr	r3, [r3, #0]
     c38:	4798      	blx	r3
     c3a:	e7f4      	b.n	c26 <_write+0x2e>
     c3c:	2001      	movs	r0, #1
     c3e:	4240      	negs	r0, r0
     c40:	e7f1      	b.n	c26 <_write+0x2e>
     c42:	46c0      	nop			; (mov r8, r8)
     c44:	10000270 	.word	0x10000270
     c48:	10000290 	.word	0x10000290
     c4c:	10000170 	.word	0x10000170

00000c50 <_read>:
     c50:	b510      	push	{r4, lr}
     c52:	1c0c      	adds	r4, r1, #0
     c54:	2802      	cmp	r0, #2
     c56:	dc09      	bgt.n	c6c <_read+0x1c>
     c58:	4b0c      	ldr	r3, [pc, #48]	; (c8c <_read+0x3c>)
     c5a:	681b      	ldr	r3, [r3, #0]
     c5c:	2b00      	cmp	r3, #0
     c5e:	d00f      	beq.n	c80 <_read+0x30>
     c60:	480b      	ldr	r0, [pc, #44]	; (c90 <_read+0x40>)
     c62:	f000 f9cb 	bl	ffc <serial_getc>
     c66:	7020      	strb	r0, [r4, #0]
     c68:	2001      	movs	r0, #1
     c6a:	bd10      	pop	{r4, pc}
     c6c:	3803      	subs	r0, #3
     c6e:	4b09      	ldr	r3, [pc, #36]	; (c94 <_read+0x44>)
     c70:	0080      	lsls	r0, r0, #2
     c72:	58c0      	ldr	r0, [r0, r3]
     c74:	2800      	cmp	r0, #0
     c76:	d006      	beq.n	c86 <_read+0x36>
     c78:	6803      	ldr	r3, [r0, #0]
     c7a:	689b      	ldr	r3, [r3, #8]
     c7c:	4798      	blx	r3
     c7e:	e7f4      	b.n	c6a <_read+0x1a>
     c80:	f7ff ff20 	bl	ac4 <init_serial() [clone .part.0]>
     c84:	e7ec      	b.n	c60 <_read+0x10>
     c86:	2001      	movs	r0, #1
     c88:	4240      	negs	r0, r0
     c8a:	e7ee      	b.n	c6a <_read+0x1a>
     c8c:	10000270 	.word	0x10000270
     c90:	10000290 	.word	0x10000290
     c94:	10000170 	.word	0x10000170

00000c98 <_isatty>:
     c98:	b508      	push	{r3, lr}
     c9a:	1c03      	adds	r3, r0, #0
     c9c:	2001      	movs	r0, #1
     c9e:	2b02      	cmp	r3, #2
     ca0:	dd08      	ble.n	cb4 <_isatty+0x1c>
     ca2:	3b03      	subs	r3, #3
     ca4:	4a05      	ldr	r2, [pc, #20]	; (cbc <_isatty+0x24>)
     ca6:	009b      	lsls	r3, r3, #2
     ca8:	5898      	ldr	r0, [r3, r2]
     caa:	2800      	cmp	r0, #0
     cac:	d003      	beq.n	cb6 <_isatty+0x1e>
     cae:	6803      	ldr	r3, [r0, #0]
     cb0:	68db      	ldr	r3, [r3, #12]
     cb2:	4798      	blx	r3
     cb4:	bd08      	pop	{r3, pc}
     cb6:	2001      	movs	r0, #1
     cb8:	4240      	negs	r0, r0
     cba:	e7fb      	b.n	cb4 <_isatty+0x1c>
     cbc:	10000170 	.word	0x10000170

00000cc0 <_lseek>:
     cc0:	b508      	push	{r3, lr}
     cc2:	1c03      	adds	r3, r0, #0
     cc4:	2000      	movs	r0, #0
     cc6:	2b02      	cmp	r3, #2
     cc8:	dd08      	ble.n	cdc <_lseek+0x1c>
     cca:	3b03      	subs	r3, #3
     ccc:	4805      	ldr	r0, [pc, #20]	; (ce4 <_lseek+0x24>)
     cce:	009b      	lsls	r3, r3, #2
     cd0:	5818      	ldr	r0, [r3, r0]
     cd2:	2800      	cmp	r0, #0
     cd4:	d003      	beq.n	cde <_lseek+0x1e>
     cd6:	6803      	ldr	r3, [r0, #0]
     cd8:	691b      	ldr	r3, [r3, #16]
     cda:	4798      	blx	r3
     cdc:	bd08      	pop	{r3, pc}
     cde:	2001      	movs	r0, #1
     ce0:	4240      	negs	r0, r0
     ce2:	e7fb      	b.n	cdc <_lseek+0x1c>
     ce4:	10000170 	.word	0x10000170

00000ce8 <_fstat>:
     ce8:	b508      	push	{r3, lr}
     cea:	2802      	cmp	r0, #2
     cec:	d804      	bhi.n	cf8 <_fstat+0x10>
     cee:	2380      	movs	r3, #128	; 0x80
     cf0:	019b      	lsls	r3, r3, #6
     cf2:	604b      	str	r3, [r1, #4]
     cf4:	2000      	movs	r0, #0
     cf6:	bd08      	pop	{r3, pc}
     cf8:	f000 fcc6 	bl	1688 <__errno>
     cfc:	2309      	movs	r3, #9
     cfe:	6003      	str	r3, [r0, #0]
     d00:	2001      	movs	r0, #1
     d02:	4240      	negs	r0, r0
     d04:	e7f7      	b.n	cf6 <_fstat+0xe>
     d06:	46c0      	nop			; (mov r8, r8)

00000d08 <remove>:
     d08:	b530      	push	{r4, r5, lr}
     d0a:	b083      	sub	sp, #12
     d0c:	1c01      	adds	r1, r0, #0
     d0e:	4668      	mov	r0, sp
     d10:	f000 fac8 	bl	12a4 <mbed::FilePath::FilePath(char const*)>
     d14:	4668      	mov	r0, sp
     d16:	f000 faf3 	bl	1300 <mbed::FilePath::fileSystem()>
     d1a:	1e04      	subs	r4, r0, #0
     d1c:	d009      	beq.n	d32 <remove+0x2a>
     d1e:	6803      	ldr	r3, [r0, #0]
     d20:	4668      	mov	r0, sp
     d22:	68dd      	ldr	r5, [r3, #12]
     d24:	f000 faea 	bl	12fc <mbed::FilePath::fileName()>
     d28:	1c01      	adds	r1, r0, #0
     d2a:	1c20      	adds	r0, r4, #0
     d2c:	47a8      	blx	r5
     d2e:	b003      	add	sp, #12
     d30:	bd30      	pop	{r4, r5, pc}
     d32:	2001      	movs	r0, #1
     d34:	4240      	negs	r0, r0
     d36:	e7fa      	b.n	d2e <remove+0x26>

00000d38 <opendir>:
     d38:	b530      	push	{r4, r5, lr}
     d3a:	7803      	ldrb	r3, [r0, #0]
     d3c:	b083      	sub	sp, #12
     d3e:	1c01      	adds	r1, r0, #0
     d40:	2b2f      	cmp	r3, #47	; 0x2f
     d42:	d011      	beq.n	d68 <opendir+0x30>
     d44:	4668      	mov	r0, sp
     d46:	f000 faad 	bl	12a4 <mbed::FilePath::FilePath(char const*)>
     d4a:	4668      	mov	r0, sp
     d4c:	f000 fad8 	bl	1300 <mbed::FilePath::fileSystem()>
     d50:	1e04      	subs	r4, r0, #0
     d52:	d00f      	beq.n	d74 <opendir+0x3c>
     d54:	6803      	ldr	r3, [r0, #0]
     d56:	4668      	mov	r0, sp
     d58:	695d      	ldr	r5, [r3, #20]
     d5a:	f000 facf 	bl	12fc <mbed::FilePath::fileName()>
     d5e:	1c01      	adds	r1, r0, #0
     d60:	1c20      	adds	r0, r4, #0
     d62:	47a8      	blx	r5
     d64:	b003      	add	sp, #12
     d66:	bd30      	pop	{r4, r5, pc}
     d68:	7843      	ldrb	r3, [r0, #1]
     d6a:	2b00      	cmp	r3, #0
     d6c:	d1ea      	bne.n	d44 <opendir+0xc>
     d6e:	f7ff fd29 	bl	7c4 <mbed::FileSystemLike::opendir()>
     d72:	e7f7      	b.n	d64 <opendir+0x2c>
     d74:	2000      	movs	r0, #0
     d76:	e7f5      	b.n	d64 <opendir+0x2c>

00000d78 <readdir>:
     d78:	b508      	push	{r3, lr}
     d7a:	6803      	ldr	r3, [r0, #0]
     d7c:	685b      	ldr	r3, [r3, #4]
     d7e:	4798      	blx	r3
     d80:	bd08      	pop	{r3, pc}
     d82:	46c0      	nop			; (mov r8, r8)

00000d84 <closedir>:
     d84:	b508      	push	{r3, lr}
     d86:	6803      	ldr	r3, [r0, #0]
     d88:	681b      	ldr	r3, [r3, #0]
     d8a:	4798      	blx	r3
     d8c:	bd08      	pop	{r3, pc}
     d8e:	46c0      	nop			; (mov r8, r8)

00000d90 <_sbrk>:
     d90:	4a07      	ldr	r2, [pc, #28]	; (db0 <_sbrk+0x20>)
     d92:	6813      	ldr	r3, [r2, #0]
     d94:	1818      	adds	r0, r3, r0
     d96:	f3ef 8108 	mrs	r1, MSP
     d9a:	4288      	cmp	r0, r1
     d9c:	d202      	bcs.n	da4 <_sbrk+0x14>
     d9e:	6010      	str	r0, [r2, #0]
     da0:	1c18      	adds	r0, r3, #0
     da2:	4770      	bx	lr
     da4:	4b03      	ldr	r3, [pc, #12]	; (db4 <_sbrk+0x24>)
     da6:	220c      	movs	r2, #12
     da8:	2001      	movs	r0, #1
     daa:	601a      	str	r2, [r3, #0]
     dac:	4240      	negs	r0, r0
     dae:	e7f8      	b.n	da2 <_sbrk+0x12>
     db0:	100000c8 	.word	0x100000c8
     db4:	10000298 	.word	0x10000298

00000db8 <NMI_Handler>:
     db8:	e7fe      	b.n	db8 <NMI_Handler>

00000dba <HardFault_Handler>:
     dba:	e7fe      	b.n	dba <HardFault_Handler>

00000dbc <SVC_Handler>:
     dbc:	e7fe      	b.n	dbc <SVC_Handler>

00000dbe <PendSV_Handler>:
     dbe:	e7fe      	b.n	dbe <PendSV_Handler>

00000dc0 <SysTick_Handler>:
     dc0:	e7fe      	b.n	dc0 <SysTick_Handler>

00000dc2 <ADC_IRQHandler>:
     dc2:	e7fe      	b.n	dc2 <ADC_IRQHandler>

00000dc4 <serial_baud>:
     dc4:	b5f0      	push	{r4, r5, r6, r7, lr}
     dc6:	4644      	mov	r4, r8
     dc8:	465f      	mov	r7, r11
     dca:	4656      	mov	r6, r10
     dcc:	464d      	mov	r5, r9
     dce:	b4f0      	push	{r4, r5, r6, r7}
     dd0:	4a59      	ldr	r2, [pc, #356]	; (f38 <serial_baud+0x174>)
     dd2:	b08d      	sub	sp, #52	; 0x34
     dd4:	4688      	mov	r8, r1
     dd6:	2398      	movs	r3, #152	; 0x98
     dd8:	2101      	movs	r1, #1
     dda:	900b      	str	r0, [sp, #44]	; 0x2c
     ddc:	50d1      	str	r1, [r2, r3]
     dde:	4b57      	ldr	r3, [pc, #348]	; (f3c <serial_baud+0x178>)
     de0:	4641      	mov	r1, r8
     de2:	681b      	ldr	r3, [r3, #0]
     de4:	010c      	lsls	r4, r1, #4
     de6:	1c18      	adds	r0, r3, #0
     de8:	1c21      	adds	r1, r4, #0
     dea:	9308      	str	r3, [sp, #32]
     dec:	f000 fbec 	bl	15c8 <__aeabi_uidiv>
     df0:	b280      	uxth	r0, r0
     df2:	9004      	str	r0, [sp, #16]
     df4:	1c21      	adds	r1, r4, #0
     df6:	9808      	ldr	r0, [sp, #32]
     df8:	f000 fc2a 	bl	1650 <__aeabi_uidivmod>
     dfc:	2010      	movs	r0, #16
     dfe:	2900      	cmp	r1, #0
     e00:	d067      	beq.n	ed2 <serial_baud+0x10e>
     e02:	9c08      	ldr	r4, [sp, #32]
     e04:	46c3      	mov	r11, r8
     e06:	0064      	lsls	r4, r4, #1
     e08:	940a      	str	r4, [sp, #40]	; 0x28
     e0a:	9c08      	ldr	r4, [sp, #32]
     e0c:	00a4      	lsls	r4, r4, #2
     e0e:	9409      	str	r4, [sp, #36]	; 0x24
     e10:	4644      	mov	r4, r8
     e12:	9407      	str	r4, [sp, #28]
     e14:	9c09      	ldr	r4, [sp, #36]	; 0x24
     e16:	9403      	str	r4, [sp, #12]
     e18:	9c0a      	ldr	r4, [sp, #40]	; 0x28
     e1a:	9400      	str	r4, [sp, #0]
     e1c:	9c08      	ldr	r4, [sp, #32]
     e1e:	9402      	str	r4, [sp, #8]
     e20:	2401      	movs	r4, #1
     e22:	9401      	str	r4, [sp, #4]
     e24:	9406      	str	r4, [sp, #24]
     e26:	2400      	movs	r4, #0
     e28:	9405      	str	r4, [sp, #20]
     e2a:	9c01      	ldr	r4, [sp, #4]
     e2c:	9f07      	ldr	r7, [sp, #28]
     e2e:	b2e4      	uxtb	r4, r4
     e30:	46a2      	mov	r10, r4
     e32:	2500      	movs	r5, #0
     e34:	2600      	movs	r6, #0
     e36:	9c00      	ldr	r4, [sp, #0]
     e38:	2c00      	cmp	r4, #0
     e3a:	db69      	blt.n	f10 <serial_baud+0x14c>
     e3c:	9803      	ldr	r0, [sp, #12]
     e3e:	1c39      	adds	r1, r7, #0
     e40:	f000 fbc2 	bl	15c8 <__aeabi_uidiv>
     e44:	9c01      	ldr	r4, [sp, #4]
     e46:	1964      	adds	r4, r4, r5
     e48:	46a1      	mov	r9, r4
     e4a:	0944      	lsrs	r4, r0, #5
     e4c:	3401      	adds	r4, #1
     e4e:	0864      	lsrs	r4, r4, #1
     e50:	b2a4      	uxth	r4, r4
     e52:	2c00      	cmp	r4, #0
     e54:	d155      	bne.n	f02 <serial_baud+0x13e>
     e56:	2102      	movs	r1, #2
     e58:	2402      	movs	r4, #2
     e5a:	2e00      	cmp	r6, #0
     e5c:	d101      	bne.n	e62 <serial_baud+0x9e>
     e5e:	2401      	movs	r4, #1
     e60:	1c21      	adds	r1, r4, #0
     e62:	464a      	mov	r2, r9
     e64:	4351      	muls	r1, r2
     e66:	9802      	ldr	r0, [sp, #8]
     e68:	00c9      	lsls	r1, r1, #3
     e6a:	f000 fbad 	bl	15c8 <__aeabi_uidiv>
     e6e:	3001      	adds	r0, #1
     e70:	0840      	lsrs	r0, r0, #1
     e72:	4643      	mov	r3, r8
     e74:	1ac0      	subs	r0, r0, r3
     e76:	17c1      	asrs	r1, r0, #31
     e78:	1840      	adds	r0, r0, r1
     e7a:	4048      	eors	r0, r1
     e7c:	4558      	cmp	r0, r11
     e7e:	da06      	bge.n	e8e <serial_baud+0xca>
     e80:	4540      	cmp	r0, r8
     e82:	d051      	beq.n	f28 <serial_baud+0x164>
     e84:	4653      	mov	r3, r10
     e86:	4683      	mov	r11, r0
     e88:	9306      	str	r3, [sp, #24]
     e8a:	9605      	str	r6, [sp, #20]
     e8c:	9404      	str	r4, [sp, #16]
     e8e:	3501      	adds	r5, #1
     e90:	b2ee      	uxtb	r6, r5
     e92:	4447      	add	r7, r8
     e94:	45b2      	cmp	r10, r6
     e96:	d8ce      	bhi.n	e36 <serial_baud+0x72>
     e98:	2300      	movs	r3, #0
     e9a:	9c01      	ldr	r4, [sp, #4]
     e9c:	2c0f      	cmp	r4, #15
     e9e:	d014      	beq.n	eca <serial_baud+0x106>
     ea0:	9c02      	ldr	r4, [sp, #8]
     ea2:	9908      	ldr	r1, [sp, #32]
     ea4:	9a07      	ldr	r2, [sp, #28]
     ea6:	1864      	adds	r4, r4, r1
     ea8:	9402      	str	r4, [sp, #8]
     eaa:	9c01      	ldr	r4, [sp, #4]
     eac:	990a      	ldr	r1, [sp, #40]	; 0x28
     eae:	3401      	adds	r4, #1
     eb0:	9401      	str	r4, [sp, #4]
     eb2:	9c00      	ldr	r4, [sp, #0]
     eb4:	1864      	adds	r4, r4, r1
     eb6:	9400      	str	r4, [sp, #0]
     eb8:	9909      	ldr	r1, [sp, #36]	; 0x24
     eba:	9c03      	ldr	r4, [sp, #12]
     ebc:	1864      	adds	r4, r4, r1
     ebe:	9403      	str	r4, [sp, #12]
     ec0:	1c14      	adds	r4, r2, #0
     ec2:	4444      	add	r4, r8
     ec4:	9407      	str	r4, [sp, #28]
     ec6:	2b00      	cmp	r3, #0
     ec8:	d0af      	beq.n	e2a <serial_baud+0x66>
     eca:	9c06      	ldr	r4, [sp, #24]
     ecc:	0120      	lsls	r0, r4, #4
     ece:	9c05      	ldr	r4, [sp, #20]
     ed0:	4320      	orrs	r0, r4
     ed2:	9c0b      	ldr	r4, [sp, #44]	; 0x2c
     ed4:	2280      	movs	r2, #128	; 0x80
     ed6:	6823      	ldr	r3, [r4, #0]
     ed8:	9c04      	ldr	r4, [sp, #16]
     eda:	68d9      	ldr	r1, [r3, #12]
     edc:	4311      	orrs	r1, r2
     ede:	60d9      	str	r1, [r3, #12]
     ee0:	0a21      	lsrs	r1, r4, #8
     ee2:	b289      	uxth	r1, r1
     ee4:	6059      	str	r1, [r3, #4]
     ee6:	21ff      	movs	r1, #255	; 0xff
     ee8:	4021      	ands	r1, r4
     eea:	6019      	str	r1, [r3, #0]
     eec:	6298      	str	r0, [r3, #40]	; 0x28
     eee:	68d9      	ldr	r1, [r3, #12]
     ef0:	4391      	bics	r1, r2
     ef2:	60d9      	str	r1, [r3, #12]
     ef4:	b00d      	add	sp, #52	; 0x34
     ef6:	bc3c      	pop	{r2, r3, r4, r5}
     ef8:	4690      	mov	r8, r2
     efa:	4699      	mov	r9, r3
     efc:	46a2      	mov	r10, r4
     efe:	46ab      	mov	r11, r5
     f00:	bdf0      	pop	{r4, r5, r6, r7, pc}
     f02:	2e00      	cmp	r6, #0
     f04:	d0ac      	beq.n	e60 <serial_baud+0x9c>
     f06:	2c01      	cmp	r4, #1
     f08:	d8aa      	bhi.n	e60 <serial_baud+0x9c>
     f0a:	2102      	movs	r1, #2
     f0c:	2402      	movs	r4, #2
     f0e:	e7a8      	b.n	e62 <serial_baud+0x9e>
     f10:	9800      	ldr	r0, [sp, #0]
     f12:	1c39      	adds	r1, r7, #0
     f14:	f000 fb58 	bl	15c8 <__aeabi_uidiv>
     f18:	9c01      	ldr	r4, [sp, #4]
     f1a:	1964      	adds	r4, r4, r5
     f1c:	46a1      	mov	r9, r4
     f1e:	0904      	lsrs	r4, r0, #4
     f20:	3401      	adds	r4, #1
     f22:	0864      	lsrs	r4, r4, #1
     f24:	b2a4      	uxth	r4, r4
     f26:	e794      	b.n	e52 <serial_baud+0x8e>
     f28:	4652      	mov	r2, r10
     f2a:	46c3      	mov	r11, r8
     f2c:	9206      	str	r2, [sp, #24]
     f2e:	9605      	str	r6, [sp, #20]
     f30:	9404      	str	r4, [sp, #16]
     f32:	2301      	movs	r3, #1
     f34:	e7b1      	b.n	e9a <serial_baud+0xd6>
     f36:	46c0      	nop			; (mov r8, r8)
     f38:	40048000 	.word	0x40048000
     f3c:	100000cc 	.word	0x100000cc

00000f40 <serial_init>:
     f40:	b5f8      	push	{r3, r4, r5, r6, r7, lr}
     f42:	4b28      	ldr	r3, [pc, #160]	; (fe4 <serial_init+0xa4>)
     f44:	464f      	mov	r7, r9
     f46:	4646      	mov	r6, r8
     f48:	b4c0      	push	{r6, r7}
     f4a:	1c04      	adds	r4, r0, #0
     f4c:	1c0f      	adds	r7, r1, #0
     f4e:	1c08      	adds	r0, r1, #0
     f50:	1c19      	adds	r1, r3, #0
     f52:	1c16      	adds	r6, r2, #0
     f54:	4699      	mov	r9, r3
     f56:	f000 f8f5 	bl	1144 <pinmap_peripheral>
     f5a:	4b23      	ldr	r3, [pc, #140]	; (fe8 <serial_init+0xa8>)
     f5c:	1c05      	adds	r5, r0, #0
     f5e:	1c19      	adds	r1, r3, #0
     f60:	1c30      	adds	r0, r6, #0
     f62:	4698      	mov	r8, r3
     f64:	f000 f8ee 	bl	1144 <pinmap_peripheral>
     f68:	1c01      	adds	r1, r0, #0
     f6a:	1c28      	adds	r0, r5, #0
     f6c:	f000 f8d8 	bl	1120 <pinmap_merge>
     f70:	4a1e      	ldr	r2, [pc, #120]	; (fec <serial_init+0xac>)
     f72:	2380      	movs	r3, #128	; 0x80
     f74:	6020      	str	r0, [r4, #0]
     f76:	1c05      	adds	r5, r0, #0
     f78:	2180      	movs	r1, #128	; 0x80
     f7a:	58d0      	ldr	r0, [r2, r3]
     f7c:	0149      	lsls	r1, r1, #5
     f7e:	4301      	orrs	r1, r0
     f80:	50d1      	str	r1, [r2, r3]
     f82:	2301      	movs	r3, #1
     f84:	60ab      	str	r3, [r5, #8]
     f86:	2196      	movs	r1, #150	; 0x96
     f88:	2300      	movs	r3, #0
     f8a:	606b      	str	r3, [r5, #4]
     f8c:	1c20      	adds	r0, r4, #0
     f8e:	0189      	lsls	r1, r1, #6
     f90:	f7ff ff18 	bl	dc4 <serial_baud>
     f94:	6823      	ldr	r3, [r4, #0]
     f96:	2203      	movs	r2, #3
     f98:	60da      	str	r2, [r3, #12]
     f9a:	1c38      	adds	r0, r7, #0
     f9c:	4649      	mov	r1, r9
     f9e:	f000 f8a3 	bl	10e8 <pinmap_pinout>
     fa2:	1c30      	adds	r0, r6, #0
     fa4:	4641      	mov	r1, r8
     fa6:	f000 f89f 	bl	10e8 <pinmap_pinout>
     faa:	1c7b      	adds	r3, r7, #1
     fac:	d003      	beq.n	fb6 <serial_init+0x76>
     fae:	1c38      	adds	r0, r7, #0
     fb0:	2102      	movs	r1, #2
     fb2:	f000 fa39 	bl	1428 <pin_mode>
     fb6:	1c73      	adds	r3, r6, #1
     fb8:	d003      	beq.n	fc2 <serial_init+0x82>
     fba:	1c30      	adds	r0, r6, #0
     fbc:	2102      	movs	r1, #2
     fbe:	f000 fa33 	bl	1428 <pin_mode>
     fc2:	4b0b      	ldr	r3, [pc, #44]	; (ff0 <serial_init+0xb0>)
     fc4:	429d      	cmp	r5, r3
     fc6:	d109      	bne.n	fdc <serial_init+0x9c>
     fc8:	2300      	movs	r3, #0
     fca:	6063      	str	r3, [r4, #4]
     fcc:	4b09      	ldr	r3, [pc, #36]	; (ff4 <serial_init+0xb4>)
     fce:	2201      	movs	r2, #1
     fd0:	601a      	str	r2, [r3, #0]
     fd2:	4809      	ldr	r0, [pc, #36]	; (ff8 <serial_init+0xb8>)
     fd4:	1c21      	adds	r1, r4, #0
     fd6:	2208      	movs	r2, #8
     fd8:	f000 ff88 	bl	1eec <memcpy>
     fdc:	bc0c      	pop	{r2, r3}
     fde:	4690      	mov	r8, r2
     fe0:	4699      	mov	r9, r3
     fe2:	bdf8      	pop	{r3, r4, r5, r6, r7, pc}
     fe4:	00003ef0 	.word	0x00003ef0
     fe8:	00003ec0 	.word	0x00003ec0
     fec:	40048000 	.word	0x40048000
     ff0:	40008000 	.word	0x40008000
     ff4:	10000270 	.word	0x10000270
     ff8:	10000290 	.word	0x10000290

00000ffc <serial_getc>:
     ffc:	6802      	ldr	r2, [r0, #0]
     ffe:	2101      	movs	r1, #1
    1000:	6953      	ldr	r3, [r2, #20]
    1002:	4219      	tst	r1, r3
    1004:	d0fc      	beq.n	1000 <serial_getc+0x4>
    1006:	6810      	ldr	r0, [r2, #0]
    1008:	4770      	bx	lr
    100a:	46c0      	nop			; (mov r8, r8)

0000100c <serial_putc>:
    100c:	6802      	ldr	r2, [r0, #0]
    100e:	2020      	movs	r0, #32
    1010:	6953      	ldr	r3, [r2, #20]
    1012:	4218      	tst	r0, r3
    1014:	d0fc      	beq.n	1010 <serial_putc+0x4>
    1016:	6011      	str	r1, [r2, #0]
    1018:	4770      	bx	lr
    101a:	46c0      	nop			; (mov r8, r8)

0000101c <NVIC_SetVector>:
    101c:	4b0c      	ldr	r3, [pc, #48]	; (1050 <NVIC_SetVector+0x34>)
    101e:	2203      	movs	r2, #3
    1020:	681b      	ldr	r3, [r3, #0]
    1022:	b530      	push	{r4, r5, lr}
    1024:	4013      	ands	r3, r2
    1026:	2b01      	cmp	r3, #1
    1028:	d00c      	beq.n	1044 <NVIC_SetVector+0x28>
    102a:	2380      	movs	r3, #128	; 0x80
    102c:	4c09      	ldr	r4, [pc, #36]	; (1054 <NVIC_SetVector+0x38>)
    102e:	055b      	lsls	r3, r3, #21
    1030:	25f0      	movs	r5, #240	; 0xf0
    1032:	062d      	lsls	r5, r5, #24
    1034:	195a      	adds	r2, r3, r5
    1036:	6812      	ldr	r2, [r2, #0]
    1038:	c304      	stmia	r3!, {r2}
    103a:	42a3      	cmp	r3, r4
    103c:	d1f8      	bne.n	1030 <NVIC_SetVector+0x14>
    103e:	4b04      	ldr	r3, [pc, #16]	; (1050 <NVIC_SetVector+0x34>)
    1040:	2201      	movs	r2, #1
    1042:	601a      	str	r2, [r3, #0]
    1044:	4b04      	ldr	r3, [pc, #16]	; (1058 <NVIC_SetVector+0x3c>)
    1046:	0080      	lsls	r0, r0, #2
    1048:	18c0      	adds	r0, r0, r3
    104a:	6001      	str	r1, [r0, #0]
    104c:	bd30      	pop	{r4, r5, pc}
    104e:	46c0      	nop			; (mov r8, r8)
    1050:	40048000 	.word	0x40048000
    1054:	100000c0 	.word	0x100000c0
    1058:	10000040 	.word	0x10000040

0000105c <mbed_die>:
    105c:	b500      	push	{lr}
    105e:	b099      	sub	sp, #100	; 0x64
    1060:	b672      	cpsid	i
    1062:	2128      	movs	r1, #40	; 0x28
    1064:	4668      	mov	r0, sp
    1066:	f000 f82b 	bl	10c0 <gpio_init_out>
    106a:	a806      	add	r0, sp, #24
    106c:	2129      	movs	r1, #41	; 0x29
    106e:	f000 f827 	bl	10c0 <gpio_init_out>
    1072:	a80c      	add	r0, sp, #48	; 0x30
    1074:	212a      	movs	r1, #42	; 0x2a
    1076:	f000 f823 	bl	10c0 <gpio_init_out>
    107a:	a812      	add	r0, sp, #72	; 0x48
    107c:	212b      	movs	r1, #43	; 0x2b
    107e:	f000 f81f 	bl	10c0 <gpio_init_out>
    1082:	9b03      	ldr	r3, [sp, #12]
    1084:	9a01      	ldr	r2, [sp, #4]
    1086:	2096      	movs	r0, #150	; 0x96
    1088:	601a      	str	r2, [r3, #0]
    108a:	9a07      	ldr	r2, [sp, #28]
    108c:	9b0a      	ldr	r3, [sp, #40]	; 0x28
    108e:	601a      	str	r2, [r3, #0]
    1090:	9a0d      	ldr	r2, [sp, #52]	; 0x34
    1092:	9b10      	ldr	r3, [sp, #64]	; 0x40
    1094:	601a      	str	r2, [r3, #0]
    1096:	9a13      	ldr	r2, [sp, #76]	; 0x4c
    1098:	9b15      	ldr	r3, [sp, #84]	; 0x54
    109a:	601a      	str	r2, [r3, #0]
    109c:	f000 f876 	bl	118c <wait_ms>
    10a0:	9b04      	ldr	r3, [sp, #16]
    10a2:	9a01      	ldr	r2, [sp, #4]
    10a4:	2096      	movs	r0, #150	; 0x96
    10a6:	601a      	str	r2, [r3, #0]
    10a8:	9a07      	ldr	r2, [sp, #28]
    10aa:	9b09      	ldr	r3, [sp, #36]	; 0x24
    10ac:	601a      	str	r2, [r3, #0]
    10ae:	9a0d      	ldr	r2, [sp, #52]	; 0x34
    10b0:	9b0f      	ldr	r3, [sp, #60]	; 0x3c
    10b2:	601a      	str	r2, [r3, #0]
    10b4:	9a13      	ldr	r2, [sp, #76]	; 0x4c
    10b6:	9b16      	ldr	r3, [sp, #88]	; 0x58
    10b8:	601a      	str	r2, [r3, #0]
    10ba:	f000 f867 	bl	118c <wait_ms>
    10be:	e7e0      	b.n	1082 <mbed_die+0x26>

000010c0 <gpio_init_out>:
    10c0:	b538      	push	{r3, r4, r5, lr}
    10c2:	1c0d      	adds	r5, r1, #0
    10c4:	1c04      	adds	r4, r0, #0
    10c6:	f000 f95f 	bl	1388 <gpio_init>
    10ca:	3501      	adds	r5, #1
    10cc:	d00a      	beq.n	10e4 <gpio_init_out+0x24>
    10ce:	6923      	ldr	r3, [r4, #16]
    10d0:	6862      	ldr	r2, [r4, #4]
    10d2:	1c20      	adds	r0, r4, #0
    10d4:	2101      	movs	r1, #1
    10d6:	601a      	str	r2, [r3, #0]
    10d8:	f000 f97e 	bl	13d8 <gpio_dir>
    10dc:	1c20      	adds	r0, r4, #0
    10de:	2100      	movs	r1, #0
    10e0:	f000 f974 	bl	13cc <gpio_mode>
    10e4:	bd38      	pop	{r3, r4, r5, pc}
    10e6:	46c0      	nop			; (mov r8, r8)

000010e8 <pinmap_pinout>:
    10e8:	b510      	push	{r4, lr}
    10ea:	1c04      	adds	r4, r0, #0
    10ec:	1c42      	adds	r2, r0, #1
    10ee:	d103      	bne.n	10f8 <pinmap_pinout+0x10>
    10f0:	e009      	b.n	1106 <pinmap_pinout+0x1e>
    10f2:	429c      	cmp	r4, r3
    10f4:	d008      	beq.n	1108 <pinmap_pinout+0x20>
    10f6:	310c      	adds	r1, #12
    10f8:	2300      	movs	r3, #0
    10fa:	56cb      	ldrsb	r3, [r1, r3]
    10fc:	1c5a      	adds	r2, r3, #1
    10fe:	d1f8      	bne.n	10f2 <pinmap_pinout+0xa>
    1100:	4806      	ldr	r0, [pc, #24]	; (111c <pinmap_pinout+0x34>)
    1102:	f7ff fa1f 	bl	544 <error>
    1106:	bd10      	pop	{r4, pc}
    1108:	1c20      	adds	r0, r4, #0
    110a:	6889      	ldr	r1, [r1, #8]
    110c:	f000 f974 	bl	13f8 <pin_function>
    1110:	1c20      	adds	r0, r4, #0
    1112:	2100      	movs	r1, #0
    1114:	f000 f988 	bl	1428 <pin_mode>
    1118:	e7f5      	b.n	1106 <pinmap_pinout+0x1e>
    111a:	46c0      	nop			; (mov r8, r8)
    111c:	00003f20 	.word	0x00003f20

00001120 <pinmap_merge>:
    1120:	b508      	push	{r3, lr}
    1122:	4288      	cmp	r0, r1
    1124:	d008      	beq.n	1138 <pinmap_merge+0x18>
    1126:	1c43      	adds	r3, r0, #1
    1128:	d007      	beq.n	113a <pinmap_merge+0x1a>
    112a:	3101      	adds	r1, #1
    112c:	d004      	beq.n	1138 <pinmap_merge+0x18>
    112e:	4804      	ldr	r0, [pc, #16]	; (1140 <pinmap_merge+0x20>)
    1130:	f7ff fa08 	bl	544 <error>
    1134:	2001      	movs	r0, #1
    1136:	4240      	negs	r0, r0
    1138:	bd08      	pop	{r3, pc}
    113a:	1c08      	adds	r0, r1, #0
    113c:	e7fc      	b.n	1138 <pinmap_merge+0x18>
    113e:	46c0      	nop			; (mov r8, r8)
    1140:	00003f34 	.word	0x00003f34

00001144 <pinmap_peripheral>:
    1144:	1c02      	adds	r2, r0, #0
    1146:	b508      	push	{r3, lr}
    1148:	1c53      	adds	r3, r2, #1
    114a:	d103      	bne.n	1154 <pinmap_peripheral+0x10>
    114c:	e00b      	b.n	1166 <pinmap_peripheral+0x22>
    114e:	429a      	cmp	r2, r3
    1150:	d00a      	beq.n	1168 <pinmap_peripheral+0x24>
    1152:	310c      	adds	r1, #12
    1154:	2300      	movs	r3, #0
    1156:	56cb      	ldrsb	r3, [r1, r3]
    1158:	1c58      	adds	r0, r3, #1
    115a:	d1f8      	bne.n	114e <pinmap_peripheral+0xa>
    115c:	4804      	ldr	r0, [pc, #16]	; (1170 <pinmap_peripheral+0x2c>)
    115e:	f7ff f9f1 	bl	544 <error>
    1162:	2001      	movs	r0, #1
    1164:	4240      	negs	r0, r0
    1166:	bd08      	pop	{r3, pc}
    1168:	6848      	ldr	r0, [r1, #4]
    116a:	1c43      	adds	r3, r0, #1
    116c:	d1fb      	bne.n	1166 <pinmap_peripheral+0x22>
    116e:	e7f5      	b.n	115c <pinmap_peripheral+0x18>
    1170:	00003f48 	.word	0x00003f48

00001174 <wait_us>:
    1174:	b538      	push	{r3, r4, r5, lr}
    1176:	1c05      	adds	r5, r0, #0
    1178:	f000 f9a6 	bl	14c8 <us_ticker_read>
    117c:	1c04      	adds	r4, r0, #0
    117e:	f000 f9a3 	bl	14c8 <us_ticker_read>
    1182:	1b03      	subs	r3, r0, r4
    1184:	42ab      	cmp	r3, r5
    1186:	d3fa      	bcc.n	117e <wait_us+0xa>
    1188:	bd38      	pop	{r3, r4, r5, pc}
    118a:	46c0      	nop			; (mov r8, r8)

0000118c <wait_ms>:
    118c:	b508      	push	{r3, lr}
    118e:	23fa      	movs	r3, #250	; 0xfa
    1190:	009b      	lsls	r3, r3, #2
    1192:	4358      	muls	r0, r3
    1194:	f7ff ffee 	bl	1174 <wait_us>
    1198:	bd08      	pop	{r3, pc}
    119a:	46c0      	nop			; (mov r8, r8)

0000119c <mbed::FileBase::~FileBase()>:
    119c:	4b0a      	ldr	r3, [pc, #40]	; (11c8 <mbed::FileBase::~FileBase()+0x2c>)
    119e:	6882      	ldr	r2, [r0, #8]
    11a0:	3308      	adds	r3, #8
    11a2:	6003      	str	r3, [r0, #0]
    11a4:	2a00      	cmp	r2, #0
    11a6:	d00a      	beq.n	11be <mbed::FileBase::~FileBase()+0x22>
    11a8:	4b08      	ldr	r3, [pc, #32]	; (11cc <mbed::FileBase::~FileBase()+0x30>)
    11aa:	681a      	ldr	r2, [r3, #0]
    11ac:	4282      	cmp	r2, r0
    11ae:	d101      	bne.n	11b4 <mbed::FileBase::~FileBase()+0x18>
    11b0:	e006      	b.n	11c0 <mbed::FileBase::~FileBase()+0x24>
    11b2:	1c1a      	adds	r2, r3, #0
    11b4:	6853      	ldr	r3, [r2, #4]
    11b6:	4283      	cmp	r3, r0
    11b8:	d1fb      	bne.n	11b2 <mbed::FileBase::~FileBase()+0x16>
    11ba:	6843      	ldr	r3, [r0, #4]
    11bc:	6053      	str	r3, [r2, #4]
    11be:	4770      	bx	lr
    11c0:	6842      	ldr	r2, [r0, #4]
    11c2:	601a      	str	r2, [r3, #0]
    11c4:	e7fb      	b.n	11be <mbed::FileBase::~FileBase()+0x22>
    11c6:	46c0      	nop			; (mov r8, r8)
    11c8:	00003f68 	.word	0x00003f68
    11cc:	10000274 	.word	0x10000274

000011d0 <mbed::FileBase::~FileBase()>:
    11d0:	4b0d      	ldr	r3, [pc, #52]	; (1208 <mbed::FileBase::~FileBase()+0x38>)
    11d2:	6882      	ldr	r2, [r0, #8]
    11d4:	3308      	adds	r3, #8
    11d6:	b510      	push	{r4, lr}
    11d8:	1c04      	adds	r4, r0, #0
    11da:	6003      	str	r3, [r0, #0]
    11dc:	2a00      	cmp	r2, #0
    11de:	d00a      	beq.n	11f6 <mbed::FileBase::~FileBase()+0x26>
    11e0:	4b0a      	ldr	r3, [pc, #40]	; (120c <mbed::FileBase::~FileBase()+0x3c>)
    11e2:	681a      	ldr	r2, [r3, #0]
    11e4:	4290      	cmp	r0, r2
    11e6:	d101      	bne.n	11ec <mbed::FileBase::~FileBase()+0x1c>
    11e8:	e00a      	b.n	1200 <mbed::FileBase::~FileBase()+0x30>
    11ea:	1c1a      	adds	r2, r3, #0
    11ec:	6853      	ldr	r3, [r2, #4]
    11ee:	429c      	cmp	r4, r3
    11f0:	d1fb      	bne.n	11ea <mbed::FileBase::~FileBase()+0x1a>
    11f2:	6863      	ldr	r3, [r4, #4]
    11f4:	6053      	str	r3, [r2, #4]
    11f6:	1c20      	adds	r0, r4, #0
    11f8:	f000 f9cb 	bl	1592 <operator delete(void*)>
    11fc:	1c20      	adds	r0, r4, #0
    11fe:	bd10      	pop	{r4, pc}
    1200:	6842      	ldr	r2, [r0, #4]
    1202:	601a      	str	r2, [r3, #0]
    1204:	e7f7      	b.n	11f6 <mbed::FileBase::~FileBase()+0x26>
    1206:	46c0      	nop			; (mov r8, r8)
    1208:	00003f68 	.word	0x00003f68
    120c:	10000274 	.word	0x10000274

00001210 <mbed::FileBase::FileBase(char const*, mbed::PathType)>:
    1210:	4b06      	ldr	r3, [pc, #24]	; (122c <mbed::FileBase::FileBase(char const*, mbed::PathType)+0x1c>)
    1212:	6081      	str	r1, [r0, #8]
    1214:	3308      	adds	r3, #8
    1216:	6003      	str	r3, [r0, #0]
    1218:	2300      	movs	r3, #0
    121a:	6043      	str	r3, [r0, #4]
    121c:	7302      	strb	r2, [r0, #12]
    121e:	2900      	cmp	r1, #0
    1220:	d003      	beq.n	122a <mbed::FileBase::FileBase(char const*, mbed::PathType)+0x1a>
    1222:	4b03      	ldr	r3, [pc, #12]	; (1230 <mbed::FileBase::FileBase(char const*, mbed::PathType)+0x20>)
    1224:	681a      	ldr	r2, [r3, #0]
    1226:	6018      	str	r0, [r3, #0]
    1228:	6042      	str	r2, [r0, #4]
    122a:	4770      	bx	lr
    122c:	00003f68 	.word	0x00003f68
    1230:	10000274 	.word	0x10000274

00001234 <mbed::FileBase::lookup(char const*, unsigned int)>:
    1234:	b5f8      	push	{r3, r4, r5, r6, r7, lr}
    1236:	4b0e      	ldr	r3, [pc, #56]	; (1270 <mbed::FileBase::lookup(char const*, unsigned int)+0x3c>)
    1238:	1c07      	adds	r7, r0, #0
    123a:	681c      	ldr	r4, [r3, #0]
    123c:	1c0e      	adds	r6, r1, #0
    123e:	2c00      	cmp	r4, #0
    1240:	d011      	beq.n	1266 <mbed::FileBase::lookup(char const*, unsigned int)+0x32>
    1242:	68a5      	ldr	r5, [r4, #8]
    1244:	2d00      	cmp	r5, #0
    1246:	d00b      	beq.n	1260 <mbed::FileBase::lookup(char const*, unsigned int)+0x2c>
    1248:	1c28      	adds	r0, r5, #0
    124a:	1c39      	adds	r1, r7, #0
    124c:	1c32      	adds	r2, r6, #0
    124e:	f001 f82e 	bl	22ae <strncmp>
    1252:	2800      	cmp	r0, #0
    1254:	d104      	bne.n	1260 <mbed::FileBase::lookup(char const*, unsigned int)+0x2c>
    1256:	1c28      	adds	r0, r5, #0
    1258:	f001 f822 	bl	22a0 <strlen>
    125c:	42b0      	cmp	r0, r6
    125e:	d004      	beq.n	126a <mbed::FileBase::lookup(char const*, unsigned int)+0x36>
    1260:	6864      	ldr	r4, [r4, #4]
    1262:	2c00      	cmp	r4, #0
    1264:	d1ed      	bne.n	1242 <mbed::FileBase::lookup(char const*, unsigned int)+0xe>
    1266:	2000      	movs	r0, #0
    1268:	bdf8      	pop	{r3, r4, r5, r6, r7, pc}
    126a:	1c20      	adds	r0, r4, #0
    126c:	e7fc      	b.n	1268 <mbed::FileBase::lookup(char const*, unsigned int)+0x34>
    126e:	46c0      	nop			; (mov r8, r8)
    1270:	10000274 	.word	0x10000274

00001274 <mbed::FileBase::get(int)>:
    1274:	4b08      	ldr	r3, [pc, #32]	; (1298 <mbed::FileBase::get(int)+0x24>)
    1276:	681b      	ldr	r3, [r3, #0]
    1278:	2b00      	cmp	r3, #0
    127a:	d009      	beq.n	1290 <mbed::FileBase::get(int)+0x1c>
    127c:	2800      	cmp	r0, #0
    127e:	d009      	beq.n	1294 <mbed::FileBase::get(int)+0x20>
    1280:	2200      	movs	r2, #0
    1282:	e001      	b.n	1288 <mbed::FileBase::get(int)+0x14>
    1284:	4290      	cmp	r0, r2
    1286:	d005      	beq.n	1294 <mbed::FileBase::get(int)+0x20>
    1288:	685b      	ldr	r3, [r3, #4]
    128a:	3201      	adds	r2, #1
    128c:	2b00      	cmp	r3, #0
    128e:	d1f9      	bne.n	1284 <mbed::FileBase::get(int)+0x10>
    1290:	2000      	movs	r0, #0
    1292:	4770      	bx	lr
    1294:	1c18      	adds	r0, r3, #0
    1296:	e7fc      	b.n	1292 <mbed::FileBase::get(int)+0x1e>
    1298:	10000274 	.word	0x10000274

0000129c <mbed::FileBase::getName()>:
    129c:	6880      	ldr	r0, [r0, #8]
    129e:	4770      	bx	lr

000012a0 <mbed::FileBase::getPathType()>:
    12a0:	7b00      	ldrb	r0, [r0, #12]
    12a2:	4770      	bx	lr

000012a4 <mbed::FilePath::FilePath(char const*)>:
    12a4:	b538      	push	{r3, r4, r5, lr}
    12a6:	2300      	movs	r3, #0
    12a8:	6003      	str	r3, [r0, #0]
    12aa:	6043      	str	r3, [r0, #4]
    12ac:	780b      	ldrb	r3, [r1, #0]
    12ae:	1c04      	adds	r4, r0, #0
    12b0:	2b2f      	cmp	r3, #47	; 0x2f
    12b2:	d001      	beq.n	12b8 <mbed::FilePath::FilePath(char const*)+0x14>
    12b4:	1c20      	adds	r0, r4, #0
    12b6:	bd38      	pop	{r3, r4, r5, pc}
    12b8:	784b      	ldrb	r3, [r1, #1]
    12ba:	2b00      	cmp	r3, #0
    12bc:	d0fa      	beq.n	12b4 <mbed::FilePath::FilePath(char const*)+0x10>
    12be:	1c48      	adds	r0, r1, #1
    12c0:	6020      	str	r0, [r4, #0]
    12c2:	784b      	ldrb	r3, [r1, #1]
    12c4:	2b2f      	cmp	r3, #47	; 0x2f
    12c6:	d014      	beq.n	12f2 <mbed::FilePath::FilePath(char const*)+0x4e>
    12c8:	2b00      	cmp	r3, #0
    12ca:	d015      	beq.n	12f8 <mbed::FilePath::FilePath(char const*)+0x54>
    12cc:	1c03      	adds	r3, r0, #0
    12ce:	e001      	b.n	12d4 <mbed::FilePath::FilePath(char const*)+0x30>
    12d0:	2a00      	cmp	r2, #0
    12d2:	d00c      	beq.n	12ee <mbed::FilePath::FilePath(char const*)+0x4a>
    12d4:	1a5d      	subs	r5, r3, r1
    12d6:	3301      	adds	r3, #1
    12d8:	6023      	str	r3, [r4, #0]
    12da:	781a      	ldrb	r2, [r3, #0]
    12dc:	2a2f      	cmp	r2, #47	; 0x2f
    12de:	d1f7      	bne.n	12d0 <mbed::FilePath::FilePath(char const*)+0x2c>
    12e0:	1c29      	adds	r1, r5, #0
    12e2:	3301      	adds	r3, #1
    12e4:	6023      	str	r3, [r4, #0]
    12e6:	f7ff ffa5 	bl	1234 <mbed::FileBase::lookup(char const*, unsigned int)>
    12ea:	6060      	str	r0, [r4, #4]
    12ec:	e7e2      	b.n	12b4 <mbed::FilePath::FilePath(char const*)+0x10>
    12ee:	1c29      	adds	r1, r5, #0
    12f0:	e7f9      	b.n	12e6 <mbed::FilePath::FilePath(char const*)+0x42>
    12f2:	1c03      	adds	r3, r0, #0
    12f4:	2100      	movs	r1, #0
    12f6:	e7f4      	b.n	12e2 <mbed::FilePath::FilePath(char const*)+0x3e>
    12f8:	2100      	movs	r1, #0
    12fa:	e7f4      	b.n	12e6 <mbed::FilePath::FilePath(char const*)+0x42>

000012fc <mbed::FilePath::fileName()>:
    12fc:	6800      	ldr	r0, [r0, #0]
    12fe:	4770      	bx	lr

00001300 <mbed::FilePath::fileSystem()>:
    1300:	b510      	push	{r4, lr}
    1302:	1c04      	adds	r4, r0, #0
    1304:	6840      	ldr	r0, [r0, #4]
    1306:	2800      	cmp	r0, #0
    1308:	d005      	beq.n	1316 <mbed::FilePath::fileSystem()+0x16>
    130a:	f7ff ffc9 	bl	12a0 <mbed::FileBase::getPathType()>
    130e:	2801      	cmp	r0, #1
    1310:	d101      	bne.n	1316 <mbed::FilePath::fileSystem()+0x16>
    1312:	6860      	ldr	r0, [r4, #4]
    1314:	bd10      	pop	{r4, pc}
    1316:	2000      	movs	r0, #0
    1318:	e7fc      	b.n	1314 <mbed::FilePath::fileSystem()+0x14>
    131a:	46c0      	nop			; (mov r8, r8)

0000131c <mbed::FilePath::isFile()>:
    131c:	6840      	ldr	r0, [r0, #4]
    131e:	b508      	push	{r3, lr}
    1320:	2800      	cmp	r0, #0
    1322:	d005      	beq.n	1330 <mbed::FilePath::isFile()+0x14>
    1324:	f7ff ffbc 	bl	12a0 <mbed::FileBase::getPathType()>
    1328:	4243      	negs	r3, r0
    132a:	4158      	adcs	r0, r3
    132c:	b2c0      	uxtb	r0, r0
    132e:	bd08      	pop	{r3, pc}
    1330:	2000      	movs	r0, #0
    1332:	e7fc      	b.n	132e <mbed::FilePath::isFile()+0x12>

00001334 <mbed::FilePath::file()>:
    1334:	b510      	push	{r4, lr}
    1336:	1c04      	adds	r4, r0, #0
    1338:	6840      	ldr	r0, [r0, #4]
    133a:	2800      	cmp	r0, #0
    133c:	d008      	beq.n	1350 <mbed::FilePath::file()+0x1c>
    133e:	f7ff ffaf 	bl	12a0 <mbed::FileBase::getPathType()>
    1342:	2800      	cmp	r0, #0
    1344:	d104      	bne.n	1350 <mbed::FilePath::file()+0x1c>
    1346:	6860      	ldr	r0, [r4, #4]
    1348:	2800      	cmp	r0, #0
    134a:	d001      	beq.n	1350 <mbed::FilePath::file()+0x1c>
    134c:	3804      	subs	r0, #4
    134e:	bd10      	pop	{r4, pc}
    1350:	2000      	movs	r0, #0
    1352:	e7fc      	b.n	134e <mbed::FilePath::file()+0x1a>

00001354 <mbed::FilePath::exists()>:
    1354:	6840      	ldr	r0, [r0, #4]
    1356:	1e43      	subs	r3, r0, #1
    1358:	4198      	sbcs	r0, r3
    135a:	b2c0      	uxtb	r0, r0
    135c:	4770      	bx	lr
    135e:	46c0      	nop			; (mov r8, r8)

00001360 <gpio_set>:
    1360:	b510      	push	{r4, lr}
    1362:	2800      	cmp	r0, #0
    1364:	d006      	beq.n	1374 <gpio_set+0x14>
    1366:	b2c4      	uxtb	r4, r0
    1368:	1c23      	adds	r3, r4, #0
    136a:	3b0a      	subs	r3, #10
    136c:	2b05      	cmp	r3, #5
    136e:	d902      	bls.n	1376 <gpio_set+0x16>
    1370:	2100      	movs	r1, #0
    1372:	e001      	b.n	1378 <gpio_set+0x18>
    1374:	2400      	movs	r4, #0
    1376:	2101      	movs	r1, #1
    1378:	f000 f83e 	bl	13f8 <pin_function>
    137c:	201f      	movs	r0, #31
    137e:	4004      	ands	r4, r0
    1380:	2001      	movs	r0, #1
    1382:	40a0      	lsls	r0, r4
    1384:	bd10      	pop	{r4, pc}
    1386:	46c0      	nop			; (mov r8, r8)

00001388 <gpio_init>:
    1388:	b538      	push	{r3, r4, r5, lr}
    138a:	1c04      	adds	r4, r0, #0
    138c:	1c0d      	adds	r5, r1, #0
    138e:	7021      	strb	r1, [r4, #0]
    1390:	1c4a      	adds	r2, r1, #1
    1392:	d011      	beq.n	13b8 <gpio_init+0x30>
    1394:	1c08      	adds	r0, r1, #0
    1396:	f7ff ffe3 	bl	1360 <gpio_set>
    139a:	096d      	lsrs	r5, r5, #5
    139c:	4a07      	ldr	r2, [pc, #28]	; (13bc <gpio_init+0x34>)
    139e:	00ad      	lsls	r5, r5, #2
    13a0:	18ab      	adds	r3, r5, r2
    13a2:	4a07      	ldr	r2, [pc, #28]	; (13c0 <gpio_init+0x38>)
    13a4:	60e3      	str	r3, [r4, #12]
    13a6:	18ab      	adds	r3, r5, r2
    13a8:	4a06      	ldr	r2, [pc, #24]	; (13c4 <gpio_init+0x3c>)
    13aa:	6123      	str	r3, [r4, #16]
    13ac:	18ab      	adds	r3, r5, r2
    13ae:	6163      	str	r3, [r4, #20]
    13b0:	4b05      	ldr	r3, [pc, #20]	; (13c8 <gpio_init+0x40>)
    13b2:	6060      	str	r0, [r4, #4]
    13b4:	18ed      	adds	r5, r5, r3
    13b6:	60a5      	str	r5, [r4, #8]
    13b8:	bd38      	pop	{r3, r4, r5, pc}
    13ba:	46c0      	nop			; (mov r8, r8)
    13bc:	50002200 	.word	0x50002200
    13c0:	50002280 	.word	0x50002280
    13c4:	50002100 	.word	0x50002100
    13c8:	50002000 	.word	0x50002000

000013cc <gpio_mode>:
    13cc:	b508      	push	{r3, lr}
    13ce:	7800      	ldrb	r0, [r0, #0]
    13d0:	b240      	sxtb	r0, r0
    13d2:	f000 f829 	bl	1428 <pin_mode>
    13d6:	bd08      	pop	{r3, pc}

000013d8 <gpio_dir>:
    13d8:	2900      	cmp	r1, #0
    13da:	d007      	beq.n	13ec <gpio_dir+0x14>
    13dc:	2901      	cmp	r1, #1
    13de:	d104      	bne.n	13ea <gpio_dir+0x12>
    13e0:	6883      	ldr	r3, [r0, #8]
    13e2:	6842      	ldr	r2, [r0, #4]
    13e4:	6819      	ldr	r1, [r3, #0]
    13e6:	430a      	orrs	r2, r1
    13e8:	601a      	str	r2, [r3, #0]
    13ea:	4770      	bx	lr
    13ec:	6883      	ldr	r3, [r0, #8]
    13ee:	6841      	ldr	r1, [r0, #4]
    13f0:	681a      	ldr	r2, [r3, #0]
    13f2:	438a      	bics	r2, r1
    13f4:	601a      	str	r2, [r3, #0]
    13f6:	e7f8      	b.n	13ea <gpio_dir+0x12>

000013f8 <pin_function>:
    13f8:	1c43      	adds	r3, r0, #1
    13fa:	d00b      	beq.n	1414 <pin_function+0x1c>
    13fc:	281f      	cmp	r0, #31
    13fe:	d90a      	bls.n	1416 <pin_function+0x1e>
    1400:	4b07      	ldr	r3, [pc, #28]	; (1420 <pin_function+0x28>)
    1402:	18c0      	adds	r0, r0, r3
    1404:	0080      	lsls	r0, r0, #2
    1406:	6802      	ldr	r2, [r0, #0]
    1408:	2307      	movs	r3, #7
    140a:	439a      	bics	r2, r3
    140c:	4019      	ands	r1, r3
    140e:	1c13      	adds	r3, r2, #0
    1410:	430b      	orrs	r3, r1
    1412:	6003      	str	r3, [r0, #0]
    1414:	4770      	bx	lr
    1416:	4b03      	ldr	r3, [pc, #12]	; (1424 <pin_function+0x2c>)
    1418:	18c0      	adds	r0, r0, r3
    141a:	0080      	lsls	r0, r0, #2
    141c:	e7f3      	b.n	1406 <pin_function+0xe>
    141e:	46c0      	nop			; (mov r8, r8)
    1420:	10010ff8 	.word	0x10010ff8
    1424:	10011000 	.word	0x10011000

00001428 <pin_mode>:
    1428:	074b      	lsls	r3, r1, #29
    142a:	b510      	push	{r4, lr}
    142c:	0fdb      	lsrs	r3, r3, #31
    142e:	281f      	cmp	r0, #31
    1430:	d910      	bls.n	1454 <pin_mode+0x2c>
    1432:	4a0a      	ldr	r2, [pc, #40]	; (145c <pin_mode+0x34>)
    1434:	1880      	adds	r0, r0, r2
    1436:	0080      	lsls	r0, r0, #2
    1438:	6804      	ldr	r4, [r0, #0]
    143a:	2218      	movs	r2, #24
    143c:	4394      	bics	r4, r2
    143e:	2203      	movs	r2, #3
    1440:	4011      	ands	r1, r2
    1442:	00ca      	lsls	r2, r1, #3
    1444:	1c21      	adds	r1, r4, #0
    1446:	4311      	orrs	r1, r2
    1448:	4a05      	ldr	r2, [pc, #20]	; (1460 <pin_mode+0x38>)
    144a:	029b      	lsls	r3, r3, #10
    144c:	4011      	ands	r1, r2
    144e:	4319      	orrs	r1, r3
    1450:	6001      	str	r1, [r0, #0]
    1452:	bd10      	pop	{r4, pc}
    1454:	4a03      	ldr	r2, [pc, #12]	; (1464 <pin_mode+0x3c>)
    1456:	1880      	adds	r0, r0, r2
    1458:	0080      	lsls	r0, r0, #2
    145a:	e7ed      	b.n	1438 <pin_mode+0x10>
    145c:	10010ff8 	.word	0x10010ff8
    1460:	fffffbff 	.word	0xfffffbff
    1464:	10011000 	.word	0x10011000

00001468 <us_ticker_init>:
    1468:	b538      	push	{r3, r4, r5, lr}
    146a:	4b10      	ldr	r3, [pc, #64]	; (14ac <us_ticker_init+0x44>)
    146c:	681a      	ldr	r2, [r3, #0]
    146e:	2a00      	cmp	r2, #0
    1470:	d11b      	bne.n	14aa <us_ticker_init+0x42>
    1472:	4a0f      	ldr	r2, [pc, #60]	; (14b0 <us_ticker_init+0x48>)
    1474:	2501      	movs	r5, #1
    1476:	601d      	str	r5, [r3, #0]
    1478:	2380      	movs	r3, #128	; 0x80
    147a:	58d0      	ldr	r0, [r2, r3]
    147c:	2180      	movs	r1, #128	; 0x80
    147e:	00c9      	lsls	r1, r1, #3
    1480:	4301      	orrs	r1, r0
    1482:	50d1      	str	r1, [r2, r3]
    1484:	4b0b      	ldr	r3, [pc, #44]	; (14b4 <us_ticker_init+0x4c>)
    1486:	4c0c      	ldr	r4, [pc, #48]	; (14b8 <us_ticker_init+0x50>)
    1488:	6818      	ldr	r0, [r3, #0]
    148a:	2302      	movs	r3, #2
    148c:	6063      	str	r3, [r4, #4]
    148e:	490b      	ldr	r1, [pc, #44]	; (14bc <us_ticker_init+0x54>)
    1490:	f000 f89a 	bl	15c8 <__aeabi_uidiv>
    1494:	3801      	subs	r0, #1
    1496:	60e0      	str	r0, [r4, #12]
    1498:	4909      	ldr	r1, [pc, #36]	; (14c0 <us_ticker_init+0x58>)
    149a:	6065      	str	r5, [r4, #4]
    149c:	2013      	movs	r0, #19
    149e:	f7ff fdbd 	bl	101c <NVIC_SetVector>
    14a2:	2280      	movs	r2, #128	; 0x80
    14a4:	4b07      	ldr	r3, [pc, #28]	; (14c4 <us_ticker_init+0x5c>)
    14a6:	0312      	lsls	r2, r2, #12
    14a8:	601a      	str	r2, [r3, #0]
    14aa:	bd38      	pop	{r3, r4, r5, pc}
    14ac:	10000278 	.word	0x10000278
    14b0:	40048000 	.word	0x40048000
    14b4:	100000cc 	.word	0x100000cc
    14b8:	40018000 	.word	0x40018000
    14bc:	000f4240 	.word	0x000f4240
    14c0:	00001515 	.word	0x00001515
    14c4:	e000e100 	.word	0xe000e100

000014c8 <us_ticker_read>:
    14c8:	b508      	push	{r3, lr}
    14ca:	4b04      	ldr	r3, [pc, #16]	; (14dc <us_ticker_read+0x14>)
    14cc:	681b      	ldr	r3, [r3, #0]
    14ce:	2b00      	cmp	r3, #0
    14d0:	d101      	bne.n	14d6 <us_ticker_read+0xe>
    14d2:	f7ff ffc9 	bl	1468 <us_ticker_init>
    14d6:	4b02      	ldr	r3, [pc, #8]	; (14e0 <us_ticker_read+0x18>)
    14d8:	6898      	ldr	r0, [r3, #8]
    14da:	bd08      	pop	{r3, pc}
    14dc:	10000278 	.word	0x10000278
    14e0:	40018000 	.word	0x40018000

000014e4 <us_ticker_set_interrupt>:
    14e4:	4b03      	ldr	r3, [pc, #12]	; (14f4 <us_ticker_set_interrupt+0x10>)
    14e6:	2201      	movs	r2, #1
    14e8:	6198      	str	r0, [r3, #24]
    14ea:	6959      	ldr	r1, [r3, #20]
    14ec:	430a      	orrs	r2, r1
    14ee:	615a      	str	r2, [r3, #20]
    14f0:	4770      	bx	lr
    14f2:	46c0      	nop			; (mov r8, r8)
    14f4:	40018000 	.word	0x40018000

000014f8 <us_ticker_disable_interrupt>:
    14f8:	4b02      	ldr	r3, [pc, #8]	; (1504 <us_ticker_disable_interrupt+0xc>)
    14fa:	2101      	movs	r1, #1
    14fc:	695a      	ldr	r2, [r3, #20]
    14fe:	438a      	bics	r2, r1
    1500:	615a      	str	r2, [r3, #20]
    1502:	4770      	bx	lr
    1504:	40018000 	.word	0x40018000

00001508 <us_ticker_clear_interrupt>:
    1508:	4b01      	ldr	r3, [pc, #4]	; (1510 <us_ticker_clear_interrupt+0x8>)
    150a:	2201      	movs	r2, #1
    150c:	601a      	str	r2, [r3, #0]
    150e:	4770      	bx	lr
    1510:	40018000 	.word	0x40018000

00001514 <us_ticker_irq_handler>:
    1514:	b5f8      	push	{r3, r4, r5, r6, r7, lr}
    1516:	464f      	mov	r7, r9
    1518:	4646      	mov	r6, r8
    151a:	b4c0      	push	{r6, r7}
    151c:	f7ff fff4 	bl	1508 <us_ticker_clear_interrupt>
    1520:	4816      	ldr	r0, [pc, #88]	; (157c <us_ticker_irq_handler+0x68>)
    1522:	4a17      	ldr	r2, [pc, #92]	; (1580 <us_ticker_irq_handler+0x6c>)
    1524:	4680      	mov	r8, r0
    1526:	4691      	mov	r9, r2
    1528:	4640      	mov	r0, r8
    152a:	6803      	ldr	r3, [r0, #0]
    152c:	e012      	b.n	1554 <us_ticker_irq_handler+0x40>
    152e:	681c      	ldr	r4, [r3, #0]
    1530:	685d      	ldr	r5, [r3, #4]
    1532:	f7ff ffc9 	bl	14c8 <us_ticker_read>
    1536:	2700      	movs	r7, #0
    1538:	1c06      	adds	r6, r0, #0
    153a:	1ba4      	subs	r4, r4, r6
    153c:	41bd      	sbcs	r5, r7
    153e:	2d00      	cmp	r5, #0
    1540:	dc12      	bgt.n	1568 <us_ticker_irq_handler+0x54>
    1542:	d00f      	beq.n	1564 <us_ticker_irq_handler+0x50>
    1544:	4642      	mov	r2, r8
    1546:	6811      	ldr	r1, [r2, #0]
    1548:	4648      	mov	r0, r9
    154a:	68cb      	ldr	r3, [r1, #12]
    154c:	6013      	str	r3, [r2, #0]
    154e:	6802      	ldr	r2, [r0, #0]
    1550:	2a00      	cmp	r2, #0
    1552:	d110      	bne.n	1576 <us_ticker_irq_handler+0x62>
    1554:	2b00      	cmp	r3, #0
    1556:	d1ea      	bne.n	152e <us_ticker_irq_handler+0x1a>
    1558:	f7ff ffce 	bl	14f8 <us_ticker_disable_interrupt>
    155c:	bc0c      	pop	{r2, r3}
    155e:	4690      	mov	r8, r2
    1560:	4699      	mov	r9, r3
    1562:	bdf8      	pop	{r3, r4, r5, r6, r7, pc}
    1564:	2c00      	cmp	r4, #0
    1566:	d0ed      	beq.n	1544 <us_ticker_irq_handler+0x30>
    1568:	4642      	mov	r2, r8
    156a:	6813      	ldr	r3, [r2, #0]
    156c:	6818      	ldr	r0, [r3, #0]
    156e:	6859      	ldr	r1, [r3, #4]
    1570:	f7ff ffb8 	bl	14e4 <us_ticker_set_interrupt>
    1574:	e7f2      	b.n	155c <us_ticker_irq_handler+0x48>
    1576:	6888      	ldr	r0, [r1, #8]
    1578:	4790      	blx	r2
    157a:	e7d5      	b.n	1528 <us_ticker_irq_handler+0x14>
    157c:	1000027c 	.word	0x1000027c
    1580:	10000280 	.word	0x10000280

00001584 <__aeabi_atexit>:
    1584:	b508      	push	{r3, lr}
    1586:	1c03      	adds	r3, r0, #0
    1588:	1c08      	adds	r0, r1, #0
    158a:	1c19      	adds	r1, r3, #0
    158c:	f000 f86c 	bl	1668 <__cxa_atexit>
    1590:	bd08      	pop	{r3, pc}

00001592 <operator delete(void*)>:
    1592:	b508      	push	{r3, lr}
    1594:	2800      	cmp	r0, #0
    1596:	d001      	beq.n	159c <operator delete(void*)+0xa>
    1598:	f7fe ffc2 	bl	520 <__wrap_free>
    159c:	bd08      	pop	{r3, pc}
	...

000015a0 <operator new(unsigned int)>:
    15a0:	b510      	push	{r4, lr}
    15a2:	1e04      	subs	r4, r0, #0
    15a4:	d102      	bne.n	15ac <operator new(unsigned int)+0xc>
    15a6:	2401      	movs	r4, #1
    15a8:	e000      	b.n	15ac <operator new(unsigned int)+0xc>
    15aa:	4798      	blx	r3
    15ac:	1c20      	adds	r0, r4, #0
    15ae:	f7fe ffad 	bl	50c <__wrap_malloc>
    15b2:	2800      	cmp	r0, #0
    15b4:	d105      	bne.n	15c2 <operator new(unsigned int)+0x22>
    15b6:	4b03      	ldr	r3, [pc, #12]	; (15c4 <operator new(unsigned int)+0x24>)
    15b8:	681b      	ldr	r3, [r3, #0]
    15ba:	2b00      	cmp	r3, #0
    15bc:	d1f5      	bne.n	15aa <operator new(unsigned int)+0xa>
    15be:	f7fe ffb9 	bl	534 <abort>
    15c2:	bd10      	pop	{r4, pc}
    15c4:	10000284 	.word	0x10000284

000015c8 <__aeabi_uidiv>:
    15c8:	2900      	cmp	r1, #0
    15ca:	d034      	beq.n	1636 <.udivsi3_skip_div0_test+0x6a>

000015cc <.udivsi3_skip_div0_test>:
    15cc:	2301      	movs	r3, #1
    15ce:	2200      	movs	r2, #0
    15d0:	b410      	push	{r4}
    15d2:	4288      	cmp	r0, r1
    15d4:	d32c      	bcc.n	1630 <.udivsi3_skip_div0_test+0x64>
    15d6:	2401      	movs	r4, #1
    15d8:	0724      	lsls	r4, r4, #28
    15da:	42a1      	cmp	r1, r4
    15dc:	d204      	bcs.n	15e8 <.udivsi3_skip_div0_test+0x1c>
    15de:	4281      	cmp	r1, r0
    15e0:	d202      	bcs.n	15e8 <.udivsi3_skip_div0_test+0x1c>
    15e2:	0109      	lsls	r1, r1, #4
    15e4:	011b      	lsls	r3, r3, #4
    15e6:	e7f8      	b.n	15da <.udivsi3_skip_div0_test+0xe>
    15e8:	00e4      	lsls	r4, r4, #3
    15ea:	42a1      	cmp	r1, r4
    15ec:	d204      	bcs.n	15f8 <.udivsi3_skip_div0_test+0x2c>
    15ee:	4281      	cmp	r1, r0
    15f0:	d202      	bcs.n	15f8 <.udivsi3_skip_div0_test+0x2c>
    15f2:	0049      	lsls	r1, r1, #1
    15f4:	005b      	lsls	r3, r3, #1
    15f6:	e7f8      	b.n	15ea <.udivsi3_skip_div0_test+0x1e>
    15f8:	4288      	cmp	r0, r1
    15fa:	d301      	bcc.n	1600 <.udivsi3_skip_div0_test+0x34>
    15fc:	1a40      	subs	r0, r0, r1
    15fe:	431a      	orrs	r2, r3
    1600:	084c      	lsrs	r4, r1, #1
    1602:	42a0      	cmp	r0, r4
    1604:	d302      	bcc.n	160c <.udivsi3_skip_div0_test+0x40>
    1606:	1b00      	subs	r0, r0, r4
    1608:	085c      	lsrs	r4, r3, #1
    160a:	4322      	orrs	r2, r4
    160c:	088c      	lsrs	r4, r1, #2
    160e:	42a0      	cmp	r0, r4
    1610:	d302      	bcc.n	1618 <.udivsi3_skip_div0_test+0x4c>
    1612:	1b00      	subs	r0, r0, r4
    1614:	089c      	lsrs	r4, r3, #2
    1616:	4322      	orrs	r2, r4
    1618:	08cc      	lsrs	r4, r1, #3
    161a:	42a0      	cmp	r0, r4
    161c:	d302      	bcc.n	1624 <.udivsi3_skip_div0_test+0x58>
    161e:	1b00      	subs	r0, r0, r4
    1620:	08dc      	lsrs	r4, r3, #3
    1622:	4322      	orrs	r2, r4
    1624:	2800      	cmp	r0, #0
    1626:	d003      	beq.n	1630 <.udivsi3_skip_div0_test+0x64>
    1628:	091b      	lsrs	r3, r3, #4
    162a:	d001      	beq.n	1630 <.udivsi3_skip_div0_test+0x64>
    162c:	0909      	lsrs	r1, r1, #4
    162e:	e7e3      	b.n	15f8 <.udivsi3_skip_div0_test+0x2c>
    1630:	1c10      	adds	r0, r2, #0
    1632:	bc10      	pop	{r4}
    1634:	4770      	bx	lr
    1636:	2800      	cmp	r0, #0
    1638:	d001      	beq.n	163e <.udivsi3_skip_div0_test+0x72>
    163a:	2000      	movs	r0, #0
    163c:	43c0      	mvns	r0, r0
    163e:	b407      	push	{r0, r1, r2}
    1640:	4802      	ldr	r0, [pc, #8]	; (164c <.udivsi3_skip_div0_test+0x80>)
    1642:	a102      	add	r1, pc, #8	; (adr r1, 164c <.udivsi3_skip_div0_test+0x80>)
    1644:	1840      	adds	r0, r0, r1
    1646:	9002      	str	r0, [sp, #8]
    1648:	bd03      	pop	{r0, r1, pc}
    164a:	46c0      	nop			; (mov r8, r8)
    164c:	00000019 	.word	0x00000019

00001650 <__aeabi_uidivmod>:
    1650:	2900      	cmp	r1, #0
    1652:	d0f0      	beq.n	1636 <.udivsi3_skip_div0_test+0x6a>
    1654:	b503      	push	{r0, r1, lr}
    1656:	f7ff ffb9 	bl	15cc <.udivsi3_skip_div0_test>
    165a:	bc0e      	pop	{r1, r2, r3}
    165c:	4342      	muls	r2, r0
    165e:	1a89      	subs	r1, r1, r2
    1660:	4718      	bx	r3
    1662:	46c0      	nop			; (mov r8, r8)

00001664 <__aeabi_idiv0>:
    1664:	4770      	bx	lr
    1666:	46c0      	nop			; (mov r8, r8)

00001668 <__cxa_atexit>:
    1668:	b538      	push	{r3, r4, r5, lr}
    166a:	1c05      	adds	r5, r0, #0
    166c:	4805      	ldr	r0, [pc, #20]	; (1684 <__cxa_atexit+0x1c>)
    166e:	1c0c      	adds	r4, r1, #0
    1670:	1c13      	adds	r3, r2, #0
    1672:	2800      	cmp	r0, #0
    1674:	d004      	beq.n	1680 <__cxa_atexit+0x18>
    1676:	2002      	movs	r0, #2
    1678:	1c29      	adds	r1, r5, #0
    167a:	1c22      	adds	r2, r4, #0
    167c:	e000      	b.n	1680 <__cxa_atexit+0x18>
    167e:	bf00      	nop
    1680:	bd38      	pop	{r3, r4, r5, pc}
    1682:	46c0      	nop			; (mov r8, r8)
    1684:	00000000 	.word	0x00000000

00001688 <__errno>:
    1688:	4b01      	ldr	r3, [pc, #4]	; (1690 <__errno+0x8>)
    168a:	6818      	ldr	r0, [r3, #0]
    168c:	4770      	bx	lr
    168e:	46c0      	nop			; (mov r8, r8)
    1690:	10000130 	.word	0x10000130

00001694 <_fclose_r>:
    1694:	b570      	push	{r4, r5, r6, lr}
    1696:	1c05      	adds	r5, r0, #0
    1698:	1e0c      	subs	r4, r1, #0
    169a:	d101      	bne.n	16a0 <_fclose_r+0xc>
    169c:	2000      	movs	r0, #0
    169e:	e049      	b.n	1734 <_fclose_r+0xa0>
    16a0:	2800      	cmp	r0, #0
    16a2:	d004      	beq.n	16ae <_fclose_r+0x1a>
    16a4:	6982      	ldr	r2, [r0, #24]
    16a6:	2a00      	cmp	r2, #0
    16a8:	d101      	bne.n	16ae <_fclose_r+0x1a>
    16aa:	f000 f973 	bl	1994 <__sinit>
    16ae:	4b22      	ldr	r3, [pc, #136]	; (1738 <_fclose_r+0xa4>)
    16b0:	429c      	cmp	r4, r3
    16b2:	d101      	bne.n	16b8 <_fclose_r+0x24>
    16b4:	686c      	ldr	r4, [r5, #4]
    16b6:	e008      	b.n	16ca <_fclose_r+0x36>
    16b8:	4b20      	ldr	r3, [pc, #128]	; (173c <_fclose_r+0xa8>)
    16ba:	429c      	cmp	r4, r3
    16bc:	d101      	bne.n	16c2 <_fclose_r+0x2e>
    16be:	68ac      	ldr	r4, [r5, #8]
    16c0:	e003      	b.n	16ca <_fclose_r+0x36>
    16c2:	4b1f      	ldr	r3, [pc, #124]	; (1740 <_fclose_r+0xac>)
    16c4:	429c      	cmp	r4, r3
    16c6:	d100      	bne.n	16ca <_fclose_r+0x36>
    16c8:	68ec      	ldr	r4, [r5, #12]
    16ca:	220c      	movs	r2, #12
    16cc:	5ea3      	ldrsh	r3, [r4, r2]
    16ce:	2b00      	cmp	r3, #0
    16d0:	d0e4      	beq.n	169c <_fclose_r+0x8>
    16d2:	1c28      	adds	r0, r5, #0
    16d4:	1c21      	adds	r1, r4, #0
    16d6:	f000 f8c9 	bl	186c <_fflush_r>
    16da:	6b23      	ldr	r3, [r4, #48]	; 0x30
    16dc:	1c06      	adds	r6, r0, #0
    16de:	2b00      	cmp	r3, #0
    16e0:	d006      	beq.n	16f0 <_fclose_r+0x5c>
    16e2:	1c28      	adds	r0, r5, #0
    16e4:	6a21      	ldr	r1, [r4, #32]
    16e6:	4798      	blx	r3
    16e8:	2800      	cmp	r0, #0
    16ea:	da01      	bge.n	16f0 <_fclose_r+0x5c>
    16ec:	2601      	movs	r6, #1
    16ee:	4276      	negs	r6, r6
    16f0:	89a3      	ldrh	r3, [r4, #12]
    16f2:	061a      	lsls	r2, r3, #24
    16f4:	d503      	bpl.n	16fe <_fclose_r+0x6a>
    16f6:	1c28      	adds	r0, r5, #0
    16f8:	6921      	ldr	r1, [r4, #16]
    16fa:	f000 fc09 	bl	1f10 <_free_r>
    16fe:	6b61      	ldr	r1, [r4, #52]	; 0x34
    1700:	2900      	cmp	r1, #0
    1702:	d008      	beq.n	1716 <_fclose_r+0x82>
    1704:	1c23      	adds	r3, r4, #0
    1706:	3344      	adds	r3, #68	; 0x44
    1708:	4299      	cmp	r1, r3
    170a:	d002      	beq.n	1712 <_fclose_r+0x7e>
    170c:	1c28      	adds	r0, r5, #0
    170e:	f000 fbff 	bl	1f10 <_free_r>
    1712:	2300      	movs	r3, #0
    1714:	6363      	str	r3, [r4, #52]	; 0x34
    1716:	6ca1      	ldr	r1, [r4, #72]	; 0x48
    1718:	2900      	cmp	r1, #0
    171a:	d004      	beq.n	1726 <_fclose_r+0x92>
    171c:	1c28      	adds	r0, r5, #0
    171e:	f000 fbf7 	bl	1f10 <_free_r>
    1722:	2300      	movs	r3, #0
    1724:	64a3      	str	r3, [r4, #72]	; 0x48
    1726:	f000 f9a5 	bl	1a74 <__sfp_lock_acquire>
    172a:	2300      	movs	r3, #0
    172c:	81a3      	strh	r3, [r4, #12]
    172e:	f000 f9a2 	bl	1a76 <__sfp_lock_release>
    1732:	1c30      	adds	r0, r6, #0
    1734:	bd70      	pop	{r4, r5, r6, pc}
    1736:	46c0      	nop			; (mov r8, r8)
    1738:	00003f78 	.word	0x00003f78
    173c:	00003f98 	.word	0x00003f98
    1740:	00003fb8 	.word	0x00003fb8

00001744 <fclose>:
    1744:	b508      	push	{r3, lr}
    1746:	4b03      	ldr	r3, [pc, #12]	; (1754 <fclose+0x10>)
    1748:	1c01      	adds	r1, r0, #0
    174a:	6818      	ldr	r0, [r3, #0]
    174c:	f7ff ffa2 	bl	1694 <_fclose_r>
    1750:	bd08      	pop	{r3, pc}
    1752:	46c0      	nop			; (mov r8, r8)
    1754:	10000130 	.word	0x10000130

00001758 <__sflush_r>:
    1758:	b5f7      	push	{r0, r1, r2, r4, r5, r6, r7, lr}
    175a:	898b      	ldrh	r3, [r1, #12]
    175c:	1c05      	adds	r5, r0, #0
    175e:	1c0c      	adds	r4, r1, #0
    1760:	0719      	lsls	r1, r3, #28
    1762:	d45e      	bmi.n	1822 <__sflush_r+0xca>
    1764:	6862      	ldr	r2, [r4, #4]
    1766:	2a00      	cmp	r2, #0
    1768:	dc02      	bgt.n	1770 <__sflush_r+0x18>
    176a:	6c27      	ldr	r7, [r4, #64]	; 0x40
    176c:	2f00      	cmp	r7, #0
    176e:	dd1a      	ble.n	17a6 <__sflush_r+0x4e>
    1770:	6ae7      	ldr	r7, [r4, #44]	; 0x2c
    1772:	2f00      	cmp	r7, #0
    1774:	d017      	beq.n	17a6 <__sflush_r+0x4e>
    1776:	2200      	movs	r2, #0
    1778:	682e      	ldr	r6, [r5, #0]
    177a:	602a      	str	r2, [r5, #0]
    177c:	2280      	movs	r2, #128	; 0x80
    177e:	0152      	lsls	r2, r2, #5
    1780:	401a      	ands	r2, r3
    1782:	d001      	beq.n	1788 <__sflush_r+0x30>
    1784:	6d62      	ldr	r2, [r4, #84]	; 0x54
    1786:	e015      	b.n	17b4 <__sflush_r+0x5c>
    1788:	1c28      	adds	r0, r5, #0
    178a:	6a21      	ldr	r1, [r4, #32]
    178c:	2301      	movs	r3, #1
    178e:	47b8      	blx	r7
    1790:	1c02      	adds	r2, r0, #0
    1792:	1c41      	adds	r1, r0, #1
    1794:	d10e      	bne.n	17b4 <__sflush_r+0x5c>
    1796:	682b      	ldr	r3, [r5, #0]
    1798:	2b00      	cmp	r3, #0
    179a:	d00b      	beq.n	17b4 <__sflush_r+0x5c>
    179c:	2b1d      	cmp	r3, #29
    179e:	d001      	beq.n	17a4 <__sflush_r+0x4c>
    17a0:	2b16      	cmp	r3, #22
    17a2:	d102      	bne.n	17aa <__sflush_r+0x52>
    17a4:	602e      	str	r6, [r5, #0]
    17a6:	2000      	movs	r0, #0
    17a8:	e05e      	b.n	1868 <__sflush_r+0x110>
    17aa:	89a3      	ldrh	r3, [r4, #12]
    17ac:	2140      	movs	r1, #64	; 0x40
    17ae:	430b      	orrs	r3, r1
    17b0:	81a3      	strh	r3, [r4, #12]
    17b2:	e059      	b.n	1868 <__sflush_r+0x110>
    17b4:	89a3      	ldrh	r3, [r4, #12]
    17b6:	075f      	lsls	r7, r3, #29
    17b8:	d506      	bpl.n	17c8 <__sflush_r+0x70>
    17ba:	6861      	ldr	r1, [r4, #4]
    17bc:	6b63      	ldr	r3, [r4, #52]	; 0x34
    17be:	1a52      	subs	r2, r2, r1
    17c0:	2b00      	cmp	r3, #0
    17c2:	d001      	beq.n	17c8 <__sflush_r+0x70>
    17c4:	6c27      	ldr	r7, [r4, #64]	; 0x40
    17c6:	1bd2      	subs	r2, r2, r7
    17c8:	1c28      	adds	r0, r5, #0
    17ca:	6a21      	ldr	r1, [r4, #32]
    17cc:	2300      	movs	r3, #0
    17ce:	6ae7      	ldr	r7, [r4, #44]	; 0x2c
    17d0:	47b8      	blx	r7
    17d2:	89a2      	ldrh	r2, [r4, #12]
    17d4:	1c41      	adds	r1, r0, #1
    17d6:	d106      	bne.n	17e6 <__sflush_r+0x8e>
    17d8:	682b      	ldr	r3, [r5, #0]
    17da:	2b00      	cmp	r3, #0
    17dc:	d003      	beq.n	17e6 <__sflush_r+0x8e>
    17de:	2b1d      	cmp	r3, #29
    17e0:	d001      	beq.n	17e6 <__sflush_r+0x8e>
    17e2:	2b16      	cmp	r3, #22
    17e4:	d119      	bne.n	181a <__sflush_r+0xc2>
    17e6:	2300      	movs	r3, #0
    17e8:	6063      	str	r3, [r4, #4]
    17ea:	6923      	ldr	r3, [r4, #16]
    17ec:	6023      	str	r3, [r4, #0]
    17ee:	04d7      	lsls	r7, r2, #19
    17f0:	d505      	bpl.n	17fe <__sflush_r+0xa6>
    17f2:	1c41      	adds	r1, r0, #1
    17f4:	d102      	bne.n	17fc <__sflush_r+0xa4>
    17f6:	682a      	ldr	r2, [r5, #0]
    17f8:	2a00      	cmp	r2, #0
    17fa:	d100      	bne.n	17fe <__sflush_r+0xa6>
    17fc:	6560      	str	r0, [r4, #84]	; 0x54
    17fe:	6b61      	ldr	r1, [r4, #52]	; 0x34
    1800:	602e      	str	r6, [r5, #0]
    1802:	2900      	cmp	r1, #0
    1804:	d0cf      	beq.n	17a6 <__sflush_r+0x4e>
    1806:	1c23      	adds	r3, r4, #0
    1808:	3344      	adds	r3, #68	; 0x44
    180a:	4299      	cmp	r1, r3
    180c:	d002      	beq.n	1814 <__sflush_r+0xbc>
    180e:	1c28      	adds	r0, r5, #0
    1810:	f000 fb7e 	bl	1f10 <_free_r>
    1814:	2000      	movs	r0, #0
    1816:	6360      	str	r0, [r4, #52]	; 0x34
    1818:	e026      	b.n	1868 <__sflush_r+0x110>
    181a:	2340      	movs	r3, #64	; 0x40
    181c:	431a      	orrs	r2, r3
    181e:	81a2      	strh	r2, [r4, #12]
    1820:	e022      	b.n	1868 <__sflush_r+0x110>
    1822:	6926      	ldr	r6, [r4, #16]
    1824:	2e00      	cmp	r6, #0
    1826:	d0be      	beq.n	17a6 <__sflush_r+0x4e>
    1828:	6827      	ldr	r7, [r4, #0]
    182a:	2200      	movs	r2, #0
    182c:	1bbf      	subs	r7, r7, r6
    182e:	9701      	str	r7, [sp, #4]
    1830:	6026      	str	r6, [r4, #0]
    1832:	0799      	lsls	r1, r3, #30
    1834:	d100      	bne.n	1838 <__sflush_r+0xe0>
    1836:	6962      	ldr	r2, [r4, #20]
    1838:	60a2      	str	r2, [r4, #8]
    183a:	9f01      	ldr	r7, [sp, #4]
    183c:	2f00      	cmp	r7, #0
    183e:	ddb2      	ble.n	17a6 <__sflush_r+0x4e>
    1840:	1c28      	adds	r0, r5, #0
    1842:	6a21      	ldr	r1, [r4, #32]
    1844:	1c32      	adds	r2, r6, #0
    1846:	9b01      	ldr	r3, [sp, #4]
    1848:	6aa7      	ldr	r7, [r4, #40]	; 0x28
    184a:	47b8      	blx	r7
    184c:	2800      	cmp	r0, #0
    184e:	dc06      	bgt.n	185e <__sflush_r+0x106>
    1850:	89a3      	ldrh	r3, [r4, #12]
    1852:	2240      	movs	r2, #64	; 0x40
    1854:	4313      	orrs	r3, r2
    1856:	2001      	movs	r0, #1
    1858:	81a3      	strh	r3, [r4, #12]
    185a:	4240      	negs	r0, r0
    185c:	e004      	b.n	1868 <__sflush_r+0x110>
    185e:	9f01      	ldr	r7, [sp, #4]
    1860:	1836      	adds	r6, r6, r0
    1862:	1a3f      	subs	r7, r7, r0
    1864:	9701      	str	r7, [sp, #4]
    1866:	e7e8      	b.n	183a <__sflush_r+0xe2>
    1868:	bdfe      	pop	{r1, r2, r3, r4, r5, r6, r7, pc}
	...

0000186c <_fflush_r>:
    186c:	690a      	ldr	r2, [r1, #16]
    186e:	b538      	push	{r3, r4, r5, lr}
    1870:	1c05      	adds	r5, r0, #0
    1872:	1c0c      	adds	r4, r1, #0
    1874:	2a00      	cmp	r2, #0
    1876:	d101      	bne.n	187c <_fflush_r+0x10>
    1878:	2000      	movs	r0, #0
    187a:	e01c      	b.n	18b6 <_fflush_r+0x4a>
    187c:	2800      	cmp	r0, #0
    187e:	d004      	beq.n	188a <_fflush_r+0x1e>
    1880:	6983      	ldr	r3, [r0, #24]
    1882:	2b00      	cmp	r3, #0
    1884:	d101      	bne.n	188a <_fflush_r+0x1e>
    1886:	f000 f885 	bl	1994 <__sinit>
    188a:	4b0b      	ldr	r3, [pc, #44]	; (18b8 <_fflush_r+0x4c>)
    188c:	429c      	cmp	r4, r3
    188e:	d101      	bne.n	1894 <_fflush_r+0x28>
    1890:	686c      	ldr	r4, [r5, #4]
    1892:	e008      	b.n	18a6 <_fflush_r+0x3a>
    1894:	4b09      	ldr	r3, [pc, #36]	; (18bc <_fflush_r+0x50>)
    1896:	429c      	cmp	r4, r3
    1898:	d101      	bne.n	189e <_fflush_r+0x32>
    189a:	68ac      	ldr	r4, [r5, #8]
    189c:	e003      	b.n	18a6 <_fflush_r+0x3a>
    189e:	4b08      	ldr	r3, [pc, #32]	; (18c0 <_fflush_r+0x54>)
    18a0:	429c      	cmp	r4, r3
    18a2:	d100      	bne.n	18a6 <_fflush_r+0x3a>
    18a4:	68ec      	ldr	r4, [r5, #12]
    18a6:	220c      	movs	r2, #12
    18a8:	5ea3      	ldrsh	r3, [r4, r2]
    18aa:	2b00      	cmp	r3, #0
    18ac:	d0e4      	beq.n	1878 <_fflush_r+0xc>
    18ae:	1c28      	adds	r0, r5, #0
    18b0:	1c21      	adds	r1, r4, #0
    18b2:	f7ff ff51 	bl	1758 <__sflush_r>
    18b6:	bd38      	pop	{r3, r4, r5, pc}
    18b8:	00003f78 	.word	0x00003f78
    18bc:	00003f98 	.word	0x00003f98
    18c0:	00003fb8 	.word	0x00003fb8

000018c4 <fflush>:
    18c4:	b508      	push	{r3, lr}
    18c6:	1e01      	subs	r1, r0, #0
    18c8:	d105      	bne.n	18d6 <fflush+0x12>
    18ca:	4b05      	ldr	r3, [pc, #20]	; (18e0 <fflush+0x1c>)
    18cc:	4905      	ldr	r1, [pc, #20]	; (18e4 <fflush+0x20>)
    18ce:	6818      	ldr	r0, [r3, #0]
    18d0:	f000 fa60 	bl	1d94 <_fwalk_reent>
    18d4:	e003      	b.n	18de <fflush+0x1a>
    18d6:	4b04      	ldr	r3, [pc, #16]	; (18e8 <fflush+0x24>)
    18d8:	6818      	ldr	r0, [r3, #0]
    18da:	f7ff ffc7 	bl	186c <_fflush_r>
    18de:	bd08      	pop	{r3, pc}
    18e0:	00003fdc 	.word	0x00003fdc
    18e4:	0000186d 	.word	0x0000186d
    18e8:	10000130 	.word	0x10000130

000018ec <_cleanup_r>:
    18ec:	b5f8      	push	{r3, r4, r5, r6, r7, lr}
    18ee:	1c04      	adds	r4, r0, #0
    18f0:	1c07      	adds	r7, r0, #0
    18f2:	3448      	adds	r4, #72	; 0x48
    18f4:	2c00      	cmp	r4, #0
    18f6:	d012      	beq.n	191e <_cleanup_r+0x32>
    18f8:	68a5      	ldr	r5, [r4, #8]
    18fa:	6866      	ldr	r6, [r4, #4]
    18fc:	3e01      	subs	r6, #1
    18fe:	d40c      	bmi.n	191a <_cleanup_r+0x2e>
    1900:	89ab      	ldrh	r3, [r5, #12]
    1902:	2b01      	cmp	r3, #1
    1904:	d907      	bls.n	1916 <_cleanup_r+0x2a>
    1906:	220e      	movs	r2, #14
    1908:	5eab      	ldrsh	r3, [r5, r2]
    190a:	3301      	adds	r3, #1
    190c:	d003      	beq.n	1916 <_cleanup_r+0x2a>
    190e:	1c38      	adds	r0, r7, #0
    1910:	1c29      	adds	r1, r5, #0
    1912:	f7ff ffab 	bl	186c <_fflush_r>
    1916:	3568      	adds	r5, #104	; 0x68
    1918:	e7f0      	b.n	18fc <_cleanup_r+0x10>
    191a:	6824      	ldr	r4, [r4, #0]
    191c:	e7ea      	b.n	18f4 <_cleanup_r+0x8>
    191e:	bdf8      	pop	{r3, r4, r5, r6, r7, pc}

00001920 <std.isra.0>:
    1920:	2300      	movs	r3, #0
    1922:	b510      	push	{r4, lr}
    1924:	1c04      	adds	r4, r0, #0
    1926:	6003      	str	r3, [r0, #0]
    1928:	6043      	str	r3, [r0, #4]
    192a:	6083      	str	r3, [r0, #8]
    192c:	8181      	strh	r1, [r0, #12]
    192e:	6643      	str	r3, [r0, #100]	; 0x64
    1930:	81c2      	strh	r2, [r0, #14]
    1932:	6103      	str	r3, [r0, #16]
    1934:	6143      	str	r3, [r0, #20]
    1936:	6183      	str	r3, [r0, #24]
    1938:	1c19      	adds	r1, r3, #0
    193a:	2208      	movs	r2, #8
    193c:	305c      	adds	r0, #92	; 0x5c
    193e:	f000 fade 	bl	1efe <memset>
    1942:	4b05      	ldr	r3, [pc, #20]	; (1958 <std.isra.0+0x38>)
    1944:	6224      	str	r4, [r4, #32]
    1946:	6263      	str	r3, [r4, #36]	; 0x24
    1948:	4b04      	ldr	r3, [pc, #16]	; (195c <std.isra.0+0x3c>)
    194a:	62a3      	str	r3, [r4, #40]	; 0x28
    194c:	4b04      	ldr	r3, [pc, #16]	; (1960 <std.isra.0+0x40>)
    194e:	62e3      	str	r3, [r4, #44]	; 0x2c
    1950:	4b04      	ldr	r3, [pc, #16]	; (1964 <std.isra.0+0x44>)
    1952:	6323      	str	r3, [r4, #48]	; 0x30
    1954:	bd10      	pop	{r4, pc}
    1956:	46c0      	nop			; (mov r8, r8)
    1958:	000021f1 	.word	0x000021f1
    195c:	0000221d 	.word	0x0000221d
    1960:	00002255 	.word	0x00002255
    1964:	00002281 	.word	0x00002281

00001968 <__sfmoreglue>:
    1968:	b570      	push	{r4, r5, r6, lr}
    196a:	1e4b      	subs	r3, r1, #1
    196c:	2568      	movs	r5, #104	; 0x68
    196e:	435d      	muls	r5, r3
    1970:	1c0e      	adds	r6, r1, #0
    1972:	1c29      	adds	r1, r5, #0
    1974:	3174      	adds	r1, #116	; 0x74
    1976:	f000 fb13 	bl	1fa0 <_malloc_r>
    197a:	1e04      	subs	r4, r0, #0
    197c:	d008      	beq.n	1990 <__sfmoreglue+0x28>
    197e:	2100      	movs	r1, #0
    1980:	6001      	str	r1, [r0, #0]
    1982:	6046      	str	r6, [r0, #4]
    1984:	1c2a      	adds	r2, r5, #0
    1986:	300c      	adds	r0, #12
    1988:	60a0      	str	r0, [r4, #8]
    198a:	3268      	adds	r2, #104	; 0x68
    198c:	f000 fab7 	bl	1efe <memset>
    1990:	1c20      	adds	r0, r4, #0
    1992:	bd70      	pop	{r4, r5, r6, pc}

00001994 <__sinit>:
    1994:	6983      	ldr	r3, [r0, #24]
    1996:	b513      	push	{r0, r1, r4, lr}
    1998:	1c04      	adds	r4, r0, #0
    199a:	2b00      	cmp	r3, #0
    199c:	d127      	bne.n	19ee <__sinit+0x5a>
    199e:	6483      	str	r3, [r0, #72]	; 0x48
    19a0:	64c3      	str	r3, [r0, #76]	; 0x4c
    19a2:	6503      	str	r3, [r0, #80]	; 0x50
    19a4:	4b12      	ldr	r3, [pc, #72]	; (19f0 <__sinit+0x5c>)
    19a6:	4a13      	ldr	r2, [pc, #76]	; (19f4 <__sinit+0x60>)
    19a8:	681b      	ldr	r3, [r3, #0]
    19aa:	6282      	str	r2, [r0, #40]	; 0x28
    19ac:	4298      	cmp	r0, r3
    19ae:	d101      	bne.n	19b4 <__sinit+0x20>
    19b0:	2301      	movs	r3, #1
    19b2:	6183      	str	r3, [r0, #24]
    19b4:	1c20      	adds	r0, r4, #0
    19b6:	f000 f81f 	bl	19f8 <__sfp>
    19ba:	6060      	str	r0, [r4, #4]
    19bc:	1c20      	adds	r0, r4, #0
    19be:	f000 f81b 	bl	19f8 <__sfp>
    19c2:	60a0      	str	r0, [r4, #8]
    19c4:	1c20      	adds	r0, r4, #0
    19c6:	f000 f817 	bl	19f8 <__sfp>
    19ca:	2104      	movs	r1, #4
    19cc:	60e0      	str	r0, [r4, #12]
    19ce:	2200      	movs	r2, #0
    19d0:	6860      	ldr	r0, [r4, #4]
    19d2:	f7ff ffa5 	bl	1920 <std.isra.0>
    19d6:	68a0      	ldr	r0, [r4, #8]
    19d8:	2109      	movs	r1, #9
    19da:	2201      	movs	r2, #1
    19dc:	f7ff ffa0 	bl	1920 <std.isra.0>
    19e0:	68e0      	ldr	r0, [r4, #12]
    19e2:	2112      	movs	r1, #18
    19e4:	2202      	movs	r2, #2
    19e6:	f7ff ff9b 	bl	1920 <std.isra.0>
    19ea:	2301      	movs	r3, #1
    19ec:	61a3      	str	r3, [r4, #24]
    19ee:	bd13      	pop	{r0, r1, r4, pc}
    19f0:	00003fdc 	.word	0x00003fdc
    19f4:	000018ed 	.word	0x000018ed

000019f8 <__sfp>:
    19f8:	b5f8      	push	{r3, r4, r5, r6, r7, lr}
    19fa:	4b1d      	ldr	r3, [pc, #116]	; (1a70 <__sfp+0x78>)
    19fc:	1c07      	adds	r7, r0, #0
    19fe:	681e      	ldr	r6, [r3, #0]
    1a00:	69b2      	ldr	r2, [r6, #24]
    1a02:	2a00      	cmp	r2, #0
    1a04:	d102      	bne.n	1a0c <__sfp+0x14>
    1a06:	1c30      	adds	r0, r6, #0
    1a08:	f7ff ffc4 	bl	1994 <__sinit>
    1a0c:	3648      	adds	r6, #72	; 0x48
    1a0e:	68b4      	ldr	r4, [r6, #8]
    1a10:	6873      	ldr	r3, [r6, #4]
    1a12:	3b01      	subs	r3, #1
    1a14:	d405      	bmi.n	1a22 <__sfp+0x2a>
    1a16:	220c      	movs	r2, #12
    1a18:	5ea5      	ldrsh	r5, [r4, r2]
    1a1a:	2d00      	cmp	r5, #0
    1a1c:	d010      	beq.n	1a40 <__sfp+0x48>
    1a1e:	3468      	adds	r4, #104	; 0x68
    1a20:	e7f7      	b.n	1a12 <__sfp+0x1a>
    1a22:	6833      	ldr	r3, [r6, #0]
    1a24:	2b00      	cmp	r3, #0
    1a26:	d106      	bne.n	1a36 <__sfp+0x3e>
    1a28:	1c38      	adds	r0, r7, #0
    1a2a:	2104      	movs	r1, #4
    1a2c:	f7ff ff9c 	bl	1968 <__sfmoreglue>
    1a30:	6030      	str	r0, [r6, #0]
    1a32:	2800      	cmp	r0, #0
    1a34:	d001      	beq.n	1a3a <__sfp+0x42>
    1a36:	6836      	ldr	r6, [r6, #0]
    1a38:	e7e9      	b.n	1a0e <__sfp+0x16>
    1a3a:	230c      	movs	r3, #12
    1a3c:	603b      	str	r3, [r7, #0]
    1a3e:	e016      	b.n	1a6e <__sfp+0x76>
    1a40:	2301      	movs	r3, #1
    1a42:	425b      	negs	r3, r3
    1a44:	81e3      	strh	r3, [r4, #14]
    1a46:	1c20      	adds	r0, r4, #0
    1a48:	2301      	movs	r3, #1
    1a4a:	81a3      	strh	r3, [r4, #12]
    1a4c:	6665      	str	r5, [r4, #100]	; 0x64
    1a4e:	6025      	str	r5, [r4, #0]
    1a50:	60a5      	str	r5, [r4, #8]
    1a52:	6065      	str	r5, [r4, #4]
    1a54:	6125      	str	r5, [r4, #16]
    1a56:	6165      	str	r5, [r4, #20]
    1a58:	61a5      	str	r5, [r4, #24]
    1a5a:	305c      	adds	r0, #92	; 0x5c
    1a5c:	1c29      	adds	r1, r5, #0
    1a5e:	2208      	movs	r2, #8
    1a60:	f000 fa4d 	bl	1efe <memset>
    1a64:	6365      	str	r5, [r4, #52]	; 0x34
    1a66:	63a5      	str	r5, [r4, #56]	; 0x38
    1a68:	64a5      	str	r5, [r4, #72]	; 0x48
    1a6a:	64e5      	str	r5, [r4, #76]	; 0x4c
    1a6c:	1c20      	adds	r0, r4, #0
    1a6e:	bdf8      	pop	{r3, r4, r5, r6, r7, pc}
    1a70:	00003fdc 	.word	0x00003fdc

00001a74 <__sfp_lock_acquire>:
    1a74:	4770      	bx	lr

00001a76 <__sfp_lock_release>:
    1a76:	4770      	bx	lr

00001a78 <_fopen_r>:
    1a78:	b5f7      	push	{r0, r1, r2, r4, r5, r6, r7, lr}
    1a7a:	1c0f      	adds	r7, r1, #0
    1a7c:	1c11      	adds	r1, r2, #0
    1a7e:	aa01      	add	r2, sp, #4
    1a80:	1c05      	adds	r5, r0, #0
    1a82:	f001 fd3d 	bl	3500 <__sflags>
    1a86:	1e06      	subs	r6, r0, #0
    1a88:	d101      	bne.n	1a8e <_fopen_r+0x16>
    1a8a:	2400      	movs	r4, #0
    1a8c:	e027      	b.n	1ade <_fopen_r+0x66>
    1a8e:	1c28      	adds	r0, r5, #0
    1a90:	f7ff ffb2 	bl	19f8 <__sfp>
    1a94:	1e04      	subs	r4, r0, #0
    1a96:	d0f8      	beq.n	1a8a <_fopen_r+0x12>
    1a98:	23db      	movs	r3, #219	; 0xdb
    1a9a:	1c28      	adds	r0, r5, #0
    1a9c:	1c39      	adds	r1, r7, #0
    1a9e:	9a01      	ldr	r2, [sp, #4]
    1aa0:	005b      	lsls	r3, r3, #1
    1aa2:	f000 fad1 	bl	2048 <_open_r>
    1aa6:	2800      	cmp	r0, #0
    1aa8:	da06      	bge.n	1ab8 <_fopen_r+0x40>
    1aaa:	2500      	movs	r5, #0
    1aac:	f7ff ffe2 	bl	1a74 <__sfp_lock_acquire>
    1ab0:	81a5      	strh	r5, [r4, #12]
    1ab2:	f7ff ffe0 	bl	1a76 <__sfp_lock_release>
    1ab6:	e7e8      	b.n	1a8a <_fopen_r+0x12>
    1ab8:	4b0a      	ldr	r3, [pc, #40]	; (1ae4 <_fopen_r+0x6c>)
    1aba:	81e0      	strh	r0, [r4, #14]
    1abc:	6263      	str	r3, [r4, #36]	; 0x24
    1abe:	4b0a      	ldr	r3, [pc, #40]	; (1ae8 <_fopen_r+0x70>)
    1ac0:	81a6      	strh	r6, [r4, #12]
    1ac2:	62a3      	str	r3, [r4, #40]	; 0x28
    1ac4:	4b09      	ldr	r3, [pc, #36]	; (1aec <_fopen_r+0x74>)
    1ac6:	6224      	str	r4, [r4, #32]
    1ac8:	62e3      	str	r3, [r4, #44]	; 0x2c
    1aca:	4b09      	ldr	r3, [pc, #36]	; (1af0 <_fopen_r+0x78>)
    1acc:	6323      	str	r3, [r4, #48]	; 0x30
    1ace:	05f3      	lsls	r3, r6, #23
    1ad0:	d505      	bpl.n	1ade <_fopen_r+0x66>
    1ad2:	1c28      	adds	r0, r5, #0
    1ad4:	1c21      	adds	r1, r4, #0
    1ad6:	2200      	movs	r2, #0
    1ad8:	2302      	movs	r3, #2
    1ada:	f000 f83b 	bl	1b54 <_fseek_r>
    1ade:	1c20      	adds	r0, r4, #0
    1ae0:	bdfe      	pop	{r1, r2, r3, r4, r5, r6, r7, pc}
    1ae2:	46c0      	nop			; (mov r8, r8)
    1ae4:	000021f1 	.word	0x000021f1
    1ae8:	0000221d 	.word	0x0000221d
    1aec:	00002255 	.word	0x00002255
    1af0:	00002281 	.word	0x00002281

00001af4 <fopen>:
    1af4:	b508      	push	{r3, lr}
    1af6:	1c0a      	adds	r2, r1, #0
    1af8:	4903      	ldr	r1, [pc, #12]	; (1b08 <fopen+0x14>)
    1afa:	1c03      	adds	r3, r0, #0
    1afc:	6808      	ldr	r0, [r1, #0]
    1afe:	1c19      	adds	r1, r3, #0
    1b00:	f7ff ffba 	bl	1a78 <_fopen_r>
    1b04:	bd08      	pop	{r3, pc}
    1b06:	46c0      	nop			; (mov r8, r8)
    1b08:	10000130 	.word	0x10000130

00001b0c <fiprintf>:
    1b0c:	b40e      	push	{r1, r2, r3}
    1b0e:	b503      	push	{r0, r1, lr}
    1b10:	ab03      	add	r3, sp, #12
    1b12:	cb04      	ldmia	r3!, {r2}
    1b14:	4a05      	ldr	r2, [pc, #20]	; (1b2c <fiprintf+0x20>)
    1b16:	1c01      	adds	r1, r0, #0
    1b18:	6810      	ldr	r0, [r2, #0]
    1b1a:	9a03      	ldr	r2, [sp, #12]
    1b1c:	9301      	str	r3, [sp, #4]
    1b1e:	f000 fe7d 	bl	281c <_vfiprintf_r>
    1b22:	b002      	add	sp, #8
    1b24:	bc08      	pop	{r3}
    1b26:	b003      	add	sp, #12
    1b28:	4718      	bx	r3
    1b2a:	46c0      	nop			; (mov r8, r8)
    1b2c:	10000130 	.word	0x10000130

00001b30 <fiscanf>:
    1b30:	b40e      	push	{r1, r2, r3}
    1b32:	b503      	push	{r0, r1, lr}
    1b34:	ab03      	add	r3, sp, #12
    1b36:	cb04      	ldmia	r3!, {r2}
    1b38:	4a05      	ldr	r2, [pc, #20]	; (1b50 <fiscanf+0x20>)
    1b3a:	1c01      	adds	r1, r0, #0
    1b3c:	6810      	ldr	r0, [r2, #0]
    1b3e:	9a03      	ldr	r2, [sp, #12]
    1b40:	9301      	str	r3, [sp, #4]
    1b42:	f001 fa63 	bl	300c <_vfiscanf_r>
    1b46:	b002      	add	sp, #8
    1b48:	bc08      	pop	{r3}
    1b4a:	b003      	add	sp, #12
    1b4c:	4718      	bx	r3
    1b4e:	46c0      	nop			; (mov r8, r8)
    1b50:	10000130 	.word	0x10000130

00001b54 <_fseek_r>:
    1b54:	b508      	push	{r3, lr}
    1b56:	f000 f80f 	bl	1b78 <_fseeko_r>
    1b5a:	bd08      	pop	{r3, pc}

00001b5c <fseek>:
    1b5c:	b538      	push	{r3, r4, r5, lr}
    1b5e:	1c13      	adds	r3, r2, #0
    1b60:	4a04      	ldr	r2, [pc, #16]	; (1b74 <fseek+0x18>)
    1b62:	1c05      	adds	r5, r0, #0
    1b64:	1c0c      	adds	r4, r1, #0
    1b66:	6810      	ldr	r0, [r2, #0]
    1b68:	1c29      	adds	r1, r5, #0
    1b6a:	1c22      	adds	r2, r4, #0
    1b6c:	f000 f804 	bl	1b78 <_fseeko_r>
    1b70:	bd38      	pop	{r3, r4, r5, pc}
    1b72:	46c0      	nop			; (mov r8, r8)
    1b74:	10000130 	.word	0x10000130

00001b78 <_fseeko_r>:
    1b78:	b5f7      	push	{r0, r1, r2, r4, r5, r6, r7, lr}
    1b7a:	1c05      	adds	r5, r0, #0
    1b7c:	1c0c      	adds	r4, r1, #0
    1b7e:	9201      	str	r2, [sp, #4]
    1b80:	1c1e      	adds	r6, r3, #0
    1b82:	2800      	cmp	r0, #0
    1b84:	d004      	beq.n	1b90 <_fseeko_r+0x18>
    1b86:	6982      	ldr	r2, [r0, #24]
    1b88:	2a00      	cmp	r2, #0
    1b8a:	d101      	bne.n	1b90 <_fseeko_r+0x18>
    1b8c:	f7ff ff02 	bl	1994 <__sinit>
    1b90:	4b41      	ldr	r3, [pc, #260]	; (1c98 <_fseeko_r+0x120>)
    1b92:	429c      	cmp	r4, r3
    1b94:	d101      	bne.n	1b9a <_fseeko_r+0x22>
    1b96:	686c      	ldr	r4, [r5, #4]
    1b98:	e008      	b.n	1bac <_fseeko_r+0x34>
    1b9a:	4b40      	ldr	r3, [pc, #256]	; (1c9c <_fseeko_r+0x124>)
    1b9c:	429c      	cmp	r4, r3
    1b9e:	d101      	bne.n	1ba4 <_fseeko_r+0x2c>
    1ba0:	68ac      	ldr	r4, [r5, #8]
    1ba2:	e003      	b.n	1bac <_fseeko_r+0x34>
    1ba4:	4b3e      	ldr	r3, [pc, #248]	; (1ca0 <_fseeko_r+0x128>)
    1ba6:	429c      	cmp	r4, r3
    1ba8:	d100      	bne.n	1bac <_fseeko_r+0x34>
    1baa:	68ec      	ldr	r4, [r5, #12]
    1bac:	89a2      	ldrh	r2, [r4, #12]
    1bae:	2384      	movs	r3, #132	; 0x84
    1bb0:	005b      	lsls	r3, r3, #1
    1bb2:	401a      	ands	r2, r3
    1bb4:	429a      	cmp	r2, r3
    1bb6:	d103      	bne.n	1bc0 <_fseeko_r+0x48>
    1bb8:	1c28      	adds	r0, r5, #0
    1bba:	1c21      	adds	r1, r4, #0
    1bbc:	f7ff fe56 	bl	186c <_fflush_r>
    1bc0:	6ae3      	ldr	r3, [r4, #44]	; 0x2c
    1bc2:	9300      	str	r3, [sp, #0]
    1bc4:	2b00      	cmp	r3, #0
    1bc6:	d101      	bne.n	1bcc <_fseeko_r+0x54>
    1bc8:	231d      	movs	r3, #29
    1bca:	e031      	b.n	1c30 <_fseeko_r+0xb8>
    1bcc:	2e01      	cmp	r6, #1
    1bce:	d005      	beq.n	1bdc <_fseeko_r+0x64>
    1bd0:	2e02      	cmp	r6, #2
    1bd2:	d031      	beq.n	1c38 <_fseeko_r+0xc0>
    1bd4:	2316      	movs	r3, #22
    1bd6:	2e00      	cmp	r6, #0
    1bd8:	d12a      	bne.n	1c30 <_fseeko_r+0xb8>
    1bda:	e02d      	b.n	1c38 <_fseeko_r+0xc0>
    1bdc:	1c28      	adds	r0, r5, #0
    1bde:	1c21      	adds	r1, r4, #0
    1be0:	f7ff fe44 	bl	186c <_fflush_r>
    1be4:	89a3      	ldrh	r3, [r4, #12]
    1be6:	2280      	movs	r2, #128	; 0x80
    1be8:	0152      	lsls	r2, r2, #5
    1bea:	401a      	ands	r2, r3
    1bec:	d001      	beq.n	1bf2 <_fseeko_r+0x7a>
    1bee:	6d60      	ldr	r0, [r4, #84]	; 0x54
    1bf0:	e006      	b.n	1c00 <_fseeko_r+0x88>
    1bf2:	1c33      	adds	r3, r6, #0
    1bf4:	1c28      	adds	r0, r5, #0
    1bf6:	6a21      	ldr	r1, [r4, #32]
    1bf8:	9e00      	ldr	r6, [sp, #0]
    1bfa:	47b0      	blx	r6
    1bfc:	1c42      	adds	r2, r0, #1
    1bfe:	d018      	beq.n	1c32 <_fseeko_r+0xba>
    1c00:	89a3      	ldrh	r3, [r4, #12]
    1c02:	075e      	lsls	r6, r3, #29
    1c04:	d507      	bpl.n	1c16 <_fseeko_r+0x9e>
    1c06:	6862      	ldr	r2, [r4, #4]
    1c08:	6b63      	ldr	r3, [r4, #52]	; 0x34
    1c0a:	1a80      	subs	r0, r0, r2
    1c0c:	2b00      	cmp	r3, #0
    1c0e:	d00a      	beq.n	1c26 <_fseeko_r+0xae>
    1c10:	6c26      	ldr	r6, [r4, #64]	; 0x40
    1c12:	1b80      	subs	r0, r0, r6
    1c14:	e007      	b.n	1c26 <_fseeko_r+0xae>
    1c16:	071a      	lsls	r2, r3, #28
    1c18:	d505      	bpl.n	1c26 <_fseeko_r+0xae>
    1c1a:	6823      	ldr	r3, [r4, #0]
    1c1c:	2b00      	cmp	r3, #0
    1c1e:	d002      	beq.n	1c26 <_fseeko_r+0xae>
    1c20:	6926      	ldr	r6, [r4, #16]
    1c22:	1b9b      	subs	r3, r3, r6
    1c24:	18c0      	adds	r0, r0, r3
    1c26:	9e01      	ldr	r6, [sp, #4]
    1c28:	1836      	adds	r6, r6, r0
    1c2a:	9601      	str	r6, [sp, #4]
    1c2c:	2600      	movs	r6, #0
    1c2e:	e003      	b.n	1c38 <_fseeko_r+0xc0>
    1c30:	602b      	str	r3, [r5, #0]
    1c32:	2701      	movs	r7, #1
    1c34:	427f      	negs	r7, r7
    1c36:	e02d      	b.n	1c94 <_fseeko_r+0x11c>
    1c38:	6922      	ldr	r2, [r4, #16]
    1c3a:	2a00      	cmp	r2, #0
    1c3c:	d103      	bne.n	1c46 <_fseeko_r+0xce>
    1c3e:	1c28      	adds	r0, r5, #0
    1c40:	1c21      	adds	r1, r4, #0
    1c42:	f000 f8ef 	bl	1e24 <__smakebuf_r>
    1c46:	1c28      	adds	r0, r5, #0
    1c48:	1c21      	adds	r1, r4, #0
    1c4a:	f7ff fe0f 	bl	186c <_fflush_r>
    1c4e:	1e07      	subs	r7, r0, #0
    1c50:	d1ef      	bne.n	1c32 <_fseeko_r+0xba>
    1c52:	1c33      	adds	r3, r6, #0
    1c54:	1c28      	adds	r0, r5, #0
    1c56:	6a21      	ldr	r1, [r4, #32]
    1c58:	9a01      	ldr	r2, [sp, #4]
    1c5a:	9e00      	ldr	r6, [sp, #0]
    1c5c:	47b0      	blx	r6
    1c5e:	3001      	adds	r0, #1
    1c60:	d0e7      	beq.n	1c32 <_fseeko_r+0xba>
    1c62:	6b61      	ldr	r1, [r4, #52]	; 0x34
    1c64:	2900      	cmp	r1, #0
    1c66:	d008      	beq.n	1c7a <_fseeko_r+0x102>
    1c68:	1c23      	adds	r3, r4, #0
    1c6a:	3344      	adds	r3, #68	; 0x44
    1c6c:	4299      	cmp	r1, r3
    1c6e:	d002      	beq.n	1c76 <_fseeko_r+0xfe>
    1c70:	1c28      	adds	r0, r5, #0
    1c72:	f000 f94d 	bl	1f10 <_free_r>
    1c76:	2300      	movs	r3, #0
    1c78:	6363      	str	r3, [r4, #52]	; 0x34
    1c7a:	6922      	ldr	r2, [r4, #16]
    1c7c:	4b09      	ldr	r3, [pc, #36]	; (1ca4 <_fseeko_r+0x12c>)
    1c7e:	6022      	str	r2, [r4, #0]
    1c80:	89a2      	ldrh	r2, [r4, #12]
    1c82:	2100      	movs	r1, #0
    1c84:	4013      	ands	r3, r2
    1c86:	1c20      	adds	r0, r4, #0
    1c88:	6061      	str	r1, [r4, #4]
    1c8a:	81a3      	strh	r3, [r4, #12]
    1c8c:	305c      	adds	r0, #92	; 0x5c
    1c8e:	2208      	movs	r2, #8
    1c90:	f000 f935 	bl	1efe <memset>
    1c94:	1c38      	adds	r0, r7, #0
    1c96:	bdfe      	pop	{r1, r2, r3, r4, r5, r6, r7, pc}
    1c98:	00003f78 	.word	0x00003f78
    1c9c:	00003f98 	.word	0x00003f98
    1ca0:	00003fb8 	.word	0x00003fb8
    1ca4:	fffff7df 	.word	0xfffff7df

00001ca8 <ftell>:
    1ca8:	b508      	push	{r3, lr}
    1caa:	4b03      	ldr	r3, [pc, #12]	; (1cb8 <ftell+0x10>)
    1cac:	1c01      	adds	r1, r0, #0
    1cae:	6818      	ldr	r0, [r3, #0]
    1cb0:	f000 f804 	bl	1cbc <_ftello_r>
    1cb4:	bd08      	pop	{r3, pc}
    1cb6:	46c0      	nop			; (mov r8, r8)
    1cb8:	10000130 	.word	0x10000130

00001cbc <_ftello_r>:
    1cbc:	b538      	push	{r3, r4, r5, lr}
    1cbe:	1c05      	adds	r5, r0, #0
    1cc0:	1c0c      	adds	r4, r1, #0
    1cc2:	2800      	cmp	r0, #0
    1cc4:	d004      	beq.n	1cd0 <_ftello_r+0x14>
    1cc6:	6982      	ldr	r2, [r0, #24]
    1cc8:	2a00      	cmp	r2, #0
    1cca:	d101      	bne.n	1cd0 <_ftello_r+0x14>
    1ccc:	f7ff fe62 	bl	1994 <__sinit>
    1cd0:	4b1f      	ldr	r3, [pc, #124]	; (1d50 <_ftello_r+0x94>)
    1cd2:	429c      	cmp	r4, r3
    1cd4:	d101      	bne.n	1cda <_ftello_r+0x1e>
    1cd6:	686c      	ldr	r4, [r5, #4]
    1cd8:	e008      	b.n	1cec <_ftello_r+0x30>
    1cda:	4b1e      	ldr	r3, [pc, #120]	; (1d54 <_ftello_r+0x98>)
    1cdc:	429c      	cmp	r4, r3
    1cde:	d101      	bne.n	1ce4 <_ftello_r+0x28>
    1ce0:	68ac      	ldr	r4, [r5, #8]
    1ce2:	e003      	b.n	1cec <_ftello_r+0x30>
    1ce4:	4b1c      	ldr	r3, [pc, #112]	; (1d58 <_ftello_r+0x9c>)
    1ce6:	429c      	cmp	r4, r3
    1ce8:	d100      	bne.n	1cec <_ftello_r+0x30>
    1cea:	68ec      	ldr	r4, [r5, #12]
    1cec:	6ae3      	ldr	r3, [r4, #44]	; 0x2c
    1cee:	2b00      	cmp	r3, #0
    1cf0:	d104      	bne.n	1cfc <_ftello_r+0x40>
    1cf2:	231d      	movs	r3, #29
    1cf4:	2001      	movs	r0, #1
    1cf6:	602b      	str	r3, [r5, #0]
    1cf8:	4240      	negs	r0, r0
    1cfa:	e027      	b.n	1d4c <_ftello_r+0x90>
    1cfc:	89a3      	ldrh	r3, [r4, #12]
    1cfe:	071a      	lsls	r2, r3, #28
    1d00:	d503      	bpl.n	1d0a <_ftello_r+0x4e>
    1d02:	1c28      	adds	r0, r5, #0
    1d04:	1c21      	adds	r1, r4, #0
    1d06:	f7ff fdb1 	bl	186c <_fflush_r>
    1d0a:	89a3      	ldrh	r3, [r4, #12]
    1d0c:	2280      	movs	r2, #128	; 0x80
    1d0e:	0152      	lsls	r2, r2, #5
    1d10:	401a      	ands	r2, r3
    1d12:	d001      	beq.n	1d18 <_ftello_r+0x5c>
    1d14:	6d60      	ldr	r0, [r4, #84]	; 0x54
    1d16:	e006      	b.n	1d26 <_ftello_r+0x6a>
    1d18:	1c28      	adds	r0, r5, #0
    1d1a:	6a21      	ldr	r1, [r4, #32]
    1d1c:	2301      	movs	r3, #1
    1d1e:	6ae5      	ldr	r5, [r4, #44]	; 0x2c
    1d20:	47a8      	blx	r5
    1d22:	1c42      	adds	r2, r0, #1
    1d24:	d012      	beq.n	1d4c <_ftello_r+0x90>
    1d26:	89a3      	ldrh	r3, [r4, #12]
    1d28:	075d      	lsls	r5, r3, #29
    1d2a:	d507      	bpl.n	1d3c <_ftello_r+0x80>
    1d2c:	6862      	ldr	r2, [r4, #4]
    1d2e:	6b63      	ldr	r3, [r4, #52]	; 0x34
    1d30:	1a80      	subs	r0, r0, r2
    1d32:	2b00      	cmp	r3, #0
    1d34:	d00a      	beq.n	1d4c <_ftello_r+0x90>
    1d36:	6c23      	ldr	r3, [r4, #64]	; 0x40
    1d38:	1ac0      	subs	r0, r0, r3
    1d3a:	e007      	b.n	1d4c <_ftello_r+0x90>
    1d3c:	071d      	lsls	r5, r3, #28
    1d3e:	d505      	bpl.n	1d4c <_ftello_r+0x90>
    1d40:	6823      	ldr	r3, [r4, #0]
    1d42:	2b00      	cmp	r3, #0
    1d44:	d002      	beq.n	1d4c <_ftello_r+0x90>
    1d46:	6922      	ldr	r2, [r4, #16]
    1d48:	1a9b      	subs	r3, r3, r2
    1d4a:	18c0      	adds	r0, r0, r3
    1d4c:	bd38      	pop	{r3, r4, r5, pc}
    1d4e:	46c0      	nop			; (mov r8, r8)
    1d50:	00003f78 	.word	0x00003f78
    1d54:	00003f98 	.word	0x00003f98
    1d58:	00003fb8 	.word	0x00003fb8

00001d5c <_fwalk>:
    1d5c:	b5f7      	push	{r0, r1, r2, r4, r5, r6, r7, lr}
    1d5e:	1c04      	adds	r4, r0, #0
    1d60:	9101      	str	r1, [sp, #4]
    1d62:	3448      	adds	r4, #72	; 0x48
    1d64:	2600      	movs	r6, #0
    1d66:	2c00      	cmp	r4, #0
    1d68:	d012      	beq.n	1d90 <_fwalk+0x34>
    1d6a:	68a5      	ldr	r5, [r4, #8]
    1d6c:	6867      	ldr	r7, [r4, #4]
    1d6e:	3f01      	subs	r7, #1
    1d70:	d40c      	bmi.n	1d8c <_fwalk+0x30>
    1d72:	89ab      	ldrh	r3, [r5, #12]
    1d74:	2b01      	cmp	r3, #1
    1d76:	d907      	bls.n	1d88 <_fwalk+0x2c>
    1d78:	220e      	movs	r2, #14
    1d7a:	5eab      	ldrsh	r3, [r5, r2]
    1d7c:	3301      	adds	r3, #1
    1d7e:	d003      	beq.n	1d88 <_fwalk+0x2c>
    1d80:	1c28      	adds	r0, r5, #0
    1d82:	9b01      	ldr	r3, [sp, #4]
    1d84:	4798      	blx	r3
    1d86:	4306      	orrs	r6, r0
    1d88:	3568      	adds	r5, #104	; 0x68
    1d8a:	e7f0      	b.n	1d6e <_fwalk+0x12>
    1d8c:	6824      	ldr	r4, [r4, #0]
    1d8e:	e7ea      	b.n	1d66 <_fwalk+0xa>
    1d90:	1c30      	adds	r0, r6, #0
    1d92:	bdfe      	pop	{r1, r2, r3, r4, r5, r6, r7, pc}

00001d94 <_fwalk_reent>:
    1d94:	b5f7      	push	{r0, r1, r2, r4, r5, r6, r7, lr}
    1d96:	1c04      	adds	r4, r0, #0
    1d98:	1c07      	adds	r7, r0, #0
    1d9a:	9101      	str	r1, [sp, #4]
    1d9c:	3448      	adds	r4, #72	; 0x48
    1d9e:	2600      	movs	r6, #0
    1da0:	2c00      	cmp	r4, #0
    1da2:	d016      	beq.n	1dd2 <_fwalk_reent+0x3e>
    1da4:	6862      	ldr	r2, [r4, #4]
    1da6:	68a5      	ldr	r5, [r4, #8]
    1da8:	9200      	str	r2, [sp, #0]
    1daa:	9a00      	ldr	r2, [sp, #0]
    1dac:	3a01      	subs	r2, #1
    1dae:	9200      	str	r2, [sp, #0]
    1db0:	d40d      	bmi.n	1dce <_fwalk_reent+0x3a>
    1db2:	89ab      	ldrh	r3, [r5, #12]
    1db4:	2b01      	cmp	r3, #1
    1db6:	d908      	bls.n	1dca <_fwalk_reent+0x36>
    1db8:	220e      	movs	r2, #14
    1dba:	5eab      	ldrsh	r3, [r5, r2]
    1dbc:	3301      	adds	r3, #1
    1dbe:	d004      	beq.n	1dca <_fwalk_reent+0x36>
    1dc0:	1c38      	adds	r0, r7, #0
    1dc2:	1c29      	adds	r1, r5, #0
    1dc4:	9b01      	ldr	r3, [sp, #4]
    1dc6:	4798      	blx	r3
    1dc8:	4306      	orrs	r6, r0
    1dca:	3568      	adds	r5, #104	; 0x68
    1dcc:	e7ed      	b.n	1daa <_fwalk_reent+0x16>
    1dce:	6824      	ldr	r4, [r4, #0]
    1dd0:	e7e6      	b.n	1da0 <_fwalk_reent+0xc>
    1dd2:	1c30      	adds	r0, r6, #0
    1dd4:	bdfe      	pop	{r1, r2, r3, r4, r5, r6, r7, pc}
	...

00001dd8 <__libc_init_array>:
    1dd8:	b570      	push	{r4, r5, r6, lr}
    1dda:	4b0e      	ldr	r3, [pc, #56]	; (1e14 <__libc_init_array+0x3c>)
    1ddc:	4d0e      	ldr	r5, [pc, #56]	; (1e18 <__libc_init_array+0x40>)
    1dde:	2400      	movs	r4, #0
    1de0:	1aed      	subs	r5, r5, r3
    1de2:	10ad      	asrs	r5, r5, #2
    1de4:	1c1e      	adds	r6, r3, #0
    1de6:	42ac      	cmp	r4, r5
    1de8:	d004      	beq.n	1df4 <__libc_init_array+0x1c>
    1dea:	00a3      	lsls	r3, r4, #2
    1dec:	58f3      	ldr	r3, [r6, r3]
    1dee:	4798      	blx	r3
    1df0:	3401      	adds	r4, #1
    1df2:	e7f8      	b.n	1de6 <__libc_init_array+0xe>
    1df4:	f001 fe12 	bl	3a1c <_init>
    1df8:	4b08      	ldr	r3, [pc, #32]	; (1e1c <__libc_init_array+0x44>)
    1dfa:	4d09      	ldr	r5, [pc, #36]	; (1e20 <__libc_init_array+0x48>)
    1dfc:	2400      	movs	r4, #0
    1dfe:	1aed      	subs	r5, r5, r3
    1e00:	10ad      	asrs	r5, r5, #2
    1e02:	1c1e      	adds	r6, r3, #0
    1e04:	42ac      	cmp	r4, r5
    1e06:	d004      	beq.n	1e12 <__libc_init_array+0x3a>
    1e08:	00a3      	lsls	r3, r4, #2
    1e0a:	58f3      	ldr	r3, [r6, r3]
    1e0c:	4798      	blx	r3
    1e0e:	3401      	adds	r4, #1
    1e10:	e7f8      	b.n	1e04 <__libc_init_array+0x2c>
    1e12:	bd70      	pop	{r4, r5, r6, pc}
    1e14:	10000138 	.word	0x10000138
    1e18:	10000138 	.word	0x10000138
    1e1c:	10000138 	.word	0x10000138
    1e20:	10000140 	.word	0x10000140

00001e24 <__smakebuf_r>:
    1e24:	b5f0      	push	{r4, r5, r6, r7, lr}
    1e26:	898b      	ldrh	r3, [r1, #12]
    1e28:	b091      	sub	sp, #68	; 0x44
    1e2a:	1c05      	adds	r5, r0, #0
    1e2c:	1c0c      	adds	r4, r1, #0
    1e2e:	079a      	lsls	r2, r3, #30
    1e30:	d425      	bmi.n	1e7e <__smakebuf_r+0x5a>
    1e32:	230e      	movs	r3, #14
    1e34:	5ec9      	ldrsh	r1, [r1, r3]
    1e36:	2900      	cmp	r1, #0
    1e38:	da06      	bge.n	1e48 <__smakebuf_r+0x24>
    1e3a:	89a7      	ldrh	r7, [r4, #12]
    1e3c:	2380      	movs	r3, #128	; 0x80
    1e3e:	401f      	ands	r7, r3
    1e40:	d00f      	beq.n	1e62 <__smakebuf_r+0x3e>
    1e42:	2700      	movs	r7, #0
    1e44:	2640      	movs	r6, #64	; 0x40
    1e46:	e00e      	b.n	1e66 <__smakebuf_r+0x42>
    1e48:	aa01      	add	r2, sp, #4
    1e4a:	f001 fb91 	bl	3570 <_fstat_r>
    1e4e:	2800      	cmp	r0, #0
    1e50:	dbf3      	blt.n	1e3a <__smakebuf_r+0x16>
    1e52:	9b02      	ldr	r3, [sp, #8]
    1e54:	27f0      	movs	r7, #240	; 0xf0
    1e56:	023f      	lsls	r7, r7, #8
    1e58:	4a18      	ldr	r2, [pc, #96]	; (1ebc <__smakebuf_r+0x98>)
    1e5a:	401f      	ands	r7, r3
    1e5c:	18bf      	adds	r7, r7, r2
    1e5e:	427b      	negs	r3, r7
    1e60:	415f      	adcs	r7, r3
    1e62:	2680      	movs	r6, #128	; 0x80
    1e64:	00f6      	lsls	r6, r6, #3
    1e66:	1c28      	adds	r0, r5, #0
    1e68:	1c31      	adds	r1, r6, #0
    1e6a:	f000 f899 	bl	1fa0 <_malloc_r>
    1e6e:	2800      	cmp	r0, #0
    1e70:	d10c      	bne.n	1e8c <__smakebuf_r+0x68>
    1e72:	89a3      	ldrh	r3, [r4, #12]
    1e74:	059a      	lsls	r2, r3, #22
    1e76:	d41f      	bmi.n	1eb8 <__smakebuf_r+0x94>
    1e78:	2202      	movs	r2, #2
    1e7a:	4313      	orrs	r3, r2
    1e7c:	81a3      	strh	r3, [r4, #12]
    1e7e:	1c23      	adds	r3, r4, #0
    1e80:	3347      	adds	r3, #71	; 0x47
    1e82:	6023      	str	r3, [r4, #0]
    1e84:	6123      	str	r3, [r4, #16]
    1e86:	2301      	movs	r3, #1
    1e88:	6163      	str	r3, [r4, #20]
    1e8a:	e015      	b.n	1eb8 <__smakebuf_r+0x94>
    1e8c:	4b0c      	ldr	r3, [pc, #48]	; (1ec0 <__smakebuf_r+0x9c>)
    1e8e:	2280      	movs	r2, #128	; 0x80
    1e90:	62ab      	str	r3, [r5, #40]	; 0x28
    1e92:	89a3      	ldrh	r3, [r4, #12]
    1e94:	6020      	str	r0, [r4, #0]
    1e96:	4313      	orrs	r3, r2
    1e98:	81a3      	strh	r3, [r4, #12]
    1e9a:	6120      	str	r0, [r4, #16]
    1e9c:	6166      	str	r6, [r4, #20]
    1e9e:	2f00      	cmp	r7, #0
    1ea0:	d00a      	beq.n	1eb8 <__smakebuf_r+0x94>
    1ea2:	230e      	movs	r3, #14
    1ea4:	5ee1      	ldrsh	r1, [r4, r3]
    1ea6:	1c28      	adds	r0, r5, #0
    1ea8:	f001 fb74 	bl	3594 <_isatty_r>
    1eac:	2800      	cmp	r0, #0
    1eae:	d003      	beq.n	1eb8 <__smakebuf_r+0x94>
    1eb0:	89a3      	ldrh	r3, [r4, #12]
    1eb2:	2201      	movs	r2, #1
    1eb4:	4313      	orrs	r3, r2
    1eb6:	81a3      	strh	r3, [r4, #12]
    1eb8:	b011      	add	sp, #68	; 0x44
    1eba:	bdf0      	pop	{r4, r5, r6, r7, pc}
    1ebc:	ffffe000 	.word	0xffffe000
    1ec0:	000018ed 	.word	0x000018ed

00001ec4 <malloc>:
    1ec4:	b508      	push	{r3, lr}
    1ec6:	4b03      	ldr	r3, [pc, #12]	; (1ed4 <malloc+0x10>)
    1ec8:	1c01      	adds	r1, r0, #0
    1eca:	6818      	ldr	r0, [r3, #0]
    1ecc:	f000 f868 	bl	1fa0 <_malloc_r>
    1ed0:	bd08      	pop	{r3, pc}
    1ed2:	46c0      	nop			; (mov r8, r8)
    1ed4:	10000130 	.word	0x10000130

00001ed8 <free>:
    1ed8:	b508      	push	{r3, lr}
    1eda:	4b03      	ldr	r3, [pc, #12]	; (1ee8 <free+0x10>)
    1edc:	1c01      	adds	r1, r0, #0
    1ede:	6818      	ldr	r0, [r3, #0]
    1ee0:	f000 f816 	bl	1f10 <_free_r>
    1ee4:	bd08      	pop	{r3, pc}
    1ee6:	46c0      	nop			; (mov r8, r8)
    1ee8:	10000130 	.word	0x10000130

00001eec <memcpy>:
    1eec:	b510      	push	{r4, lr}
    1eee:	2300      	movs	r3, #0
    1ef0:	4293      	cmp	r3, r2
    1ef2:	d003      	beq.n	1efc <memcpy+0x10>
    1ef4:	5ccc      	ldrb	r4, [r1, r3]
    1ef6:	54c4      	strb	r4, [r0, r3]
    1ef8:	3301      	adds	r3, #1
    1efa:	e7f9      	b.n	1ef0 <memcpy+0x4>
    1efc:	bd10      	pop	{r4, pc}

00001efe <memset>:
    1efe:	1c03      	adds	r3, r0, #0
    1f00:	1882      	adds	r2, r0, r2
    1f02:	4293      	cmp	r3, r2
    1f04:	d002      	beq.n	1f0c <memset+0xe>
    1f06:	7019      	strb	r1, [r3, #0]
    1f08:	3301      	adds	r3, #1
    1f0a:	e7fa      	b.n	1f02 <memset+0x4>
    1f0c:	4770      	bx	lr
	...

00001f10 <_free_r>:
    1f10:	b530      	push	{r4, r5, lr}
    1f12:	2900      	cmp	r1, #0
    1f14:	d040      	beq.n	1f98 <_free_r+0x88>
    1f16:	3904      	subs	r1, #4
    1f18:	680b      	ldr	r3, [r1, #0]
    1f1a:	2b00      	cmp	r3, #0
    1f1c:	da00      	bge.n	1f20 <_free_r+0x10>
    1f1e:	18c9      	adds	r1, r1, r3
    1f20:	4a1e      	ldr	r2, [pc, #120]	; (1f9c <_free_r+0x8c>)
    1f22:	6813      	ldr	r3, [r2, #0]
    1f24:	1c14      	adds	r4, r2, #0
    1f26:	2b00      	cmp	r3, #0
    1f28:	d102      	bne.n	1f30 <_free_r+0x20>
    1f2a:	604b      	str	r3, [r1, #4]
    1f2c:	6011      	str	r1, [r2, #0]
    1f2e:	e033      	b.n	1f98 <_free_r+0x88>
    1f30:	4299      	cmp	r1, r3
    1f32:	d20f      	bcs.n	1f54 <_free_r+0x44>
    1f34:	6808      	ldr	r0, [r1, #0]
    1f36:	180a      	adds	r2, r1, r0
    1f38:	429a      	cmp	r2, r3
    1f3a:	d105      	bne.n	1f48 <_free_r+0x38>
    1f3c:	6813      	ldr	r3, [r2, #0]
    1f3e:	6852      	ldr	r2, [r2, #4]
    1f40:	18c0      	adds	r0, r0, r3
    1f42:	6008      	str	r0, [r1, #0]
    1f44:	604a      	str	r2, [r1, #4]
    1f46:	e000      	b.n	1f4a <_free_r+0x3a>
    1f48:	604b      	str	r3, [r1, #4]
    1f4a:	6021      	str	r1, [r4, #0]
    1f4c:	e024      	b.n	1f98 <_free_r+0x88>
    1f4e:	428a      	cmp	r2, r1
    1f50:	d803      	bhi.n	1f5a <_free_r+0x4a>
    1f52:	1c13      	adds	r3, r2, #0
    1f54:	685a      	ldr	r2, [r3, #4]
    1f56:	2a00      	cmp	r2, #0
    1f58:	d1f9      	bne.n	1f4e <_free_r+0x3e>
    1f5a:	681d      	ldr	r5, [r3, #0]
    1f5c:	195c      	adds	r4, r3, r5
    1f5e:	428c      	cmp	r4, r1
    1f60:	d10b      	bne.n	1f7a <_free_r+0x6a>
    1f62:	6809      	ldr	r1, [r1, #0]
    1f64:	1869      	adds	r1, r5, r1
    1f66:	1858      	adds	r0, r3, r1
    1f68:	6019      	str	r1, [r3, #0]
    1f6a:	4290      	cmp	r0, r2
    1f6c:	d114      	bne.n	1f98 <_free_r+0x88>
    1f6e:	6814      	ldr	r4, [r2, #0]
    1f70:	6852      	ldr	r2, [r2, #4]
    1f72:	1909      	adds	r1, r1, r4
    1f74:	6019      	str	r1, [r3, #0]
    1f76:	605a      	str	r2, [r3, #4]
    1f78:	e00e      	b.n	1f98 <_free_r+0x88>
    1f7a:	428c      	cmp	r4, r1
    1f7c:	d902      	bls.n	1f84 <_free_r+0x74>
    1f7e:	230c      	movs	r3, #12
    1f80:	6003      	str	r3, [r0, #0]
    1f82:	e009      	b.n	1f98 <_free_r+0x88>
    1f84:	6808      	ldr	r0, [r1, #0]
    1f86:	180c      	adds	r4, r1, r0
    1f88:	4294      	cmp	r4, r2
    1f8a:	d103      	bne.n	1f94 <_free_r+0x84>
    1f8c:	6814      	ldr	r4, [r2, #0]
    1f8e:	6852      	ldr	r2, [r2, #4]
    1f90:	1900      	adds	r0, r0, r4
    1f92:	6008      	str	r0, [r1, #0]
    1f94:	604a      	str	r2, [r1, #4]
    1f96:	6059      	str	r1, [r3, #4]
    1f98:	bd30      	pop	{r4, r5, pc}
    1f9a:	46c0      	nop			; (mov r8, r8)
    1f9c:	1000028c 	.word	0x1000028c

00001fa0 <_malloc_r>:
    1fa0:	b570      	push	{r4, r5, r6, lr}
    1fa2:	2303      	movs	r3, #3
    1fa4:	1ccd      	adds	r5, r1, #3
    1fa6:	439d      	bics	r5, r3
    1fa8:	3508      	adds	r5, #8
    1faa:	1c06      	adds	r6, r0, #0
    1fac:	2d0c      	cmp	r5, #12
    1fae:	d201      	bcs.n	1fb4 <_malloc_r+0x14>
    1fb0:	250c      	movs	r5, #12
    1fb2:	e001      	b.n	1fb8 <_malloc_r+0x18>
    1fb4:	2d00      	cmp	r5, #0
    1fb6:	db3f      	blt.n	2038 <_malloc_r+0x98>
    1fb8:	428d      	cmp	r5, r1
    1fba:	d33d      	bcc.n	2038 <_malloc_r+0x98>
    1fbc:	4b20      	ldr	r3, [pc, #128]	; (2040 <_malloc_r+0xa0>)
    1fbe:	681c      	ldr	r4, [r3, #0]
    1fc0:	1c1a      	adds	r2, r3, #0
    1fc2:	1c21      	adds	r1, r4, #0
    1fc4:	2900      	cmp	r1, #0
    1fc6:	d013      	beq.n	1ff0 <_malloc_r+0x50>
    1fc8:	6808      	ldr	r0, [r1, #0]
    1fca:	1b43      	subs	r3, r0, r5
    1fcc:	d40d      	bmi.n	1fea <_malloc_r+0x4a>
    1fce:	2b0b      	cmp	r3, #11
    1fd0:	d902      	bls.n	1fd8 <_malloc_r+0x38>
    1fd2:	600b      	str	r3, [r1, #0]
    1fd4:	18cc      	adds	r4, r1, r3
    1fd6:	e01e      	b.n	2016 <_malloc_r+0x76>
    1fd8:	428c      	cmp	r4, r1
    1fda:	d102      	bne.n	1fe2 <_malloc_r+0x42>
    1fdc:	6863      	ldr	r3, [r4, #4]
    1fde:	6013      	str	r3, [r2, #0]
    1fe0:	e01a      	b.n	2018 <_malloc_r+0x78>
    1fe2:	6848      	ldr	r0, [r1, #4]
    1fe4:	6060      	str	r0, [r4, #4]
    1fe6:	1c0c      	adds	r4, r1, #0
    1fe8:	e016      	b.n	2018 <_malloc_r+0x78>
    1fea:	1c0c      	adds	r4, r1, #0
    1fec:	6849      	ldr	r1, [r1, #4]
    1fee:	e7e9      	b.n	1fc4 <_malloc_r+0x24>
    1ff0:	4c14      	ldr	r4, [pc, #80]	; (2044 <_malloc_r+0xa4>)
    1ff2:	6820      	ldr	r0, [r4, #0]
    1ff4:	2800      	cmp	r0, #0
    1ff6:	d103      	bne.n	2000 <_malloc_r+0x60>
    1ff8:	1c30      	adds	r0, r6, #0
    1ffa:	f000 f8bf 	bl	217c <_sbrk_r>
    1ffe:	6020      	str	r0, [r4, #0]
    2000:	1c30      	adds	r0, r6, #0
    2002:	1c29      	adds	r1, r5, #0
    2004:	f000 f8ba 	bl	217c <_sbrk_r>
    2008:	1c43      	adds	r3, r0, #1
    200a:	d015      	beq.n	2038 <_malloc_r+0x98>
    200c:	1cc4      	adds	r4, r0, #3
    200e:	2303      	movs	r3, #3
    2010:	439c      	bics	r4, r3
    2012:	4284      	cmp	r4, r0
    2014:	d10a      	bne.n	202c <_malloc_r+0x8c>
    2016:	6025      	str	r5, [r4, #0]
    2018:	1c20      	adds	r0, r4, #0
    201a:	300b      	adds	r0, #11
    201c:	2207      	movs	r2, #7
    201e:	1d23      	adds	r3, r4, #4
    2020:	4390      	bics	r0, r2
    2022:	1ac3      	subs	r3, r0, r3
    2024:	d00b      	beq.n	203e <_malloc_r+0x9e>
    2026:	425a      	negs	r2, r3
    2028:	50e2      	str	r2, [r4, r3]
    202a:	e008      	b.n	203e <_malloc_r+0x9e>
    202c:	1a21      	subs	r1, r4, r0
    202e:	1c30      	adds	r0, r6, #0
    2030:	f000 f8a4 	bl	217c <_sbrk_r>
    2034:	3001      	adds	r0, #1
    2036:	d1ee      	bne.n	2016 <_malloc_r+0x76>
    2038:	230c      	movs	r3, #12
    203a:	6033      	str	r3, [r6, #0]
    203c:	2000      	movs	r0, #0
    203e:	bd70      	pop	{r4, r5, r6, pc}
    2040:	1000028c 	.word	0x1000028c
    2044:	10000288 	.word	0x10000288

00002048 <_open_r>:
    2048:	b538      	push	{r3, r4, r5, lr}
    204a:	4c08      	ldr	r4, [pc, #32]	; (206c <_open_r+0x24>)
    204c:	1c05      	adds	r5, r0, #0
    204e:	2000      	movs	r0, #0
    2050:	6020      	str	r0, [r4, #0]
    2052:	1c08      	adds	r0, r1, #0
    2054:	1c11      	adds	r1, r2, #0
    2056:	1c1a      	adds	r2, r3, #0
    2058:	f7fe fd3e 	bl	ad8 <_open>
    205c:	1c43      	adds	r3, r0, #1
    205e:	d103      	bne.n	2068 <_open_r+0x20>
    2060:	6823      	ldr	r3, [r4, #0]
    2062:	2b00      	cmp	r3, #0
    2064:	d000      	beq.n	2068 <_open_r+0x20>
    2066:	602b      	str	r3, [r5, #0]
    2068:	bd38      	pop	{r3, r4, r5, pc}
    206a:	46c0      	nop			; (mov r8, r8)
    206c:	10000298 	.word	0x10000298

00002070 <iprintf>:
    2070:	b40f      	push	{r0, r1, r2, r3}
    2072:	4b0b      	ldr	r3, [pc, #44]	; (20a0 <iprintf+0x30>)
    2074:	b513      	push	{r0, r1, r4, lr}
    2076:	681c      	ldr	r4, [r3, #0]
    2078:	2c00      	cmp	r4, #0
    207a:	d005      	beq.n	2088 <iprintf+0x18>
    207c:	69a3      	ldr	r3, [r4, #24]
    207e:	2b00      	cmp	r3, #0
    2080:	d102      	bne.n	2088 <iprintf+0x18>
    2082:	1c20      	adds	r0, r4, #0
    2084:	f7ff fc86 	bl	1994 <__sinit>
    2088:	ab05      	add	r3, sp, #20
    208a:	68a1      	ldr	r1, [r4, #8]
    208c:	1c20      	adds	r0, r4, #0
    208e:	9a04      	ldr	r2, [sp, #16]
    2090:	9301      	str	r3, [sp, #4]
    2092:	f000 fbc3 	bl	281c <_vfiprintf_r>
    2096:	bc16      	pop	{r1, r2, r4}
    2098:	bc08      	pop	{r3}
    209a:	b004      	add	sp, #16
    209c:	4718      	bx	r3
    209e:	46c0      	nop			; (mov r8, r8)
    20a0:	10000130 	.word	0x10000130

000020a4 <_puts_r>:
    20a4:	b570      	push	{r4, r5, r6, lr}
    20a6:	1c05      	adds	r5, r0, #0
    20a8:	1c0e      	adds	r6, r1, #0
    20aa:	2800      	cmp	r0, #0
    20ac:	d004      	beq.n	20b8 <_puts_r+0x14>
    20ae:	6982      	ldr	r2, [r0, #24]
    20b0:	2a00      	cmp	r2, #0
    20b2:	d101      	bne.n	20b8 <_puts_r+0x14>
    20b4:	f7ff fc6e 	bl	1994 <__sinit>
    20b8:	68ac      	ldr	r4, [r5, #8]
    20ba:	89a3      	ldrh	r3, [r4, #12]
    20bc:	071a      	lsls	r2, r3, #28
    20be:	d502      	bpl.n	20c6 <_puts_r+0x22>
    20c0:	6923      	ldr	r3, [r4, #16]
    20c2:	2b00      	cmp	r3, #0
    20c4:	d119      	bne.n	20fa <_puts_r+0x56>
    20c6:	1c28      	adds	r0, r5, #0
    20c8:	1c21      	adds	r1, r4, #0
    20ca:	f001 f995 	bl	33f8 <__swsetup_r>
    20ce:	2800      	cmp	r0, #0
    20d0:	d013      	beq.n	20fa <_puts_r+0x56>
    20d2:	2001      	movs	r0, #1
    20d4:	4240      	negs	r0, r0
    20d6:	e045      	b.n	2164 <_puts_r+0xc0>
    20d8:	7831      	ldrb	r1, [r6, #0]
    20da:	2b00      	cmp	r3, #0
    20dc:	da1b      	bge.n	2116 <_puts_r+0x72>
    20de:	69a2      	ldr	r2, [r4, #24]
    20e0:	4293      	cmp	r3, r2
    20e2:	da11      	bge.n	2108 <_puts_r+0x64>
    20e4:	1c28      	adds	r0, r5, #0
    20e6:	1c22      	adds	r2, r4, #0
    20e8:	f001 f91a 	bl	3320 <__swbuf_r>
    20ec:	3001      	adds	r0, #1
    20ee:	4243      	negs	r3, r0
    20f0:	4158      	adcs	r0, r3
    20f2:	b2c0      	uxtb	r0, r0
    20f4:	2800      	cmp	r0, #0
    20f6:	d1ec      	bne.n	20d2 <_puts_r+0x2e>
    20f8:	3601      	adds	r6, #1
    20fa:	68a3      	ldr	r3, [r4, #8]
    20fc:	7832      	ldrb	r2, [r6, #0]
    20fe:	3b01      	subs	r3, #1
    2100:	60a3      	str	r3, [r4, #8]
    2102:	2a00      	cmp	r2, #0
    2104:	d1e8      	bne.n	20d8 <_puts_r+0x34>
    2106:	e00c      	b.n	2122 <_puts_r+0x7e>
    2108:	6823      	ldr	r3, [r4, #0]
    210a:	7019      	strb	r1, [r3, #0]
    210c:	6823      	ldr	r3, [r4, #0]
    210e:	7819      	ldrb	r1, [r3, #0]
    2110:	290a      	cmp	r1, #10
    2112:	d103      	bne.n	211c <_puts_r+0x78>
    2114:	e7e6      	b.n	20e4 <_puts_r+0x40>
    2116:	6822      	ldr	r2, [r4, #0]
    2118:	7011      	strb	r1, [r2, #0]
    211a:	6823      	ldr	r3, [r4, #0]
    211c:	3301      	adds	r3, #1
    211e:	6023      	str	r3, [r4, #0]
    2120:	e7ea      	b.n	20f8 <_puts_r+0x54>
    2122:	2b00      	cmp	r3, #0
    2124:	da17      	bge.n	2156 <_puts_r+0xb2>
    2126:	69a2      	ldr	r2, [r4, #24]
    2128:	4293      	cmp	r3, r2
    212a:	db08      	blt.n	213e <_puts_r+0x9a>
    212c:	6822      	ldr	r2, [r4, #0]
    212e:	230a      	movs	r3, #10
    2130:	7013      	strb	r3, [r2, #0]
    2132:	6823      	ldr	r3, [r4, #0]
    2134:	7819      	ldrb	r1, [r3, #0]
    2136:	290a      	cmp	r1, #10
    2138:	d111      	bne.n	215e <_puts_r+0xba>
    213a:	1c28      	adds	r0, r5, #0
    213c:	e001      	b.n	2142 <_puts_r+0x9e>
    213e:	1c28      	adds	r0, r5, #0
    2140:	210a      	movs	r1, #10
    2142:	1c22      	adds	r2, r4, #0
    2144:	f001 f8ec 	bl	3320 <__swbuf_r>
    2148:	3001      	adds	r0, #1
    214a:	4243      	negs	r3, r0
    214c:	4158      	adcs	r0, r3
    214e:	b2c0      	uxtb	r0, r0
    2150:	2800      	cmp	r0, #0
    2152:	d006      	beq.n	2162 <_puts_r+0xbe>
    2154:	e7bd      	b.n	20d2 <_puts_r+0x2e>
    2156:	6822      	ldr	r2, [r4, #0]
    2158:	230a      	movs	r3, #10
    215a:	7013      	strb	r3, [r2, #0]
    215c:	6823      	ldr	r3, [r4, #0]
    215e:	3301      	adds	r3, #1
    2160:	6023      	str	r3, [r4, #0]
    2162:	200a      	movs	r0, #10
    2164:	bd70      	pop	{r4, r5, r6, pc}
	...

00002168 <puts>:
    2168:	b508      	push	{r3, lr}
    216a:	4b03      	ldr	r3, [pc, #12]	; (2178 <puts+0x10>)
    216c:	1c01      	adds	r1, r0, #0
    216e:	6818      	ldr	r0, [r3, #0]
    2170:	f7ff ff98 	bl	20a4 <_puts_r>
    2174:	bd08      	pop	{r3, pc}
    2176:	46c0      	nop			; (mov r8, r8)
    2178:	10000130 	.word	0x10000130

0000217c <_sbrk_r>:
    217c:	b538      	push	{r3, r4, r5, lr}
    217e:	4c07      	ldr	r4, [pc, #28]	; (219c <_sbrk_r+0x20>)
    2180:	2300      	movs	r3, #0
    2182:	1c05      	adds	r5, r0, #0
    2184:	1c08      	adds	r0, r1, #0
    2186:	6023      	str	r3, [r4, #0]
    2188:	f7fe fe02 	bl	d90 <_sbrk>
    218c:	1c43      	adds	r3, r0, #1
    218e:	d103      	bne.n	2198 <_sbrk_r+0x1c>
    2190:	6823      	ldr	r3, [r4, #0]
    2192:	2b00      	cmp	r3, #0
    2194:	d000      	beq.n	2198 <_sbrk_r+0x1c>
    2196:	602b      	str	r3, [r5, #0]
    2198:	bd38      	pop	{r3, r4, r5, pc}
    219a:	46c0      	nop			; (mov r8, r8)
    219c:	10000298 	.word	0x10000298

000021a0 <siscanf>:
    21a0:	b40e      	push	{r1, r2, r3}
    21a2:	b530      	push	{r4, r5, lr}
    21a4:	b09c      	sub	sp, #112	; 0x70
    21a6:	ad1f      	add	r5, sp, #124	; 0x7c
    21a8:	cd08      	ldmia	r5!, {r3}
    21aa:	2381      	movs	r3, #129	; 0x81
    21ac:	ac02      	add	r4, sp, #8
    21ae:	009b      	lsls	r3, r3, #2
    21b0:	81a3      	strh	r3, [r4, #12]
    21b2:	9002      	str	r0, [sp, #8]
    21b4:	9006      	str	r0, [sp, #24]
    21b6:	f000 f873 	bl	22a0 <strlen>
    21ba:	4b0b      	ldr	r3, [pc, #44]	; (21e8 <siscanf+0x48>)
    21bc:	6060      	str	r0, [r4, #4]
    21be:	6263      	str	r3, [r4, #36]	; 0x24
    21c0:	2300      	movs	r3, #0
    21c2:	6363      	str	r3, [r4, #52]	; 0x34
    21c4:	64a3      	str	r3, [r4, #72]	; 0x48
    21c6:	2301      	movs	r3, #1
    21c8:	425b      	negs	r3, r3
    21ca:	81e3      	strh	r3, [r4, #14]
    21cc:	4b07      	ldr	r3, [pc, #28]	; (21ec <siscanf+0x4c>)
    21ce:	6160      	str	r0, [r4, #20]
    21d0:	1c21      	adds	r1, r4, #0
    21d2:	6818      	ldr	r0, [r3, #0]
    21d4:	9a1f      	ldr	r2, [sp, #124]	; 0x7c
    21d6:	1c2b      	adds	r3, r5, #0
    21d8:	9501      	str	r5, [sp, #4]
    21da:	f000 f8ef 	bl	23bc <__ssvfiscanf_r>
    21de:	b01c      	add	sp, #112	; 0x70
    21e0:	bc30      	pop	{r4, r5}
    21e2:	bc08      	pop	{r3}
    21e4:	b003      	add	sp, #12
    21e6:	4718      	bx	r3
    21e8:	00002219 	.word	0x00002219
    21ec:	10000130 	.word	0x10000130

000021f0 <__sread>:
    21f0:	b538      	push	{r3, r4, r5, lr}
    21f2:	1c0c      	adds	r4, r1, #0
    21f4:	250e      	movs	r5, #14
    21f6:	5f49      	ldrsh	r1, [r1, r5]
    21f8:	f001 fa24 	bl	3644 <_read_r>
    21fc:	2800      	cmp	r0, #0
    21fe:	db03      	blt.n	2208 <__sread+0x18>
    2200:	6d62      	ldr	r2, [r4, #84]	; 0x54
    2202:	1813      	adds	r3, r2, r0
    2204:	6563      	str	r3, [r4, #84]	; 0x54
    2206:	e003      	b.n	2210 <__sread+0x20>
    2208:	89a2      	ldrh	r2, [r4, #12]
    220a:	4b02      	ldr	r3, [pc, #8]	; (2214 <__sread+0x24>)
    220c:	4013      	ands	r3, r2
    220e:	81a3      	strh	r3, [r4, #12]
    2210:	bd38      	pop	{r3, r4, r5, pc}
    2212:	46c0      	nop			; (mov r8, r8)
    2214:	ffffefff 	.word	0xffffefff

00002218 <__seofread>:
    2218:	2000      	movs	r0, #0
    221a:	4770      	bx	lr

0000221c <__swrite>:
    221c:	b5f8      	push	{r3, r4, r5, r6, r7, lr}
    221e:	1c1e      	adds	r6, r3, #0
    2220:	898b      	ldrh	r3, [r1, #12]
    2222:	1c05      	adds	r5, r0, #0
    2224:	1c0c      	adds	r4, r1, #0
    2226:	1c17      	adds	r7, r2, #0
    2228:	05da      	lsls	r2, r3, #23
    222a:	d505      	bpl.n	2238 <__swrite+0x1c>
    222c:	230e      	movs	r3, #14
    222e:	5ec9      	ldrsh	r1, [r1, r3]
    2230:	2200      	movs	r2, #0
    2232:	2302      	movs	r3, #2
    2234:	f001 f9c0 	bl	35b8 <_lseek_r>
    2238:	89a2      	ldrh	r2, [r4, #12]
    223a:	4b05      	ldr	r3, [pc, #20]	; (2250 <__swrite+0x34>)
    223c:	1c28      	adds	r0, r5, #0
    223e:	4013      	ands	r3, r2
    2240:	81a3      	strh	r3, [r4, #12]
    2242:	220e      	movs	r2, #14
    2244:	5ea1      	ldrsh	r1, [r4, r2]
    2246:	1c33      	adds	r3, r6, #0
    2248:	1c3a      	adds	r2, r7, #0
    224a:	f001 f8c1 	bl	33d0 <_write_r>
    224e:	bdf8      	pop	{r3, r4, r5, r6, r7, pc}
    2250:	ffffefff 	.word	0xffffefff

00002254 <__sseek>:
    2254:	b538      	push	{r3, r4, r5, lr}
    2256:	1c0c      	adds	r4, r1, #0
    2258:	250e      	movs	r5, #14
    225a:	5f49      	ldrsh	r1, [r1, r5]
    225c:	f001 f9ac 	bl	35b8 <_lseek_r>
    2260:	89a3      	ldrh	r3, [r4, #12]
    2262:	1c42      	adds	r2, r0, #1
    2264:	d103      	bne.n	226e <__sseek+0x1a>
    2266:	4a05      	ldr	r2, [pc, #20]	; (227c <__sseek+0x28>)
    2268:	4013      	ands	r3, r2
    226a:	81a3      	strh	r3, [r4, #12]
    226c:	e004      	b.n	2278 <__sseek+0x24>
    226e:	2280      	movs	r2, #128	; 0x80
    2270:	0152      	lsls	r2, r2, #5
    2272:	4313      	orrs	r3, r2
    2274:	81a3      	strh	r3, [r4, #12]
    2276:	6560      	str	r0, [r4, #84]	; 0x54
    2278:	bd38      	pop	{r3, r4, r5, pc}
    227a:	46c0      	nop			; (mov r8, r8)
    227c:	ffffefff 	.word	0xffffefff

00002280 <__sclose>:
    2280:	b508      	push	{r3, lr}
    2282:	230e      	movs	r3, #14
    2284:	5ec9      	ldrsh	r1, [r1, r3]
    2286:	f001 f929 	bl	34dc <_close_r>
    228a:	bd08      	pop	{r3, pc}

0000228c <strcmp>:
    228c:	7802      	ldrb	r2, [r0, #0]
    228e:	780b      	ldrb	r3, [r1, #0]
    2290:	3001      	adds	r0, #1
    2292:	3101      	adds	r1, #1
    2294:	2a00      	cmp	r2, #0
    2296:	d001      	beq.n	229c <strcmp+0x10>
    2298:	429a      	cmp	r2, r3
    229a:	d0f7      	beq.n	228c <strcmp>
    229c:	1ad0      	subs	r0, r2, r3
    229e:	4770      	bx	lr

000022a0 <strlen>:
    22a0:	2300      	movs	r3, #0
    22a2:	5cc2      	ldrb	r2, [r0, r3]
    22a4:	3301      	adds	r3, #1
    22a6:	2a00      	cmp	r2, #0
    22a8:	d1fb      	bne.n	22a2 <strlen+0x2>
    22aa:	1e58      	subs	r0, r3, #1
    22ac:	4770      	bx	lr

000022ae <strncmp>:
    22ae:	1c03      	adds	r3, r0, #0
    22b0:	2000      	movs	r0, #0
    22b2:	b510      	push	{r4, lr}
    22b4:	4282      	cmp	r2, r0
    22b6:	d00f      	beq.n	22d8 <strncmp+0x2a>
    22b8:	781c      	ldrb	r4, [r3, #0]
    22ba:	7808      	ldrb	r0, [r1, #0]
    22bc:	42a0      	cmp	r0, r4
    22be:	d101      	bne.n	22c4 <strncmp+0x16>
    22c0:	2a01      	cmp	r2, #1
    22c2:	d103      	bne.n	22cc <strncmp+0x1e>
    22c4:	7818      	ldrb	r0, [r3, #0]
    22c6:	780b      	ldrb	r3, [r1, #0]
    22c8:	1ac0      	subs	r0, r0, r3
    22ca:	e005      	b.n	22d8 <strncmp+0x2a>
    22cc:	3a01      	subs	r2, #1
    22ce:	2800      	cmp	r0, #0
    22d0:	d0f8      	beq.n	22c4 <strncmp+0x16>
    22d2:	3301      	adds	r3, #1
    22d4:	3101      	adds	r1, #1
    22d6:	e7ef      	b.n	22b8 <strncmp+0xa>
    22d8:	bd10      	pop	{r4, pc}

000022da <strncpy>:
    22da:	b530      	push	{r4, r5, lr}
    22dc:	1c03      	adds	r3, r0, #0
    22de:	2a00      	cmp	r2, #0
    22e0:	d007      	beq.n	22f2 <strncpy+0x18>
    22e2:	780c      	ldrb	r4, [r1, #0]
    22e4:	3301      	adds	r3, #1
    22e6:	1e5d      	subs	r5, r3, #1
    22e8:	3a01      	subs	r2, #1
    22ea:	702c      	strb	r4, [r5, #0]
    22ec:	3101      	adds	r1, #1
    22ee:	2c00      	cmp	r4, #0
    22f0:	d1f5      	bne.n	22de <strncpy+0x4>
    22f2:	189a      	adds	r2, r3, r2
    22f4:	4293      	cmp	r3, r2
    22f6:	d003      	beq.n	2300 <strncpy+0x26>
    22f8:	2100      	movs	r1, #0
    22fa:	7019      	strb	r1, [r3, #0]
    22fc:	3301      	adds	r3, #1
    22fe:	e7f9      	b.n	22f4 <strncpy+0x1a>
    2300:	bd30      	pop	{r4, r5, pc}

00002302 <_sungetc_r>:
    2302:	b538      	push	{r3, r4, r5, lr}
    2304:	1c14      	adds	r4, r2, #0
    2306:	1c4b      	adds	r3, r1, #1
    2308:	d102      	bne.n	2310 <_sungetc_r+0xe>
    230a:	2001      	movs	r0, #1
    230c:	4240      	negs	r0, r0
    230e:	e034      	b.n	237a <_sungetc_r+0x78>
    2310:	8993      	ldrh	r3, [r2, #12]
    2312:	2220      	movs	r2, #32
    2314:	4393      	bics	r3, r2
    2316:	81a3      	strh	r3, [r4, #12]
    2318:	6b63      	ldr	r3, [r4, #52]	; 0x34
    231a:	b2cd      	uxtb	r5, r1
    231c:	6862      	ldr	r2, [r4, #4]
    231e:	2b00      	cmp	r3, #0
    2320:	d00f      	beq.n	2342 <_sungetc_r+0x40>
    2322:	6ba3      	ldr	r3, [r4, #56]	; 0x38
    2324:	429a      	cmp	r2, r3
    2326:	da06      	bge.n	2336 <_sungetc_r+0x34>
    2328:	6823      	ldr	r3, [r4, #0]
    232a:	3b01      	subs	r3, #1
    232c:	6023      	str	r3, [r4, #0]
    232e:	701d      	strb	r5, [r3, #0]
    2330:	6863      	ldr	r3, [r4, #4]
    2332:	3301      	adds	r3, #1
    2334:	e01f      	b.n	2376 <_sungetc_r+0x74>
    2336:	1c21      	adds	r1, r4, #0
    2338:	f000 f998 	bl	266c <__submore>
    233c:	2800      	cmp	r0, #0
    233e:	d0f3      	beq.n	2328 <_sungetc_r+0x26>
    2340:	e7e3      	b.n	230a <_sungetc_r+0x8>
    2342:	6921      	ldr	r1, [r4, #16]
    2344:	6823      	ldr	r3, [r4, #0]
    2346:	2900      	cmp	r1, #0
    2348:	d009      	beq.n	235e <_sungetc_r+0x5c>
    234a:	428b      	cmp	r3, r1
    234c:	d907      	bls.n	235e <_sungetc_r+0x5c>
    234e:	1e59      	subs	r1, r3, #1
    2350:	7808      	ldrb	r0, [r1, #0]
    2352:	42a8      	cmp	r0, r5
    2354:	d103      	bne.n	235e <_sungetc_r+0x5c>
    2356:	3201      	adds	r2, #1
    2358:	6021      	str	r1, [r4, #0]
    235a:	6062      	str	r2, [r4, #4]
    235c:	e00d      	b.n	237a <_sungetc_r+0x78>
    235e:	63e3      	str	r3, [r4, #60]	; 0x3c
    2360:	1c23      	adds	r3, r4, #0
    2362:	3344      	adds	r3, #68	; 0x44
    2364:	6363      	str	r3, [r4, #52]	; 0x34
    2366:	2303      	movs	r3, #3
    2368:	63a3      	str	r3, [r4, #56]	; 0x38
    236a:	1c23      	adds	r3, r4, #0
    236c:	3346      	adds	r3, #70	; 0x46
    236e:	6422      	str	r2, [r4, #64]	; 0x40
    2370:	701d      	strb	r5, [r3, #0]
    2372:	6023      	str	r3, [r4, #0]
    2374:	2301      	movs	r3, #1
    2376:	6063      	str	r3, [r4, #4]
    2378:	1c28      	adds	r0, r5, #0
    237a:	bd38      	pop	{r3, r4, r5, pc}

0000237c <__ssrefill_r>:
    237c:	b510      	push	{r4, lr}
    237e:	1c0c      	adds	r4, r1, #0
    2380:	6b49      	ldr	r1, [r1, #52]	; 0x34
    2382:	2900      	cmp	r1, #0
    2384:	d00e      	beq.n	23a4 <__ssrefill_r+0x28>
    2386:	1c23      	adds	r3, r4, #0
    2388:	3344      	adds	r3, #68	; 0x44
    238a:	4299      	cmp	r1, r3
    238c:	d001      	beq.n	2392 <__ssrefill_r+0x16>
    238e:	f7ff fdbf 	bl	1f10 <_free_r>
    2392:	6c23      	ldr	r3, [r4, #64]	; 0x40
    2394:	2000      	movs	r0, #0
    2396:	6360      	str	r0, [r4, #52]	; 0x34
    2398:	6063      	str	r3, [r4, #4]
    239a:	4283      	cmp	r3, r0
    239c:	d002      	beq.n	23a4 <__ssrefill_r+0x28>
    239e:	6be3      	ldr	r3, [r4, #60]	; 0x3c
    23a0:	6023      	str	r3, [r4, #0]
    23a2:	e009      	b.n	23b8 <__ssrefill_r+0x3c>
    23a4:	6923      	ldr	r3, [r4, #16]
    23a6:	2220      	movs	r2, #32
    23a8:	6023      	str	r3, [r4, #0]
    23aa:	2300      	movs	r3, #0
    23ac:	6063      	str	r3, [r4, #4]
    23ae:	89a3      	ldrh	r3, [r4, #12]
    23b0:	2001      	movs	r0, #1
    23b2:	4313      	orrs	r3, r2
    23b4:	81a3      	strh	r3, [r4, #12]
    23b6:	4240      	negs	r0, r0
    23b8:	bd10      	pop	{r4, pc}
	...

000023bc <__ssvfiscanf_r>:
    23bc:	b5f0      	push	{r4, r5, r6, r7, lr}
    23be:	4ca5      	ldr	r4, [pc, #660]	; (2654 <__ssvfiscanf_r+0x298>)
    23c0:	1c07      	adds	r7, r0, #0
    23c2:	44a5      	add	sp, r4
    23c4:	9301      	str	r3, [sp, #4]
    23c6:	2300      	movs	r3, #0
    23c8:	9200      	str	r2, [sp, #0]
    23ca:	9346      	str	r3, [sp, #280]	; 0x118
    23cc:	4aa2      	ldr	r2, [pc, #648]	; (2658 <__ssvfiscanf_r+0x29c>)
    23ce:	9347      	str	r3, [sp, #284]	; 0x11c
    23d0:	23be      	movs	r3, #190	; 0xbe
    23d2:	005b      	lsls	r3, r3, #1
    23d4:	1c0c      	adds	r4, r1, #0
    23d6:	a943      	add	r1, sp, #268	; 0x10c
    23d8:	50ca      	str	r2, [r1, r3]
    23da:	4aa0      	ldr	r2, [pc, #640]	; (265c <__ssvfiscanf_r+0x2a0>)
    23dc:	23c0      	movs	r3, #192	; 0xc0
    23de:	a803      	add	r0, sp, #12
    23e0:	005b      	lsls	r3, r3, #1
    23e2:	9048      	str	r0, [sp, #288]	; 0x120
    23e4:	50ca      	str	r2, [r1, r3]
    23e6:	9a00      	ldr	r2, [sp, #0]
    23e8:	7815      	ldrb	r5, [r2, #0]
    23ea:	2d00      	cmp	r5, #0
    23ec:	d100      	bne.n	23f0 <__ssvfiscanf_r+0x34>
    23ee:	e128      	b.n	2642 <__ssvfiscanf_r+0x286>
    23f0:	4e9b      	ldr	r6, [pc, #620]	; (2660 <__ssvfiscanf_r+0x2a4>)
    23f2:	6830      	ldr	r0, [r6, #0]
    23f4:	1943      	adds	r3, r0, r5
    23f6:	785a      	ldrb	r2, [r3, #1]
    23f8:	2308      	movs	r3, #8
    23fa:	4013      	ands	r3, r2
    23fc:	d01f      	beq.n	243e <__ssvfiscanf_r+0x82>
    23fe:	6861      	ldr	r1, [r4, #4]
    2400:	2900      	cmp	r1, #0
    2402:	dd0f      	ble.n	2424 <__ssvfiscanf_r+0x68>
    2404:	6823      	ldr	r3, [r4, #0]
    2406:	6830      	ldr	r0, [r6, #0]
    2408:	781a      	ldrb	r2, [r3, #0]
    240a:	1882      	adds	r2, r0, r2
    240c:	7852      	ldrb	r2, [r2, #1]
    240e:	0711      	lsls	r1, r2, #28
    2410:	d511      	bpl.n	2436 <__ssvfiscanf_r+0x7a>
    2412:	9a47      	ldr	r2, [sp, #284]	; 0x11c
    2414:	3301      	adds	r3, #1
    2416:	3201      	adds	r2, #1
    2418:	9247      	str	r2, [sp, #284]	; 0x11c
    241a:	6862      	ldr	r2, [r4, #4]
    241c:	6023      	str	r3, [r4, #0]
    241e:	3a01      	subs	r2, #1
    2420:	6062      	str	r2, [r4, #4]
    2422:	e7ec      	b.n	23fe <__ssvfiscanf_r+0x42>
    2424:	23c0      	movs	r3, #192	; 0xc0
    2426:	005b      	lsls	r3, r3, #1
    2428:	aa43      	add	r2, sp, #268	; 0x10c
    242a:	58d3      	ldr	r3, [r2, r3]
    242c:	1c38      	adds	r0, r7, #0
    242e:	1c21      	adds	r1, r4, #0
    2430:	4798      	blx	r3
    2432:	2800      	cmp	r0, #0
    2434:	d0e6      	beq.n	2404 <__ssvfiscanf_r+0x48>
    2436:	9e00      	ldr	r6, [sp, #0]
    2438:	3601      	adds	r6, #1
    243a:	9600      	str	r6, [sp, #0]
    243c:	e7d3      	b.n	23e6 <__ssvfiscanf_r+0x2a>
    243e:	9e00      	ldr	r6, [sp, #0]
    2440:	3601      	adds	r6, #1
    2442:	2d25      	cmp	r5, #37	; 0x25
    2444:	d14c      	bne.n	24e0 <__ssvfiscanf_r+0x124>
    2446:	9800      	ldr	r0, [sp, #0]
    2448:	9345      	str	r3, [sp, #276]	; 0x114
    244a:	9343      	str	r3, [sp, #268]	; 0x10c
    244c:	7843      	ldrb	r3, [r0, #1]
    244e:	2b2a      	cmp	r3, #42	; 0x2a
    2450:	d103      	bne.n	245a <__ssvfiscanf_r+0x9e>
    2452:	2310      	movs	r3, #16
    2454:	1c06      	adds	r6, r0, #0
    2456:	9343      	str	r3, [sp, #268]	; 0x10c
    2458:	3602      	adds	r6, #2
    245a:	1c35      	adds	r5, r6, #0
    245c:	7829      	ldrb	r1, [r5, #0]
    245e:	1c0b      	adds	r3, r1, #0
    2460:	3b30      	subs	r3, #48	; 0x30
    2462:	2b09      	cmp	r3, #9
    2464:	d807      	bhi.n	2476 <__ssvfiscanf_r+0xba>
    2466:	9a45      	ldr	r2, [sp, #276]	; 0x114
    2468:	230a      	movs	r3, #10
    246a:	4353      	muls	r3, r2
    246c:	3b30      	subs	r3, #48	; 0x30
    246e:	1859      	adds	r1, r3, r1
    2470:	9145      	str	r1, [sp, #276]	; 0x114
    2472:	3501      	adds	r5, #1
    2474:	e7f2      	b.n	245c <__ssvfiscanf_r+0xa0>
    2476:	4e7b      	ldr	r6, [pc, #492]	; (2664 <__ssvfiscanf_r+0x2a8>)
    2478:	2203      	movs	r2, #3
    247a:	1c30      	adds	r0, r6, #0
    247c:	f001 f8b0 	bl	35e0 <memchr>
    2480:	2800      	cmp	r0, #0
    2482:	d006      	beq.n	2492 <__ssvfiscanf_r+0xd6>
    2484:	1b86      	subs	r6, r0, r6
    2486:	9b43      	ldr	r3, [sp, #268]	; 0x10c
    2488:	2001      	movs	r0, #1
    248a:	40b0      	lsls	r0, r6
    248c:	4318      	orrs	r0, r3
    248e:	9043      	str	r0, [sp, #268]	; 0x10c
    2490:	3501      	adds	r5, #1
    2492:	1c6e      	adds	r6, r5, #1
    2494:	782d      	ldrb	r5, [r5, #0]
    2496:	2d67      	cmp	r5, #103	; 0x67
    2498:	d80f      	bhi.n	24ba <__ssvfiscanf_r+0xfe>
    249a:	2d65      	cmp	r5, #101	; 0x65
    249c:	d277      	bcs.n	258e <__ssvfiscanf_r+0x1d2>
    249e:	2d5b      	cmp	r5, #91	; 0x5b
    24a0:	d051      	beq.n	2546 <__ssvfiscanf_r+0x18a>
    24a2:	d805      	bhi.n	24b0 <__ssvfiscanf_r+0xf4>
    24a4:	2d00      	cmp	r5, #0
    24a6:	d100      	bne.n	24aa <__ssvfiscanf_r+0xee>
    24a8:	e0cd      	b.n	2646 <__ssvfiscanf_r+0x28a>
    24aa:	2d25      	cmp	r5, #37	; 0x25
    24ac:	d018      	beq.n	24e0 <__ssvfiscanf_r+0x124>
    24ae:	e070      	b.n	2592 <__ssvfiscanf_r+0x1d6>
    24b0:	2d63      	cmp	r5, #99	; 0x63
    24b2:	d054      	beq.n	255e <__ssvfiscanf_r+0x1a2>
    24b4:	2d64      	cmp	r5, #100	; 0x64
    24b6:	d03d      	beq.n	2534 <__ssvfiscanf_r+0x178>
    24b8:	e06b      	b.n	2592 <__ssvfiscanf_r+0x1d6>
    24ba:	2d70      	cmp	r5, #112	; 0x70
    24bc:	d02f      	beq.n	251e <__ssvfiscanf_r+0x162>
    24be:	d807      	bhi.n	24d0 <__ssvfiscanf_r+0x114>
    24c0:	2d6e      	cmp	r5, #110	; 0x6e
    24c2:	d052      	beq.n	256a <__ssvfiscanf_r+0x1ae>
    24c4:	d838      	bhi.n	2538 <__ssvfiscanf_r+0x17c>
    24c6:	2d69      	cmp	r5, #105	; 0x69
    24c8:	d163      	bne.n	2592 <__ssvfiscanf_r+0x1d6>
    24ca:	2300      	movs	r3, #0
    24cc:	9344      	str	r3, [sp, #272]	; 0x110
    24ce:	e038      	b.n	2542 <__ssvfiscanf_r+0x186>
    24d0:	2d75      	cmp	r5, #117	; 0x75
    24d2:	d02f      	beq.n	2534 <__ssvfiscanf_r+0x178>
    24d4:	2d78      	cmp	r5, #120	; 0x78
    24d6:	d026      	beq.n	2526 <__ssvfiscanf_r+0x16a>
    24d8:	2d73      	cmp	r5, #115	; 0x73
    24da:	d15a      	bne.n	2592 <__ssvfiscanf_r+0x1d6>
    24dc:	2302      	movs	r3, #2
    24de:	e03c      	b.n	255a <__ssvfiscanf_r+0x19e>
    24e0:	6860      	ldr	r0, [r4, #4]
    24e2:	2800      	cmp	r0, #0
    24e4:	dd0d      	ble.n	2502 <__ssvfiscanf_r+0x146>
    24e6:	6823      	ldr	r3, [r4, #0]
    24e8:	781a      	ldrb	r2, [r3, #0]
    24ea:	42aa      	cmp	r2, r5
    24ec:	d000      	beq.n	24f0 <__ssvfiscanf_r+0x134>
    24ee:	e0a8      	b.n	2642 <__ssvfiscanf_r+0x286>
    24f0:	3301      	adds	r3, #1
    24f2:	6862      	ldr	r2, [r4, #4]
    24f4:	6023      	str	r3, [r4, #0]
    24f6:	9b47      	ldr	r3, [sp, #284]	; 0x11c
    24f8:	3a01      	subs	r2, #1
    24fa:	3301      	adds	r3, #1
    24fc:	6062      	str	r2, [r4, #4]
    24fe:	9347      	str	r3, [sp, #284]	; 0x11c
    2500:	e79b      	b.n	243a <__ssvfiscanf_r+0x7e>
    2502:	23c0      	movs	r3, #192	; 0xc0
    2504:	a943      	add	r1, sp, #268	; 0x10c
    2506:	005b      	lsls	r3, r3, #1
    2508:	58cb      	ldr	r3, [r1, r3]
    250a:	1c38      	adds	r0, r7, #0
    250c:	1c21      	adds	r1, r4, #0
    250e:	4798      	blx	r3
    2510:	2800      	cmp	r0, #0
    2512:	d0e8      	beq.n	24e6 <__ssvfiscanf_r+0x12a>
    2514:	9846      	ldr	r0, [sp, #280]	; 0x118
    2516:	2800      	cmp	r0, #0
    2518:	d000      	beq.n	251c <__ssvfiscanf_r+0x160>
    251a:	e08e      	b.n	263a <__ssvfiscanf_r+0x27e>
    251c:	e093      	b.n	2646 <__ssvfiscanf_r+0x28a>
    251e:	9a43      	ldr	r2, [sp, #268]	; 0x10c
    2520:	2320      	movs	r3, #32
    2522:	4313      	orrs	r3, r2
    2524:	9343      	str	r3, [sp, #268]	; 0x10c
    2526:	9843      	ldr	r0, [sp, #268]	; 0x10c
    2528:	2380      	movs	r3, #128	; 0x80
    252a:	009b      	lsls	r3, r3, #2
    252c:	4303      	orrs	r3, r0
    252e:	9343      	str	r3, [sp, #268]	; 0x10c
    2530:	2310      	movs	r3, #16
    2532:	e002      	b.n	253a <__ssvfiscanf_r+0x17e>
    2534:	230a      	movs	r3, #10
    2536:	e000      	b.n	253a <__ssvfiscanf_r+0x17e>
    2538:	2308      	movs	r3, #8
    253a:	9344      	str	r3, [sp, #272]	; 0x110
    253c:	2304      	movs	r3, #4
    253e:	2d6e      	cmp	r5, #110	; 0x6e
    2540:	dc0b      	bgt.n	255a <__ssvfiscanf_r+0x19e>
    2542:	2303      	movs	r3, #3
    2544:	e009      	b.n	255a <__ssvfiscanf_r+0x19e>
    2546:	1c31      	adds	r1, r6, #0
    2548:	a803      	add	r0, sp, #12
    254a:	f001 f923 	bl	3794 <__sccl>
    254e:	9943      	ldr	r1, [sp, #268]	; 0x10c
    2550:	2340      	movs	r3, #64	; 0x40
    2552:	430b      	orrs	r3, r1
    2554:	9343      	str	r3, [sp, #268]	; 0x10c
    2556:	1c06      	adds	r6, r0, #0
    2558:	2301      	movs	r3, #1
    255a:	9349      	str	r3, [sp, #292]	; 0x124
    255c:	e01d      	b.n	259a <__ssvfiscanf_r+0x1de>
    255e:	9a43      	ldr	r2, [sp, #268]	; 0x10c
    2560:	2340      	movs	r3, #64	; 0x40
    2562:	4313      	orrs	r3, r2
    2564:	9343      	str	r3, [sp, #268]	; 0x10c
    2566:	2300      	movs	r3, #0
    2568:	e7f7      	b.n	255a <__ssvfiscanf_r+0x19e>
    256a:	9943      	ldr	r1, [sp, #268]	; 0x10c
    256c:	06cb      	lsls	r3, r1, #27
    256e:	d500      	bpl.n	2572 <__ssvfiscanf_r+0x1b6>
    2570:	e763      	b.n	243a <__ssvfiscanf_r+0x7e>
    2572:	9b01      	ldr	r3, [sp, #4]
    2574:	9a47      	ldr	r2, [sp, #284]	; 0x11c
    2576:	07c8      	lsls	r0, r1, #31
    2578:	d504      	bpl.n	2584 <__ssvfiscanf_r+0x1c8>
    257a:	1d19      	adds	r1, r3, #4
    257c:	9101      	str	r1, [sp, #4]
    257e:	681b      	ldr	r3, [r3, #0]
    2580:	801a      	strh	r2, [r3, #0]
    2582:	e75a      	b.n	243a <__ssvfiscanf_r+0x7e>
    2584:	1d19      	adds	r1, r3, #4
    2586:	9101      	str	r1, [sp, #4]
    2588:	681b      	ldr	r3, [r3, #0]
    258a:	601a      	str	r2, [r3, #0]
    258c:	e755      	b.n	243a <__ssvfiscanf_r+0x7e>
    258e:	2305      	movs	r3, #5
    2590:	e7e3      	b.n	255a <__ssvfiscanf_r+0x19e>
    2592:	2303      	movs	r3, #3
    2594:	9349      	str	r3, [sp, #292]	; 0x124
    2596:	230a      	movs	r3, #10
    2598:	9344      	str	r3, [sp, #272]	; 0x110
    259a:	6861      	ldr	r1, [r4, #4]
    259c:	2900      	cmp	r1, #0
    259e:	dd03      	ble.n	25a8 <__ssvfiscanf_r+0x1ec>
    25a0:	9a43      	ldr	r2, [sp, #268]	; 0x10c
    25a2:	0652      	lsls	r2, r2, #25
    25a4:	d514      	bpl.n	25d0 <__ssvfiscanf_r+0x214>
    25a6:	e01b      	b.n	25e0 <__ssvfiscanf_r+0x224>
    25a8:	23c0      	movs	r3, #192	; 0xc0
    25aa:	a843      	add	r0, sp, #268	; 0x10c
    25ac:	005b      	lsls	r3, r3, #1
    25ae:	58c3      	ldr	r3, [r0, r3]
    25b0:	1c21      	adds	r1, r4, #0
    25b2:	1c38      	adds	r0, r7, #0
    25b4:	4798      	blx	r3
    25b6:	2800      	cmp	r0, #0
    25b8:	d0f2      	beq.n	25a0 <__ssvfiscanf_r+0x1e4>
    25ba:	e7ab      	b.n	2514 <__ssvfiscanf_r+0x158>
    25bc:	9a47      	ldr	r2, [sp, #284]	; 0x11c
    25be:	3201      	adds	r2, #1
    25c0:	9247      	str	r2, [sp, #284]	; 0x11c
    25c2:	6862      	ldr	r2, [r4, #4]
    25c4:	3a01      	subs	r2, #1
    25c6:	6062      	str	r2, [r4, #4]
    25c8:	2a00      	cmp	r2, #0
    25ca:	dd13      	ble.n	25f4 <__ssvfiscanf_r+0x238>
    25cc:	3301      	adds	r3, #1
    25ce:	6023      	str	r3, [r4, #0]
    25d0:	6823      	ldr	r3, [r4, #0]
    25d2:	4923      	ldr	r1, [pc, #140]	; (2660 <__ssvfiscanf_r+0x2a4>)
    25d4:	781a      	ldrb	r2, [r3, #0]
    25d6:	6809      	ldr	r1, [r1, #0]
    25d8:	188a      	adds	r2, r1, r2
    25da:	7852      	ldrb	r2, [r2, #1]
    25dc:	0710      	lsls	r0, r2, #28
    25de:	d4ed      	bmi.n	25bc <__ssvfiscanf_r+0x200>
    25e0:	9b49      	ldr	r3, [sp, #292]	; 0x124
    25e2:	2b02      	cmp	r3, #2
    25e4:	dc10      	bgt.n	2608 <__ssvfiscanf_r+0x24c>
    25e6:	1c38      	adds	r0, r7, #0
    25e8:	a943      	add	r1, sp, #268	; 0x10c
    25ea:	1c22      	adds	r2, r4, #0
    25ec:	ab01      	add	r3, sp, #4
    25ee:	f000 fd35 	bl	305c <_scanf_chars>
    25f2:	e01c      	b.n	262e <__ssvfiscanf_r+0x272>
    25f4:	23c0      	movs	r3, #192	; 0xc0
    25f6:	a943      	add	r1, sp, #268	; 0x10c
    25f8:	005b      	lsls	r3, r3, #1
    25fa:	58cb      	ldr	r3, [r1, r3]
    25fc:	1c38      	adds	r0, r7, #0
    25fe:	1c21      	adds	r1, r4, #0
    2600:	4798      	blx	r3
    2602:	2800      	cmp	r0, #0
    2604:	d0e4      	beq.n	25d0 <__ssvfiscanf_r+0x214>
    2606:	e785      	b.n	2514 <__ssvfiscanf_r+0x158>
    2608:	2b04      	cmp	r3, #4
    260a:	dc06      	bgt.n	261a <__ssvfiscanf_r+0x25e>
    260c:	1c38      	adds	r0, r7, #0
    260e:	a943      	add	r1, sp, #268	; 0x10c
    2610:	1c22      	adds	r2, r4, #0
    2612:	ab01      	add	r3, sp, #4
    2614:	f000 fd86 	bl	3124 <_scanf_i>
    2618:	e009      	b.n	262e <__ssvfiscanf_r+0x272>
    261a:	4b13      	ldr	r3, [pc, #76]	; (2668 <__ssvfiscanf_r+0x2ac>)
    261c:	2b00      	cmp	r3, #0
    261e:	d100      	bne.n	2622 <__ssvfiscanf_r+0x266>
    2620:	e70b      	b.n	243a <__ssvfiscanf_r+0x7e>
    2622:	1c38      	adds	r0, r7, #0
    2624:	a943      	add	r1, sp, #268	; 0x10c
    2626:	1c22      	adds	r2, r4, #0
    2628:	ab01      	add	r3, sp, #4
    262a:	e000      	b.n	262e <__ssvfiscanf_r+0x272>
    262c:	bf00      	nop
    262e:	2801      	cmp	r0, #1
    2630:	d007      	beq.n	2642 <__ssvfiscanf_r+0x286>
    2632:	2802      	cmp	r0, #2
    2634:	d000      	beq.n	2638 <__ssvfiscanf_r+0x27c>
    2636:	e700      	b.n	243a <__ssvfiscanf_r+0x7e>
    2638:	e76c      	b.n	2514 <__ssvfiscanf_r+0x158>
    263a:	89a3      	ldrh	r3, [r4, #12]
    263c:	0659      	lsls	r1, r3, #25
    263e:	d504      	bpl.n	264a <__ssvfiscanf_r+0x28e>
    2640:	e001      	b.n	2646 <__ssvfiscanf_r+0x28a>
    2642:	9846      	ldr	r0, [sp, #280]	; 0x118
    2644:	e001      	b.n	264a <__ssvfiscanf_r+0x28e>
    2646:	2001      	movs	r0, #1
    2648:	4240      	negs	r0, r0
    264a:	23a5      	movs	r3, #165	; 0xa5
    264c:	009b      	lsls	r3, r3, #2
    264e:	449d      	add	sp, r3
    2650:	bdf0      	pop	{r4, r5, r6, r7, pc}
    2652:	46c0      	nop			; (mov r8, r8)
    2654:	fffffd6c 	.word	0xfffffd6c
    2658:	00002303 	.word	0x00002303
    265c:	0000237d 	.word	0x0000237d
    2660:	10000134 	.word	0x10000134
    2664:	00003fe0 	.word	0x00003fe0
    2668:	00000000 	.word	0x00000000

0000266c <__submore>:
    266c:	b5f7      	push	{r0, r1, r2, r4, r5, r6, r7, lr}
    266e:	1c0b      	adds	r3, r1, #0
    2670:	6b4d      	ldr	r5, [r1, #52]	; 0x34
    2672:	3344      	adds	r3, #68	; 0x44
    2674:	1c0c      	adds	r4, r1, #0
    2676:	429d      	cmp	r5, r3
    2678:	d11b      	bne.n	26b2 <__submore+0x46>
    267a:	2680      	movs	r6, #128	; 0x80
    267c:	00f6      	lsls	r6, r6, #3
    267e:	1c31      	adds	r1, r6, #0
    2680:	f7ff fc8e 	bl	1fa0 <_malloc_r>
    2684:	2800      	cmp	r0, #0
    2686:	d102      	bne.n	268e <__submore+0x22>
    2688:	2001      	movs	r0, #1
    268a:	4240      	negs	r0, r0
    268c:	e025      	b.n	26da <__submore+0x6e>
    268e:	1c23      	adds	r3, r4, #0
    2690:	6360      	str	r0, [r4, #52]	; 0x34
    2692:	63a6      	str	r6, [r4, #56]	; 0x38
    2694:	3346      	adds	r3, #70	; 0x46
    2696:	781a      	ldrb	r2, [r3, #0]
    2698:	4b10      	ldr	r3, [pc, #64]	; (26dc <__submore+0x70>)
    269a:	54c2      	strb	r2, [r0, r3]
    269c:	1c23      	adds	r3, r4, #0
    269e:	3345      	adds	r3, #69	; 0x45
    26a0:	781a      	ldrb	r2, [r3, #0]
    26a2:	4b0f      	ldr	r3, [pc, #60]	; (26e0 <__submore+0x74>)
    26a4:	54c2      	strb	r2, [r0, r3]
    26a6:	782a      	ldrb	r2, [r5, #0]
    26a8:	4b0e      	ldr	r3, [pc, #56]	; (26e4 <__submore+0x78>)
    26aa:	54c2      	strb	r2, [r0, r3]
    26ac:	18c0      	adds	r0, r0, r3
    26ae:	6020      	str	r0, [r4, #0]
    26b0:	e012      	b.n	26d8 <__submore+0x6c>
    26b2:	6b8e      	ldr	r6, [r1, #56]	; 0x38
    26b4:	1c29      	adds	r1, r5, #0
    26b6:	0073      	lsls	r3, r6, #1
    26b8:	1c1a      	adds	r2, r3, #0
    26ba:	9301      	str	r3, [sp, #4]
    26bc:	f000 ff9b 	bl	35f6 <_realloc_r>
    26c0:	1e05      	subs	r5, r0, #0
    26c2:	d0e1      	beq.n	2688 <__submore+0x1c>
    26c4:	1987      	adds	r7, r0, r6
    26c6:	1c38      	adds	r0, r7, #0
    26c8:	1c29      	adds	r1, r5, #0
    26ca:	1c32      	adds	r2, r6, #0
    26cc:	f7ff fc0e 	bl	1eec <memcpy>
    26d0:	9b01      	ldr	r3, [sp, #4]
    26d2:	6027      	str	r7, [r4, #0]
    26d4:	6365      	str	r5, [r4, #52]	; 0x34
    26d6:	63a3      	str	r3, [r4, #56]	; 0x38
    26d8:	2000      	movs	r0, #0
    26da:	bdfe      	pop	{r1, r2, r3, r4, r5, r6, r7, pc}
    26dc:	000003ff 	.word	0x000003ff
    26e0:	000003fe 	.word	0x000003fe
    26e4:	000003fd 	.word	0x000003fd

000026e8 <_ungetc_r>:
    26e8:	b5f8      	push	{r3, r4, r5, r6, r7, lr}
    26ea:	1c05      	adds	r5, r0, #0
    26ec:	1c0e      	adds	r6, r1, #0
    26ee:	1c14      	adds	r4, r2, #0
    26f0:	1c4a      	adds	r2, r1, #1
    26f2:	d102      	bne.n	26fa <_ungetc_r+0x12>
    26f4:	2001      	movs	r0, #1
    26f6:	4240      	negs	r0, r0
    26f8:	e061      	b.n	27be <_ungetc_r+0xd6>
    26fa:	2800      	cmp	r0, #0
    26fc:	d004      	beq.n	2708 <_ungetc_r+0x20>
    26fe:	6983      	ldr	r3, [r0, #24]
    2700:	2b00      	cmp	r3, #0
    2702:	d101      	bne.n	2708 <_ungetc_r+0x20>
    2704:	f7ff f946 	bl	1994 <__sinit>
    2708:	4b2d      	ldr	r3, [pc, #180]	; (27c0 <_ungetc_r+0xd8>)
    270a:	429c      	cmp	r4, r3
    270c:	d101      	bne.n	2712 <_ungetc_r+0x2a>
    270e:	686c      	ldr	r4, [r5, #4]
    2710:	e008      	b.n	2724 <_ungetc_r+0x3c>
    2712:	4b2c      	ldr	r3, [pc, #176]	; (27c4 <_ungetc_r+0xdc>)
    2714:	429c      	cmp	r4, r3
    2716:	d101      	bne.n	271c <_ungetc_r+0x34>
    2718:	68ac      	ldr	r4, [r5, #8]
    271a:	e003      	b.n	2724 <_ungetc_r+0x3c>
    271c:	4b2a      	ldr	r3, [pc, #168]	; (27c8 <_ungetc_r+0xe0>)
    271e:	429c      	cmp	r4, r3
    2720:	d100      	bne.n	2724 <_ungetc_r+0x3c>
    2722:	68ec      	ldr	r4, [r5, #12]
    2724:	89a3      	ldrh	r3, [r4, #12]
    2726:	2220      	movs	r2, #32
    2728:	4393      	bics	r3, r2
    272a:	81a3      	strh	r3, [r4, #12]
    272c:	b29b      	uxth	r3, r3
    272e:	075a      	lsls	r2, r3, #29
    2730:	d413      	bmi.n	275a <_ungetc_r+0x72>
    2732:	06da      	lsls	r2, r3, #27
    2734:	d5de      	bpl.n	26f4 <_ungetc_r+0xc>
    2736:	2708      	movs	r7, #8
    2738:	423b      	tst	r3, r7
    273a:	d00a      	beq.n	2752 <_ungetc_r+0x6a>
    273c:	1c28      	adds	r0, r5, #0
    273e:	1c21      	adds	r1, r4, #0
    2740:	f7ff f894 	bl	186c <_fflush_r>
    2744:	2800      	cmp	r0, #0
    2746:	d1d5      	bne.n	26f4 <_ungetc_r+0xc>
    2748:	89a3      	ldrh	r3, [r4, #12]
    274a:	60a0      	str	r0, [r4, #8]
    274c:	43bb      	bics	r3, r7
    274e:	81a3      	strh	r3, [r4, #12]
    2750:	61a0      	str	r0, [r4, #24]
    2752:	89a3      	ldrh	r3, [r4, #12]
    2754:	2204      	movs	r2, #4
    2756:	4313      	orrs	r3, r2
    2758:	81a3      	strh	r3, [r4, #12]
    275a:	6b63      	ldr	r3, [r4, #52]	; 0x34
    275c:	b2f6      	uxtb	r6, r6
    275e:	6862      	ldr	r2, [r4, #4]
    2760:	2b00      	cmp	r3, #0
    2762:	d010      	beq.n	2786 <_ungetc_r+0x9e>
    2764:	6ba3      	ldr	r3, [r4, #56]	; 0x38
    2766:	429a      	cmp	r2, r3
    2768:	da06      	bge.n	2778 <_ungetc_r+0x90>
    276a:	6823      	ldr	r3, [r4, #0]
    276c:	3b01      	subs	r3, #1
    276e:	6023      	str	r3, [r4, #0]
    2770:	701e      	strb	r6, [r3, #0]
    2772:	6863      	ldr	r3, [r4, #4]
    2774:	3301      	adds	r3, #1
    2776:	e020      	b.n	27ba <_ungetc_r+0xd2>
    2778:	1c28      	adds	r0, r5, #0
    277a:	1c21      	adds	r1, r4, #0
    277c:	f7ff ff76 	bl	266c <__submore>
    2780:	2800      	cmp	r0, #0
    2782:	d0f2      	beq.n	276a <_ungetc_r+0x82>
    2784:	e7b6      	b.n	26f4 <_ungetc_r+0xc>
    2786:	6921      	ldr	r1, [r4, #16]
    2788:	6823      	ldr	r3, [r4, #0]
    278a:	2900      	cmp	r1, #0
    278c:	d009      	beq.n	27a2 <_ungetc_r+0xba>
    278e:	428b      	cmp	r3, r1
    2790:	d907      	bls.n	27a2 <_ungetc_r+0xba>
    2792:	1e59      	subs	r1, r3, #1
    2794:	7808      	ldrb	r0, [r1, #0]
    2796:	42b0      	cmp	r0, r6
    2798:	d103      	bne.n	27a2 <_ungetc_r+0xba>
    279a:	3201      	adds	r2, #1
    279c:	6021      	str	r1, [r4, #0]
    279e:	6062      	str	r2, [r4, #4]
    27a0:	e00d      	b.n	27be <_ungetc_r+0xd6>
    27a2:	63e3      	str	r3, [r4, #60]	; 0x3c
    27a4:	1c23      	adds	r3, r4, #0
    27a6:	3344      	adds	r3, #68	; 0x44
    27a8:	6363      	str	r3, [r4, #52]	; 0x34
    27aa:	2303      	movs	r3, #3
    27ac:	63a3      	str	r3, [r4, #56]	; 0x38
    27ae:	1c23      	adds	r3, r4, #0
    27b0:	3346      	adds	r3, #70	; 0x46
    27b2:	6422      	str	r2, [r4, #64]	; 0x40
    27b4:	701e      	strb	r6, [r3, #0]
    27b6:	6023      	str	r3, [r4, #0]
    27b8:	2301      	movs	r3, #1
    27ba:	6063      	str	r3, [r4, #4]
    27bc:	1c30      	adds	r0, r6, #0
    27be:	bdf8      	pop	{r3, r4, r5, r6, r7, pc}
    27c0:	00003f78 	.word	0x00003f78
    27c4:	00003f98 	.word	0x00003f98
    27c8:	00003fb8 	.word	0x00003fb8

000027cc <__sfputc_r>:
    27cc:	6893      	ldr	r3, [r2, #8]
    27ce:	b510      	push	{r4, lr}
    27d0:	3b01      	subs	r3, #1
    27d2:	6093      	str	r3, [r2, #8]
    27d4:	2b00      	cmp	r3, #0
    27d6:	da05      	bge.n	27e4 <__sfputc_r+0x18>
    27d8:	6994      	ldr	r4, [r2, #24]
    27da:	42a3      	cmp	r3, r4
    27dc:	db08      	blt.n	27f0 <__sfputc_r+0x24>
    27de:	b2cb      	uxtb	r3, r1
    27e0:	2b0a      	cmp	r3, #10
    27e2:	d005      	beq.n	27f0 <__sfputc_r+0x24>
    27e4:	6813      	ldr	r3, [r2, #0]
    27e6:	1c58      	adds	r0, r3, #1
    27e8:	6010      	str	r0, [r2, #0]
    27ea:	7019      	strb	r1, [r3, #0]
    27ec:	b2c8      	uxtb	r0, r1
    27ee:	e001      	b.n	27f4 <__sfputc_r+0x28>
    27f0:	f000 fd96 	bl	3320 <__swbuf_r>
    27f4:	bd10      	pop	{r4, pc}

000027f6 <__sfputs_r>:
    27f6:	b5f8      	push	{r3, r4, r5, r6, r7, lr}
    27f8:	1c06      	adds	r6, r0, #0
    27fa:	1c0f      	adds	r7, r1, #0
    27fc:	1c14      	adds	r4, r2, #0
    27fe:	18d5      	adds	r5, r2, r3
    2800:	42ac      	cmp	r4, r5
    2802:	d008      	beq.n	2816 <__sfputs_r+0x20>
    2804:	7821      	ldrb	r1, [r4, #0]
    2806:	1c30      	adds	r0, r6, #0
    2808:	1c3a      	adds	r2, r7, #0
    280a:	f7ff ffdf 	bl	27cc <__sfputc_r>
    280e:	3401      	adds	r4, #1
    2810:	1c43      	adds	r3, r0, #1
    2812:	d1f5      	bne.n	2800 <__sfputs_r+0xa>
    2814:	e000      	b.n	2818 <__sfputs_r+0x22>
    2816:	2000      	movs	r0, #0
    2818:	bdf8      	pop	{r3, r4, r5, r6, r7, pc}
	...

0000281c <_vfiprintf_r>:
    281c:	b5f0      	push	{r4, r5, r6, r7, lr}
    281e:	b09f      	sub	sp, #124	; 0x7c
    2820:	1c06      	adds	r6, r0, #0
    2822:	1c0f      	adds	r7, r1, #0
    2824:	9203      	str	r2, [sp, #12]
    2826:	9305      	str	r3, [sp, #20]
    2828:	2800      	cmp	r0, #0
    282a:	d004      	beq.n	2836 <_vfiprintf_r+0x1a>
    282c:	6981      	ldr	r1, [r0, #24]
    282e:	2900      	cmp	r1, #0
    2830:	d101      	bne.n	2836 <_vfiprintf_r+0x1a>
    2832:	f7ff f8af 	bl	1994 <__sinit>
    2836:	4b75      	ldr	r3, [pc, #468]	; (2a0c <_vfiprintf_r+0x1f0>)
    2838:	429f      	cmp	r7, r3
    283a:	d101      	bne.n	2840 <_vfiprintf_r+0x24>
    283c:	6877      	ldr	r7, [r6, #4]
    283e:	e008      	b.n	2852 <_vfiprintf_r+0x36>
    2840:	4b73      	ldr	r3, [pc, #460]	; (2a10 <_vfiprintf_r+0x1f4>)
    2842:	429f      	cmp	r7, r3
    2844:	d101      	bne.n	284a <_vfiprintf_r+0x2e>
    2846:	68b7      	ldr	r7, [r6, #8]
    2848:	e003      	b.n	2852 <_vfiprintf_r+0x36>
    284a:	4b72      	ldr	r3, [pc, #456]	; (2a14 <_vfiprintf_r+0x1f8>)
    284c:	429f      	cmp	r7, r3
    284e:	d100      	bne.n	2852 <_vfiprintf_r+0x36>
    2850:	68f7      	ldr	r7, [r6, #12]
    2852:	89bb      	ldrh	r3, [r7, #12]
    2854:	071a      	lsls	r2, r3, #28
    2856:	d50a      	bpl.n	286e <_vfiprintf_r+0x52>
    2858:	693b      	ldr	r3, [r7, #16]
    285a:	2b00      	cmp	r3, #0
    285c:	d007      	beq.n	286e <_vfiprintf_r+0x52>
    285e:	ad06      	add	r5, sp, #24
    2860:	2300      	movs	r3, #0
    2862:	616b      	str	r3, [r5, #20]
    2864:	2320      	movs	r3, #32
    2866:	766b      	strb	r3, [r5, #25]
    2868:	2330      	movs	r3, #48	; 0x30
    286a:	76ab      	strb	r3, [r5, #26]
    286c:	e03b      	b.n	28e6 <_vfiprintf_r+0xca>
    286e:	1c30      	adds	r0, r6, #0
    2870:	1c39      	adds	r1, r7, #0
    2872:	f000 fdc1 	bl	33f8 <__swsetup_r>
    2876:	2800      	cmp	r0, #0
    2878:	d0f1      	beq.n	285e <_vfiprintf_r+0x42>
    287a:	2001      	movs	r0, #1
    287c:	4240      	negs	r0, r0
    287e:	e0c2      	b.n	2a06 <_vfiprintf_r+0x1ea>
    2880:	9a05      	ldr	r2, [sp, #20]
    2882:	1d11      	adds	r1, r2, #4
    2884:	6812      	ldr	r2, [r2, #0]
    2886:	9105      	str	r1, [sp, #20]
    2888:	2a00      	cmp	r2, #0
    288a:	db76      	blt.n	297a <_vfiprintf_r+0x15e>
    288c:	9209      	str	r2, [sp, #36]	; 0x24
    288e:	3401      	adds	r4, #1
    2890:	7823      	ldrb	r3, [r4, #0]
    2892:	2b2e      	cmp	r3, #46	; 0x2e
    2894:	d100      	bne.n	2898 <_vfiprintf_r+0x7c>
    2896:	e081      	b.n	299c <_vfiprintf_r+0x180>
    2898:	7821      	ldrb	r1, [r4, #0]
    289a:	485f      	ldr	r0, [pc, #380]	; (2a18 <_vfiprintf_r+0x1fc>)
    289c:	2203      	movs	r2, #3
    289e:	f000 fe9f 	bl	35e0 <memchr>
    28a2:	2800      	cmp	r0, #0
    28a4:	d007      	beq.n	28b6 <_vfiprintf_r+0x9a>
    28a6:	495c      	ldr	r1, [pc, #368]	; (2a18 <_vfiprintf_r+0x1fc>)
    28a8:	682a      	ldr	r2, [r5, #0]
    28aa:	1a43      	subs	r3, r0, r1
    28ac:	2040      	movs	r0, #64	; 0x40
    28ae:	4098      	lsls	r0, r3
    28b0:	4310      	orrs	r0, r2
    28b2:	6028      	str	r0, [r5, #0]
    28b4:	3401      	adds	r4, #1
    28b6:	7821      	ldrb	r1, [r4, #0]
    28b8:	1c63      	adds	r3, r4, #1
    28ba:	4858      	ldr	r0, [pc, #352]	; (2a1c <_vfiprintf_r+0x200>)
    28bc:	2206      	movs	r2, #6
    28be:	9303      	str	r3, [sp, #12]
    28c0:	7629      	strb	r1, [r5, #24]
    28c2:	f000 fe8d 	bl	35e0 <memchr>
    28c6:	2800      	cmp	r0, #0
    28c8:	d100      	bne.n	28cc <_vfiprintf_r+0xb0>
    28ca:	e08a      	b.n	29e2 <_vfiprintf_r+0x1c6>
    28cc:	4b54      	ldr	r3, [pc, #336]	; (2a20 <_vfiprintf_r+0x204>)
    28ce:	2b00      	cmp	r3, #0
    28d0:	d17e      	bne.n	29d0 <_vfiprintf_r+0x1b4>
    28d2:	9b05      	ldr	r3, [sp, #20]
    28d4:	2207      	movs	r2, #7
    28d6:	3307      	adds	r3, #7
    28d8:	4393      	bics	r3, r2
    28da:	3308      	adds	r3, #8
    28dc:	9305      	str	r3, [sp, #20]
    28de:	696a      	ldr	r2, [r5, #20]
    28e0:	9904      	ldr	r1, [sp, #16]
    28e2:	1853      	adds	r3, r2, r1
    28e4:	616b      	str	r3, [r5, #20]
    28e6:	9c03      	ldr	r4, [sp, #12]
    28e8:	7823      	ldrb	r3, [r4, #0]
    28ea:	2b00      	cmp	r3, #0
    28ec:	d104      	bne.n	28f8 <_vfiprintf_r+0xdc>
    28ee:	9903      	ldr	r1, [sp, #12]
    28f0:	1a61      	subs	r1, r4, r1
    28f2:	9102      	str	r1, [sp, #8]
    28f4:	d010      	beq.n	2918 <_vfiprintf_r+0xfc>
    28f6:	e003      	b.n	2900 <_vfiprintf_r+0xe4>
    28f8:	2b25      	cmp	r3, #37	; 0x25
    28fa:	d0f8      	beq.n	28ee <_vfiprintf_r+0xd2>
    28fc:	3401      	adds	r4, #1
    28fe:	e7f3      	b.n	28e8 <_vfiprintf_r+0xcc>
    2900:	1c30      	adds	r0, r6, #0
    2902:	1c39      	adds	r1, r7, #0
    2904:	9a03      	ldr	r2, [sp, #12]
    2906:	9b02      	ldr	r3, [sp, #8]
    2908:	f7ff ff75 	bl	27f6 <__sfputs_r>
    290c:	3001      	adds	r0, #1
    290e:	d075      	beq.n	29fc <_vfiprintf_r+0x1e0>
    2910:	696a      	ldr	r2, [r5, #20]
    2912:	9902      	ldr	r1, [sp, #8]
    2914:	1853      	adds	r3, r2, r1
    2916:	616b      	str	r3, [r5, #20]
    2918:	7823      	ldrb	r3, [r4, #0]
    291a:	2b00      	cmp	r3, #0
    291c:	d06e      	beq.n	29fc <_vfiprintf_r+0x1e0>
    291e:	2201      	movs	r2, #1
    2920:	4252      	negs	r2, r2
    2922:	606a      	str	r2, [r5, #4]
    2924:	466a      	mov	r2, sp
    2926:	2300      	movs	r3, #0
    2928:	325b      	adds	r2, #91	; 0x5b
    292a:	3401      	adds	r4, #1
    292c:	602b      	str	r3, [r5, #0]
    292e:	60eb      	str	r3, [r5, #12]
    2930:	60ab      	str	r3, [r5, #8]
    2932:	7013      	strb	r3, [r2, #0]
    2934:	65ab      	str	r3, [r5, #88]	; 0x58
    2936:	7821      	ldrb	r1, [r4, #0]
    2938:	483a      	ldr	r0, [pc, #232]	; (2a24 <_vfiprintf_r+0x208>)
    293a:	2205      	movs	r2, #5
    293c:	f000 fe50 	bl	35e0 <memchr>
    2940:	2800      	cmp	r0, #0
    2942:	d008      	beq.n	2956 <_vfiprintf_r+0x13a>
    2944:	4a37      	ldr	r2, [pc, #220]	; (2a24 <_vfiprintf_r+0x208>)
    2946:	3401      	adds	r4, #1
    2948:	1a83      	subs	r3, r0, r2
    294a:	2001      	movs	r0, #1
    294c:	4098      	lsls	r0, r3
    294e:	682b      	ldr	r3, [r5, #0]
    2950:	4318      	orrs	r0, r3
    2952:	6028      	str	r0, [r5, #0]
    2954:	e7ef      	b.n	2936 <_vfiprintf_r+0x11a>
    2956:	682b      	ldr	r3, [r5, #0]
    2958:	06d9      	lsls	r1, r3, #27
    295a:	d503      	bpl.n	2964 <_vfiprintf_r+0x148>
    295c:	466a      	mov	r2, sp
    295e:	2120      	movs	r1, #32
    2960:	325b      	adds	r2, #91	; 0x5b
    2962:	7011      	strb	r1, [r2, #0]
    2964:	071a      	lsls	r2, r3, #28
    2966:	d503      	bpl.n	2970 <_vfiprintf_r+0x154>
    2968:	466a      	mov	r2, sp
    296a:	212b      	movs	r1, #43	; 0x2b
    296c:	325b      	adds	r2, #91	; 0x5b
    296e:	7011      	strb	r1, [r2, #0]
    2970:	7822      	ldrb	r2, [r4, #0]
    2972:	2a2a      	cmp	r2, #42	; 0x2a
    2974:	d084      	beq.n	2880 <_vfiprintf_r+0x64>
    2976:	9b09      	ldr	r3, [sp, #36]	; 0x24
    2978:	e005      	b.n	2986 <_vfiprintf_r+0x16a>
    297a:	4252      	negs	r2, r2
    297c:	60ea      	str	r2, [r5, #12]
    297e:	2202      	movs	r2, #2
    2980:	4313      	orrs	r3, r2
    2982:	602b      	str	r3, [r5, #0]
    2984:	e783      	b.n	288e <_vfiprintf_r+0x72>
    2986:	7822      	ldrb	r2, [r4, #0]
    2988:	3a30      	subs	r2, #48	; 0x30
    298a:	2a09      	cmp	r2, #9
    298c:	d804      	bhi.n	2998 <_vfiprintf_r+0x17c>
    298e:	210a      	movs	r1, #10
    2990:	434b      	muls	r3, r1
    2992:	3401      	adds	r4, #1
    2994:	189b      	adds	r3, r3, r2
    2996:	e7f6      	b.n	2986 <_vfiprintf_r+0x16a>
    2998:	9309      	str	r3, [sp, #36]	; 0x24
    299a:	e779      	b.n	2890 <_vfiprintf_r+0x74>
    299c:	7863      	ldrb	r3, [r4, #1]
    299e:	2b2a      	cmp	r3, #42	; 0x2a
    29a0:	d109      	bne.n	29b6 <_vfiprintf_r+0x19a>
    29a2:	9b05      	ldr	r3, [sp, #20]
    29a4:	3402      	adds	r4, #2
    29a6:	1d1a      	adds	r2, r3, #4
    29a8:	681b      	ldr	r3, [r3, #0]
    29aa:	9205      	str	r2, [sp, #20]
    29ac:	2b00      	cmp	r3, #0
    29ae:	da0d      	bge.n	29cc <_vfiprintf_r+0x1b0>
    29b0:	2301      	movs	r3, #1
    29b2:	425b      	negs	r3, r3
    29b4:	e00a      	b.n	29cc <_vfiprintf_r+0x1b0>
    29b6:	3401      	adds	r4, #1
    29b8:	2300      	movs	r3, #0
    29ba:	7822      	ldrb	r2, [r4, #0]
    29bc:	3a30      	subs	r2, #48	; 0x30
    29be:	2a09      	cmp	r2, #9
    29c0:	d804      	bhi.n	29cc <_vfiprintf_r+0x1b0>
    29c2:	210a      	movs	r1, #10
    29c4:	434b      	muls	r3, r1
    29c6:	3401      	adds	r4, #1
    29c8:	189b      	adds	r3, r3, r2
    29ca:	e7f6      	b.n	29ba <_vfiprintf_r+0x19e>
    29cc:	9307      	str	r3, [sp, #28]
    29ce:	e763      	b.n	2898 <_vfiprintf_r+0x7c>
    29d0:	ab05      	add	r3, sp, #20
    29d2:	9300      	str	r3, [sp, #0]
    29d4:	1c30      	adds	r0, r6, #0
    29d6:	1c29      	adds	r1, r5, #0
    29d8:	1c3a      	adds	r2, r7, #0
    29da:	4b13      	ldr	r3, [pc, #76]	; (2a28 <_vfiprintf_r+0x20c>)
    29dc:	e000      	b.n	29e0 <_vfiprintf_r+0x1c4>
    29de:	bf00      	nop
    29e0:	e007      	b.n	29f2 <_vfiprintf_r+0x1d6>
    29e2:	ab05      	add	r3, sp, #20
    29e4:	9300      	str	r3, [sp, #0]
    29e6:	1c30      	adds	r0, r6, #0
    29e8:	1c29      	adds	r1, r5, #0
    29ea:	1c3a      	adds	r2, r7, #0
    29ec:	4b0e      	ldr	r3, [pc, #56]	; (2a28 <_vfiprintf_r+0x20c>)
    29ee:	f000 f89f 	bl	2b30 <_printf_i>
    29f2:	9004      	str	r0, [sp, #16]
    29f4:	9904      	ldr	r1, [sp, #16]
    29f6:	3101      	adds	r1, #1
    29f8:	d000      	beq.n	29fc <_vfiprintf_r+0x1e0>
    29fa:	e770      	b.n	28de <_vfiprintf_r+0xc2>
    29fc:	89bb      	ldrh	r3, [r7, #12]
    29fe:	065a      	lsls	r2, r3, #25
    2a00:	d500      	bpl.n	2a04 <_vfiprintf_r+0x1e8>
    2a02:	e73a      	b.n	287a <_vfiprintf_r+0x5e>
    2a04:	980b      	ldr	r0, [sp, #44]	; 0x2c
    2a06:	b01f      	add	sp, #124	; 0x7c
    2a08:	bdf0      	pop	{r4, r5, r6, r7, pc}
    2a0a:	46c0      	nop			; (mov r8, r8)
    2a0c:	00003f78 	.word	0x00003f78
    2a10:	00003f98 	.word	0x00003f98
    2a14:	00003fb8 	.word	0x00003fb8
    2a18:	00003fe0 	.word	0x00003fe0
    2a1c:	00003fea 	.word	0x00003fea
    2a20:	00000000 	.word	0x00000000
    2a24:	00003fe4 	.word	0x00003fe4
    2a28:	000027f7 	.word	0x000027f7

00002a2c <vfiprintf>:
    2a2c:	b538      	push	{r3, r4, r5, lr}
    2a2e:	1c13      	adds	r3, r2, #0
    2a30:	4a04      	ldr	r2, [pc, #16]	; (2a44 <vfiprintf+0x18>)
    2a32:	1c05      	adds	r5, r0, #0
    2a34:	1c0c      	adds	r4, r1, #0
    2a36:	6810      	ldr	r0, [r2, #0]
    2a38:	1c29      	adds	r1, r5, #0
    2a3a:	1c22      	adds	r2, r4, #0
    2a3c:	f7ff feee 	bl	281c <_vfiprintf_r>
    2a40:	bd38      	pop	{r3, r4, r5, pc}
    2a42:	46c0      	nop			; (mov r8, r8)
    2a44:	10000130 	.word	0x10000130

00002a48 <_printf_common>:
    2a48:	b5f7      	push	{r0, r1, r2, r4, r5, r6, r7, lr}
    2a4a:	1c15      	adds	r5, r2, #0
    2a4c:	9301      	str	r3, [sp, #4]
    2a4e:	690a      	ldr	r2, [r1, #16]
    2a50:	688b      	ldr	r3, [r1, #8]
    2a52:	1c06      	adds	r6, r0, #0
    2a54:	1c0c      	adds	r4, r1, #0
    2a56:	4293      	cmp	r3, r2
    2a58:	da00      	bge.n	2a5c <_printf_common+0x14>
    2a5a:	1c13      	adds	r3, r2, #0
    2a5c:	1c22      	adds	r2, r4, #0
    2a5e:	602b      	str	r3, [r5, #0]
    2a60:	3243      	adds	r2, #67	; 0x43
    2a62:	7812      	ldrb	r2, [r2, #0]
    2a64:	2a00      	cmp	r2, #0
    2a66:	d001      	beq.n	2a6c <_printf_common+0x24>
    2a68:	3301      	adds	r3, #1
    2a6a:	602b      	str	r3, [r5, #0]
    2a6c:	6820      	ldr	r0, [r4, #0]
    2a6e:	0680      	lsls	r0, r0, #26
    2a70:	d502      	bpl.n	2a78 <_printf_common+0x30>
    2a72:	682b      	ldr	r3, [r5, #0]
    2a74:	3302      	adds	r3, #2
    2a76:	602b      	str	r3, [r5, #0]
    2a78:	6821      	ldr	r1, [r4, #0]
    2a7a:	2706      	movs	r7, #6
    2a7c:	400f      	ands	r7, r1
    2a7e:	d01f      	beq.n	2ac0 <_printf_common+0x78>
    2a80:	1c23      	adds	r3, r4, #0
    2a82:	3343      	adds	r3, #67	; 0x43
    2a84:	781b      	ldrb	r3, [r3, #0]
    2a86:	1e5a      	subs	r2, r3, #1
    2a88:	4193      	sbcs	r3, r2
    2a8a:	6822      	ldr	r2, [r4, #0]
    2a8c:	0692      	lsls	r2, r2, #26
    2a8e:	d51f      	bpl.n	2ad0 <_printf_common+0x88>
    2a90:	18e1      	adds	r1, r4, r3
    2a92:	3140      	adds	r1, #64	; 0x40
    2a94:	2030      	movs	r0, #48	; 0x30
    2a96:	70c8      	strb	r0, [r1, #3]
    2a98:	1c21      	adds	r1, r4, #0
    2a9a:	1c5a      	adds	r2, r3, #1
    2a9c:	3145      	adds	r1, #69	; 0x45
    2a9e:	7809      	ldrb	r1, [r1, #0]
    2aa0:	18a2      	adds	r2, r4, r2
    2aa2:	3240      	adds	r2, #64	; 0x40
    2aa4:	3302      	adds	r3, #2
    2aa6:	70d1      	strb	r1, [r2, #3]
    2aa8:	e012      	b.n	2ad0 <_printf_common+0x88>
    2aaa:	1c22      	adds	r2, r4, #0
    2aac:	1c30      	adds	r0, r6, #0
    2aae:	9901      	ldr	r1, [sp, #4]
    2ab0:	3219      	adds	r2, #25
    2ab2:	2301      	movs	r3, #1
    2ab4:	9f08      	ldr	r7, [sp, #32]
    2ab6:	47b8      	blx	r7
    2ab8:	3001      	adds	r0, #1
    2aba:	d011      	beq.n	2ae0 <_printf_common+0x98>
    2abc:	9f00      	ldr	r7, [sp, #0]
    2abe:	3701      	adds	r7, #1
    2ac0:	9700      	str	r7, [sp, #0]
    2ac2:	68e0      	ldr	r0, [r4, #12]
    2ac4:	6829      	ldr	r1, [r5, #0]
    2ac6:	9f00      	ldr	r7, [sp, #0]
    2ac8:	1a43      	subs	r3, r0, r1
    2aca:	429f      	cmp	r7, r3
    2acc:	dbed      	blt.n	2aaa <_printf_common+0x62>
    2ace:	e7d7      	b.n	2a80 <_printf_common+0x38>
    2ad0:	1c22      	adds	r2, r4, #0
    2ad2:	1c30      	adds	r0, r6, #0
    2ad4:	9901      	ldr	r1, [sp, #4]
    2ad6:	3243      	adds	r2, #67	; 0x43
    2ad8:	9f08      	ldr	r7, [sp, #32]
    2ada:	47b8      	blx	r7
    2adc:	3001      	adds	r0, #1
    2ade:	d102      	bne.n	2ae6 <_printf_common+0x9e>
    2ae0:	2001      	movs	r0, #1
    2ae2:	4240      	negs	r0, r0
    2ae4:	e023      	b.n	2b2e <_printf_common+0xe6>
    2ae6:	6820      	ldr	r0, [r4, #0]
    2ae8:	2106      	movs	r1, #6
    2aea:	682b      	ldr	r3, [r5, #0]
    2aec:	68e2      	ldr	r2, [r4, #12]
    2aee:	4001      	ands	r1, r0
    2af0:	2500      	movs	r5, #0
    2af2:	2904      	cmp	r1, #4
    2af4:	d103      	bne.n	2afe <_printf_common+0xb6>
    2af6:	1ad5      	subs	r5, r2, r3
    2af8:	43eb      	mvns	r3, r5
    2afa:	17db      	asrs	r3, r3, #31
    2afc:	401d      	ands	r5, r3
    2afe:	68a2      	ldr	r2, [r4, #8]
    2b00:	6923      	ldr	r3, [r4, #16]
    2b02:	429a      	cmp	r2, r3
    2b04:	dd01      	ble.n	2b0a <_printf_common+0xc2>
    2b06:	1ad3      	subs	r3, r2, r3
    2b08:	18ed      	adds	r5, r5, r3
    2b0a:	2700      	movs	r7, #0
    2b0c:	9700      	str	r7, [sp, #0]
    2b0e:	9f00      	ldr	r7, [sp, #0]
    2b10:	42af      	cmp	r7, r5
    2b12:	da0b      	bge.n	2b2c <_printf_common+0xe4>
    2b14:	1c22      	adds	r2, r4, #0
    2b16:	1c30      	adds	r0, r6, #0
    2b18:	9901      	ldr	r1, [sp, #4]
    2b1a:	321a      	adds	r2, #26
    2b1c:	2301      	movs	r3, #1
    2b1e:	9f08      	ldr	r7, [sp, #32]
    2b20:	47b8      	blx	r7
    2b22:	3001      	adds	r0, #1
    2b24:	d0dc      	beq.n	2ae0 <_printf_common+0x98>
    2b26:	9f00      	ldr	r7, [sp, #0]
    2b28:	3701      	adds	r7, #1
    2b2a:	e7ef      	b.n	2b0c <_printf_common+0xc4>
    2b2c:	2000      	movs	r0, #0
    2b2e:	bdfe      	pop	{r1, r2, r3, r4, r5, r6, r7, pc}

00002b30 <_printf_i>:
    2b30:	b5f0      	push	{r4, r5, r6, r7, lr}
    2b32:	1c0d      	adds	r5, r1, #0
    2b34:	b08b      	sub	sp, #44	; 0x2c
    2b36:	3543      	adds	r5, #67	; 0x43
    2b38:	9206      	str	r2, [sp, #24]
    2b3a:	9005      	str	r0, [sp, #20]
    2b3c:	9307      	str	r3, [sp, #28]
    2b3e:	9504      	str	r5, [sp, #16]
    2b40:	7e0b      	ldrb	r3, [r1, #24]
    2b42:	1c0c      	adds	r4, r1, #0
    2b44:	9a10      	ldr	r2, [sp, #64]	; 0x40
    2b46:	2b6e      	cmp	r3, #110	; 0x6e
    2b48:	d100      	bne.n	2b4c <_printf_i+0x1c>
    2b4a:	e0a7      	b.n	2c9c <_printf_i+0x16c>
    2b4c:	d811      	bhi.n	2b72 <_printf_i+0x42>
    2b4e:	2b63      	cmp	r3, #99	; 0x63
    2b50:	d022      	beq.n	2b98 <_printf_i+0x68>
    2b52:	d809      	bhi.n	2b68 <_printf_i+0x38>
    2b54:	2b00      	cmp	r3, #0
    2b56:	d100      	bne.n	2b5a <_printf_i+0x2a>
    2b58:	e0b0      	b.n	2cbc <_printf_i+0x18c>
    2b5a:	2b58      	cmp	r3, #88	; 0x58
    2b5c:	d000      	beq.n	2b60 <_printf_i+0x30>
    2b5e:	e0c0      	b.n	2ce2 <_printf_i+0x1b2>
    2b60:	3145      	adds	r1, #69	; 0x45
    2b62:	700b      	strb	r3, [r1, #0]
    2b64:	4d7b      	ldr	r5, [pc, #492]	; (2d54 <_printf_i+0x224>)
    2b66:	e04e      	b.n	2c06 <_printf_i+0xd6>
    2b68:	2b64      	cmp	r3, #100	; 0x64
    2b6a:	d01c      	beq.n	2ba6 <_printf_i+0x76>
    2b6c:	2b69      	cmp	r3, #105	; 0x69
    2b6e:	d01a      	beq.n	2ba6 <_printf_i+0x76>
    2b70:	e0b7      	b.n	2ce2 <_printf_i+0x1b2>
    2b72:	2b73      	cmp	r3, #115	; 0x73
    2b74:	d100      	bne.n	2b78 <_printf_i+0x48>
    2b76:	e0a5      	b.n	2cc4 <_printf_i+0x194>
    2b78:	d809      	bhi.n	2b8e <_printf_i+0x5e>
    2b7a:	2b6f      	cmp	r3, #111	; 0x6f
    2b7c:	d029      	beq.n	2bd2 <_printf_i+0xa2>
    2b7e:	2b70      	cmp	r3, #112	; 0x70
    2b80:	d000      	beq.n	2b84 <_printf_i+0x54>
    2b82:	e0ae      	b.n	2ce2 <_printf_i+0x1b2>
    2b84:	680e      	ldr	r6, [r1, #0]
    2b86:	2320      	movs	r3, #32
    2b88:	4333      	orrs	r3, r6
    2b8a:	600b      	str	r3, [r1, #0]
    2b8c:	e036      	b.n	2bfc <_printf_i+0xcc>
    2b8e:	2b75      	cmp	r3, #117	; 0x75
    2b90:	d01f      	beq.n	2bd2 <_printf_i+0xa2>
    2b92:	2b78      	cmp	r3, #120	; 0x78
    2b94:	d032      	beq.n	2bfc <_printf_i+0xcc>
    2b96:	e0a4      	b.n	2ce2 <_printf_i+0x1b2>
    2b98:	6813      	ldr	r3, [r2, #0]
    2b9a:	1c0d      	adds	r5, r1, #0
    2b9c:	1d19      	adds	r1, r3, #4
    2b9e:	3542      	adds	r5, #66	; 0x42
    2ba0:	6011      	str	r1, [r2, #0]
    2ba2:	681b      	ldr	r3, [r3, #0]
    2ba4:	e09f      	b.n	2ce6 <_printf_i+0x1b6>
    2ba6:	6821      	ldr	r1, [r4, #0]
    2ba8:	6813      	ldr	r3, [r2, #0]
    2baa:	060e      	lsls	r6, r1, #24
    2bac:	d503      	bpl.n	2bb6 <_printf_i+0x86>
    2bae:	1d19      	adds	r1, r3, #4
    2bb0:	6011      	str	r1, [r2, #0]
    2bb2:	681e      	ldr	r6, [r3, #0]
    2bb4:	e005      	b.n	2bc2 <_printf_i+0x92>
    2bb6:	0648      	lsls	r0, r1, #25
    2bb8:	d5f9      	bpl.n	2bae <_printf_i+0x7e>
    2bba:	1d19      	adds	r1, r3, #4
    2bbc:	6011      	str	r1, [r2, #0]
    2bbe:	2100      	movs	r1, #0
    2bc0:	5e5e      	ldrsh	r6, [r3, r1]
    2bc2:	4b64      	ldr	r3, [pc, #400]	; (2d54 <_printf_i+0x224>)
    2bc4:	2e00      	cmp	r6, #0
    2bc6:	da3b      	bge.n	2c40 <_printf_i+0x110>
    2bc8:	9d04      	ldr	r5, [sp, #16]
    2bca:	222d      	movs	r2, #45	; 0x2d
    2bcc:	4276      	negs	r6, r6
    2bce:	702a      	strb	r2, [r5, #0]
    2bd0:	e036      	b.n	2c40 <_printf_i+0x110>
    2bd2:	6821      	ldr	r1, [r4, #0]
    2bd4:	6813      	ldr	r3, [r2, #0]
    2bd6:	060e      	lsls	r6, r1, #24
    2bd8:	d503      	bpl.n	2be2 <_printf_i+0xb2>
    2bda:	1d19      	adds	r1, r3, #4
    2bdc:	6011      	str	r1, [r2, #0]
    2bde:	681e      	ldr	r6, [r3, #0]
    2be0:	e004      	b.n	2bec <_printf_i+0xbc>
    2be2:	0648      	lsls	r0, r1, #25
    2be4:	d5f9      	bpl.n	2bda <_printf_i+0xaa>
    2be6:	1d19      	adds	r1, r3, #4
    2be8:	881e      	ldrh	r6, [r3, #0]
    2bea:	6011      	str	r1, [r2, #0]
    2bec:	4b59      	ldr	r3, [pc, #356]	; (2d54 <_printf_i+0x224>)
    2bee:	7e22      	ldrb	r2, [r4, #24]
    2bf0:	9303      	str	r3, [sp, #12]
    2bf2:	2708      	movs	r7, #8
    2bf4:	2a6f      	cmp	r2, #111	; 0x6f
    2bf6:	d01e      	beq.n	2c36 <_printf_i+0x106>
    2bf8:	270a      	movs	r7, #10
    2bfa:	e01c      	b.n	2c36 <_printf_i+0x106>
    2bfc:	1c23      	adds	r3, r4, #0
    2bfe:	2178      	movs	r1, #120	; 0x78
    2c00:	3345      	adds	r3, #69	; 0x45
    2c02:	4d55      	ldr	r5, [pc, #340]	; (2d58 <_printf_i+0x228>)
    2c04:	7019      	strb	r1, [r3, #0]
    2c06:	6811      	ldr	r1, [r2, #0]
    2c08:	6823      	ldr	r3, [r4, #0]
    2c0a:	1d08      	adds	r0, r1, #4
    2c0c:	9503      	str	r5, [sp, #12]
    2c0e:	6010      	str	r0, [r2, #0]
    2c10:	061e      	lsls	r6, r3, #24
    2c12:	d501      	bpl.n	2c18 <_printf_i+0xe8>
    2c14:	680e      	ldr	r6, [r1, #0]
    2c16:	e002      	b.n	2c1e <_printf_i+0xee>
    2c18:	0658      	lsls	r0, r3, #25
    2c1a:	d5fb      	bpl.n	2c14 <_printf_i+0xe4>
    2c1c:	880e      	ldrh	r6, [r1, #0]
    2c1e:	07d9      	lsls	r1, r3, #31
    2c20:	d502      	bpl.n	2c28 <_printf_i+0xf8>
    2c22:	2220      	movs	r2, #32
    2c24:	4313      	orrs	r3, r2
    2c26:	6023      	str	r3, [r4, #0]
    2c28:	2710      	movs	r7, #16
    2c2a:	2e00      	cmp	r6, #0
    2c2c:	d103      	bne.n	2c36 <_printf_i+0x106>
    2c2e:	6822      	ldr	r2, [r4, #0]
    2c30:	2320      	movs	r3, #32
    2c32:	439a      	bics	r2, r3
    2c34:	6022      	str	r2, [r4, #0]
    2c36:	1c23      	adds	r3, r4, #0
    2c38:	2200      	movs	r2, #0
    2c3a:	3343      	adds	r3, #67	; 0x43
    2c3c:	701a      	strb	r2, [r3, #0]
    2c3e:	e001      	b.n	2c44 <_printf_i+0x114>
    2c40:	9303      	str	r3, [sp, #12]
    2c42:	270a      	movs	r7, #10
    2c44:	6863      	ldr	r3, [r4, #4]
    2c46:	60a3      	str	r3, [r4, #8]
    2c48:	2b00      	cmp	r3, #0
    2c4a:	db03      	blt.n	2c54 <_printf_i+0x124>
    2c4c:	6825      	ldr	r5, [r4, #0]
    2c4e:	2204      	movs	r2, #4
    2c50:	4395      	bics	r5, r2
    2c52:	6025      	str	r5, [r4, #0]
    2c54:	2e00      	cmp	r6, #0
    2c56:	d102      	bne.n	2c5e <_printf_i+0x12e>
    2c58:	9d04      	ldr	r5, [sp, #16]
    2c5a:	2b00      	cmp	r3, #0
    2c5c:	d00e      	beq.n	2c7c <_printf_i+0x14c>
    2c5e:	9d04      	ldr	r5, [sp, #16]
    2c60:	1c30      	adds	r0, r6, #0
    2c62:	1c39      	adds	r1, r7, #0
    2c64:	f7fe fcf4 	bl	1650 <__aeabi_uidivmod>
    2c68:	9803      	ldr	r0, [sp, #12]
    2c6a:	3d01      	subs	r5, #1
    2c6c:	5c43      	ldrb	r3, [r0, r1]
    2c6e:	1c30      	adds	r0, r6, #0
    2c70:	702b      	strb	r3, [r5, #0]
    2c72:	1c39      	adds	r1, r7, #0
    2c74:	f7fe fca8 	bl	15c8 <__aeabi_uidiv>
    2c78:	1e06      	subs	r6, r0, #0
    2c7a:	d1f1      	bne.n	2c60 <_printf_i+0x130>
    2c7c:	2f08      	cmp	r7, #8
    2c7e:	d109      	bne.n	2c94 <_printf_i+0x164>
    2c80:	6821      	ldr	r1, [r4, #0]
    2c82:	07c9      	lsls	r1, r1, #31
    2c84:	d506      	bpl.n	2c94 <_printf_i+0x164>
    2c86:	6862      	ldr	r2, [r4, #4]
    2c88:	6923      	ldr	r3, [r4, #16]
    2c8a:	429a      	cmp	r2, r3
    2c8c:	dc02      	bgt.n	2c94 <_printf_i+0x164>
    2c8e:	3d01      	subs	r5, #1
    2c90:	2330      	movs	r3, #48	; 0x30
    2c92:	702b      	strb	r3, [r5, #0]
    2c94:	9e04      	ldr	r6, [sp, #16]
    2c96:	1b73      	subs	r3, r6, r5
    2c98:	6123      	str	r3, [r4, #16]
    2c9a:	e02a      	b.n	2cf2 <_printf_i+0x1c2>
    2c9c:	6808      	ldr	r0, [r1, #0]
    2c9e:	6813      	ldr	r3, [r2, #0]
    2ca0:	6949      	ldr	r1, [r1, #20]
    2ca2:	0605      	lsls	r5, r0, #24
    2ca4:	d504      	bpl.n	2cb0 <_printf_i+0x180>
    2ca6:	1d18      	adds	r0, r3, #4
    2ca8:	6010      	str	r0, [r2, #0]
    2caa:	681b      	ldr	r3, [r3, #0]
    2cac:	6019      	str	r1, [r3, #0]
    2cae:	e005      	b.n	2cbc <_printf_i+0x18c>
    2cb0:	0646      	lsls	r6, r0, #25
    2cb2:	d5f8      	bpl.n	2ca6 <_printf_i+0x176>
    2cb4:	1d18      	adds	r0, r3, #4
    2cb6:	6010      	str	r0, [r2, #0]
    2cb8:	681b      	ldr	r3, [r3, #0]
    2cba:	8019      	strh	r1, [r3, #0]
    2cbc:	2300      	movs	r3, #0
    2cbe:	6123      	str	r3, [r4, #16]
    2cc0:	9d04      	ldr	r5, [sp, #16]
    2cc2:	e016      	b.n	2cf2 <_printf_i+0x1c2>
    2cc4:	6813      	ldr	r3, [r2, #0]
    2cc6:	1d19      	adds	r1, r3, #4
    2cc8:	6011      	str	r1, [r2, #0]
    2cca:	681d      	ldr	r5, [r3, #0]
    2ccc:	1c28      	adds	r0, r5, #0
    2cce:	f7ff fae7 	bl	22a0 <strlen>
    2cd2:	6863      	ldr	r3, [r4, #4]
    2cd4:	6120      	str	r0, [r4, #16]
    2cd6:	4298      	cmp	r0, r3
    2cd8:	d900      	bls.n	2cdc <_printf_i+0x1ac>
    2cda:	6123      	str	r3, [r4, #16]
    2cdc:	6920      	ldr	r0, [r4, #16]
    2cde:	6060      	str	r0, [r4, #4]
    2ce0:	e004      	b.n	2cec <_printf_i+0x1bc>
    2ce2:	1c25      	adds	r5, r4, #0
    2ce4:	3542      	adds	r5, #66	; 0x42
    2ce6:	702b      	strb	r3, [r5, #0]
    2ce8:	2301      	movs	r3, #1
    2cea:	6123      	str	r3, [r4, #16]
    2cec:	9e04      	ldr	r6, [sp, #16]
    2cee:	2300      	movs	r3, #0
    2cf0:	7033      	strb	r3, [r6, #0]
    2cf2:	9e07      	ldr	r6, [sp, #28]
    2cf4:	9805      	ldr	r0, [sp, #20]
    2cf6:	9600      	str	r6, [sp, #0]
    2cf8:	1c21      	adds	r1, r4, #0
    2cfa:	aa09      	add	r2, sp, #36	; 0x24
    2cfc:	9b06      	ldr	r3, [sp, #24]
    2cfe:	f7ff fea3 	bl	2a48 <_printf_common>
    2d02:	3001      	adds	r0, #1
    2d04:	d102      	bne.n	2d0c <_printf_i+0x1dc>
    2d06:	2001      	movs	r0, #1
    2d08:	4240      	negs	r0, r0
    2d0a:	e021      	b.n	2d50 <_printf_i+0x220>
    2d0c:	1c2a      	adds	r2, r5, #0
    2d0e:	9805      	ldr	r0, [sp, #20]
    2d10:	9906      	ldr	r1, [sp, #24]
    2d12:	6923      	ldr	r3, [r4, #16]
    2d14:	9d07      	ldr	r5, [sp, #28]
    2d16:	47a8      	blx	r5
    2d18:	3001      	adds	r0, #1
    2d1a:	d0f4      	beq.n	2d06 <_printf_i+0x1d6>
    2d1c:	6826      	ldr	r6, [r4, #0]
    2d1e:	07b6      	lsls	r6, r6, #30
    2d20:	d405      	bmi.n	2d2e <_printf_i+0x1fe>
    2d22:	9b09      	ldr	r3, [sp, #36]	; 0x24
    2d24:	68e0      	ldr	r0, [r4, #12]
    2d26:	4298      	cmp	r0, r3
    2d28:	da12      	bge.n	2d50 <_printf_i+0x220>
    2d2a:	1c18      	adds	r0, r3, #0
    2d2c:	e010      	b.n	2d50 <_printf_i+0x220>
    2d2e:	2500      	movs	r5, #0
    2d30:	68e0      	ldr	r0, [r4, #12]
    2d32:	9909      	ldr	r1, [sp, #36]	; 0x24
    2d34:	1a43      	subs	r3, r0, r1
    2d36:	429d      	cmp	r5, r3
    2d38:	daf3      	bge.n	2d22 <_printf_i+0x1f2>
    2d3a:	1c22      	adds	r2, r4, #0
    2d3c:	9805      	ldr	r0, [sp, #20]
    2d3e:	9906      	ldr	r1, [sp, #24]
    2d40:	3219      	adds	r2, #25
    2d42:	2301      	movs	r3, #1
    2d44:	9e07      	ldr	r6, [sp, #28]
    2d46:	47b0      	blx	r6
    2d48:	3001      	adds	r0, #1
    2d4a:	d0dc      	beq.n	2d06 <_printf_i+0x1d6>
    2d4c:	3501      	adds	r5, #1
    2d4e:	e7ef      	b.n	2d30 <_printf_i+0x200>
    2d50:	b00b      	add	sp, #44	; 0x2c
    2d52:	bdf0      	pop	{r4, r5, r6, r7, pc}
    2d54:	00003ff1 	.word	0x00003ff1
    2d58:	00004002 	.word	0x00004002

00002d5c <__svfiscanf_r>:
    2d5c:	b5f0      	push	{r4, r5, r6, r7, lr}
    2d5e:	4ca5      	ldr	r4, [pc, #660]	; (2ff4 <__svfiscanf_r+0x298>)
    2d60:	1c07      	adds	r7, r0, #0
    2d62:	44a5      	add	sp, r4
    2d64:	9301      	str	r3, [sp, #4]
    2d66:	2300      	movs	r3, #0
    2d68:	9200      	str	r2, [sp, #0]
    2d6a:	9346      	str	r3, [sp, #280]	; 0x118
    2d6c:	4aa2      	ldr	r2, [pc, #648]	; (2ff8 <__svfiscanf_r+0x29c>)
    2d6e:	9347      	str	r3, [sp, #284]	; 0x11c
    2d70:	23be      	movs	r3, #190	; 0xbe
    2d72:	005b      	lsls	r3, r3, #1
    2d74:	1c0c      	adds	r4, r1, #0
    2d76:	a943      	add	r1, sp, #268	; 0x10c
    2d78:	50ca      	str	r2, [r1, r3]
    2d7a:	4aa0      	ldr	r2, [pc, #640]	; (2ffc <__svfiscanf_r+0x2a0>)
    2d7c:	23c0      	movs	r3, #192	; 0xc0
    2d7e:	a803      	add	r0, sp, #12
    2d80:	005b      	lsls	r3, r3, #1
    2d82:	9048      	str	r0, [sp, #288]	; 0x120
    2d84:	50ca      	str	r2, [r1, r3]
    2d86:	9a00      	ldr	r2, [sp, #0]
    2d88:	7815      	ldrb	r5, [r2, #0]
    2d8a:	2d00      	cmp	r5, #0
    2d8c:	d100      	bne.n	2d90 <__svfiscanf_r+0x34>
    2d8e:	e128      	b.n	2fe2 <__svfiscanf_r+0x286>
    2d90:	4e9b      	ldr	r6, [pc, #620]	; (3000 <__svfiscanf_r+0x2a4>)
    2d92:	6830      	ldr	r0, [r6, #0]
    2d94:	1943      	adds	r3, r0, r5
    2d96:	785a      	ldrb	r2, [r3, #1]
    2d98:	2308      	movs	r3, #8
    2d9a:	4013      	ands	r3, r2
    2d9c:	d01f      	beq.n	2dde <__svfiscanf_r+0x82>
    2d9e:	6861      	ldr	r1, [r4, #4]
    2da0:	2900      	cmp	r1, #0
    2da2:	dd0f      	ble.n	2dc4 <__svfiscanf_r+0x68>
    2da4:	6823      	ldr	r3, [r4, #0]
    2da6:	6830      	ldr	r0, [r6, #0]
    2da8:	781a      	ldrb	r2, [r3, #0]
    2daa:	1882      	adds	r2, r0, r2
    2dac:	7852      	ldrb	r2, [r2, #1]
    2dae:	0711      	lsls	r1, r2, #28
    2db0:	d511      	bpl.n	2dd6 <__svfiscanf_r+0x7a>
    2db2:	9a47      	ldr	r2, [sp, #284]	; 0x11c
    2db4:	3301      	adds	r3, #1
    2db6:	3201      	adds	r2, #1
    2db8:	9247      	str	r2, [sp, #284]	; 0x11c
    2dba:	6862      	ldr	r2, [r4, #4]
    2dbc:	6023      	str	r3, [r4, #0]
    2dbe:	3a01      	subs	r2, #1
    2dc0:	6062      	str	r2, [r4, #4]
    2dc2:	e7ec      	b.n	2d9e <__svfiscanf_r+0x42>
    2dc4:	23c0      	movs	r3, #192	; 0xc0
    2dc6:	005b      	lsls	r3, r3, #1
    2dc8:	aa43      	add	r2, sp, #268	; 0x10c
    2dca:	58d3      	ldr	r3, [r2, r3]
    2dcc:	1c38      	adds	r0, r7, #0
    2dce:	1c21      	adds	r1, r4, #0
    2dd0:	4798      	blx	r3
    2dd2:	2800      	cmp	r0, #0
    2dd4:	d0e6      	beq.n	2da4 <__svfiscanf_r+0x48>
    2dd6:	9e00      	ldr	r6, [sp, #0]
    2dd8:	3601      	adds	r6, #1
    2dda:	9600      	str	r6, [sp, #0]
    2ddc:	e7d3      	b.n	2d86 <__svfiscanf_r+0x2a>
    2dde:	9e00      	ldr	r6, [sp, #0]
    2de0:	3601      	adds	r6, #1
    2de2:	2d25      	cmp	r5, #37	; 0x25
    2de4:	d14c      	bne.n	2e80 <__svfiscanf_r+0x124>
    2de6:	9800      	ldr	r0, [sp, #0]
    2de8:	9345      	str	r3, [sp, #276]	; 0x114
    2dea:	9343      	str	r3, [sp, #268]	; 0x10c
    2dec:	7843      	ldrb	r3, [r0, #1]
    2dee:	2b2a      	cmp	r3, #42	; 0x2a
    2df0:	d103      	bne.n	2dfa <__svfiscanf_r+0x9e>
    2df2:	2310      	movs	r3, #16
    2df4:	1c06      	adds	r6, r0, #0
    2df6:	9343      	str	r3, [sp, #268]	; 0x10c
    2df8:	3602      	adds	r6, #2
    2dfa:	1c35      	adds	r5, r6, #0
    2dfc:	7829      	ldrb	r1, [r5, #0]
    2dfe:	1c0b      	adds	r3, r1, #0
    2e00:	3b30      	subs	r3, #48	; 0x30
    2e02:	2b09      	cmp	r3, #9
    2e04:	d807      	bhi.n	2e16 <__svfiscanf_r+0xba>
    2e06:	9a45      	ldr	r2, [sp, #276]	; 0x114
    2e08:	230a      	movs	r3, #10
    2e0a:	4353      	muls	r3, r2
    2e0c:	3b30      	subs	r3, #48	; 0x30
    2e0e:	1859      	adds	r1, r3, r1
    2e10:	9145      	str	r1, [sp, #276]	; 0x114
    2e12:	3501      	adds	r5, #1
    2e14:	e7f2      	b.n	2dfc <__svfiscanf_r+0xa0>
    2e16:	4e7b      	ldr	r6, [pc, #492]	; (3004 <__svfiscanf_r+0x2a8>)
    2e18:	2203      	movs	r2, #3
    2e1a:	1c30      	adds	r0, r6, #0
    2e1c:	f000 fbe0 	bl	35e0 <memchr>
    2e20:	2800      	cmp	r0, #0
    2e22:	d006      	beq.n	2e32 <__svfiscanf_r+0xd6>
    2e24:	1b86      	subs	r6, r0, r6
    2e26:	9b43      	ldr	r3, [sp, #268]	; 0x10c
    2e28:	2001      	movs	r0, #1
    2e2a:	40b0      	lsls	r0, r6
    2e2c:	4318      	orrs	r0, r3
    2e2e:	9043      	str	r0, [sp, #268]	; 0x10c
    2e30:	3501      	adds	r5, #1
    2e32:	1c6e      	adds	r6, r5, #1
    2e34:	782d      	ldrb	r5, [r5, #0]
    2e36:	2d67      	cmp	r5, #103	; 0x67
    2e38:	d80f      	bhi.n	2e5a <__svfiscanf_r+0xfe>
    2e3a:	2d65      	cmp	r5, #101	; 0x65
    2e3c:	d277      	bcs.n	2f2e <__svfiscanf_r+0x1d2>
    2e3e:	2d5b      	cmp	r5, #91	; 0x5b
    2e40:	d051      	beq.n	2ee6 <__svfiscanf_r+0x18a>
    2e42:	d805      	bhi.n	2e50 <__svfiscanf_r+0xf4>
    2e44:	2d00      	cmp	r5, #0
    2e46:	d100      	bne.n	2e4a <__svfiscanf_r+0xee>
    2e48:	e0cd      	b.n	2fe6 <__svfiscanf_r+0x28a>
    2e4a:	2d25      	cmp	r5, #37	; 0x25
    2e4c:	d018      	beq.n	2e80 <__svfiscanf_r+0x124>
    2e4e:	e070      	b.n	2f32 <__svfiscanf_r+0x1d6>
    2e50:	2d63      	cmp	r5, #99	; 0x63
    2e52:	d054      	beq.n	2efe <__svfiscanf_r+0x1a2>
    2e54:	2d64      	cmp	r5, #100	; 0x64
    2e56:	d03d      	beq.n	2ed4 <__svfiscanf_r+0x178>
    2e58:	e06b      	b.n	2f32 <__svfiscanf_r+0x1d6>
    2e5a:	2d70      	cmp	r5, #112	; 0x70
    2e5c:	d02f      	beq.n	2ebe <__svfiscanf_r+0x162>
    2e5e:	d807      	bhi.n	2e70 <__svfiscanf_r+0x114>
    2e60:	2d6e      	cmp	r5, #110	; 0x6e
    2e62:	d052      	beq.n	2f0a <__svfiscanf_r+0x1ae>
    2e64:	d838      	bhi.n	2ed8 <__svfiscanf_r+0x17c>
    2e66:	2d69      	cmp	r5, #105	; 0x69
    2e68:	d163      	bne.n	2f32 <__svfiscanf_r+0x1d6>
    2e6a:	2300      	movs	r3, #0
    2e6c:	9344      	str	r3, [sp, #272]	; 0x110
    2e6e:	e038      	b.n	2ee2 <__svfiscanf_r+0x186>
    2e70:	2d75      	cmp	r5, #117	; 0x75
    2e72:	d02f      	beq.n	2ed4 <__svfiscanf_r+0x178>
    2e74:	2d78      	cmp	r5, #120	; 0x78
    2e76:	d026      	beq.n	2ec6 <__svfiscanf_r+0x16a>
    2e78:	2d73      	cmp	r5, #115	; 0x73
    2e7a:	d15a      	bne.n	2f32 <__svfiscanf_r+0x1d6>
    2e7c:	2302      	movs	r3, #2
    2e7e:	e03c      	b.n	2efa <__svfiscanf_r+0x19e>
    2e80:	6860      	ldr	r0, [r4, #4]
    2e82:	2800      	cmp	r0, #0
    2e84:	dd0d      	ble.n	2ea2 <__svfiscanf_r+0x146>
    2e86:	6823      	ldr	r3, [r4, #0]
    2e88:	781a      	ldrb	r2, [r3, #0]
    2e8a:	42aa      	cmp	r2, r5
    2e8c:	d000      	beq.n	2e90 <__svfiscanf_r+0x134>
    2e8e:	e0a8      	b.n	2fe2 <__svfiscanf_r+0x286>
    2e90:	3301      	adds	r3, #1
    2e92:	6862      	ldr	r2, [r4, #4]
    2e94:	6023      	str	r3, [r4, #0]
    2e96:	9b47      	ldr	r3, [sp, #284]	; 0x11c
    2e98:	3a01      	subs	r2, #1
    2e9a:	3301      	adds	r3, #1
    2e9c:	6062      	str	r2, [r4, #4]
    2e9e:	9347      	str	r3, [sp, #284]	; 0x11c
    2ea0:	e79b      	b.n	2dda <__svfiscanf_r+0x7e>
    2ea2:	23c0      	movs	r3, #192	; 0xc0
    2ea4:	a943      	add	r1, sp, #268	; 0x10c
    2ea6:	005b      	lsls	r3, r3, #1
    2ea8:	58cb      	ldr	r3, [r1, r3]
    2eaa:	1c38      	adds	r0, r7, #0
    2eac:	1c21      	adds	r1, r4, #0
    2eae:	4798      	blx	r3
    2eb0:	2800      	cmp	r0, #0
    2eb2:	d0e8      	beq.n	2e86 <__svfiscanf_r+0x12a>
    2eb4:	9846      	ldr	r0, [sp, #280]	; 0x118
    2eb6:	2800      	cmp	r0, #0
    2eb8:	d000      	beq.n	2ebc <__svfiscanf_r+0x160>
    2eba:	e08e      	b.n	2fda <__svfiscanf_r+0x27e>
    2ebc:	e093      	b.n	2fe6 <__svfiscanf_r+0x28a>
    2ebe:	9a43      	ldr	r2, [sp, #268]	; 0x10c
    2ec0:	2320      	movs	r3, #32
    2ec2:	4313      	orrs	r3, r2
    2ec4:	9343      	str	r3, [sp, #268]	; 0x10c
    2ec6:	9843      	ldr	r0, [sp, #268]	; 0x10c
    2ec8:	2380      	movs	r3, #128	; 0x80
    2eca:	009b      	lsls	r3, r3, #2
    2ecc:	4303      	orrs	r3, r0
    2ece:	9343      	str	r3, [sp, #268]	; 0x10c
    2ed0:	2310      	movs	r3, #16
    2ed2:	e002      	b.n	2eda <__svfiscanf_r+0x17e>
    2ed4:	230a      	movs	r3, #10
    2ed6:	e000      	b.n	2eda <__svfiscanf_r+0x17e>
    2ed8:	2308      	movs	r3, #8
    2eda:	9344      	str	r3, [sp, #272]	; 0x110
    2edc:	2304      	movs	r3, #4
    2ede:	2d6e      	cmp	r5, #110	; 0x6e
    2ee0:	dc0b      	bgt.n	2efa <__svfiscanf_r+0x19e>
    2ee2:	2303      	movs	r3, #3
    2ee4:	e009      	b.n	2efa <__svfiscanf_r+0x19e>
    2ee6:	1c31      	adds	r1, r6, #0
    2ee8:	a803      	add	r0, sp, #12
    2eea:	f000 fc53 	bl	3794 <__sccl>
    2eee:	9943      	ldr	r1, [sp, #268]	; 0x10c
    2ef0:	2340      	movs	r3, #64	; 0x40
    2ef2:	430b      	orrs	r3, r1
    2ef4:	9343      	str	r3, [sp, #268]	; 0x10c
    2ef6:	1c06      	adds	r6, r0, #0
    2ef8:	2301      	movs	r3, #1
    2efa:	9349      	str	r3, [sp, #292]	; 0x124
    2efc:	e01d      	b.n	2f3a <__svfiscanf_r+0x1de>
    2efe:	9a43      	ldr	r2, [sp, #268]	; 0x10c
    2f00:	2340      	movs	r3, #64	; 0x40
    2f02:	4313      	orrs	r3, r2
    2f04:	9343      	str	r3, [sp, #268]	; 0x10c
    2f06:	2300      	movs	r3, #0
    2f08:	e7f7      	b.n	2efa <__svfiscanf_r+0x19e>
    2f0a:	9943      	ldr	r1, [sp, #268]	; 0x10c
    2f0c:	06cb      	lsls	r3, r1, #27
    2f0e:	d500      	bpl.n	2f12 <__svfiscanf_r+0x1b6>
    2f10:	e763      	b.n	2dda <__svfiscanf_r+0x7e>
    2f12:	9b01      	ldr	r3, [sp, #4]
    2f14:	9a47      	ldr	r2, [sp, #284]	; 0x11c
    2f16:	07c8      	lsls	r0, r1, #31
    2f18:	d504      	bpl.n	2f24 <__svfiscanf_r+0x1c8>
    2f1a:	1d19      	adds	r1, r3, #4
    2f1c:	9101      	str	r1, [sp, #4]
    2f1e:	681b      	ldr	r3, [r3, #0]
    2f20:	801a      	strh	r2, [r3, #0]
    2f22:	e75a      	b.n	2dda <__svfiscanf_r+0x7e>
    2f24:	1d19      	adds	r1, r3, #4
    2f26:	9101      	str	r1, [sp, #4]
    2f28:	681b      	ldr	r3, [r3, #0]
    2f2a:	601a      	str	r2, [r3, #0]
    2f2c:	e755      	b.n	2dda <__svfiscanf_r+0x7e>
    2f2e:	2305      	movs	r3, #5
    2f30:	e7e3      	b.n	2efa <__svfiscanf_r+0x19e>
    2f32:	2303      	movs	r3, #3
    2f34:	9349      	str	r3, [sp, #292]	; 0x124
    2f36:	230a      	movs	r3, #10
    2f38:	9344      	str	r3, [sp, #272]	; 0x110
    2f3a:	6861      	ldr	r1, [r4, #4]
    2f3c:	2900      	cmp	r1, #0
    2f3e:	dd03      	ble.n	2f48 <__svfiscanf_r+0x1ec>
    2f40:	9a43      	ldr	r2, [sp, #268]	; 0x10c
    2f42:	0652      	lsls	r2, r2, #25
    2f44:	d514      	bpl.n	2f70 <__svfiscanf_r+0x214>
    2f46:	e01b      	b.n	2f80 <__svfiscanf_r+0x224>
    2f48:	23c0      	movs	r3, #192	; 0xc0
    2f4a:	a843      	add	r0, sp, #268	; 0x10c
    2f4c:	005b      	lsls	r3, r3, #1
    2f4e:	58c3      	ldr	r3, [r0, r3]
    2f50:	1c21      	adds	r1, r4, #0
    2f52:	1c38      	adds	r0, r7, #0
    2f54:	4798      	blx	r3
    2f56:	2800      	cmp	r0, #0
    2f58:	d0f2      	beq.n	2f40 <__svfiscanf_r+0x1e4>
    2f5a:	e7ab      	b.n	2eb4 <__svfiscanf_r+0x158>
    2f5c:	9a47      	ldr	r2, [sp, #284]	; 0x11c
    2f5e:	3201      	adds	r2, #1
    2f60:	9247      	str	r2, [sp, #284]	; 0x11c
    2f62:	6862      	ldr	r2, [r4, #4]
    2f64:	3a01      	subs	r2, #1
    2f66:	6062      	str	r2, [r4, #4]
    2f68:	2a00      	cmp	r2, #0
    2f6a:	dd13      	ble.n	2f94 <__svfiscanf_r+0x238>
    2f6c:	3301      	adds	r3, #1
    2f6e:	6023      	str	r3, [r4, #0]
    2f70:	6823      	ldr	r3, [r4, #0]
    2f72:	4923      	ldr	r1, [pc, #140]	; (3000 <__svfiscanf_r+0x2a4>)
    2f74:	781a      	ldrb	r2, [r3, #0]
    2f76:	6809      	ldr	r1, [r1, #0]
    2f78:	188a      	adds	r2, r1, r2
    2f7a:	7852      	ldrb	r2, [r2, #1]
    2f7c:	0710      	lsls	r0, r2, #28
    2f7e:	d4ed      	bmi.n	2f5c <__svfiscanf_r+0x200>
    2f80:	9b49      	ldr	r3, [sp, #292]	; 0x124
    2f82:	2b02      	cmp	r3, #2
    2f84:	dc10      	bgt.n	2fa8 <__svfiscanf_r+0x24c>
    2f86:	1c38      	adds	r0, r7, #0
    2f88:	a943      	add	r1, sp, #268	; 0x10c
    2f8a:	1c22      	adds	r2, r4, #0
    2f8c:	ab01      	add	r3, sp, #4
    2f8e:	f000 f865 	bl	305c <_scanf_chars>
    2f92:	e01c      	b.n	2fce <__svfiscanf_r+0x272>
    2f94:	23c0      	movs	r3, #192	; 0xc0
    2f96:	a943      	add	r1, sp, #268	; 0x10c
    2f98:	005b      	lsls	r3, r3, #1
    2f9a:	58cb      	ldr	r3, [r1, r3]
    2f9c:	1c38      	adds	r0, r7, #0
    2f9e:	1c21      	adds	r1, r4, #0
    2fa0:	4798      	blx	r3
    2fa2:	2800      	cmp	r0, #0
    2fa4:	d0e4      	beq.n	2f70 <__svfiscanf_r+0x214>
    2fa6:	e785      	b.n	2eb4 <__svfiscanf_r+0x158>
    2fa8:	2b04      	cmp	r3, #4
    2faa:	dc06      	bgt.n	2fba <__svfiscanf_r+0x25e>
    2fac:	1c38      	adds	r0, r7, #0
    2fae:	a943      	add	r1, sp, #268	; 0x10c
    2fb0:	1c22      	adds	r2, r4, #0
    2fb2:	ab01      	add	r3, sp, #4
    2fb4:	f000 f8b6 	bl	3124 <_scanf_i>
    2fb8:	e009      	b.n	2fce <__svfiscanf_r+0x272>
    2fba:	4b13      	ldr	r3, [pc, #76]	; (3008 <__svfiscanf_r+0x2ac>)
    2fbc:	2b00      	cmp	r3, #0
    2fbe:	d100      	bne.n	2fc2 <__svfiscanf_r+0x266>
    2fc0:	e70b      	b.n	2dda <__svfiscanf_r+0x7e>
    2fc2:	1c38      	adds	r0, r7, #0
    2fc4:	a943      	add	r1, sp, #268	; 0x10c
    2fc6:	1c22      	adds	r2, r4, #0
    2fc8:	ab01      	add	r3, sp, #4
    2fca:	e000      	b.n	2fce <__svfiscanf_r+0x272>
    2fcc:	bf00      	nop
    2fce:	2801      	cmp	r0, #1
    2fd0:	d007      	beq.n	2fe2 <__svfiscanf_r+0x286>
    2fd2:	2802      	cmp	r0, #2
    2fd4:	d000      	beq.n	2fd8 <__svfiscanf_r+0x27c>
    2fd6:	e700      	b.n	2dda <__svfiscanf_r+0x7e>
    2fd8:	e76c      	b.n	2eb4 <__svfiscanf_r+0x158>
    2fda:	89a3      	ldrh	r3, [r4, #12]
    2fdc:	0659      	lsls	r1, r3, #25
    2fde:	d504      	bpl.n	2fea <__svfiscanf_r+0x28e>
    2fe0:	e001      	b.n	2fe6 <__svfiscanf_r+0x28a>
    2fe2:	9846      	ldr	r0, [sp, #280]	; 0x118
    2fe4:	e001      	b.n	2fea <__svfiscanf_r+0x28e>
    2fe6:	2001      	movs	r0, #1
    2fe8:	4240      	negs	r0, r0
    2fea:	23a5      	movs	r3, #165	; 0xa5
    2fec:	009b      	lsls	r3, r3, #2
    2fee:	449d      	add	sp, r3
    2ff0:	bdf0      	pop	{r4, r5, r6, r7, pc}
    2ff2:	46c0      	nop			; (mov r8, r8)
    2ff4:	fffffd6c 	.word	0xfffffd6c
    2ff8:	000026e9 	.word	0x000026e9
    2ffc:	00003685 	.word	0x00003685
    3000:	10000134 	.word	0x10000134
    3004:	00003fe0 	.word	0x00003fe0
    3008:	00000000 	.word	0x00000000

0000300c <_vfiscanf_r>:
    300c:	b5f8      	push	{r3, r4, r5, r6, r7, lr}
    300e:	1c05      	adds	r5, r0, #0
    3010:	1c0c      	adds	r4, r1, #0
    3012:	1c17      	adds	r7, r2, #0
    3014:	1c1e      	adds	r6, r3, #0
    3016:	2800      	cmp	r0, #0
    3018:	d004      	beq.n	3024 <_vfiscanf_r+0x18>
    301a:	6983      	ldr	r3, [r0, #24]
    301c:	2b00      	cmp	r3, #0
    301e:	d101      	bne.n	3024 <_vfiscanf_r+0x18>
    3020:	f7fe fcb8 	bl	1994 <__sinit>
    3024:	4b0a      	ldr	r3, [pc, #40]	; (3050 <_vfiscanf_r+0x44>)
    3026:	429c      	cmp	r4, r3
    3028:	d101      	bne.n	302e <_vfiscanf_r+0x22>
    302a:	686c      	ldr	r4, [r5, #4]
    302c:	e008      	b.n	3040 <_vfiscanf_r+0x34>
    302e:	4b09      	ldr	r3, [pc, #36]	; (3054 <_vfiscanf_r+0x48>)
    3030:	429c      	cmp	r4, r3
    3032:	d101      	bne.n	3038 <_vfiscanf_r+0x2c>
    3034:	68ac      	ldr	r4, [r5, #8]
    3036:	e003      	b.n	3040 <_vfiscanf_r+0x34>
    3038:	4b07      	ldr	r3, [pc, #28]	; (3058 <_vfiscanf_r+0x4c>)
    303a:	429c      	cmp	r4, r3
    303c:	d100      	bne.n	3040 <_vfiscanf_r+0x34>
    303e:	68ec      	ldr	r4, [r5, #12]
    3040:	1c28      	adds	r0, r5, #0
    3042:	1c3a      	adds	r2, r7, #0
    3044:	1c33      	adds	r3, r6, #0
    3046:	1c21      	adds	r1, r4, #0
    3048:	f7ff fe88 	bl	2d5c <__svfiscanf_r>
    304c:	bdf8      	pop	{r3, r4, r5, r6, r7, pc}
    304e:	46c0      	nop			; (mov r8, r8)
    3050:	00003f78 	.word	0x00003f78
    3054:	00003f98 	.word	0x00003f98
    3058:	00003fb8 	.word	0x00003fb8

0000305c <_scanf_chars>:
    305c:	b5f7      	push	{r0, r1, r2, r4, r5, r6, r7, lr}
    305e:	1c15      	adds	r5, r2, #0
    3060:	688a      	ldr	r2, [r1, #8]
    3062:	9001      	str	r0, [sp, #4]
    3064:	1c0c      	adds	r4, r1, #0
    3066:	2a00      	cmp	r2, #0
    3068:	d106      	bne.n	3078 <_scanf_chars+0x1c>
    306a:	698a      	ldr	r2, [r1, #24]
    306c:	1e51      	subs	r1, r2, #1
    306e:	418a      	sbcs	r2, r1
    3070:	4252      	negs	r2, r2
    3072:	2101      	movs	r1, #1
    3074:	430a      	orrs	r2, r1
    3076:	60a2      	str	r2, [r4, #8]
    3078:	6822      	ldr	r2, [r4, #0]
    307a:	06d2      	lsls	r2, r2, #27
    307c:	d403      	bmi.n	3086 <_scanf_chars+0x2a>
    307e:	681a      	ldr	r2, [r3, #0]
    3080:	1d11      	adds	r1, r2, #4
    3082:	6019      	str	r1, [r3, #0]
    3084:	6817      	ldr	r7, [r2, #0]
    3086:	2600      	movs	r6, #0
    3088:	69a0      	ldr	r0, [r4, #24]
    308a:	2800      	cmp	r0, #0
    308c:	d11d      	bne.n	30ca <_scanf_chars+0x6e>
    308e:	6823      	ldr	r3, [r4, #0]
    3090:	3601      	adds	r6, #1
    3092:	06db      	lsls	r3, r3, #27
    3094:	d403      	bmi.n	309e <_scanf_chars+0x42>
    3096:	682a      	ldr	r2, [r5, #0]
    3098:	7813      	ldrb	r3, [r2, #0]
    309a:	703b      	strb	r3, [r7, #0]
    309c:	3701      	adds	r7, #1
    309e:	682a      	ldr	r2, [r5, #0]
    30a0:	686b      	ldr	r3, [r5, #4]
    30a2:	3201      	adds	r2, #1
    30a4:	602a      	str	r2, [r5, #0]
    30a6:	68a2      	ldr	r2, [r4, #8]
    30a8:	3b01      	subs	r3, #1
    30aa:	3a01      	subs	r2, #1
    30ac:	606b      	str	r3, [r5, #4]
    30ae:	60a2      	str	r2, [r4, #8]
    30b0:	2a00      	cmp	r2, #0
    30b2:	d025      	beq.n	3100 <_scanf_chars+0xa4>
    30b4:	2b00      	cmp	r3, #0
    30b6:	dce7      	bgt.n	3088 <_scanf_chars+0x2c>
    30b8:	23c0      	movs	r3, #192	; 0xc0
    30ba:	005b      	lsls	r3, r3, #1
    30bc:	58e3      	ldr	r3, [r4, r3]
    30be:	9801      	ldr	r0, [sp, #4]
    30c0:	1c29      	adds	r1, r5, #0
    30c2:	4798      	blx	r3
    30c4:	2800      	cmp	r0, #0
    30c6:	d0df      	beq.n	3088 <_scanf_chars+0x2c>
    30c8:	e01a      	b.n	3100 <_scanf_chars+0xa4>
    30ca:	2801      	cmp	r0, #1
    30cc:	d108      	bne.n	30e0 <_scanf_chars+0x84>
    30ce:	682a      	ldr	r2, [r5, #0]
    30d0:	7813      	ldrb	r3, [r2, #0]
    30d2:	6962      	ldr	r2, [r4, #20]
    30d4:	5cd3      	ldrb	r3, [r2, r3]
    30d6:	2b00      	cmp	r3, #0
    30d8:	d1d9      	bne.n	308e <_scanf_chars+0x32>
    30da:	2e00      	cmp	r6, #0
    30dc:	d01f      	beq.n	311e <_scanf_chars+0xc2>
    30de:	e00f      	b.n	3100 <_scanf_chars+0xa4>
    30e0:	2802      	cmp	r0, #2
    30e2:	d002      	beq.n	30ea <_scanf_chars+0x8e>
    30e4:	2e00      	cmp	r6, #0
    30e6:	d009      	beq.n	30fc <_scanf_chars+0xa0>
    30e8:	e00a      	b.n	3100 <_scanf_chars+0xa4>
    30ea:	682a      	ldr	r2, [r5, #0]
    30ec:	7813      	ldrb	r3, [r2, #0]
    30ee:	4a0c      	ldr	r2, [pc, #48]	; (3120 <_scanf_chars+0xc4>)
    30f0:	6812      	ldr	r2, [r2, #0]
    30f2:	18d3      	adds	r3, r2, r3
    30f4:	785b      	ldrb	r3, [r3, #1]
    30f6:	071a      	lsls	r2, r3, #28
    30f8:	d5c9      	bpl.n	308e <_scanf_chars+0x32>
    30fa:	e7f3      	b.n	30e4 <_scanf_chars+0x88>
    30fc:	2801      	cmp	r0, #1
    30fe:	d00e      	beq.n	311e <_scanf_chars+0xc2>
    3100:	6822      	ldr	r2, [r4, #0]
    3102:	2310      	movs	r3, #16
    3104:	4013      	ands	r3, r2
    3106:	d106      	bne.n	3116 <_scanf_chars+0xba>
    3108:	68e2      	ldr	r2, [r4, #12]
    310a:	3201      	adds	r2, #1
    310c:	60e2      	str	r2, [r4, #12]
    310e:	69a2      	ldr	r2, [r4, #24]
    3110:	2a00      	cmp	r2, #0
    3112:	d000      	beq.n	3116 <_scanf_chars+0xba>
    3114:	703b      	strb	r3, [r7, #0]
    3116:	6923      	ldr	r3, [r4, #16]
    3118:	2000      	movs	r0, #0
    311a:	199e      	adds	r6, r3, r6
    311c:	6126      	str	r6, [r4, #16]
    311e:	bdfe      	pop	{r1, r2, r3, r4, r5, r6, r7, pc}
    3120:	10000134 	.word	0x10000134

00003124 <_scanf_i>:
    3124:	b5f0      	push	{r4, r5, r6, r7, lr}
    3126:	1c15      	adds	r5, r2, #0
    3128:	b08b      	sub	sp, #44	; 0x2c
    312a:	4a77      	ldr	r2, [pc, #476]	; (3308 <_scanf_i+0x1e4>)
    312c:	9004      	str	r0, [sp, #16]
    312e:	9302      	str	r3, [sp, #8]
    3130:	ab07      	add	r3, sp, #28
    3132:	cac1      	ldmia	r2!, {r0, r6, r7}
    3134:	c3c1      	stmia	r3!, {r0, r6, r7}
    3136:	6988      	ldr	r0, [r1, #24]
    3138:	1c0c      	adds	r4, r1, #0
    313a:	2803      	cmp	r0, #3
    313c:	d102      	bne.n	3144 <_scanf_i+0x20>
    313e:	4e73      	ldr	r6, [pc, #460]	; (330c <_scanf_i+0x1e8>)
    3140:	9605      	str	r6, [sp, #20]
    3142:	e001      	b.n	3148 <_scanf_i+0x24>
    3144:	4f72      	ldr	r7, [pc, #456]	; (3310 <_scanf_i+0x1ec>)
    3146:	9705      	str	r7, [sp, #20]
    3148:	68a3      	ldr	r3, [r4, #8]
    314a:	2600      	movs	r6, #0
    314c:	22ae      	movs	r2, #174	; 0xae
    314e:	1e59      	subs	r1, r3, #1
    3150:	9603      	str	r6, [sp, #12]
    3152:	0052      	lsls	r2, r2, #1
    3154:	4291      	cmp	r1, r2
    3156:	d905      	bls.n	3164 <_scanf_i+0x40>
    3158:	3b5e      	subs	r3, #94	; 0x5e
    315a:	3bff      	subs	r3, #255	; 0xff
    315c:	9303      	str	r3, [sp, #12]
    315e:	235e      	movs	r3, #94	; 0x5e
    3160:	33ff      	adds	r3, #255	; 0xff
    3162:	60a3      	str	r3, [r4, #8]
    3164:	6820      	ldr	r0, [r4, #0]
    3166:	23d0      	movs	r3, #208	; 0xd0
    3168:	1c27      	adds	r7, r4, #0
    316a:	011b      	lsls	r3, r3, #4
    316c:	371c      	adds	r7, #28
    316e:	4303      	orrs	r3, r0
    3170:	9701      	str	r7, [sp, #4]
    3172:	9700      	str	r7, [sp, #0]
    3174:	6023      	str	r3, [r4, #0]
    3176:	2700      	movs	r7, #0
    3178:	aa07      	add	r2, sp, #28
    317a:	00bb      	lsls	r3, r7, #2
    317c:	5898      	ldr	r0, [r3, r2]
    317e:	682a      	ldr	r2, [r5, #0]
    3180:	7811      	ldrb	r1, [r2, #0]
    3182:	2202      	movs	r2, #2
    3184:	f000 fa2c 	bl	35e0 <memchr>
    3188:	2800      	cmp	r0, #0
    318a:	d03a      	beq.n	3202 <_scanf_i+0xde>
    318c:	2f01      	cmp	r7, #1
    318e:	d10d      	bne.n	31ac <_scanf_i+0x88>
    3190:	6863      	ldr	r3, [r4, #4]
    3192:	2b00      	cmp	r3, #0
    3194:	d106      	bne.n	31a4 <_scanf_i+0x80>
    3196:	2308      	movs	r3, #8
    3198:	6826      	ldr	r6, [r4, #0]
    319a:	6063      	str	r3, [r4, #4]
    319c:	2380      	movs	r3, #128	; 0x80
    319e:	009b      	lsls	r3, r3, #2
    31a0:	4333      	orrs	r3, r6
    31a2:	6023      	str	r3, [r4, #0]
    31a4:	4b5b      	ldr	r3, [pc, #364]	; (3314 <_scanf_i+0x1f0>)
    31a6:	6820      	ldr	r0, [r4, #0]
    31a8:	4003      	ands	r3, r0
    31aa:	e00e      	b.n	31ca <_scanf_i+0xa6>
    31ac:	2f02      	cmp	r7, #2
    31ae:	d10d      	bne.n	31cc <_scanf_i+0xa8>
    31b0:	6823      	ldr	r3, [r4, #0]
    31b2:	21c0      	movs	r1, #192	; 0xc0
    31b4:	00c9      	lsls	r1, r1, #3
    31b6:	2280      	movs	r2, #128	; 0x80
    31b8:	4019      	ands	r1, r3
    31ba:	0092      	lsls	r2, r2, #2
    31bc:	4291      	cmp	r1, r2
    31be:	d123      	bne.n	3208 <_scanf_i+0xe4>
    31c0:	2210      	movs	r2, #16
    31c2:	6062      	str	r2, [r4, #4]
    31c4:	2280      	movs	r2, #128	; 0x80
    31c6:	0052      	lsls	r2, r2, #1
    31c8:	4313      	orrs	r3, r2
    31ca:	6023      	str	r3, [r4, #0]
    31cc:	68a3      	ldr	r3, [r4, #8]
    31ce:	1e5a      	subs	r2, r3, #1
    31d0:	60a2      	str	r2, [r4, #8]
    31d2:	2b00      	cmp	r3, #0
    31d4:	d015      	beq.n	3202 <_scanf_i+0xde>
    31d6:	682b      	ldr	r3, [r5, #0]
    31d8:	9900      	ldr	r1, [sp, #0]
    31da:	1c5a      	adds	r2, r3, #1
    31dc:	602a      	str	r2, [r5, #0]
    31de:	781b      	ldrb	r3, [r3, #0]
    31e0:	9e00      	ldr	r6, [sp, #0]
    31e2:	700b      	strb	r3, [r1, #0]
    31e4:	686b      	ldr	r3, [r5, #4]
    31e6:	3601      	adds	r6, #1
    31e8:	3b01      	subs	r3, #1
    31ea:	606b      	str	r3, [r5, #4]
    31ec:	9600      	str	r6, [sp, #0]
    31ee:	2b00      	cmp	r3, #0
    31f0:	dc07      	bgt.n	3202 <_scanf_i+0xde>
    31f2:	23c0      	movs	r3, #192	; 0xc0
    31f4:	005b      	lsls	r3, r3, #1
    31f6:	58e3      	ldr	r3, [r4, r3]
    31f8:	9804      	ldr	r0, [sp, #16]
    31fa:	1c29      	adds	r1, r5, #0
    31fc:	4798      	blx	r3
    31fe:	2800      	cmp	r0, #0
    3200:	d143      	bne.n	328a <_scanf_i+0x166>
    3202:	3701      	adds	r7, #1
    3204:	2f03      	cmp	r7, #3
    3206:	d1b7      	bne.n	3178 <_scanf_i+0x54>
    3208:	6862      	ldr	r2, [r4, #4]
    320a:	2a00      	cmp	r2, #0
    320c:	d101      	bne.n	3212 <_scanf_i+0xee>
    320e:	230a      	movs	r3, #10
    3210:	6063      	str	r3, [r4, #4]
    3212:	6863      	ldr	r3, [r4, #4]
    3214:	2110      	movs	r1, #16
    3216:	1ac9      	subs	r1, r1, r3
    3218:	4b3f      	ldr	r3, [pc, #252]	; (3318 <_scanf_i+0x1f4>)
    321a:	6960      	ldr	r0, [r4, #20]
    321c:	18c9      	adds	r1, r1, r3
    321e:	f000 fab9 	bl	3794 <__sccl>
    3222:	9e00      	ldr	r6, [sp, #0]
    3224:	2700      	movs	r7, #0
    3226:	68a3      	ldr	r3, [r4, #8]
    3228:	2b00      	cmp	r3, #0
    322a:	d02f      	beq.n	328c <_scanf_i+0x168>
    322c:	682a      	ldr	r2, [r5, #0]
    322e:	6961      	ldr	r1, [r4, #20]
    3230:	7810      	ldrb	r0, [r2, #0]
    3232:	5c09      	ldrb	r1, [r1, r0]
    3234:	2900      	cmp	r1, #0
    3236:	d029      	beq.n	328c <_scanf_i+0x168>
    3238:	6821      	ldr	r1, [r4, #0]
    323a:	2830      	cmp	r0, #48	; 0x30
    323c:	d10a      	bne.n	3254 <_scanf_i+0x130>
    323e:	0508      	lsls	r0, r1, #20
    3240:	d508      	bpl.n	3254 <_scanf_i+0x130>
    3242:	9903      	ldr	r1, [sp, #12]
    3244:	3701      	adds	r7, #1
    3246:	2900      	cmp	r1, #0
    3248:	d00a      	beq.n	3260 <_scanf_i+0x13c>
    324a:	3901      	subs	r1, #1
    324c:	3301      	adds	r3, #1
    324e:	9103      	str	r1, [sp, #12]
    3250:	60a3      	str	r3, [r4, #8]
    3252:	e005      	b.n	3260 <_scanf_i+0x13c>
    3254:	4b31      	ldr	r3, [pc, #196]	; (331c <_scanf_i+0x1f8>)
    3256:	4019      	ands	r1, r3
    3258:	6021      	str	r1, [r4, #0]
    325a:	7813      	ldrb	r3, [r2, #0]
    325c:	7033      	strb	r3, [r6, #0]
    325e:	3601      	adds	r6, #1
    3260:	686b      	ldr	r3, [r5, #4]
    3262:	3b01      	subs	r3, #1
    3264:	606b      	str	r3, [r5, #4]
    3266:	2b00      	cmp	r3, #0
    3268:	dd03      	ble.n	3272 <_scanf_i+0x14e>
    326a:	682b      	ldr	r3, [r5, #0]
    326c:	3301      	adds	r3, #1
    326e:	602b      	str	r3, [r5, #0]
    3270:	e007      	b.n	3282 <_scanf_i+0x15e>
    3272:	23c0      	movs	r3, #192	; 0xc0
    3274:	005b      	lsls	r3, r3, #1
    3276:	58e3      	ldr	r3, [r4, r3]
    3278:	9804      	ldr	r0, [sp, #16]
    327a:	1c29      	adds	r1, r5, #0
    327c:	4798      	blx	r3
    327e:	2800      	cmp	r0, #0
    3280:	d104      	bne.n	328c <_scanf_i+0x168>
    3282:	68a3      	ldr	r3, [r4, #8]
    3284:	3b01      	subs	r3, #1
    3286:	60a3      	str	r3, [r4, #8]
    3288:	e7cd      	b.n	3226 <_scanf_i+0x102>
    328a:	2700      	movs	r7, #0
    328c:	6822      	ldr	r2, [r4, #0]
    328e:	05d2      	lsls	r2, r2, #23
    3290:	d50d      	bpl.n	32ae <_scanf_i+0x18a>
    3292:	9b01      	ldr	r3, [sp, #4]
    3294:	429e      	cmp	r6, r3
    3296:	d907      	bls.n	32a8 <_scanf_i+0x184>
    3298:	23be      	movs	r3, #190	; 0xbe
    329a:	3e01      	subs	r6, #1
    329c:	005b      	lsls	r3, r3, #1
    329e:	7831      	ldrb	r1, [r6, #0]
    32a0:	58e3      	ldr	r3, [r4, r3]
    32a2:	9804      	ldr	r0, [sp, #16]
    32a4:	1c2a      	adds	r2, r5, #0
    32a6:	4798      	blx	r3
    32a8:	9d01      	ldr	r5, [sp, #4]
    32aa:	42ae      	cmp	r6, r5
    32ac:	d028      	beq.n	3300 <_scanf_i+0x1dc>
    32ae:	6820      	ldr	r0, [r4, #0]
    32b0:	2210      	movs	r2, #16
    32b2:	4002      	ands	r2, r0
    32b4:	d11c      	bne.n	32f0 <_scanf_i+0x1cc>
    32b6:	7032      	strb	r2, [r6, #0]
    32b8:	6863      	ldr	r3, [r4, #4]
    32ba:	9d05      	ldr	r5, [sp, #20]
    32bc:	9804      	ldr	r0, [sp, #16]
    32be:	9901      	ldr	r1, [sp, #4]
    32c0:	47a8      	blx	r5
    32c2:	9d02      	ldr	r5, [sp, #8]
    32c4:	6822      	ldr	r2, [r4, #0]
    32c6:	682b      	ldr	r3, [r5, #0]
    32c8:	0691      	lsls	r1, r2, #26
    32ca:	d501      	bpl.n	32d0 <_scanf_i+0x1ac>
    32cc:	1d1a      	adds	r2, r3, #4
    32ce:	e009      	b.n	32e4 <_scanf_i+0x1c0>
    32d0:	07d5      	lsls	r5, r2, #31
    32d2:	d505      	bpl.n	32e0 <_scanf_i+0x1bc>
    32d4:	9d02      	ldr	r5, [sp, #8]
    32d6:	1d1a      	adds	r2, r3, #4
    32d8:	602a      	str	r2, [r5, #0]
    32da:	681b      	ldr	r3, [r3, #0]
    32dc:	8018      	strh	r0, [r3, #0]
    32de:	e004      	b.n	32ea <_scanf_i+0x1c6>
    32e0:	9d02      	ldr	r5, [sp, #8]
    32e2:	1d1a      	adds	r2, r3, #4
    32e4:	602a      	str	r2, [r5, #0]
    32e6:	681b      	ldr	r3, [r3, #0]
    32e8:	6018      	str	r0, [r3, #0]
    32ea:	68e3      	ldr	r3, [r4, #12]
    32ec:	3301      	adds	r3, #1
    32ee:	60e3      	str	r3, [r4, #12]
    32f0:	9d01      	ldr	r5, [sp, #4]
    32f2:	2000      	movs	r0, #0
    32f4:	1b76      	subs	r6, r6, r5
    32f6:	19f7      	adds	r7, r6, r7
    32f8:	6926      	ldr	r6, [r4, #16]
    32fa:	19f7      	adds	r7, r6, r7
    32fc:	6127      	str	r7, [r4, #16]
    32fe:	e000      	b.n	3302 <_scanf_i+0x1de>
    3300:	2001      	movs	r0, #1
    3302:	b00b      	add	sp, #44	; 0x2c
    3304:	bdf0      	pop	{r4, r5, r6, r7, pc}
    3306:	46c0      	nop			; (mov r8, r8)
    3308:	00004014 	.word	0x00004014
    330c:	000037fd 	.word	0x000037fd
    3310:	00003911 	.word	0x00003911
    3314:	fffffaff 	.word	0xfffffaff
    3318:	00004020 	.word	0x00004020
    331c:	fffff6ff 	.word	0xfffff6ff

00003320 <__swbuf_r>:
    3320:	b570      	push	{r4, r5, r6, lr}
    3322:	1c05      	adds	r5, r0, #0
    3324:	1c0e      	adds	r6, r1, #0
    3326:	1c14      	adds	r4, r2, #0
    3328:	2800      	cmp	r0, #0
    332a:	d004      	beq.n	3336 <__swbuf_r+0x16>
