
LPC11U24/StdIO.elf:     file format elf32-littlearm
architecture: arm, flags 0x00000112:
EXEC_P, HAS_SYMS, D_PAGED
start address 0x000000c1


Disassembly of section .text:

00000000 <__isr_vector>:
       0:	10002000 	.word	0x10002000
       4:	000000c1 	.word	0x000000c1
       8:	00000529 	.word	0x00000529
       c:	0000052b 	.word	0x0000052b
	...
      2c:	0000052d 	.word	0x0000052d
	...
      38:	0000052f 	.word	0x0000052f
      3c:	00000531 	.word	0x00000531
      40:	00000533 	.word	0x00000533
      44:	00000533 	.word	0x00000533
      48:	00000533 	.word	0x00000533
      4c:	00000533 	.word	0x00000533
      50:	00000533 	.word	0x00000533
      54:	00000533 	.word	0x00000533
      58:	00000533 	.word	0x00000533
      5c:	00000533 	.word	0x00000533
      60:	00000533 	.word	0x00000533
      64:	00000533 	.word	0x00000533
      68:	00000533 	.word	0x00000533
      6c:	00000533 	.word	0x00000533
      70:	00000533 	.word	0x00000533
      74:	00000533 	.word	0x00000533
      78:	00000533 	.word	0x00000533
      7c:	00000533 	.word	0x00000533
      80:	00000533 	.word	0x00000533
      84:	00000533 	.word	0x00000533
      88:	00000533 	.word	0x00000533
      8c:	00000533 	.word	0x00000533
      90:	00000533 	.word	0x00000533
      94:	00000533 	.word	0x00000533
      98:	00000533 	.word	0x00000533
      9c:	00000533 	.word	0x00000533
      a0:	00000533 	.word	0x00000533
      a4:	00000533 	.word	0x00000533
      a8:	00000533 	.word	0x00000533
      ac:	00000533 	.word	0x00000533
      b0:	00000533 	.word	0x00000533
      b4:	00000533 	.word	0x00000533
      b8:	00000533 	.word	0x00000533
      bc:	00000533 	.word	0x00000533

000000c0 <Reset_Handler>:
      c0:	4907      	ldr	r1, [pc, #28]	; (e0 <Reset_Handler+0x20>)
      c2:	4a08      	ldr	r2, [pc, #32]	; (e4 <Reset_Handler+0x24>)
      c4:	4b08      	ldr	r3, [pc, #32]	; (e8 <Reset_Handler+0x28>)
      c6:	1a9b      	subs	r3, r3, r2
      c8:	dd05      	ble.n	d6 <Reset_Handler+0x16>
      ca:	2400      	movs	r4, #0
      cc:	5908      	ldr	r0, [r1, r4]
      ce:	5110      	str	r0, [r2, r4]
      d0:	3404      	adds	r4, #4
      d2:	429c      	cmp	r4, r3
      d4:	dbfa      	blt.n	cc <Reset_Handler+0xc>
      d6:	4805      	ldr	r0, [pc, #20]	; (ec <Reset_Handler+0x2c>)
      d8:	4780      	blx	r0
      da:	4805      	ldr	r0, [pc, #20]	; (f0 <Reset_Handler+0x30>)
      dc:	4700      	bx	r0
      de:	0000      	.short	0x0000
      e0:	00002bdc 	.word	0x00002bdc
      e4:	100000c0 	.word	0x100000c0
      e8:	1000013c 	.word	0x1000013c
      ec:	000000f5 	.word	0x000000f5
      f0:	00000315 	.word	0x00000315

000000f4 <SystemInit>:
      f4:	b510      	push	{r4, lr}
      f6:	4b34      	ldr	r3, [pc, #208]	; (1c8 <SystemInit+0xd4>)
      f8:	228e      	movs	r2, #142	; 0x8e
      fa:	0092      	lsls	r2, r2, #2
      fc:	5899      	ldr	r1, [r3, r2]
      fe:	2020      	movs	r0, #32
     100:	4381      	bics	r1, r0
     102:	5099      	str	r1, [r3, r2]
     104:	b082      	sub	sp, #8
     106:	2200      	movs	r2, #0
     108:	621a      	str	r2, [r3, #32]
     10a:	9201      	str	r2, [sp, #4]
     10c:	9b01      	ldr	r3, [sp, #4]
     10e:	2bc7      	cmp	r3, #199	; 0xc7
     110:	d806      	bhi.n	120 <SystemInit+0x2c>
     112:	46c0      	nop			; (mov r8, r8)
     114:	9b01      	ldr	r3, [sp, #4]
     116:	3301      	adds	r3, #1
     118:	9301      	str	r3, [sp, #4]
     11a:	9b01      	ldr	r3, [sp, #4]
     11c:	2bc7      	cmp	r3, #199	; 0xc7
     11e:	d9f8      	bls.n	112 <SystemInit+0x1e>
     120:	4829      	ldr	r0, [pc, #164]	; (1c8 <SystemInit+0xd4>)
     122:	2301      	movs	r3, #1
     124:	2200      	movs	r2, #0
     126:	6403      	str	r3, [r0, #64]	; 0x40
     128:	2101      	movs	r1, #1
     12a:	6443      	str	r3, [r0, #68]	; 0x44
     12c:	6442      	str	r2, [r0, #68]	; 0x44
     12e:	6443      	str	r3, [r0, #68]	; 0x44
     130:	6c43      	ldr	r3, [r0, #68]	; 0x44
     132:	4a25      	ldr	r2, [pc, #148]	; (1c8 <SystemInit+0xd4>)
     134:	4219      	tst	r1, r3
     136:	d0fb      	beq.n	130 <SystemInit+0x3c>
     138:	2323      	movs	r3, #35	; 0x23
     13a:	6093      	str	r3, [r2, #8]
     13c:	238e      	movs	r3, #142	; 0x8e
     13e:	009b      	lsls	r3, r3, #2
     140:	58d1      	ldr	r1, [r2, r3]
     142:	2080      	movs	r0, #128	; 0x80
     144:	4381      	bics	r1, r0
     146:	50d1      	str	r1, [r2, r3]
     148:	1c14      	adds	r4, r2, #0
     14a:	2001      	movs	r0, #1
     14c:	68e3      	ldr	r3, [r4, #12]
     14e:	4a1e      	ldr	r2, [pc, #120]	; (1c8 <SystemInit+0xd4>)
     150:	2101      	movs	r1, #1
     152:	4218      	tst	r0, r3
     154:	d0fa      	beq.n	14c <SystemInit+0x58>
     156:	2303      	movs	r3, #3
     158:	6713      	str	r3, [r2, #112]	; 0x70
     15a:	2300      	movs	r3, #0
     15c:	6751      	str	r1, [r2, #116]	; 0x74
     15e:	1c14      	adds	r4, r2, #0
     160:	6753      	str	r3, [r2, #116]	; 0x74
     162:	2001      	movs	r0, #1
     164:	6751      	str	r1, [r2, #116]	; 0x74
     166:	6f63      	ldr	r3, [r4, #116]	; 0x74
     168:	4a17      	ldr	r2, [pc, #92]	; (1c8 <SystemInit+0xd4>)
     16a:	2101      	movs	r1, #1
     16c:	4218      	tst	r0, r3
     16e:	d0fa      	beq.n	166 <SystemInit+0x72>
     170:	238e      	movs	r3, #142	; 0x8e
     172:	6791      	str	r1, [r2, #120]	; 0x78
     174:	009b      	lsls	r3, r3, #2
     176:	58d4      	ldr	r4, [r2, r3]
     178:	4814      	ldr	r0, [pc, #80]	; (1cc <SystemInit+0xd8>)
     17a:	4020      	ands	r0, r4
     17c:	50d0      	str	r0, [r2, r3]
     17e:	58d4      	ldr	r4, [r2, r3]
     180:	4813      	ldr	r0, [pc, #76]	; (1d0 <SystemInit+0xdc>)
     182:	4020      	ands	r0, r4
     184:	50d0      	str	r0, [r2, r3]
     186:	2300      	movs	r3, #0
     188:	6491      	str	r1, [r2, #72]	; 0x48
     18a:	2001      	movs	r0, #1
     18c:	64d1      	str	r1, [r2, #76]	; 0x4c
     18e:	64d3      	str	r3, [r2, #76]	; 0x4c
     190:	64d1      	str	r1, [r2, #76]	; 0x4c
     192:	6cd3      	ldr	r3, [r2, #76]	; 0x4c
     194:	490c      	ldr	r1, [pc, #48]	; (1c8 <SystemInit+0xd4>)
     196:	4218      	tst	r0, r3
     198:	d0fb      	beq.n	192 <SystemInit+0x9e>
     19a:	2323      	movs	r3, #35	; 0x23
     19c:	610b      	str	r3, [r1, #16]
     19e:	2001      	movs	r0, #1
     1a0:	694b      	ldr	r3, [r1, #20]
     1a2:	4a09      	ldr	r2, [pc, #36]	; (1c8 <SystemInit+0xd4>)
     1a4:	4218      	tst	r0, r3
     1a6:	d0fb      	beq.n	1a0 <SystemInit+0xac>
     1a8:	23c0      	movs	r3, #192	; 0xc0
     1aa:	2100      	movs	r1, #0
     1ac:	50d1      	str	r1, [r2, r3]
     1ae:	50d1      	str	r1, [r2, r3]
     1b0:	23c8      	movs	r3, #200	; 0xc8
     1b2:	2101      	movs	r1, #1
     1b4:	50d1      	str	r1, [r2, r3]
     1b6:	2380      	movs	r3, #128	; 0x80
     1b8:	58d0      	ldr	r0, [r2, r3]
     1ba:	2180      	movs	r1, #128	; 0x80
     1bc:	0249      	lsls	r1, r1, #9
     1be:	4301      	orrs	r1, r0
     1c0:	50d1      	str	r1, [r2, r3]
     1c2:	b002      	add	sp, #8
     1c4:	bd10      	pop	{r4, pc}
     1c6:	46c0      	nop			; (mov r8, r8)
     1c8:	40048000 	.word	0x40048000
     1cc:	fffffbff 	.word	0xfffffbff
     1d0:	fffffeff 	.word	0xfffffeff
	...

00000200 <__do_global_dtors_aux>:
     200:	b510      	push	{r4, lr}
     202:	4c06      	ldr	r4, [pc, #24]	; (21c <__do_global_dtors_aux+0x1c>)
     204:	7823      	ldrb	r3, [r4, #0]
     206:	2b00      	cmp	r3, #0
     208:	d107      	bne.n	21a <__do_global_dtors_aux+0x1a>
     20a:	4b05      	ldr	r3, [pc, #20]	; (220 <__do_global_dtors_aux+0x20>)
     20c:	2b00      	cmp	r3, #0
     20e:	d002      	beq.n	216 <__do_global_dtors_aux+0x16>
     210:	4804      	ldr	r0, [pc, #16]	; (224 <__do_global_dtors_aux+0x24>)
     212:	e000      	b.n	216 <__do_global_dtors_aux+0x16>
     214:	bf00      	nop
     216:	2301      	movs	r3, #1
     218:	7023      	strb	r3, [r4, #0]
     21a:	bd10      	pop	{r4, pc}
     21c:	1000013c 	.word	0x1000013c
     220:	00000000 	.word	0x00000000
     224:	00002bd8 	.word	0x00002bd8

00000228 <frame_dummy>:
     228:	b508      	push	{r3, lr}
     22a:	4b08      	ldr	r3, [pc, #32]	; (24c <frame_dummy+0x24>)
     22c:	2b00      	cmp	r3, #0
     22e:	d003      	beq.n	238 <frame_dummy+0x10>
     230:	4807      	ldr	r0, [pc, #28]	; (250 <frame_dummy+0x28>)
     232:	4908      	ldr	r1, [pc, #32]	; (254 <frame_dummy+0x2c>)
     234:	e000      	b.n	238 <frame_dummy+0x10>
     236:	bf00      	nop
     238:	4807      	ldr	r0, [pc, #28]	; (258 <frame_dummy+0x30>)
     23a:	6803      	ldr	r3, [r0, #0]
     23c:	2b00      	cmp	r3, #0
     23e:	d003      	beq.n	248 <frame_dummy+0x20>
     240:	4b06      	ldr	r3, [pc, #24]	; (25c <frame_dummy+0x34>)
     242:	2b00      	cmp	r3, #0
     244:	d000      	beq.n	248 <frame_dummy+0x20>
     246:	4798      	blx	r3
     248:	bd08      	pop	{r3, pc}
     24a:	46c0      	nop			; (mov r8, r8)
     24c:	00000000 	.word	0x00000000
     250:	00002bd8 	.word	0x00002bd8
     254:	10000140 	.word	0x10000140
     258:	1000013c 	.word	0x1000013c
     25c:	00000000 	.word	0x00000000

00000260 <main>:
     260:	b5f0      	push	{r4, r5, r6, r7, lr}
     262:	2301      	movs	r3, #1
     264:	b083      	sub	sp, #12
     266:	425b      	negs	r3, r3
     268:	481e      	ldr	r0, [pc, #120]	; (2e4 <main+0x84>)
     26a:	9301      	str	r3, [sp, #4]
     26c:	f001 f864 	bl	1338 <puts>
     270:	481d      	ldr	r0, [pc, #116]	; (2e8 <main+0x88>)
     272:	f001 f861 	bl	1338 <puts>
     276:	481d      	ldr	r0, [pc, #116]	; (2ec <main+0x8c>)
     278:	f001 f85e 	bl	1338 <puts>
     27c:	481c      	ldr	r0, [pc, #112]	; (2f0 <main+0x90>)
     27e:	f001 f85b 	bl	1338 <puts>
     282:	4f1c      	ldr	r7, [pc, #112]	; (2f4 <main+0x94>)
     284:	1c38      	adds	r0, r7, #0
     286:	f000 ffdb 	bl	1240 <iprintf>
     28a:	4e1b      	ldr	r6, [pc, #108]	; (2f8 <main+0x98>)
     28c:	a901      	add	r1, sp, #4
     28e:	1c30      	adds	r0, r6, #0
     290:	f001 f86e 	bl	1370 <iscanf>
     294:	4d19      	ldr	r5, [pc, #100]	; (2fc <main+0x9c>)
     296:	9901      	ldr	r1, [sp, #4]
     298:	1c28      	adds	r0, r5, #0
     29a:	f000 ffd1 	bl	1240 <iprintf>
     29e:	4c18      	ldr	r4, [pc, #96]	; (300 <main+0xa0>)
     2a0:	2101      	movs	r1, #1
     2a2:	6823      	ldr	r3, [r4, #0]
     2a4:	2223      	movs	r2, #35	; 0x23
     2a6:	689b      	ldr	r3, [r3, #8]
     2a8:	4816      	ldr	r0, [pc, #88]	; (304 <main+0xa4>)
     2aa:	f000 fee5 	bl	1078 <fwrite>
     2ae:	6823      	ldr	r3, [r4, #0]
     2b0:	2101      	movs	r1, #1
     2b2:	68db      	ldr	r3, [r3, #12]
     2b4:	2223      	movs	r2, #35	; 0x23
     2b6:	4814      	ldr	r0, [pc, #80]	; (308 <main+0xa8>)
     2b8:	f000 fede 	bl	1078 <fwrite>
     2bc:	4813      	ldr	r0, [pc, #76]	; (30c <main+0xac>)
     2be:	f001 f83b 	bl	1338 <puts>
     2c2:	1c38      	adds	r0, r7, #0
     2c4:	f000 ffbc 	bl	1240 <iprintf>
     2c8:	6823      	ldr	r3, [r4, #0]
     2ca:	1c31      	adds	r1, r6, #0
     2cc:	6858      	ldr	r0, [r3, #4]
     2ce:	aa01      	add	r2, sp, #4
     2d0:	f000 fe24 	bl	f1c <fiscanf>
     2d4:	1c28      	adds	r0, r5, #0
     2d6:	9901      	ldr	r1, [sp, #4]
     2d8:	f000 ffb2 	bl	1240 <iprintf>
     2dc:	480c      	ldr	r0, [pc, #48]	; (310 <main+0xb0>)
     2de:	f001 f82b 	bl	1338 <puts>
     2e2:	e7fe      	b.n	2e2 <main+0x82>
     2e4:	00002844 	.word	0x00002844
     2e8:	00002860 	.word	0x00002860
     2ec:	0000287c 	.word	0x0000287c
     2f0:	00002894 	.word	0x00002894
     2f4:	000028ac 	.word	0x000028ac
     2f8:	000028d0 	.word	0x000028d0
     2fc:	000028d4 	.word	0x000028d4
     300:	1000012c 	.word	0x1000012c
     304:	000028f0 	.word	0x000028f0
     308:	00002914 	.word	0x00002914
     30c:	00002938 	.word	0x00002938
     310:	0000295c 	.word	0x0000295c

00000314 <_start>:
     314:	4807      	ldr	r0, [pc, #28]	; (334 <_start+0x20>)
     316:	4a08      	ldr	r2, [pc, #32]	; (338 <_start+0x24>)
     318:	b508      	push	{r3, lr}
     31a:	1a12      	subs	r2, r2, r0
     31c:	2100      	movs	r1, #0
     31e:	f000 feea 	bl	10f6 <memset>
     322:	e000      	b.n	326 <_start+0x12>
     324:	bf00      	nop
     326:	f000 feb7 	bl	1098 <__libc_init_array>
     32a:	f7ff ff99 	bl	260 <main>
     32e:	f000 f80f 	bl	350 <exit>
     332:	46c0      	nop			; (mov r8, r8)
     334:	1000013c 	.word	0x1000013c
     338:	1000027c 	.word	0x1000027c

0000033c <__wrap__isatty>:
     33c:	b508      	push	{r3, lr}
     33e:	2301      	movs	r3, #1
     340:	2802      	cmp	r0, #2
     342:	dd02      	ble.n	34a <__wrap__isatty+0xe>
     344:	f000 f8a4 	bl	490 <_isatty>
     348:	1c03      	adds	r3, r0, #0
     34a:	1c18      	adds	r0, r3, #0
     34c:	bd08      	pop	{r3, pc}
     34e:	46c0      	nop			; (mov r8, r8)

00000350 <exit>:
     350:	b538      	push	{r3, r4, r5, lr}
     352:	4c0b      	ldr	r4, [pc, #44]	; (380 <exit+0x30>)
     354:	1c05      	adds	r5, r0, #0
     356:	6823      	ldr	r3, [r4, #0]
     358:	6898      	ldr	r0, [r3, #8]
     35a:	f000 fd07 	bl	d6c <fflush>
     35e:	6823      	ldr	r3, [r4, #0]
     360:	68d8      	ldr	r0, [r3, #12]
     362:	f000 fd03 	bl	d6c <fflush>
     366:	f000 f80d 	bl	384 <mbed_interface_connected>
     36a:	2800      	cmp	r0, #0
     36c:	d105      	bne.n	37a <exit+0x2a>
     36e:	2d00      	cmp	r5, #0
     370:	d100      	bne.n	374 <exit+0x24>
     372:	e7fe      	b.n	372 <exit+0x22>
     374:	f000 fa2a 	bl	7cc <mbed_die>
     378:	e7fb      	b.n	372 <exit+0x22>
     37a:	f000 f807 	bl	38c <semihost_exit>
     37e:	e7f6      	b.n	36e <exit+0x1e>
     380:	1000012c 	.word	0x1000012c

00000384 <mbed_interface_connected>:
     384:	b508      	push	{r3, lr}
     386:	f000 f80d 	bl	3a4 <semihost_connected>
     38a:	bd08      	pop	{r3, pc}

0000038c <semihost_exit>:
     38c:	b530      	push	{r4, r5, lr}
     38e:	b085      	sub	sp, #20
     390:	466d      	mov	r5, sp
     392:	2418      	movs	r4, #24
     394:	1c20      	adds	r0, r4, #0
     396:	1c29      	adds	r1, r5, #0
     398:	beab      	bkpt	0x00ab
     39a:	1c04      	adds	r4, r0, #0
     39c:	1c20      	adds	r0, r4, #0
     39e:	b005      	add	sp, #20
     3a0:	bd30      	pop	{r4, r5, pc}
     3a2:	46c0      	nop			; (mov r8, r8)

000003a4 <semihost_connected>:
     3a4:	4b01      	ldr	r3, [pc, #4]	; (3ac <semihost_connected+0x8>)
     3a6:	6818      	ldr	r0, [r3, #0]
     3a8:	4770      	bx	lr
     3aa:	46c0      	nop			; (mov r8, r8)
     3ac:	100000c0 	.word	0x100000c0

000003b0 <init_serial() [clone .part.0]>:
     3b0:	b508      	push	{r3, lr}
     3b2:	4803      	ldr	r0, [pc, #12]	; (3c0 <init_serial() [clone .part.0]+0x10>)
     3b4:	2113      	movs	r1, #19
     3b6:	2212      	movs	r2, #18
     3b8:	f000 f97a 	bl	6b0 <serial_init>
     3bc:	bd08      	pop	{r3, pc}
     3be:	46c0      	nop			; (mov r8, r8)
     3c0:	10000270 	.word	0x10000270

000003c4 <_close>:
     3c4:	b508      	push	{r3, lr}
     3c6:	2300      	movs	r3, #0
     3c8:	2802      	cmp	r0, #2
     3ca:	dd0a      	ble.n	3e2 <_close+0x1e>
     3cc:	3803      	subs	r0, #3
     3ce:	4a07      	ldr	r2, [pc, #28]	; (3ec <_close+0x28>)
     3d0:	0081      	lsls	r1, r0, #2
     3d2:	5888      	ldr	r0, [r1, r2]
     3d4:	508b      	str	r3, [r1, r2]
     3d6:	2800      	cmp	r0, #0
     3d8:	d005      	beq.n	3e6 <_close+0x22>
     3da:	6803      	ldr	r3, [r0, #0]
     3dc:	685b      	ldr	r3, [r3, #4]
     3de:	4798      	blx	r3
     3e0:	1c03      	adds	r3, r0, #0
     3e2:	1c18      	adds	r0, r3, #0
     3e4:	bd08      	pop	{r3, pc}
     3e6:	2301      	movs	r3, #1
     3e8:	425b      	negs	r3, r3
     3ea:	e7fa      	b.n	3e2 <_close+0x1e>
     3ec:	10000158 	.word	0x10000158

000003f0 <_write>:
     3f0:	b5f8      	push	{r3, r4, r5, r6, r7, lr}
     3f2:	1c0c      	adds	r4, r1, #0
     3f4:	1c17      	adds	r7, r2, #0
     3f6:	2802      	cmp	r0, #2
     3f8:	dc12      	bgt.n	420 <_write+0x30>
     3fa:	4b10      	ldr	r3, [pc, #64]	; (43c <_write+0x4c>)
     3fc:	681b      	ldr	r3, [r3, #0]
     3fe:	2b00      	cmp	r3, #0
     400:	d101      	bne.n	406 <_write+0x16>
     402:	f7ff ffd5 	bl	3b0 <init_serial() [clone .part.0]>
     406:	2f00      	cmp	r7, #0
     408:	d008      	beq.n	41c <_write+0x2c>
     40a:	4d0d      	ldr	r5, [pc, #52]	; (440 <_write+0x50>)
     40c:	19e6      	adds	r6, r4, r7
     40e:	7821      	ldrb	r1, [r4, #0]
     410:	1c28      	adds	r0, r5, #0
     412:	3401      	adds	r4, #1
     414:	f000 f9b2 	bl	77c <serial_putc>
     418:	42b4      	cmp	r4, r6
     41a:	d1f8      	bne.n	40e <_write+0x1e>
     41c:	1c38      	adds	r0, r7, #0
     41e:	bdf8      	pop	{r3, r4, r5, r6, r7, pc}
     420:	3803      	subs	r0, #3
     422:	4b08      	ldr	r3, [pc, #32]	; (444 <_write+0x54>)
     424:	0080      	lsls	r0, r0, #2
     426:	58c0      	ldr	r0, [r0, r3]
     428:	2800      	cmp	r0, #0
     42a:	d003      	beq.n	434 <_write+0x44>
     42c:	6803      	ldr	r3, [r0, #0]
     42e:	681b      	ldr	r3, [r3, #0]
     430:	4798      	blx	r3
     432:	e7f4      	b.n	41e <_write+0x2e>
     434:	2001      	movs	r0, #1
     436:	4240      	negs	r0, r0
     438:	e7f1      	b.n	41e <_write+0x2e>
     43a:	46c0      	nop			; (mov r8, r8)
     43c:	10000258 	.word	0x10000258
     440:	10000270 	.word	0x10000270
     444:	10000158 	.word	0x10000158

00000448 <_read>:
     448:	b510      	push	{r4, lr}
     44a:	1c0c      	adds	r4, r1, #0
     44c:	2802      	cmp	r0, #2
     44e:	dc09      	bgt.n	464 <_read+0x1c>
     450:	4b0c      	ldr	r3, [pc, #48]	; (484 <_read+0x3c>)
     452:	681b      	ldr	r3, [r3, #0]
     454:	2b00      	cmp	r3, #0
     456:	d00f      	beq.n	478 <_read+0x30>
     458:	480b      	ldr	r0, [pc, #44]	; (488 <_read+0x40>)
     45a:	f000 f987 	bl	76c <serial_getc>
     45e:	7020      	strb	r0, [r4, #0]
     460:	2001      	movs	r0, #1
     462:	bd10      	pop	{r4, pc}
     464:	3803      	subs	r0, #3
     466:	4b09      	ldr	r3, [pc, #36]	; (48c <_read+0x44>)
     468:	0080      	lsls	r0, r0, #2
     46a:	58c0      	ldr	r0, [r0, r3]
     46c:	2800      	cmp	r0, #0
     46e:	d006      	beq.n	47e <_read+0x36>
     470:	6803      	ldr	r3, [r0, #0]
     472:	689b      	ldr	r3, [r3, #8]
     474:	4798      	blx	r3
     476:	e7f4      	b.n	462 <_read+0x1a>
     478:	f7ff ff9a 	bl	3b0 <init_serial() [clone .part.0]>
     47c:	e7ec      	b.n	458 <_read+0x10>
     47e:	2001      	movs	r0, #1
     480:	4240      	negs	r0, r0
     482:	e7ee      	b.n	462 <_read+0x1a>
     484:	10000258 	.word	0x10000258
     488:	10000270 	.word	0x10000270
     48c:	10000158 	.word	0x10000158

00000490 <_isatty>:
     490:	b508      	push	{r3, lr}
     492:	1c03      	adds	r3, r0, #0
     494:	2001      	movs	r0, #1
     496:	2b02      	cmp	r3, #2
     498:	dd08      	ble.n	4ac <_isatty+0x1c>
     49a:	3b03      	subs	r3, #3
     49c:	4a05      	ldr	r2, [pc, #20]	; (4b4 <_isatty+0x24>)
     49e:	009b      	lsls	r3, r3, #2
     4a0:	5898      	ldr	r0, [r3, r2]
     4a2:	2800      	cmp	r0, #0
     4a4:	d003      	beq.n	4ae <_isatty+0x1e>
     4a6:	6803      	ldr	r3, [r0, #0]
     4a8:	68db      	ldr	r3, [r3, #12]
     4aa:	4798      	blx	r3
     4ac:	bd08      	pop	{r3, pc}
     4ae:	2001      	movs	r0, #1
     4b0:	4240      	negs	r0, r0
     4b2:	e7fb      	b.n	4ac <_isatty+0x1c>
     4b4:	10000158 	.word	0x10000158

000004b8 <_lseek>:
     4b8:	b508      	push	{r3, lr}
     4ba:	1c03      	adds	r3, r0, #0
     4bc:	2000      	movs	r0, #0
     4be:	2b02      	cmp	r3, #2
     4c0:	dd08      	ble.n	4d4 <_lseek+0x1c>
     4c2:	3b03      	subs	r3, #3
     4c4:	4805      	ldr	r0, [pc, #20]	; (4dc <_lseek+0x24>)
     4c6:	009b      	lsls	r3, r3, #2
     4c8:	5818      	ldr	r0, [r3, r0]
     4ca:	2800      	cmp	r0, #0
     4cc:	d003      	beq.n	4d6 <_lseek+0x1e>
     4ce:	6803      	ldr	r3, [r0, #0]
     4d0:	691b      	ldr	r3, [r3, #16]
     4d2:	4798      	blx	r3
     4d4:	bd08      	pop	{r3, pc}
     4d6:	2001      	movs	r0, #1
     4d8:	4240      	negs	r0, r0
     4da:	e7fb      	b.n	4d4 <_lseek+0x1c>
     4dc:	10000158 	.word	0x10000158

000004e0 <_fstat>:
     4e0:	b508      	push	{r3, lr}
     4e2:	2802      	cmp	r0, #2
     4e4:	d804      	bhi.n	4f0 <_fstat+0x10>
     4e6:	2380      	movs	r3, #128	; 0x80
     4e8:	019b      	lsls	r3, r3, #6
     4ea:	604b      	str	r3, [r1, #4]
     4ec:	2000      	movs	r0, #0
     4ee:	bd08      	pop	{r3, pc}
     4f0:	f000 fb80 	bl	bf4 <__errno>
     4f4:	2309      	movs	r3, #9
     4f6:	6003      	str	r3, [r0, #0]
     4f8:	2001      	movs	r0, #1
     4fa:	4240      	negs	r0, r0
     4fc:	e7f7      	b.n	4ee <_fstat+0xe>
     4fe:	46c0      	nop			; (mov r8, r8)

00000500 <_sbrk>:
     500:	4a07      	ldr	r2, [pc, #28]	; (520 <_sbrk+0x20>)
     502:	6813      	ldr	r3, [r2, #0]
     504:	1818      	adds	r0, r3, r0
     506:	f3ef 8108 	mrs	r1, MSP
     50a:	4288      	cmp	r0, r1
     50c:	d202      	bcs.n	514 <_sbrk+0x14>
     50e:	6010      	str	r0, [r2, #0]
     510:	1c18      	adds	r0, r3, #0
     512:	4770      	bx	lr
     514:	4b03      	ldr	r3, [pc, #12]	; (524 <_sbrk+0x24>)
     516:	220c      	movs	r2, #12
     518:	2001      	movs	r0, #1
     51a:	601a      	str	r2, [r3, #0]
     51c:	4240      	negs	r0, r0
     51e:	e7f8      	b.n	512 <_sbrk+0x12>
     520:	100000c4 	.word	0x100000c4
     524:	10000278 	.word	0x10000278

00000528 <NMI_Handler>:
     528:	e7fe      	b.n	528 <NMI_Handler>

0000052a <HardFault_Handler>:
     52a:	e7fe      	b.n	52a <HardFault_Handler>

0000052c <SVC_Handler>:
     52c:	e7fe      	b.n	52c <SVC_Handler>

0000052e <PendSV_Handler>:
     52e:	e7fe      	b.n	52e <PendSV_Handler>

00000530 <SysTick_Handler>:
     530:	e7fe      	b.n	530 <SysTick_Handler>

00000532 <ADC_IRQHandler>:
     532:	e7fe      	b.n	532 <ADC_IRQHandler>

00000534 <serial_baud>:
     534:	b5f0      	push	{r4, r5, r6, r7, lr}
     536:	4644      	mov	r4, r8
     538:	465f      	mov	r7, r11
     53a:	4656      	mov	r6, r10
     53c:	464d      	mov	r5, r9
     53e:	b4f0      	push	{r4, r5, r6, r7}
     540:	4a59      	ldr	r2, [pc, #356]	; (6a8 <serial_baud+0x174>)
     542:	b08d      	sub	sp, #52	; 0x34
     544:	4688      	mov	r8, r1
     546:	2398      	movs	r3, #152	; 0x98
     548:	2101      	movs	r1, #1
     54a:	900b      	str	r0, [sp, #44]	; 0x2c
     54c:	50d1      	str	r1, [r2, r3]
     54e:	4b57      	ldr	r3, [pc, #348]	; (6ac <serial_baud+0x178>)
     550:	4641      	mov	r1, r8
     552:	681b      	ldr	r3, [r3, #0]
     554:	010c      	lsls	r4, r1, #4
     556:	1c18      	adds	r0, r3, #0
     558:	1c21      	adds	r1, r4, #0
     55a:	9308      	str	r3, [sp, #32]
     55c:	f000 fafa 	bl	b54 <__aeabi_uidiv>
     560:	b280      	uxth	r0, r0
     562:	9004      	str	r0, [sp, #16]
     564:	1c21      	adds	r1, r4, #0
     566:	9808      	ldr	r0, [sp, #32]
     568:	f000 fb38 	bl	bdc <__aeabi_uidivmod>
     56c:	2010      	movs	r0, #16
     56e:	2900      	cmp	r1, #0
     570:	d067      	beq.n	642 <serial_baud+0x10e>
     572:	9c08      	ldr	r4, [sp, #32]
     574:	46c3      	mov	r11, r8
     576:	0064      	lsls	r4, r4, #1
     578:	940a      	str	r4, [sp, #40]	; 0x28
     57a:	9c08      	ldr	r4, [sp, #32]
     57c:	00a4      	lsls	r4, r4, #2
     57e:	9409      	str	r4, [sp, #36]	; 0x24
     580:	4644      	mov	r4, r8
     582:	9407      	str	r4, [sp, #28]
     584:	9c09      	ldr	r4, [sp, #36]	; 0x24
     586:	9403      	str	r4, [sp, #12]
     588:	9c0a      	ldr	r4, [sp, #40]	; 0x28
     58a:	9400      	str	r4, [sp, #0]
     58c:	9c08      	ldr	r4, [sp, #32]
     58e:	9402      	str	r4, [sp, #8]
     590:	2401      	movs	r4, #1
     592:	9401      	str	r4, [sp, #4]
     594:	9406      	str	r4, [sp, #24]
     596:	2400      	movs	r4, #0
     598:	9405      	str	r4, [sp, #20]
     59a:	9c01      	ldr	r4, [sp, #4]
     59c:	9f07      	ldr	r7, [sp, #28]
     59e:	b2e4      	uxtb	r4, r4
     5a0:	46a2      	mov	r10, r4
     5a2:	2500      	movs	r5, #0
     5a4:	2600      	movs	r6, #0
     5a6:	9c00      	ldr	r4, [sp, #0]
     5a8:	2c00      	cmp	r4, #0
     5aa:	db69      	blt.n	680 <serial_baud+0x14c>
     5ac:	9803      	ldr	r0, [sp, #12]
     5ae:	1c39      	adds	r1, r7, #0
     5b0:	f000 fad0 	bl	b54 <__aeabi_uidiv>
     5b4:	9c01      	ldr	r4, [sp, #4]
     5b6:	1964      	adds	r4, r4, r5
     5b8:	46a1      	mov	r9, r4
     5ba:	0944      	lsrs	r4, r0, #5
     5bc:	3401      	adds	r4, #1
     5be:	0864      	lsrs	r4, r4, #1
     5c0:	b2a4      	uxth	r4, r4
     5c2:	2c00      	cmp	r4, #0
     5c4:	d155      	bne.n	672 <serial_baud+0x13e>
     5c6:	2102      	movs	r1, #2
     5c8:	2402      	movs	r4, #2
     5ca:	2e00      	cmp	r6, #0
     5cc:	d101      	bne.n	5d2 <serial_baud+0x9e>
     5ce:	2401      	movs	r4, #1
     5d0:	1c21      	adds	r1, r4, #0
     5d2:	464a      	mov	r2, r9
     5d4:	4351      	muls	r1, r2
     5d6:	9802      	ldr	r0, [sp, #8]
     5d8:	00c9      	lsls	r1, r1, #3
     5da:	f000 fabb 	bl	b54 <__aeabi_uidiv>
     5de:	3001      	adds	r0, #1
     5e0:	0840      	lsrs	r0, r0, #1
     5e2:	4643      	mov	r3, r8
     5e4:	1ac0      	subs	r0, r0, r3
     5e6:	17c1      	asrs	r1, r0, #31
     5e8:	1840      	adds	r0, r0, r1
     5ea:	4048      	eors	r0, r1
     5ec:	4558      	cmp	r0, r11
     5ee:	da06      	bge.n	5fe <serial_baud+0xca>
     5f0:	4540      	cmp	r0, r8
     5f2:	d051      	beq.n	698 <serial_baud+0x164>
     5f4:	4653      	mov	r3, r10
     5f6:	4683      	mov	r11, r0
     5f8:	9306      	str	r3, [sp, #24]
     5fa:	9605      	str	r6, [sp, #20]
     5fc:	9404      	str	r4, [sp, #16]
     5fe:	3501      	adds	r5, #1
     600:	b2ee      	uxtb	r6, r5
     602:	4447      	add	r7, r8
     604:	45b2      	cmp	r10, r6
     606:	d8ce      	bhi.n	5a6 <serial_baud+0x72>
     608:	2300      	movs	r3, #0
     60a:	9c01      	ldr	r4, [sp, #4]
     60c:	2c0f      	cmp	r4, #15
     60e:	d014      	beq.n	63a <serial_baud+0x106>
     610:	9c02      	ldr	r4, [sp, #8]
     612:	9908      	ldr	r1, [sp, #32]
     614:	9a07      	ldr	r2, [sp, #28]
     616:	1864      	adds	r4, r4, r1
     618:	9402      	str	r4, [sp, #8]
     61a:	9c01      	ldr	r4, [sp, #4]
     61c:	990a      	ldr	r1, [sp, #40]	; 0x28
     61e:	3401      	adds	r4, #1
     620:	9401      	str	r4, [sp, #4]
     622:	9c00      	ldr	r4, [sp, #0]
     624:	1864      	adds	r4, r4, r1
     626:	9400      	str	r4, [sp, #0]
     628:	9909      	ldr	r1, [sp, #36]	; 0x24
     62a:	9c03      	ldr	r4, [sp, #12]
     62c:	1864      	adds	r4, r4, r1
     62e:	9403      	str	r4, [sp, #12]
     630:	1c14      	adds	r4, r2, #0
     632:	4444      	add	r4, r8
     634:	9407      	str	r4, [sp, #28]
     636:	2b00      	cmp	r3, #0
     638:	d0af      	beq.n	59a <serial_baud+0x66>
     63a:	9c06      	ldr	r4, [sp, #24]
     63c:	0120      	lsls	r0, r4, #4
     63e:	9c05      	ldr	r4, [sp, #20]
     640:	4320      	orrs	r0, r4
     642:	9c0b      	ldr	r4, [sp, #44]	; 0x2c
     644:	2280      	movs	r2, #128	; 0x80
     646:	6823      	ldr	r3, [r4, #0]
     648:	9c04      	ldr	r4, [sp, #16]
     64a:	68d9      	ldr	r1, [r3, #12]
     64c:	4311      	orrs	r1, r2
     64e:	60d9      	str	r1, [r3, #12]
     650:	0a21      	lsrs	r1, r4, #8
     652:	b289      	uxth	r1, r1
     654:	6059      	str	r1, [r3, #4]
     656:	21ff      	movs	r1, #255	; 0xff
     658:	4021      	ands	r1, r4
     65a:	6019      	str	r1, [r3, #0]
     65c:	6298      	str	r0, [r3, #40]	; 0x28
     65e:	68d9      	ldr	r1, [r3, #12]
     660:	4391      	bics	r1, r2
     662:	60d9      	str	r1, [r3, #12]
     664:	b00d      	add	sp, #52	; 0x34
     666:	bc3c      	pop	{r2, r3, r4, r5}
     668:	4690      	mov	r8, r2
     66a:	4699      	mov	r9, r3
     66c:	46a2      	mov	r10, r4
     66e:	46ab      	mov	r11, r5
     670:	bdf0      	pop	{r4, r5, r6, r7, pc}
     672:	2e00      	cmp	r6, #0
     674:	d0ac      	beq.n	5d0 <serial_baud+0x9c>
     676:	2c01      	cmp	r4, #1
     678:	d8aa      	bhi.n	5d0 <serial_baud+0x9c>
     67a:	2102      	movs	r1, #2
     67c:	2402      	movs	r4, #2
     67e:	e7a8      	b.n	5d2 <serial_baud+0x9e>
     680:	9800      	ldr	r0, [sp, #0]
     682:	1c39      	adds	r1, r7, #0
     684:	f000 fa66 	bl	b54 <__aeabi_uidiv>
     688:	9c01      	ldr	r4, [sp, #4]
     68a:	1964      	adds	r4, r4, r5
     68c:	46a1      	mov	r9, r4
     68e:	0904      	lsrs	r4, r0, #4
     690:	3401      	adds	r4, #1
     692:	0864      	lsrs	r4, r4, #1
     694:	b2a4      	uxth	r4, r4
     696:	e794      	b.n	5c2 <serial_baud+0x8e>
     698:	4652      	mov	r2, r10
     69a:	46c3      	mov	r11, r8
     69c:	9206      	str	r2, [sp, #24]
     69e:	9605      	str	r6, [sp, #20]
     6a0:	9404      	str	r4, [sp, #16]
     6a2:	2301      	movs	r3, #1
     6a4:	e7b1      	b.n	60a <serial_baud+0xd6>
     6a6:	46c0      	nop			; (mov r8, r8)
     6a8:	40048000 	.word	0x40048000
     6ac:	100000c8 	.word	0x100000c8

000006b0 <serial_init>:
     6b0:	b5f8      	push	{r3, r4, r5, r6, r7, lr}
     6b2:	4b28      	ldr	r3, [pc, #160]	; (754 <serial_init+0xa4>)
     6b4:	464f      	mov	r7, r9
     6b6:	4646      	mov	r6, r8
     6b8:	b4c0      	push	{r6, r7}
     6ba:	1c04      	adds	r4, r0, #0
     6bc:	1c0f      	adds	r7, r1, #0
     6be:	1c08      	adds	r0, r1, #0
     6c0:	1c19      	adds	r1, r3, #0
     6c2:	1c16      	adds	r6, r2, #0
     6c4:	4699      	mov	r9, r3
     6c6:	f000 f907 	bl	8d8 <pinmap_peripheral>
     6ca:	4b23      	ldr	r3, [pc, #140]	; (758 <serial_init+0xa8>)
     6cc:	1c05      	adds	r5, r0, #0
     6ce:	1c19      	adds	r1, r3, #0
     6d0:	1c30      	adds	r0, r6, #0
     6d2:	4698      	mov	r8, r3
     6d4:	f000 f900 	bl	8d8 <pinmap_peripheral>
     6d8:	1c01      	adds	r1, r0, #0
     6da:	1c28      	adds	r0, r5, #0
     6dc:	f000 f8ea 	bl	8b4 <pinmap_merge>
     6e0:	4a1e      	ldr	r2, [pc, #120]	; (75c <serial_init+0xac>)
     6e2:	2380      	movs	r3, #128	; 0x80
     6e4:	6020      	str	r0, [r4, #0]
     6e6:	1c05      	adds	r5, r0, #0
     6e8:	2180      	movs	r1, #128	; 0x80
     6ea:	58d0      	ldr	r0, [r2, r3]
     6ec:	0149      	lsls	r1, r1, #5
     6ee:	4301      	orrs	r1, r0
     6f0:	50d1      	str	r1, [r2, r3]
     6f2:	2301      	movs	r3, #1
     6f4:	60ab      	str	r3, [r5, #8]
     6f6:	2196      	movs	r1, #150	; 0x96
     6f8:	2300      	movs	r3, #0
     6fa:	606b      	str	r3, [r5, #4]
     6fc:	1c20      	adds	r0, r4, #0
     6fe:	0189      	lsls	r1, r1, #6
     700:	f7ff ff18 	bl	534 <serial_baud>
     704:	6823      	ldr	r3, [r4, #0]
     706:	2203      	movs	r2, #3
     708:	60da      	str	r2, [r3, #12]
     70a:	1c38      	adds	r0, r7, #0
     70c:	4649      	mov	r1, r9
     70e:	f000 f8b5 	bl	87c <pinmap_pinout>
     712:	1c30      	adds	r0, r6, #0
     714:	4641      	mov	r1, r8
     716:	f000 f8b1 	bl	87c <pinmap_pinout>
     71a:	1c7b      	adds	r3, r7, #1
     71c:	d003      	beq.n	726 <serial_init+0x76>
     71e:	1c38      	adds	r0, r7, #0
     720:	2102      	movs	r1, #2
     722:	f000 f969 	bl	9f8 <pin_mode>
     726:	1c73      	adds	r3, r6, #1
     728:	d003      	beq.n	732 <serial_init+0x82>
     72a:	1c30      	adds	r0, r6, #0
     72c:	2102      	movs	r1, #2
     72e:	f000 f963 	bl	9f8 <pin_mode>
     732:	4b0b      	ldr	r3, [pc, #44]	; (760 <serial_init+0xb0>)
     734:	429d      	cmp	r5, r3
     736:	d109      	bne.n	74c <serial_init+0x9c>
     738:	2300      	movs	r3, #0
     73a:	6063      	str	r3, [r4, #4]
     73c:	4b09      	ldr	r3, [pc, #36]	; (764 <serial_init+0xb4>)
     73e:	2201      	movs	r2, #1
     740:	601a      	str	r2, [r3, #0]
     742:	4809      	ldr	r0, [pc, #36]	; (768 <serial_init+0xb8>)
     744:	1c21      	adds	r1, r4, #0
     746:	2208      	movs	r2, #8
     748:	f000 fccc 	bl	10e4 <memcpy>
     74c:	bc0c      	pop	{r2, r3}
     74e:	4690      	mov	r8, r2
     750:	4699      	mov	r9, r3
     752:	bdf8      	pop	{r3, r4, r5, r6, r7, pc}
     754:	0000299c 	.word	0x0000299c
     758:	0000296c 	.word	0x0000296c
     75c:	40048000 	.word	0x40048000
     760:	40008000 	.word	0x40008000
     764:	10000258 	.word	0x10000258
     768:	10000270 	.word	0x10000270

0000076c <serial_getc>:
     76c:	6802      	ldr	r2, [r0, #0]
     76e:	2101      	movs	r1, #1
     770:	6953      	ldr	r3, [r2, #20]
     772:	4219      	tst	r1, r3
     774:	d0fc      	beq.n	770 <serial_getc+0x4>
     776:	6810      	ldr	r0, [r2, #0]
     778:	4770      	bx	lr
     77a:	46c0      	nop			; (mov r8, r8)

0000077c <serial_putc>:
     77c:	6802      	ldr	r2, [r0, #0]
     77e:	2020      	movs	r0, #32
     780:	6953      	ldr	r3, [r2, #20]
     782:	4218      	tst	r0, r3
     784:	d0fc      	beq.n	780 <serial_putc+0x4>
     786:	6011      	str	r1, [r2, #0]
     788:	4770      	bx	lr
     78a:	46c0      	nop			; (mov r8, r8)

0000078c <NVIC_SetVector>:
     78c:	4b0c      	ldr	r3, [pc, #48]	; (7c0 <NVIC_SetVector+0x34>)
     78e:	2203      	movs	r2, #3
     790:	681b      	ldr	r3, [r3, #0]
     792:	b530      	push	{r4, r5, lr}
     794:	4013      	ands	r3, r2
     796:	2b01      	cmp	r3, #1
     798:	d00c      	beq.n	7b4 <NVIC_SetVector+0x28>
     79a:	2380      	movs	r3, #128	; 0x80
     79c:	4c09      	ldr	r4, [pc, #36]	; (7c4 <NVIC_SetVector+0x38>)
     79e:	055b      	lsls	r3, r3, #21
     7a0:	25f0      	movs	r5, #240	; 0xf0
     7a2:	062d      	lsls	r5, r5, #24
     7a4:	195a      	adds	r2, r3, r5
     7a6:	6812      	ldr	r2, [r2, #0]
     7a8:	c304      	stmia	r3!, {r2}
     7aa:	42a3      	cmp	r3, r4
     7ac:	d1f8      	bne.n	7a0 <NVIC_SetVector+0x14>
     7ae:	4b04      	ldr	r3, [pc, #16]	; (7c0 <NVIC_SetVector+0x34>)
     7b0:	2201      	movs	r2, #1
     7b2:	601a      	str	r2, [r3, #0]
     7b4:	4b04      	ldr	r3, [pc, #16]	; (7c8 <NVIC_SetVector+0x3c>)
     7b6:	0080      	lsls	r0, r0, #2
     7b8:	18c0      	adds	r0, r0, r3
     7ba:	6001      	str	r1, [r0, #0]
     7bc:	bd30      	pop	{r4, r5, pc}
     7be:	46c0      	nop			; (mov r8, r8)
     7c0:	40048000 	.word	0x40048000
     7c4:	100000c0 	.word	0x100000c0
     7c8:	10000040 	.word	0x10000040

000007cc <mbed_die>:
     7cc:	b500      	push	{lr}
     7ce:	b099      	sub	sp, #100	; 0x64
     7d0:	b672      	cpsid	i
     7d2:	2128      	movs	r1, #40	; 0x28
     7d4:	4668      	mov	r0, sp
     7d6:	f000 f83d 	bl	854 <gpio_init_out>
     7da:	a806      	add	r0, sp, #24
     7dc:	2129      	movs	r1, #41	; 0x29
     7de:	f000 f839 	bl	854 <gpio_init_out>
     7e2:	a80c      	add	r0, sp, #48	; 0x30
     7e4:	212a      	movs	r1, #42	; 0x2a
     7e6:	f000 f835 	bl	854 <gpio_init_out>
     7ea:	a812      	add	r0, sp, #72	; 0x48
     7ec:	212b      	movs	r1, #43	; 0x2b
     7ee:	f000 f831 	bl	854 <gpio_init_out>
     7f2:	9b03      	ldr	r3, [sp, #12]
     7f4:	9a01      	ldr	r2, [sp, #4]
     7f6:	2096      	movs	r0, #150	; 0x96
     7f8:	601a      	str	r2, [r3, #0]
     7fa:	9a07      	ldr	r2, [sp, #28]
     7fc:	9b0a      	ldr	r3, [sp, #40]	; 0x28
     7fe:	601a      	str	r2, [r3, #0]
     800:	9a0d      	ldr	r2, [sp, #52]	; 0x34
     802:	9b10      	ldr	r3, [sp, #64]	; 0x40
     804:	601a      	str	r2, [r3, #0]
     806:	9a13      	ldr	r2, [sp, #76]	; 0x4c
     808:	9b15      	ldr	r3, [sp, #84]	; 0x54
     80a:	601a      	str	r2, [r3, #0]
     80c:	f000 f888 	bl	920 <wait_ms>
     810:	9b04      	ldr	r3, [sp, #16]
     812:	9a01      	ldr	r2, [sp, #4]
     814:	2096      	movs	r0, #150	; 0x96
     816:	601a      	str	r2, [r3, #0]
     818:	9a07      	ldr	r2, [sp, #28]
     81a:	9b09      	ldr	r3, [sp, #36]	; 0x24
     81c:	601a      	str	r2, [r3, #0]
     81e:	9a0d      	ldr	r2, [sp, #52]	; 0x34
     820:	9b0f      	ldr	r3, [sp, #60]	; 0x3c
     822:	601a      	str	r2, [r3, #0]
     824:	9a13      	ldr	r2, [sp, #76]	; 0x4c
     826:	9b16      	ldr	r3, [sp, #88]	; 0x58
     828:	601a      	str	r2, [r3, #0]
     82a:	f000 f879 	bl	920 <wait_ms>
     82e:	e7e0      	b.n	7f2 <mbed_die+0x26>

00000830 <error>:
     830:	b40f      	push	{r0, r1, r2, r3}
     832:	b500      	push	{lr}
     834:	b083      	sub	sp, #12
     836:	aa04      	add	r2, sp, #16
     838:	ca08      	ldmia	r2!, {r3}
     83a:	4b05      	ldr	r3, [pc, #20]	; (850 <error+0x20>)
     83c:	9904      	ldr	r1, [sp, #16]
     83e:	681b      	ldr	r3, [r3, #0]
     840:	9201      	str	r2, [sp, #4]
     842:	68d8      	ldr	r0, [r3, #12]
     844:	f000 ffe2 	bl	180c <vfiprintf>
     848:	2001      	movs	r0, #1
     84a:	f7ff fd81 	bl	350 <exit>
     84e:	46c0      	nop			; (mov r8, r8)
     850:	1000012c 	.word	0x1000012c

00000854 <gpio_init_out>:
     854:	b538      	push	{r3, r4, r5, lr}
     856:	1c0d      	adds	r5, r1, #0
     858:	1c04      	adds	r4, r0, #0
     85a:	f000 f87d 	bl	958 <gpio_init>
     85e:	3501      	adds	r5, #1
     860:	d00a      	beq.n	878 <gpio_init_out+0x24>
     862:	6923      	ldr	r3, [r4, #16]
     864:	6862      	ldr	r2, [r4, #4]
     866:	1c20      	adds	r0, r4, #0
     868:	2101      	movs	r1, #1
     86a:	601a      	str	r2, [r3, #0]
     86c:	f000 f89c 	bl	9a8 <gpio_dir>
     870:	1c20      	adds	r0, r4, #0
     872:	2100      	movs	r1, #0
     874:	f000 f892 	bl	99c <gpio_mode>
     878:	bd38      	pop	{r3, r4, r5, pc}
     87a:	46c0      	nop			; (mov r8, r8)

0000087c <pinmap_pinout>:
     87c:	b510      	push	{r4, lr}
     87e:	1c04      	adds	r4, r0, #0
     880:	1c42      	adds	r2, r0, #1
     882:	d103      	bne.n	88c <pinmap_pinout+0x10>
     884:	e009      	b.n	89a <pinmap_pinout+0x1e>
     886:	429c      	cmp	r4, r3
     888:	d008      	beq.n	89c <pinmap_pinout+0x20>
     88a:	310c      	adds	r1, #12
     88c:	2300      	movs	r3, #0
     88e:	56cb      	ldrsb	r3, [r1, r3]
     890:	1c5a      	adds	r2, r3, #1
     892:	d1f8      	bne.n	886 <pinmap_pinout+0xa>
     894:	4806      	ldr	r0, [pc, #24]	; (8b0 <pinmap_pinout+0x34>)
     896:	f7ff ffcb 	bl	830 <error>
     89a:	bd10      	pop	{r4, pc}
     89c:	1c20      	adds	r0, r4, #0
     89e:	6889      	ldr	r1, [r1, #8]
     8a0:	f000 f892 	bl	9c8 <pin_function>
     8a4:	1c20      	adds	r0, r4, #0
     8a6:	2100      	movs	r1, #0
     8a8:	f000 f8a6 	bl	9f8 <pin_mode>
     8ac:	e7f5      	b.n	89a <pinmap_pinout+0x1e>
     8ae:	46c0      	nop			; (mov r8, r8)
     8b0:	000029cc 	.word	0x000029cc

000008b4 <pinmap_merge>:
     8b4:	b508      	push	{r3, lr}
     8b6:	4288      	cmp	r0, r1
     8b8:	d008      	beq.n	8cc <pinmap_merge+0x18>
     8ba:	1c43      	adds	r3, r0, #1
     8bc:	d007      	beq.n	8ce <pinmap_merge+0x1a>
     8be:	3101      	adds	r1, #1
     8c0:	d004      	beq.n	8cc <pinmap_merge+0x18>
     8c2:	4804      	ldr	r0, [pc, #16]	; (8d4 <pinmap_merge+0x20>)
     8c4:	f7ff ffb4 	bl	830 <error>
     8c8:	2001      	movs	r0, #1
     8ca:	4240      	negs	r0, r0
     8cc:	bd08      	pop	{r3, pc}
     8ce:	1c08      	adds	r0, r1, #0
     8d0:	e7fc      	b.n	8cc <pinmap_merge+0x18>
     8d2:	46c0      	nop			; (mov r8, r8)
     8d4:	000029e0 	.word	0x000029e0

000008d8 <pinmap_peripheral>:
     8d8:	1c02      	adds	r2, r0, #0
     8da:	b508      	push	{r3, lr}
     8dc:	1c53      	adds	r3, r2, #1
     8de:	d103      	bne.n	8e8 <pinmap_peripheral+0x10>
     8e0:	e00b      	b.n	8fa <pinmap_peripheral+0x22>
     8e2:	429a      	cmp	r2, r3
     8e4:	d00a      	beq.n	8fc <pinmap_peripheral+0x24>
     8e6:	310c      	adds	r1, #12
     8e8:	2300      	movs	r3, #0
     8ea:	56cb      	ldrsb	r3, [r1, r3]
     8ec:	1c58      	adds	r0, r3, #1
     8ee:	d1f8      	bne.n	8e2 <pinmap_peripheral+0xa>
     8f0:	4804      	ldr	r0, [pc, #16]	; (904 <pinmap_peripheral+0x2c>)
     8f2:	f7ff ff9d 	bl	830 <error>
     8f6:	2001      	movs	r0, #1
     8f8:	4240      	negs	r0, r0
     8fa:	bd08      	pop	{r3, pc}
     8fc:	6848      	ldr	r0, [r1, #4]
     8fe:	1c43      	adds	r3, r0, #1
     900:	d1fb      	bne.n	8fa <pinmap_peripheral+0x22>
     902:	e7f5      	b.n	8f0 <pinmap_peripheral+0x18>
     904:	000029f4 	.word	0x000029f4

00000908 <wait_us>:
     908:	b538      	push	{r3, r4, r5, lr}
     90a:	1c05      	adds	r5, r0, #0
     90c:	f000 f8c4 	bl	a98 <us_ticker_read>
     910:	1c04      	adds	r4, r0, #0
     912:	f000 f8c1 	bl	a98 <us_ticker_read>
     916:	1b03      	subs	r3, r0, r4
     918:	42ab      	cmp	r3, r5
     91a:	d3fa      	bcc.n	912 <wait_us+0xa>
     91c:	bd38      	pop	{r3, r4, r5, pc}
     91e:	46c0      	nop			; (mov r8, r8)

00000920 <wait_ms>:
     920:	b508      	push	{r3, lr}
     922:	23fa      	movs	r3, #250	; 0xfa
     924:	009b      	lsls	r3, r3, #2
     926:	4358      	muls	r0, r3
     928:	f7ff ffee 	bl	908 <wait_us>
     92c:	bd08      	pop	{r3, pc}
     92e:	46c0      	nop			; (mov r8, r8)

00000930 <gpio_set>:
     930:	b510      	push	{r4, lr}
     932:	2800      	cmp	r0, #0
     934:	d006      	beq.n	944 <gpio_set+0x14>
     936:	b2c4      	uxtb	r4, r0
     938:	1c23      	adds	r3, r4, #0
     93a:	3b0a      	subs	r3, #10
     93c:	2b05      	cmp	r3, #5
     93e:	d902      	bls.n	946 <gpio_set+0x16>
     940:	2100      	movs	r1, #0
     942:	e001      	b.n	948 <gpio_set+0x18>
     944:	2400      	movs	r4, #0
     946:	2101      	movs	r1, #1
     948:	f000 f83e 	bl	9c8 <pin_function>
     94c:	201f      	movs	r0, #31
     94e:	4004      	ands	r4, r0
     950:	2001      	movs	r0, #1
     952:	40a0      	lsls	r0, r4
     954:	bd10      	pop	{r4, pc}
     956:	46c0      	nop			; (mov r8, r8)

00000958 <gpio_init>:
     958:	b538      	push	{r3, r4, r5, lr}
     95a:	1c04      	adds	r4, r0, #0
     95c:	1c0d      	adds	r5, r1, #0
     95e:	7021      	strb	r1, [r4, #0]
     960:	1c4a      	adds	r2, r1, #1
     962:	d011      	beq.n	988 <gpio_init+0x30>
     964:	1c08      	adds	r0, r1, #0
     966:	f7ff ffe3 	bl	930 <gpio_set>
     96a:	096d      	lsrs	r5, r5, #5
     96c:	4a07      	ldr	r2, [pc, #28]	; (98c <gpio_init+0x34>)
     96e:	00ad      	lsls	r5, r5, #2
     970:	18ab      	adds	r3, r5, r2
     972:	4a07      	ldr	r2, [pc, #28]	; (990 <gpio_init+0x38>)
     974:	60e3      	str	r3, [r4, #12]
     976:	18ab      	adds	r3, r5, r2
     978:	4a06      	ldr	r2, [pc, #24]	; (994 <gpio_init+0x3c>)
     97a:	6123      	str	r3, [r4, #16]
     97c:	18ab      	adds	r3, r5, r2
     97e:	6163      	str	r3, [r4, #20]
     980:	4b05      	ldr	r3, [pc, #20]	; (998 <gpio_init+0x40>)
     982:	6060      	str	r0, [r4, #4]
     984:	18ed      	adds	r5, r5, r3
     986:	60a5      	str	r5, [r4, #8]
     988:	bd38      	pop	{r3, r4, r5, pc}
     98a:	46c0      	nop			; (mov r8, r8)
     98c:	50002200 	.word	0x50002200
     990:	50002280 	.word	0x50002280
     994:	50002100 	.word	0x50002100
     998:	50002000 	.word	0x50002000

0000099c <gpio_mode>:
     99c:	b508      	push	{r3, lr}
     99e:	7800      	ldrb	r0, [r0, #0]
     9a0:	b240      	sxtb	r0, r0
     9a2:	f000 f829 	bl	9f8 <pin_mode>
     9a6:	bd08      	pop	{r3, pc}

000009a8 <gpio_dir>:
     9a8:	2900      	cmp	r1, #0
     9aa:	d007      	beq.n	9bc <gpio_dir+0x14>
     9ac:	2901      	cmp	r1, #1
     9ae:	d104      	bne.n	9ba <gpio_dir+0x12>
     9b0:	6883      	ldr	r3, [r0, #8]
     9b2:	6842      	ldr	r2, [r0, #4]
     9b4:	6819      	ldr	r1, [r3, #0]
     9b6:	430a      	orrs	r2, r1
     9b8:	601a      	str	r2, [r3, #0]
     9ba:	4770      	bx	lr
     9bc:	6883      	ldr	r3, [r0, #8]
     9be:	6841      	ldr	r1, [r0, #4]
     9c0:	681a      	ldr	r2, [r3, #0]
     9c2:	438a      	bics	r2, r1
     9c4:	601a      	str	r2, [r3, #0]
     9c6:	e7f8      	b.n	9ba <gpio_dir+0x12>

000009c8 <pin_function>:
     9c8:	1c43      	adds	r3, r0, #1
     9ca:	d00b      	beq.n	9e4 <pin_function+0x1c>
     9cc:	281f      	cmp	r0, #31
     9ce:	d90a      	bls.n	9e6 <pin_function+0x1e>
     9d0:	4b07      	ldr	r3, [pc, #28]	; (9f0 <pin_function+0x28>)
     9d2:	18c0      	adds	r0, r0, r3
     9d4:	0080      	lsls	r0, r0, #2
     9d6:	6802      	ldr	r2, [r0, #0]
     9d8:	2307      	movs	r3, #7
     9da:	439a      	bics	r2, r3
     9dc:	4019      	ands	r1, r3
     9de:	1c13      	adds	r3, r2, #0
     9e0:	430b      	orrs	r3, r1
     9e2:	6003      	str	r3, [r0, #0]
     9e4:	4770      	bx	lr
     9e6:	4b03      	ldr	r3, [pc, #12]	; (9f4 <pin_function+0x2c>)
     9e8:	18c0      	adds	r0, r0, r3
     9ea:	0080      	lsls	r0, r0, #2
     9ec:	e7f3      	b.n	9d6 <pin_function+0xe>
     9ee:	46c0      	nop			; (mov r8, r8)
     9f0:	10010ff8 	.word	0x10010ff8
     9f4:	10011000 	.word	0x10011000

000009f8 <pin_mode>:
     9f8:	074b      	lsls	r3, r1, #29
     9fa:	b510      	push	{r4, lr}
     9fc:	0fdb      	lsrs	r3, r3, #31
     9fe:	281f      	cmp	r0, #31
     a00:	d910      	bls.n	a24 <pin_mode+0x2c>
     a02:	4a0a      	ldr	r2, [pc, #40]	; (a2c <pin_mode+0x34>)
     a04:	1880      	adds	r0, r0, r2
     a06:	0080      	lsls	r0, r0, #2
     a08:	6804      	ldr	r4, [r0, #0]
     a0a:	2218      	movs	r2, #24
     a0c:	4394      	bics	r4, r2
     a0e:	2203      	movs	r2, #3
     a10:	4011      	ands	r1, r2
     a12:	00ca      	lsls	r2, r1, #3
     a14:	1c21      	adds	r1, r4, #0
     a16:	4311      	orrs	r1, r2
     a18:	4a05      	ldr	r2, [pc, #20]	; (a30 <pin_mode+0x38>)
     a1a:	029b      	lsls	r3, r3, #10
     a1c:	4011      	ands	r1, r2
     a1e:	4319      	orrs	r1, r3
     a20:	6001      	str	r1, [r0, #0]
     a22:	bd10      	pop	{r4, pc}
     a24:	4a03      	ldr	r2, [pc, #12]	; (a34 <pin_mode+0x3c>)
     a26:	1880      	adds	r0, r0, r2
     a28:	0080      	lsls	r0, r0, #2
     a2a:	e7ed      	b.n	a08 <pin_mode+0x10>
     a2c:	10010ff8 	.word	0x10010ff8
     a30:	fffffbff 	.word	0xfffffbff
     a34:	10011000 	.word	0x10011000

00000a38 <us_ticker_init>:
     a38:	b538      	push	{r3, r4, r5, lr}
     a3a:	4b10      	ldr	r3, [pc, #64]	; (a7c <us_ticker_init+0x44>)
     a3c:	681a      	ldr	r2, [r3, #0]
     a3e:	2a00      	cmp	r2, #0
     a40:	d11b      	bne.n	a7a <us_ticker_init+0x42>
     a42:	4a0f      	ldr	r2, [pc, #60]	; (a80 <us_ticker_init+0x48>)
     a44:	2501      	movs	r5, #1
     a46:	601d      	str	r5, [r3, #0]
     a48:	2380      	movs	r3, #128	; 0x80
     a4a:	58d0      	ldr	r0, [r2, r3]
     a4c:	2180      	movs	r1, #128	; 0x80
     a4e:	00c9      	lsls	r1, r1, #3
     a50:	4301      	orrs	r1, r0
     a52:	50d1      	str	r1, [r2, r3]
     a54:	4b0b      	ldr	r3, [pc, #44]	; (a84 <us_ticker_init+0x4c>)
     a56:	4c0c      	ldr	r4, [pc, #48]	; (a88 <us_ticker_init+0x50>)
     a58:	6818      	ldr	r0, [r3, #0]
     a5a:	2302      	movs	r3, #2
     a5c:	6063      	str	r3, [r4, #4]
     a5e:	490b      	ldr	r1, [pc, #44]	; (a8c <us_ticker_init+0x54>)
     a60:	f000 f878 	bl	b54 <__aeabi_uidiv>
     a64:	3801      	subs	r0, #1
     a66:	60e0      	str	r0, [r4, #12]
     a68:	4909      	ldr	r1, [pc, #36]	; (a90 <us_ticker_init+0x58>)
     a6a:	6065      	str	r5, [r4, #4]
     a6c:	2013      	movs	r0, #19
     a6e:	f7ff fe8d 	bl	78c <NVIC_SetVector>
     a72:	2280      	movs	r2, #128	; 0x80
     a74:	4b07      	ldr	r3, [pc, #28]	; (a94 <us_ticker_init+0x5c>)
     a76:	0312      	lsls	r2, r2, #12
     a78:	601a      	str	r2, [r3, #0]
     a7a:	bd38      	pop	{r3, r4, r5, pc}
     a7c:	1000025c 	.word	0x1000025c
     a80:	40048000 	.word	0x40048000
     a84:	100000c8 	.word	0x100000c8
     a88:	40018000 	.word	0x40018000
     a8c:	000f4240 	.word	0x000f4240
     a90:	00000ae5 	.word	0x00000ae5
     a94:	e000e100 	.word	0xe000e100

00000a98 <us_ticker_read>:
     a98:	b508      	push	{r3, lr}
     a9a:	4b04      	ldr	r3, [pc, #16]	; (aac <us_ticker_read+0x14>)
     a9c:	681b      	ldr	r3, [r3, #0]
     a9e:	2b00      	cmp	r3, #0
     aa0:	d101      	bne.n	aa6 <us_ticker_read+0xe>
     aa2:	f7ff ffc9 	bl	a38 <us_ticker_init>
     aa6:	4b02      	ldr	r3, [pc, #8]	; (ab0 <us_ticker_read+0x18>)
     aa8:	6898      	ldr	r0, [r3, #8]
     aaa:	bd08      	pop	{r3, pc}
     aac:	1000025c 	.word	0x1000025c
     ab0:	40018000 	.word	0x40018000

00000ab4 <us_ticker_set_interrupt>:
     ab4:	4b03      	ldr	r3, [pc, #12]	; (ac4 <us_ticker_set_interrupt+0x10>)
     ab6:	2201      	movs	r2, #1
     ab8:	6198      	str	r0, [r3, #24]
     aba:	6959      	ldr	r1, [r3, #20]
     abc:	430a      	orrs	r2, r1
     abe:	615a      	str	r2, [r3, #20]
     ac0:	4770      	bx	lr
     ac2:	46c0      	nop			; (mov r8, r8)
     ac4:	40018000 	.word	0x40018000

00000ac8 <us_ticker_disable_interrupt>:
     ac8:	4b02      	ldr	r3, [pc, #8]	; (ad4 <us_ticker_disable_interrupt+0xc>)
     aca:	2101      	movs	r1, #1
     acc:	695a      	ldr	r2, [r3, #20]
     ace:	438a      	bics	r2, r1
     ad0:	615a      	str	r2, [r3, #20]
     ad2:	4770      	bx	lr
     ad4:	40018000 	.word	0x40018000

00000ad8 <us_ticker_clear_interrupt>:
     ad8:	4b01      	ldr	r3, [pc, #4]	; (ae0 <us_ticker_clear_interrupt+0x8>)
     ada:	2201      	movs	r2, #1
     adc:	601a      	str	r2, [r3, #0]
     ade:	4770      	bx	lr
     ae0:	40018000 	.word	0x40018000

00000ae4 <us_ticker_irq_handler>:
     ae4:	b5f8      	push	{r3, r4, r5, r6, r7, lr}
     ae6:	464f      	mov	r7, r9
     ae8:	4646      	mov	r6, r8
     aea:	b4c0      	push	{r6, r7}
     aec:	f7ff fff4 	bl	ad8 <us_ticker_clear_interrupt>
     af0:	4816      	ldr	r0, [pc, #88]	; (b4c <us_ticker_irq_handler+0x68>)
     af2:	4a17      	ldr	r2, [pc, #92]	; (b50 <us_ticker_irq_handler+0x6c>)
     af4:	4680      	mov	r8, r0
     af6:	4691      	mov	r9, r2
     af8:	4640      	mov	r0, r8
     afa:	6803      	ldr	r3, [r0, #0]
     afc:	e012      	b.n	b24 <us_ticker_irq_handler+0x40>
     afe:	681c      	ldr	r4, [r3, #0]
     b00:	685d      	ldr	r5, [r3, #4]
     b02:	f7ff ffc9 	bl	a98 <us_ticker_read>
     b06:	2700      	movs	r7, #0
     b08:	1c06      	adds	r6, r0, #0
     b0a:	1ba4      	subs	r4, r4, r6
     b0c:	41bd      	sbcs	r5, r7
     b0e:	2d00      	cmp	r5, #0
     b10:	dc12      	bgt.n	b38 <us_ticker_irq_handler+0x54>
     b12:	d00f      	beq.n	b34 <us_ticker_irq_handler+0x50>
     b14:	4642      	mov	r2, r8
     b16:	6811      	ldr	r1, [r2, #0]
     b18:	4648      	mov	r0, r9
     b1a:	68cb      	ldr	r3, [r1, #12]
     b1c:	6013      	str	r3, [r2, #0]
     b1e:	6802      	ldr	r2, [r0, #0]
     b20:	2a00      	cmp	r2, #0
     b22:	d110      	bne.n	b46 <us_ticker_irq_handler+0x62>
     b24:	2b00      	cmp	r3, #0
     b26:	d1ea      	bne.n	afe <us_ticker_irq_handler+0x1a>
     b28:	f7ff ffce 	bl	ac8 <us_ticker_disable_interrupt>
     b2c:	bc0c      	pop	{r2, r3}
     b2e:	4690      	mov	r8, r2
     b30:	4699      	mov	r9, r3
     b32:	bdf8      	pop	{r3, r4, r5, r6, r7, pc}
     b34:	2c00      	cmp	r4, #0
     b36:	d0ed      	beq.n	b14 <us_ticker_irq_handler+0x30>
     b38:	4642      	mov	r2, r8
     b3a:	6813      	ldr	r3, [r2, #0]
     b3c:	6818      	ldr	r0, [r3, #0]
     b3e:	6859      	ldr	r1, [r3, #4]
     b40:	f7ff ffb8 	bl	ab4 <us_ticker_set_interrupt>
     b44:	e7f2      	b.n	b2c <us_ticker_irq_handler+0x48>
     b46:	6888      	ldr	r0, [r1, #8]
     b48:	4790      	blx	r2
     b4a:	e7d5      	b.n	af8 <us_ticker_irq_handler+0x14>
     b4c:	10000260 	.word	0x10000260
     b50:	10000264 	.word	0x10000264

00000b54 <__aeabi_uidiv>:
     b54:	2900      	cmp	r1, #0
     b56:	d034      	beq.n	bc2 <.udivsi3_skip_div0_test+0x6a>

00000b58 <.udivsi3_skip_div0_test>:
     b58:	2301      	movs	r3, #1
     b5a:	2200      	movs	r2, #0
     b5c:	b410      	push	{r4}
     b5e:	4288      	cmp	r0, r1
     b60:	d32c      	bcc.n	bbc <.udivsi3_skip_div0_test+0x64>
     b62:	2401      	movs	r4, #1
     b64:	0724      	lsls	r4, r4, #28
     b66:	42a1      	cmp	r1, r4
     b68:	d204      	bcs.n	b74 <.udivsi3_skip_div0_test+0x1c>
     b6a:	4281      	cmp	r1, r0
     b6c:	d202      	bcs.n	b74 <.udivsi3_skip_div0_test+0x1c>
     b6e:	0109      	lsls	r1, r1, #4
     b70:	011b      	lsls	r3, r3, #4
     b72:	e7f8      	b.n	b66 <.udivsi3_skip_div0_test+0xe>
     b74:	00e4      	lsls	r4, r4, #3
     b76:	42a1      	cmp	r1, r4
     b78:	d204      	bcs.n	b84 <.udivsi3_skip_div0_test+0x2c>
     b7a:	4281      	cmp	r1, r0
     b7c:	d202      	bcs.n	b84 <.udivsi3_skip_div0_test+0x2c>
     b7e:	0049      	lsls	r1, r1, #1
     b80:	005b      	lsls	r3, r3, #1
     b82:	e7f8      	b.n	b76 <.udivsi3_skip_div0_test+0x1e>
     b84:	4288      	cmp	r0, r1
     b86:	d301      	bcc.n	b8c <.udivsi3_skip_div0_test+0x34>
     b88:	1a40      	subs	r0, r0, r1
     b8a:	431a      	orrs	r2, r3
     b8c:	084c      	lsrs	r4, r1, #1
     b8e:	42a0      	cmp	r0, r4
     b90:	d302      	bcc.n	b98 <.udivsi3_skip_div0_test+0x40>
     b92:	1b00      	subs	r0, r0, r4
     b94:	085c      	lsrs	r4, r3, #1
     b96:	4322      	orrs	r2, r4
     b98:	088c      	lsrs	r4, r1, #2
     b9a:	42a0      	cmp	r0, r4
     b9c:	d302      	bcc.n	ba4 <.udivsi3_skip_div0_test+0x4c>
     b9e:	1b00      	subs	r0, r0, r4
     ba0:	089c      	lsrs	r4, r3, #2
     ba2:	4322      	orrs	r2, r4
     ba4:	08cc      	lsrs	r4, r1, #3
     ba6:	42a0      	cmp	r0, r4
     ba8:	d302      	bcc.n	bb0 <.udivsi3_skip_div0_test+0x58>
     baa:	1b00      	subs	r0, r0, r4
     bac:	08dc      	lsrs	r4, r3, #3
     bae:	4322      	orrs	r2, r4
     bb0:	2800      	cmp	r0, #0
     bb2:	d003      	beq.n	bbc <.udivsi3_skip_div0_test+0x64>
     bb4:	091b      	lsrs	r3, r3, #4
     bb6:	d001      	beq.n	bbc <.udivsi3_skip_div0_test+0x64>
     bb8:	0909      	lsrs	r1, r1, #4
     bba:	e7e3      	b.n	b84 <.udivsi3_skip_div0_test+0x2c>
     bbc:	1c10      	adds	r0, r2, #0
     bbe:	bc10      	pop	{r4}
     bc0:	4770      	bx	lr
     bc2:	2800      	cmp	r0, #0
     bc4:	d001      	beq.n	bca <.udivsi3_skip_div0_test+0x72>
     bc6:	2000      	movs	r0, #0
     bc8:	43c0      	mvns	r0, r0
     bca:	b407      	push	{r0, r1, r2}
     bcc:	4802      	ldr	r0, [pc, #8]	; (bd8 <.udivsi3_skip_div0_test+0x80>)
     bce:	a102      	add	r1, pc, #8	; (adr r1, bd8 <.udivsi3_skip_div0_test+0x80>)
     bd0:	1840      	adds	r0, r0, r1
     bd2:	9002      	str	r0, [sp, #8]
     bd4:	bd03      	pop	{r0, r1, pc}
     bd6:	46c0      	nop			; (mov r8, r8)
     bd8:	00000019 	.word	0x00000019

00000bdc <__aeabi_uidivmod>:
     bdc:	2900      	cmp	r1, #0
     bde:	d0f0      	beq.n	bc2 <.udivsi3_skip_div0_test+0x6a>
     be0:	b503      	push	{r0, r1, lr}
     be2:	f7ff ffb9 	bl	b58 <.udivsi3_skip_div0_test>
     be6:	bc0e      	pop	{r1, r2, r3}
     be8:	4342      	muls	r2, r0
     bea:	1a89      	subs	r1, r1, r2
     bec:	4718      	bx	r3
     bee:	46c0      	nop			; (mov r8, r8)

00000bf0 <__aeabi_idiv0>:
     bf0:	4770      	bx	lr
     bf2:	46c0      	nop			; (mov r8, r8)

00000bf4 <__errno>:
     bf4:	4b01      	ldr	r3, [pc, #4]	; (bfc <__errno+0x8>)
     bf6:	6818      	ldr	r0, [r3, #0]
     bf8:	4770      	bx	lr
     bfa:	46c0      	nop			; (mov r8, r8)
     bfc:	1000012c 	.word	0x1000012c

00000c00 <__sflush_r>:
     c00:	b5f7      	push	{r0, r1, r2, r4, r5, r6, r7, lr}
     c02:	898b      	ldrh	r3, [r1, #12]
     c04:	1c05      	adds	r5, r0, #0
     c06:	1c0c      	adds	r4, r1, #0
     c08:	0719      	lsls	r1, r3, #28
     c0a:	d45e      	bmi.n	cca <__sflush_r+0xca>
     c0c:	6862      	ldr	r2, [r4, #4]
     c0e:	2a00      	cmp	r2, #0
     c10:	dc02      	bgt.n	c18 <__sflush_r+0x18>
     c12:	6c27      	ldr	r7, [r4, #64]	; 0x40
     c14:	2f00      	cmp	r7, #0
     c16:	dd1a      	ble.n	c4e <__sflush_r+0x4e>
     c18:	6ae7      	ldr	r7, [r4, #44]	; 0x2c
     c1a:	2f00      	cmp	r7, #0
     c1c:	d017      	beq.n	c4e <__sflush_r+0x4e>
     c1e:	2200      	movs	r2, #0
     c20:	682e      	ldr	r6, [r5, #0]
     c22:	602a      	str	r2, [r5, #0]
     c24:	2280      	movs	r2, #128	; 0x80
     c26:	0152      	lsls	r2, r2, #5
     c28:	401a      	ands	r2, r3
     c2a:	d001      	beq.n	c30 <__sflush_r+0x30>
     c2c:	6d62      	ldr	r2, [r4, #84]	; 0x54
     c2e:	e015      	b.n	c5c <__sflush_r+0x5c>
     c30:	1c28      	adds	r0, r5, #0
     c32:	6a21      	ldr	r1, [r4, #32]
     c34:	2301      	movs	r3, #1
     c36:	47b8      	blx	r7
     c38:	1c02      	adds	r2, r0, #0
     c3a:	1c41      	adds	r1, r0, #1
     c3c:	d10e      	bne.n	c5c <__sflush_r+0x5c>
     c3e:	682b      	ldr	r3, [r5, #0]
     c40:	2b00      	cmp	r3, #0
     c42:	d00b      	beq.n	c5c <__sflush_r+0x5c>
     c44:	2b1d      	cmp	r3, #29
     c46:	d001      	beq.n	c4c <__sflush_r+0x4c>
     c48:	2b16      	cmp	r3, #22
     c4a:	d102      	bne.n	c52 <__sflush_r+0x52>
     c4c:	602e      	str	r6, [r5, #0]
     c4e:	2000      	movs	r0, #0
     c50:	e05e      	b.n	d10 <__sflush_r+0x110>
     c52:	89a3      	ldrh	r3, [r4, #12]
     c54:	2140      	movs	r1, #64	; 0x40
     c56:	430b      	orrs	r3, r1
     c58:	81a3      	strh	r3, [r4, #12]
     c5a:	e059      	b.n	d10 <__sflush_r+0x110>
     c5c:	89a3      	ldrh	r3, [r4, #12]
     c5e:	075f      	lsls	r7, r3, #29
     c60:	d506      	bpl.n	c70 <__sflush_r+0x70>
     c62:	6861      	ldr	r1, [r4, #4]
     c64:	6b63      	ldr	r3, [r4, #52]	; 0x34
     c66:	1a52      	subs	r2, r2, r1
     c68:	2b00      	cmp	r3, #0
     c6a:	d001      	beq.n	c70 <__sflush_r+0x70>
     c6c:	6c27      	ldr	r7, [r4, #64]	; 0x40
     c6e:	1bd2      	subs	r2, r2, r7
     c70:	1c28      	adds	r0, r5, #0
     c72:	6a21      	ldr	r1, [r4, #32]
     c74:	2300      	movs	r3, #0
     c76:	6ae7      	ldr	r7, [r4, #44]	; 0x2c
     c78:	47b8      	blx	r7
     c7a:	89a2      	ldrh	r2, [r4, #12]
     c7c:	1c41      	adds	r1, r0, #1
     c7e:	d106      	bne.n	c8e <__sflush_r+0x8e>
     c80:	682b      	ldr	r3, [r5, #0]
     c82:	2b00      	cmp	r3, #0
     c84:	d003      	beq.n	c8e <__sflush_r+0x8e>
     c86:	2b1d      	cmp	r3, #29
     c88:	d001      	beq.n	c8e <__sflush_r+0x8e>
     c8a:	2b16      	cmp	r3, #22
     c8c:	d119      	bne.n	cc2 <__sflush_r+0xc2>
     c8e:	2300      	movs	r3, #0
     c90:	6063      	str	r3, [r4, #4]
     c92:	6923      	ldr	r3, [r4, #16]
     c94:	6023      	str	r3, [r4, #0]
     c96:	04d7      	lsls	r7, r2, #19
     c98:	d505      	bpl.n	ca6 <__sflush_r+0xa6>
     c9a:	1c41      	adds	r1, r0, #1
     c9c:	d102      	bne.n	ca4 <__sflush_r+0xa4>
     c9e:	682a      	ldr	r2, [r5, #0]
     ca0:	2a00      	cmp	r2, #0
     ca2:	d100      	bne.n	ca6 <__sflush_r+0xa6>
     ca4:	6560      	str	r0, [r4, #84]	; 0x54
     ca6:	6b61      	ldr	r1, [r4, #52]	; 0x34
     ca8:	602e      	str	r6, [r5, #0]
     caa:	2900      	cmp	r1, #0
     cac:	d0cf      	beq.n	c4e <__sflush_r+0x4e>
     cae:	1c23      	adds	r3, r4, #0
     cb0:	3344      	adds	r3, #68	; 0x44
     cb2:	4299      	cmp	r1, r3
     cb4:	d002      	beq.n	cbc <__sflush_r+0xbc>
     cb6:	1c28      	adds	r0, r5, #0
     cb8:	f000 fa26 	bl	1108 <_free_r>
     cbc:	2000      	movs	r0, #0
     cbe:	6360      	str	r0, [r4, #52]	; 0x34
     cc0:	e026      	b.n	d10 <__sflush_r+0x110>
     cc2:	2340      	movs	r3, #64	; 0x40
     cc4:	431a      	orrs	r2, r3
     cc6:	81a2      	strh	r2, [r4, #12]
     cc8:	e022      	b.n	d10 <__sflush_r+0x110>
     cca:	6926      	ldr	r6, [r4, #16]
     ccc:	2e00      	cmp	r6, #0
     cce:	d0be      	beq.n	c4e <__sflush_r+0x4e>
     cd0:	6827      	ldr	r7, [r4, #0]
     cd2:	2200      	movs	r2, #0
     cd4:	1bbf      	subs	r7, r7, r6
     cd6:	9701      	str	r7, [sp, #4]
     cd8:	6026      	str	r6, [r4, #0]
     cda:	0799      	lsls	r1, r3, #30
     cdc:	d100      	bne.n	ce0 <__sflush_r+0xe0>
     cde:	6962      	ldr	r2, [r4, #20]
     ce0:	60a2      	str	r2, [r4, #8]
     ce2:	9f01      	ldr	r7, [sp, #4]
     ce4:	2f00      	cmp	r7, #0
     ce6:	ddb2      	ble.n	c4e <__sflush_r+0x4e>
     ce8:	1c28      	adds	r0, r5, #0
     cea:	6a21      	ldr	r1, [r4, #32]
     cec:	1c32      	adds	r2, r6, #0
     cee:	9b01      	ldr	r3, [sp, #4]
     cf0:	6aa7      	ldr	r7, [r4, #40]	; 0x28
     cf2:	47b8      	blx	r7
     cf4:	2800      	cmp	r0, #0
     cf6:	dc06      	bgt.n	d06 <__sflush_r+0x106>
     cf8:	89a3      	ldrh	r3, [r4, #12]
     cfa:	2240      	movs	r2, #64	; 0x40
     cfc:	4313      	orrs	r3, r2
     cfe:	2001      	movs	r0, #1
     d00:	81a3      	strh	r3, [r4, #12]
     d02:	4240      	negs	r0, r0
     d04:	e004      	b.n	d10 <__sflush_r+0x110>
     d06:	9f01      	ldr	r7, [sp, #4]
     d08:	1836      	adds	r6, r6, r0
     d0a:	1a3f      	subs	r7, r7, r0
     d0c:	9701      	str	r7, [sp, #4]
     d0e:	e7e8      	b.n	ce2 <__sflush_r+0xe2>
     d10:	bdfe      	pop	{r1, r2, r3, r4, r5, r6, r7, pc}
	...

00000d14 <_fflush_r>:
     d14:	690a      	ldr	r2, [r1, #16]
     d16:	b538      	push	{r3, r4, r5, lr}
     d18:	1c05      	adds	r5, r0, #0
     d1a:	1c0c      	adds	r4, r1, #0
     d1c:	2a00      	cmp	r2, #0
     d1e:	d101      	bne.n	d24 <_fflush_r+0x10>
     d20:	2000      	movs	r0, #0
     d22:	e01c      	b.n	d5e <_fflush_r+0x4a>
     d24:	2800      	cmp	r0, #0
     d26:	d004      	beq.n	d32 <_fflush_r+0x1e>
     d28:	6983      	ldr	r3, [r0, #24]
     d2a:	2b00      	cmp	r3, #0
     d2c:	d101      	bne.n	d32 <_fflush_r+0x1e>
     d2e:	f000 f885 	bl	e3c <__sinit>
     d32:	4b0b      	ldr	r3, [pc, #44]	; (d60 <_fflush_r+0x4c>)
     d34:	429c      	cmp	r4, r3
     d36:	d101      	bne.n	d3c <_fflush_r+0x28>
     d38:	686c      	ldr	r4, [r5, #4]
     d3a:	e008      	b.n	d4e <_fflush_r+0x3a>
     d3c:	4b09      	ldr	r3, [pc, #36]	; (d64 <_fflush_r+0x50>)
     d3e:	429c      	cmp	r4, r3
     d40:	d101      	bne.n	d46 <_fflush_r+0x32>
     d42:	68ac      	ldr	r4, [r5, #8]
     d44:	e003      	b.n	d4e <_fflush_r+0x3a>
     d46:	4b08      	ldr	r3, [pc, #32]	; (d68 <_fflush_r+0x54>)
     d48:	429c      	cmp	r4, r3
     d4a:	d100      	bne.n	d4e <_fflush_r+0x3a>
     d4c:	68ec      	ldr	r4, [r5, #12]
     d4e:	220c      	movs	r2, #12
     d50:	5ea3      	ldrsh	r3, [r4, r2]
     d52:	2b00      	cmp	r3, #0
     d54:	d0e4      	beq.n	d20 <_fflush_r+0xc>
     d56:	1c28      	adds	r0, r5, #0
     d58:	1c21      	adds	r1, r4, #0
     d5a:	f7ff ff51 	bl	c00 <__sflush_r>
     d5e:	bd38      	pop	{r3, r4, r5, pc}
     d60:	00002a14 	.word	0x00002a14
     d64:	00002a34 	.word	0x00002a34
     d68:	00002a54 	.word	0x00002a54

00000d6c <fflush>:
     d6c:	b508      	push	{r3, lr}
     d6e:	1e01      	subs	r1, r0, #0
     d70:	d105      	bne.n	d7e <fflush+0x12>
     d72:	4b05      	ldr	r3, [pc, #20]	; (d88 <fflush+0x1c>)
     d74:	4905      	ldr	r1, [pc, #20]	; (d8c <fflush+0x20>)
     d76:	6818      	ldr	r0, [r3, #0]
     d78:	f000 f8fe 	bl	f78 <_fwalk_reent>
     d7c:	e003      	b.n	d86 <fflush+0x1a>
     d7e:	4b04      	ldr	r3, [pc, #16]	; (d90 <fflush+0x24>)
     d80:	6818      	ldr	r0, [r3, #0]
     d82:	f7ff ffc7 	bl	d14 <_fflush_r>
     d86:	bd08      	pop	{r3, pc}
     d88:	00002a78 	.word	0x00002a78
     d8c:	00000d15 	.word	0x00000d15
     d90:	1000012c 	.word	0x1000012c

00000d94 <_cleanup_r>:
     d94:	b5f8      	push	{r3, r4, r5, r6, r7, lr}
     d96:	1c04      	adds	r4, r0, #0
     d98:	1c07      	adds	r7, r0, #0
     d9a:	3448      	adds	r4, #72	; 0x48
     d9c:	2c00      	cmp	r4, #0
     d9e:	d012      	beq.n	dc6 <_cleanup_r+0x32>
     da0:	68a5      	ldr	r5, [r4, #8]
     da2:	6866      	ldr	r6, [r4, #4]
     da4:	3e01      	subs	r6, #1
     da6:	d40c      	bmi.n	dc2 <_cleanup_r+0x2e>
     da8:	89ab      	ldrh	r3, [r5, #12]
     daa:	2b01      	cmp	r3, #1
     dac:	d907      	bls.n	dbe <_cleanup_r+0x2a>
     dae:	220e      	movs	r2, #14
     db0:	5eab      	ldrsh	r3, [r5, r2]
     db2:	3301      	adds	r3, #1
     db4:	d003      	beq.n	dbe <_cleanup_r+0x2a>
     db6:	1c38      	adds	r0, r7, #0
     db8:	1c29      	adds	r1, r5, #0
     dba:	f7ff ffab 	bl	d14 <_fflush_r>
     dbe:	3568      	adds	r5, #104	; 0x68
     dc0:	e7f0      	b.n	da4 <_cleanup_r+0x10>
     dc2:	6824      	ldr	r4, [r4, #0]
     dc4:	e7ea      	b.n	d9c <_cleanup_r+0x8>
     dc6:	bdf8      	pop	{r3, r4, r5, r6, r7, pc}

00000dc8 <std.isra.0>:
     dc8:	2300      	movs	r3, #0
     dca:	b510      	push	{r4, lr}
     dcc:	1c04      	adds	r4, r0, #0
     dce:	6003      	str	r3, [r0, #0]
     dd0:	6043      	str	r3, [r0, #4]
     dd2:	6083      	str	r3, [r0, #8]
     dd4:	8181      	strh	r1, [r0, #12]
     dd6:	6643      	str	r3, [r0, #100]	; 0x64
     dd8:	81c2      	strh	r2, [r0, #14]
     dda:	6103      	str	r3, [r0, #16]
     ddc:	6143      	str	r3, [r0, #20]
     dde:	6183      	str	r3, [r0, #24]
     de0:	1c19      	adds	r1, r3, #0
     de2:	2208      	movs	r2, #8
     de4:	305c      	adds	r0, #92	; 0x5c
     de6:	f000 f986 	bl	10f6 <memset>
     dea:	4b05      	ldr	r3, [pc, #20]	; (e00 <std.isra.0+0x38>)
     dec:	6224      	str	r4, [r4, #32]
     dee:	6263      	str	r3, [r4, #36]	; 0x24
     df0:	4b04      	ldr	r3, [pc, #16]	; (e04 <std.isra.0+0x3c>)
     df2:	62a3      	str	r3, [r4, #40]	; 0x28
     df4:	4b04      	ldr	r3, [pc, #16]	; (e08 <std.isra.0+0x40>)
     df6:	62e3      	str	r3, [r4, #44]	; 0x2c
     df8:	4b04      	ldr	r3, [pc, #16]	; (e0c <std.isra.0+0x44>)
     dfa:	6323      	str	r3, [r4, #48]	; 0x30
     dfc:	bd10      	pop	{r4, pc}
     dfe:	46c0      	nop			; (mov r8, r8)
     e00:	000013a5 	.word	0x000013a5
     e04:	000013cd 	.word	0x000013cd
     e08:	00001405 	.word	0x00001405
     e0c:	00001431 	.word	0x00001431

00000e10 <__sfmoreglue>:
     e10:	b570      	push	{r4, r5, r6, lr}
     e12:	1e4b      	subs	r3, r1, #1
     e14:	2568      	movs	r5, #104	; 0x68
     e16:	435d      	muls	r5, r3
     e18:	1c0e      	adds	r6, r1, #0
     e1a:	1c29      	adds	r1, r5, #0
     e1c:	3174      	adds	r1, #116	; 0x74
     e1e:	f000 f9bb 	bl	1198 <_malloc_r>
     e22:	1e04      	subs	r4, r0, #0
     e24:	d008      	beq.n	e38 <__sfmoreglue+0x28>
     e26:	2100      	movs	r1, #0
     e28:	6001      	str	r1, [r0, #0]
     e2a:	6046      	str	r6, [r0, #4]
     e2c:	1c2a      	adds	r2, r5, #0
     e2e:	300c      	adds	r0, #12
     e30:	60a0      	str	r0, [r4, #8]
     e32:	3268      	adds	r2, #104	; 0x68
     e34:	f000 f95f 	bl	10f6 <memset>
     e38:	1c20      	adds	r0, r4, #0
     e3a:	bd70      	pop	{r4, r5, r6, pc}

00000e3c <__sinit>:
     e3c:	6983      	ldr	r3, [r0, #24]
     e3e:	b513      	push	{r0, r1, r4, lr}
     e40:	1c04      	adds	r4, r0, #0
     e42:	2b00      	cmp	r3, #0
     e44:	d127      	bne.n	e96 <__sinit+0x5a>
     e46:	6483      	str	r3, [r0, #72]	; 0x48
     e48:	64c3      	str	r3, [r0, #76]	; 0x4c
     e4a:	6503      	str	r3, [r0, #80]	; 0x50
     e4c:	4b12      	ldr	r3, [pc, #72]	; (e98 <__sinit+0x5c>)
     e4e:	4a13      	ldr	r2, [pc, #76]	; (e9c <__sinit+0x60>)
     e50:	681b      	ldr	r3, [r3, #0]
     e52:	6282      	str	r2, [r0, #40]	; 0x28
     e54:	4298      	cmp	r0, r3
     e56:	d101      	bne.n	e5c <__sinit+0x20>
     e58:	2301      	movs	r3, #1
     e5a:	6183      	str	r3, [r0, #24]
     e5c:	1c20      	adds	r0, r4, #0
     e5e:	f000 f81f 	bl	ea0 <__sfp>
     e62:	6060      	str	r0, [r4, #4]
     e64:	1c20      	adds	r0, r4, #0
     e66:	f000 f81b 	bl	ea0 <__sfp>
     e6a:	60a0      	str	r0, [r4, #8]
     e6c:	1c20      	adds	r0, r4, #0
     e6e:	f000 f817 	bl	ea0 <__sfp>
     e72:	2104      	movs	r1, #4
     e74:	60e0      	str	r0, [r4, #12]
     e76:	2200      	movs	r2, #0
     e78:	6860      	ldr	r0, [r4, #4]
     e7a:	f7ff ffa5 	bl	dc8 <std.isra.0>
     e7e:	68a0      	ldr	r0, [r4, #8]
     e80:	2109      	movs	r1, #9
     e82:	2201      	movs	r2, #1
     e84:	f7ff ffa0 	bl	dc8 <std.isra.0>
     e88:	68e0      	ldr	r0, [r4, #12]
     e8a:	2112      	movs	r1, #18
     e8c:	2202      	movs	r2, #2
     e8e:	f7ff ff9b 	bl	dc8 <std.isra.0>
     e92:	2301      	movs	r3, #1
     e94:	61a3      	str	r3, [r4, #24]
     e96:	bd13      	pop	{r0, r1, r4, pc}
     e98:	00002a78 	.word	0x00002a78
     e9c:	00000d95 	.word	0x00000d95

00000ea0 <__sfp>:
     ea0:	b5f8      	push	{r3, r4, r5, r6, r7, lr}
     ea2:	4b1d      	ldr	r3, [pc, #116]	; (f18 <__sfp+0x78>)
     ea4:	1c07      	adds	r7, r0, #0
     ea6:	681e      	ldr	r6, [r3, #0]
     ea8:	69b2      	ldr	r2, [r6, #24]
     eaa:	2a00      	cmp	r2, #0
     eac:	d102      	bne.n	eb4 <__sfp+0x14>
     eae:	1c30      	adds	r0, r6, #0
     eb0:	f7ff ffc4 	bl	e3c <__sinit>
     eb4:	3648      	adds	r6, #72	; 0x48
     eb6:	68b4      	ldr	r4, [r6, #8]
     eb8:	6873      	ldr	r3, [r6, #4]
     eba:	3b01      	subs	r3, #1
     ebc:	d405      	bmi.n	eca <__sfp+0x2a>
     ebe:	220c      	movs	r2, #12
     ec0:	5ea5      	ldrsh	r5, [r4, r2]
     ec2:	2d00      	cmp	r5, #0
     ec4:	d010      	beq.n	ee8 <__sfp+0x48>
     ec6:	3468      	adds	r4, #104	; 0x68
     ec8:	e7f7      	b.n	eba <__sfp+0x1a>
     eca:	6833      	ldr	r3, [r6, #0]
     ecc:	2b00      	cmp	r3, #0
     ece:	d106      	bne.n	ede <__sfp+0x3e>
     ed0:	1c38      	adds	r0, r7, #0
     ed2:	2104      	movs	r1, #4
     ed4:	f7ff ff9c 	bl	e10 <__sfmoreglue>
     ed8:	6030      	str	r0, [r6, #0]
     eda:	2800      	cmp	r0, #0
     edc:	d001      	beq.n	ee2 <__sfp+0x42>
     ede:	6836      	ldr	r6, [r6, #0]
     ee0:	e7e9      	b.n	eb6 <__sfp+0x16>
     ee2:	230c      	movs	r3, #12
     ee4:	603b      	str	r3, [r7, #0]
     ee6:	e016      	b.n	f16 <__sfp+0x76>
     ee8:	2301      	movs	r3, #1
     eea:	425b      	negs	r3, r3
     eec:	81e3      	strh	r3, [r4, #14]
     eee:	1c20      	adds	r0, r4, #0
     ef0:	2301      	movs	r3, #1
     ef2:	81a3      	strh	r3, [r4, #12]
     ef4:	6665      	str	r5, [r4, #100]	; 0x64
     ef6:	6025      	str	r5, [r4, #0]
     ef8:	60a5      	str	r5, [r4, #8]
     efa:	6065      	str	r5, [r4, #4]
     efc:	6125      	str	r5, [r4, #16]
     efe:	6165      	str	r5, [r4, #20]
     f00:	61a5      	str	r5, [r4, #24]
     f02:	305c      	adds	r0, #92	; 0x5c
     f04:	1c29      	adds	r1, r5, #0
     f06:	2208      	movs	r2, #8
     f08:	f000 f8f5 	bl	10f6 <memset>
     f0c:	6365      	str	r5, [r4, #52]	; 0x34
     f0e:	63a5      	str	r5, [r4, #56]	; 0x38
     f10:	64a5      	str	r5, [r4, #72]	; 0x48
     f12:	64e5      	str	r5, [r4, #76]	; 0x4c
     f14:	1c20      	adds	r0, r4, #0
     f16:	bdf8      	pop	{r3, r4, r5, r6, r7, pc}
     f18:	00002a78 	.word	0x00002a78

00000f1c <fiscanf>:
     f1c:	b40e      	push	{r1, r2, r3}
     f1e:	b503      	push	{r0, r1, lr}
     f20:	ab03      	add	r3, sp, #12
     f22:	cb04      	ldmia	r3!, {r2}
     f24:	4a05      	ldr	r2, [pc, #20]	; (f3c <fiscanf+0x20>)
     f26:	1c01      	adds	r1, r0, #0
     f28:	6810      	ldr	r0, [r2, #0]
     f2a:	9a03      	ldr	r2, [sp, #12]
     f2c:	9301      	str	r3, [sp, #4]
     f2e:	f000 ff5d 	bl	1dec <_vfiscanf_r>
     f32:	b002      	add	sp, #8
     f34:	bc08      	pop	{r3}
     f36:	b003      	add	sp, #12
     f38:	4718      	bx	r3
     f3a:	46c0      	nop			; (mov r8, r8)
     f3c:	1000012c 	.word	0x1000012c

00000f40 <_fwalk>:
     f40:	b5f7      	push	{r0, r1, r2, r4, r5, r6, r7, lr}
     f42:	1c04      	adds	r4, r0, #0
     f44:	9101      	str	r1, [sp, #4]
     f46:	3448      	adds	r4, #72	; 0x48
     f48:	2600      	movs	r6, #0
     f4a:	2c00      	cmp	r4, #0
     f4c:	d012      	beq.n	f74 <_fwalk+0x34>
     f4e:	68a5      	ldr	r5, [r4, #8]
     f50:	6867      	ldr	r7, [r4, #4]
     f52:	3f01      	subs	r7, #1
     f54:	d40c      	bmi.n	f70 <_fwalk+0x30>
     f56:	89ab      	ldrh	r3, [r5, #12]
     f58:	2b01      	cmp	r3, #1
     f5a:	d907      	bls.n	f6c <_fwalk+0x2c>
     f5c:	220e      	movs	r2, #14
     f5e:	5eab      	ldrsh	r3, [r5, r2]
     f60:	3301      	adds	r3, #1
     f62:	d003      	beq.n	f6c <_fwalk+0x2c>
     f64:	1c28      	adds	r0, r5, #0
     f66:	9b01      	ldr	r3, [sp, #4]
     f68:	4798      	blx	r3
     f6a:	4306      	orrs	r6, r0
     f6c:	3568      	adds	r5, #104	; 0x68
     f6e:	e7f0      	b.n	f52 <_fwalk+0x12>
     f70:	6824      	ldr	r4, [r4, #0]
     f72:	e7ea      	b.n	f4a <_fwalk+0xa>
     f74:	1c30      	adds	r0, r6, #0
     f76:	bdfe      	pop	{r1, r2, r3, r4, r5, r6, r7, pc}

00000f78 <_fwalk_reent>:
     f78:	b5f7      	push	{r0, r1, r2, r4, r5, r6, r7, lr}
     f7a:	1c04      	adds	r4, r0, #0
     f7c:	1c07      	adds	r7, r0, #0
     f7e:	9101      	str	r1, [sp, #4]
     f80:	3448      	adds	r4, #72	; 0x48
     f82:	2600      	movs	r6, #0
     f84:	2c00      	cmp	r4, #0
     f86:	d016      	beq.n	fb6 <_fwalk_reent+0x3e>
     f88:	6862      	ldr	r2, [r4, #4]
     f8a:	68a5      	ldr	r5, [r4, #8]
     f8c:	9200      	str	r2, [sp, #0]
     f8e:	9a00      	ldr	r2, [sp, #0]
     f90:	3a01      	subs	r2, #1
     f92:	9200      	str	r2, [sp, #0]
     f94:	d40d      	bmi.n	fb2 <_fwalk_reent+0x3a>
     f96:	89ab      	ldrh	r3, [r5, #12]
     f98:	2b01      	cmp	r3, #1
     f9a:	d908      	bls.n	fae <_fwalk_reent+0x36>
     f9c:	220e      	movs	r2, #14
     f9e:	5eab      	ldrsh	r3, [r5, r2]
     fa0:	3301      	adds	r3, #1
     fa2:	d004      	beq.n	fae <_fwalk_reent+0x36>
     fa4:	1c38      	adds	r0, r7, #0
     fa6:	1c29      	adds	r1, r5, #0
     fa8:	9b01      	ldr	r3, [sp, #4]
     faa:	4798      	blx	r3
     fac:	4306      	orrs	r6, r0
     fae:	3568      	adds	r5, #104	; 0x68
     fb0:	e7ed      	b.n	f8e <_fwalk_reent+0x16>
     fb2:	6824      	ldr	r4, [r4, #0]
     fb4:	e7e6      	b.n	f84 <_fwalk_reent+0xc>
     fb6:	1c30      	adds	r0, r6, #0
     fb8:	bdfe      	pop	{r1, r2, r3, r4, r5, r6, r7, pc}
	...

00000fbc <_fwrite_r>:
     fbc:	b5f7      	push	{r0, r1, r2, r4, r5, r6, r7, lr}
     fbe:	4353      	muls	r3, r2
     fc0:	1c05      	adds	r5, r0, #0
     fc2:	9101      	str	r1, [sp, #4]
     fc4:	1c17      	adds	r7, r2, #0
     fc6:	9c08      	ldr	r4, [sp, #32]
     fc8:	9300      	str	r3, [sp, #0]
     fca:	2800      	cmp	r0, #0
     fcc:	d004      	beq.n	fd8 <_fwrite_r+0x1c>
     fce:	6982      	ldr	r2, [r0, #24]
     fd0:	2a00      	cmp	r2, #0
     fd2:	d101      	bne.n	fd8 <_fwrite_r+0x1c>
     fd4:	f7ff ff32 	bl	e3c <__sinit>
     fd8:	4b24      	ldr	r3, [pc, #144]	; (106c <_fwrite_r+0xb0>)
     fda:	429c      	cmp	r4, r3
     fdc:	d101      	bne.n	fe2 <_fwrite_r+0x26>
     fde:	686c      	ldr	r4, [r5, #4]
     fe0:	e008      	b.n	ff4 <_fwrite_r+0x38>
     fe2:	4b23      	ldr	r3, [pc, #140]	; (1070 <_fwrite_r+0xb4>)
     fe4:	429c      	cmp	r4, r3
     fe6:	d101      	bne.n	fec <_fwrite_r+0x30>
     fe8:	68ac      	ldr	r4, [r5, #8]
     fea:	e003      	b.n	ff4 <_fwrite_r+0x38>
     fec:	4b21      	ldr	r3, [pc, #132]	; (1074 <_fwrite_r+0xb8>)
     fee:	429c      	cmp	r4, r3
     ff0:	d100      	bne.n	ff4 <_fwrite_r+0x38>
     ff2:	68ec      	ldr	r4, [r5, #12]
     ff4:	89a3      	ldrh	r3, [r4, #12]
     ff6:	071a      	lsls	r2, r3, #28
     ff8:	d504      	bpl.n	1004 <_fwrite_r+0x48>
     ffa:	6923      	ldr	r3, [r4, #16]
     ffc:	2b00      	cmp	r3, #0
     ffe:	d001      	beq.n	1004 <_fwrite_r+0x48>
    1000:	2600      	movs	r6, #0
    1002:	e01c      	b.n	103e <_fwrite_r+0x82>
    1004:	1c28      	adds	r0, r5, #0
    1006:	1c21      	adds	r1, r4, #0
    1008:	f001 f8e6 	bl	21d8 <__swsetup_r>
    100c:	2600      	movs	r6, #0
    100e:	42b0      	cmp	r0, r6
    1010:	d0f6      	beq.n	1000 <_fwrite_r+0x44>
    1012:	e025      	b.n	1060 <_fwrite_r+0xa4>
    1014:	68a3      	ldr	r3, [r4, #8]
    1016:	9a01      	ldr	r2, [sp, #4]
    1018:	3b01      	subs	r3, #1
    101a:	60a3      	str	r3, [r4, #8]
    101c:	5d91      	ldrb	r1, [r2, r6]
    101e:	2b00      	cmp	r3, #0
    1020:	da18      	bge.n	1054 <_fwrite_r+0x98>
    1022:	69a2      	ldr	r2, [r4, #24]
    1024:	4293      	cmp	r3, r2
    1026:	da0e      	bge.n	1046 <_fwrite_r+0x8a>
    1028:	1c28      	adds	r0, r5, #0
    102a:	1c22      	adds	r2, r4, #0
    102c:	f001 f868 	bl	2100 <__swbuf_r>
    1030:	3001      	adds	r0, #1
    1032:	4243      	negs	r3, r0
    1034:	4158      	adcs	r0, r3
    1036:	b2c0      	uxtb	r0, r0
    1038:	2800      	cmp	r0, #0
    103a:	d111      	bne.n	1060 <_fwrite_r+0xa4>
    103c:	3601      	adds	r6, #1
    103e:	9b00      	ldr	r3, [sp, #0]
    1040:	429e      	cmp	r6, r3
    1042:	d1e7      	bne.n	1014 <_fwrite_r+0x58>
    1044:	e00c      	b.n	1060 <_fwrite_r+0xa4>
    1046:	6823      	ldr	r3, [r4, #0]
    1048:	7019      	strb	r1, [r3, #0]
    104a:	6823      	ldr	r3, [r4, #0]
    104c:	7819      	ldrb	r1, [r3, #0]
    104e:	290a      	cmp	r1, #10
    1050:	d103      	bne.n	105a <_fwrite_r+0x9e>
    1052:	e7e9      	b.n	1028 <_fwrite_r+0x6c>
    1054:	6822      	ldr	r2, [r4, #0]
    1056:	7011      	strb	r1, [r2, #0]
    1058:	6823      	ldr	r3, [r4, #0]
    105a:	3301      	adds	r3, #1
    105c:	6023      	str	r3, [r4, #0]
    105e:	e7ed      	b.n	103c <_fwrite_r+0x80>
    1060:	1c30      	adds	r0, r6, #0
    1062:	1c39      	adds	r1, r7, #0
    1064:	f7ff fd76 	bl	b54 <__aeabi_uidiv>
    1068:	bdfe      	pop	{r1, r2, r3, r4, r5, r6, r7, pc}
    106a:	46c0      	nop			; (mov r8, r8)
    106c:	00002a14 	.word	0x00002a14
    1070:	00002a34 	.word	0x00002a34
    1074:	00002a54 	.word	0x00002a54

00001078 <fwrite>:
    1078:	b573      	push	{r0, r1, r4, r5, r6, lr}
    107a:	1c14      	adds	r4, r2, #0
    107c:	4a05      	ldr	r2, [pc, #20]	; (1094 <fwrite+0x1c>)
    107e:	1c06      	adds	r6, r0, #0
    1080:	1c0d      	adds	r5, r1, #0
    1082:	6810      	ldr	r0, [r2, #0]
    1084:	1c31      	adds	r1, r6, #0
    1086:	9300      	str	r3, [sp, #0]
    1088:	1c2a      	adds	r2, r5, #0
    108a:	1c23      	adds	r3, r4, #0
    108c:	f7ff ff96 	bl	fbc <_fwrite_r>
    1090:	bd76      	pop	{r1, r2, r4, r5, r6, pc}
    1092:	46c0      	nop			; (mov r8, r8)
    1094:	1000012c 	.word	0x1000012c

00001098 <__libc_init_array>:
    1098:	b570      	push	{r4, r5, r6, lr}
    109a:	4b0e      	ldr	r3, [pc, #56]	; (10d4 <__libc_init_array+0x3c>)
    109c:	4d0e      	ldr	r5, [pc, #56]	; (10d8 <__libc_init_array+0x40>)
    109e:	2400      	movs	r4, #0
    10a0:	1aed      	subs	r5, r5, r3
    10a2:	10ad      	asrs	r5, r5, #2
    10a4:	1c1e      	adds	r6, r3, #0
    10a6:	42ac      	cmp	r4, r5
    10a8:	d004      	beq.n	10b4 <__libc_init_array+0x1c>
    10aa:	00a3      	lsls	r3, r4, #2
    10ac:	58f3      	ldr	r3, [r6, r3]
    10ae:	4798      	blx	r3
    10b0:	3401      	adds	r4, #1
    10b2:	e7f8      	b.n	10a6 <__libc_init_array+0xe>
    10b4:	f001 fbba 	bl	282c <_init>
    10b8:	4b08      	ldr	r3, [pc, #32]	; (10dc <__libc_init_array+0x44>)
    10ba:	4d09      	ldr	r5, [pc, #36]	; (10e0 <__libc_init_array+0x48>)
    10bc:	2400      	movs	r4, #0
    10be:	1aed      	subs	r5, r5, r3
    10c0:	10ad      	asrs	r5, r5, #2
    10c2:	1c1e      	adds	r6, r3, #0
    10c4:	42ac      	cmp	r4, r5
    10c6:	d004      	beq.n	10d2 <__libc_init_array+0x3a>
    10c8:	00a3      	lsls	r3, r4, #2
    10ca:	58f3      	ldr	r3, [r6, r3]
    10cc:	4798      	blx	r3
    10ce:	3401      	adds	r4, #1
    10d0:	e7f8      	b.n	10c4 <__libc_init_array+0x2c>
    10d2:	bd70      	pop	{r4, r5, r6, pc}
    10d4:	10000134 	.word	0x10000134
    10d8:	10000134 	.word	0x10000134
    10dc:	10000134 	.word	0x10000134
    10e0:	10000138 	.word	0x10000138

000010e4 <memcpy>:
    10e4:	b510      	push	{r4, lr}
    10e6:	2300      	movs	r3, #0
    10e8:	4293      	cmp	r3, r2
    10ea:	d003      	beq.n	10f4 <memcpy+0x10>
    10ec:	5ccc      	ldrb	r4, [r1, r3]
    10ee:	54c4      	strb	r4, [r0, r3]
    10f0:	3301      	adds	r3, #1
    10f2:	e7f9      	b.n	10e8 <memcpy+0x4>
    10f4:	bd10      	pop	{r4, pc}

000010f6 <memset>:
    10f6:	1c03      	adds	r3, r0, #0
    10f8:	1882      	adds	r2, r0, r2
    10fa:	4293      	cmp	r3, r2
    10fc:	d002      	beq.n	1104 <memset+0xe>
    10fe:	7019      	strb	r1, [r3, #0]
    1100:	3301      	adds	r3, #1
    1102:	e7fa      	b.n	10fa <memset+0x4>
    1104:	4770      	bx	lr
	...

00001108 <_free_r>:
    1108:	b530      	push	{r4, r5, lr}
    110a:	2900      	cmp	r1, #0
    110c:	d040      	beq.n	1190 <_free_r+0x88>
    110e:	3904      	subs	r1, #4
    1110:	680b      	ldr	r3, [r1, #0]
    1112:	2b00      	cmp	r3, #0
    1114:	da00      	bge.n	1118 <_free_r+0x10>
    1116:	18c9      	adds	r1, r1, r3
    1118:	4a1e      	ldr	r2, [pc, #120]	; (1194 <_free_r+0x8c>)
    111a:	6813      	ldr	r3, [r2, #0]
    111c:	1c14      	adds	r4, r2, #0
    111e:	2b00      	cmp	r3, #0
    1120:	d102      	bne.n	1128 <_free_r+0x20>
    1122:	604b      	str	r3, [r1, #4]
    1124:	6011      	str	r1, [r2, #0]
    1126:	e033      	b.n	1190 <_free_r+0x88>
    1128:	4299      	cmp	r1, r3
    112a:	d20f      	bcs.n	114c <_free_r+0x44>
    112c:	6808      	ldr	r0, [r1, #0]
    112e:	180a      	adds	r2, r1, r0
    1130:	429a      	cmp	r2, r3
    1132:	d105      	bne.n	1140 <_free_r+0x38>
    1134:	6813      	ldr	r3, [r2, #0]
    1136:	6852      	ldr	r2, [r2, #4]
    1138:	18c0      	adds	r0, r0, r3
    113a:	6008      	str	r0, [r1, #0]
    113c:	604a      	str	r2, [r1, #4]
    113e:	e000      	b.n	1142 <_free_r+0x3a>
    1140:	604b      	str	r3, [r1, #4]
    1142:	6021      	str	r1, [r4, #0]
    1144:	e024      	b.n	1190 <_free_r+0x88>
    1146:	428a      	cmp	r2, r1
    1148:	d803      	bhi.n	1152 <_free_r+0x4a>
    114a:	1c13      	adds	r3, r2, #0
    114c:	685a      	ldr	r2, [r3, #4]
    114e:	2a00      	cmp	r2, #0
    1150:	d1f9      	bne.n	1146 <_free_r+0x3e>
    1152:	681d      	ldr	r5, [r3, #0]
    1154:	195c      	adds	r4, r3, r5
    1156:	428c      	cmp	r4, r1
    1158:	d10b      	bne.n	1172 <_free_r+0x6a>
    115a:	6809      	ldr	r1, [r1, #0]
    115c:	1869      	adds	r1, r5, r1
    115e:	1858      	adds	r0, r3, r1
    1160:	6019      	str	r1, [r3, #0]
    1162:	4290      	cmp	r0, r2
    1164:	d114      	bne.n	1190 <_free_r+0x88>
    1166:	6814      	ldr	r4, [r2, #0]
    1168:	6852      	ldr	r2, [r2, #4]
    116a:	1909      	adds	r1, r1, r4
    116c:	6019      	str	r1, [r3, #0]
    116e:	605a      	str	r2, [r3, #4]
    1170:	e00e      	b.n	1190 <_free_r+0x88>
    1172:	428c      	cmp	r4, r1
    1174:	d902      	bls.n	117c <_free_r+0x74>
    1176:	230c      	movs	r3, #12
    1178:	6003      	str	r3, [r0, #0]
    117a:	e009      	b.n	1190 <_free_r+0x88>
    117c:	6808      	ldr	r0, [r1, #0]
    117e:	180c      	adds	r4, r1, r0
    1180:	4294      	cmp	r4, r2
    1182:	d103      	bne.n	118c <_free_r+0x84>
    1184:	6814      	ldr	r4, [r2, #0]
    1186:	6852      	ldr	r2, [r2, #4]
    1188:	1900      	adds	r0, r0, r4
    118a:	6008      	str	r0, [r1, #0]
    118c:	604a      	str	r2, [r1, #4]
    118e:	6059      	str	r1, [r3, #4]
    1190:	bd30      	pop	{r4, r5, pc}
    1192:	46c0      	nop			; (mov r8, r8)
    1194:	1000026c 	.word	0x1000026c

00001198 <_malloc_r>:
    1198:	b570      	push	{r4, r5, r6, lr}
    119a:	2303      	movs	r3, #3
    119c:	1ccd      	adds	r5, r1, #3
    119e:	439d      	bics	r5, r3
    11a0:	3508      	adds	r5, #8
    11a2:	1c06      	adds	r6, r0, #0
    11a4:	2d0c      	cmp	r5, #12
    11a6:	d201      	bcs.n	11ac <_malloc_r+0x14>
    11a8:	250c      	movs	r5, #12
    11aa:	e001      	b.n	11b0 <_malloc_r+0x18>
    11ac:	2d00      	cmp	r5, #0
    11ae:	db3f      	blt.n	1230 <_malloc_r+0x98>
    11b0:	428d      	cmp	r5, r1
    11b2:	d33d      	bcc.n	1230 <_malloc_r+0x98>
    11b4:	4b20      	ldr	r3, [pc, #128]	; (1238 <_malloc_r+0xa0>)
    11b6:	681c      	ldr	r4, [r3, #0]
    11b8:	1c1a      	adds	r2, r3, #0
    11ba:	1c21      	adds	r1, r4, #0
    11bc:	2900      	cmp	r1, #0
    11be:	d013      	beq.n	11e8 <_malloc_r+0x50>
    11c0:	6808      	ldr	r0, [r1, #0]
    11c2:	1b43      	subs	r3, r0, r5
    11c4:	d40d      	bmi.n	11e2 <_malloc_r+0x4a>
    11c6:	2b0b      	cmp	r3, #11
    11c8:	d902      	bls.n	11d0 <_malloc_r+0x38>
    11ca:	600b      	str	r3, [r1, #0]
    11cc:	18cc      	adds	r4, r1, r3
    11ce:	e01e      	b.n	120e <_malloc_r+0x76>
    11d0:	428c      	cmp	r4, r1
    11d2:	d102      	bne.n	11da <_malloc_r+0x42>
    11d4:	6863      	ldr	r3, [r4, #4]
    11d6:	6013      	str	r3, [r2, #0]
    11d8:	e01a      	b.n	1210 <_malloc_r+0x78>
    11da:	6848      	ldr	r0, [r1, #4]
    11dc:	6060      	str	r0, [r4, #4]
    11de:	1c0c      	adds	r4, r1, #0
    11e0:	e016      	b.n	1210 <_malloc_r+0x78>
    11e2:	1c0c      	adds	r4, r1, #0
    11e4:	6849      	ldr	r1, [r1, #4]
    11e6:	e7e9      	b.n	11bc <_malloc_r+0x24>
    11e8:	4c14      	ldr	r4, [pc, #80]	; (123c <_malloc_r+0xa4>)
    11ea:	6820      	ldr	r0, [r4, #0]
    11ec:	2800      	cmp	r0, #0
    11ee:	d103      	bne.n	11f8 <_malloc_r+0x60>
    11f0:	1c30      	adds	r0, r6, #0
    11f2:	f000 f8ab 	bl	134c <_sbrk_r>
    11f6:	6020      	str	r0, [r4, #0]
    11f8:	1c30      	adds	r0, r6, #0
    11fa:	1c29      	adds	r1, r5, #0
    11fc:	f000 f8a6 	bl	134c <_sbrk_r>
    1200:	1c43      	adds	r3, r0, #1
    1202:	d015      	beq.n	1230 <_malloc_r+0x98>
    1204:	1cc4      	adds	r4, r0, #3
    1206:	2303      	movs	r3, #3
    1208:	439c      	bics	r4, r3
    120a:	4284      	cmp	r4, r0
    120c:	d10a      	bne.n	1224 <_malloc_r+0x8c>
    120e:	6025      	str	r5, [r4, #0]
    1210:	1c20      	adds	r0, r4, #0
    1212:	300b      	adds	r0, #11
    1214:	2207      	movs	r2, #7
    1216:	1d23      	adds	r3, r4, #4
    1218:	4390      	bics	r0, r2
    121a:	1ac3      	subs	r3, r0, r3
    121c:	d00b      	beq.n	1236 <_malloc_r+0x9e>
    121e:	425a      	negs	r2, r3
    1220:	50e2      	str	r2, [r4, r3]
    1222:	e008      	b.n	1236 <_malloc_r+0x9e>
    1224:	1a21      	subs	r1, r4, r0
    1226:	1c30      	adds	r0, r6, #0
    1228:	f000 f890 	bl	134c <_sbrk_r>
    122c:	3001      	adds	r0, #1
    122e:	d1ee      	bne.n	120e <_malloc_r+0x76>
    1230:	230c      	movs	r3, #12
    1232:	6033      	str	r3, [r6, #0]
    1234:	2000      	movs	r0, #0
    1236:	bd70      	pop	{r4, r5, r6, pc}
    1238:	1000026c 	.word	0x1000026c
    123c:	10000268 	.word	0x10000268

00001240 <iprintf>:
    1240:	b40f      	push	{r0, r1, r2, r3}
    1242:	4b0b      	ldr	r3, [pc, #44]	; (1270 <iprintf+0x30>)
    1244:	b513      	push	{r0, r1, r4, lr}
    1246:	681c      	ldr	r4, [r3, #0]
    1248:	2c00      	cmp	r4, #0
    124a:	d005      	beq.n	1258 <iprintf+0x18>
    124c:	69a3      	ldr	r3, [r4, #24]
    124e:	2b00      	cmp	r3, #0
    1250:	d102      	bne.n	1258 <iprintf+0x18>
    1252:	1c20      	adds	r0, r4, #0
    1254:	f7ff fdf2 	bl	e3c <__sinit>
    1258:	ab05      	add	r3, sp, #20
    125a:	68a1      	ldr	r1, [r4, #8]
    125c:	1c20      	adds	r0, r4, #0
    125e:	9a04      	ldr	r2, [sp, #16]
    1260:	9301      	str	r3, [sp, #4]
    1262:	f000 f9cb 	bl	15fc <_vfiprintf_r>
    1266:	bc16      	pop	{r1, r2, r4}
    1268:	bc08      	pop	{r3}
    126a:	b004      	add	sp, #16
    126c:	4718      	bx	r3
    126e:	46c0      	nop			; (mov r8, r8)
    1270:	1000012c 	.word	0x1000012c

00001274 <_puts_r>:
    1274:	b570      	push	{r4, r5, r6, lr}
    1276:	1c05      	adds	r5, r0, #0
    1278:	1c0e      	adds	r6, r1, #0
    127a:	2800      	cmp	r0, #0
    127c:	d004      	beq.n	1288 <_puts_r+0x14>
    127e:	6982      	ldr	r2, [r0, #24]
    1280:	2a00      	cmp	r2, #0
    1282:	d101      	bne.n	1288 <_puts_r+0x14>
    1284:	f7ff fdda 	bl	e3c <__sinit>
    1288:	68ac      	ldr	r4, [r5, #8]
    128a:	89a3      	ldrh	r3, [r4, #12]
    128c:	071a      	lsls	r2, r3, #28
    128e:	d502      	bpl.n	1296 <_puts_r+0x22>
    1290:	6923      	ldr	r3, [r4, #16]
    1292:	2b00      	cmp	r3, #0
    1294:	d119      	bne.n	12ca <_puts_r+0x56>
    1296:	1c28      	adds	r0, r5, #0
    1298:	1c21      	adds	r1, r4, #0
    129a:	f000 ff9d 	bl	21d8 <__swsetup_r>
    129e:	2800      	cmp	r0, #0
    12a0:	d013      	beq.n	12ca <_puts_r+0x56>
    12a2:	2001      	movs	r0, #1
    12a4:	4240      	negs	r0, r0
    12a6:	e045      	b.n	1334 <_puts_r+0xc0>
    12a8:	7831      	ldrb	r1, [r6, #0]
    12aa:	2b00      	cmp	r3, #0
    12ac:	da1b      	bge.n	12e6 <_puts_r+0x72>
    12ae:	69a2      	ldr	r2, [r4, #24]
    12b0:	4293      	cmp	r3, r2
    12b2:	da11      	bge.n	12d8 <_puts_r+0x64>
    12b4:	1c28      	adds	r0, r5, #0
    12b6:	1c22      	adds	r2, r4, #0
    12b8:	f000 ff22 	bl	2100 <__swbuf_r>
    12bc:	3001      	adds	r0, #1
    12be:	4243      	negs	r3, r0
    12c0:	4158      	adcs	r0, r3
    12c2:	b2c0      	uxtb	r0, r0
    12c4:	2800      	cmp	r0, #0
    12c6:	d1ec      	bne.n	12a2 <_puts_r+0x2e>
    12c8:	3601      	adds	r6, #1
    12ca:	68a3      	ldr	r3, [r4, #8]
    12cc:	7832      	ldrb	r2, [r6, #0]
    12ce:	3b01      	subs	r3, #1
    12d0:	60a3      	str	r3, [r4, #8]
    12d2:	2a00      	cmp	r2, #0
    12d4:	d1e8      	bne.n	12a8 <_puts_r+0x34>
    12d6:	e00c      	b.n	12f2 <_puts_r+0x7e>
    12d8:	6823      	ldr	r3, [r4, #0]
    12da:	7019      	strb	r1, [r3, #0]
    12dc:	6823      	ldr	r3, [r4, #0]
    12de:	7819      	ldrb	r1, [r3, #0]
    12e0:	290a      	cmp	r1, #10
    12e2:	d103      	bne.n	12ec <_puts_r+0x78>
    12e4:	e7e6      	b.n	12b4 <_puts_r+0x40>
    12e6:	6822      	ldr	r2, [r4, #0]
    12e8:	7011      	strb	r1, [r2, #0]
    12ea:	6823      	ldr	r3, [r4, #0]
    12ec:	3301      	adds	r3, #1
    12ee:	6023      	str	r3, [r4, #0]
    12f0:	e7ea      	b.n	12c8 <_puts_r+0x54>
    12f2:	2b00      	cmp	r3, #0
    12f4:	da17      	bge.n	1326 <_puts_r+0xb2>
    12f6:	69a2      	ldr	r2, [r4, #24]
    12f8:	4293      	cmp	r3, r2
    12fa:	db08      	blt.n	130e <_puts_r+0x9a>
    12fc:	6822      	ldr	r2, [r4, #0]
    12fe:	230a      	movs	r3, #10
    1300:	7013      	strb	r3, [r2, #0]
    1302:	6823      	ldr	r3, [r4, #0]
    1304:	7819      	ldrb	r1, [r3, #0]
    1306:	290a      	cmp	r1, #10
    1308:	d111      	bne.n	132e <_puts_r+0xba>
    130a:	1c28      	adds	r0, r5, #0
    130c:	e001      	b.n	1312 <_puts_r+0x9e>
    130e:	1c28      	adds	r0, r5, #0
    1310:	210a      	movs	r1, #10
    1312:	1c22      	adds	r2, r4, #0
    1314:	f000 fef4 	bl	2100 <__swbuf_r>
    1318:	3001      	adds	r0, #1
    131a:	4243      	negs	r3, r0
    131c:	4158      	adcs	r0, r3
    131e:	b2c0      	uxtb	r0, r0
    1320:	2800      	cmp	r0, #0
    1322:	d006      	beq.n	1332 <_puts_r+0xbe>
    1324:	e7bd      	b.n	12a2 <_puts_r+0x2e>
    1326:	6822      	ldr	r2, [r4, #0]
    1328:	230a      	movs	r3, #10
    132a:	7013      	strb	r3, [r2, #0]
    132c:	6823      	ldr	r3, [r4, #0]
    132e:	3301      	adds	r3, #1
    1330:	6023      	str	r3, [r4, #0]
    1332:	200a      	movs	r0, #10
    1334:	bd70      	pop	{r4, r5, r6, pc}
	...

00001338 <puts>:
    1338:	b508      	push	{r3, lr}
    133a:	4b03      	ldr	r3, [pc, #12]	; (1348 <puts+0x10>)
    133c:	1c01      	adds	r1, r0, #0
    133e:	6818      	ldr	r0, [r3, #0]
    1340:	f7ff ff98 	bl	1274 <_puts_r>
    1344:	bd08      	pop	{r3, pc}
    1346:	46c0      	nop			; (mov r8, r8)
    1348:	1000012c 	.word	0x1000012c

0000134c <_sbrk_r>:
    134c:	b538      	push	{r3, r4, r5, lr}
    134e:	4c07      	ldr	r4, [pc, #28]	; (136c <_sbrk_r+0x20>)
    1350:	2300      	movs	r3, #0
    1352:	1c05      	adds	r5, r0, #0
    1354:	1c08      	adds	r0, r1, #0
    1356:	6023      	str	r3, [r4, #0]
    1358:	f7ff f8d2 	bl	500 <_sbrk>
    135c:	1c43      	adds	r3, r0, #1
    135e:	d103      	bne.n	1368 <_sbrk_r+0x1c>
    1360:	6823      	ldr	r3, [r4, #0]
    1362:	2b00      	cmp	r3, #0
    1364:	d000      	beq.n	1368 <_sbrk_r+0x1c>
    1366:	602b      	str	r3, [r5, #0]
    1368:	bd38      	pop	{r3, r4, r5, pc}
    136a:	46c0      	nop			; (mov r8, r8)
    136c:	10000278 	.word	0x10000278

00001370 <iscanf>:
    1370:	b40f      	push	{r0, r1, r2, r3}
    1372:	4b0b      	ldr	r3, [pc, #44]	; (13a0 <iscanf+0x30>)
    1374:	b513      	push	{r0, r1, r4, lr}
    1376:	681c      	ldr	r4, [r3, #0]
    1378:	2c00      	cmp	r4, #0
    137a:	d005      	beq.n	1388 <iscanf+0x18>
    137c:	69a3      	ldr	r3, [r4, #24]
    137e:	2b00      	cmp	r3, #0
    1380:	d102      	bne.n	1388 <iscanf+0x18>
    1382:	1c20      	adds	r0, r4, #0
    1384:	f7ff fd5a 	bl	e3c <__sinit>
    1388:	ab05      	add	r3, sp, #20
    138a:	6861      	ldr	r1, [r4, #4]
    138c:	1c20      	adds	r0, r4, #0
    138e:	9a04      	ldr	r2, [sp, #16]
    1390:	9301      	str	r3, [sp, #4]
    1392:	f000 fd2b 	bl	1dec <_vfiscanf_r>
    1396:	bc16      	pop	{r1, r2, r4}
    1398:	bc08      	pop	{r3}
    139a:	b004      	add	sp, #16
    139c:	4718      	bx	r3
    139e:	46c0      	nop			; (mov r8, r8)
    13a0:	1000012c 	.word	0x1000012c

000013a4 <__sread>:
    13a4:	b538      	push	{r3, r4, r5, lr}
    13a6:	1c0c      	adds	r4, r1, #0
    13a8:	250e      	movs	r5, #14
    13aa:	5f49      	ldrsh	r1, [r1, r5]
    13ac:	f001 f82e 	bl	240c <_read_r>
    13b0:	2800      	cmp	r0, #0
    13b2:	db03      	blt.n	13bc <__sread+0x18>
    13b4:	6d62      	ldr	r2, [r4, #84]	; 0x54
    13b6:	1813      	adds	r3, r2, r0
    13b8:	6563      	str	r3, [r4, #84]	; 0x54
    13ba:	e003      	b.n	13c4 <__sread+0x20>
    13bc:	89a2      	ldrh	r2, [r4, #12]
    13be:	4b02      	ldr	r3, [pc, #8]	; (13c8 <__sread+0x24>)
    13c0:	4013      	ands	r3, r2
    13c2:	81a3      	strh	r3, [r4, #12]
    13c4:	bd38      	pop	{r3, r4, r5, pc}
    13c6:	46c0      	nop			; (mov r8, r8)
    13c8:	ffffefff 	.word	0xffffefff

000013cc <__swrite>:
    13cc:	b5f8      	push	{r3, r4, r5, r6, r7, lr}
    13ce:	1c1e      	adds	r6, r3, #0
    13d0:	898b      	ldrh	r3, [r1, #12]
    13d2:	1c05      	adds	r5, r0, #0
    13d4:	1c0c      	adds	r4, r1, #0
    13d6:	1c17      	adds	r7, r2, #0
    13d8:	05da      	lsls	r2, r3, #23
    13da:	d505      	bpl.n	13e8 <__swrite+0x1c>
    13dc:	230e      	movs	r3, #14
    13de:	5ec9      	ldrsh	r1, [r1, r3]
    13e0:	2200      	movs	r2, #0
    13e2:	2302      	movs	r3, #2
    13e4:	f000 ff7c 	bl	22e0 <_lseek_r>
    13e8:	89a2      	ldrh	r2, [r4, #12]
    13ea:	4b05      	ldr	r3, [pc, #20]	; (1400 <__swrite+0x34>)
    13ec:	1c28      	adds	r0, r5, #0
    13ee:	4013      	ands	r3, r2
    13f0:	81a3      	strh	r3, [r4, #12]
    13f2:	220e      	movs	r2, #14
    13f4:	5ea1      	ldrsh	r1, [r4, r2]
    13f6:	1c33      	adds	r3, r6, #0
    13f8:	1c3a      	adds	r2, r7, #0
    13fa:	f000 fed9 	bl	21b0 <_write_r>
    13fe:	bdf8      	pop	{r3, r4, r5, r6, r7, pc}
    1400:	ffffefff 	.word	0xffffefff

00001404 <__sseek>:
    1404:	b538      	push	{r3, r4, r5, lr}
    1406:	1c0c      	adds	r4, r1, #0
    1408:	250e      	movs	r5, #14
    140a:	5f49      	ldrsh	r1, [r1, r5]
    140c:	f000 ff68 	bl	22e0 <_lseek_r>
    1410:	89a3      	ldrh	r3, [r4, #12]
    1412:	1c42      	adds	r2, r0, #1
    1414:	d103      	bne.n	141e <__sseek+0x1a>
    1416:	4a05      	ldr	r2, [pc, #20]	; (142c <__sseek+0x28>)
    1418:	4013      	ands	r3, r2
    141a:	81a3      	strh	r3, [r4, #12]
    141c:	e004      	b.n	1428 <__sseek+0x24>
    141e:	2280      	movs	r2, #128	; 0x80
    1420:	0152      	lsls	r2, r2, #5
    1422:	4313      	orrs	r3, r2
    1424:	81a3      	strh	r3, [r4, #12]
    1426:	6560      	str	r0, [r4, #84]	; 0x54
    1428:	bd38      	pop	{r3, r4, r5, pc}
    142a:	46c0      	nop			; (mov r8, r8)
    142c:	ffffefff 	.word	0xffffefff

00001430 <__sclose>:
    1430:	b508      	push	{r3, lr}
    1432:	230e      	movs	r3, #14
    1434:	5ec9      	ldrsh	r1, [r1, r3]
    1436:	f000 ff41 	bl	22bc <_close_r>
    143a:	bd08      	pop	{r3, pc}

0000143c <strlen>:
    143c:	2300      	movs	r3, #0
    143e:	5cc2      	ldrb	r2, [r0, r3]
    1440:	3301      	adds	r3, #1
    1442:	2a00      	cmp	r2, #0
    1444:	d1fb      	bne.n	143e <strlen+0x2>
    1446:	1e58      	subs	r0, r3, #1
    1448:	4770      	bx	lr
	...

0000144c <__submore>:
    144c:	b5f7      	push	{r0, r1, r2, r4, r5, r6, r7, lr}
    144e:	1c0b      	adds	r3, r1, #0
    1450:	6b4d      	ldr	r5, [r1, #52]	; 0x34
    1452:	3344      	adds	r3, #68	; 0x44
    1454:	1c0c      	adds	r4, r1, #0
    1456:	429d      	cmp	r5, r3
    1458:	d11b      	bne.n	1492 <__submore+0x46>
    145a:	2680      	movs	r6, #128	; 0x80
    145c:	00f6      	lsls	r6, r6, #3
    145e:	1c31      	adds	r1, r6, #0
    1460:	f7ff fe9a 	bl	1198 <_malloc_r>
    1464:	2800      	cmp	r0, #0
    1466:	d102      	bne.n	146e <__submore+0x22>
    1468:	2001      	movs	r0, #1
    146a:	4240      	negs	r0, r0
    146c:	e025      	b.n	14ba <__submore+0x6e>
    146e:	1c23      	adds	r3, r4, #0
    1470:	6360      	str	r0, [r4, #52]	; 0x34
    1472:	63a6      	str	r6, [r4, #56]	; 0x38
    1474:	3346      	adds	r3, #70	; 0x46
    1476:	781a      	ldrb	r2, [r3, #0]
    1478:	4b10      	ldr	r3, [pc, #64]	; (14bc <__submore+0x70>)
    147a:	54c2      	strb	r2, [r0, r3]
    147c:	1c23      	adds	r3, r4, #0
    147e:	3345      	adds	r3, #69	; 0x45
    1480:	781a      	ldrb	r2, [r3, #0]
    1482:	4b0f      	ldr	r3, [pc, #60]	; (14c0 <__submore+0x74>)
    1484:	54c2      	strb	r2, [r0, r3]
    1486:	782a      	ldrb	r2, [r5, #0]
    1488:	4b0e      	ldr	r3, [pc, #56]	; (14c4 <__submore+0x78>)
    148a:	54c2      	strb	r2, [r0, r3]
    148c:	18c0      	adds	r0, r0, r3
    148e:	6020      	str	r0, [r4, #0]
    1490:	e012      	b.n	14b8 <__submore+0x6c>
    1492:	6b8e      	ldr	r6, [r1, #56]	; 0x38
    1494:	1c29      	adds	r1, r5, #0
    1496:	0073      	lsls	r3, r6, #1
    1498:	1c1a      	adds	r2, r3, #0
    149a:	9301      	str	r3, [sp, #4]
    149c:	f000 ff8f 	bl	23be <_realloc_r>
    14a0:	1e05      	subs	r5, r0, #0
    14a2:	d0e1      	beq.n	1468 <__submore+0x1c>
    14a4:	1987      	adds	r7, r0, r6
    14a6:	1c38      	adds	r0, r7, #0
    14a8:	1c29      	adds	r1, r5, #0
    14aa:	1c32      	adds	r2, r6, #0
    14ac:	f7ff fe1a 	bl	10e4 <memcpy>
    14b0:	9b01      	ldr	r3, [sp, #4]
    14b2:	6027      	str	r7, [r4, #0]
    14b4:	6365      	str	r5, [r4, #52]	; 0x34
    14b6:	63a3      	str	r3, [r4, #56]	; 0x38
    14b8:	2000      	movs	r0, #0
    14ba:	bdfe      	pop	{r1, r2, r3, r4, r5, r6, r7, pc}
    14bc:	000003ff 	.word	0x000003ff
    14c0:	000003fe 	.word	0x000003fe
    14c4:	000003fd 	.word	0x000003fd

000014c8 <_ungetc_r>:
    14c8:	b5f8      	push	{r3, r4, r5, r6, r7, lr}
    14ca:	1c05      	adds	r5, r0, #0
    14cc:	1c0e      	adds	r6, r1, #0
    14ce:	1c14      	adds	r4, r2, #0
    14d0:	1c4a      	adds	r2, r1, #1
    14d2:	d102      	bne.n	14da <_ungetc_r+0x12>
    14d4:	2001      	movs	r0, #1
    14d6:	4240      	negs	r0, r0
    14d8:	e061      	b.n	159e <_ungetc_r+0xd6>
    14da:	2800      	cmp	r0, #0
    14dc:	d004      	beq.n	14e8 <_ungetc_r+0x20>
    14de:	6983      	ldr	r3, [r0, #24]
    14e0:	2b00      	cmp	r3, #0
    14e2:	d101      	bne.n	14e8 <_ungetc_r+0x20>
    14e4:	f7ff fcaa 	bl	e3c <__sinit>
    14e8:	4b2d      	ldr	r3, [pc, #180]	; (15a0 <_ungetc_r+0xd8>)
    14ea:	429c      	cmp	r4, r3
    14ec:	d101      	bne.n	14f2 <_ungetc_r+0x2a>
    14ee:	686c      	ldr	r4, [r5, #4]
    14f0:	e008      	b.n	1504 <_ungetc_r+0x3c>
    14f2:	4b2c      	ldr	r3, [pc, #176]	; (15a4 <_ungetc_r+0xdc>)
    14f4:	429c      	cmp	r4, r3
    14f6:	d101      	bne.n	14fc <_ungetc_r+0x34>
    14f8:	68ac      	ldr	r4, [r5, #8]
    14fa:	e003      	b.n	1504 <_ungetc_r+0x3c>
    14fc:	4b2a      	ldr	r3, [pc, #168]	; (15a8 <_ungetc_r+0xe0>)
    14fe:	429c      	cmp	r4, r3
    1500:	d100      	bne.n	1504 <_ungetc_r+0x3c>
    1502:	68ec      	ldr	r4, [r5, #12]
    1504:	89a3      	ldrh	r3, [r4, #12]
    1506:	2220      	movs	r2, #32
    1508:	4393      	bics	r3, r2
    150a:	81a3      	strh	r3, [r4, #12]
    150c:	b29b      	uxth	r3, r3
    150e:	075a      	lsls	r2, r3, #29
    1510:	d413      	bmi.n	153a <_ungetc_r+0x72>
    1512:	06da      	lsls	r2, r3, #27
    1514:	d5de      	bpl.n	14d4 <_ungetc_r+0xc>
    1516:	2708      	movs	r7, #8
    1518:	423b      	tst	r3, r7
    151a:	d00a      	beq.n	1532 <_ungetc_r+0x6a>
    151c:	1c28      	adds	r0, r5, #0
    151e:	1c21      	adds	r1, r4, #0
    1520:	f7ff fbf8 	bl	d14 <_fflush_r>
    1524:	2800      	cmp	r0, #0
    1526:	d1d5      	bne.n	14d4 <_ungetc_r+0xc>
    1528:	89a3      	ldrh	r3, [r4, #12]
    152a:	60a0      	str	r0, [r4, #8]
    152c:	43bb      	bics	r3, r7
    152e:	81a3      	strh	r3, [r4, #12]
    1530:	61a0      	str	r0, [r4, #24]
    1532:	89a3      	ldrh	r3, [r4, #12]
    1534:	2204      	movs	r2, #4
    1536:	4313      	orrs	r3, r2
    1538:	81a3      	strh	r3, [r4, #12]
    153a:	6b63      	ldr	r3, [r4, #52]	; 0x34
    153c:	b2f6      	uxtb	r6, r6
    153e:	6862      	ldr	r2, [r4, #4]
    1540:	2b00      	cmp	r3, #0
    1542:	d010      	beq.n	1566 <_ungetc_r+0x9e>
    1544:	6ba3      	ldr	r3, [r4, #56]	; 0x38
    1546:	429a      	cmp	r2, r3
    1548:	da06      	bge.n	1558 <_ungetc_r+0x90>
    154a:	6823      	ldr	r3, [r4, #0]
    154c:	3b01      	subs	r3, #1
    154e:	6023      	str	r3, [r4, #0]
    1550:	701e      	strb	r6, [r3, #0]
    1552:	6863      	ldr	r3, [r4, #4]
    1554:	3301      	adds	r3, #1
    1556:	e020      	b.n	159a <_ungetc_r+0xd2>
    1558:	1c28      	adds	r0, r5, #0
    155a:	1c21      	adds	r1, r4, #0
    155c:	f7ff ff76 	bl	144c <__submore>
    1560:	2800      	cmp	r0, #0
    1562:	d0f2      	beq.n	154a <_ungetc_r+0x82>
    1564:	e7b6      	b.n	14d4 <_ungetc_r+0xc>
    1566:	6921      	ldr	r1, [r4, #16]
    1568:	6823      	ldr	r3, [r4, #0]
    156a:	2900      	cmp	r1, #0
    156c:	d009      	beq.n	1582 <_ungetc_r+0xba>
    156e:	428b      	cmp	r3, r1
    1570:	d907      	bls.n	1582 <_ungetc_r+0xba>
    1572:	1e59      	subs	r1, r3, #1
    1574:	7808      	ldrb	r0, [r1, #0]
    1576:	42b0      	cmp	r0, r6
    1578:	d103      	bne.n	1582 <_ungetc_r+0xba>
    157a:	3201      	adds	r2, #1
    157c:	6021      	str	r1, [r4, #0]
    157e:	6062      	str	r2, [r4, #4]
    1580:	e00d      	b.n	159e <_ungetc_r+0xd6>
    1582:	63e3      	str	r3, [r4, #60]	; 0x3c
    1584:	1c23      	adds	r3, r4, #0
    1586:	3344      	adds	r3, #68	; 0x44
    1588:	6363      	str	r3, [r4, #52]	; 0x34
    158a:	2303      	movs	r3, #3
    158c:	63a3      	str	r3, [r4, #56]	; 0x38
    158e:	1c23      	adds	r3, r4, #0
    1590:	3346      	adds	r3, #70	; 0x46
    1592:	6422      	str	r2, [r4, #64]	; 0x40
    1594:	701e      	strb	r6, [r3, #0]
    1596:	6023      	str	r3, [r4, #0]
    1598:	2301      	movs	r3, #1
    159a:	6063      	str	r3, [r4, #4]
    159c:	1c30      	adds	r0, r6, #0
    159e:	bdf8      	pop	{r3, r4, r5, r6, r7, pc}
    15a0:	00002a14 	.word	0x00002a14
    15a4:	00002a34 	.word	0x00002a34
    15a8:	00002a54 	.word	0x00002a54

000015ac <__sfputc_r>:
    15ac:	6893      	ldr	r3, [r2, #8]
    15ae:	b510      	push	{r4, lr}
    15b0:	3b01      	subs	r3, #1
    15b2:	6093      	str	r3, [r2, #8]
    15b4:	2b00      	cmp	r3, #0
    15b6:	da05      	bge.n	15c4 <__sfputc_r+0x18>
    15b8:	6994      	ldr	r4, [r2, #24]
    15ba:	42a3      	cmp	r3, r4
    15bc:	db08      	blt.n	15d0 <__sfputc_r+0x24>
    15be:	b2cb      	uxtb	r3, r1
    15c0:	2b0a      	cmp	r3, #10
    15c2:	d005      	beq.n	15d0 <__sfputc_r+0x24>
    15c4:	6813      	ldr	r3, [r2, #0]
    15c6:	1c58      	adds	r0, r3, #1
    15c8:	6010      	str	r0, [r2, #0]
    15ca:	7019      	strb	r1, [r3, #0]
    15cc:	b2c8      	uxtb	r0, r1
    15ce:	e001      	b.n	15d4 <__sfputc_r+0x28>
    15d0:	f000 fd96 	bl	2100 <__swbuf_r>
    15d4:	bd10      	pop	{r4, pc}

000015d6 <__sfputs_r>:
    15d6:	b5f8      	push	{r3, r4, r5, r6, r7, lr}
    15d8:	1c06      	adds	r6, r0, #0
    15da:	1c0f      	adds	r7, r1, #0
    15dc:	1c14      	adds	r4, r2, #0
    15de:	18d5      	adds	r5, r2, r3
    15e0:	42ac      	cmp	r4, r5
    15e2:	d008      	beq.n	15f6 <__sfputs_r+0x20>
    15e4:	7821      	ldrb	r1, [r4, #0]
    15e6:	1c30      	adds	r0, r6, #0
    15e8:	1c3a      	adds	r2, r7, #0
    15ea:	f7ff ffdf 	bl	15ac <__sfputc_r>
    15ee:	3401      	adds	r4, #1
    15f0:	1c43      	adds	r3, r0, #1
    15f2:	d1f5      	bne.n	15e0 <__sfputs_r+0xa>
    15f4:	e000      	b.n	15f8 <__sfputs_r+0x22>
    15f6:	2000      	movs	r0, #0
    15f8:	bdf8      	pop	{r3, r4, r5, r6, r7, pc}
	...

000015fc <_vfiprintf_r>:
    15fc:	b5f0      	push	{r4, r5, r6, r7, lr}
    15fe:	b09f      	sub	sp, #124	; 0x7c
    1600:	1c06      	adds	r6, r0, #0
    1602:	1c0f      	adds	r7, r1, #0
    1604:	9203      	str	r2, [sp, #12]
    1606:	9305      	str	r3, [sp, #20]
    1608:	2800      	cmp	r0, #0
    160a:	d004      	beq.n	1616 <_vfiprintf_r+0x1a>
    160c:	6981      	ldr	r1, [r0, #24]
    160e:	2900      	cmp	r1, #0
    1610:	d101      	bne.n	1616 <_vfiprintf_r+0x1a>
    1612:	f7ff fc13 	bl	e3c <__sinit>
    1616:	4b75      	ldr	r3, [pc, #468]	; (17ec <_vfiprintf_r+0x1f0>)
    1618:	429f      	cmp	r7, r3
    161a:	d101      	bne.n	1620 <_vfiprintf_r+0x24>
    161c:	6877      	ldr	r7, [r6, #4]
    161e:	e008      	b.n	1632 <_vfiprintf_r+0x36>
    1620:	4b73      	ldr	r3, [pc, #460]	; (17f0 <_vfiprintf_r+0x1f4>)
    1622:	429f      	cmp	r7, r3
    1624:	d101      	bne.n	162a <_vfiprintf_r+0x2e>
    1626:	68b7      	ldr	r7, [r6, #8]
    1628:	e003      	b.n	1632 <_vfiprintf_r+0x36>
    162a:	4b72      	ldr	r3, [pc, #456]	; (17f4 <_vfiprintf_r+0x1f8>)
    162c:	429f      	cmp	r7, r3
    162e:	d100      	bne.n	1632 <_vfiprintf_r+0x36>
    1630:	68f7      	ldr	r7, [r6, #12]
    1632:	89bb      	ldrh	r3, [r7, #12]
    1634:	071a      	lsls	r2, r3, #28
    1636:	d50a      	bpl.n	164e <_vfiprintf_r+0x52>
    1638:	693b      	ldr	r3, [r7, #16]
    163a:	2b00      	cmp	r3, #0
    163c:	d007      	beq.n	164e <_vfiprintf_r+0x52>
    163e:	ad06      	add	r5, sp, #24
    1640:	2300      	movs	r3, #0
    1642:	616b      	str	r3, [r5, #20]
    1644:	2320      	movs	r3, #32
    1646:	766b      	strb	r3, [r5, #25]
    1648:	2330      	movs	r3, #48	; 0x30
    164a:	76ab      	strb	r3, [r5, #26]
    164c:	e03b      	b.n	16c6 <_vfiprintf_r+0xca>
    164e:	1c30      	adds	r0, r6, #0
    1650:	1c39      	adds	r1, r7, #0
    1652:	f000 fdc1 	bl	21d8 <__swsetup_r>
    1656:	2800      	cmp	r0, #0
    1658:	d0f1      	beq.n	163e <_vfiprintf_r+0x42>
    165a:	2001      	movs	r0, #1
    165c:	4240      	negs	r0, r0
    165e:	e0c2      	b.n	17e6 <_vfiprintf_r+0x1ea>
    1660:	9a05      	ldr	r2, [sp, #20]
    1662:	1d11      	adds	r1, r2, #4
    1664:	6812      	ldr	r2, [r2, #0]
    1666:	9105      	str	r1, [sp, #20]
    1668:	2a00      	cmp	r2, #0
    166a:	db76      	blt.n	175a <_vfiprintf_r+0x15e>
    166c:	9209      	str	r2, [sp, #36]	; 0x24
    166e:	3401      	adds	r4, #1
    1670:	7823      	ldrb	r3, [r4, #0]
    1672:	2b2e      	cmp	r3, #46	; 0x2e
    1674:	d100      	bne.n	1678 <_vfiprintf_r+0x7c>
    1676:	e081      	b.n	177c <_vfiprintf_r+0x180>
    1678:	7821      	ldrb	r1, [r4, #0]
    167a:	485f      	ldr	r0, [pc, #380]	; (17f8 <_vfiprintf_r+0x1fc>)
    167c:	2203      	movs	r2, #3
    167e:	f000 fe93 	bl	23a8 <memchr>
    1682:	2800      	cmp	r0, #0
    1684:	d007      	beq.n	1696 <_vfiprintf_r+0x9a>
    1686:	495c      	ldr	r1, [pc, #368]	; (17f8 <_vfiprintf_r+0x1fc>)
    1688:	682a      	ldr	r2, [r5, #0]
    168a:	1a43      	subs	r3, r0, r1
    168c:	2040      	movs	r0, #64	; 0x40
    168e:	4098      	lsls	r0, r3
    1690:	4310      	orrs	r0, r2
    1692:	6028      	str	r0, [r5, #0]
    1694:	3401      	adds	r4, #1
    1696:	7821      	ldrb	r1, [r4, #0]
    1698:	1c63      	adds	r3, r4, #1
    169a:	4858      	ldr	r0, [pc, #352]	; (17fc <_vfiprintf_r+0x200>)
    169c:	2206      	movs	r2, #6
    169e:	9303      	str	r3, [sp, #12]
    16a0:	7629      	strb	r1, [r5, #24]
    16a2:	f000 fe81 	bl	23a8 <memchr>
    16a6:	2800      	cmp	r0, #0
    16a8:	d100      	bne.n	16ac <_vfiprintf_r+0xb0>
    16aa:	e08a      	b.n	17c2 <_vfiprintf_r+0x1c6>
    16ac:	4b54      	ldr	r3, [pc, #336]	; (1800 <_vfiprintf_r+0x204>)
    16ae:	2b00      	cmp	r3, #0
    16b0:	d17e      	bne.n	17b0 <_vfiprintf_r+0x1b4>
    16b2:	9b05      	ldr	r3, [sp, #20]
    16b4:	2207      	movs	r2, #7
    16b6:	3307      	adds	r3, #7
    16b8:	4393      	bics	r3, r2
    16ba:	3308      	adds	r3, #8
    16bc:	9305      	str	r3, [sp, #20]
    16be:	696a      	ldr	r2, [r5, #20]
    16c0:	9904      	ldr	r1, [sp, #16]
    16c2:	1853      	adds	r3, r2, r1
    16c4:	616b      	str	r3, [r5, #20]
    16c6:	9c03      	ldr	r4, [sp, #12]
    16c8:	7823      	ldrb	r3, [r4, #0]
    16ca:	2b00      	cmp	r3, #0
    16cc:	d104      	bne.n	16d8 <_vfiprintf_r+0xdc>
    16ce:	9903      	ldr	r1, [sp, #12]
    16d0:	1a61      	subs	r1, r4, r1
    16d2:	9102      	str	r1, [sp, #8]
    16d4:	d010      	beq.n	16f8 <_vfiprintf_r+0xfc>
    16d6:	e003      	b.n	16e0 <_vfiprintf_r+0xe4>
    16d8:	2b25      	cmp	r3, #37	; 0x25
    16da:	d0f8      	beq.n	16ce <_vfiprintf_r+0xd2>
    16dc:	3401      	adds	r4, #1
    16de:	e7f3      	b.n	16c8 <_vfiprintf_r+0xcc>
    16e0:	1c30      	adds	r0, r6, #0
    16e2:	1c39      	adds	r1, r7, #0
    16e4:	9a03      	ldr	r2, [sp, #12]
    16e6:	9b02      	ldr	r3, [sp, #8]
    16e8:	f7ff ff75 	bl	15d6 <__sfputs_r>
    16ec:	3001      	adds	r0, #1
    16ee:	d075      	beq.n	17dc <_vfiprintf_r+0x1e0>
    16f0:	696a      	ldr	r2, [r5, #20]
    16f2:	9902      	ldr	r1, [sp, #8]
    16f4:	1853      	adds	r3, r2, r1
    16f6:	616b      	str	r3, [r5, #20]
    16f8:	7823      	ldrb	r3, [r4, #0]
    16fa:	2b00      	cmp	r3, #0
    16fc:	d06e      	beq.n	17dc <_vfiprintf_r+0x1e0>
    16fe:	2201      	movs	r2, #1
    1700:	4252      	negs	r2, r2
    1702:	606a      	str	r2, [r5, #4]
    1704:	466a      	mov	r2, sp
    1706:	2300      	movs	r3, #0
    1708:	325b      	adds	r2, #91	; 0x5b
    170a:	3401      	adds	r4, #1
    170c:	602b      	str	r3, [r5, #0]
    170e:	60eb      	str	r3, [r5, #12]
    1710:	60ab      	str	r3, [r5, #8]
    1712:	7013      	strb	r3, [r2, #0]
    1714:	65ab      	str	r3, [r5, #88]	; 0x58
    1716:	7821      	ldrb	r1, [r4, #0]
    1718:	483a      	ldr	r0, [pc, #232]	; (1804 <_vfiprintf_r+0x208>)
    171a:	2205      	movs	r2, #5
    171c:	f000 fe44 	bl	23a8 <memchr>
    1720:	2800      	cmp	r0, #0
    1722:	d008      	beq.n	1736 <_vfiprintf_r+0x13a>
    1724:	4a37      	ldr	r2, [pc, #220]	; (1804 <_vfiprintf_r+0x208>)
    1726:	3401      	adds	r4, #1
    1728:	1a83      	subs	r3, r0, r2
    172a:	2001      	movs	r0, #1
    172c:	4098      	lsls	r0, r3
    172e:	682b      	ldr	r3, [r5, #0]
    1730:	4318      	orrs	r0, r3
    1732:	6028      	str	r0, [r5, #0]
    1734:	e7ef      	b.n	1716 <_vfiprintf_r+0x11a>
    1736:	682b      	ldr	r3, [r5, #0]
    1738:	06d9      	lsls	r1, r3, #27
    173a:	d503      	bpl.n	1744 <_vfiprintf_r+0x148>
    173c:	466a      	mov	r2, sp
    173e:	2120      	movs	r1, #32
    1740:	325b      	adds	r2, #91	; 0x5b
    1742:	7011      	strb	r1, [r2, #0]
    1744:	071a      	lsls	r2, r3, #28
    1746:	d503      	bpl.n	1750 <_vfiprintf_r+0x154>
    1748:	466a      	mov	r2, sp
    174a:	212b      	movs	r1, #43	; 0x2b
    174c:	325b      	adds	r2, #91	; 0x5b
    174e:	7011      	strb	r1, [r2, #0]
    1750:	7822      	ldrb	r2, [r4, #0]
    1752:	2a2a      	cmp	r2, #42	; 0x2a
    1754:	d084      	beq.n	1660 <_vfiprintf_r+0x64>
    1756:	9b09      	ldr	r3, [sp, #36]	; 0x24
    1758:	e005      	b.n	1766 <_vfiprintf_r+0x16a>
    175a:	4252      	negs	r2, r2
    175c:	60ea      	str	r2, [r5, #12]
    175e:	2202      	movs	r2, #2
    1760:	4313      	orrs	r3, r2
    1762:	602b      	str	r3, [r5, #0]
    1764:	e783      	b.n	166e <_vfiprintf_r+0x72>
    1766:	7822      	ldrb	r2, [r4, #0]
    1768:	3a30      	subs	r2, #48	; 0x30
    176a:	2a09      	cmp	r2, #9
    176c:	d804      	bhi.n	1778 <_vfiprintf_r+0x17c>
    176e:	210a      	movs	r1, #10
    1770:	434b      	muls	r3, r1
    1772:	3401      	adds	r4, #1
    1774:	189b      	adds	r3, r3, r2
    1776:	e7f6      	b.n	1766 <_vfiprintf_r+0x16a>
    1778:	9309      	str	r3, [sp, #36]	; 0x24
    177a:	e779      	b.n	1670 <_vfiprintf_r+0x74>
    177c:	7863      	ldrb	r3, [r4, #1]
    177e:	2b2a      	cmp	r3, #42	; 0x2a
    1780:	d109      	bne.n	1796 <_vfiprintf_r+0x19a>
    1782:	9b05      	ldr	r3, [sp, #20]
    1784:	3402      	adds	r4, #2
    1786:	1d1a      	adds	r2, r3, #4
    1788:	681b      	ldr	r3, [r3, #0]
    178a:	9205      	str	r2, [sp, #20]
    178c:	2b00      	cmp	r3, #0
    178e:	da0d      	bge.n	17ac <_vfiprintf_r+0x1b0>
    1790:	2301      	movs	r3, #1
    1792:	425b      	negs	r3, r3
    1794:	e00a      	b.n	17ac <_vfiprintf_r+0x1b0>
    1796:	3401      	adds	r4, #1
    1798:	2300      	movs	r3, #0
    179a:	7822      	ldrb	r2, [r4, #0]
    179c:	3a30      	subs	r2, #48	; 0x30
    179e:	2a09      	cmp	r2, #9
    17a0:	d804      	bhi.n	17ac <_vfiprintf_r+0x1b0>
    17a2:	210a      	movs	r1, #10
    17a4:	434b      	muls	r3, r1
    17a6:	3401      	adds	r4, #1
    17a8:	189b      	adds	r3, r3, r2
    17aa:	e7f6      	b.n	179a <_vfiprintf_r+0x19e>
    17ac:	9307      	str	r3, [sp, #28]
    17ae:	e763      	b.n	1678 <_vfiprintf_r+0x7c>
    17b0:	ab05      	add	r3, sp, #20
    17b2:	9300      	str	r3, [sp, #0]
    17b4:	1c30      	adds	r0, r6, #0
    17b6:	1c29      	adds	r1, r5, #0
    17b8:	1c3a      	adds	r2, r7, #0
    17ba:	4b13      	ldr	r3, [pc, #76]	; (1808 <_vfiprintf_r+0x20c>)
    17bc:	e000      	b.n	17c0 <_vfiprintf_r+0x1c4>
    17be:	bf00      	nop
    17c0:	e007      	b.n	17d2 <_vfiprintf_r+0x1d6>
    17c2:	ab05      	add	r3, sp, #20
    17c4:	9300      	str	r3, [sp, #0]
    17c6:	1c30      	adds	r0, r6, #0
    17c8:	1c29      	adds	r1, r5, #0
    17ca:	1c3a      	adds	r2, r7, #0
    17cc:	4b0e      	ldr	r3, [pc, #56]	; (1808 <_vfiprintf_r+0x20c>)
    17ce:	f000 f89f 	bl	1910 <_printf_i>
    17d2:	9004      	str	r0, [sp, #16]
    17d4:	9904      	ldr	r1, [sp, #16]
    17d6:	3101      	adds	r1, #1
    17d8:	d000      	beq.n	17dc <_vfiprintf_r+0x1e0>
    17da:	e770      	b.n	16be <_vfiprintf_r+0xc2>
    17dc:	89bb      	ldrh	r3, [r7, #12]
    17de:	065a      	lsls	r2, r3, #25
    17e0:	d500      	bpl.n	17e4 <_vfiprintf_r+0x1e8>
    17e2:	e73a      	b.n	165a <_vfiprintf_r+0x5e>
    17e4:	980b      	ldr	r0, [sp, #44]	; 0x2c
    17e6:	b01f      	add	sp, #124	; 0x7c
    17e8:	bdf0      	pop	{r4, r5, r6, r7, pc}
    17ea:	46c0      	nop			; (mov r8, r8)
    17ec:	00002a14 	.word	0x00002a14
    17f0:	00002a34 	.word	0x00002a34
    17f4:	00002a54 	.word	0x00002a54
    17f8:	00002a82 	.word	0x00002a82
    17fc:	00002a86 	.word	0x00002a86
    1800:	00000000 	.word	0x00000000
    1804:	00002a7c 	.word	0x00002a7c
    1808:	000015d7 	.word	0x000015d7

0000180c <vfiprintf>:
    180c:	b538      	push	{r3, r4, r5, lr}
    180e:	1c13      	adds	r3, r2, #0
    1810:	4a04      	ldr	r2, [pc, #16]	; (1824 <vfiprintf+0x18>)
    1812:	1c05      	adds	r5, r0, #0
    1814:	1c0c      	adds	r4, r1, #0
    1816:	6810      	ldr	r0, [r2, #0]
    1818:	1c29      	adds	r1, r5, #0
    181a:	1c22      	adds	r2, r4, #0
    181c:	f7ff feee 	bl	15fc <_vfiprintf_r>
    1820:	bd38      	pop	{r3, r4, r5, pc}
    1822:	46c0      	nop			; (mov r8, r8)
    1824:	1000012c 	.word	0x1000012c

00001828 <_printf_common>:
    1828:	b5f7      	push	{r0, r1, r2, r4, r5, r6, r7, lr}
    182a:	1c15      	adds	r5, r2, #0
    182c:	9301      	str	r3, [sp, #4]
    182e:	690a      	ldr	r2, [r1, #16]
    1830:	688b      	ldr	r3, [r1, #8]
    1832:	1c06      	adds	r6, r0, #0
    1834:	1c0c      	adds	r4, r1, #0
    1836:	4293      	cmp	r3, r2
    1838:	da00      	bge.n	183c <_printf_common+0x14>
    183a:	1c13      	adds	r3, r2, #0
    183c:	1c22      	adds	r2, r4, #0
    183e:	602b      	str	r3, [r5, #0]
    1840:	3243      	adds	r2, #67	; 0x43
    1842:	7812      	ldrb	r2, [r2, #0]
    1844:	2a00      	cmp	r2, #0
    1846:	d001      	beq.n	184c <_printf_common+0x24>
    1848:	3301      	adds	r3, #1
    184a:	602b      	str	r3, [r5, #0]
    184c:	6820      	ldr	r0, [r4, #0]
    184e:	0680      	lsls	r0, r0, #26
    1850:	d502      	bpl.n	1858 <_printf_common+0x30>
    1852:	682b      	ldr	r3, [r5, #0]
    1854:	3302      	adds	r3, #2
    1856:	602b      	str	r3, [r5, #0]
    1858:	6821      	ldr	r1, [r4, #0]
    185a:	2706      	movs	r7, #6
    185c:	400f      	ands	r7, r1
    185e:	d01f      	beq.n	18a0 <_printf_common+0x78>
    1860:	1c23      	adds	r3, r4, #0
    1862:	3343      	adds	r3, #67	; 0x43
    1864:	781b      	ldrb	r3, [r3, #0]
    1866:	1e5a      	subs	r2, r3, #1
    1868:	4193      	sbcs	r3, r2
    186a:	6822      	ldr	r2, [r4, #0]
    186c:	0692      	lsls	r2, r2, #26
    186e:	d51f      	bpl.n	18b0 <_printf_common+0x88>
    1870:	18e1      	adds	r1, r4, r3
    1872:	3140      	adds	r1, #64	; 0x40
    1874:	2030      	movs	r0, #48	; 0x30
    1876:	70c8      	strb	r0, [r1, #3]
    1878:	1c21      	adds	r1, r4, #0
    187a:	1c5a      	adds	r2, r3, #1
    187c:	3145      	adds	r1, #69	; 0x45
    187e:	7809      	ldrb	r1, [r1, #0]
    1880:	18a2      	adds	r2, r4, r2
    1882:	3240      	adds	r2, #64	; 0x40
    1884:	3302      	adds	r3, #2
    1886:	70d1      	strb	r1, [r2, #3]
    1888:	e012      	b.n	18b0 <_printf_common+0x88>
    188a:	1c22      	adds	r2, r4, #0
    188c:	1c30      	adds	r0, r6, #0
    188e:	9901      	ldr	r1, [sp, #4]
    1890:	3219      	adds	r2, #25
    1892:	2301      	movs	r3, #1
    1894:	9f08      	ldr	r7, [sp, #32]
    1896:	47b8      	blx	r7
    1898:	3001      	adds	r0, #1
    189a:	d011      	beq.n	18c0 <_printf_common+0x98>
    189c:	9f00      	ldr	r7, [sp, #0]
    189e:	3701      	adds	r7, #1
    18a0:	9700      	str	r7, [sp, #0]
    18a2:	68e0      	ldr	r0, [r4, #12]
    18a4:	6829      	ldr	r1, [r5, #0]
    18a6:	9f00      	ldr	r7, [sp, #0]
    18a8:	1a43      	subs	r3, r0, r1
    18aa:	429f      	cmp	r7, r3
    18ac:	dbed      	blt.n	188a <_printf_common+0x62>
    18ae:	e7d7      	b.n	1860 <_printf_common+0x38>
    18b0:	1c22      	adds	r2, r4, #0
    18b2:	1c30      	adds	r0, r6, #0
    18b4:	9901      	ldr	r1, [sp, #4]
    18b6:	3243      	adds	r2, #67	; 0x43
    18b8:	9f08      	ldr	r7, [sp, #32]
    18ba:	47b8      	blx	r7
    18bc:	3001      	adds	r0, #1
    18be:	d102      	bne.n	18c6 <_printf_common+0x9e>
    18c0:	2001      	movs	r0, #1
    18c2:	4240      	negs	r0, r0
    18c4:	e023      	b.n	190e <_printf_common+0xe6>
    18c6:	6820      	ldr	r0, [r4, #0]
    18c8:	2106      	movs	r1, #6
    18ca:	682b      	ldr	r3, [r5, #0]
    18cc:	68e2      	ldr	r2, [r4, #12]
    18ce:	4001      	ands	r1, r0
    18d0:	2500      	movs	r5, #0
    18d2:	2904      	cmp	r1, #4
    18d4:	d103      	bne.n	18de <_printf_common+0xb6>
    18d6:	1ad5      	subs	r5, r2, r3
    18d8:	43eb      	mvns	r3, r5
    18da:	17db      	asrs	r3, r3, #31
    18dc:	401d      	ands	r5, r3
    18de:	68a2      	ldr	r2, [r4, #8]
    18e0:	6923      	ldr	r3, [r4, #16]
    18e2:	429a      	cmp	r2, r3
    18e4:	dd01      	ble.n	18ea <_printf_common+0xc2>
    18e6:	1ad3      	subs	r3, r2, r3
    18e8:	18ed      	adds	r5, r5, r3
    18ea:	2700      	movs	r7, #0
    18ec:	9700      	str	r7, [sp, #0]
    18ee:	9f00      	ldr	r7, [sp, #0]
    18f0:	42af      	cmp	r7, r5
    18f2:	da0b      	bge.n	190c <_printf_common+0xe4>
    18f4:	1c22      	adds	r2, r4, #0
    18f6:	1c30      	adds	r0, r6, #0
    18f8:	9901      	ldr	r1, [sp, #4]
    18fa:	321a      	adds	r2, #26
    18fc:	2301      	movs	r3, #1
    18fe:	9f08      	ldr	r7, [sp, #32]
    1900:	47b8      	blx	r7
    1902:	3001      	adds	r0, #1
    1904:	d0dc      	beq.n	18c0 <_printf_common+0x98>
    1906:	9f00      	ldr	r7, [sp, #0]
    1908:	3701      	adds	r7, #1
    190a:	e7ef      	b.n	18ec <_printf_common+0xc4>
    190c:	2000      	movs	r0, #0
    190e:	bdfe      	pop	{r1, r2, r3, r4, r5, r6, r7, pc}

00001910 <_printf_i>:
    1910:	b5f0      	push	{r4, r5, r6, r7, lr}
    1912:	1c0d      	adds	r5, r1, #0
    1914:	b08b      	sub	sp, #44	; 0x2c
    1916:	3543      	adds	r5, #67	; 0x43
    1918:	9206      	str	r2, [sp, #24]
    191a:	9005      	str	r0, [sp, #20]
    191c:	9307      	str	r3, [sp, #28]
    191e:	9504      	str	r5, [sp, #16]
    1920:	7e0b      	ldrb	r3, [r1, #24]
    1922:	1c0c      	adds	r4, r1, #0
    1924:	9a10      	ldr	r2, [sp, #64]	; 0x40
    1926:	2b6e      	cmp	r3, #110	; 0x6e
    1928:	d100      	bne.n	192c <_printf_i+0x1c>
    192a:	e0a7      	b.n	1a7c <_printf_i+0x16c>
    192c:	d811      	bhi.n	1952 <_printf_i+0x42>
    192e:	2b63      	cmp	r3, #99	; 0x63
    1930:	d022      	beq.n	1978 <_printf_i+0x68>
    1932:	d809      	bhi.n	1948 <_printf_i+0x38>
    1934:	2b00      	cmp	r3, #0
    1936:	d100      	bne.n	193a <_printf_i+0x2a>
    1938:	e0b0      	b.n	1a9c <_printf_i+0x18c>
    193a:	2b58      	cmp	r3, #88	; 0x58
    193c:	d000      	beq.n	1940 <_printf_i+0x30>
    193e:	e0c0      	b.n	1ac2 <_printf_i+0x1b2>
    1940:	3145      	adds	r1, #69	; 0x45
    1942:	700b      	strb	r3, [r1, #0]
    1944:	4d7b      	ldr	r5, [pc, #492]	; (1b34 <_printf_i+0x224>)
    1946:	e04e      	b.n	19e6 <_printf_i+0xd6>
    1948:	2b64      	cmp	r3, #100	; 0x64
    194a:	d01c      	beq.n	1986 <_printf_i+0x76>
    194c:	2b69      	cmp	r3, #105	; 0x69
    194e:	d01a      	beq.n	1986 <_printf_i+0x76>
    1950:	e0b7      	b.n	1ac2 <_printf_i+0x1b2>
    1952:	2b73      	cmp	r3, #115	; 0x73
    1954:	d100      	bne.n	1958 <_printf_i+0x48>
    1956:	e0a5      	b.n	1aa4 <_printf_i+0x194>
    1958:	d809      	bhi.n	196e <_printf_i+0x5e>
    195a:	2b6f      	cmp	r3, #111	; 0x6f
    195c:	d029      	beq.n	19b2 <_printf_i+0xa2>
    195e:	2b70      	cmp	r3, #112	; 0x70
    1960:	d000      	beq.n	1964 <_printf_i+0x54>
    1962:	e0ae      	b.n	1ac2 <_printf_i+0x1b2>
    1964:	680e      	ldr	r6, [r1, #0]
    1966:	2320      	movs	r3, #32
    1968:	4333      	orrs	r3, r6
    196a:	600b      	str	r3, [r1, #0]
    196c:	e036      	b.n	19dc <_printf_i+0xcc>
    196e:	2b75      	cmp	r3, #117	; 0x75
    1970:	d01f      	beq.n	19b2 <_printf_i+0xa2>
    1972:	2b78      	cmp	r3, #120	; 0x78
    1974:	d032      	beq.n	19dc <_printf_i+0xcc>
    1976:	e0a4      	b.n	1ac2 <_printf_i+0x1b2>
    1978:	6813      	ldr	r3, [r2, #0]
    197a:	1c0d      	adds	r5, r1, #0
    197c:	1d19      	adds	r1, r3, #4
    197e:	3542      	adds	r5, #66	; 0x42
    1980:	6011      	str	r1, [r2, #0]
    1982:	681b      	ldr	r3, [r3, #0]
    1984:	e09f      	b.n	1ac6 <_printf_i+0x1b6>
    1986:	6821      	ldr	r1, [r4, #0]
    1988:	6813      	ldr	r3, [r2, #0]
    198a:	060e      	lsls	r6, r1, #24
    198c:	d503      	bpl.n	1996 <_printf_i+0x86>
    198e:	1d19      	adds	r1, r3, #4
    1990:	6011      	str	r1, [r2, #0]
    1992:	681e      	ldr	r6, [r3, #0]
    1994:	e005      	b.n	19a2 <_printf_i+0x92>
    1996:	0648      	lsls	r0, r1, #25
    1998:	d5f9      	bpl.n	198e <_printf_i+0x7e>
    199a:	1d19      	adds	r1, r3, #4
    199c:	6011      	str	r1, [r2, #0]
    199e:	2100      	movs	r1, #0
    19a0:	5e5e      	ldrsh	r6, [r3, r1]
    19a2:	4b64      	ldr	r3, [pc, #400]	; (1b34 <_printf_i+0x224>)
    19a4:	2e00      	cmp	r6, #0
    19a6:	da3b      	bge.n	1a20 <_printf_i+0x110>
    19a8:	9d04      	ldr	r5, [sp, #16]
    19aa:	222d      	movs	r2, #45	; 0x2d
    19ac:	4276      	negs	r6, r6
    19ae:	702a      	strb	r2, [r5, #0]
    19b0:	e036      	b.n	1a20 <_printf_i+0x110>
    19b2:	6821      	ldr	r1, [r4, #0]
    19b4:	6813      	ldr	r3, [r2, #0]
    19b6:	060e      	lsls	r6, r1, #24
    19b8:	d503      	bpl.n	19c2 <_printf_i+0xb2>
    19ba:	1d19      	adds	r1, r3, #4
    19bc:	6011      	str	r1, [r2, #0]
    19be:	681e      	ldr	r6, [r3, #0]
    19c0:	e004      	b.n	19cc <_printf_i+0xbc>
    19c2:	0648      	lsls	r0, r1, #25
    19c4:	d5f9      	bpl.n	19ba <_printf_i+0xaa>
    19c6:	1d19      	adds	r1, r3, #4
    19c8:	881e      	ldrh	r6, [r3, #0]
    19ca:	6011      	str	r1, [r2, #0]
    19cc:	4b59      	ldr	r3, [pc, #356]	; (1b34 <_printf_i+0x224>)
    19ce:	7e22      	ldrb	r2, [r4, #24]
    19d0:	9303      	str	r3, [sp, #12]
    19d2:	2708      	movs	r7, #8
    19d4:	2a6f      	cmp	r2, #111	; 0x6f
    19d6:	d01e      	beq.n	1a16 <_printf_i+0x106>
    19d8:	270a      	movs	r7, #10
    19da:	e01c      	b.n	1a16 <_printf_i+0x106>
    19dc:	1c23      	adds	r3, r4, #0
    19de:	2178      	movs	r1, #120	; 0x78
    19e0:	3345      	adds	r3, #69	; 0x45
    19e2:	4d55      	ldr	r5, [pc, #340]	; (1b38 <_printf_i+0x228>)
    19e4:	7019      	strb	r1, [r3, #0]
    19e6:	6811      	ldr	r1, [r2, #0]
    19e8:	6823      	ldr	r3, [r4, #0]
    19ea:	1d08      	adds	r0, r1, #4
    19ec:	9503      	str	r5, [sp, #12]
    19ee:	6010      	str	r0, [r2, #0]
    19f0:	061e      	lsls	r6, r3, #24
    19f2:	d501      	bpl.n	19f8 <_printf_i+0xe8>
    19f4:	680e      	ldr	r6, [r1, #0]
    19f6:	e002      	b.n	19fe <_printf_i+0xee>
    19f8:	0658      	lsls	r0, r3, #25
    19fa:	d5fb      	bpl.n	19f4 <_printf_i+0xe4>
    19fc:	880e      	ldrh	r6, [r1, #0]
    19fe:	07d9      	lsls	r1, r3, #31
    1a00:	d502      	bpl.n	1a08 <_printf_i+0xf8>
    1a02:	2220      	movs	r2, #32
    1a04:	4313      	orrs	r3, r2
    1a06:	6023      	str	r3, [r4, #0]
    1a08:	2710      	movs	r7, #16
    1a0a:	2e00      	cmp	r6, #0
    1a0c:	d103      	bne.n	1a16 <_printf_i+0x106>
    1a0e:	6822      	ldr	r2, [r4, #0]
    1a10:	2320      	movs	r3, #32
    1a12:	439a      	bics	r2, r3
    1a14:	6022      	str	r2, [r4, #0]
    1a16:	1c23      	adds	r3, r4, #0
    1a18:	2200      	movs	r2, #0
    1a1a:	3343      	adds	r3, #67	; 0x43
    1a1c:	701a      	strb	r2, [r3, #0]
    1a1e:	e001      	b.n	1a24 <_printf_i+0x114>
    1a20:	9303      	str	r3, [sp, #12]
    1a22:	270a      	movs	r7, #10
    1a24:	6863      	ldr	r3, [r4, #4]
    1a26:	60a3      	str	r3, [r4, #8]
    1a28:	2b00      	cmp	r3, #0
    1a2a:	db03      	blt.n	1a34 <_printf_i+0x124>
    1a2c:	6825      	ldr	r5, [r4, #0]
    1a2e:	2204      	movs	r2, #4
    1a30:	4395      	bics	r5, r2
    1a32:	6025      	str	r5, [r4, #0]
    1a34:	2e00      	cmp	r6, #0
    1a36:	d102      	bne.n	1a3e <_printf_i+0x12e>
    1a38:	9d04      	ldr	r5, [sp, #16]
    1a3a:	2b00      	cmp	r3, #0
    1a3c:	d00e      	beq.n	1a5c <_printf_i+0x14c>
    1a3e:	9d04      	ldr	r5, [sp, #16]
    1a40:	1c30      	adds	r0, r6, #0
    1a42:	1c39      	adds	r1, r7, #0
    1a44:	f7ff f8ca 	bl	bdc <__aeabi_uidivmod>
    1a48:	9803      	ldr	r0, [sp, #12]
    1a4a:	3d01      	subs	r5, #1
    1a4c:	5c43      	ldrb	r3, [r0, r1]
    1a4e:	1c30      	adds	r0, r6, #0
    1a50:	702b      	strb	r3, [r5, #0]
    1a52:	1c39      	adds	r1, r7, #0
    1a54:	f7ff f87e 	bl	b54 <__aeabi_uidiv>
    1a58:	1e06      	subs	r6, r0, #0
    1a5a:	d1f1      	bne.n	1a40 <_printf_i+0x130>
    1a5c:	2f08      	cmp	r7, #8
    1a5e:	d109      	bne.n	1a74 <_printf_i+0x164>
    1a60:	6821      	ldr	r1, [r4, #0]
    1a62:	07c9      	lsls	r1, r1, #31
    1a64:	d506      	bpl.n	1a74 <_printf_i+0x164>
    1a66:	6862      	ldr	r2, [r4, #4]
    1a68:	6923      	ldr	r3, [r4, #16]
    1a6a:	429a      	cmp	r2, r3
    1a6c:	dc02      	bgt.n	1a74 <_printf_i+0x164>
    1a6e:	3d01      	subs	r5, #1
    1a70:	2330      	movs	r3, #48	; 0x30
    1a72:	702b      	strb	r3, [r5, #0]
    1a74:	9e04      	ldr	r6, [sp, #16]
    1a76:	1b73      	subs	r3, r6, r5
    1a78:	6123      	str	r3, [r4, #16]
    1a7a:	e02a      	b.n	1ad2 <_printf_i+0x1c2>
    1a7c:	6808      	ldr	r0, [r1, #0]
    1a7e:	6813      	ldr	r3, [r2, #0]
    1a80:	6949      	ldr	r1, [r1, #20]
    1a82:	0605      	lsls	r5, r0, #24
    1a84:	d504      	bpl.n	1a90 <_printf_i+0x180>
    1a86:	1d18      	adds	r0, r3, #4
    1a88:	6010      	str	r0, [r2, #0]
    1a8a:	681b      	ldr	r3, [r3, #0]
    1a8c:	6019      	str	r1, [r3, #0]
    1a8e:	e005      	b.n	1a9c <_printf_i+0x18c>
    1a90:	0646      	lsls	r6, r0, #25
    1a92:	d5f8      	bpl.n	1a86 <_printf_i+0x176>
    1a94:	1d18      	adds	r0, r3, #4
    1a96:	6010      	str	r0, [r2, #0]
    1a98:	681b      	ldr	r3, [r3, #0]
    1a9a:	8019      	strh	r1, [r3, #0]
    1a9c:	2300      	movs	r3, #0
    1a9e:	6123      	str	r3, [r4, #16]
    1aa0:	9d04      	ldr	r5, [sp, #16]
    1aa2:	e016      	b.n	1ad2 <_printf_i+0x1c2>
    1aa4:	6813      	ldr	r3, [r2, #0]
    1aa6:	1d19      	adds	r1, r3, #4
    1aa8:	6011      	str	r1, [r2, #0]
    1aaa:	681d      	ldr	r5, [r3, #0]
    1aac:	1c28      	adds	r0, r5, #0
    1aae:	f7ff fcc5 	bl	143c <strlen>
    1ab2:	6863      	ldr	r3, [r4, #4]
    1ab4:	6120      	str	r0, [r4, #16]
    1ab6:	4298      	cmp	r0, r3
    1ab8:	d900      	bls.n	1abc <_printf_i+0x1ac>
    1aba:	6123      	str	r3, [r4, #16]
    1abc:	6920      	ldr	r0, [r4, #16]
    1abe:	6060      	str	r0, [r4, #4]
    1ac0:	e004      	b.n	1acc <_printf_i+0x1bc>
    1ac2:	1c25      	adds	r5, r4, #0
    1ac4:	3542      	adds	r5, #66	; 0x42
    1ac6:	702b      	strb	r3, [r5, #0]
    1ac8:	2301      	movs	r3, #1
    1aca:	6123      	str	r3, [r4, #16]
    1acc:	9e04      	ldr	r6, [sp, #16]
    1ace:	2300      	movs	r3, #0
    1ad0:	7033      	strb	r3, [r6, #0]
    1ad2:	9e07      	ldr	r6, [sp, #28]
    1ad4:	9805      	ldr	r0, [sp, #20]
    1ad6:	9600      	str	r6, [sp, #0]
    1ad8:	1c21      	adds	r1, r4, #0
    1ada:	aa09      	add	r2, sp, #36	; 0x24
    1adc:	9b06      	ldr	r3, [sp, #24]
    1ade:	f7ff fea3 	bl	1828 <_printf_common>
    1ae2:	3001      	adds	r0, #1
    1ae4:	d102      	bne.n	1aec <_printf_i+0x1dc>
    1ae6:	2001      	movs	r0, #1
    1ae8:	4240      	negs	r0, r0
    1aea:	e021      	b.n	1b30 <_printf_i+0x220>
    1aec:	1c2a      	adds	r2, r5, #0
    1aee:	9805      	ldr	r0, [sp, #20]
    1af0:	9906      	ldr	r1, [sp, #24]
    1af2:	6923      	ldr	r3, [r4, #16]
    1af4:	9d07      	ldr	r5, [sp, #28]
    1af6:	47a8      	blx	r5
    1af8:	3001      	adds	r0, #1
    1afa:	d0f4      	beq.n	1ae6 <_printf_i+0x1d6>
    1afc:	6826      	ldr	r6, [r4, #0]
    1afe:	07b6      	lsls	r6, r6, #30
    1b00:	d405      	bmi.n	1b0e <_printf_i+0x1fe>
    1b02:	9b09      	ldr	r3, [sp, #36]	; 0x24
    1b04:	68e0      	ldr	r0, [r4, #12]
    1b06:	4298      	cmp	r0, r3
    1b08:	da12      	bge.n	1b30 <_printf_i+0x220>
    1b0a:	1c18      	adds	r0, r3, #0
    1b0c:	e010      	b.n	1b30 <_printf_i+0x220>
    1b0e:	2500      	movs	r5, #0
    1b10:	68e0      	ldr	r0, [r4, #12]
    1b12:	9909      	ldr	r1, [sp, #36]	; 0x24
    1b14:	1a43      	subs	r3, r0, r1
    1b16:	429d      	cmp	r5, r3
    1b18:	daf3      	bge.n	1b02 <_printf_i+0x1f2>
    1b1a:	1c22      	adds	r2, r4, #0
    1b1c:	9805      	ldr	r0, [sp, #20]
    1b1e:	9906      	ldr	r1, [sp, #24]
    1b20:	3219      	adds	r2, #25
    1b22:	2301      	movs	r3, #1
    1b24:	9e07      	ldr	r6, [sp, #28]
    1b26:	47b0      	blx	r6
    1b28:	3001      	adds	r0, #1
    1b2a:	d0dc      	beq.n	1ae6 <_printf_i+0x1d6>
    1b2c:	3501      	adds	r5, #1
    1b2e:	e7ef      	b.n	1b10 <_printf_i+0x200>
    1b30:	b00b      	add	sp, #44	; 0x2c
    1b32:	bdf0      	pop	{r4, r5, r6, r7, pc}
    1b34:	00002a8d 	.word	0x00002a8d
    1b38:	00002a9e 	.word	0x00002a9e

00001b3c <__svfiscanf_r>:
    1b3c:	b5f0      	push	{r4, r5, r6, r7, lr}
    1b3e:	4ca5      	ldr	r4, [pc, #660]	; (1dd4 <__svfiscanf_r+0x298>)
    1b40:	1c07      	adds	r7, r0, #0
    1b42:	44a5      	add	sp, r4
    1b44:	9301      	str	r3, [sp, #4]
    1b46:	2300      	movs	r3, #0
    1b48:	9200      	str	r2, [sp, #0]
    1b4a:	9346      	str	r3, [sp, #280]	; 0x118
    1b4c:	4aa2      	ldr	r2, [pc, #648]	; (1dd8 <__svfiscanf_r+0x29c>)
    1b4e:	9347      	str	r3, [sp, #284]	; 0x11c
    1b50:	23be      	movs	r3, #190	; 0xbe
    1b52:	005b      	lsls	r3, r3, #1
    1b54:	1c0c      	adds	r4, r1, #0
    1b56:	a943      	add	r1, sp, #268	; 0x10c
    1b58:	50ca      	str	r2, [r1, r3]
    1b5a:	4aa0      	ldr	r2, [pc, #640]	; (1ddc <__svfiscanf_r+0x2a0>)
    1b5c:	23c0      	movs	r3, #192	; 0xc0
    1b5e:	a803      	add	r0, sp, #12
    1b60:	005b      	lsls	r3, r3, #1
    1b62:	9048      	str	r0, [sp, #288]	; 0x120
    1b64:	50ca      	str	r2, [r1, r3]
    1b66:	9a00      	ldr	r2, [sp, #0]
    1b68:	7815      	ldrb	r5, [r2, #0]
    1b6a:	2d00      	cmp	r5, #0
    1b6c:	d100      	bne.n	1b70 <__svfiscanf_r+0x34>
    1b6e:	e128      	b.n	1dc2 <__svfiscanf_r+0x286>
    1b70:	4e9b      	ldr	r6, [pc, #620]	; (1de0 <__svfiscanf_r+0x2a4>)
    1b72:	6830      	ldr	r0, [r6, #0]
    1b74:	1943      	adds	r3, r0, r5
    1b76:	785a      	ldrb	r2, [r3, #1]
    1b78:	2308      	movs	r3, #8
    1b7a:	4013      	ands	r3, r2
    1b7c:	d01f      	beq.n	1bbe <__svfiscanf_r+0x82>
    1b7e:	6861      	ldr	r1, [r4, #4]
    1b80:	2900      	cmp	r1, #0
    1b82:	dd0f      	ble.n	1ba4 <__svfiscanf_r+0x68>
    1b84:	6823      	ldr	r3, [r4, #0]
    1b86:	6830      	ldr	r0, [r6, #0]
    1b88:	781a      	ldrb	r2, [r3, #0]
    1b8a:	1882      	adds	r2, r0, r2
    1b8c:	7852      	ldrb	r2, [r2, #1]
    1b8e:	0711      	lsls	r1, r2, #28
    1b90:	d511      	bpl.n	1bb6 <__svfiscanf_r+0x7a>
    1b92:	9a47      	ldr	r2, [sp, #284]	; 0x11c
    1b94:	3301      	adds	r3, #1
    1b96:	3201      	adds	r2, #1
    1b98:	9247      	str	r2, [sp, #284]	; 0x11c
    1b9a:	6862      	ldr	r2, [r4, #4]
    1b9c:	6023      	str	r3, [r4, #0]
    1b9e:	3a01      	subs	r2, #1
    1ba0:	6062      	str	r2, [r4, #4]
    1ba2:	e7ec      	b.n	1b7e <__svfiscanf_r+0x42>
    1ba4:	23c0      	movs	r3, #192	; 0xc0
    1ba6:	005b      	lsls	r3, r3, #1
    1ba8:	aa43      	add	r2, sp, #268	; 0x10c
    1baa:	58d3      	ldr	r3, [r2, r3]
    1bac:	1c38      	adds	r0, r7, #0
    1bae:	1c21      	adds	r1, r4, #0
    1bb0:	4798      	blx	r3
    1bb2:	2800      	cmp	r0, #0
    1bb4:	d0e6      	beq.n	1b84 <__svfiscanf_r+0x48>
    1bb6:	9e00      	ldr	r6, [sp, #0]
    1bb8:	3601      	adds	r6, #1
    1bba:	9600      	str	r6, [sp, #0]
    1bbc:	e7d3      	b.n	1b66 <__svfiscanf_r+0x2a>
    1bbe:	9e00      	ldr	r6, [sp, #0]
    1bc0:	3601      	adds	r6, #1
    1bc2:	2d25      	cmp	r5, #37	; 0x25
    1bc4:	d14c      	bne.n	1c60 <__svfiscanf_r+0x124>
    1bc6:	9800      	ldr	r0, [sp, #0]
    1bc8:	9345      	str	r3, [sp, #276]	; 0x114
    1bca:	9343      	str	r3, [sp, #268]	; 0x10c
    1bcc:	7843      	ldrb	r3, [r0, #1]
    1bce:	2b2a      	cmp	r3, #42	; 0x2a
    1bd0:	d103      	bne.n	1bda <__svfiscanf_r+0x9e>
    1bd2:	2310      	movs	r3, #16
    1bd4:	1c06      	adds	r6, r0, #0
    1bd6:	9343      	str	r3, [sp, #268]	; 0x10c
    1bd8:	3602      	adds	r6, #2
    1bda:	1c35      	adds	r5, r6, #0
    1bdc:	7829      	ldrb	r1, [r5, #0]
    1bde:	1c0b      	adds	r3, r1, #0
    1be0:	3b30      	subs	r3, #48	; 0x30
    1be2:	2b09      	cmp	r3, #9
    1be4:	d807      	bhi.n	1bf6 <__svfiscanf_r+0xba>
    1be6:	9a45      	ldr	r2, [sp, #276]	; 0x114
    1be8:	230a      	movs	r3, #10
    1bea:	4353      	muls	r3, r2
    1bec:	3b30      	subs	r3, #48	; 0x30
    1bee:	1859      	adds	r1, r3, r1
    1bf0:	9145      	str	r1, [sp, #276]	; 0x114
    1bf2:	3501      	adds	r5, #1
    1bf4:	e7f2      	b.n	1bdc <__svfiscanf_r+0xa0>
    1bf6:	4e7b      	ldr	r6, [pc, #492]	; (1de4 <__svfiscanf_r+0x2a8>)
    1bf8:	2203      	movs	r2, #3
    1bfa:	1c30      	adds	r0, r6, #0
    1bfc:	f000 fbd4 	bl	23a8 <memchr>
    1c00:	2800      	cmp	r0, #0
    1c02:	d006      	beq.n	1c12 <__svfiscanf_r+0xd6>
    1c04:	1b86      	subs	r6, r0, r6
    1c06:	9b43      	ldr	r3, [sp, #268]	; 0x10c
    1c08:	2001      	movs	r0, #1
    1c0a:	40b0      	lsls	r0, r6
    1c0c:	4318      	orrs	r0, r3
    1c0e:	9043      	str	r0, [sp, #268]	; 0x10c
    1c10:	3501      	adds	r5, #1
    1c12:	1c6e      	adds	r6, r5, #1
    1c14:	782d      	ldrb	r5, [r5, #0]
    1c16:	2d67      	cmp	r5, #103	; 0x67
    1c18:	d80f      	bhi.n	1c3a <__svfiscanf_r+0xfe>
    1c1a:	2d65      	cmp	r5, #101	; 0x65
    1c1c:	d277      	bcs.n	1d0e <__svfiscanf_r+0x1d2>
    1c1e:	2d5b      	cmp	r5, #91	; 0x5b
    1c20:	d051      	beq.n	1cc6 <__svfiscanf_r+0x18a>
    1c22:	d805      	bhi.n	1c30 <__svfiscanf_r+0xf4>
    1c24:	2d00      	cmp	r5, #0
    1c26:	d100      	bne.n	1c2a <__svfiscanf_r+0xee>
    1c28:	e0cd      	b.n	1dc6 <__svfiscanf_r+0x28a>
    1c2a:	2d25      	cmp	r5, #37	; 0x25
    1c2c:	d018      	beq.n	1c60 <__svfiscanf_r+0x124>
    1c2e:	e070      	b.n	1d12 <__svfiscanf_r+0x1d6>
    1c30:	2d63      	cmp	r5, #99	; 0x63
    1c32:	d054      	beq.n	1cde <__svfiscanf_r+0x1a2>
    1c34:	2d64      	cmp	r5, #100	; 0x64
    1c36:	d03d      	beq.n	1cb4 <__svfiscanf_r+0x178>
    1c38:	e06b      	b.n	1d12 <__svfiscanf_r+0x1d6>
    1c3a:	2d70      	cmp	r5, #112	; 0x70
    1c3c:	d02f      	beq.n	1c9e <__svfiscanf_r+0x162>
    1c3e:	d807      	bhi.n	1c50 <__svfiscanf_r+0x114>
    1c40:	2d6e      	cmp	r5, #110	; 0x6e
    1c42:	d052      	beq.n	1cea <__svfiscanf_r+0x1ae>
    1c44:	d838      	bhi.n	1cb8 <__svfiscanf_r+0x17c>
    1c46:	2d69      	cmp	r5, #105	; 0x69
    1c48:	d163      	bne.n	1d12 <__svfiscanf_r+0x1d6>
    1c4a:	2300      	movs	r3, #0
    1c4c:	9344      	str	r3, [sp, #272]	; 0x110
    1c4e:	e038      	b.n	1cc2 <__svfiscanf_r+0x186>
    1c50:	2d75      	cmp	r5, #117	; 0x75
    1c52:	d02f      	beq.n	1cb4 <__svfiscanf_r+0x178>
    1c54:	2d78      	cmp	r5, #120	; 0x78
    1c56:	d026      	beq.n	1ca6 <__svfiscanf_r+0x16a>
    1c58:	2d73      	cmp	r5, #115	; 0x73
    1c5a:	d15a      	bne.n	1d12 <__svfiscanf_r+0x1d6>
    1c5c:	2302      	movs	r3, #2
    1c5e:	e03c      	b.n	1cda <__svfiscanf_r+0x19e>
    1c60:	6860      	ldr	r0, [r4, #4]
    1c62:	2800      	cmp	r0, #0
    1c64:	dd0d      	ble.n	1c82 <__svfiscanf_r+0x146>
    1c66:	6823      	ldr	r3, [r4, #0]
    1c68:	781a      	ldrb	r2, [r3, #0]
    1c6a:	42aa      	cmp	r2, r5
    1c6c:	d000      	beq.n	1c70 <__svfiscanf_r+0x134>
    1c6e:	e0a8      	b.n	1dc2 <__svfiscanf_r+0x286>
    1c70:	3301      	adds	r3, #1
    1c72:	6862      	ldr	r2, [r4, #4]
    1c74:	6023      	str	r3, [r4, #0]
    1c76:	9b47      	ldr	r3, [sp, #284]	; 0x11c
    1c78:	3a01      	subs	r2, #1
    1c7a:	3301      	adds	r3, #1
    1c7c:	6062      	str	r2, [r4, #4]
    1c7e:	9347      	str	r3, [sp, #284]	; 0x11c
    1c80:	e79b      	b.n	1bba <__svfiscanf_r+0x7e>
    1c82:	23c0      	movs	r3, #192	; 0xc0
    1c84:	a943      	add	r1, sp, #268	; 0x10c
    1c86:	005b      	lsls	r3, r3, #1
    1c88:	58cb      	ldr	r3, [r1, r3]
    1c8a:	1c38      	adds	r0, r7, #0
    1c8c:	1c21      	adds	r1, r4, #0
    1c8e:	4798      	blx	r3
    1c90:	2800      	cmp	r0, #0
    1c92:	d0e8      	beq.n	1c66 <__svfiscanf_r+0x12a>
    1c94:	9846      	ldr	r0, [sp, #280]	; 0x118
    1c96:	2800      	cmp	r0, #0
    1c98:	d000      	beq.n	1c9c <__svfiscanf_r+0x160>
    1c9a:	e08e      	b.n	1dba <__svfiscanf_r+0x27e>
    1c9c:	e093      	b.n	1dc6 <__svfiscanf_r+0x28a>
    1c9e:	9a43      	ldr	r2, [sp, #268]	; 0x10c
    1ca0:	2320      	movs	r3, #32
    1ca2:	4313      	orrs	r3, r2
    1ca4:	9343      	str	r3, [sp, #268]	; 0x10c
    1ca6:	9843      	ldr	r0, [sp, #268]	; 0x10c
    1ca8:	2380      	movs	r3, #128	; 0x80
    1caa:	009b      	lsls	r3, r3, #2
    1cac:	4303      	orrs	r3, r0
    1cae:	9343      	str	r3, [sp, #268]	; 0x10c
    1cb0:	2310      	movs	r3, #16
    1cb2:	e002      	b.n	1cba <__svfiscanf_r+0x17e>
    1cb4:	230a      	movs	r3, #10
    1cb6:	e000      	b.n	1cba <__svfiscanf_r+0x17e>
    1cb8:	2308      	movs	r3, #8
    1cba:	9344      	str	r3, [sp, #272]	; 0x110
    1cbc:	2304      	movs	r3, #4
    1cbe:	2d6e      	cmp	r5, #110	; 0x6e
    1cc0:	dc0b      	bgt.n	1cda <__svfiscanf_r+0x19e>
    1cc2:	2303      	movs	r3, #3
    1cc4:	e009      	b.n	1cda <__svfiscanf_r+0x19e>
    1cc6:	1c31      	adds	r1, r6, #0
    1cc8:	a803      	add	r0, sp, #12
    1cca:	f000 fc47 	bl	255c <__sccl>
    1cce:	9943      	ldr	r1, [sp, #268]	; 0x10c
    1cd0:	2340      	movs	r3, #64	; 0x40
    1cd2:	430b      	orrs	r3, r1
    1cd4:	9343      	str	r3, [sp, #268]	; 0x10c
    1cd6:	1c06      	adds	r6, r0, #0
    1cd8:	2301      	movs	r3, #1
    1cda:	9349      	str	r3, [sp, #292]	; 0x124
    1cdc:	e01d      	b.n	1d1a <__svfiscanf_r+0x1de>
    1cde:	9a43      	ldr	r2, [sp, #268]	; 0x10c
    1ce0:	2340      	movs	r3, #64	; 0x40
    1ce2:	4313      	orrs	r3, r2
    1ce4:	9343      	str	r3, [sp, #268]	; 0x10c
    1ce6:	2300      	movs	r3, #0
    1ce8:	e7f7      	b.n	1cda <__svfiscanf_r+0x19e>
    1cea:	9943      	ldr	r1, [sp, #268]	; 0x10c
    1cec:	06cb      	lsls	r3, r1, #27
    1cee:	d500      	bpl.n	1cf2 <__svfiscanf_r+0x1b6>
    1cf0:	e763      	b.n	1bba <__svfiscanf_r+0x7e>
    1cf2:	9b01      	ldr	r3, [sp, #4]
    1cf4:	9a47      	ldr	r2, [sp, #284]	; 0x11c
    1cf6:	07c8      	lsls	r0, r1, #31
    1cf8:	d504      	bpl.n	1d04 <__svfiscanf_r+0x1c8>
    1cfa:	1d19      	adds	r1, r3, #4
    1cfc:	9101      	str	r1, [sp, #4]
    1cfe:	681b      	ldr	r3, [r3, #0]
    1d00:	801a      	strh	r2, [r3, #0]
    1d02:	e75a      	b.n	1bba <__svfiscanf_r+0x7e>
    1d04:	1d19      	adds	r1, r3, #4
    1d06:	9101      	str	r1, [sp, #4]
    1d08:	681b      	ldr	r3, [r3, #0]
    1d0a:	601a      	str	r2, [r3, #0]
    1d0c:	e755      	b.n	1bba <__svfiscanf_r+0x7e>
    1d0e:	2305      	movs	r3, #5
    1d10:	e7e3      	b.n	1cda <__svfiscanf_r+0x19e>
    1d12:	2303      	movs	r3, #3
    1d14:	9349      	str	r3, [sp, #292]	; 0x124
    1d16:	230a      	movs	r3, #10
    1d18:	9344      	str	r3, [sp, #272]	; 0x110
    1d1a:	6861      	ldr	r1, [r4, #4]
    1d1c:	2900      	cmp	r1, #0
    1d1e:	dd03      	ble.n	1d28 <__svfiscanf_r+0x1ec>
    1d20:	9a43      	ldr	r2, [sp, #268]	; 0x10c
    1d22:	0652      	lsls	r2, r2, #25
    1d24:	d514      	bpl.n	1d50 <__svfiscanf_r+0x214>
    1d26:	e01b      	b.n	1d60 <__svfiscanf_r+0x224>
    1d28:	23c0      	movs	r3, #192	; 0xc0
    1d2a:	a843      	add	r0, sp, #268	; 0x10c
    1d2c:	005b      	lsls	r3, r3, #1
    1d2e:	58c3      	ldr	r3, [r0, r3]
    1d30:	1c21      	adds	r1, r4, #0
    1d32:	1c38      	adds	r0, r7, #0
    1d34:	4798      	blx	r3
    1d36:	2800      	cmp	r0, #0
    1d38:	d0f2      	beq.n	1d20 <__svfiscanf_r+0x1e4>
    1d3a:	e7ab      	b.n	1c94 <__svfiscanf_r+0x158>
    1d3c:	9a47      	ldr	r2, [sp, #284]	; 0x11c
    1d3e:	3201      	adds	r2, #1
    1d40:	9247      	str	r2, [sp, #284]	; 0x11c
    1d42:	6862      	ldr	r2, [r4, #4]
    1d44:	3a01      	subs	r2, #1
    1d46:	6062      	str	r2, [r4, #4]
    1d48:	2a00      	cmp	r2, #0
    1d4a:	dd13      	ble.n	1d74 <__svfiscanf_r+0x238>
    1d4c:	3301      	adds	r3, #1
    1d4e:	6023      	str	r3, [r4, #0]
    1d50:	6823      	ldr	r3, [r4, #0]
    1d52:	4923      	ldr	r1, [pc, #140]	; (1de0 <__svfiscanf_r+0x2a4>)
    1d54:	781a      	ldrb	r2, [r3, #0]
    1d56:	6809      	ldr	r1, [r1, #0]
    1d58:	188a      	adds	r2, r1, r2
    1d5a:	7852      	ldrb	r2, [r2, #1]
    1d5c:	0710      	lsls	r0, r2, #28
    1d5e:	d4ed      	bmi.n	1d3c <__svfiscanf_r+0x200>
    1d60:	9b49      	ldr	r3, [sp, #292]	; 0x124
    1d62:	2b02      	cmp	r3, #2
    1d64:	dc10      	bgt.n	1d88 <__svfiscanf_r+0x24c>
    1d66:	1c38      	adds	r0, r7, #0
    1d68:	a943      	add	r1, sp, #268	; 0x10c
    1d6a:	1c22      	adds	r2, r4, #0
    1d6c:	ab01      	add	r3, sp, #4
    1d6e:	f000 f865 	bl	1e3c <_scanf_chars>
    1d72:	e01c      	b.n	1dae <__svfiscanf_r+0x272>
    1d74:	23c0      	movs	r3, #192	; 0xc0
    1d76:	a943      	add	r1, sp, #268	; 0x10c
    1d78:	005b      	lsls	r3, r3, #1
    1d7a:	58cb      	ldr	r3, [r1, r3]
    1d7c:	1c38      	adds	r0, r7, #0
    1d7e:	1c21      	adds	r1, r4, #0
    1d80:	4798      	blx	r3
    1d82:	2800      	cmp	r0, #0
    1d84:	d0e4      	beq.n	1d50 <__svfiscanf_r+0x214>
    1d86:	e785      	b.n	1c94 <__svfiscanf_r+0x158>
    1d88:	2b04      	cmp	r3, #4
    1d8a:	dc06      	bgt.n	1d9a <__svfiscanf_r+0x25e>
    1d8c:	1c38      	adds	r0, r7, #0
    1d8e:	a943      	add	r1, sp, #268	; 0x10c
    1d90:	1c22      	adds	r2, r4, #0
    1d92:	ab01      	add	r3, sp, #4
    1d94:	f000 f8b6 	bl	1f04 <_scanf_i>
    1d98:	e009      	b.n	1dae <__svfiscanf_r+0x272>
    1d9a:	4b13      	ldr	r3, [pc, #76]	; (1de8 <__svfiscanf_r+0x2ac>)
    1d9c:	2b00      	cmp	r3, #0
    1d9e:	d100      	bne.n	1da2 <__svfiscanf_r+0x266>
    1da0:	e70b      	b.n	1bba <__svfiscanf_r+0x7e>
    1da2:	1c38      	adds	r0, r7, #0
    1da4:	a943      	add	r1, sp, #268	; 0x10c
    1da6:	1c22      	adds	r2, r4, #0
    1da8:	ab01      	add	r3, sp, #4
    1daa:	e000      	b.n	1dae <__svfiscanf_r+0x272>
    1dac:	bf00      	nop
    1dae:	2801      	cmp	r0, #1
    1db0:	d007      	beq.n	1dc2 <__svfiscanf_r+0x286>
    1db2:	2802      	cmp	r0, #2
    1db4:	d000      	beq.n	1db8 <__svfiscanf_r+0x27c>
    1db6:	e700      	b.n	1bba <__svfiscanf_r+0x7e>
    1db8:	e76c      	b.n	1c94 <__svfiscanf_r+0x158>
    1dba:	89a3      	ldrh	r3, [r4, #12]
    1dbc:	0659      	lsls	r1, r3, #25
    1dbe:	d504      	bpl.n	1dca <__svfiscanf_r+0x28e>
    1dc0:	e001      	b.n	1dc6 <__svfiscanf_r+0x28a>
    1dc2:	9846      	ldr	r0, [sp, #280]	; 0x118
    1dc4:	e001      	b.n	1dca <__svfiscanf_r+0x28e>
    1dc6:	2001      	movs	r0, #1
    1dc8:	4240      	negs	r0, r0
    1dca:	23a5      	movs	r3, #165	; 0xa5
    1dcc:	009b      	lsls	r3, r3, #2
    1dce:	449d      	add	sp, r3
    1dd0:	bdf0      	pop	{r4, r5, r6, r7, pc}
    1dd2:	46c0      	nop			; (mov r8, r8)
    1dd4:	fffffd6c 	.word	0xfffffd6c
    1dd8:	000014c9 	.word	0x000014c9
    1ddc:	0000244d 	.word	0x0000244d
    1de0:	10000130 	.word	0x10000130
    1de4:	00002a82 	.word	0x00002a82
    1de8:	00000000 	.word	0x00000000

00001dec <_vfiscanf_r>:
    1dec:	b5f8      	push	{r3, r4, r5, r6, r7, lr}
    1dee:	1c05      	adds	r5, r0, #0
    1df0:	1c0c      	adds	r4, r1, #0
    1df2:	1c17      	adds	r7, r2, #0
    1df4:	1c1e      	adds	r6, r3, #0
    1df6:	2800      	cmp	r0, #0
    1df8:	d004      	beq.n	1e04 <_vfiscanf_r+0x18>
    1dfa:	6983      	ldr	r3, [r0, #24]
    1dfc:	2b00      	cmp	r3, #0
    1dfe:	d101      	bne.n	1e04 <_vfiscanf_r+0x18>
    1e00:	f7ff f81c 	bl	e3c <__sinit>
    1e04:	4b0a      	ldr	r3, [pc, #40]	; (1e30 <_vfiscanf_r+0x44>)
    1e06:	429c      	cmp	r4, r3
    1e08:	d101      	bne.n	1e0e <_vfiscanf_r+0x22>
    1e0a:	686c      	ldr	r4, [r5, #4]
    1e0c:	e008      	b.n	1e20 <_vfiscanf_r+0x34>
    1e0e:	4b09      	ldr	r3, [pc, #36]	; (1e34 <_vfiscanf_r+0x48>)
    1e10:	429c      	cmp	r4, r3
    1e12:	d101      	bne.n	1e18 <_vfiscanf_r+0x2c>
    1e14:	68ac      	ldr	r4, [r5, #8]
    1e16:	e003      	b.n	1e20 <_vfiscanf_r+0x34>
    1e18:	4b07      	ldr	r3, [pc, #28]	; (1e38 <_vfiscanf_r+0x4c>)
    1e1a:	429c      	cmp	r4, r3
    1e1c:	d100      	bne.n	1e20 <_vfiscanf_r+0x34>
    1e1e:	68ec      	ldr	r4, [r5, #12]
    1e20:	1c28      	adds	r0, r5, #0
    1e22:	1c3a      	adds	r2, r7, #0
    1e24:	1c33      	adds	r3, r6, #0
    1e26:	1c21      	adds	r1, r4, #0
    1e28:	f7ff fe88 	bl	1b3c <__svfiscanf_r>
    1e2c:	bdf8      	pop	{r3, r4, r5, r6, r7, pc}
    1e2e:	46c0      	nop			; (mov r8, r8)
    1e30:	00002a14 	.word	0x00002a14
    1e34:	00002a34 	.word	0x00002a34
    1e38:	00002a54 	.word	0x00002a54

00001e3c <_scanf_chars>:
    1e3c:	b5f7      	push	{r0, r1, r2, r4, r5, r6, r7, lr}
    1e3e:	1c15      	adds	r5, r2, #0
    1e40:	688a      	ldr	r2, [r1, #8]
    1e42:	9001      	str	r0, [sp, #4]
    1e44:	1c0c      	adds	r4, r1, #0
    1e46:	2a00      	cmp	r2, #0
    1e48:	d106      	bne.n	1e58 <_scanf_chars+0x1c>
    1e4a:	698a      	ldr	r2, [r1, #24]
    1e4c:	1e51      	subs	r1, r2, #1
    1e4e:	418a      	sbcs	r2, r1
    1e50:	4252      	negs	r2, r2
    1e52:	2101      	movs	r1, #1
    1e54:	430a      	orrs	r2, r1
    1e56:	60a2      	str	r2, [r4, #8]
    1e58:	6822      	ldr	r2, [r4, #0]
    1e5a:	06d2      	lsls	r2, r2, #27
    1e5c:	d403      	bmi.n	1e66 <_scanf_chars+0x2a>
    1e5e:	681a      	ldr	r2, [r3, #0]
    1e60:	1d11      	adds	r1, r2, #4
    1e62:	6019      	str	r1, [r3, #0]
    1e64:	6817      	ldr	r7, [r2, #0]
    1e66:	2600      	movs	r6, #0
    1e68:	69a0      	ldr	r0, [r4, #24]
    1e6a:	2800      	cmp	r0, #0
    1e6c:	d11d      	bne.n	1eaa <_scanf_chars+0x6e>
    1e6e:	6823      	ldr	r3, [r4, #0]
    1e70:	3601      	adds	r6, #1
    1e72:	06db      	lsls	r3, r3, #27
    1e74:	d403      	bmi.n	1e7e <_scanf_chars+0x42>
    1e76:	682a      	ldr	r2, [r5, #0]
    1e78:	7813      	ldrb	r3, [r2, #0]
    1e7a:	703b      	strb	r3, [r7, #0]
    1e7c:	3701      	adds	r7, #1
    1e7e:	682a      	ldr	r2, [r5, #0]
    1e80:	686b      	ldr	r3, [r5, #4]
    1e82:	3201      	adds	r2, #1
    1e84:	602a      	str	r2, [r5, #0]
    1e86:	68a2      	ldr	r2, [r4, #8]
    1e88:	3b01      	subs	r3, #1
    1e8a:	3a01      	subs	r2, #1
    1e8c:	606b      	str	r3, [r5, #4]
    1e8e:	60a2      	str	r2, [r4, #8]
    1e90:	2a00      	cmp	r2, #0
    1e92:	d025      	beq.n	1ee0 <_scanf_chars+0xa4>
    1e94:	2b00      	cmp	r3, #0
    1e96:	dce7      	bgt.n	1e68 <_scanf_chars+0x2c>
    1e98:	23c0      	movs	r3, #192	; 0xc0
    1e9a:	005b      	lsls	r3, r3, #1
    1e9c:	58e3      	ldr	r3, [r4, r3]
    1e9e:	9801      	ldr	r0, [sp, #4]
    1ea0:	1c29      	adds	r1, r5, #0
    1ea2:	4798      	blx	r3
    1ea4:	2800      	cmp	r0, #0
    1ea6:	d0df      	beq.n	1e68 <_scanf_chars+0x2c>
    1ea8:	e01a      	b.n	1ee0 <_scanf_chars+0xa4>
    1eaa:	2801      	cmp	r0, #1
    1eac:	d108      	bne.n	1ec0 <_scanf_chars+0x84>
    1eae:	682a      	ldr	r2, [r5, #0]
    1eb0:	7813      	ldrb	r3, [r2, #0]
    1eb2:	6962      	ldr	r2, [r4, #20]
    1eb4:	5cd3      	ldrb	r3, [r2, r3]
    1eb6:	2b00      	cmp	r3, #0
    1eb8:	d1d9      	bne.n	1e6e <_scanf_chars+0x32>
    1eba:	2e00      	cmp	r6, #0
    1ebc:	d01f      	beq.n	1efe <_scanf_chars+0xc2>
    1ebe:	e00f      	b.n	1ee0 <_scanf_chars+0xa4>
    1ec0:	2802      	cmp	r0, #2
    1ec2:	d002      	beq.n	1eca <_scanf_chars+0x8e>
    1ec4:	2e00      	cmp	r6, #0
    1ec6:	d009      	beq.n	1edc <_scanf_chars+0xa0>
    1ec8:	e00a      	b.n	1ee0 <_scanf_chars+0xa4>
    1eca:	682a      	ldr	r2, [r5, #0]
    1ecc:	7813      	ldrb	r3, [r2, #0]
    1ece:	4a0c      	ldr	r2, [pc, #48]	; (1f00 <_scanf_chars+0xc4>)
    1ed0:	6812      	ldr	r2, [r2, #0]
    1ed2:	18d3      	adds	r3, r2, r3
    1ed4:	785b      	ldrb	r3, [r3, #1]
    1ed6:	071a      	lsls	r2, r3, #28
    1ed8:	d5c9      	bpl.n	1e6e <_scanf_chars+0x32>
    1eda:	e7f3      	b.n	1ec4 <_scanf_chars+0x88>
    1edc:	2801      	cmp	r0, #1
    1ede:	d00e      	beq.n	1efe <_scanf_chars+0xc2>
    1ee0:	6822      	ldr	r2, [r4, #0]
    1ee2:	2310      	movs	r3, #16
    1ee4:	4013      	ands	r3, r2
    1ee6:	d106      	bne.n	1ef6 <_scanf_chars+0xba>
    1ee8:	68e2      	ldr	r2, [r4, #12]
    1eea:	3201      	adds	r2, #1
    1eec:	60e2      	str	r2, [r4, #12]
    1eee:	69a2      	ldr	r2, [r4, #24]
    1ef0:	2a00      	cmp	r2, #0
    1ef2:	d000      	beq.n	1ef6 <_scanf_chars+0xba>
    1ef4:	703b      	strb	r3, [r7, #0]
    1ef6:	6923      	ldr	r3, [r4, #16]
    1ef8:	2000      	movs	r0, #0
    1efa:	199e      	adds	r6, r3, r6
    1efc:	6126      	str	r6, [r4, #16]
    1efe:	bdfe      	pop	{r1, r2, r3, r4, r5, r6, r7, pc}
    1f00:	10000130 	.word	0x10000130

00001f04 <_scanf_i>:
    1f04:	b5f0      	push	{r4, r5, r6, r7, lr}
    1f06:	1c15      	adds	r5, r2, #0
    1f08:	b08b      	sub	sp, #44	; 0x2c
    1f0a:	4a77      	ldr	r2, [pc, #476]	; (20e8 <_scanf_i+0x1e4>)
    1f0c:	9004      	str	r0, [sp, #16]
    1f0e:	9302      	str	r3, [sp, #8]
    1f10:	ab07      	add	r3, sp, #28
    1f12:	cac1      	ldmia	r2!, {r0, r6, r7}
    1f14:	c3c1      	stmia	r3!, {r0, r6, r7}
    1f16:	6988      	ldr	r0, [r1, #24]
    1f18:	1c0c      	adds	r4, r1, #0
    1f1a:	2803      	cmp	r0, #3
    1f1c:	d102      	bne.n	1f24 <_scanf_i+0x20>
    1f1e:	4e73      	ldr	r6, [pc, #460]	; (20ec <_scanf_i+0x1e8>)
    1f20:	9605      	str	r6, [sp, #20]
    1f22:	e001      	b.n	1f28 <_scanf_i+0x24>
    1f24:	4f72      	ldr	r7, [pc, #456]	; (20f0 <_scanf_i+0x1ec>)
    1f26:	9705      	str	r7, [sp, #20]
    1f28:	68a3      	ldr	r3, [r4, #8]
    1f2a:	2600      	movs	r6, #0
    1f2c:	22ae      	movs	r2, #174	; 0xae
    1f2e:	1e59      	subs	r1, r3, #1
    1f30:	9603      	str	r6, [sp, #12]
    1f32:	0052      	lsls	r2, r2, #1
    1f34:	4291      	cmp	r1, r2
    1f36:	d905      	bls.n	1f44 <_scanf_i+0x40>
    1f38:	3b5e      	subs	r3, #94	; 0x5e
    1f3a:	3bff      	subs	r3, #255	; 0xff
    1f3c:	9303      	str	r3, [sp, #12]
    1f3e:	235e      	movs	r3, #94	; 0x5e
    1f40:	33ff      	adds	r3, #255	; 0xff
    1f42:	60a3      	str	r3, [r4, #8]
    1f44:	6820      	ldr	r0, [r4, #0]
    1f46:	23d0      	movs	r3, #208	; 0xd0
    1f48:	1c27      	adds	r7, r4, #0
    1f4a:	011b      	lsls	r3, r3, #4
    1f4c:	371c      	adds	r7, #28
    1f4e:	4303      	orrs	r3, r0
    1f50:	9701      	str	r7, [sp, #4]
    1f52:	9700      	str	r7, [sp, #0]
    1f54:	6023      	str	r3, [r4, #0]
    1f56:	2700      	movs	r7, #0
    1f58:	aa07      	add	r2, sp, #28
    1f5a:	00bb      	lsls	r3, r7, #2
    1f5c:	5898      	ldr	r0, [r3, r2]
    1f5e:	682a      	ldr	r2, [r5, #0]
    1f60:	7811      	ldrb	r1, [r2, #0]
    1f62:	2202      	movs	r2, #2
    1f64:	f000 fa20 	bl	23a8 <memchr>
    1f68:	2800      	cmp	r0, #0
    1f6a:	d03a      	beq.n	1fe2 <_scanf_i+0xde>
    1f6c:	2f01      	cmp	r7, #1
    1f6e:	d10d      	bne.n	1f8c <_scanf_i+0x88>
    1f70:	6863      	ldr	r3, [r4, #4]
    1f72:	2b00      	cmp	r3, #0
    1f74:	d106      	bne.n	1f84 <_scanf_i+0x80>
    1f76:	2308      	movs	r3, #8
    1f78:	6826      	ldr	r6, [r4, #0]
    1f7a:	6063      	str	r3, [r4, #4]
    1f7c:	2380      	movs	r3, #128	; 0x80
    1f7e:	009b      	lsls	r3, r3, #2
    1f80:	4333      	orrs	r3, r6
    1f82:	6023      	str	r3, [r4, #0]
    1f84:	4b5b      	ldr	r3, [pc, #364]	; (20f4 <_scanf_i+0x1f0>)
    1f86:	6820      	ldr	r0, [r4, #0]
    1f88:	4003      	ands	r3, r0
    1f8a:	e00e      	b.n	1faa <_scanf_i+0xa6>
    1f8c:	2f02      	cmp	r7, #2
    1f8e:	d10d      	bne.n	1fac <_scanf_i+0xa8>
    1f90:	6823      	ldr	r3, [r4, #0]
    1f92:	21c0      	movs	r1, #192	; 0xc0
    1f94:	00c9      	lsls	r1, r1, #3
    1f96:	2280      	movs	r2, #128	; 0x80
    1f98:	4019      	ands	r1, r3
    1f9a:	0092      	lsls	r2, r2, #2
    1f9c:	4291      	cmp	r1, r2
    1f9e:	d123      	bne.n	1fe8 <_scanf_i+0xe4>
    1fa0:	2210      	movs	r2, #16
    1fa2:	6062      	str	r2, [r4, #4]
    1fa4:	2280      	movs	r2, #128	; 0x80
    1fa6:	0052      	lsls	r2, r2, #1
    1fa8:	4313      	orrs	r3, r2
    1faa:	6023      	str	r3, [r4, #0]
    1fac:	68a3      	ldr	r3, [r4, #8]
    1fae:	1e5a      	subs	r2, r3, #1
    1fb0:	60a2      	str	r2, [r4, #8]
    1fb2:	2b00      	cmp	r3, #0
    1fb4:	d015      	beq.n	1fe2 <_scanf_i+0xde>
    1fb6:	682b      	ldr	r3, [r5, #0]
    1fb8:	9900      	ldr	r1, [sp, #0]
    1fba:	1c5a      	adds	r2, r3, #1
    1fbc:	602a      	str	r2, [r5, #0]
    1fbe:	781b      	ldrb	r3, [r3, #0]
    1fc0:	9e00      	ldr	r6, [sp, #0]
    1fc2:	700b      	strb	r3, [r1, #0]
    1fc4:	686b      	ldr	r3, [r5, #4]
    1fc6:	3601      	adds	r6, #1
    1fc8:	3b01      	subs	r3, #1
    1fca:	606b      	str	r3, [r5, #4]
    1fcc:	9600      	str	r6, [sp, #0]
    1fce:	2b00      	cmp	r3, #0
    1fd0:	dc07      	bgt.n	1fe2 <_scanf_i+0xde>
    1fd2:	23c0      	movs	r3, #192	; 0xc0
    1fd4:	005b      	lsls	r3, r3, #1
    1fd6:	58e3      	ldr	r3, [r4, r3]
    1fd8:	9804      	ldr	r0, [sp, #16]
    1fda:	1c29      	adds	r1, r5, #0
    1fdc:	4798      	blx	r3
    1fde:	2800      	cmp	r0, #0
    1fe0:	d143      	bne.n	206a <_scanf_i+0x166>
    1fe2:	3701      	adds	r7, #1
    1fe4:	2f03      	cmp	r7, #3
    1fe6:	d1b7      	bne.n	1f58 <_scanf_i+0x54>
    1fe8:	6862      	ldr	r2, [r4, #4]
    1fea:	2a00      	cmp	r2, #0
    1fec:	d101      	bne.n	1ff2 <_scanf_i+0xee>
    1fee:	230a      	movs	r3, #10
    1ff0:	6063      	str	r3, [r4, #4]
    1ff2:	6863      	ldr	r3, [r4, #4]
    1ff4:	2110      	movs	r1, #16
    1ff6:	1ac9      	subs	r1, r1, r3
    1ff8:	4b3f      	ldr	r3, [pc, #252]	; (20f8 <_scanf_i+0x1f4>)
    1ffa:	6960      	ldr	r0, [r4, #20]
    1ffc:	18c9      	adds	r1, r1, r3
    1ffe:	f000 faad 	bl	255c <__sccl>
    2002:	9e00      	ldr	r6, [sp, #0]
    2004:	2700      	movs	r7, #0
    2006:	68a3      	ldr	r3, [r4, #8]
    2008:	2b00      	cmp	r3, #0
    200a:	d02f      	beq.n	206c <_scanf_i+0x168>
    200c:	682a      	ldr	r2, [r5, #0]
    200e:	6961      	ldr	r1, [r4, #20]
    2010:	7810      	ldrb	r0, [r2, #0]
    2012:	5c09      	ldrb	r1, [r1, r0]
    2014:	2900      	cmp	r1, #0
    2016:	d029      	beq.n	206c <_scanf_i+0x168>
    2018:	6821      	ldr	r1, [r4, #0]
    201a:	2830      	cmp	r0, #48	; 0x30
    201c:	d10a      	bne.n	2034 <_scanf_i+0x130>
    201e:	0508      	lsls	r0, r1, #20
    2020:	d508      	bpl.n	2034 <_scanf_i+0x130>
    2022:	9903      	ldr	r1, [sp, #12]
    2024:	3701      	adds	r7, #1
    2026:	2900      	cmp	r1, #0
    2028:	d00a      	beq.n	2040 <_scanf_i+0x13c>
    202a:	3901      	subs	r1, #1
    202c:	3301      	adds	r3, #1
    202e:	9103      	str	r1, [sp, #12]
    2030:	60a3      	str	r3, [r4, #8]
    2032:	e005      	b.n	2040 <_scanf_i+0x13c>
    2034:	4b31      	ldr	r3, [pc, #196]	; (20fc <_scanf_i+0x1f8>)
    2036:	4019      	ands	r1, r3
    2038:	6021      	str	r1, [r4, #0]
    203a:	7813      	ldrb	r3, [r2, #0]
    203c:	7033      	strb	r3, [r6, #0]
    203e:	3601      	adds	r6, #1
    2040:	686b      	ldr	r3, [r5, #4]
    2042:	3b01      	subs	r3, #1
    2044:	606b      	str	r3, [r5, #4]
    2046:	2b00      	cmp	r3, #0
    2048:	dd03      	ble.n	2052 <_scanf_i+0x14e>
    204a:	682b      	ldr	r3, [r5, #0]
    204c:	3301      	adds	r3, #1
    204e:	602b      	str	r3, [r5, #0]
    2050:	e007      	b.n	2062 <_scanf_i+0x15e>
    2052:	23c0      	movs	r3, #192	; 0xc0
    2054:	005b      	lsls	r3, r3, #1
    2056:	58e3      	ldr	r3, [r4, r3]
    2058:	9804      	ldr	r0, [sp, #16]
    205a:	1c29      	adds	r1, r5, #0
    205c:	4798      	blx	r3
    205e:	2800      	cmp	r0, #0
    2060:	d104      	bne.n	206c <_scanf_i+0x168>
    2062:	68a3      	ldr	r3, [r4, #8]
    2064:	3b01      	subs	r3, #1
    2066:	60a3      	str	r3, [r4, #8]
    2068:	e7cd      	b.n	2006 <_scanf_i+0x102>
    206a:	2700      	movs	r7, #0
    206c:	6822      	ldr	r2, [r4, #0]
    206e:	05d2      	lsls	r2, r2, #23
    2070:	d50d      	bpl.n	208e <_scanf_i+0x18a>
    2072:	9b01      	ldr	r3, [sp, #4]
    2074:	429e      	cmp	r6, r3
    2076:	d907      	bls.n	2088 <_scanf_i+0x184>
    2078:	23be      	movs	r3, #190	; 0xbe
    207a:	3e01      	subs	r6, #1
    207c:	005b      	lsls	r3, r3, #1
    207e:	7831      	ldrb	r1, [r6, #0]
    2080:	58e3      	ldr	r3, [r4, r3]
    2082:	9804      	ldr	r0, [sp, #16]
    2084:	1c2a      	adds	r2, r5, #0
    2086:	4798      	blx	r3
    2088:	9d01      	ldr	r5, [sp, #4]
    208a:	42ae      	cmp	r6, r5
    208c:	d028      	beq.n	20e0 <_scanf_i+0x1dc>
    208e:	6820      	ldr	r0, [r4, #0]
    2090:	2210      	movs	r2, #16
    2092:	4002      	ands	r2, r0
    2094:	d11c      	bne.n	20d0 <_scanf_i+0x1cc>
    2096:	7032      	strb	r2, [r6, #0]
    2098:	6863      	ldr	r3, [r4, #4]
    209a:	9d05      	ldr	r5, [sp, #20]
    209c:	9804      	ldr	r0, [sp, #16]
    209e:	9901      	ldr	r1, [sp, #4]
    20a0:	47a8      	blx	r5
    20a2:	9d02      	ldr	r5, [sp, #8]
    20a4:	6822      	ldr	r2, [r4, #0]
    20a6:	682b      	ldr	r3, [r5, #0]
    20a8:	0691      	lsls	r1, r2, #26
    20aa:	d501      	bpl.n	20b0 <_scanf_i+0x1ac>
    20ac:	1d1a      	adds	r2, r3, #4
    20ae:	e009      	b.n	20c4 <_scanf_i+0x1c0>
    20b0:	07d5      	lsls	r5, r2, #31
    20b2:	d505      	bpl.n	20c0 <_scanf_i+0x1bc>
    20b4:	9d02      	ldr	r5, [sp, #8]
    20b6:	1d1a      	adds	r2, r3, #4
    20b8:	602a      	str	r2, [r5, #0]
    20ba:	681b      	ldr	r3, [r3, #0]
    20bc:	8018      	strh	r0, [r3, #0]
    20be:	e004      	b.n	20ca <_scanf_i+0x1c6>
    20c0:	9d02      	ldr	r5, [sp, #8]
    20c2:	1d1a      	adds	r2, r3, #4
    20c4:	602a      	str	r2, [r5, #0]
    20c6:	681b      	ldr	r3, [r3, #0]
    20c8:	6018      	str	r0, [r3, #0]
    20ca:	68e3      	ldr	r3, [r4, #12]
    20cc:	3301      	adds	r3, #1
    20ce:	60e3      	str	r3, [r4, #12]
    20d0:	9d01      	ldr	r5, [sp, #4]
    20d2:	2000      	movs	r0, #0
    20d4:	1b76      	subs	r6, r6, r5
    20d6:	19f7      	adds	r7, r6, r7
    20d8:	6926      	ldr	r6, [r4, #16]
    20da:	19f7      	adds	r7, r6, r7
    20dc:	6127      	str	r7, [r4, #16]
    20de:	e000      	b.n	20e2 <_scanf_i+0x1de>
    20e0:	2001      	movs	r0, #1
    20e2:	b00b      	add	sp, #44	; 0x2c
    20e4:	bdf0      	pop	{r4, r5, r6, r7, pc}
    20e6:	46c0      	nop			; (mov r8, r8)
    20e8:	00002ab0 	.word	0x00002ab0
    20ec:	000025c5 	.word	0x000025c5
    20f0:	000026d9 	.word	0x000026d9
    20f4:	fffffaff 	.word	0xfffffaff
    20f8:	00002abc 	.word	0x00002abc
    20fc:	fffff6ff 	.word	0xfffff6ff

00002100 <__swbuf_r>:
    2100:	b570      	push	{r4, r5, r6, lr}
    2102:	1c05      	adds	r5, r0, #0
    2104:	1c0e      	adds	r6, r1, #0
    2106:	1c14      	adds	r4, r2, #0
    2108:	2800      	cmp	r0, #0
    210a:	d004      	beq.n	2116 <__swbuf_r+0x16>
    210c:	6982      	ldr	r2, [r0, #24]
    210e:	2a00      	cmp	r2, #0
    2110:	d101      	bne.n	2116 <__swbuf_r+0x16>
    2112:	f7fe fe93 	bl	e3c <__sinit>
    2116:	4b23      	ldr	r3, [pc, #140]	; (21a4 <__swbuf_r+0xa4>)
    2118:	429c      	cmp	r4, r3
    211a:	d101      	bne.n	2120 <__swbuf_r+0x20>
    211c:	686c      	ldr	r4, [r5, #4]
    211e:	e008      	b.n	2132 <__swbuf_r+0x32>
    2120:	4b21      	ldr	r3, [pc, #132]	; (21a8 <__swbuf_r+0xa8>)
    2122:	429c      	cmp	r4, r3
    2124:	d101      	bne.n	212a <__swbuf_r+0x2a>
    2126:	68ac      	ldr	r4, [r5, #8]
    2128:	e003      	b.n	2132 <__swbuf_r+0x32>
    212a:	4b20      	ldr	r3, [pc, #128]	; (21ac <__swbuf_r+0xac>)
    212c:	429c      	cmp	r4, r3
    212e:	d100      	bne.n	2132 <__swbuf_r+0x32>
    2130:	68ec      	ldr	r4, [r5, #12]
    2132:	69a3      	ldr	r3, [r4, #24]
    2134:	60a3      	str	r3, [r4, #8]
    2136:	89a3      	ldrh	r3, [r4, #12]
    2138:	071a      	lsls	r2, r3, #28
    213a:	d50a      	bpl.n	2152 <__swbuf_r+0x52>
    213c:	6923      	ldr	r3, [r4, #16]
    213e:	2b00      	cmp	r3, #0
    2140:	d007      	beq.n	2152 <__swbuf_r+0x52>
    2142:	6822      	ldr	r2, [r4, #0]
    2144:	6923      	ldr	r3, [r4, #16]
    2146:	b2f6      	uxtb	r6, r6
    2148:	1ad0      	subs	r0, r2, r3
    214a:	6962      	ldr	r2, [r4, #20]
    214c:	4290      	cmp	r0, r2
    214e:	db0f      	blt.n	2170 <__swbuf_r+0x70>
    2150:	e008      	b.n	2164 <__swbuf_r+0x64>
    2152:	1c28      	adds	r0, r5, #0
    2154:	1c21      	adds	r1, r4, #0
    2156:	f000 f83f 	bl	21d8 <__swsetup_r>
    215a:	2800      	cmp	r0, #0
    215c:	d0f1      	beq.n	2142 <__swbuf_r+0x42>
    215e:	2001      	movs	r0, #1
    2160:	4240      	negs	r0, r0
    2162:	e01d      	b.n	21a0 <__swbuf_r+0xa0>
    2164:	1c28      	adds	r0, r5, #0
    2166:	1c21      	adds	r1, r4, #0
    2168:	f7fe fdd4 	bl	d14 <_fflush_r>
    216c:	2800      	cmp	r0, #0
    216e:	d1f6      	bne.n	215e <__swbuf_r+0x5e>
    2170:	68a3      	ldr	r3, [r4, #8]
    2172:	3001      	adds	r0, #1
    2174:	3b01      	subs	r3, #1
    2176:	60a3      	str	r3, [r4, #8]
    2178:	6823      	ldr	r3, [r4, #0]
    217a:	1c5a      	adds	r2, r3, #1
    217c:	6022      	str	r2, [r4, #0]
    217e:	701e      	strb	r6, [r3, #0]
    2180:	6963      	ldr	r3, [r4, #20]
    2182:	4298      	cmp	r0, r3
    2184:	d005      	beq.n	2192 <__swbuf_r+0x92>
    2186:	89a3      	ldrh	r3, [r4, #12]
    2188:	1c30      	adds	r0, r6, #0
    218a:	07da      	lsls	r2, r3, #31
    218c:	d508      	bpl.n	21a0 <__swbuf_r+0xa0>
    218e:	2e0a      	cmp	r6, #10
    2190:	d106      	bne.n	21a0 <__swbuf_r+0xa0>
    2192:	1c28      	adds	r0, r5, #0
    2194:	1c21      	adds	r1, r4, #0
    2196:	f7fe fdbd 	bl	d14 <_fflush_r>
    219a:	2800      	cmp	r0, #0
    219c:	d1df      	bne.n	215e <__swbuf_r+0x5e>
    219e:	1c30      	adds	r0, r6, #0
    21a0:	bd70      	pop	{r4, r5, r6, pc}
    21a2:	46c0      	nop			; (mov r8, r8)
    21a4:	00002a14 	.word	0x00002a14
    21a8:	00002a34 	.word	0x00002a34
    21ac:	00002a54 	.word	0x00002a54

000021b0 <_write_r>:
    21b0:	b538      	push	{r3, r4, r5, lr}
    21b2:	4c08      	ldr	r4, [pc, #32]	; (21d4 <_write_r+0x24>)
    21b4:	1c05      	adds	r5, r0, #0
    21b6:	2000      	movs	r0, #0
    21b8:	6020      	str	r0, [r4, #0]
    21ba:	1c08      	adds	r0, r1, #0
    21bc:	1c11      	adds	r1, r2, #0
    21be:	1c1a      	adds	r2, r3, #0
    21c0:	f7fe f916 	bl	3f0 <_write>
    21c4:	1c43      	adds	r3, r0, #1
    21c6:	d103      	bne.n	21d0 <_write_r+0x20>
    21c8:	6823      	ldr	r3, [r4, #0]
    21ca:	2b00      	cmp	r3, #0
    21cc:	d000      	beq.n	21d0 <_write_r+0x20>
    21ce:	602b      	str	r3, [r5, #0]
    21d0:	bd38      	pop	{r3, r4, r5, pc}
    21d2:	46c0      	nop			; (mov r8, r8)
    21d4:	10000278 	.word	0x10000278

000021d8 <__swsetup_r>:
    21d8:	4b34      	ldr	r3, [pc, #208]	; (22ac <__swsetup_r+0xd4>)
    21da:	b570      	push	{r4, r5, r6, lr}
    21dc:	681d      	ldr	r5, [r3, #0]
    21de:	1c06      	adds	r6, r0, #0
    21e0:	1c0c      	adds	r4, r1, #0
    21e2:	2d00      	cmp	r5, #0
    21e4:	d005      	beq.n	21f2 <__swsetup_r+0x1a>
    21e6:	69a9      	ldr	r1, [r5, #24]
    21e8:	2900      	cmp	r1, #0
    21ea:	d102      	bne.n	21f2 <__swsetup_r+0x1a>
    21ec:	1c28      	adds	r0, r5, #0
    21ee:	f7fe fe25 	bl	e3c <__sinit>
    21f2:	4b2f      	ldr	r3, [pc, #188]	; (22b0 <__swsetup_r+0xd8>)
    21f4:	429c      	cmp	r4, r3
    21f6:	d101      	bne.n	21fc <__swsetup_r+0x24>
    21f8:	686c      	ldr	r4, [r5, #4]
    21fa:	e008      	b.n	220e <__swsetup_r+0x36>
    21fc:	4b2d      	ldr	r3, [pc, #180]	; (22b4 <__swsetup_r+0xdc>)
    21fe:	429c      	cmp	r4, r3
    2200:	d101      	bne.n	2206 <__swsetup_r+0x2e>
    2202:	68ac      	ldr	r4, [r5, #8]
    2204:	e003      	b.n	220e <__swsetup_r+0x36>
    2206:	4b2c      	ldr	r3, [pc, #176]	; (22b8 <__swsetup_r+0xe0>)
    2208:	429c      	cmp	r4, r3
    220a:	d100      	bne.n	220e <__swsetup_r+0x36>
    220c:	68ec      	ldr	r4, [r5, #12]
    220e:	89a2      	ldrh	r2, [r4, #12]
    2210:	b293      	uxth	r3, r2
    2212:	0719      	lsls	r1, r3, #28
    2214:	d421      	bmi.n	225a <__swsetup_r+0x82>
    2216:	06d9      	lsls	r1, r3, #27
    2218:	d405      	bmi.n	2226 <__swsetup_r+0x4e>
    221a:	2309      	movs	r3, #9
    221c:	6033      	str	r3, [r6, #0]
    221e:	2340      	movs	r3, #64	; 0x40
    2220:	431a      	orrs	r2, r3
    2222:	81a2      	strh	r2, [r4, #12]
    2224:	e03f      	b.n	22a6 <__swsetup_r+0xce>
    2226:	075a      	lsls	r2, r3, #29
    2228:	d513      	bpl.n	2252 <__swsetup_r+0x7a>
    222a:	6b61      	ldr	r1, [r4, #52]	; 0x34
    222c:	2900      	cmp	r1, #0
    222e:	d008      	beq.n	2242 <__swsetup_r+0x6a>
    2230:	1c23      	adds	r3, r4, #0
    2232:	3344      	adds	r3, #68	; 0x44
    2234:	4299      	cmp	r1, r3
    2236:	d002      	beq.n	223e <__swsetup_r+0x66>
    2238:	1c30      	adds	r0, r6, #0
    223a:	f7fe ff65 	bl	1108 <_free_r>
    223e:	2300      	movs	r3, #0
    2240:	6363      	str	r3, [r4, #52]	; 0x34
    2242:	89a3      	ldrh	r3, [r4, #12]
    2244:	2224      	movs	r2, #36	; 0x24
    2246:	4393      	bics	r3, r2
    2248:	81a3      	strh	r3, [r4, #12]
    224a:	2300      	movs	r3, #0
    224c:	6063      	str	r3, [r4, #4]
    224e:	6923      	ldr	r3, [r4, #16]
    2250:	6023      	str	r3, [r4, #0]
    2252:	89a3      	ldrh	r3, [r4, #12]
    2254:	2208      	movs	r2, #8
    2256:	4313      	orrs	r3, r2
    2258:	81a3      	strh	r3, [r4, #12]
    225a:	6921      	ldr	r1, [r4, #16]
    225c:	2900      	cmp	r1, #0
    225e:	d10b      	bne.n	2278 <__swsetup_r+0xa0>
    2260:	89a3      	ldrh	r3, [r4, #12]
    2262:	22a0      	movs	r2, #160	; 0xa0
    2264:	0092      	lsls	r2, r2, #2
    2266:	401a      	ands	r2, r3
    2268:	2380      	movs	r3, #128	; 0x80
    226a:	009b      	lsls	r3, r3, #2
    226c:	429a      	cmp	r2, r3
    226e:	d003      	beq.n	2278 <__swsetup_r+0xa0>
    2270:	1c30      	adds	r0, r6, #0
    2272:	1c21      	adds	r1, r4, #0
    2274:	f000 f848 	bl	2308 <__smakebuf_r>
    2278:	89a3      	ldrh	r3, [r4, #12]
    227a:	2201      	movs	r2, #1
    227c:	401a      	ands	r2, r3
    227e:	d005      	beq.n	228c <__swsetup_r+0xb4>
    2280:	6961      	ldr	r1, [r4, #20]
    2282:	2200      	movs	r2, #0
    2284:	60a2      	str	r2, [r4, #8]
    2286:	424a      	negs	r2, r1
    2288:	61a2      	str	r2, [r4, #24]
    228a:	e003      	b.n	2294 <__swsetup_r+0xbc>
    228c:	0799      	lsls	r1, r3, #30
    228e:	d400      	bmi.n	2292 <__swsetup_r+0xba>
    2290:	6962      	ldr	r2, [r4, #20]
    2292:	60a2      	str	r2, [r4, #8]
    2294:	6922      	ldr	r2, [r4, #16]
    2296:	2000      	movs	r0, #0
    2298:	4282      	cmp	r2, r0
    229a:	d106      	bne.n	22aa <__swsetup_r+0xd2>
    229c:	0619      	lsls	r1, r3, #24
    229e:	d504      	bpl.n	22aa <__swsetup_r+0xd2>
    22a0:	2240      	movs	r2, #64	; 0x40
    22a2:	4313      	orrs	r3, r2
    22a4:	81a3      	strh	r3, [r4, #12]
    22a6:	2001      	movs	r0, #1
    22a8:	4240      	negs	r0, r0
    22aa:	bd70      	pop	{r4, r5, r6, pc}
    22ac:	1000012c 	.word	0x1000012c
    22b0:	00002a14 	.word	0x00002a14
    22b4:	00002a34 	.word	0x00002a34
    22b8:	00002a54 	.word	0x00002a54

000022bc <_close_r>:
    22bc:	b538      	push	{r3, r4, r5, lr}
    22be:	4c07      	ldr	r4, [pc, #28]	; (22dc <_close_r+0x20>)
    22c0:	2300      	movs	r3, #0
    22c2:	1c05      	adds	r5, r0, #0
    22c4:	1c08      	adds	r0, r1, #0
    22c6:	6023      	str	r3, [r4, #0]
    22c8:	f7fe f87c 	bl	3c4 <_close>
    22cc:	1c43      	adds	r3, r0, #1
    22ce:	d103      	bne.n	22d8 <_close_r+0x1c>
    22d0:	6823      	ldr	r3, [r4, #0]
    22d2:	2b00      	cmp	r3, #0
    22d4:	d000      	beq.n	22d8 <_close_r+0x1c>
    22d6:	602b      	str	r3, [r5, #0]
    22d8:	bd38      	pop	{r3, r4, r5, pc}
    22da:	46c0      	nop			; (mov r8, r8)
    22dc:	10000278 	.word	0x10000278

000022e0 <_lseek_r>:
    22e0:	b538      	push	{r3, r4, r5, lr}
    22e2:	4c08      	ldr	r4, [pc, #32]	; (2304 <_lseek_r+0x24>)
    22e4:	1c05      	adds	r5, r0, #0
    22e6:	2000      	movs	r0, #0
    22e8:	6020      	str	r0, [r4, #0]
    22ea:	1c08      	adds	r0, r1, #0
    22ec:	1c11      	adds	r1, r2, #0
    22ee:	1c1a      	adds	r2, r3, #0
    22f0:	f7fe f8e2 	bl	4b8 <_lseek>
    22f4:	1c43      	adds	r3, r0, #1
    22f6:	d103      	bne.n	2300 <_lseek_r+0x20>
    22f8:	6823      	ldr	r3, [r4, #0]
    22fa:	2b00      	cmp	r3, #0
    22fc:	d000      	beq.n	2300 <_lseek_r+0x20>
    22fe:	602b      	str	r3, [r5, #0]
    2300:	bd38      	pop	{r3, r4, r5, pc}
    2302:	46c0      	nop			; (mov r8, r8)
    2304:	10000278 	.word	0x10000278

00002308 <__smakebuf_r>:
    2308:	b5f0      	push	{r4, r5, r6, r7, lr}
    230a:	898b      	ldrh	r3, [r1, #12]
    230c:	b091      	sub	sp, #68	; 0x44
    230e:	1c05      	adds	r5, r0, #0
    2310:	1c0c      	adds	r4, r1, #0
    2312:	079a      	lsls	r2, r3, #30
    2314:	d425      	bmi.n	2362 <__smakebuf_r+0x5a>
    2316:	230e      	movs	r3, #14
    2318:	5ec9      	ldrsh	r1, [r1, r3]
    231a:	2900      	cmp	r1, #0
    231c:	da06      	bge.n	232c <__smakebuf_r+0x24>
    231e:	89a7      	ldrh	r7, [r4, #12]
    2320:	2380      	movs	r3, #128	; 0x80
    2322:	401f      	ands	r7, r3
    2324:	d00f      	beq.n	2346 <__smakebuf_r+0x3e>
    2326:	2700      	movs	r7, #0
    2328:	2640      	movs	r6, #64	; 0x40
    232a:	e00e      	b.n	234a <__smakebuf_r+0x42>
    232c:	aa01      	add	r2, sp, #4
    232e:	f000 fa4f 	bl	27d0 <_fstat_r>
    2332:	2800      	cmp	r0, #0
    2334:	dbf3      	blt.n	231e <__smakebuf_r+0x16>
    2336:	9b02      	ldr	r3, [sp, #8]
    2338:	27f0      	movs	r7, #240	; 0xf0
    233a:	023f      	lsls	r7, r7, #8
    233c:	4a18      	ldr	r2, [pc, #96]	; (23a0 <__smakebuf_r+0x98>)
    233e:	401f      	ands	r7, r3
    2340:	18bf      	adds	r7, r7, r2
    2342:	427b      	negs	r3, r7
    2344:	415f      	adcs	r7, r3
    2346:	2680      	movs	r6, #128	; 0x80
    2348:	00f6      	lsls	r6, r6, #3
    234a:	1c28      	adds	r0, r5, #0
    234c:	1c31      	adds	r1, r6, #0
    234e:	f7fe ff23 	bl	1198 <_malloc_r>
    2352:	2800      	cmp	r0, #0
    2354:	d10c      	bne.n	2370 <__smakebuf_r+0x68>
    2356:	89a3      	ldrh	r3, [r4, #12]
    2358:	059a      	lsls	r2, r3, #22
    235a:	d41f      	bmi.n	239c <__smakebuf_r+0x94>
    235c:	2202      	movs	r2, #2
    235e:	4313      	orrs	r3, r2
    2360:	81a3      	strh	r3, [r4, #12]
    2362:	1c23      	adds	r3, r4, #0
    2364:	3347      	adds	r3, #71	; 0x47
    2366:	6023      	str	r3, [r4, #0]
    2368:	6123      	str	r3, [r4, #16]
    236a:	2301      	movs	r3, #1
    236c:	6163      	str	r3, [r4, #20]
    236e:	e015      	b.n	239c <__smakebuf_r+0x94>
    2370:	4b0c      	ldr	r3, [pc, #48]	; (23a4 <__smakebuf_r+0x9c>)
    2372:	2280      	movs	r2, #128	; 0x80
    2374:	62ab      	str	r3, [r5, #40]	; 0x28
    2376:	89a3      	ldrh	r3, [r4, #12]
    2378:	6020      	str	r0, [r4, #0]
    237a:	4313      	orrs	r3, r2
    237c:	81a3      	strh	r3, [r4, #12]
    237e:	6120      	str	r0, [r4, #16]
    2380:	6166      	str	r6, [r4, #20]
    2382:	2f00      	cmp	r7, #0
    2384:	d00a      	beq.n	239c <__smakebuf_r+0x94>
    2386:	230e      	movs	r3, #14
    2388:	5ee1      	ldrsh	r1, [r4, r3]
    238a:	1c28      	adds	r0, r5, #0
    238c:	f000 fa32 	bl	27f4 <_isatty_r>
    2390:	2800      	cmp	r0, #0
    2392:	d003      	beq.n	239c <__smakebuf_r+0x94>
    2394:	89a3      	ldrh	r3, [r4, #12]
    2396:	2201      	movs	r2, #1
    2398:	4313      	orrs	r3, r2
    239a:	81a3      	strh	r3, [r4, #12]
    239c:	b011      	add	sp, #68	; 0x44
    239e:	bdf0      	pop	{r4, r5, r6, r7, pc}
    23a0:	ffffe000 	.word	0xffffe000
    23a4:	00000d95 	.word	0x00000d95

000023a8 <memchr>:
    23a8:	b2c9      	uxtb	r1, r1
    23aa:	1882      	adds	r2, r0, r2
    23ac:	4290      	cmp	r0, r2
    23ae:	d004      	beq.n	23ba <memchr+0x12>
    23b0:	7803      	ldrb	r3, [r0, #0]
    23b2:	428b      	cmp	r3, r1
    23b4:	d002      	beq.n	23bc <memchr+0x14>
    23b6:	3001      	adds	r0, #1
    23b8:	e7f8      	b.n	23ac <memchr+0x4>
    23ba:	2000      	movs	r0, #0
    23bc:	4770      	bx	lr

000023be <_realloc_r>:
    23be:	b5f8      	push	{r3, r4, r5, r6, r7, lr}
    23c0:	1c06      	adds	r6, r0, #0
    23c2:	1c0c      	adds	r4, r1, #0
    23c4:	1c15      	adds	r5, r2, #0
    23c6:	2900      	cmp	r1, #0
    23c8:	d104      	bne.n	23d4 <_realloc_r+0x16>
    23ca:	1c11      	adds	r1, r2, #0
    23cc:	f7fe fee4 	bl	1198 <_malloc_r>
    23d0:	1c04      	adds	r4, r0, #0
    23d2:	e018      	b.n	2406 <_realloc_r+0x48>
    23d4:	2a00      	cmp	r2, #0
    23d6:	d103      	bne.n	23e0 <_realloc_r+0x22>
    23d8:	f7fe fe96 	bl	1108 <_free_r>
    23dc:	1c2c      	adds	r4, r5, #0
    23de:	e012      	b.n	2406 <_realloc_r+0x48>
    23e0:	f000 fa1a 	bl	2818 <_malloc_usable_size_r>
    23e4:	42a8      	cmp	r0, r5
    23e6:	d20e      	bcs.n	2406 <_realloc_r+0x48>
    23e8:	1c30      	adds	r0, r6, #0
    23ea:	1c29      	adds	r1, r5, #0
    23ec:	f7fe fed4 	bl	1198 <_malloc_r>
    23f0:	1e07      	subs	r7, r0, #0
    23f2:	d007      	beq.n	2404 <_realloc_r+0x46>
    23f4:	1c21      	adds	r1, r4, #0
    23f6:	1c2a      	adds	r2, r5, #0
    23f8:	f7fe fe74 	bl	10e4 <memcpy>
    23fc:	1c30      	adds	r0, r6, #0
    23fe:	1c21      	adds	r1, r4, #0
    2400:	f7fe fe82 	bl	1108 <_free_r>
    2404:	1c3c      	adds	r4, r7, #0
    2406:	1c20      	adds	r0, r4, #0
    2408:	bdf8      	pop	{r3, r4, r5, r6, r7, pc}
	...

0000240c <_read_r>:
    240c:	b538      	push	{r3, r4, r5, lr}
    240e:	4c08      	ldr	r4, [pc, #32]	; (2430 <_read_r+0x24>)
    2410:	1c05      	adds	r5, r0, #0
    2412:	2000      	movs	r0, #0
    2414:	6020      	str	r0, [r4, #0]
    2416:	1c08      	adds	r0, r1, #0
    2418:	1c11      	adds	r1, r2, #0
    241a:	1c1a      	adds	r2, r3, #0
    241c:	f7fe f814 	bl	448 <_read>
    2420:	1c43      	adds	r3, r0, #1
    2422:	d103      	bne.n	242c <_read_r+0x20>
    2424:	6823      	ldr	r3, [r4, #0]
    2426:	2b00      	cmp	r3, #0
    2428:	d000      	beq.n	242c <_read_r+0x20>
    242a:	602b      	str	r3, [r5, #0]
    242c:	bd38      	pop	{r3, r4, r5, pc}
    242e:	46c0      	nop			; (mov r8, r8)
    2430:	10000278 	.word	0x10000278

00002434 <lflush>:
    2434:	b508      	push	{r3, lr}
    2436:	8982      	ldrh	r2, [r0, #12]
    2438:	2309      	movs	r3, #9
    243a:	401a      	ands	r2, r3
    243c:	2300      	movs	r3, #0
    243e:	2a09      	cmp	r2, #9
    2440:	d102      	bne.n	2448 <lflush+0x14>
    2442:	f7fe fc93 	bl	d6c <fflush>
    2446:	1c03      	adds	r3, r0, #0
    2448:	1c18      	adds	r0, r3, #0
    244a:	bd08      	pop	{r3, pc}

0000244c <__srefill_r>:
    244c:	b5f8      	push	{r3, r4, r5, r6, r7, lr}
    244e:	1c05      	adds	r5, r0, #0
    2450:	1c0c      	adds	r4, r1, #0
    2452:	2800      	cmp	r0, #0
    2454:	d004      	beq.n	2460 <__srefill_r+0x14>
    2456:	6981      	ldr	r1, [r0, #24]
    2458:	2900      	cmp	r1, #0
    245a:	d101      	bne.n	2460 <__srefill_r+0x14>
    245c:	f7fe fcee 	bl	e3c <__sinit>
    2460:	4b39      	ldr	r3, [pc, #228]	; (2548 <__srefill_r+0xfc>)
    2462:	429c      	cmp	r4, r3
    2464:	d101      	bne.n	246a <__srefill_r+0x1e>
    2466:	686c      	ldr	r4, [r5, #4]
    2468:	e008      	b.n	247c <__srefill_r+0x30>
    246a:	4b38      	ldr	r3, [pc, #224]	; (254c <__srefill_r+0x100>)
    246c:	429c      	cmp	r4, r3
    246e:	d101      	bne.n	2474 <__srefill_r+0x28>
    2470:	68ac      	ldr	r4, [r5, #8]
    2472:	e003      	b.n	247c <__srefill_r+0x30>
    2474:	4b36      	ldr	r3, [pc, #216]	; (2550 <__srefill_r+0x104>)
    2476:	429c      	cmp	r4, r3
    2478:	d100      	bne.n	247c <__srefill_r+0x30>
    247a:	68ec      	ldr	r4, [r5, #12]
    247c:	89a2      	ldrh	r2, [r4, #12]
    247e:	2300      	movs	r3, #0
    2480:	6063      	str	r3, [r4, #4]
    2482:	b293      	uxth	r3, r2
    2484:	0699      	lsls	r1, r3, #26
    2486:	d45c      	bmi.n	2542 <__srefill_r+0xf6>
    2488:	0759      	lsls	r1, r3, #29
    248a:	d417      	bmi.n	24bc <__srefill_r+0x70>
    248c:	06d9      	lsls	r1, r3, #27
    248e:	d402      	bmi.n	2496 <__srefill_r+0x4a>
    2490:	2309      	movs	r3, #9
    2492:	602b      	str	r3, [r5, #0]
    2494:	e052      	b.n	253c <__srefill_r+0xf0>
    2496:	2608      	movs	r6, #8
    2498:	4233      	tst	r3, r6
    249a:	d00a      	beq.n	24b2 <__srefill_r+0x66>
    249c:	1c28      	adds	r0, r5, #0
    249e:	1c21      	adds	r1, r4, #0
    24a0:	f7fe fc38 	bl	d14 <_fflush_r>
    24a4:	2800      	cmp	r0, #0
    24a6:	d14c      	bne.n	2542 <__srefill_r+0xf6>
    24a8:	89a3      	ldrh	r3, [r4, #12]
    24aa:	60a0      	str	r0, [r4, #8]
    24ac:	43b3      	bics	r3, r6
    24ae:	81a3      	strh	r3, [r4, #12]
    24b0:	61a0      	str	r0, [r4, #24]
    24b2:	89a3      	ldrh	r3, [r4, #12]
    24b4:	2204      	movs	r2, #4
    24b6:	4313      	orrs	r3, r2
    24b8:	81a3      	strh	r3, [r4, #12]
    24ba:	e012      	b.n	24e2 <__srefill_r+0x96>
    24bc:	6b61      	ldr	r1, [r4, #52]	; 0x34
    24be:	2900      	cmp	r1, #0
    24c0:	d00f      	beq.n	24e2 <__srefill_r+0x96>
    24c2:	1c23      	adds	r3, r4, #0
    24c4:	3344      	adds	r3, #68	; 0x44
    24c6:	4299      	cmp	r1, r3
    24c8:	d002      	beq.n	24d0 <__srefill_r+0x84>
    24ca:	1c28      	adds	r0, r5, #0
    24cc:	f7fe fe1c 	bl	1108 <_free_r>
    24d0:	6c23      	ldr	r3, [r4, #64]	; 0x40
    24d2:	2000      	movs	r0, #0
    24d4:	6360      	str	r0, [r4, #52]	; 0x34
    24d6:	6063      	str	r3, [r4, #4]
    24d8:	4283      	cmp	r3, r0
    24da:	d002      	beq.n	24e2 <__srefill_r+0x96>
    24dc:	6be3      	ldr	r3, [r4, #60]	; 0x3c
    24de:	6023      	str	r3, [r4, #0]
    24e0:	e031      	b.n	2546 <__srefill_r+0xfa>
    24e2:	6921      	ldr	r1, [r4, #16]
    24e4:	2900      	cmp	r1, #0
    24e6:	d103      	bne.n	24f0 <__srefill_r+0xa4>
    24e8:	1c28      	adds	r0, r5, #0
    24ea:	1c21      	adds	r1, r4, #0
    24ec:	f7ff ff0c 	bl	2308 <__smakebuf_r>
    24f0:	89a7      	ldrh	r7, [r4, #12]
    24f2:	b2be      	uxth	r6, r7
    24f4:	07b3      	lsls	r3, r6, #30
    24f6:	d00f      	beq.n	2518 <__srefill_r+0xcc>
    24f8:	2301      	movs	r3, #1
    24fa:	81a3      	strh	r3, [r4, #12]
    24fc:	4b15      	ldr	r3, [pc, #84]	; (2554 <__srefill_r+0x108>)
    24fe:	4916      	ldr	r1, [pc, #88]	; (2558 <__srefill_r+0x10c>)
    2500:	6818      	ldr	r0, [r3, #0]
    2502:	f7fe fd1d 	bl	f40 <_fwalk>
    2506:	2309      	movs	r3, #9
    2508:	81a7      	strh	r7, [r4, #12]
    250a:	401e      	ands	r6, r3
    250c:	429e      	cmp	r6, r3
    250e:	d103      	bne.n	2518 <__srefill_r+0xcc>
    2510:	1c28      	adds	r0, r5, #0
    2512:	1c21      	adds	r1, r4, #0
    2514:	f7fe fb74 	bl	c00 <__sflush_r>
    2518:	6922      	ldr	r2, [r4, #16]
    251a:	1c28      	adds	r0, r5, #0
    251c:	6963      	ldr	r3, [r4, #20]
    251e:	6022      	str	r2, [r4, #0]
    2520:	6a21      	ldr	r1, [r4, #32]
    2522:	6a65      	ldr	r5, [r4, #36]	; 0x24
    2524:	47a8      	blx	r5
    2526:	1c03      	adds	r3, r0, #0
    2528:	6060      	str	r0, [r4, #4]
    252a:	2000      	movs	r0, #0
    252c:	4283      	cmp	r3, r0
    252e:	dc0a      	bgt.n	2546 <__srefill_r+0xfa>
    2530:	89a2      	ldrh	r2, [r4, #12]
    2532:	4283      	cmp	r3, r0
    2534:	d101      	bne.n	253a <__srefill_r+0xee>
    2536:	2320      	movs	r3, #32
    2538:	e001      	b.n	253e <__srefill_r+0xf2>
    253a:	6060      	str	r0, [r4, #4]
    253c:	2340      	movs	r3, #64	; 0x40
    253e:	431a      	orrs	r2, r3
    2540:	81a2      	strh	r2, [r4, #12]
    2542:	2001      	movs	r0, #1
    2544:	4240      	negs	r0, r0
    2546:	bdf8      	pop	{r3, r4, r5, r6, r7, pc}
    2548:	00002a14 	.word	0x00002a14
    254c:	00002a34 	.word	0x00002a34
    2550:	00002a54 	.word	0x00002a54
    2554:	00002a78 	.word	0x00002a78
    2558:	00002435 	.word	0x00002435

0000255c <__sccl>:
    255c:	b5f0      	push	{r4, r5, r6, r7, lr}
    255e:	780b      	ldrb	r3, [r1, #0]
    2560:	2b5e      	cmp	r3, #94	; 0x5e
    2562:	d002      	beq.n	256a <__sccl+0xe>
    2564:	1c4c      	adds	r4, r1, #1
    2566:	2100      	movs	r1, #0
    2568:	e002      	b.n	2570 <__sccl+0x14>
    256a:	1c8c      	adds	r4, r1, #2
    256c:	784b      	ldrb	r3, [r1, #1]
    256e:	2101      	movs	r1, #1
    2570:	2200      	movs	r2, #0
    2572:	5481      	strb	r1, [r0, r2]
    2574:	2580      	movs	r5, #128	; 0x80
    2576:	3201      	adds	r2, #1
    2578:	006d      	lsls	r5, r5, #1
    257a:	42aa      	cmp	r2, r5
    257c:	d1f9      	bne.n	2572 <__sccl+0x16>
    257e:	2b00      	cmp	r3, #0
    2580:	d101      	bne.n	2586 <__sccl+0x2a>
    2582:	1e60      	subs	r0, r4, #1
    2584:	e01c      	b.n	25c0 <__sccl+0x64>
    2586:	2701      	movs	r7, #1
    2588:	1a7f      	subs	r7, r7, r1
    258a:	b2fe      	uxtb	r6, r7
    258c:	54c6      	strb	r6, [r0, r3]
    258e:	1c22      	adds	r2, r4, #0
    2590:	7811      	ldrb	r1, [r2, #0]
    2592:	1c54      	adds	r4, r2, #1
    2594:	292d      	cmp	r1, #45	; 0x2d
    2596:	d005      	beq.n	25a4 <__sccl+0x48>
    2598:	295d      	cmp	r1, #93	; 0x5d
    259a:	d00e      	beq.n	25ba <__sccl+0x5e>
    259c:	2900      	cmp	r1, #0
    259e:	d00e      	beq.n	25be <__sccl+0x62>
    25a0:	1c0b      	adds	r3, r1, #0
    25a2:	e7f2      	b.n	258a <__sccl+0x2e>
    25a4:	7855      	ldrb	r5, [r2, #1]
    25a6:	2d5d      	cmp	r5, #93	; 0x5d
    25a8:	d0fa      	beq.n	25a0 <__sccl+0x44>
    25aa:	429d      	cmp	r5, r3
    25ac:	dbf8      	blt.n	25a0 <__sccl+0x44>
    25ae:	3202      	adds	r2, #2
    25b0:	3301      	adds	r3, #1
    25b2:	54c6      	strb	r6, [r0, r3]
    25b4:	42ab      	cmp	r3, r5
    25b6:	dbfb      	blt.n	25b0 <__sccl+0x54>
    25b8:	e7ea      	b.n	2590 <__sccl+0x34>
    25ba:	1c20      	adds	r0, r4, #0
    25bc:	e000      	b.n	25c0 <__sccl+0x64>
    25be:	1c10      	adds	r0, r2, #0
    25c0:	bdf0      	pop	{r4, r5, r6, r7, pc}
	...

000025c4 <_strtol_r>:
    25c4:	b5f0      	push	{r4, r5, r6, r7, lr}
    25c6:	1c1d      	adds	r5, r3, #0
    25c8:	4b42      	ldr	r3, [pc, #264]	; (26d4 <_strtol_r+0x110>)
    25ca:	b087      	sub	sp, #28
    25cc:	681b      	ldr	r3, [r3, #0]
    25ce:	9005      	str	r0, [sp, #20]
    25d0:	9302      	str	r3, [sp, #8]
    25d2:	9103      	str	r1, [sp, #12]
    25d4:	9201      	str	r2, [sp, #4]
    25d6:	1c0b      	adds	r3, r1, #0
    25d8:	781c      	ldrb	r4, [r3, #0]
    25da:	9f02      	ldr	r7, [sp, #8]
    25dc:	1c5e      	adds	r6, r3, #1
    25de:	193a      	adds	r2, r7, r4
    25e0:	7851      	ldrb	r1, [r2, #1]
    25e2:	2208      	movs	r2, #8
    25e4:	400a      	ands	r2, r1
    25e6:	d001      	beq.n	25ec <_strtol_r+0x28>
    25e8:	1c33      	adds	r3, r6, #0
    25ea:	e7f5      	b.n	25d8 <_strtol_r+0x14>
    25ec:	2c2d      	cmp	r4, #45	; 0x2d
    25ee:	d104      	bne.n	25fa <_strtol_r+0x36>
    25f0:	2701      	movs	r7, #1
    25f2:	1c9e      	adds	r6, r3, #2
    25f4:	785c      	ldrb	r4, [r3, #1]
    25f6:	9700      	str	r7, [sp, #0]
    25f8:	e004      	b.n	2604 <_strtol_r+0x40>
    25fa:	9200      	str	r2, [sp, #0]
    25fc:	2c2b      	cmp	r4, #43	; 0x2b
    25fe:	d101      	bne.n	2604 <_strtol_r+0x40>
    2600:	785c      	ldrb	r4, [r3, #1]
    2602:	1c9e      	adds	r6, r3, #2
    2604:	2310      	movs	r3, #16
    2606:	1c2a      	adds	r2, r5, #0
    2608:	439a      	bics	r2, r3
    260a:	d111      	bne.n	2630 <_strtol_r+0x6c>
    260c:	2c30      	cmp	r4, #48	; 0x30
    260e:	d108      	bne.n	2622 <_strtol_r+0x5e>
    2610:	7832      	ldrb	r2, [r6, #0]
    2612:	2120      	movs	r1, #32
    2614:	438a      	bics	r2, r1
    2616:	2a58      	cmp	r2, #88	; 0x58
    2618:	d107      	bne.n	262a <_strtol_r+0x66>
    261a:	7874      	ldrb	r4, [r6, #1]
    261c:	1c1d      	adds	r5, r3, #0
    261e:	3602      	adds	r6, #2
    2620:	e006      	b.n	2630 <_strtol_r+0x6c>
    2622:	2d00      	cmp	r5, #0
    2624:	d104      	bne.n	2630 <_strtol_r+0x6c>
    2626:	250a      	movs	r5, #10
    2628:	e002      	b.n	2630 <_strtol_r+0x6c>
    262a:	2d00      	cmp	r5, #0
    262c:	d100      	bne.n	2630 <_strtol_r+0x6c>
    262e:	2508      	movs	r5, #8
    2630:	9f00      	ldr	r7, [sp, #0]
    2632:	1c29      	adds	r1, r5, #0
    2634:	427b      	negs	r3, r7
    2636:	417b      	adcs	r3, r7
    2638:	2780      	movs	r7, #128	; 0x80
    263a:	063f      	lsls	r7, r7, #24
    263c:	1aff      	subs	r7, r7, r3
    263e:	1c38      	adds	r0, r7, #0
    2640:	f7fe facc 	bl	bdc <__aeabi_uidivmod>
    2644:	1c38      	adds	r0, r7, #0
    2646:	9104      	str	r1, [sp, #16]
    2648:	1c29      	adds	r1, r5, #0
    264a:	f7fe fa83 	bl	b54 <__aeabi_uidiv>
    264e:	2300      	movs	r3, #0
    2650:	1c02      	adds	r2, r0, #0
    2652:	1c18      	adds	r0, r3, #0
    2654:	9f02      	ldr	r7, [sp, #8]
    2656:	1939      	adds	r1, r7, r4
    2658:	7849      	ldrb	r1, [r1, #1]
    265a:	074f      	lsls	r7, r1, #29
    265c:	d501      	bpl.n	2662 <_strtol_r+0x9e>
    265e:	3c30      	subs	r4, #48	; 0x30
    2660:	e007      	b.n	2672 <_strtol_r+0xae>
    2662:	2703      	movs	r7, #3
    2664:	400f      	ands	r7, r1
    2666:	d017      	beq.n	2698 <_strtol_r+0xd4>
    2668:	2157      	movs	r1, #87	; 0x57
    266a:	2f01      	cmp	r7, #1
    266c:	d100      	bne.n	2670 <_strtol_r+0xac>
    266e:	2137      	movs	r1, #55	; 0x37
    2670:	1a64      	subs	r4, r4, r1
    2672:	42ac      	cmp	r4, r5
    2674:	da10      	bge.n	2698 <_strtol_r+0xd4>
    2676:	1c59      	adds	r1, r3, #1
    2678:	d00b      	beq.n	2692 <_strtol_r+0xce>
    267a:	4290      	cmp	r0, r2
    267c:	d807      	bhi.n	268e <_strtol_r+0xca>
    267e:	d102      	bne.n	2686 <_strtol_r+0xc2>
    2680:	9f04      	ldr	r7, [sp, #16]
    2682:	42bc      	cmp	r4, r7
    2684:	dc03      	bgt.n	268e <_strtol_r+0xca>
    2686:	4368      	muls	r0, r5
    2688:	2301      	movs	r3, #1
    268a:	1820      	adds	r0, r4, r0
    268c:	e001      	b.n	2692 <_strtol_r+0xce>
    268e:	2301      	movs	r3, #1
    2690:	425b      	negs	r3, r3
    2692:	7834      	ldrb	r4, [r6, #0]
    2694:	3601      	adds	r6, #1
    2696:	e7dd      	b.n	2654 <_strtol_r+0x90>
    2698:	9f00      	ldr	r7, [sp, #0]
    269a:	1c59      	adds	r1, r3, #1
    269c:	d10b      	bne.n	26b6 <_strtol_r+0xf2>
    269e:	2080      	movs	r0, #128	; 0x80
    26a0:	427b      	negs	r3, r7
    26a2:	417b      	adcs	r3, r7
    26a4:	0600      	lsls	r0, r0, #24
    26a6:	9f05      	ldr	r7, [sp, #20]
    26a8:	1ac0      	subs	r0, r0, r3
    26aa:	2322      	movs	r3, #34	; 0x22
    26ac:	603b      	str	r3, [r7, #0]
    26ae:	9f01      	ldr	r7, [sp, #4]
    26b0:	2f00      	cmp	r7, #0
    26b2:	d109      	bne.n	26c8 <_strtol_r+0x104>
    26b4:	e00b      	b.n	26ce <_strtol_r+0x10a>
    26b6:	2f00      	cmp	r7, #0
    26b8:	d000      	beq.n	26bc <_strtol_r+0xf8>
    26ba:	4240      	negs	r0, r0
    26bc:	9f01      	ldr	r7, [sp, #4]
    26be:	2f00      	cmp	r7, #0
    26c0:	d005      	beq.n	26ce <_strtol_r+0x10a>
    26c2:	9a03      	ldr	r2, [sp, #12]
    26c4:	2b00      	cmp	r3, #0
    26c6:	d000      	beq.n	26ca <_strtol_r+0x106>
    26c8:	1e72      	subs	r2, r6, #1
    26ca:	9f01      	ldr	r7, [sp, #4]
    26cc:	603a      	str	r2, [r7, #0]
    26ce:	b007      	add	sp, #28
    26d0:	bdf0      	pop	{r4, r5, r6, r7, pc}
    26d2:	46c0      	nop			; (mov r8, r8)
    26d4:	10000130 	.word	0x10000130

000026d8 <_strtoul_r>:
    26d8:	b5f0      	push	{r4, r5, r6, r7, lr}
    26da:	1c1d      	adds	r5, r3, #0
    26dc:	4b3b      	ldr	r3, [pc, #236]	; (27cc <_strtoul_r+0xf4>)
    26de:	b087      	sub	sp, #28
    26e0:	681b      	ldr	r3, [r3, #0]
    26e2:	9005      	str	r0, [sp, #20]
    26e4:	9302      	str	r3, [sp, #8]
    26e6:	9104      	str	r1, [sp, #16]
    26e8:	1c17      	adds	r7, r2, #0
    26ea:	1c0b      	adds	r3, r1, #0
    26ec:	9902      	ldr	r1, [sp, #8]
    26ee:	781c      	ldrb	r4, [r3, #0]
    26f0:	1c5e      	adds	r6, r3, #1
    26f2:	190a      	adds	r2, r1, r4
    26f4:	7851      	ldrb	r1, [r2, #1]
    26f6:	2208      	movs	r2, #8
    26f8:	400a      	ands	r2, r1
    26fa:	d001      	beq.n	2700 <_strtoul_r+0x28>
    26fc:	1c33      	adds	r3, r6, #0
    26fe:	e7f5      	b.n	26ec <_strtoul_r+0x14>
    2700:	2c2d      	cmp	r4, #45	; 0x2d
    2702:	d104      	bne.n	270e <_strtoul_r+0x36>
    2704:	2201      	movs	r2, #1
    2706:	1c9e      	adds	r6, r3, #2
    2708:	785c      	ldrb	r4, [r3, #1]
    270a:	9201      	str	r2, [sp, #4]
    270c:	e004      	b.n	2718 <_strtoul_r+0x40>
    270e:	9201      	str	r2, [sp, #4]
    2710:	2c2b      	cmp	r4, #43	; 0x2b
    2712:	d101      	bne.n	2718 <_strtoul_r+0x40>
    2714:	785c      	ldrb	r4, [r3, #1]
    2716:	1c9e      	adds	r6, r3, #2
    2718:	2310      	movs	r3, #16
    271a:	1c2a      	adds	r2, r5, #0
    271c:	439a      	bics	r2, r3
    271e:	d111      	bne.n	2744 <_strtoul_r+0x6c>
    2720:	2c30      	cmp	r4, #48	; 0x30
    2722:	d108      	bne.n	2736 <_strtoul_r+0x5e>
    2724:	7832      	ldrb	r2, [r6, #0]
    2726:	2120      	movs	r1, #32
    2728:	438a      	bics	r2, r1
    272a:	2a58      	cmp	r2, #88	; 0x58
    272c:	d107      	bne.n	273e <_strtoul_r+0x66>
    272e:	7874      	ldrb	r4, [r6, #1]
    2730:	1c1d      	adds	r5, r3, #0
    2732:	3602      	adds	r6, #2
    2734:	e006      	b.n	2744 <_strtoul_r+0x6c>
    2736:	2d00      	cmp	r5, #0
    2738:	d104      	bne.n	2744 <_strtoul_r+0x6c>
    273a:	250a      	movs	r5, #10
    273c:	e002      	b.n	2744 <_strtoul_r+0x6c>
    273e:	2d00      	cmp	r5, #0
    2740:	d100      	bne.n	2744 <_strtoul_r+0x6c>
    2742:	2508      	movs	r5, #8
    2744:	2001      	movs	r0, #1
    2746:	1c29      	adds	r1, r5, #0
    2748:	4240      	negs	r0, r0
    274a:	f7fe fa03 	bl	b54 <__aeabi_uidiv>
    274e:	9003      	str	r0, [sp, #12]
    2750:	2001      	movs	r0, #1
    2752:	4240      	negs	r0, r0
    2754:	1c29      	adds	r1, r5, #0
    2756:	f7fe fa41 	bl	bdc <__aeabi_uidivmod>
    275a:	2300      	movs	r3, #0
    275c:	468c      	mov	r12, r1
    275e:	1c18      	adds	r0, r3, #0
    2760:	9902      	ldr	r1, [sp, #8]
    2762:	190a      	adds	r2, r1, r4
    2764:	7852      	ldrb	r2, [r2, #1]
    2766:	0751      	lsls	r1, r2, #29
    2768:	d501      	bpl.n	276e <_strtoul_r+0x96>
    276a:	3c30      	subs	r4, #48	; 0x30
    276c:	e007      	b.n	277e <_strtoul_r+0xa6>
    276e:	2103      	movs	r1, #3
    2770:	4011      	ands	r1, r2
    2772:	d017      	beq.n	27a4 <_strtoul_r+0xcc>
    2774:	2257      	movs	r2, #87	; 0x57
    2776:	2901      	cmp	r1, #1
    2778:	d100      	bne.n	277c <_strtoul_r+0xa4>
    277a:	2237      	movs	r2, #55	; 0x37
    277c:	1aa4      	subs	r4, r4, r2
    277e:	42ac      	cmp	r4, r5
    2780:	da10      	bge.n	27a4 <_strtoul_r+0xcc>
    2782:	2b00      	cmp	r3, #0
    2784:	db09      	blt.n	279a <_strtoul_r+0xc2>
    2786:	9a03      	ldr	r2, [sp, #12]
    2788:	4290      	cmp	r0, r2
    278a:	d806      	bhi.n	279a <_strtoul_r+0xc2>
    278c:	d101      	bne.n	2792 <_strtoul_r+0xba>
    278e:	4564      	cmp	r4, r12
    2790:	dc03      	bgt.n	279a <_strtoul_r+0xc2>
    2792:	4368      	muls	r0, r5
    2794:	2301      	movs	r3, #1
    2796:	1820      	adds	r0, r4, r0
    2798:	e001      	b.n	279e <_strtoul_r+0xc6>
    279a:	2301      	movs	r3, #1
    279c:	425b      	negs	r3, r3
    279e:	7834      	ldrb	r4, [r6, #0]
    27a0:	3601      	adds	r6, #1
    27a2:	e7dd      	b.n	2760 <_strtoul_r+0x88>
    27a4:	2b00      	cmp	r3, #0
    27a6:	da04      	bge.n	27b2 <_strtoul_r+0xda>
    27a8:	9905      	ldr	r1, [sp, #20]
    27aa:	2222      	movs	r2, #34	; 0x22
    27ac:	600a      	str	r2, [r1, #0]
    27ae:	2001      	movs	r0, #1
    27b0:	e002      	b.n	27b8 <_strtoul_r+0xe0>
    27b2:	9a01      	ldr	r2, [sp, #4]
    27b4:	2a00      	cmp	r2, #0
    27b6:	d000      	beq.n	27ba <_strtoul_r+0xe2>
    27b8:	4240      	negs	r0, r0
    27ba:	2f00      	cmp	r7, #0
    27bc:	d004      	beq.n	27c8 <_strtoul_r+0xf0>
    27be:	9a04      	ldr	r2, [sp, #16]
    27c0:	2b00      	cmp	r3, #0
    27c2:	d000      	beq.n	27c6 <_strtoul_r+0xee>
    27c4:	1e72      	subs	r2, r6, #1
    27c6:	603a      	str	r2, [r7, #0]
    27c8:	b007      	add	sp, #28
    27ca:	bdf0      	pop	{r4, r5, r6, r7, pc}
    27cc:	10000130 	.word	0x10000130

000027d0 <_fstat_r>:
    27d0:	b538      	push	{r3, r4, r5, lr}
    27d2:	4c07      	ldr	r4, [pc, #28]	; (27f0 <_fstat_r+0x20>)
    27d4:	2300      	movs	r3, #0
    27d6:	1c05      	adds	r5, r0, #0
    27d8:	1c08      	adds	r0, r1, #0
    27da:	1c11      	adds	r1, r2, #0
    27dc:	6023      	str	r3, [r4, #0]
    27de:	f7fd fe7f 	bl	4e0 <_fstat>
    27e2:	1c43      	adds	r3, r0, #1
    27e4:	d103      	bne.n	27ee <_fstat_r+0x1e>
    27e6:	6823      	ldr	r3, [r4, #0]
    27e8:	2b00      	cmp	r3, #0
    27ea:	d000      	beq.n	27ee <_fstat_r+0x1e>
    27ec:	602b      	str	r3, [r5, #0]
    27ee:	bd38      	pop	{r3, r4, r5, pc}
    27f0:	10000278 	.word	0x10000278

000027f4 <_isatty_r>:
    27f4:	b538      	push	{r3, r4, r5, lr}
    27f6:	4c07      	ldr	r4, [pc, #28]	; (2814 <_isatty_r+0x20>)
    27f8:	2300      	movs	r3, #0
    27fa:	1c05      	adds	r5, r0, #0
    27fc:	1c08      	adds	r0, r1, #0
    27fe:	6023      	str	r3, [r4, #0]
    2800:	f7fd fd9c 	bl	33c <__wrap__isatty>
    2804:	1c43      	adds	r3, r0, #1
    2806:	d103      	bne.n	2810 <_isatty_r+0x1c>
    2808:	6823      	ldr	r3, [r4, #0]
    280a:	2b00      	cmp	r3, #0
    280c:	d000      	beq.n	2810 <_isatty_r+0x1c>
    280e:	602b      	str	r3, [r5, #0]
    2810:	bd38      	pop	{r3, r4, r5, pc}
    2812:	46c0      	nop			; (mov r8, r8)
    2814:	10000278 	.word	0x10000278

00002818 <_malloc_usable_size_r>:
    2818:	3904      	subs	r1, #4
    281a:	680b      	ldr	r3, [r1, #0]
    281c:	1f18      	subs	r0, r3, #4
    281e:	2b00      	cmp	r3, #0
    2820:	da02      	bge.n	2828 <_malloc_usable_size_r+0x10>
    2822:	58c8      	ldr	r0, [r1, r3]
    2824:	181b      	adds	r3, r3, r0
    2826:	1f18      	subs	r0, r3, #4
    2828:	4770      	bx	lr
	...

0000282c <_init>:
    282c:	b5f8      	push	{r3, r4, r5, r6, r7, lr}
    282e:	46c0      	nop			; (mov r8, r8)
    2830:	bcf8      	pop	{r3, r4, r5, r6, r7}
    2832:	bc08      	pop	{r3}
    2834:	469e      	mov	lr, r3
    2836:	4770      	bx	lr

00002838 <_fini>:
    2838:	b5f8      	push	{r3, r4, r5, r6, r7, lr}
    283a:	46c0      	nop			; (mov r8, r8)
    283c:	bcf8      	pop	{r3, r4, r5, r6, r7}
    283e:	bc08      	pop	{r3}
    2840:	469e      	mov	lr, r3
    2842:	4770      	bx	lr
    2844:	0a0d0a0d 	.word	0x0a0d0a0d
    2848:	34434347 	.word	0x34434347
    284c:	4445424d 	.word	0x4445424d
    2850:	73655420 	.word	0x73655420
    2854:	75532074 	.word	0x75532074
    2858:	0d657469 	.word	0x0d657469
    285c:	00000000 	.word	0x00000000
    2860:	6e617453 	.word	0x6e617453
    2864:	64726164 	.word	0x64726164
    2868:	4f2f4920 	.word	0x4f2f4920
    286c:	696e5520 	.word	0x696e5520
    2870:	65542074 	.word	0x65542074
    2874:	0d737473 	.word	0x0d737473
    2878:	00000000 	.word	0x00000000
    287c:	74736554 	.word	0x74736554
    2880:	203a3120 	.word	0x203a3120
    2884:	6e697270 	.word	0x6e697270
    2888:	29286674 	.word	0x29286674
    288c:	73657420 	.word	0x73657420
    2890:	00000d74 	.word	0x00000d74
    2894:	74736554 	.word	0x74736554
    2898:	203a3220 	.word	0x203a3220
    289c:	6e616373 	.word	0x6e616373
    28a0:	20292866 	.word	0x20292866
    28a4:	74736574 	.word	0x74736574
    28a8:	0000000d 	.word	0x0000000d
    28ac:	20202020 	.word	0x20202020
    28b0:	65707954 	.word	0x65707954
    28b4:	6d756e20 	.word	0x6d756e20
    28b8:	20726562 	.word	0x20726562
    28bc:	20646e61 	.word	0x20646e61
    28c0:	73657270 	.word	0x73657270
    28c4:	6e452073 	.word	0x6e452073
    28c8:	3a726574 	.word	0x3a726574
    28cc:	00000020 	.word	0x00000020
    28d0:	00006425 	.word	0x00006425
    28d4:	2020200a 	.word	0x2020200a
    28d8:	756f5920 	.word	0x756f5920
    28dc:	61762072 	.word	0x61762072
    28e0:	2065756c 	.word	0x2065756c
    28e4:	3a736177 	.word	0x3a736177
    28e8:	0d642520 	.word	0x0d642520
    28ec:	0000000a 	.word	0x0000000a
    28f0:	74736554 	.word	0x74736554
    28f4:	203a3320 	.word	0x203a3320
    28f8:	69727066 	.word	0x69727066
    28fc:	2866746e 	.word	0x2866746e
    2900:	6f647473 	.word	0x6f647473
    2904:	202c7475 	.word	0x202c7475
    2908:	292e2e2e 	.word	0x292e2e2e
    290c:	73657420 	.word	0x73657420
    2910:	000a0d74 	.word	0x000a0d74
    2914:	74736554 	.word	0x74736554
    2918:	203a3420 	.word	0x203a3420
    291c:	69727066 	.word	0x69727066
    2920:	2866746e 	.word	0x2866746e
    2924:	65647473 	.word	0x65647473
    2928:	202c7272 	.word	0x202c7272
    292c:	292e2e2e 	.word	0x292e2e2e
    2930:	73657420 	.word	0x73657420
    2934:	000a0d74 	.word	0x000a0d74
    2938:	74736554 	.word	0x74736554
    293c:	203a3520 	.word	0x203a3520
    2940:	61637366 	.word	0x61637366
    2944:	7328666e 	.word	0x7328666e
    2948:	6e696474 	.word	0x6e696474
    294c:	2e2e202c 	.word	0x2e2e202c
    2950:	7420292e 	.word	0x7420292e
    2954:	0d747365 	.word	0x0d747365
    2958:	00000000 	.word	0x00000000
    295c:	74736554 	.word	0x74736554
    2960:	6d6f6320 	.word	0x6d6f6320
    2964:	74656c70 	.word	0x74656c70
    2968:	00000d65 	.word	0x00000d65

0000296c <PinMap_UART_RX>:
    296c:	00000012 40008000 00000001 0000002e     .......@........
    297c:	40008000 00000003 0000003a 40008000     ...@....:......@
    298c:	00000002 000000ff ffffffff 00000000     ................

0000299c <PinMap_UART_TX>:
    299c:	00000013 40008000 00000001 0000002d     .......@....-...
    29ac:	40008000 00000003 0000003b 40008000     ...@....;......@
    29bc:	00000002 000000ff ffffffff 00000000     ................
    29cc:	6c756f63 6f6e2064 69702074 74756f6e     could not pinout
    29dc:	00000000 6d6e6970 6d207061 6d2d7369     ....pinmap mis-m
    29ec:	68637461 00000000 6d6e6970 6e207061     atch....pinmap n
    29fc:	6620746f 646e756f 726f6620 72657020     ot found for per
    2a0c:	65687069 006c6172                       ipheral.

00002a14 <__sf_fake_stdin>:
	...

00002a34 <__sf_fake_stdout>:
	...

00002a54 <__sf_fake_stderr>:
	...
    2a74:	00000043                                C...

00002a78 <_global_impure_ptr>:
    2a78:	100000cc 2b302d23 6c680020 6665004c     ....#-0+ .hlL.ef
    2a88:	47464567 32313000 36353433 41393837     gEFG.0123456789A
    2a98:	45444342 31300046 35343332 39383736     BCDEF.0123456789
    2aa8:	64636261 00006665 00002ace 00002ad1     abcdef...*...*..
    2ab8:	00002ad4 61462d41 3938662d 33323130     .*..A-Fa-f890123
    2ac8:	37363534 2d2b005d 00303000 00005878              4567].+-.00.xX.

00002ad7 <_ctype_>:
    2ad7:	20202000 20202020 28282020 20282828     .         ((((( 
    2ae7:	20202020 20202020 20202020 20202020                     
    2af7:	10108820 10101010 10101010 10101010      ...............
    2b07:	04040410 04040404 10040404 10101010     ................
    2b17:	41411010 41414141 01010101 01010101     ..AAAAAA........
    2b27:	01010101 01010101 01010101 10101010     ................
    2b37:	42421010 42424242 02020202 02020202     ..BBBBBB........
    2b47:	02020202 02020202 02020202 10101010     ................
    2b57:	00000020 00000000 00000000 00000000      ...............
	...

00002bd8 <__EH_FRAME_BEGIN__>:
    2bd8:	00000000                                ....
