
LPC1768/USBHostSerial.elf:     file format elf32-littlearm
architecture: arm, flags 0x00000112:
EXEC_P, HAS_SYMS, D_PAGED
start address 0x000046f5


Disassembly of section .text:

00000000 <__isr_vector>:
       0:	10008000 	.word	0x10008000
       4:	000046f5 	.word	0x000046f5
       8:	00004725 	.word	0x00004725
       c:	00004727 	.word	0x00004727
      10:	00004729 	.word	0x00004729
      14:	0000472b 	.word	0x0000472b
      18:	0000472d 	.word	0x0000472d
	...
      2c:	00003ed1 	.word	0x00003ed1
      30:	00004731 	.word	0x00004731
      34:	00000000 	.word	0x00000000
      38:	00003f3f 	.word	0x00003f3f
      3c:	00003f77 	.word	0x00003f77
      40:	00004737 	.word	0x00004737
      44:	00004737 	.word	0x00004737
      48:	00004737 	.word	0x00004737
      4c:	00004737 	.word	0x00004737
      50:	00004737 	.word	0x00004737
      54:	00004737 	.word	0x00004737
      58:	00004737 	.word	0x00004737
      5c:	00004737 	.word	0x00004737
      60:	00004737 	.word	0x00004737
      64:	00004737 	.word	0x00004737
      68:	00004737 	.word	0x00004737
      6c:	00004737 	.word	0x00004737
      70:	00004737 	.word	0x00004737
      74:	00004737 	.word	0x00004737
      78:	00004737 	.word	0x00004737
      7c:	00004737 	.word	0x00004737
      80:	00004737 	.word	0x00004737
      84:	00004737 	.word	0x00004737
      88:	00004737 	.word	0x00004737
      8c:	00004737 	.word	0x00004737
      90:	00004737 	.word	0x00004737
      94:	00004737 	.word	0x00004737
      98:	00004737 	.word	0x00004737
      9c:	00004737 	.word	0x00004737
      a0:	00004737 	.word	0x00004737
      a4:	00004737 	.word	0x00004737
      a8:	00004737 	.word	0x00004737
      ac:	00004737 	.word	0x00004737
      b0:	00004737 	.word	0x00004737
      b4:	00004737 	.word	0x00004737
      b8:	00004737 	.word	0x00004737
      bc:	00004737 	.word	0x00004737
      c0:	00004737 	.word	0x00004737
      c4:	00004737 	.word	0x00004737
      c8:	00004737 	.word	0x00004737

000000cc <__do_global_dtors_aux>:
      cc:	b510      	push	{r4, lr}
      ce:	4c05      	ldr	r4, [pc, #20]	; (e4 <__do_global_dtors_aux+0x18>)
      d0:	7823      	ldrb	r3, [r4, #0]
      d2:	b933      	cbnz	r3, e2 <__do_global_dtors_aux+0x16>
      d4:	4b04      	ldr	r3, [pc, #16]	; (e8 <__do_global_dtors_aux+0x1c>)
      d6:	b113      	cbz	r3, de <__do_global_dtors_aux+0x12>
      d8:	4804      	ldr	r0, [pc, #16]	; (ec <__do_global_dtors_aux+0x20>)
      da:	f3af 8000 	nop.w
      de:	2301      	movs	r3, #1
      e0:	7023      	strb	r3, [r4, #0]
      e2:	bd10      	pop	{r4, pc}
      e4:	100001cc 	.word	0x100001cc
      e8:	00000000 	.word	0x00000000
      ec:	00008ff8 	.word	0x00008ff8

000000f0 <frame_dummy>:
      f0:	b508      	push	{r3, lr}
      f2:	4b06      	ldr	r3, [pc, #24]	; (10c <frame_dummy+0x1c>)
      f4:	b11b      	cbz	r3, fe <frame_dummy+0xe>
      f6:	4806      	ldr	r0, [pc, #24]	; (110 <frame_dummy+0x20>)
      f8:	4906      	ldr	r1, [pc, #24]	; (114 <frame_dummy+0x24>)
      fa:	f3af 8000 	nop.w
      fe:	4806      	ldr	r0, [pc, #24]	; (118 <frame_dummy+0x28>)
     100:	6803      	ldr	r3, [r0, #0]
     102:	b113      	cbz	r3, 10a <frame_dummy+0x1a>
     104:	4b05      	ldr	r3, [pc, #20]	; (11c <frame_dummy+0x2c>)
     106:	b103      	cbz	r3, 10a <frame_dummy+0x1a>
     108:	4798      	blx	r3
     10a:	bd08      	pop	{r3, pc}
     10c:	00000000 	.word	0x00000000
     110:	00008ff8 	.word	0x00008ff8
     114:	100001d0 	.word	0x100001d0
     118:	100001cc 	.word	0x100001cc
     11c:	00000000 	.word	0x00000000

00000120 <serial_task(void const*)>:
     120:	b500      	push	{lr}
     122:	b0db      	sub	sp, #364	; 0x16c
     124:	a801      	add	r0, sp, #4
     126:	f000 fa8d 	bl	644 <USBHostSerial::USBHostSerial()>
     12a:	a801      	add	r0, sp, #4
     12c:	f000 fb52 	bl	7d4 <USBHostSerial::connect()>
     130:	b190      	cbz	r0, 158 <serial_task(void const*)+0x38>
     132:	a801      	add	r0, sp, #4
     134:	f000 fa4c 	bl	5d0 <USBHostSerial::connected()>
     138:	b928      	cbnz	r0, 146 <serial_task(void const*)+0x26>
     13a:	e7f6      	b.n	12a <serial_task(void const*)+0xa>
     13c:	a802      	add	r0, sp, #8
     13e:	f004 f949 	bl	43d4 <mbed::Stream::getc()>
     142:	f005 ff53 	bl	5fec <putchar>
     146:	a802      	add	r0, sp, #8
     148:	f000 fba2 	bl	890 <USBHostSerialPort::available()>
     14c:	2800      	cmp	r0, #0
     14e:	d1f5      	bne.n	13c <serial_task(void const*)+0x1c>
     150:	2032      	movs	r0, #50	; 0x32
     152:	f003 fe8d 	bl	3e70 <rtos::Thread::wait(unsigned long)>
     156:	e7ec      	b.n	132 <serial_task(void const*)+0x12>
     158:	f44f 70fa 	mov.w	r0, #500	; 0x1f4
     15c:	f003 fe88 	bl	3e70 <rtos::Thread::wait(unsigned long)>
     160:	e7e3      	b.n	12a <serial_task(void const*)+0xa>
     162:	bf00      	nop

00000164 <main>:
     164:	b530      	push	{r4, r5, lr}
     166:	2300      	movs	r3, #0
     168:	b097      	sub	sp, #92	; 0x5c
     16a:	f44f 61c0 	mov.w	r1, #1536	; 0x600
     16e:	4c0c      	ldr	r4, [pc, #48]	; (1a0 <main+0x3c>)
     170:	e88d 000a 	stmia.w	sp, {r1, r3}
     174:	461a      	mov	r2, r3
     176:	a803      	add	r0, sp, #12
     178:	490a      	ldr	r1, [pc, #40]	; (1a4 <main+0x40>)
     17a:	f003 fe4d 	bl	3e18 <rtos::Thread::Thread(void (*)(void const*), void*, osPriority, unsigned long, unsigned char*)>
     17e:	4625      	mov	r5, r4
     180:	e005      	b.n	18e <main+0x2a>
     182:	692a      	ldr	r2, [r5, #16]
     184:	6013      	str	r3, [r2, #0]
     186:	f44f 70fa 	mov.w	r0, #500	; 0x1f4
     18a:	f003 fe71 	bl	3e70 <rtos::Thread::wait(unsigned long)>
     18e:	6962      	ldr	r2, [r4, #20]
     190:	6863      	ldr	r3, [r4, #4]
     192:	6812      	ldr	r2, [r2, #0]
     194:	421a      	tst	r2, r3
     196:	d1f4      	bne.n	182 <main+0x1e>
     198:	68ea      	ldr	r2, [r5, #12]
     19a:	6013      	str	r3, [r2, #0]
     19c:	e7f3      	b.n	186 <main+0x22>
     19e:	bf00      	nop
     1a0:	100001e8 	.word	0x100001e8
     1a4:	00000121 	.word	0x00000121

000001a8 <_GLOBAL__sub_I_led>:
     1a8:	4b05      	ldr	r3, [pc, #20]	; (1c0 <_GLOBAL__sub_I_led+0x18>)
     1aa:	2200      	movs	r2, #0
     1ac:	4618      	mov	r0, r3
     1ae:	4905      	ldr	r1, [pc, #20]	; (1c4 <_GLOBAL__sub_I_led+0x1c>)
     1b0:	601a      	str	r2, [r3, #0]
     1b2:	605a      	str	r2, [r3, #4]
     1b4:	609a      	str	r2, [r3, #8]
     1b6:	60da      	str	r2, [r3, #12]
     1b8:	611a      	str	r2, [r3, #16]
     1ba:	615a      	str	r2, [r3, #20]
     1bc:	f004 b81c 	b.w	41f8 <gpio_init_out>
     1c0:	100001e8 	.word	0x100001e8
     1c4:	2009c032 	.word	0x2009c032

000001c8 <_start>:
     1c8:	4807      	ldr	r0, [pc, #28]	; (1e8 <_start+0x20>)
     1ca:	4a08      	ldr	r2, [pc, #32]	; (1ec <_start+0x24>)
     1cc:	b508      	push	{r3, lr}
     1ce:	1a12      	subs	r2, r2, r0
     1d0:	2100      	movs	r1, #0
     1d2:	f005 fdd6 	bl	5d82 <memset>
     1d6:	f003 ff2b 	bl	4030 <software_init_hook>
     1da:	f005 fd39 	bl	5c50 <__libc_init_array>
     1de:	f7ff ffc1 	bl	164 <main>
     1e2:	f003 ffdf 	bl	41a4 <exit>
     1e6:	bf00      	nop
     1e8:	100001cc 	.word	0x100001cc
     1ec:	10001014 	.word	0x10001014

000001f0 <__wrap__isatty>:
     1f0:	2802      	cmp	r0, #2
     1f2:	dc01      	bgt.n	1f8 <__wrap__isatty+0x8>
     1f4:	2001      	movs	r0, #1
     1f6:	4770      	bx	lr
     1f8:	f004 ba30 	b.w	465c <_isatty>

000001fc <__wrap_malloc>:
     1fc:	f3ef 8305 	mrs	r3, IPSR
     200:	b103      	cbz	r3, 204 <__wrap_malloc+0x8>
     202:	be00      	bkpt	0x0000
     204:	f005 bd96 	b.w	5d34 <malloc>

00000208 <__wrap_free>:
     208:	f3ef 8305 	mrs	r3, IPSR
     20c:	b103      	cbz	r3, 210 <__wrap_free+0x8>
     20e:	be00      	bkpt	0x0000
     210:	f005 bd98 	b.w	5d44 <free>

00000214 <abort>:
     214:	b508      	push	{r3, lr}
     216:	2001      	movs	r0, #1
     218:	f003 ffc4 	bl	41a4 <exit>

0000021c <__cxa_pure_virtual>:
     21c:	b508      	push	{r3, lr}
     21e:	f7ff fff9 	bl	214 <abort>
     222:	bf00      	nop

00000224 <USBHostSerial::setVidPid(unsigned short, unsigned short)>:
     224:	4770      	bx	lr
     226:	bf00      	nop

00000228 <USBHostSerial::useEndpoint(unsigned char, ENDPOINT_TYPE, ENDPOINT_DIRECTION)>:
     228:	f8d0 315c 	ldr.w	r3, [r0, #348]	; 0x15c
     22c:	b12b      	cbz	r3, 23a <USBHostSerial::useEndpoint(unsigned char, ENDPOINT_TYPE, ENDPOINT_DIRECTION)+0x12>
     22e:	f890 3158 	ldrb.w	r3, [r0, #344]	; 0x158
     232:	428b      	cmp	r3, r1
     234:	d003      	beq.n	23e <USBHostSerial::useEndpoint(unsigned char, ENDPOINT_TYPE, ENDPOINT_DIRECTION)+0x16>
     236:	2000      	movs	r0, #0
     238:	4770      	bx	lr
     23a:	4618      	mov	r0, r3
     23c:	4770      	bx	lr
     23e:	1e93      	subs	r3, r2, #2
     240:	4258      	negs	r0, r3
     242:	4158      	adcs	r0, r3
     244:	4770      	bx	lr
     246:	bf00      	nop

00000248 <USBHostSerialPort::init()>:
     248:	2300      	movs	r3, #0
     24a:	b410      	push	{r4}
     24c:	2108      	movs	r1, #8
     24e:	f44f 5416 	mov.w	r4, #9600	; 0x2580
     252:	2201      	movs	r2, #1
     254:	f8c0 4108 	str.w	r4, [r0, #264]	; 0x108
     258:	8603      	strh	r3, [r0, #48]	; 0x30
     25a:	f880 110e 	strb.w	r1, [r0, #270]	; 0x10e
     25e:	f880 210c 	strb.w	r2, [r0, #268]	; 0x10c
     262:	6183      	str	r3, [r0, #24]
     264:	61c3      	str	r3, [r0, #28]
     266:	f880 3148 	strb.w	r3, [r0, #328]	; 0x148
     26a:	6283      	str	r3, [r0, #40]	; 0x28
     26c:	62c3      	str	r3, [r0, #44]	; 0x2c
     26e:	6203      	str	r3, [r0, #32]
     270:	6243      	str	r3, [r0, #36]	; 0x24
     272:	f880 310d 	strb.w	r3, [r0, #269]	; 0x10d
     276:	8643      	strh	r3, [r0, #50]	; 0x32
     278:	f85d 4b04 	ldr.w	r4, [sp], #4
     27c:	4770      	bx	lr
     27e:	bf00      	nop

00000280 <USBHostSerialPort::~USBHostSerialPort()>:
     280:	b510      	push	{r4, lr}
     282:	4b07      	ldr	r3, [pc, #28]	; (2a0 <USBHostSerialPort::~USBHostSerialPort()+0x20>)
     284:	4604      	mov	r4, r0
     286:	f103 0208 	add.w	r2, r3, #8
     28a:	3344      	adds	r3, #68	; 0x44
     28c:	e880 000c 	stmia.w	r0, {r2, r3}
     290:	30b4      	adds	r0, #180	; 0xb4
     292:	f003 fd9d 	bl	3dd0 <rtos::Mutex::~Mutex()>
     296:	4620      	mov	r0, r4
     298:	f004 f854 	bl	4344 <mbed::Stream::~Stream()>
     29c:	4620      	mov	r0, r4
     29e:	bd10      	pop	{r4, pc}
     2a0:	00007e08 	.word	0x00007e08

000002a4 <non-virtual thunk to USBHostSerialPort::~USBHostSerialPort()>:
     2a4:	f1a0 0004 	sub.w	r0, r0, #4
     2a8:	f7ff bfea 	b.w	280 <USBHostSerialPort::~USBHostSerialPort()>

000002ac <USBHostSerialPort::~USBHostSerialPort()>:
     2ac:	4b09      	ldr	r3, [pc, #36]	; (2d4 <USBHostSerialPort::~USBHostSerialPort()+0x28>)
     2ae:	b510      	push	{r4, lr}
     2b0:	f103 0208 	add.w	r2, r3, #8
     2b4:	3344      	adds	r3, #68	; 0x44
     2b6:	4604      	mov	r4, r0
     2b8:	e880 000c 	stmia.w	r0, {r2, r3}
     2bc:	30b4      	adds	r0, #180	; 0xb4
     2be:	f003 fd87 	bl	3dd0 <rtos::Mutex::~Mutex()>
     2c2:	4620      	mov	r0, r4
     2c4:	f004 f83e 	bl	4344 <mbed::Stream::~Stream()>
     2c8:	4620      	mov	r0, r4
     2ca:	f005 f8d5 	bl	5478 <operator delete(void*)>
     2ce:	4620      	mov	r0, r4
     2d0:	bd10      	pop	{r4, pc}
     2d2:	bf00      	nop
     2d4:	00007e08 	.word	0x00007e08

000002d8 <non-virtual thunk to USBHostSerialPort::~USBHostSerialPort()>:
     2d8:	f1a0 0004 	sub.w	r0, r0, #4
     2dc:	e7e6      	b.n	2ac <USBHostSerialPort::~USBHostSerialPort()>
     2de:	bf00      	nop

000002e0 <USBHostSerial::~USBHostSerial()>:
     2e0:	b510      	push	{r4, lr}
     2e2:	4b08      	ldr	r3, [pc, #32]	; (304 <USBHostSerial::~USBHostSerial()+0x24>)
     2e4:	4a08      	ldr	r2, [pc, #32]	; (308 <USBHostSerial::~USBHostSerial()+0x28>)
     2e6:	f103 0108 	add.w	r1, r3, #8
     2ea:	3344      	adds	r3, #68	; 0x44
     2ec:	4604      	mov	r4, r0
     2ee:	6002      	str	r2, [r0, #0]
     2f0:	6041      	str	r1, [r0, #4]
     2f2:	6083      	str	r3, [r0, #8]
     2f4:	30b8      	adds	r0, #184	; 0xb8
     2f6:	f003 fd6b 	bl	3dd0 <rtos::Mutex::~Mutex()>
     2fa:	1d20      	adds	r0, r4, #4
     2fc:	f004 f822 	bl	4344 <mbed::Stream::~Stream()>
     300:	4620      	mov	r0, r4
     302:	bd10      	pop	{r4, pc}
     304:	00007e08 	.word	0x00007e08
     308:	00007d08 	.word	0x00007d08

0000030c <non-virtual thunk to USBHostSerial::~USBHostSerial()>:
     30c:	f1a0 0008 	sub.w	r0, r0, #8
     310:	f7ff bfe6 	b.w	2e0 <USBHostSerial::~USBHostSerial()>

00000314 <non-virtual thunk to USBHostSerial::~USBHostSerial()>:
     314:	f1a0 0004 	sub.w	r0, r0, #4
     318:	f7ff bfe2 	b.w	2e0 <USBHostSerial::~USBHostSerial()>

0000031c <void mbed::FunctionPointer::membercaller<USBHostSerialPort>(void*, char*)>:
     31c:	b510      	push	{r4, lr}
     31e:	460b      	mov	r3, r1
     320:	b082      	sub	sp, #8
     322:	6849      	ldr	r1, [r1, #4]
     324:	4602      	mov	r2, r0
     326:	6818      	ldr	r0, [r3, #0]
     328:	466b      	mov	r3, sp
     32a:	c303      	stmia	r3!, {r0, r1}
     32c:	460b      	mov	r3, r1
     32e:	07d9      	lsls	r1, r3, #31
     330:	d507      	bpl.n	342 <void mbed::FunctionPointer::membercaller<USBHostSerialPort>(void*, char*)+0x26>
     332:	105b      	asrs	r3, r3, #1
     334:	58d4      	ldr	r4, [r2, r3]
     336:	9900      	ldr	r1, [sp, #0]
     338:	18d0      	adds	r0, r2, r3
     33a:	5861      	ldr	r1, [r4, r1]
     33c:	4788      	blx	r1
     33e:	b002      	add	sp, #8
     340:	bd10      	pop	{r4, pc}
     342:	eb02 0063 	add.w	r0, r2, r3, asr #1
     346:	9900      	ldr	r1, [sp, #0]
     348:	4788      	blx	r1
     34a:	b002      	add	sp, #8
     34c:	bd10      	pop	{r4, pc}
     34e:	bf00      	nop

00000350 <USBHostSerialPort::txHandler()>:
     350:	6a43      	ldr	r3, [r0, #36]	; 0x24
     352:	b11b      	cbz	r3, 35c <USBHostSerialPort::txHandler()+0xc>
     354:	f893 3025 	ldrb.w	r3, [r3, #37]	; 0x25
     358:	2b10      	cmp	r3, #16
     35a:	d000      	beq.n	35e <USBHostSerialPort::txHandler()+0xe>
     35c:	4770      	bx	lr
     35e:	f500 7096 	add.w	r0, r0, #300	; 0x12c
     362:	f003 bfa9 	b.w	42b8 <mbed::FunctionPointer::call()>
     366:	bf00      	nop

00000368 <USBHostSerialPort::_putc(int)>:
     368:	b510      	push	{r4, lr}
     36a:	6a42      	ldr	r2, [r0, #36]	; 0x24
     36c:	b084      	sub	sp, #16
     36e:	9103      	str	r1, [sp, #12]
     370:	b17a      	cbz	r2, 392 <USBHostSerialPort::_putc(int)+0x2a>
     372:	6984      	ldr	r4, [r0, #24]
     374:	2301      	movs	r3, #1
     376:	69c1      	ldr	r1, [r0, #28]
     378:	9300      	str	r3, [sp, #0]
     37a:	9301      	str	r3, [sp, #4]
     37c:	4620      	mov	r0, r4
     37e:	ab03      	add	r3, sp, #12
     380:	f001 f942 	bl	1608 <USBHost::bulkWrite(USBDeviceConnected*, USBEndpoint*, unsigned char*, unsigned long, bool)>
     384:	2800      	cmp	r0, #0
     386:	bf14      	ite	ne
     388:	f04f 30ff 	movne.w	r0, #4294967295	; 0xffffffff
     38c:	2001      	moveq	r0, #1
     38e:	b004      	add	sp, #16
     390:	bd10      	pop	{r4, pc}
     392:	f04f 30ff 	mov.w	r0, #4294967295	; 0xffffffff
     396:	e7fa      	b.n	38e <USBHostSerialPort::_putc(int)+0x26>

00000398 <USBHostSerialPort::writeBuf(char const*, int)>:
     398:	e92d 47f0 	stmdb	sp!, {r4, r5, r6, r7, r8, r9, r10, lr}
     39c:	6a47      	ldr	r7, [r0, #36]	; 0x24
     39e:	b082      	sub	sp, #8
     3a0:	4604      	mov	r4, r0
     3a2:	4689      	mov	r9, r1
     3a4:	4615      	mov	r5, r2
     3a6:	b1cf      	cbz	r7, 3dc <USBHostSerialPort::writeBuf(char const*, int)+0x44>
     3a8:	2a00      	cmp	r2, #0
     3aa:	dd17      	ble.n	3dc <USBHostSerialPort::writeBuf(char const*, int)+0x44>
     3ac:	2600      	movs	r6, #0
     3ae:	f04f 0a01 	mov.w	r10, #1
     3b2:	e000      	b.n	3b6 <USBHostSerialPort::writeBuf(char const*, int)+0x1e>
     3b4:	6a67      	ldr	r7, [r4, #36]	; 0x24
     3b6:	6ae3      	ldr	r3, [r4, #44]	; 0x2c
     3b8:	46a8      	mov	r8, r5
     3ba:	429d      	cmp	r5, r3
     3bc:	bf34      	ite	cc
     3be:	462b      	movcc	r3, r5
     3c0:	4698      	movcs	r8, r3
     3c2:	69a0      	ldr	r0, [r4, #24]
     3c4:	69e1      	ldr	r1, [r4, #28]
     3c6:	463a      	mov	r2, r7
     3c8:	e88d 0408 	stmia.w	sp, {r3, r10}
     3cc:	eb09 0306 	add.w	r3, r9, r6
     3d0:	f001 f91a 	bl	1608 <USBHost::bulkWrite(USBDeviceConnected*, USBEndpoint*, unsigned char*, unsigned long, bool)>
     3d4:	b900      	cbnz	r0, 3d8 <USBHostSerialPort::writeBuf(char const*, int)+0x40>
     3d6:	4446      	add	r6, r8
     3d8:	42b5      	cmp	r5, r6
     3da:	dceb      	bgt.n	3b4 <USBHostSerialPort::writeBuf(char const*, int)+0x1c>
     3dc:	4628      	mov	r0, r5
     3de:	b002      	add	sp, #8
     3e0:	e8bd 87f0 	ldmia.w	sp!, {r4, r5, r6, r7, r8, r9, r10, pc}

000003e4 <USBHostSerialPort::readBuf(char*, int)>:
     3e4:	b5f8      	push	{r3, r4, r5, r6, r7, lr}
     3e6:	6a03      	ldr	r3, [r0, #32]
     3e8:	4605      	mov	r5, r0
     3ea:	4617      	mov	r7, r2
     3ec:	b163      	cbz	r3, 408 <USBHostSerialPort::readBuf(char*, int)+0x24>
     3ee:	2a00      	cmp	r2, #0
     3f0:	dd0d      	ble.n	40e <USBHostSerialPort::readBuf(char*, int)+0x2a>
     3f2:	460c      	mov	r4, r1
     3f4:	188e      	adds	r6, r1, r2
     3f6:	4628      	mov	r0, r5
     3f8:	f003 ffec 	bl	43d4 <mbed::Stream::getc()>
     3fc:	f804 0b01 	strb.w	r0, [r4], #1
     400:	42b4      	cmp	r4, r6
     402:	d1f8      	bne.n	3f6 <USBHostSerialPort::readBuf(char*, int)+0x12>
     404:	4638      	mov	r0, r7
     406:	bdf8      	pop	{r3, r4, r5, r6, r7, pc}
     408:	461f      	mov	r7, r3
     40a:	4638      	mov	r0, r7
     40c:	bdf8      	pop	{r3, r4, r5, r6, r7, pc}
     40e:	2700      	movs	r7, #0
     410:	e7f8      	b.n	404 <USBHostSerialPort::readBuf(char*, int)+0x20>
     412:	bf00      	nop

00000414 <USBHostSerial::parseInterface(unsigned char, unsigned char, unsigned char, unsigned char)>:
     414:	b430      	push	{r4, r5}
     416:	f8d0 415c 	ldr.w	r4, [r0, #348]	; 0x15c
     41a:	f89d 5008 	ldrb.w	r5, [sp, #8]
     41e:	b974      	cbnz	r4, 43e <USBHostSerial::parseInterface(unsigned char, unsigned char, unsigned char, unsigned char)+0x2a>
     420:	2aff      	cmp	r2, #255	; 0xff
     422:	d00a      	beq.n	43a <USBHostSerial::parseInterface(unsigned char, unsigned char, unsigned char, unsigned char)+0x26>
     424:	2a0a      	cmp	r2, #10
     426:	d10d      	bne.n	444 <USBHostSerial::parseInterface(unsigned char, unsigned char, unsigned char, unsigned char)+0x30>
     428:	b94b      	cbnz	r3, 43e <USBHostSerial::parseInterface(unsigned char, unsigned char, unsigned char, unsigned char)+0x2a>
     42a:	b945      	cbnz	r5, 43e <USBHostSerial::parseInterface(unsigned char, unsigned char, unsigned char, unsigned char)+0x2a>
     42c:	2401      	movs	r4, #1
     42e:	f880 1158 	strb.w	r1, [r0, #344]	; 0x158
     432:	f8c0 415c 	str.w	r4, [r0, #348]	; 0x15c
     436:	4620      	mov	r0, r4
     438:	e002      	b.n	440 <USBHostSerial::parseInterface(unsigned char, unsigned char, unsigned char, unsigned char)+0x2c>
     43a:	2bff      	cmp	r3, #255	; 0xff
     43c:	d005      	beq.n	44a <USBHostSerial::parseInterface(unsigned char, unsigned char, unsigned char, unsigned char)+0x36>
     43e:	2000      	movs	r0, #0
     440:	bc30      	pop	{r4, r5}
     442:	4770      	bx	lr
     444:	4620      	mov	r0, r4
     446:	bc30      	pop	{r4, r5}
     448:	4770      	bx	lr
     44a:	2dff      	cmp	r5, #255	; 0xff
     44c:	d1f7      	bne.n	43e <USBHostSerial::parseInterface(unsigned char, unsigned char, unsigned char, unsigned char)+0x2a>
     44e:	e7ed      	b.n	42c <USBHostSerial::parseInterface(unsigned char, unsigned char, unsigned char, unsigned char)+0x18>

00000450 <USBHostSerialPort::rxHandler()>:
     450:	e92d 41f0 	stmdb	sp!, {r4, r5, r6, r7, r8, lr}
     454:	6a03      	ldr	r3, [r0, #32]
     456:	b082      	sub	sp, #8
     458:	4604      	mov	r4, r0
     45a:	b123      	cbz	r3, 466 <USBHostSerialPort::rxHandler()+0x16>
     45c:	f893 2025 	ldrb.w	r2, [r3, #37]	; 0x25
     460:	6b1b      	ldr	r3, [r3, #48]	; 0x30
     462:	2a10      	cmp	r2, #16
     464:	d002      	beq.n	46c <USBHostSerialPort::rxHandler()+0x1c>
     466:	b002      	add	sp, #8
     468:	e8bd 81f0 	ldmia.w	sp!, {r4, r5, r6, r7, r8, pc}
     46c:	2b00      	cmp	r3, #0
     46e:	dd30      	ble.n	4d2 <USBHostSerialPort::rxHandler()+0x82>
     470:	33c7      	adds	r3, #199	; 0xc7
     472:	eb00 0803 	add.w	r8, r0, r3
     476:	f100 05b4 	add.w	r5, r0, #180	; 0xb4
     47a:	f100 06c7 	add.w	r6, r0, #199	; 0xc7
     47e:	4628      	mov	r0, r5
     480:	f04f 31ff 	mov.w	r1, #4294967295	; 0xffffffff
     484:	f816 7f01 	ldrb.w	r7, [r6, #1]!
     488:	e008      	b.n	49c <USBHostSerialPort::rxHandler()+0x4c>
     48a:	4628      	mov	r0, r5
     48c:	f003 fc9c 	bl	3dc8 <rtos::Mutex::unlock()>
     490:	200a      	movs	r0, #10
     492:	f003 fced 	bl	3e70 <rtos::Thread::wait(unsigned long)>
     496:	4628      	mov	r0, r5
     498:	f04f 31ff 	mov.w	r1, #4294967295	; 0xffffffff
     49c:	f003 fc90 	bl	3dc0 <rtos::Mutex::lock(unsigned long)>
     4a0:	8e22      	ldrh	r2, [r4, #48]	; 0x30
     4a2:	8e63      	ldrh	r3, [r4, #50]	; 0x32
     4a4:	3201      	adds	r2, #1
     4a6:	f002 027f 	and.w	r2, r2, #127	; 0x7f
     4aa:	b29b      	uxth	r3, r3
     4ac:	429a      	cmp	r2, r3
     4ae:	d0ec      	beq.n	48a <USBHostSerialPort::rxHandler()+0x3a>
     4b0:	8e23      	ldrh	r3, [r4, #48]	; 0x30
     4b2:	4628      	mov	r0, r5
     4b4:	b29b      	uxth	r3, r3
     4b6:	1c5a      	adds	r2, r3, #1
     4b8:	b292      	uxth	r2, r2
     4ba:	4423      	add	r3, r4
     4bc:	8622      	strh	r2, [r4, #48]	; 0x30
     4be:	f883 7034 	strb.w	r7, [r3, #52]	; 0x34
     4c2:	8e23      	ldrh	r3, [r4, #48]	; 0x30
     4c4:	f003 037f 	and.w	r3, r3, #127	; 0x7f
     4c8:	8623      	strh	r3, [r4, #48]	; 0x30
     4ca:	f003 fc7d 	bl	3dc8 <rtos::Mutex::unlock()>
     4ce:	4546      	cmp	r6, r8
     4d0:	d1d5      	bne.n	47e <USBHostSerialPort::rxHandler()+0x2e>
     4d2:	f504 7088 	add.w	r0, r4, #272	; 0x110
     4d6:	f003 feef 	bl	42b8 <mbed::FunctionPointer::call()>
     4da:	6aa3      	ldr	r3, [r4, #40]	; 0x28
     4dc:	f104 0018 	add.w	r0, r4, #24
     4e0:	2500      	movs	r5, #0
     4e2:	c807      	ldmia	r0, {r0, r1, r2}
     4e4:	9300      	str	r3, [sp, #0]
     4e6:	9501      	str	r5, [sp, #4]
     4e8:	f104 03c8 	add.w	r3, r4, #200	; 0xc8
     4ec:	f001 f89c 	bl	1628 <USBHost::bulkRead(USBDeviceConnected*, USBEndpoint*, unsigned char*, unsigned long, bool)>
     4f0:	b002      	add	sp, #8
     4f2:	e8bd 81f0 	ldmia.w	sp!, {r4, r5, r6, r7, r8, pc}
     4f6:	bf00      	nop

000004f8 <USBHostSerialPort::_getc()>:
     4f8:	b5f8      	push	{r3, r4, r5, r6, r7, lr}
     4fa:	6a03      	ldr	r3, [r0, #32]
     4fc:	4604      	mov	r4, r0
     4fe:	f100 05b4 	add.w	r5, r0, #180	; 0xb4
     502:	b35b      	cbz	r3, 55c <USBHostSerialPort::_getc()+0x64>
     504:	f04f 31ff 	mov.w	r1, #4294967295	; 0xffffffff
     508:	4628      	mov	r0, r5
     50a:	f003 fc59 	bl	3dc0 <rtos::Mutex::lock(unsigned long)>
     50e:	8e67      	ldrh	r7, [r4, #50]	; 0x32
     510:	8e26      	ldrh	r6, [r4, #48]	; 0x30
     512:	b2bf      	uxth	r7, r7
     514:	b2b6      	uxth	r6, r6
     516:	4628      	mov	r0, r5
     518:	f003 fc56 	bl	3dc8 <rtos::Mutex::unlock()>
     51c:	42b7      	cmp	r7, r6
     51e:	d0f1      	beq.n	504 <USBHostSerialPort::_getc()+0xc>
     520:	4628      	mov	r0, r5
     522:	f04f 31ff 	mov.w	r1, #4294967295	; 0xffffffff
     526:	f003 fc4b 	bl	3dc0 <rtos::Mutex::lock(unsigned long)>
     52a:	8e62      	ldrh	r2, [r4, #50]	; 0x32
     52c:	8e23      	ldrh	r3, [r4, #48]	; 0x30
     52e:	b292      	uxth	r2, r2
     530:	b29b      	uxth	r3, r3
     532:	429a      	cmp	r2, r3
     534:	d010      	beq.n	558 <USBHostSerialPort::_getc()+0x60>
     536:	8e63      	ldrh	r3, [r4, #50]	; 0x32
     538:	b29b      	uxth	r3, r3
     53a:	1c5a      	adds	r2, r3, #1
     53c:	b292      	uxth	r2, r2
     53e:	8662      	strh	r2, [r4, #50]	; 0x32
     540:	4423      	add	r3, r4
     542:	f893 6034 	ldrb.w	r6, [r3, #52]	; 0x34
     546:	8e63      	ldrh	r3, [r4, #50]	; 0x32
     548:	f003 037f 	and.w	r3, r3, #127	; 0x7f
     54c:	8663      	strh	r3, [r4, #50]	; 0x32
     54e:	4628      	mov	r0, r5
     550:	f003 fc3a 	bl	3dc8 <rtos::Mutex::unlock()>
     554:	4630      	mov	r0, r6
     556:	bdf8      	pop	{r3, r4, r5, r6, r7, pc}
     558:	2600      	movs	r6, #0
     55a:	e7f8      	b.n	54e <USBHostSerialPort::_getc()+0x56>
     55c:	f44f 5016 	mov.w	r0, #9600	; 0x2580
     560:	2108      	movs	r1, #8
     562:	2201      	movs	r2, #1
     564:	8623      	strh	r3, [r4, #48]	; 0x30
     566:	61a3      	str	r3, [r4, #24]
     568:	61e3      	str	r3, [r4, #28]
     56a:	f884 3148 	strb.w	r3, [r4, #328]	; 0x148
     56e:	62a3      	str	r3, [r4, #40]	; 0x28
     570:	62e3      	str	r3, [r4, #44]	; 0x2c
     572:	6263      	str	r3, [r4, #36]	; 0x24
     574:	f884 310d 	strb.w	r3, [r4, #269]	; 0x10d
     578:	8663      	strh	r3, [r4, #50]	; 0x32
     57a:	f8c4 0108 	str.w	r0, [r4, #264]	; 0x108
     57e:	f884 110e 	strb.w	r1, [r4, #270]	; 0x10e
     582:	f884 210c 	strb.w	r2, [r4, #268]	; 0x10c
     586:	f04f 36ff 	mov.w	r6, #4294967295	; 0xffffffff
     58a:	e7e3      	b.n	554 <USBHostSerialPort::_getc()+0x5c>

0000058c <USBHostSerial::~USBHostSerial()>:
     58c:	4b0a      	ldr	r3, [pc, #40]	; (5b8 <USBHostSerial::~USBHostSerial()+0x2c>)
     58e:	b510      	push	{r4, lr}
     590:	4a0a      	ldr	r2, [pc, #40]	; (5bc <USBHostSerial::~USBHostSerial()+0x30>)
     592:	f103 0108 	add.w	r1, r3, #8
     596:	3344      	adds	r3, #68	; 0x44
     598:	4604      	mov	r4, r0
     59a:	6002      	str	r2, [r0, #0]
     59c:	6041      	str	r1, [r0, #4]
     59e:	6083      	str	r3, [r0, #8]
     5a0:	30b8      	adds	r0, #184	; 0xb8
     5a2:	f003 fc15 	bl	3dd0 <rtos::Mutex::~Mutex()>
     5a6:	1d20      	adds	r0, r4, #4
     5a8:	f003 fecc 	bl	4344 <mbed::Stream::~Stream()>
     5ac:	4620      	mov	r0, r4
     5ae:	f004 ff63 	bl	5478 <operator delete(void*)>
     5b2:	4620      	mov	r0, r4
     5b4:	bd10      	pop	{r4, pc}
     5b6:	bf00      	nop
     5b8:	00007e08 	.word	0x00007e08
     5bc:	00007d08 	.word	0x00007d08

000005c0 <non-virtual thunk to USBHostSerial::~USBHostSerial()>:
     5c0:	f1a0 0008 	sub.w	r0, r0, #8
     5c4:	e7e2      	b.n	58c <USBHostSerial::~USBHostSerial()>
     5c6:	bf00      	nop

000005c8 <non-virtual thunk to USBHostSerial::~USBHostSerial()>:
     5c8:	f1a0 0004 	sub.w	r0, r0, #4
     5cc:	e7de      	b.n	58c <USBHostSerial::~USBHostSerial()>
     5ce:	bf00      	nop

000005d0 <USBHostSerial::connected()>:
     5d0:	f890 0160 	ldrb.w	r0, [r0, #352]	; 0x160
     5d4:	4770      	bx	lr
     5d6:	bf00      	nop

000005d8 <USBHostSerialPort::USBHostSerialPort()>:
     5d8:	b538      	push	{r3, r4, r5, lr}
     5da:	2100      	movs	r1, #0
     5dc:	4604      	mov	r4, r0
     5de:	f003 fed5 	bl	438c <mbed::Stream::Stream(char const*)>
     5e2:	4b17      	ldr	r3, [pc, #92]	; (640 <USBHostSerialPort::USBHostSerialPort()+0x68>)
     5e4:	2500      	movs	r5, #0
     5e6:	f103 0208 	add.w	r2, r3, #8
     5ea:	3344      	adds	r3, #68	; 0x44
     5ec:	e884 000c 	stmia.w	r4, {r2, r3}
     5f0:	f104 00b4 	add.w	r0, r4, #180	; 0xb4
     5f4:	f003 fbc4 	bl	3d80 <rtos::Mutex::Mutex()>
     5f8:	8625      	strh	r5, [r4, #48]	; 0x30
     5fa:	4629      	mov	r1, r5
     5fc:	f504 7088 	add.w	r0, r4, #272	; 0x110
     600:	8665      	strh	r5, [r4, #50]	; 0x32
     602:	f003 fe53 	bl	42ac <mbed::FunctionPointer::FunctionPointer(void (*)())>
     606:	4629      	mov	r1, r5
     608:	f504 7096 	add.w	r0, r4, #300	; 0x12c
     60c:	f003 fe4e 	bl	42ac <mbed::FunctionPointer::FunctionPointer(void (*)())>
     610:	2208      	movs	r2, #8
     612:	2301      	movs	r3, #1
     614:	f44f 5116 	mov.w	r1, #9600	; 0x2580
     618:	f884 5148 	strb.w	r5, [r4, #328]	; 0x148
     61c:	f884 510d 	strb.w	r5, [r4, #269]	; 0x10d
     620:	f884 210e 	strb.w	r2, [r4, #270]	; 0x10e
     624:	f884 310c 	strb.w	r3, [r4, #268]	; 0x10c
     628:	8625      	strh	r5, [r4, #48]	; 0x30
     62a:	61a5      	str	r5, [r4, #24]
     62c:	61e5      	str	r5, [r4, #28]
     62e:	62a5      	str	r5, [r4, #40]	; 0x28
     630:	62e5      	str	r5, [r4, #44]	; 0x2c
     632:	6225      	str	r5, [r4, #32]
     634:	6265      	str	r5, [r4, #36]	; 0x24
     636:	8665      	strh	r5, [r4, #50]	; 0x32
     638:	f8c4 1108 	str.w	r1, [r4, #264]	; 0x108
     63c:	4620      	mov	r0, r4
     63e:	bd38      	pop	{r3, r4, r5, pc}
     640:	00007e08 	.word	0x00007e08

00000644 <USBHostSerial::USBHostSerial()>:
     644:	4b0c      	ldr	r3, [pc, #48]	; (678 <USBHostSerial::USBHostSerial()+0x34>)
     646:	b510      	push	{r4, lr}
     648:	4604      	mov	r4, r0
     64a:	f840 3b04 	str.w	r3, [r0], #4
     64e:	f7ff ffc3 	bl	5d8 <USBHostSerialPort::USBHostSerialPort()>
     652:	4b0a      	ldr	r3, [pc, #40]	; (67c <USBHostSerial::USBHostSerial()+0x38>)
     654:	f103 0108 	add.w	r1, r3, #8
     658:	f103 0224 	add.w	r2, r3, #36	; 0x24
     65c:	3360      	adds	r3, #96	; 0x60
     65e:	e884 000e 	stmia.w	r4, {r1, r2, r3}
     662:	f000 fbe7 	bl	e34 <USBHost::getHostInst()>
     666:	2300      	movs	r3, #0
     668:	f8c4 0150 	str.w	r0, [r4, #336]	; 0x150
     66c:	f8c4 315c 	str.w	r3, [r4, #348]	; 0x15c
     670:	f884 3160 	strb.w	r3, [r4, #352]	; 0x160
     674:	4620      	mov	r0, r4
     676:	bd10      	pop	{r4, pc}
     678:	00007cf0 	.word	0x00007cf0
     67c:	00007d00 	.word	0x00007d00

00000680 <USBHostSerialPort::connect(USBHost*, USBDeviceConnected*, unsigned char, USBEndpoint*, USBEndpoint*)>:
     680:	e92d 41f0 	stmdb	sp!, {r4, r5, r6, r7, r8, lr}
     684:	f880 3148 	strb.w	r3, [r0, #328]	; 0x148
     688:	b08a      	sub	sp, #40	; 0x28
     68a:	f8b2 70fe 	ldrh.w	r7, [r2, #254]	; 0xfe
     68e:	4604      	mov	r4, r0
     690:	f8b2 6100 	ldrh.w	r6, [r2, #256]	; 0x100
     694:	9d10      	ldr	r5, [sp, #64]	; 0x40
     696:	9811      	ldr	r0, [sp, #68]	; 0x44
     698:	61a1      	str	r1, [r4, #24]
     69a:	61e2      	str	r2, [r4, #28]
     69c:	4946      	ldr	r1, [pc, #280]	; (7b8 <USBHostSerialPort::connect(USBHost*, USBDeviceConnected*, unsigned char, USBEndpoint*, USBEndpoint*)+0x138>)
     69e:	9201      	str	r2, [sp, #4]
     6a0:	9302      	str	r3, [sp, #8]
     6a2:	22f2      	movs	r2, #242	; 0xf2
     6a4:	6225      	str	r5, [r4, #32]
     6a6:	6260      	str	r0, [r4, #36]	; 0x24
     6a8:	463b      	mov	r3, r7
     6aa:	9600      	str	r6, [sp, #0]
     6ac:	4843      	ldr	r0, [pc, #268]	; (7bc <USBHostSerialPort::connect(USBHost*, USBDeviceConnected*, unsigned char, USBEndpoint*, USBEndpoint*)+0x13c>)
     6ae:	f005 fc49 	bl	5f44 <iprintf>
     6b2:	f894 2148 	ldrb.w	r2, [r4, #328]	; 0x148
     6b6:	4b42      	ldr	r3, [pc, #264]	; (7c0 <USBHostSerialPort::connect(USBHost*, USBDeviceConnected*, unsigned char, USBEndpoint*, USBEndpoint*)+0x140>)
     6b8:	ebc2 1202 	rsb	r2, r2, r2, lsl #4
     6bc:	69e1      	ldr	r1, [r4, #28]
     6be:	0092      	lsls	r2, r2, #2
     6c0:	6818      	ldr	r0, [r3, #0]
     6c2:	889e      	ldrh	r6, [r3, #4]
     6c4:	799d      	ldrb	r5, [r3, #6]
     6c6:	3238      	adds	r2, #56	; 0x38
     6c8:	188b      	adds	r3, r1, r2
     6ca:	5088      	str	r0, [r1, r2]
     6cc:	809e      	strh	r6, [r3, #4]
     6ce:	719d      	strb	r5, [r3, #6]
     6d0:	69a7      	ldr	r7, [r4, #24]
     6d2:	69e6      	ldr	r6, [r4, #28]
     6d4:	4638      	mov	r0, r7
     6d6:	4631      	mov	r1, r6
     6d8:	f894 5148 	ldrb.w	r5, [r4, #328]	; 0x148
     6dc:	f000 fde6 	bl	12ac <USBHost::findDevice(USBDeviceConnected*)>
     6e0:	1c43      	adds	r3, r0, #1
     6e2:	d04c      	beq.n	77e <USBHostSerialPort::connect(USBHost*, USBDeviceConnected*, unsigned char, USBEndpoint*, USBEndpoint*)+0xfe>
     6e4:	2c00      	cmp	r4, #0
     6e6:	d05a      	beq.n	79e <USBHostSerialPort::connect(USBHost*, USBDeviceConnected*, unsigned char, USBEndpoint*, USBEndpoint*)+0x11e>
     6e8:	ebc5 1305 	rsb	r3, r5, r5, lsl #4
     6ec:	eb06 0683 	add.w	r6, r6, r3, lsl #2
     6f0:	eb07 0780 	add.w	r7, r7, r0, lsl #2
     6f4:	4b33      	ldr	r3, [pc, #204]	; (7c4 <USBHostSerialPort::connect(USBHost*, USBDeviceConnected*, unsigned char, USBEndpoint*, USBEndpoint*)+0x144>)
     6f6:	443d      	add	r5, r7
     6f8:	f04f 0c00 	mov.w	r12, #0
     6fc:	f505 5501 	add.w	r5, r5, #8256	; 0x2040
     700:	2201      	movs	r2, #1
     702:	9304      	str	r3, [sp, #16]
     704:	f8cd c014 	str.w	r12, [sp, #20]
     708:	ab04      	add	r3, sp, #16
     70a:	f885 2029 	strb.w	r2, [r5, #41]	; 0x29
     70e:	cb03      	ldmia	r3!, {r0, r1}
     710:	6270      	str	r0, [r6, #36]	; 0x24
     712:	62b1      	str	r1, [r6, #40]	; 0x28
     714:	6a22      	ldr	r2, [r4, #32]
     716:	6a63      	ldr	r3, [r4, #36]	; 0x24
     718:	6d91      	ldr	r1, [r2, #88]	; 0x58
     71a:	6d9b      	ldr	r3, [r3, #88]	; 0x58
     71c:	680d      	ldr	r5, [r1, #0]
     71e:	681b      	ldr	r3, [r3, #0]
     720:	4f29      	ldr	r7, [pc, #164]	; (7c8 <USBHostSerialPort::connect(USBHost*, USBDeviceConnected*, unsigned char, USBEndpoint*, USBEndpoint*)+0x148>)
     722:	f3c5 4509 	ubfx	r5, r5, #16, #10
     726:	f3c3 4309 	ubfx	r3, r3, #16, #10
     72a:	6234      	str	r4, [r6, #32]
     72c:	6377      	str	r7, [r6, #52]	; 0x34
     72e:	f8c6 c01c 	str.w	r12, [r6, #28]
     732:	62a5      	str	r5, [r4, #40]	; 0x28
     734:	62e3      	str	r3, [r4, #44]	; 0x2c
     736:	4b25      	ldr	r3, [pc, #148]	; (7cc <USBHostSerialPort::connect(USBHost*, USBDeviceConnected*, unsigned char, USBEndpoint*, USBEndpoint*)+0x14c>)
     738:	2600      	movs	r6, #0
     73a:	9306      	str	r3, [sp, #24]
     73c:	9607      	str	r6, [sp, #28]
     73e:	ab06      	add	r3, sp, #24
     740:	cb03      	ldmia	r3!, {r0, r1}
     742:	4d23      	ldr	r5, [pc, #140]	; (7d0 <USBHostSerialPort::connect(USBHost*, USBDeviceConnected*, unsigned char, USBEndpoint*, USBEndpoint*)+0x150>)
     744:	6410      	str	r0, [r2, #64]	; 0x40
     746:	6451      	str	r1, [r2, #68]	; 0x44
     748:	6a63      	ldr	r3, [r4, #36]	; 0x24
     74a:	9508      	str	r5, [sp, #32]
     74c:	9609      	str	r6, [sp, #36]	; 0x24
     74e:	ad08      	add	r5, sp, #32
     750:	63d4      	str	r4, [r2, #60]	; 0x3c
     752:	6517      	str	r7, [r2, #80]	; 0x50
     754:	6396      	str	r6, [r2, #56]	; 0x38
     756:	cd03      	ldmia	r5!, {r0, r1}
     758:	6418      	str	r0, [r3, #64]	; 0x40
     75a:	6459      	str	r1, [r3, #68]	; 0x44
     75c:	6a22      	ldr	r2, [r4, #32]
     75e:	6aa5      	ldr	r5, [r4, #40]	; 0x28
     760:	639e      	str	r6, [r3, #56]	; 0x38
     762:	63dc      	str	r4, [r3, #60]	; 0x3c
     764:	651f      	str	r7, [r3, #80]	; 0x50
     766:	69a0      	ldr	r0, [r4, #24]
     768:	69e1      	ldr	r1, [r4, #28]
     76a:	2600      	movs	r6, #0
     76c:	f104 03c8 	add.w	r3, r4, #200	; 0xc8
     770:	9510      	str	r5, [sp, #64]	; 0x40
     772:	9611      	str	r6, [sp, #68]	; 0x44
     774:	b00a      	add	sp, #40	; 0x28
     776:	e8bd 41f0 	ldmia.w	sp!, {r4, r5, r6, r7, r8, lr}
     77a:	f000 bf55 	b.w	1628 <USBHost::bulkRead(USBDeviceConnected*, USBEndpoint*, unsigned char*, unsigned long, bool)>
     77e:	6a22      	ldr	r2, [r4, #32]
     780:	6a63      	ldr	r3, [r4, #36]	; 0x24
     782:	6d91      	ldr	r1, [r2, #88]	; 0x58
     784:	6d9b      	ldr	r3, [r3, #88]	; 0x58
     786:	680d      	ldr	r5, [r1, #0]
     788:	681b      	ldr	r3, [r3, #0]
     78a:	f3c5 4509 	ubfx	r5, r5, #16, #10
     78e:	f3c3 4309 	ubfx	r3, r3, #16, #10
     792:	62a5      	str	r5, [r4, #40]	; 0x28
     794:	62e3      	str	r3, [r4, #44]	; 0x2c
     796:	2c00      	cmp	r4, #0
     798:	d0e5      	beq.n	766 <USBHostSerialPort::connect(USBHost*, USBDeviceConnected*, unsigned char, USBEndpoint*, USBEndpoint*)+0xe6>
     79a:	4f0b      	ldr	r7, [pc, #44]	; (7c8 <USBHostSerialPort::connect(USBHost*, USBDeviceConnected*, unsigned char, USBEndpoint*, USBEndpoint*)+0x148>)
     79c:	e7cb      	b.n	736 <USBHostSerialPort::connect(USBHost*, USBDeviceConnected*, unsigned char, USBEndpoint*, USBEndpoint*)+0xb6>
     79e:	6a22      	ldr	r2, [r4, #32]
     7a0:	6a63      	ldr	r3, [r4, #36]	; 0x24
     7a2:	6d91      	ldr	r1, [r2, #88]	; 0x58
     7a4:	6d9b      	ldr	r3, [r3, #88]	; 0x58
     7a6:	680d      	ldr	r5, [r1, #0]
     7a8:	681b      	ldr	r3, [r3, #0]
     7aa:	f3c5 4509 	ubfx	r5, r5, #16, #10
     7ae:	f3c3 4309 	ubfx	r3, r3, #16, #10
     7b2:	62a5      	str	r5, [r4, #40]	; 0x28
     7b4:	62e3      	str	r3, [r4, #44]	; 0x2c
     7b6:	e7d6      	b.n	766 <USBHostSerialPort::connect(USBHost*, USBDeviceConnected*, unsigned char, USBEndpoint*, USBEndpoint*)+0xe6>
     7b8:	00007db8 	.word	0x00007db8
     7bc:	00007d68 	.word	0x00007d68
     7c0:	00007e00 	.word	0x00007e00
     7c4:	00000249 	.word	0x00000249
     7c8:	0000031d 	.word	0x0000031d
     7cc:	00000451 	.word	0x00000451
     7d0:	00000351 	.word	0x00000351

000007d4 <USBHostSerial::connect()>:
     7d4:	e92d 43f0 	stmdb	sp!, {r4, r5, r6, r7, r8, r9, lr}
     7d8:	f8d0 3154 	ldr.w	r3, [r0, #340]	; 0x154
     7dc:	b083      	sub	sp, #12
     7de:	4604      	mov	r4, r0
     7e0:	b18b      	cbz	r3, 806 <Heap_Size+0x6>
     7e2:	2500      	movs	r5, #0
     7e4:	b2e9      	uxtb	r1, r5
     7e6:	f8d4 0150 	ldr.w	r0, [r4, #336]	; 0x150
     7ea:	f000 fc57 	bl	109c <USBHost::getDevice(unsigned char)>
     7ee:	f8d4 3154 	ldr.w	r3, [r4, #340]	; 0x154
     7f2:	3501      	adds	r5, #1
     7f4:	4283      	cmp	r3, r0
     7f6:	d046      	beq.n	886 <Heap_Size+0x86>
     7f8:	2d05      	cmp	r5, #5
     7fa:	d1f3      	bne.n	7e4 <USBHostSerial::connect()+0x10>
     7fc:	2300      	movs	r3, #0
     7fe:	f8c4 315c 	str.w	r3, [r4, #348]	; 0x15c
     802:	f8c4 3154 	str.w	r3, [r4, #340]	; 0x154
     806:	2600      	movs	r6, #0
     808:	f104 0904 	add.w	r9, r4, #4
     80c:	b2f1      	uxtb	r1, r6
     80e:	f8d4 0150 	ldr.w	r0, [r4, #336]	; 0x150
     812:	f000 fc43 	bl	109c <USBHost::getDevice(unsigned char)>
     816:	3601      	adds	r6, #1
     818:	4605      	mov	r5, r0
     81a:	4601      	mov	r1, r0
     81c:	4622      	mov	r2, r4
     81e:	b340      	cbz	r0, 872 <Heap_Size+0x72>
     820:	f8d4 0150 	ldr.w	r0, [r4, #336]	; 0x150
     824:	f001 fa5e 	bl	1ce4 <USBHost::enumerate(USBDeviceConnected*, IUSBEnumerator*)>
     828:	2202      	movs	r2, #2
     82a:	4607      	mov	r7, r0
     82c:	4613      	mov	r3, r2
     82e:	4628      	mov	r0, r5
     830:	bb0f      	cbnz	r7, 876 <Heap_Size+0x76>
     832:	f894 1158 	ldrb.w	r1, [r4, #344]	; 0x158
     836:	9700      	str	r7, [sp, #0]
     838:	f000 f90c 	bl	a54 <USBDeviceConnected::getEndpoint(unsigned char, ENDPOINT_TYPE, ENDPOINT_DIRECTION, unsigned char)>
     83c:	f894 1158 	ldrb.w	r1, [r4, #344]	; 0x158
     840:	2202      	movs	r2, #2
     842:	9700      	str	r7, [sp, #0]
     844:	4680      	mov	r8, r0
     846:	2301      	movs	r3, #1
     848:	4628      	mov	r0, r5
     84a:	f000 f903 	bl	a54 <USBDeviceConnected::getEndpoint(unsigned char, ENDPOINT_TYPE, ENDPOINT_DIRECTION, unsigned char)>
     84e:	462a      	mov	r2, r5
     850:	4607      	mov	r7, r0
     852:	4648      	mov	r0, r9
     854:	f1b8 0f00 	cmp.w	r8, #0
     858:	d00b      	beq.n	872 <Heap_Size+0x72>
     85a:	b157      	cbz	r7, 872 <Heap_Size+0x72>
     85c:	f8d4 1150 	ldr.w	r1, [r4, #336]	; 0x150
     860:	f894 3158 	ldrb.w	r3, [r4, #344]	; 0x158
     864:	f8cd 8000 	str.w	r8, [sp]
     868:	9701      	str	r7, [sp, #4]
     86a:	f7ff ff09 	bl	680 <USBHostSerialPort::connect(USBHost*, USBDeviceConnected*, unsigned char, USBEndpoint*, USBEndpoint*)>
     86e:	f8c4 5154 	str.w	r5, [r4, #340]	; 0x154
     872:	2e05      	cmp	r6, #5
     874:	d1ca      	bne.n	80c <Heap_Size+0xc>
     876:	f8d4 0154 	ldr.w	r0, [r4, #340]	; 0x154
     87a:	3000      	adds	r0, #0
     87c:	bf18      	it	ne
     87e:	2001      	movne	r0, #1
     880:	b003      	add	sp, #12
     882:	e8bd 83f0 	ldmia.w	sp!, {r4, r5, r6, r7, r8, r9, pc}
     886:	2001      	movs	r0, #1
     888:	b003      	add	sp, #12
     88a:	e8bd 83f0 	ldmia.w	sp!, {r4, r5, r6, r7, r8, r9, pc}
     88e:	bf00      	nop

00000890 <USBHostSerialPort::available()>:
     890:	b538      	push	{r3, r4, r5, lr}
     892:	f100 05b4 	add.w	r5, r0, #180	; 0xb4
     896:	4604      	mov	r4, r0
     898:	f04f 31ff 	mov.w	r1, #4294967295	; 0xffffffff
     89c:	4628      	mov	r0, r5
     89e:	f003 fa8f 	bl	3dc0 <rtos::Mutex::lock(unsigned long)>
     8a2:	8e22      	ldrh	r2, [r4, #48]	; 0x30
     8a4:	8e63      	ldrh	r3, [r4, #50]	; 0x32
     8a6:	b292      	uxth	r2, r2
     8a8:	b29b      	uxth	r3, r3
     8aa:	429a      	cmp	r2, r3
     8ac:	8e22      	ldrh	r2, [r4, #48]	; 0x30
     8ae:	8e63      	ldrh	r3, [r4, #50]	; 0x32
     8b0:	bf3b      	ittet	cc
     8b2:	b294      	uxthcc	r4, r2
     8b4:	3480      	addcc	r4, #128	; 0x80
     8b6:	ebc3 0402 	rsbcs	r4, r3, r2
     8ba:	ebc3 0404 	rsbcc	r4, r3, r4
     8be:	b2a4      	uxth	r4, r4
     8c0:	4628      	mov	r0, r5
     8c2:	f003 fa81 	bl	3dc8 <rtos::Mutex::unlock()>
     8c6:	b2e0      	uxtb	r0, r4
     8c8:	bd38      	pop	{r3, r4, r5, pc}
     8ca:	bf00      	nop

000008cc <USBDeviceConnected::init()>:
     8cc:	e92d 41f0 	stmdb	sp!, {r4, r5, r6, r7, r8, lr}
     8d0:	2308      	movs	r3, #8
     8d2:	2700      	movs	r7, #0
     8d4:	f880 7108 	strb.w	r7, [r0, #264]	; 0x108
     8d8:	4606      	mov	r6, r0
     8da:	f8c0 30f8 	str.w	r3, [r0, #248]	; 0xf8
     8de:	f880 70fc 	strb.w	r7, [r0, #252]	; 0xfc
     8e2:	f880 70fd 	strb.w	r7, [r0, #253]	; 0xfd
     8e6:	f8a0 70fe 	strh.w	r7, [r0, #254]	; 0xfe
     8ea:	f8a0 7100 	strh.w	r7, [r0, #256]	; 0x100
     8ee:	f880 7109 	strb.w	r7, [r0, #265]	; 0x109
     8f2:	f880 7107 	strb.w	r7, [r0, #263]	; 0x107
     8f6:	f880 7103 	strb.w	r7, [r0, #259]	; 0x103
     8fa:	f880 7104 	strb.w	r7, [r0, #260]	; 0x104
     8fe:	f880 7105 	strb.w	r7, [r0, #261]	; 0x105
     902:	f880 7106 	strb.w	r7, [r0, #262]	; 0x106
     906:	f100 040c 	add.w	r4, r0, #12
     90a:	f100 08fc 	add.w	r8, r0, #252	; 0xfc
     90e:	223c      	movs	r2, #60	; 0x3c
     910:	1f20      	subs	r0, r4, #4
     912:	2100      	movs	r1, #0
     914:	f005 fa35 	bl	5d82 <memset>
     918:	f104 052c 	add.w	r5, r4, #44	; 0x2c
     91c:	f804 7c04 	strb.w	r7, [r4, #-4]
     920:	f104 0c0c 	add.w	r12, r4, #12
     924:	4622      	mov	r2, r4
     926:	f842 7f04 	str.w	r7, [r2, #4]!
     92a:	4b08      	ldr	r3, [pc, #32]	; (94c <USBDeviceConnected::init()+0x80>)
     92c:	4562      	cmp	r2, r12
     92e:	cb03      	ldmia	r3!, {r0, r1}
     930:	f04f 0300 	mov.w	r3, #0
     934:	6028      	str	r0, [r5, #0]
     936:	6069      	str	r1, [r5, #4]
     938:	d1f5      	bne.n	926 <USBDeviceConnected::init()+0x5a>
     93a:	343c      	adds	r4, #60	; 0x3c
     93c:	4544      	cmp	r4, r8
     93e:	d1e6      	bne.n	90e <USBDeviceConnected::init()+0x42>
     940:	f886 3109 	strb.w	r3, [r6, #265]	; 0x109
     944:	6073      	str	r3, [r6, #4]
     946:	6033      	str	r3, [r6, #0]
     948:	e8bd 81f0 	ldmia.w	sp!, {r4, r5, r6, r7, r8, pc}
     94c:	00007e58 	.word	0x00007e58

00000950 <USBDeviceConnected::USBDeviceConnected()>:
     950:	b570      	push	{r4, r5, r6, lr}
     952:	4605      	mov	r5, r0
     954:	f100 041c 	add.w	r4, r0, #28
     958:	f500 7686 	add.w	r6, r0, #268	; 0x10c
     95c:	4620      	mov	r0, r4
     95e:	2100      	movs	r1, #0
     960:	343c      	adds	r4, #60	; 0x3c
     962:	f003 fca3 	bl	42ac <mbed::FunctionPointer::FunctionPointer(void (*)())>
     966:	42b4      	cmp	r4, r6
     968:	d1f8      	bne.n	95c <USBDeviceConnected::USBDeviceConnected()+0xc>
     96a:	4628      	mov	r0, r5
     96c:	f7ff ffae 	bl	8cc <USBDeviceConnected::init()>
     970:	4628      	mov	r0, r5
     972:	bd70      	pop	{r4, r5, r6, pc}

00000974 <USBDeviceConnected::getInterface(unsigned char)>:
     974:	2903      	cmp	r1, #3
     976:	d808      	bhi.n	98a <USBDeviceConnected::getInterface(unsigned char)+0x16>
     978:	ebc1 1101 	rsb	r1, r1, r1, lsl #4
     97c:	0089      	lsls	r1, r1, #2
     97e:	1843      	adds	r3, r0, r1
     980:	7a1b      	ldrb	r3, [r3, #8]
     982:	b123      	cbz	r3, 98e <USBDeviceConnected::getInterface(unsigned char)+0x1a>
     984:	3108      	adds	r1, #8
     986:	4408      	add	r0, r1
     988:	4770      	bx	lr
     98a:	2000      	movs	r0, #0
     98c:	4770      	bx	lr
     98e:	4618      	mov	r0, r3
     990:	4770      	bx	lr
     992:	bf00      	nop

00000994 <USBDeviceConnected::addInterface(unsigned char, unsigned char, unsigned char, unsigned char)>:
     994:	b470      	push	{r4, r5, r6}
     996:	2903      	cmp	r1, #3
     998:	f89d 600c 	ldrb.w	r6, [sp, #12]
     99c:	d80d      	bhi.n	9ba <USBDeviceConnected::addInterface(unsigned char, unsigned char, unsigned char, unsigned char)+0x26>
     99e:	ebc1 1101 	rsb	r1, r1, r1, lsl #4
     9a2:	eb00 0181 	add.w	r1, r0, r1, lsl #2
     9a6:	7a0d      	ldrb	r5, [r1, #8]
     9a8:	b93d      	cbnz	r5, 9ba <USBDeviceConnected::addInterface(unsigned char, unsigned char, unsigned char, unsigned char)+0x26>
     9aa:	2001      	movs	r0, #1
     9ac:	728a      	strb	r2, [r1, #10]
     9ae:	72cb      	strb	r3, [r1, #11]
     9b0:	730e      	strb	r6, [r1, #12]
     9b2:	724d      	strb	r5, [r1, #9]
     9b4:	7208      	strb	r0, [r1, #8]
     9b6:	bc70      	pop	{r4, r5, r6}
     9b8:	4770      	bx	lr
     9ba:	2000      	movs	r0, #0
     9bc:	bc70      	pop	{r4, r5, r6}
     9be:	4770      	bx	lr

000009c0 <USBDeviceConnected::addEndpoint(unsigned char, USBEndpoint*)>:
     9c0:	2903      	cmp	r1, #3
     9c2:	b4f0      	push	{r4, r5, r6, r7}
     9c4:	d815      	bhi.n	9f2 <USBDeviceConnected::addEndpoint(unsigned char, USBEndpoint*)+0x32>
     9c6:	010d      	lsls	r5, r1, #4
     9c8:	1a6c      	subs	r4, r5, r1
     9ca:	eb00 0484 	add.w	r4, r0, r4, lsl #2
     9ce:	7a23      	ldrb	r3, [r4, #8]
     9d0:	b17b      	cbz	r3, 9f2 <USBDeviceConnected::addEndpoint(unsigned char, USBEndpoint*)+0x32>
     9d2:	7a67      	ldrb	r7, [r4, #9]
     9d4:	2f02      	cmp	r7, #2
     9d6:	d80c      	bhi.n	9f2 <USBDeviceConnected::addEndpoint(unsigned char, USBEndpoint*)+0x32>
     9d8:	f8d4 c010 	ldr.w	r12, [r4, #16]
     9dc:	3701      	adds	r7, #1
     9de:	7267      	strb	r7, [r4, #9]
     9e0:	f1bc 0f00 	cmp.w	r12, #0
     9e4:	d00b      	beq.n	9fe <USBDeviceConnected::addEndpoint(unsigned char, USBEndpoint*)+0x3e>
     9e6:	6966      	ldr	r6, [r4, #20]
     9e8:	b13e      	cbz	r6, 9fa <USBDeviceConnected::addEndpoint(unsigned char, USBEndpoint*)+0x3a>
     9ea:	69a4      	ldr	r4, [r4, #24]
     9ec:	f04f 0c02 	mov.w	r12, #2
     9f0:	b12c      	cbz	r4, 9fe <USBDeviceConnected::addEndpoint(unsigned char, USBEndpoint*)+0x3e>
     9f2:	2300      	movs	r3, #0
     9f4:	4618      	mov	r0, r3
     9f6:	bcf0      	pop	{r4, r5, r6, r7}
     9f8:	4770      	bx	lr
     9fa:	f04f 0c01 	mov.w	r12, #1
     9fe:	1a69      	subs	r1, r5, r1
     a00:	448c      	add	r12, r1
     a02:	f10c 0c04 	add.w	r12, r12, #4
     a06:	f840 202c 	str.w	r2, [r0, r12, lsl #2]
     a0a:	e7f3      	b.n	9f4 <USBDeviceConnected::addEndpoint(unsigned char, USBEndpoint*)+0x34>

00000a0c <USBDeviceConnected::init(unsigned char, unsigned char, bool)>:
     a0c:	b5f8      	push	{r3, r4, r5, r6, r7, lr}
     a0e:	4604      	mov	r4, r0
     a10:	460d      	mov	r5, r1
     a12:	4616      	mov	r6, r2
     a14:	461f      	mov	r7, r3
     a16:	f7ff ff59 	bl	8cc <USBDeviceConnected::init()>
     a1a:	f884 50fc 	strb.w	r5, [r4, #252]	; 0xfc
     a1e:	f884 60fd 	strb.w	r6, [r4, #253]	; 0xfd
     a22:	f884 7106 	strb.w	r7, [r4, #262]	; 0x106
     a26:	bdf8      	pop	{r3, r4, r5, r6, r7, pc}

00000a28 <USBDeviceConnected::disconnect()>:
     a28:	b510      	push	{r4, lr}
     a2a:	4604      	mov	r4, r0
     a2c:	301c      	adds	r0, #28
     a2e:	f003 fc43 	bl	42b8 <mbed::FunctionPointer::call()>
     a32:	f104 0058 	add.w	r0, r4, #88	; 0x58
     a36:	f003 fc3f 	bl	42b8 <mbed::FunctionPointer::call()>
     a3a:	f104 0094 	add.w	r0, r4, #148	; 0x94
     a3e:	f003 fc3b 	bl	42b8 <mbed::FunctionPointer::call()>
     a42:	f104 00d0 	add.w	r0, r4, #208	; 0xd0
     a46:	f003 fc37 	bl	42b8 <mbed::FunctionPointer::call()>
     a4a:	4620      	mov	r0, r4
     a4c:	e8bd 4010 	ldmia.w	sp!, {r4, lr}
     a50:	f7ff bf3c 	b.w	8cc <USBDeviceConnected::init()>

00000a54 <USBDeviceConnected::getEndpoint(unsigned char, ENDPOINT_TYPE, ENDPOINT_DIRECTION, unsigned char)>:
     a54:	b470      	push	{r4, r5, r6}
     a56:	2903      	cmp	r1, #3
     a58:	f89d 600c 	ldrb.w	r6, [sp, #12]
     a5c:	d810      	bhi.n	a80 <USBDeviceConnected::getEndpoint(unsigned char, ENDPOINT_TYPE, ENDPOINT_DIRECTION, unsigned char)+0x2c>
     a5e:	ebc1 1101 	rsb	r1, r1, r1, lsl #4
     a62:	0089      	lsls	r1, r1, #2
     a64:	f101 040c 	add.w	r4, r1, #12
     a68:	f100 0518 	add.w	r5, r0, #24
     a6c:	4404      	add	r4, r0
     a6e:	4429      	add	r1, r5
     a70:	f854 0f04 	ldr.w	r0, [r4, #4]!
     a74:	f890 5024 	ldrb.w	r5, [r0, #36]	; 0x24
     a78:	4295      	cmp	r5, r2
     a7a:	d004      	beq.n	a86 <USBDeviceConnected::getEndpoint(unsigned char, ENDPOINT_TYPE, ENDPOINT_DIRECTION, unsigned char)+0x32>
     a7c:	428c      	cmp	r4, r1
     a7e:	d1f7      	bne.n	a70 <USBDeviceConnected::getEndpoint(unsigned char, ENDPOINT_TYPE, ENDPOINT_DIRECTION, unsigned char)+0x1c>
     a80:	2000      	movs	r0, #0
     a82:	bc70      	pop	{r4, r5, r6}
     a84:	4770      	bx	lr
     a86:	f890 5026 	ldrb.w	r5, [r0, #38]	; 0x26
     a8a:	429d      	cmp	r5, r3
     a8c:	d1f6      	bne.n	a7c <USBDeviceConnected::getEndpoint(unsigned char, ENDPOINT_TYPE, ENDPOINT_DIRECTION, unsigned char)+0x28>
     a8e:	1e75      	subs	r5, r6, #1
     a90:	2e00      	cmp	r6, #0
     a92:	d0f6      	beq.n	a82 <USBDeviceConnected::getEndpoint(unsigned char, ENDPOINT_TYPE, ENDPOINT_DIRECTION, unsigned char)+0x2e>
     a94:	b2ee      	uxtb	r6, r5
     a96:	e7f1      	b.n	a7c <USBDeviceConnected::getEndpoint(unsigned char, ENDPOINT_TYPE, ENDPOINT_DIRECTION, unsigned char)+0x28>

00000a98 <USBDeviceConnected::getEndpoint(unsigned char, unsigned char)>:
     a98:	2903      	cmp	r1, #3
     a9a:	d808      	bhi.n	aae <USBDeviceConnected::getEndpoint(unsigned char, unsigned char)+0x16>
     a9c:	2a02      	cmp	r2, #2
     a9e:	d806      	bhi.n	aae <USBDeviceConnected::getEndpoint(unsigned char, unsigned char)+0x16>
     aa0:	ebc1 1101 	rsb	r1, r1, r1, lsl #4
     aa4:	440a      	add	r2, r1
     aa6:	3204      	adds	r2, #4
     aa8:	f850 0022 	ldr.w	r0, [r0, r2, lsl #2]
     aac:	4770      	bx	lr
     aae:	2000      	movs	r0, #0
     ab0:	4770      	bx	lr
     ab2:	bf00      	nop

00000ab4 <USBHost::deviceConnected(int, int, bool, USBHostHub*)>:
     ab4:	e92d 4ff8 	stmdb	sp!, {r3, r4, r5, r6, r7, r8, r9, r10, r11, lr}
     ab8:	f8dd 8028 	ldr.w	r8, [sp, #40]	; 0x28
     abc:	f500 54d9 	add.w	r4, r0, #6944	; 0x1b20
     ac0:	4681      	mov	r9, r0
     ac2:	469b      	mov	r11, r3
     ac4:	b2cf      	uxtb	r7, r1
     ac6:	fa5f fa82 	uxtb.w	r10, r2
     aca:	340c      	adds	r4, #12
     acc:	2500      	movs	r5, #0
     ace:	f894 60f8 	ldrb.w	r6, [r4, #248]	; 0xf8
     ad2:	42be      	cmp	r6, r7
     ad4:	d01b      	beq.n	b0e <USBHost::deviceConnected(int, int, bool, USBHostHub*)+0x5a>
     ad6:	3501      	adds	r5, #1
     ad8:	2d05      	cmp	r5, #5
     ada:	f504 7486 	add.w	r4, r4, #268	; 0x10c
     ade:	d1f6      	bne.n	ace <USBHost::deviceConnected(int, int, bool, USBHostHub*)+0x1a>
     ae0:	f242 1450 	movw	r4, #8528	; 0x2150
     ae4:	f859 0004 	ldr.w	r0, [r9, r4]
     ae8:	2100      	movs	r1, #0
     aea:	f002 fae7 	bl	30bc <osMailAlloc>
     aee:	2301      	movs	r3, #1
     af0:	7207      	strb	r7, [r0, #8]
     af2:	f880 a009 	strb.w	r10, [r0, #9]
     af6:	f880 b00a 	strb.w	r11, [r0, #10]
     afa:	f8c0 800c 	str.w	r8, [r0, #12]
     afe:	7003      	strb	r3, [r0, #0]
     b00:	4601      	mov	r1, r0
     b02:	f859 0004 	ldr.w	r0, [r9, r4]
     b06:	e8bd 4ff8 	ldmia.w	sp!, {r3, r4, r5, r6, r7, r8, r9, r10, r11, lr}
     b0a:	f002 baf9 	b.w	3100 <osMailPut>
     b0e:	f894 30f9 	ldrb.w	r3, [r4, #249]	; 0xf9
     b12:	4553      	cmp	r3, r10
     b14:	d1df      	bne.n	ad6 <USBHost::deviceConnected(int, int, bool, USBHostHub*)+0x22>
     b16:	f1b8 0f00 	cmp.w	r8, #0
     b1a:	d002      	beq.n	b22 <USBHost::deviceConnected(int, int, bool, USBHostHub*)+0x6e>
     b1c:	6821      	ldr	r1, [r4, #0]
     b1e:	4588      	cmp	r8, r1
     b20:	d1d9      	bne.n	ad6 <USBHost::deviceConnected(int, int, bool, USBHostHub*)+0x22>
     b22:	eb09 0305 	add.w	r3, r9, r5
     b26:	f503 5302 	add.w	r3, r3, #8320	; 0x2080
     b2a:	789b      	ldrb	r3, [r3, #2]
     b2c:	2b00      	cmp	r3, #0
     b2e:	d0d7      	beq.n	ae0 <USBHost::deviceConnected(int, int, bool, USBHostHub*)+0x2c>
     b30:	e8bd 8ff8 	ldmia.w	sp!, {r3, r4, r5, r6, r7, r8, r9, r10, r11, pc}

00000b34 <USBHost::deviceDisconnected(int, int, USBHostHub*, unsigned long)>:
     b34:	e92d 47f0 	stmdb	sp!, {r4, r5, r6, r7, r8, r9, r10, lr}
     b38:	f500 54d9 	add.w	r4, r0, #6944	; 0x1b20
     b3c:	4681      	mov	r9, r0
     b3e:	4698      	mov	r8, r3
     b40:	b2cf      	uxtb	r7, r1
     b42:	fa5f fa82 	uxtb.w	r10, r2
     b46:	340c      	adds	r4, #12
     b48:	2500      	movs	r5, #0
     b4a:	f894 60f8 	ldrb.w	r6, [r4, #248]	; 0xf8
     b4e:	42be      	cmp	r6, r7
     b50:	d006      	beq.n	b60 <USBHost::deviceDisconnected(int, int, USBHostHub*, unsigned long)+0x2c>
     b52:	3501      	adds	r5, #1
     b54:	2d05      	cmp	r5, #5
     b56:	f504 7486 	add.w	r4, r4, #268	; 0x10c
     b5a:	d1f6      	bne.n	b4a <USBHost::deviceDisconnected(int, int, USBHostHub*, unsigned long)+0x16>
     b5c:	e8bd 87f0 	ldmia.w	sp!, {r4, r5, r6, r7, r8, r9, r10, pc}
     b60:	f894 30f9 	ldrb.w	r3, [r4, #249]	; 0xf9
     b64:	4553      	cmp	r3, r10
     b66:	d1f4      	bne.n	b52 <USBHost::deviceDisconnected(int, int, USBHostHub*, unsigned long)+0x1e>
     b68:	f1b8 0f00 	cmp.w	r8, #0
     b6c:	d002      	beq.n	b74 <USBHost::deviceDisconnected(int, int, USBHostHub*, unsigned long)+0x40>
     b6e:	6821      	ldr	r1, [r4, #0]
     b70:	4588      	cmp	r8, r1
     b72:	d1ee      	bne.n	b52 <USBHost::deviceDisconnected(int, int, USBHostHub*, unsigned long)+0x1e>
     b74:	eb09 0305 	add.w	r3, r9, r5
     b78:	f503 5301 	add.w	r3, r3, #8256	; 0x2040
     b7c:	3320      	adds	r3, #32
     b7e:	791b      	ldrb	r3, [r3, #4]
     b80:	b90b      	cbnz	r3, b86 <USBHost::deviceDisconnected(int, int, USBHostHub*, unsigned long)+0x52>
     b82:	e8bd 87f0 	ldmia.w	sp!, {r4, r5, r6, r7, r8, r9, r10, pc}
     b86:	f242 1450 	movw	r4, #8528	; 0x2150
     b8a:	f859 0004 	ldr.w	r0, [r9, r4]
     b8e:	2100      	movs	r1, #0
     b90:	f002 fa94 	bl	30bc <osMailAlloc>
     b94:	2302      	movs	r3, #2
     b96:	7207      	strb	r7, [r0, #8]
     b98:	f880 a009 	strb.w	r10, [r0, #9]
     b9c:	f8c0 800c 	str.w	r8, [r0, #12]
     ba0:	7003      	strb	r3, [r0, #0]
     ba2:	4601      	mov	r1, r0
     ba4:	f859 0004 	ldr.w	r0, [r9, r4]
     ba8:	e8bd 47f0 	ldmia.w	sp!, {r4, r5, r6, r7, r8, r9, r10, lr}
     bac:	f002 baa8 	b.w	3100 <osMailPut>

00000bb0 <USBHost::transferCompleted(unsigned long)>:
     bb0:	e92d 41f0 	stmdb	sp!, {r4, r5, r6, r7, r8, lr}
     bb4:	b082      	sub	sp, #8
     bb6:	9101      	str	r1, [sp, #4]
     bb8:	9b01      	ldr	r3, [sp, #4]
     bba:	2b00      	cmp	r3, #0
     bbc:	d042      	beq.n	c44 <Stack_Size+0x44>
     bbe:	2300      	movs	r3, #0
     bc0:	9c01      	ldr	r4, [sp, #4]
     bc2:	68a2      	ldr	r2, [r4, #8]
     bc4:	9201      	str	r2, [sp, #4]
     bc6:	68a2      	ldr	r2, [r4, #8]
     bc8:	60a3      	str	r3, [r4, #8]
     bca:	9a01      	ldr	r2, [sp, #4]
     bcc:	4623      	mov	r3, r4
     bce:	2a00      	cmp	r2, #0
     bd0:	d1f6      	bne.n	bc0 <USBHost::transferCompleted(unsigned long)+0x10>
     bd2:	2c00      	cmp	r4, #0
     bd4:	d036      	beq.n	c44 <Stack_Size+0x44>
     bd6:	f500 5805 	add.w	r8, r0, #8512	; 0x2140
     bda:	f108 0810 	add.w	r8, r8, #16
     bde:	68a6      	ldr	r6, [r4, #8]
     be0:	6923      	ldr	r3, [r4, #16]
     be2:	b1ab      	cbz	r3, c10 <Stack_Size+0x10>
     be4:	6925      	ldr	r5, [r4, #16]
     be6:	6823      	ldr	r3, [r4, #0]
     be8:	0f1b      	lsrs	r3, r3, #28
     bea:	d014      	beq.n	c16 <Stack_Size+0x16>
     bec:	6827      	ldr	r7, [r4, #0]
     bee:	0f3f      	lsrs	r7, r7, #28
     bf0:	4628      	mov	r0, r5
     bf2:	4621      	mov	r1, r4
     bf4:	f001 fc24 	bl	2440 <USBEndpoint::unqueueTransfer(HCTD volatile*)>
     bf8:	f895 3024 	ldrb.w	r3, [r5, #36]	; 0x24
     bfc:	b99b      	cbnz	r3, c26 <Stack_Size+0x26>
     bfe:	4639      	mov	r1, r7
     c00:	4628      	mov	r0, r5
     c02:	f001 fbf3 	bl	23ec <USBEndpoint::setState(unsigned char)>
     c06:	6868      	ldr	r0, [r5, #4]
     c08:	2101      	movs	r1, #1
     c0a:	2200      	movs	r2, #0
     c0c:	f002 f928 	bl	2e60 <osMessagePut>
     c10:	b1c6      	cbz	r6, c44 <Stack_Size+0x44>
     c12:	4634      	mov	r4, r6
     c14:	e7e3      	b.n	bde <USBHost::transferCompleted(unsigned long)+0x2e>
     c16:	6863      	ldr	r3, [r4, #4]
     c18:	b1bb      	cbz	r3, c4a <Stack_Size+0x4a>
     c1a:	6862      	ldr	r2, [r4, #4]
     c1c:	6b6b      	ldr	r3, [r5, #52]	; 0x34
     c1e:	2710      	movs	r7, #16
     c20:	1ad3      	subs	r3, r2, r3
     c22:	632b      	str	r3, [r5, #48]	; 0x30
     c24:	e7e4      	b.n	bf0 <USBHost::transferCompleted(unsigned long)+0x40>
     c26:	f8d8 0000 	ldr.w	r0, [r8]
     c2a:	2100      	movs	r1, #0
     c2c:	f002 fa46 	bl	30bc <osMailAlloc>
     c30:	2304      	movs	r3, #4
     c32:	6044      	str	r4, [r0, #4]
     c34:	72c7      	strb	r7, [r0, #11]
     c36:	7003      	strb	r3, [r0, #0]
     c38:	4601      	mov	r1, r0
     c3a:	f8d8 0000 	ldr.w	r0, [r8]
     c3e:	f002 fa5f 	bl	3100 <osMailPut>
     c42:	e7dc      	b.n	bfe <USBHost::transferCompleted(unsigned long)+0x4e>
     c44:	b002      	add	sp, #8
     c46:	e8bd 81f0 	ldmia.w	sp!, {r4, r5, r6, r7, r8, pc}
     c4a:	2710      	movs	r7, #16
     c4c:	e7d0      	b.n	bf0 <USBHost::transferCompleted(unsigned long)+0x40>
     c4e:	bf00      	nop

00000c50 <USBHost::USBHost()>:
     c50:	e92d 4ff0 	stmdb	sp!, {r4, r5, r6, r7, r8, r9, r10, r11, lr}
     c54:	b083      	sub	sp, #12
     c56:	4683      	mov	r11, r0
     c58:	f001 fc12 	bl	2480 <USBHALHost::USBHALHost()>
     c5c:	4b72      	ldr	r3, [pc, #456]	; (e28 <USBHost::USBHost()+0x1d8>)
     c5e:	46d8      	mov	r8, r11
     c60:	f848 3bc8 	str.w	r3, [r8], #200
     c64:	f50b 59d8 	add.w	r9, r11, #6912	; 0x1b00
     c68:	4644      	mov	r4, r8
     c6a:	f109 0908 	add.w	r9, r9, #8
     c6e:	f10b 07cc 	add.w	r7, r11, #204	; 0xcc
     c72:	f04f 0a00 	mov.w	r10, #0
     c76:	e00c      	b.n	c92 <USBHost::USBHost()+0x42>
     c78:	f104 0038 	add.w	r0, r4, #56	; 0x38
     c7c:	2100      	movs	r1, #0
     c7e:	f003 fb15 	bl	42ac <mbed::FunctionPointer::FunctionPointer(void (*)())>
     c82:	230f      	movs	r3, #15
     c84:	f8c4 a054 	str.w	r10, [r4, #84]	; 0x54
     c88:	f884 3025 	strb.w	r3, [r4, #37]	; 0x25
     c8c:	3470      	adds	r4, #112	; 0x70
     c8e:	454c      	cmp	r4, r9
     c90:	d018      	beq.n	cc4 <USBHost::USBHost()+0x74>
     c92:	f104 0510 	add.w	r5, r4, #16
     c96:	2100      	movs	r1, #0
     c98:	2214      	movs	r2, #20
     c9a:	ebc8 0604 	rsb	r6, r8, r4
     c9e:	4628      	mov	r0, r5
     ca0:	f005 f86f 	bl	5d82 <memset>
     ca4:	19f3      	adds	r3, r6, r7
     ca6:	2201      	movs	r2, #1
     ca8:	609d      	str	r5, [r3, #8]
     caa:	605a      	str	r2, [r3, #4]
     cac:	f104 0008 	add.w	r0, r4, #8
     cb0:	2100      	movs	r1, #0
     cb2:	f002 f8bb 	bl	2e2c <osMessageCreate>
     cb6:	51f0      	str	r0, [r6, r7]
     cb8:	2800      	cmp	r0, #0
     cba:	d1dd      	bne.n	c78 <USBHost::USBHost()+0x28>
     cbc:	485b      	ldr	r0, [pc, #364]	; (e2c <USBHost::USBHost()+0x1dc>)
     cbe:	f003 fa5f 	bl	4180 <error>
     cc2:	e7d9      	b.n	c78 <USBHost::USBHost()+0x28>
     cc4:	f50b 56d9 	add.w	r6, r11, #6944	; 0x1b20
     cc8:	3608      	adds	r6, #8
     cca:	4634      	mov	r4, r6
     ccc:	f206 553c 	addw	r5, r6, #1340	; 0x53c
     cd0:	4620      	mov	r0, r4
     cd2:	f504 7486 	add.w	r4, r4, #268	; 0x10c
     cd6:	f7ff fe3b 	bl	950 <USBDeviceConnected::USBDeviceConnected()>
     cda:	42ac      	cmp	r4, r5
     cdc:	d1f8      	bne.n	cd0 <USBHost::USBHost()+0x80>
     cde:	f50b 5802 	add.w	r8, r11, #8320	; 0x2080
     ce2:	f108 0808 	add.w	r8, r8, #8
     ce6:	4640      	mov	r0, r8
     ce8:	f50b 5703 	add.w	r7, r11, #8384	; 0x20c0
     cec:	f001 f900 	bl	1ef0 <USBHostHub::USBHostHub()>
     cf0:	4638      	mov	r0, r7
     cf2:	f04f 0a00 	mov.w	r10, #0
     cf6:	f50b 5405 	add.w	r4, r11, #8512	; 0x2140
     cfa:	f001 f8f9 	bl	1ef0 <USBHostHub::USBHostHub()>
     cfe:	f44f 6340 	mov.w	r3, #3072	; 0xc00
     d02:	f50b 5004 	add.w	r0, r11, #8448	; 0x2100
     d06:	f104 0920 	add.w	r9, r4, #32
     d0a:	e88d 0408 	stmia.w	sp, {r3, r10}
     d0e:	4948      	ldr	r1, [pc, #288]	; (e30 <USBHost::USBHost()+0x1e0>)
     d10:	4653      	mov	r3, r10
     d12:	465a      	mov	r2, r11
     d14:	3004      	adds	r0, #4
     d16:	f003 f87f 	bl	3e18 <rtos::Thread::Thread(void (*)(void const*), void*, osPriority, unsigned long, unsigned char*)>
     d1a:	f104 0558 	add.w	r5, r4, #88	; 0x58
     d1e:	4648      	mov	r0, r9
     d20:	4651      	mov	r1, r10
     d22:	2238      	movs	r2, #56	; 0x38
     d24:	f005 f82d 	bl	5d82 <memset>
     d28:	f8c4 9104 	str.w	r9, [r4, #260]	; 0x104
     d2c:	4628      	mov	r0, r5
     d2e:	4651      	mov	r1, r10
     d30:	22ac      	movs	r2, #172	; 0xac
     d32:	f005 f826 	bl	5d82 <memset>
     d36:	220a      	movs	r2, #10
     d38:	f504 7182 	add.w	r1, r4, #260	; 0x104
     d3c:	2310      	movs	r3, #16
     d3e:	6162      	str	r2, [r4, #20]
     d40:	f8c4 5108 	str.w	r5, [r4, #264]	; 0x108
     d44:	61e1      	str	r1, [r4, #28]
     d46:	61a3      	str	r3, [r4, #24]
     d48:	4651      	mov	r1, r10
     d4a:	f104 0014 	add.w	r0, r4, #20
     d4e:	f002 f99b 	bl	3088 <osMailCreate>
     d52:	f242 1350 	movw	r3, #8528	; 0x2150
     d56:	f84b 0003 	str.w	r0, [r11, r3]
     d5a:	f50b 5009 	add.w	r0, r11, #8768	; 0x2240
     d5e:	300c      	adds	r0, #12
     d60:	f003 f80e 	bl	3d80 <rtos::Mutex::Mutex()>
     d64:	f50b 5009 	add.w	r0, r11, #8768	; 0x2240
     d68:	3020      	adds	r0, #32
     d6a:	f003 f809 	bl	3d80 <rtos::Mutex::Mutex()>
     d6e:	f641 3414 	movw	r4, #6932	; 0x1b14
     d72:	f641 3210 	movw	r2, #6928	; 0x1b10
     d76:	f641 3c0c 	movw	r12, #6924	; 0x1b0c
     d7a:	f641 3e18 	movw	lr, #6936	; 0x1b18
     d7e:	f641 301c 	movw	r0, #6940	; 0x1b1c
     d82:	f50b 51d9 	add.w	r1, r11, #6944	; 0x1b20
     d86:	f641 3324 	movw	r3, #6948	; 0x1b24
     d8a:	f50b 59e1 	add.w	r9, r11, #7200	; 0x1c20
     d8e:	f84b a00c 	str.w	r10, [r11, r12]
     d92:	4655      	mov	r5, r10
     d94:	f84b a002 	str.w	r10, [r11, r2]
     d98:	f109 0914 	add.w	r9, r9, #20
     d9c:	f84b a004 	str.w	r10, [r11, r4]
     da0:	4652      	mov	r2, r10
     da2:	f84b a00e 	str.w	r10, [r11, lr]
     da6:	465c      	mov	r4, r11
     da8:	f84b a000 	str.w	r10, [r11, r0]
     dac:	f8c1 a000 	str.w	r10, [r1]
     db0:	f8ab a0c4 	strh.w	r10, [r11, #196]	; 0xc4
     db4:	f80b a003 	strb.w	r10, [r11, r3]
     db8:	eb0b 0c05 	add.w	r12, r11, r5
     dbc:	f50c 5301 	add.w	r3, r12, #8256	; 0x2040
     dc0:	3501      	adds	r5, #1
     dc2:	f504 5e01 	add.w	lr, r4, #8256	; 0x2040
     dc6:	469a      	mov	r10, r3
     dc8:	f50c 5c02 	add.w	r12, r12, #8320	; 0x2080
     dcc:	2d05      	cmp	r5, #5
     dce:	f883 2024 	strb.w	r2, [r3, #36]	; 0x24
     dd2:	f104 0404 	add.w	r4, r4, #4
     dd6:	f886 5102 	strb.w	r5, [r6, #258]	; 0x102
     dda:	f88a 203d 	strb.w	r2, [r10, #61]	; 0x3d
     dde:	f04f 0600 	mov.w	r6, #0
     de2:	f88c 2002 	strb.w	r2, [r12, #2]
     de6:	f88e 2029 	strb.w	r2, [lr, #41]	; 0x29
     dea:	f88e 202a 	strb.w	r2, [lr, #42]	; 0x2a
     dee:	f88e 202b 	strb.w	r2, [lr, #43]	; 0x2b
     df2:	f88e 202c 	strb.w	r2, [lr, #44]	; 0x2c
     df6:	d003      	beq.n	e00 <USBHost::USBHost()+0x1b0>
     df8:	464e      	mov	r6, r9
     dfa:	f509 7986 	add.w	r9, r9, #268	; 0x10c
     dfe:	e7db      	b.n	db8 <USBHost::USBHost()+0x168>
     e00:	4640      	mov	r0, r8
     e02:	4659      	mov	r1, r11
     e04:	f001 f88c 	bl	1f20 <USBHostHub::setHost(USBHost*)>
     e08:	f242 03f8 	movw	r3, #8440	; 0x20f8
     e0c:	4638      	mov	r0, r7
     e0e:	f80b 6003 	strb.w	r6, [r11, r3]
     e12:	4659      	mov	r1, r11
     e14:	f001 f884 	bl	1f20 <USBHostHub::setHost(USBHost*)>
     e18:	f242 03f9 	movw	r3, #8441	; 0x20f9
     e1c:	4658      	mov	r0, r11
     e1e:	f80b 6003 	strb.w	r6, [r11, r3]
     e22:	b003      	add	sp, #12
     e24:	e8bd 8ff0 	ldmia.w	sp!, {r4, r5, r6, r7, r8, r9, r10, r11, pc}
     e28:	00007e68 	.word	0x00007e68
     e2c:	00007e78 	.word	0x00007e78
     e30:	00001cbd 	.word	0x00001cbd

00000e34 <USBHost::getHostInst()>:
     e34:	b538      	push	{r3, r4, r5, lr}
     e36:	4c08      	ldr	r4, [pc, #32]	; (e58 <USBHost::getHostInst()+0x24>)
     e38:	6820      	ldr	r0, [r4, #0]
     e3a:	b100      	cbz	r0, e3e <USBHost::getHostInst()+0xa>
     e3c:	bd38      	pop	{r3, r4, r5, pc}
     e3e:	f242 4014 	movw	r0, #9236	; 0x2414
     e42:	f004 fb1f 	bl	5484 <operator new(unsigned int)>
     e46:	4605      	mov	r5, r0
     e48:	f7ff ff02 	bl	c50 <USBHost::USBHost()>
     e4c:	4628      	mov	r0, r5
     e4e:	6025      	str	r5, [r4, #0]
     e50:	f001 fb42 	bl	24d8 <USBHALHost::init()>
     e54:	6820      	ldr	r0, [r4, #0]
     e56:	bd38      	pop	{r3, r4, r5, pc}
     e58:	10000200 	.word	0x10000200

00000e5c <USBHost::unqueueEndpoint(USBEndpoint*)>:
     e5c:	f641 3310 	movw	r3, #6928	; 0x1b10
     e60:	e92d 41f0 	stmdb	sp!, {r4, r5, r6, r7, r8, lr}
     e64:	58c5      	ldr	r5, [r0, r3]
     e66:	4606      	mov	r6, r0
     e68:	b145      	cbz	r5, e7c <USBHost::unqueueEndpoint(USBEndpoint*)+0x20>
     e6a:	42a9      	cmp	r1, r5
     e6c:	d103      	bne.n	e76 <USBHost::unqueueEndpoint(USBEndpoint*)+0x1a>
     e6e:	e014      	b.n	e9a <USBHost::unqueueEndpoint(USBEndpoint*)+0x3e>
     e70:	42a1      	cmp	r1, r4
     e72:	d013      	beq.n	e9c <USBHost::unqueueEndpoint(USBEndpoint*)+0x40>
     e74:	4625      	mov	r5, r4
     e76:	6d6c      	ldr	r4, [r5, #84]	; 0x54
     e78:	2c00      	cmp	r4, #0
     e7a:	d1f9      	bne.n	e70 <USBHost::unqueueEndpoint(USBEndpoint*)+0x14>
     e7c:	f641 3314 	movw	r3, #6932	; 0x1b14
     e80:	58f5      	ldr	r5, [r6, r3]
     e82:	b1f5      	cbz	r5, ec2 <USBHost::unqueueEndpoint(USBEndpoint*)+0x66>
     e84:	42a9      	cmp	r1, r5
     e86:	d103      	bne.n	e90 <USBHost::unqueueEndpoint(USBEndpoint*)+0x34>
     e88:	e007      	b.n	e9a <USBHost::unqueueEndpoint(USBEndpoint*)+0x3e>
     e8a:	42a1      	cmp	r1, r4
     e8c:	d006      	beq.n	e9c <USBHost::unqueueEndpoint(USBEndpoint*)+0x40>
     e8e:	4625      	mov	r5, r4
     e90:	6d6c      	ldr	r4, [r5, #84]	; 0x54
     e92:	2c00      	cmp	r4, #0
     e94:	d1f9      	bne.n	e8a <USBHost::unqueueEndpoint(USBEndpoint*)+0x2e>
     e96:	e8bd 81f0 	ldmia.w	sp!, {r4, r5, r6, r7, r8, pc}
     e9a:	462c      	mov	r4, r5
     e9c:	6d67      	ldr	r7, [r4, #84]	; 0x54
     e9e:	4628      	mov	r0, r5
     ea0:	4639      	mov	r1, r7
     ea2:	b187      	cbz	r7, ec6 <USBHost::unqueueEndpoint(USBEndpoint*)+0x6a>
     ea4:	f641 3510 	movw	r5, #6928	; 0x1b10
     ea8:	f001 fae2 	bl	2470 <USBEndpoint::queueEndpoint(USBEndpoint*)>
     eac:	5973      	ldr	r3, [r6, r5]
     eae:	429c      	cmp	r4, r3
     eb0:	d029      	beq.n	f06 <USBHost::unqueueEndpoint(USBEndpoint*)+0xaa>
     eb2:	f641 3514 	movw	r5, #6932	; 0x1b14
     eb6:	5973      	ldr	r3, [r6, r5]
     eb8:	429c      	cmp	r4, r3
     eba:	d01c      	beq.n	ef6 <USBHost::unqueueEndpoint(USBEndpoint*)+0x9a>
     ebc:	230f      	movs	r3, #15
     ebe:	f884 3025 	strb.w	r3, [r4, #37]	; 0x25
     ec2:	e8bd 81f0 	ldmia.w	sp!, {r4, r5, r6, r7, r8, pc}
     ec6:	f641 3810 	movw	r8, #6928	; 0x1b10
     eca:	f001 fad1 	bl	2470 <USBEndpoint::queueEndpoint(USBEndpoint*)>
     ece:	f856 3008 	ldr.w	r3, [r6, r8]
     ed2:	429c      	cmp	r4, r3
     ed4:	d02b      	beq.n	f2e <USBHost::unqueueEndpoint(USBEndpoint*)+0xd2>
     ed6:	f641 3814 	movw	r8, #6932	; 0x1b14
     eda:	f856 3008 	ldr.w	r3, [r6, r8]
     ede:	429c      	cmp	r4, r3
     ee0:	d01d      	beq.n	f1e <USBHost::unqueueEndpoint(USBEndpoint*)+0xc2>
     ee2:	f894 3024 	ldrb.w	r3, [r4, #36]	; 0x24
     ee6:	2b02      	cmp	r3, #2
     ee8:	d015      	beq.n	f16 <USBHost::unqueueEndpoint(USBEndpoint*)+0xba>
     eea:	2b03      	cmp	r3, #3
     eec:	d1e6      	bne.n	ebc <USBHost::unqueueEndpoint(USBEndpoint*)+0x60>
     eee:	f506 56d9 	add.w	r6, r6, #6944	; 0x1b20
     ef2:	6035      	str	r5, [r6, #0]
     ef4:	e7e2      	b.n	ebc <USBHost::unqueueEndpoint(USBEndpoint*)+0x60>
     ef6:	6d63      	ldr	r3, [r4, #84]	; 0x54
     ef8:	4630      	mov	r0, r6
     efa:	6d99      	ldr	r1, [r3, #88]	; 0x58
     efc:	f001 fb94 	bl	2628 <USBHALHost::updateInterruptHeadED(unsigned long)>
     f00:	6d63      	ldr	r3, [r4, #84]	; 0x54
     f02:	5173      	str	r3, [r6, r5]
     f04:	e7da      	b.n	ebc <USBHost::unqueueEndpoint(USBEndpoint*)+0x60>
     f06:	6d63      	ldr	r3, [r4, #84]	; 0x54
     f08:	4630      	mov	r0, r6
     f0a:	6d99      	ldr	r1, [r3, #88]	; 0x58
     f0c:	f001 fb80 	bl	2610 <USBHALHost::updateBulkHeadED(unsigned long)>
     f10:	6d63      	ldr	r3, [r4, #84]	; 0x54
     f12:	5173      	str	r3, [r6, r5]
     f14:	e7d2      	b.n	ebc <USBHost::unqueueEndpoint(USBEndpoint*)+0x60>
     f16:	f641 331c 	movw	r3, #6940	; 0x1b1c
     f1a:	50f5      	str	r5, [r6, r3]
     f1c:	e7ce      	b.n	ebc <USBHost::unqueueEndpoint(USBEndpoint*)+0x60>
     f1e:	4639      	mov	r1, r7
     f20:	4630      	mov	r0, r6
     f22:	f001 fb81 	bl	2628 <USBHALHost::updateInterruptHeadED(unsigned long)>
     f26:	6d63      	ldr	r3, [r4, #84]	; 0x54
     f28:	f846 3008 	str.w	r3, [r6, r8]
     f2c:	e7d9      	b.n	ee2 <USBHost::unqueueEndpoint(USBEndpoint*)+0x86>
     f2e:	4639      	mov	r1, r7
     f30:	4630      	mov	r0, r6
     f32:	f001 fb6d 	bl	2610 <USBHALHost::updateBulkHeadED(unsigned long)>
     f36:	6d63      	ldr	r3, [r4, #84]	; 0x54
     f38:	f846 3008 	str.w	r3, [r6, r8]
     f3c:	e7d1      	b.n	ee2 <USBHost::unqueueEndpoint(USBEndpoint*)+0x86>
     f3e:	bf00      	nop

00000f40 <USBHost::freeDevice(USBDeviceConnected*)>:
     f40:	e92d 4ff0 	stmdb	sp!, {r4, r5, r6, r7, r8, r9, r10, r11, lr}
     f44:	f891 3103 	ldrb.w	r3, [r1, #259]	; 0x103
     f48:	b085      	sub	sp, #20
     f4a:	2b09      	cmp	r3, #9
     f4c:	460e      	mov	r6, r1
     f4e:	4605      	mov	r5, r0
     f50:	d015      	beq.n	f7e <USBHost::freeDevice(USBDeviceConnected*)+0x3e>
     f52:	6870      	ldr	r0, [r6, #4]
     f54:	b110      	cbz	r0, f5c <USBHost::freeDevice(USBDeviceConnected*)+0x1c>
     f56:	4631      	mov	r1, r6
     f58:	f000 ffea 	bl	1f30 <USBHostHub::deviceDisconnected(USBDeviceConnected*)>
     f5c:	f505 53d9 	add.w	r3, r5, #6944	; 0x1b20
     f60:	3308      	adds	r3, #8
     f62:	f04f 0b00 	mov.w	r11, #0
     f66:	429e      	cmp	r6, r3
     f68:	f503 7386 	add.w	r3, r3, #268	; 0x10c
     f6c:	d01e      	beq.n	fac <USBHost::freeDevice(USBDeviceConnected*)+0x6c>
     f6e:	f10b 0b01 	add.w	r11, r11, #1
     f72:	f1bb 0f05 	cmp.w	r11, #5
     f76:	d1f6      	bne.n	f66 <USBHost::freeDevice(USBDeviceConnected*)+0x26>
     f78:	b005      	add	sp, #20
     f7a:	e8bd 8ff0 	ldmia.w	sp!, {r4, r5, r6, r7, r8, r9, r10, r11, pc}
     f7e:	6808      	ldr	r0, [r1, #0]
     f80:	2800      	cmp	r0, #0
     f82:	d07c      	beq.n	107e <USBHost::freeDevice(USBDeviceConnected*)+0x13e>
     f84:	f000 ffdc 	bl	1f40 <USBHostHub::hubDisconnected()>
     f88:	f505 5302 	add.w	r3, r5, #8320	; 0x2080
     f8c:	6832      	ldr	r2, [r6, #0]
     f8e:	3308      	adds	r3, #8
     f90:	429a      	cmp	r2, r3
     f92:	d07b      	beq.n	108c <USBHost::freeDevice(USBDeviceConnected*)+0x14c>
     f94:	f505 5303 	add.w	r3, r5, #8384	; 0x20c0
     f98:	429a      	cmp	r2, r3
     f9a:	bf08      	it	eq
     f9c:	2301      	moveq	r3, #1
     f9e:	d1d8      	bne.n	f52 <USBHost::freeDevice(USBDeviceConnected*)+0x12>
     fa0:	442b      	add	r3, r5
     fa2:	f242 02f8 	movw	r2, #8440	; 0x20f8
     fa6:	2100      	movs	r1, #0
     fa8:	5499      	strb	r1, [r3, r2]
     faa:	e7d2      	b.n	f52 <USBHost::freeDevice(USBDeviceConnected*)+0x12>
     fac:	eb05 030b 	add.w	r3, r5, r11
     fb0:	f503 5101 	add.w	r1, r3, #8256	; 0x2040
     fb4:	2200      	movs	r2, #0
     fb6:	460b      	mov	r3, r1
     fb8:	f881 2024 	strb.w	r2, [r1, #36]	; 0x24
     fbc:	4690      	mov	r8, r2
     fbe:	eb05 0b8b 	add.w	r11, r5, r11, lsl #2
     fc2:	f883 203d 	strb.w	r2, [r3, #61]	; 0x3d
     fc6:	f106 0938 	add.w	r9, r6, #56	; 0x38
     fca:	eb0b 0308 	add.w	r3, r11, r8
     fce:	f503 5301 	add.w	r3, r3, #8256	; 0x2040
     fd2:	fa5f f788 	uxtb.w	r7, r8
     fd6:	f04f 0200 	mov.w	r2, #0
     fda:	f883 2029 	strb.w	r2, [r3, #41]	; 0x29
     fde:	4639      	mov	r1, r7
     fe0:	4630      	mov	r0, r6
     fe2:	f7ff fcc7 	bl	974 <USBDeviceConnected::getInterface(unsigned char)>
     fe6:	2800      	cmp	r0, #0
     fe8:	d03c      	beq.n	1064 <USBHost::freeDevice(USBDeviceConnected*)+0x124>
     fea:	2400      	movs	r4, #0
     fec:	e023      	b.n	1036 <USBHost::freeDevice(USBDeviceConnected*)+0xf6>
     fee:	4639      	mov	r1, r7
     ff0:	4630      	mov	r0, r6
     ff2:	f7ff fd51 	bl	a98 <USBDeviceConnected::getEndpoint(unsigned char, unsigned char)>
     ff6:	4682      	mov	r10, r0
     ff8:	4601      	mov	r1, r0
     ffa:	4628      	mov	r0, r5
     ffc:	f1ba 0f00 	cmp.w	r10, #0
    1000:	d018      	beq.n	1034 <USBHost::freeDevice(USBDeviceConnected*)+0xf4>
    1002:	f8da 2058 	ldr.w	r2, [r10, #88]	; 0x58
    1006:	6813      	ldr	r3, [r2, #0]
    1008:	f8d2 c000 	ldr.w	r12, [r2]
    100c:	f443 4380 	orr.w	r3, r3, #16384	; 0x4000
    1010:	6013      	str	r3, [r2, #0]
    1012:	f7ff ff23 	bl	e5c <USBHost::unqueueEndpoint(USBEndpoint*)>
    1016:	4628      	mov	r0, r5
    1018:	f8da 105c 	ldr.w	r1, [r10, #92]	; 0x5c
    101c:	f001 fb8a 	bl	2734 <USBHALHost::freeTD(unsigned char volatile*)>
    1020:	4628      	mov	r0, r5
    1022:	f8da 1060 	ldr.w	r1, [r10, #96]	; 0x60
    1026:	f001 fb85 	bl	2734 <USBHALHost::freeTD(unsigned char volatile*)>
    102a:	4628      	mov	r0, r5
    102c:	f8da 1058 	ldr.w	r1, [r10, #88]	; 0x58
    1030:	f001 fb78 	bl	2724 <USBHALHost::freeED(unsigned char volatile*)>
    1034:	3401      	adds	r4, #1
    1036:	4630      	mov	r0, r6
    1038:	4639      	mov	r1, r7
    103a:	f7ff fc9b 	bl	974 <USBDeviceConnected::getInterface(unsigned char)>
    103e:	7843      	ldrb	r3, [r0, #1]
    1040:	b2e2      	uxtb	r2, r4
    1042:	429c      	cmp	r4, r3
    1044:	dbd3      	blt.n	fee <USBHost::freeDevice(USBDeviceConnected*)+0xae>
    1046:	f896 20fc 	ldrb.w	r2, [r6, #252]	; 0xfc
    104a:	f896 30fd 	ldrb.w	r3, [r6, #253]	; 0xfd
    104e:	4810      	ldr	r0, [pc, #64]	; (1090 <USBHost::freeDevice(USBDeviceConnected*)+0x150>)
    1050:	9201      	str	r2, [sp, #4]
    1052:	9302      	str	r3, [sp, #8]
    1054:	f8cd 9000 	str.w	r9, [sp]
    1058:	490e      	ldr	r1, [pc, #56]	; (1094 <USBHost::freeDevice(USBDeviceConnected*)+0x154>)
    105a:	f240 12bd 	movw	r2, #445	; 0x1bd
    105e:	4633      	mov	r3, r6
    1060:	f004 ff70 	bl	5f44 <iprintf>
    1064:	f108 0801 	add.w	r8, r8, #1
    1068:	f1b8 0f04 	cmp.w	r8, #4
    106c:	f109 093c 	add.w	r9, r9, #60	; 0x3c
    1070:	d1ab      	bne.n	fca <USBHost::freeDevice(USBDeviceConnected*)+0x8a>
    1072:	4630      	mov	r0, r6
    1074:	b005      	add	sp, #20
    1076:	e8bd 4ff0 	ldmia.w	sp!, {r4, r5, r6, r7, r8, r9, r10, r11, lr}
    107a:	f7ff bcd5 	b.w	a28 <USBDeviceConnected::disconnect()>
    107e:	4905      	ldr	r1, [pc, #20]	; (1094 <USBHost::freeDevice(USBDeviceConnected*)+0x154>)
    1080:	f44f 72ca 	mov.w	r2, #404	; 0x194
    1084:	4804      	ldr	r0, [pc, #16]	; (1098 <USBHost::freeDevice(USBDeviceConnected*)+0x158>)
    1086:	f004 ff5d 	bl	5f44 <iprintf>
    108a:	e762      	b.n	f52 <USBHost::freeDevice(USBDeviceConnected*)+0x12>
    108c:	2300      	movs	r3, #0
    108e:	e787      	b.n	fa0 <USBHost::freeDevice(USBDeviceConnected*)+0x60>
    1090:	00007f00 	.word	0x00007f00
    1094:	00007ec4 	.word	0x00007ec4
    1098:	00007ea0 	.word	0x00007ea0

0000109c <USBHost::getDevice(unsigned char)>:
    109c:	2904      	cmp	r1, #4
    109e:	d80d      	bhi.n	10bc <USBHost::getDevice(unsigned char)+0x20>
    10a0:	1843      	adds	r3, r0, r1
    10a2:	f503 5301 	add.w	r3, r3, #8256	; 0x2040
    10a6:	3320      	adds	r3, #32
    10a8:	791b      	ldrb	r3, [r3, #4]
    10aa:	b14b      	cbz	r3, 10c0 <USBHost::getDevice(unsigned char)+0x24>
    10ac:	f44f 7386 	mov.w	r3, #268	; 0x10c
    10b0:	fb03 0001 	mla	r0, r3, r1, r0
    10b4:	f500 50d9 	add.w	r0, r0, #6944	; 0x1b20
    10b8:	3008      	adds	r0, #8
    10ba:	4770      	bx	lr
    10bc:	2000      	movs	r0, #0
    10be:	4770      	bx	lr
    10c0:	4618      	mov	r0, r3
    10c2:	4770      	bx	lr

000010c4 <USBHost::newEndpoint(ENDPOINT_TYPE, ENDPOINT_DIRECTION, unsigned long, unsigned char)>:
    10c4:	e92d 4ff0 	stmdb	sp!, {r4, r5, r6, r7, r8, r9, r10, r11, lr}
    10c8:	b089      	sub	sp, #36	; 0x24
    10ca:	9305      	str	r3, [sp, #20]
    10cc:	4607      	mov	r7, r0
    10ce:	4689      	mov	r9, r1
    10d0:	4690      	mov	r8, r2
    10d2:	f89d b048 	ldrb.w	r11, [sp, #72]	; 0x48
    10d6:	f001 faf3 	bl	26c0 <USBHALHost::getED()>
    10da:	4682      	mov	r10, r0
    10dc:	4638      	mov	r0, r7
    10de:	f001 fb07 	bl	26f0 <USBHALHost::getTD()>
    10e2:	9006      	str	r0, [sp, #24]
    10e4:	4638      	mov	r0, r7
    10e6:	f001 fb03 	bl	26f0 <USBHALHost::getTD()>
    10ea:	2100      	movs	r1, #0
    10ec:	9007      	str	r0, [sp, #28]
    10ee:	2220      	movs	r2, #32
    10f0:	9806      	ldr	r0, [sp, #24]
    10f2:	f004 fe46 	bl	5d82 <memset>
    10f6:	9807      	ldr	r0, [sp, #28]
    10f8:	2100      	movs	r1, #0
    10fa:	2220      	movs	r2, #32
    10fc:	f004 fe41 	bl	5d82 <memset>
    1100:	37c8      	adds	r7, #200	; 0xc8
    1102:	2400      	movs	r4, #0
    1104:	9b05      	ldr	r3, [sp, #20]
    1106:	e002      	b.n	110e <USBHost::newEndpoint(ENDPOINT_TYPE, ENDPOINT_DIRECTION, unsigned long, unsigned char)+0x4a>
    1108:	f5b4 5fd2 	cmp.w	r4, #6720	; 0x1a40
    110c:	d013      	beq.n	1136 <USBHost::newEndpoint(ENDPOINT_TYPE, ENDPOINT_DIRECTION, unsigned long, unsigned char)+0x72>
    110e:	193d      	adds	r5, r7, r4
    1110:	f895 6025 	ldrb.w	r6, [r5, #37]	; 0x25
    1114:	3470      	adds	r4, #112	; 0x70
    1116:	2e0f      	cmp	r6, #15
    1118:	d1f6      	bne.n	1108 <USBHost::newEndpoint(ENDPOINT_TYPE, ENDPOINT_DIRECTION, unsigned long, unsigned char)+0x44>
    111a:	a806      	add	r0, sp, #24
    111c:	e88d 0808 	stmia.w	sp, {r3, r11}
    1120:	9002      	str	r0, [sp, #8]
    1122:	4651      	mov	r1, r10
    1124:	4628      	mov	r0, r5
    1126:	464a      	mov	r2, r9
    1128:	4643      	mov	r3, r8
    112a:	f001 f8bf 	bl	22ac <USBEndpoint::init(hcEd*, ENDPOINT_TYPE, ENDPOINT_DIRECTION, unsigned long, unsigned char, HCTD**)>
    112e:	4628      	mov	r0, r5
    1130:	b009      	add	sp, #36	; 0x24
    1132:	e8bd 8ff0 	ldmia.w	sp!, {r4, r5, r6, r7, r8, r9, r10, r11, pc}
    1136:	4905      	ldr	r1, [pc, #20]	; (114c <USBHost::newEndpoint(ENDPOINT_TYPE, ENDPOINT_DIRECTION, unsigned long, unsigned char)+0x88>)
    1138:	f240 2215 	movw	r2, #533	; 0x215
    113c:	4804      	ldr	r0, [pc, #16]	; (1150 <USBHost::newEndpoint(ENDPOINT_TYPE, ENDPOINT_DIRECTION, unsigned long, unsigned char)+0x8c>)
    113e:	f004 ff01 	bl	5f44 <iprintf>
    1142:	2500      	movs	r5, #0
    1144:	4628      	mov	r0, r5
    1146:	b009      	add	sp, #36	; 0x24
    1148:	e8bd 8ff0 	ldmia.w	sp!, {r4, r5, r6, r7, r8, r9, r10, r11, pc}
    114c:	00007ec4 	.word	0x00007ec4
    1150:	00007f48 	.word	0x00007f48

00001154 <USBHost::resetDevice(USBDeviceConnected*)>:
    1154:	b530      	push	{r4, r5, lr}
    1156:	f500 53d9 	add.w	r3, r0, #6944	; 0x1b20
    115a:	b083      	sub	sp, #12
    115c:	4605      	mov	r5, r0
    115e:	3308      	adds	r3, #8
    1160:	2400      	movs	r4, #0
    1162:	4299      	cmp	r1, r3
    1164:	f503 7386 	add.w	r3, r3, #268	; 0x10c
    1168:	d005      	beq.n	1176 <USBHost::resetDevice(USBDeviceConnected*)+0x22>
    116a:	3401      	adds	r4, #1
    116c:	2c05      	cmp	r4, #5
    116e:	d1f8      	bne.n	1162 <USBHost::resetDevice(USBDeviceConnected*)+0xe>
    1170:	2012      	movs	r0, #18
    1172:	b003      	add	sp, #12
    1174:	bd30      	pop	{r4, r5, pc}
    1176:	2064      	movs	r0, #100	; 0x64
    1178:	9101      	str	r1, [sp, #4]
    117a:	f002 fe79 	bl	3e70 <rtos::Thread::wait(unsigned long)>
    117e:	9901      	ldr	r1, [sp, #4]
    1180:	f891 30fc 	ldrb.w	r3, [r1, #252]	; 0xfc
    1184:	b973      	cbnz	r3, 11a4 <USBHost::resetDevice(USBDeviceConnected*)+0x50>
    1186:	4628      	mov	r0, r5
    1188:	f001 fadc 	bl	2744 <USBHALHost::resetRootHub()>
    118c:	2064      	movs	r0, #100	; 0x64
    118e:	f002 fe6f 	bl	3e70 <rtos::Thread::wait(unsigned long)>
    1192:	442c      	add	r4, r5
    1194:	f504 5401 	add.w	r4, r4, #8256	; 0x2040
    1198:	2301      	movs	r3, #1
    119a:	2000      	movs	r0, #0
    119c:	f884 303d 	strb.w	r3, [r4, #61]	; 0x3d
    11a0:	b003      	add	sp, #12
    11a2:	bd30      	pop	{r4, r5, pc}
    11a4:	6848      	ldr	r0, [r1, #4]
    11a6:	f891 10fd 	ldrb.w	r1, [r1, #253]	; 0xfd
    11aa:	f001 f84d 	bl	2248 <USBHostHub::portReset(unsigned char)>
    11ae:	e7ed      	b.n	118c <USBHost::resetDevice(USBDeviceConnected*)+0x38>

000011b0 <USBHost::addEndpoint(USBDeviceConnected*, unsigned char, USBEndpoint*)>:
    11b0:	e92d 41f0 	stmdb	sp!, {r4, r5, r6, r7, r8, lr}
    11b4:	461c      	mov	r4, r3
    11b6:	4606      	mov	r6, r0
    11b8:	4617      	mov	r7, r2
    11ba:	460d      	mov	r5, r1
    11bc:	b193      	cbz	r3, 11e4 <USBHost::addEndpoint(USBDeviceConnected*, unsigned char, USBEndpoint*)+0x34>
    11be:	4618      	mov	r0, r3
    11c0:	2900      	cmp	r1, #0
    11c2:	d04c      	beq.n	125e <USBHost::addEndpoint(USBDeviceConnected*, unsigned char, USBEndpoint*)+0xae>
    11c4:	f891 1102 	ldrb.w	r1, [r1, #258]	; 0x102
    11c8:	f001 f8da 	bl	2380 <USBEndpoint::setDeviceAddress(unsigned char)>
    11cc:	f895 3106 	ldrb.w	r3, [r5, #262]	; 0x106
    11d0:	b95b      	cbnz	r3, 11ea <USBHost::addEndpoint(USBDeviceConnected*, unsigned char, USBEndpoint*)+0x3a>
    11d2:	f894 3024 	ldrb.w	r3, [r4, #36]	; 0x24
    11d6:	f884 706c 	strb.w	r7, [r4, #108]	; 0x6c
    11da:	2b02      	cmp	r3, #2
    11dc:	d00f      	beq.n	11fe <USBHost::addEndpoint(USBDeviceConnected*, unsigned char, USBEndpoint*)+0x4e>
    11de:	2b03      	cmp	r3, #3
    11e0:	d023      	beq.n	122a <USBHost::addEndpoint(USBDeviceConnected*, unsigned char, USBEndpoint*)+0x7a>
    11e2:	b373      	cbz	r3, 1242 <USBHost::addEndpoint(USBDeviceConnected*, unsigned char, USBEndpoint*)+0x92>
    11e4:	2000      	movs	r0, #0
    11e6:	e8bd 81f0 	ldmia.w	sp!, {r4, r5, r6, r7, r8, pc}
    11ea:	4620      	mov	r0, r4
    11ec:	2101      	movs	r1, #1
    11ee:	f001 f8d5 	bl	239c <USBEndpoint::setSpeed(unsigned char)>
    11f2:	f894 3024 	ldrb.w	r3, [r4, #36]	; 0x24
    11f6:	f884 706c 	strb.w	r7, [r4, #108]	; 0x6c
    11fa:	2b02      	cmp	r3, #2
    11fc:	d1ef      	bne.n	11de <USBHost::addEndpoint(USBDeviceConnected*, unsigned char, USBEndpoint*)+0x2e>
    11fe:	4630      	mov	r0, r6
    1200:	f001 f9fc 	bl	25fc <USBHALHost::bulkHeadED()>
    1204:	b370      	cbz	r0, 1264 <USBHost::addEndpoint(USBDeviceConnected*, unsigned char, USBEndpoint*)+0xb4>
    1206:	f641 381c 	movw	r8, #6940	; 0x1b1c
    120a:	f856 0008 	ldr.w	r0, [r6, r8]
    120e:	4621      	mov	r1, r4
    1210:	f001 f92e 	bl	2470 <USBEndpoint::queueEndpoint(USBEndpoint*)>
    1214:	f846 4008 	str.w	r4, [r6, r8]
    1218:	6025      	str	r5, [r4, #0]
    121a:	4628      	mov	r0, r5
    121c:	4639      	mov	r1, r7
    121e:	4622      	mov	r2, r4
    1220:	f7ff fbce 	bl	9c0 <USBDeviceConnected::addEndpoint(unsigned char, USBEndpoint*)>
    1224:	2001      	movs	r0, #1
    1226:	e8bd 81f0 	ldmia.w	sp!, {r4, r5, r6, r7, r8, pc}
    122a:	4630      	mov	r0, r6
    122c:	f001 f9ec 	bl	2608 <USBHALHost::interruptHeadED()>
    1230:	b318      	cbz	r0, 127a <USBHost::addEndpoint(USBDeviceConnected*, unsigned char, USBEndpoint*)+0xca>
    1232:	f506 56d9 	add.w	r6, r6, #6944	; 0x1b20
    1236:	6830      	ldr	r0, [r6, #0]
    1238:	4621      	mov	r1, r4
    123a:	f001 f919 	bl	2470 <USBEndpoint::queueEndpoint(USBEndpoint*)>
    123e:	6034      	str	r4, [r6, #0]
    1240:	e7ea      	b.n	1218 <USBHost::addEndpoint(USBDeviceConnected*, unsigned char, USBEndpoint*)+0x68>
    1242:	4630      	mov	r0, r6
    1244:	f001 f9d4 	bl	25f0 <USBHALHost::controlHeadED()>
    1248:	b310      	cbz	r0, 1290 <USBHost::addEndpoint(USBDeviceConnected*, unsigned char, USBEndpoint*)+0xe0>
    124a:	f641 3518 	movw	r5, #6936	; 0x1b18
    124e:	5970      	ldr	r0, [r6, r5]
    1250:	4621      	mov	r1, r4
    1252:	f001 f90d 	bl	2470 <USBEndpoint::queueEndpoint(USBEndpoint*)>
    1256:	5174      	str	r4, [r6, r5]
    1258:	2001      	movs	r0, #1
    125a:	e8bd 81f0 	ldmia.w	sp!, {r4, r5, r6, r7, r8, pc}
    125e:	f001 f88f 	bl	2380 <USBEndpoint::setDeviceAddress(unsigned char)>
    1262:	e7b6      	b.n	11d2 <USBHost::addEndpoint(USBDeviceConnected*, unsigned char, USBEndpoint*)+0x22>
    1264:	4630      	mov	r0, r6
    1266:	6da1      	ldr	r1, [r4, #88]	; 0x58
    1268:	f001 f9d2 	bl	2610 <USBHALHost::updateBulkHeadED(unsigned long)>
    126c:	f641 3210 	movw	r2, #6928	; 0x1b10
    1270:	f641 331c 	movw	r3, #6940	; 0x1b1c
    1274:	50b4      	str	r4, [r6, r2]
    1276:	50f4      	str	r4, [r6, r3]
    1278:	e7ce      	b.n	1218 <USBHost::addEndpoint(USBDeviceConnected*, unsigned char, USBEndpoint*)+0x68>
    127a:	4630      	mov	r0, r6
    127c:	6da1      	ldr	r1, [r4, #88]	; 0x58
    127e:	f001 f9d3 	bl	2628 <USBHALHost::updateInterruptHeadED(unsigned long)>
    1282:	f641 3214 	movw	r2, #6932	; 0x1b14
    1286:	f506 53d9 	add.w	r3, r6, #6944	; 0x1b20
    128a:	50b4      	str	r4, [r6, r2]
    128c:	601c      	str	r4, [r3, #0]
    128e:	e7c3      	b.n	1218 <USBHost::addEndpoint(USBDeviceConnected*, unsigned char, USBEndpoint*)+0x68>
    1290:	4630      	mov	r0, r6
    1292:	6da1      	ldr	r1, [r4, #88]	; 0x58
    1294:	f001 f9c2 	bl	261c <USBHALHost::updateControlHeadED(unsigned long)>
    1298:	f641 320c 	movw	r2, #6924	; 0x1b0c
    129c:	f641 3318 	movw	r3, #6936	; 0x1b18
    12a0:	50b4      	str	r4, [r6, r2]
    12a2:	2001      	movs	r0, #1
    12a4:	50f4      	str	r4, [r6, r3]
    12a6:	e8bd 81f0 	ldmia.w	sp!, {r4, r5, r6, r7, r8, pc}
    12aa:	bf00      	nop

000012ac <USBHost::findDevice(USBDeviceConnected*)>:
    12ac:	f500 50d9 	add.w	r0, r0, #6944	; 0x1b20
    12b0:	3008      	adds	r0, #8
    12b2:	2300      	movs	r3, #0
    12b4:	4281      	cmp	r1, r0
    12b6:	f500 7086 	add.w	r0, r0, #268	; 0x10c
    12ba:	d005      	beq.n	12c8 <USBHost::findDevice(USBDeviceConnected*)+0x1c>
    12bc:	3301      	adds	r3, #1
    12be:	2b05      	cmp	r3, #5
    12c0:	d1f8      	bne.n	12b4 <USBHost::findDevice(USBDeviceConnected*)+0x8>
    12c2:	f04f 30ff 	mov.w	r0, #4294967295	; 0xffffffff
    12c6:	4770      	bx	lr
    12c8:	4618      	mov	r0, r3
    12ca:	4770      	bx	lr

000012cc <USBHost::addTransfer(USBEndpoint*, unsigned char*, unsigned long)>:
    12cc:	e92d 47f0 	stmdb	sp!, {r4, r5, r6, r7, r8, r9, r10, lr}
    12d0:	f500 5609 	add.w	r6, r0, #8768	; 0x2240
    12d4:	3620      	adds	r6, #32
    12d6:	460d      	mov	r5, r1
    12d8:	4680      	mov	r8, r0
    12da:	f04f 31ff 	mov.w	r1, #4294967295	; 0xffffffff
    12de:	4630      	mov	r0, r6
    12e0:	4691      	mov	r9, r2
    12e2:	469a      	mov	r10, r3
    12e4:	f002 fd6c 	bl	3dc0 <rtos::Mutex::lock(unsigned long)>
    12e8:	6e6c      	ldr	r4, [r5, #100]	; 0x64
    12ea:	2c00      	cmp	r4, #0
    12ec:	d035      	beq.n	135a <USBHost::addTransfer(USBEndpoint*, unsigned char*, unsigned long)+0x8e>
    12ee:	f895 3027 	ldrb.w	r3, [r5, #39]	; 0x27
    12f2:	b313      	cbz	r3, 133a <USBHost::addTransfer(USBEndpoint*, unsigned char*, unsigned long)+0x6e>
    12f4:	f895 7024 	ldrb.w	r7, [r5, #36]	; 0x24
    12f8:	4a1c      	ldr	r2, [pc, #112]	; (136c <USBHost::addTransfer(USBEndpoint*, unsigned char*, unsigned long)+0xa0>)
    12fa:	4b1d      	ldr	r3, [pc, #116]	; (1370 <USBHost::addTransfer(USBEndpoint*, unsigned char*, unsigned long)+0xa4>)
    12fc:	2f00      	cmp	r7, #0
    12fe:	bf08      	it	eq
    1300:	4613      	moveq	r3, r2
    1302:	6822      	ldr	r2, [r4, #0]
    1304:	f10a 3aff 	add.w	r10, r10, #4294967295	; 0xffffffff
    1308:	6023      	str	r3, [r4, #0]
    130a:	6863      	ldr	r3, [r4, #4]
    130c:	eb09 030a 	add.w	r3, r9, r10
    1310:	f8c4 9004 	str.w	r9, [r4, #4]
    1314:	68e2      	ldr	r2, [r4, #12]
    1316:	4639      	mov	r1, r7
    1318:	60e3      	str	r3, [r4, #12]
    131a:	4640      	mov	r0, r8
    131c:	f001 f9a6 	bl	266c <USBHALHost::disableList(ENDPOINT_TYPE)>
    1320:	4628      	mov	r0, r5
    1322:	f001 f877 	bl	2414 <USBEndpoint::queueTransfer()>
    1326:	4640      	mov	r0, r8
    1328:	4639      	mov	r1, r7
    132a:	f001 f981 	bl	2630 <USBHALHost::enableList(ENDPOINT_TYPE)>
    132e:	4630      	mov	r0, r6
    1330:	f002 fd4a 	bl	3dc8 <rtos::Mutex::unlock()>
    1334:	2011      	movs	r0, #17
    1336:	e8bd 87f0 	ldmia.w	sp!, {r4, r5, r6, r7, r8, r9, r10, pc}
    133a:	f895 3026 	ldrb.w	r3, [r5, #38]	; 0x26
    133e:	f895 7024 	ldrb.w	r7, [r5, #36]	; 0x24
    1342:	2b02      	cmp	r3, #2
    1344:	bf0c      	ite	eq
    1346:	f44f 1380 	moveq.w	r3, #1048576	; 0x100000
    134a:	f44f 2300 	movne.w	r3, #524288	; 0x80000
    134e:	b93f      	cbnz	r7, 1360 <USBHost::addTransfer(USBEndpoint*, unsigned char*, unsigned long)+0x94>
    1350:	f043 4373 	orr.w	r3, r3, #4076863488	; 0xf3000000
    1354:	f443 2380 	orr.w	r3, r3, #262144	; 0x40000
    1358:	e7d3      	b.n	1302 <USBHost::addTransfer(USBEndpoint*, unsigned char*, unsigned long)+0x36>
    135a:	2012      	movs	r0, #18
    135c:	e8bd 87f0 	ldmia.w	sp!, {r4, r5, r6, r7, r8, r9, r10, pc}
    1360:	f043 4370 	orr.w	r3, r3, #4026531840	; 0xf0000000
    1364:	f443 2380 	orr.w	r3, r3, #262144	; 0x40000
    1368:	e7cb      	b.n	1302 <USBHost::addTransfer(USBEndpoint*, unsigned char*, unsigned long)+0x36>
    136a:	bf00      	nop
    136c:	f2040000 	.word	0xf2040000
    1370:	f0040000 	.word	0xf0040000

00001374 <USBHost::parseConfDescr(USBDeviceConnected*, unsigned char*, unsigned long, IUSBEnumerator*)>:
    1374:	e92d 4ff0 	stmdb	sp!, {r4, r5, r6, r7, r8, r9, r10, r11, lr}
    1378:	b089      	sub	sp, #36	; 0x24
    137a:	4698      	mov	r8, r3
    137c:	9005      	str	r0, [sp, #20]
    137e:	9104      	str	r1, [sp, #16]
    1380:	4615      	mov	r5, r2
    1382:	b34b      	cbz	r3, 13d8 <USBHost::parseConfDescr(USBDeviceConnected*, unsigned char*, unsigned long, IUSBEnumerator*)+0x64>
    1384:	f04f 0b00 	mov.w	r11, #0
    1388:	46d9      	mov	r9, r11
    138a:	f8cd b018 	str.w	r11, [sp, #24]
    138e:	465c      	mov	r4, r11
    1390:	f8cd b01c 	str.w	r11, [sp, #28]
    1394:	192f      	adds	r7, r5, r4
    1396:	787b      	ldrb	r3, [r7, #1]
    1398:	5d2e      	ldrb	r6, [r5, r4]
    139a:	3b02      	subs	r3, #2
    139c:	2b1f      	cmp	r3, #31
    139e:	d818      	bhi.n	13d2 <USBHost::parseConfDescr(USBDeviceConnected*, unsigned char*, unsigned long, IUSBEnumerator*)+0x5e>
    13a0:	e8df f003 	tbb	[pc, r3]
    13a4:	451d1740 	.word	0x451d1740
    13a8:	17171717 	.word	0x17171717
    13ac:	17171717 	.word	0x17171717
    13b0:	17171717 	.word	0x17171717
    13b4:	17171717 	.word	0x17171717
    13b8:	17171717 	.word	0x17171717
    13bc:	17171717 	.word	0x17171717
    13c0:	10171717 	.word	0x10171717
    13c4:	7a3a      	ldrb	r2, [r7, #8]
    13c6:	79fb      	ldrb	r3, [r7, #7]
    13c8:	ea43 2302 	orr.w	r3, r3, r2, lsl #8
    13cc:	9a05      	ldr	r2, [sp, #20]
    13ce:	f8a2 30c4 	strh.w	r3, [r2, #196]	; 0xc4
    13d2:	4434      	add	r4, r6
    13d4:	45a0      	cmp	r8, r4
    13d6:	d8dd      	bhi.n	1394 <USBHost::parseConfDescr(USBDeviceConnected*, unsigned char*, unsigned long, IUSBEnumerator*)+0x20>
    13d8:	b009      	add	sp, #36	; 0x24
    13da:	e8bd 8ff0 	ldmia.w	sp!, {r4, r5, r6, r7, r8, r9, r10, r11, pc}
    13de:	9a12      	ldr	r2, [sp, #72]	; 0x48
    13e0:	1de7      	adds	r7, r4, #7
    13e2:	f815 e007 	ldrb.w	lr, [r5, r7]
    13e6:	6810      	ldr	r0, [r2, #0]
    13e8:	1d63      	adds	r3, r4, #5
    13ea:	f104 0902 	add.w	r9, r4, #2
    13ee:	f104 0a06 	add.w	r10, r4, #6
    13f2:	5cea      	ldrb	r2, [r5, r3]
    13f4:	9303      	str	r3, [sp, #12]
    13f6:	f815 1009 	ldrb.w	r1, [r5, r9]
    13fa:	f815 300a 	ldrb.w	r3, [r5, r10]
    13fe:	f8cd e000 	str.w	lr, [sp]
    1402:	f8d0 c004 	ldr.w	r12, [r0, #4]
    1406:	9812      	ldr	r0, [sp, #72]	; 0x48
    1408:	47e0      	blx	r12
    140a:	2800      	cmp	r0, #0
    140c:	d04c      	beq.n	14a8 <USBHost::parseConfDescr(USBDeviceConnected*, unsigned char*, unsigned long, IUSBEnumerator*)+0x134>
    140e:	f10b 0c01 	add.w	r12, r11, #1
    1412:	f1bb 0f04 	cmp.w	r11, #4
    1416:	fa5f fc8c 	uxtb.w	r12, r12
    141a:	d947      	bls.n	14ac <USBHost::parseConfDescr(USBDeviceConnected*, unsigned char*, unsigned long, IUSBEnumerator*)+0x138>
    141c:	46e3      	mov	r11, r12
    141e:	f04f 0901 	mov.w	r9, #1
    1422:	e7d6      	b.n	13d2 <USBHost::parseConfDescr(USBDeviceConnected*, unsigned char*, unsigned long, IUSBEnumerator*)+0x5e>
    1424:	792b      	ldrb	r3, [r5, #4]
    1426:	9a04      	ldr	r2, [sp, #16]
    1428:	f882 3109 	strb.w	r3, [r2, #265]	; 0x109
    142c:	e7d1      	b.n	13d2 <USBHost::parseConfDescr(USBDeviceConnected*, unsigned char*, unsigned long, IUSBEnumerator*)+0x5e>
    142e:	f1b9 0f00 	cmp.w	r9, #0
    1432:	d0ce      	beq.n	13d2 <USBHost::parseConfDescr(USBDeviceConnected*, unsigned char*, unsigned long, IUSBEnumerator*)+0x5e>
    1434:	f1bb 0f04 	cmp.w	r11, #4
    1438:	d8cb      	bhi.n	13d2 <USBHost::parseConfDescr(USBDeviceConnected*, unsigned char*, unsigned long, IUSBEnumerator*)+0x5e>
    143a:	9a06      	ldr	r2, [sp, #24]
    143c:	2a02      	cmp	r2, #2
    143e:	dcc8      	bgt.n	13d2 <USBHost::parseConfDescr(USBDeviceConnected*, unsigned char*, unsigned long, IUSBEnumerator*)+0x5e>
    1440:	1ca3      	adds	r3, r4, #2
    1442:	9812      	ldr	r0, [sp, #72]	; 0x48
    1444:	9303      	str	r3, [sp, #12]
    1446:	f104 0a03 	add.w	r10, r4, #3
    144a:	5ceb      	ldrb	r3, [r5, r3]
    144c:	6801      	ldr	r1, [r0, #0]
    144e:	f815 200a 	ldrb.w	r2, [r5, r10]
    1452:	11db      	asrs	r3, r3, #7
    1454:	f8d1 c008 	ldr.w	r12, [r1, #8]
    1458:	3301      	adds	r3, #1
    145a:	f002 0203 	and.w	r2, r2, #3
    145e:	9907      	ldr	r1, [sp, #28]
    1460:	47e0      	blx	r12
    1462:	2800      	cmp	r0, #0
    1464:	d0b5      	beq.n	13d2 <USBHost::parseConfDescr(USBDeviceConnected*, unsigned char*, unsigned long, IUSBEnumerator*)+0x5e>
    1466:	f815 100a 	ldrb.w	r1, [r5, r10]
    146a:	f001 0103 	and.w	r1, r1, #3
    146e:	2901      	cmp	r1, #1
    1470:	d0af      	beq.n	13d2 <USBHost::parseConfDescr(USBDeviceConnected*, unsigned char*, unsigned long, IUSBEnumerator*)+0x5e>
    1472:	9a03      	ldr	r2, [sp, #12]
    1474:	797b      	ldrb	r3, [r7, #5]
    1476:	5ca8      	ldrb	r0, [r5, r2]
    1478:	793f      	ldrb	r7, [r7, #4]
    147a:	11c2      	asrs	r2, r0, #7
    147c:	f000 000f 	and.w	r0, r0, #15
    1480:	9000      	str	r0, [sp, #0]
    1482:	3201      	adds	r2, #1
    1484:	ea47 2303 	orr.w	r3, r7, r3, lsl #8
    1488:	9805      	ldr	r0, [sp, #20]
    148a:	f7ff fe1b 	bl	10c4 <USBHost::newEndpoint(ENDPOINT_TYPE, ENDPOINT_DIRECTION, unsigned long, unsigned char)>
    148e:	b138      	cbz	r0, 14a0 <USBHost::parseConfDescr(USBDeviceConnected*, unsigned char*, unsigned long, IUSBEnumerator*)+0x12c>
    1490:	9b04      	ldr	r3, [sp, #16]
    1492:	b12b      	cbz	r3, 14a0 <USBHost::parseConfDescr(USBDeviceConnected*, unsigned char*, unsigned long, IUSBEnumerator*)+0x12c>
    1494:	4603      	mov	r3, r0
    1496:	9904      	ldr	r1, [sp, #16]
    1498:	9805      	ldr	r0, [sp, #20]
    149a:	9a07      	ldr	r2, [sp, #28]
    149c:	f7ff fe88 	bl	11b0 <USBHost::addEndpoint(USBDeviceConnected*, unsigned char, USBEndpoint*)>
    14a0:	9806      	ldr	r0, [sp, #24]
    14a2:	3001      	adds	r0, #1
    14a4:	9006      	str	r0, [sp, #24]
    14a6:	e794      	b.n	13d2 <USBHost::parseConfDescr(USBDeviceConnected*, unsigned char*, unsigned long, IUSBEnumerator*)+0x5e>
    14a8:	4681      	mov	r9, r0
    14aa:	e792      	b.n	13d2 <USBHost::parseConfDescr(USBDeviceConnected*, unsigned char*, unsigned long, IUSBEnumerator*)+0x5e>
    14ac:	f815 9009 	ldrb.w	r9, [r5, r9]
    14b0:	9b03      	ldr	r3, [sp, #12]
    14b2:	5de9      	ldrb	r1, [r5, r7]
    14b4:	5cea      	ldrb	r2, [r5, r3]
    14b6:	9804      	ldr	r0, [sp, #16]
    14b8:	f815 300a 	ldrb.w	r3, [r5, r10]
    14bc:	9100      	str	r1, [sp, #0]
    14be:	4649      	mov	r1, r9
    14c0:	f8cd 901c 	str.w	r9, [sp, #28]
    14c4:	46e3      	mov	r11, r12
    14c6:	f7ff fa65 	bl	994 <USBDeviceConnected::addInterface(unsigned char, unsigned char, unsigned char, unsigned char)>
    14ca:	2000      	movs	r0, #0
    14cc:	f04f 0901 	mov.w	r9, #1
    14d0:	9006      	str	r0, [sp, #24]
    14d2:	e77e      	b.n	13d2 <USBHost::parseConfDescr(USBDeviceConnected*, unsigned char*, unsigned long, IUSBEnumerator*)+0x5e>

000014d4 <USBHost::generalTransfer(USBDeviceConnected*, USBEndpoint*, unsigned char*, unsigned long, bool, ENDPOINT_TYPE, bool)>:
    14d4:	e92d 4ff0 	stmdb	sp!, {r4, r5, r6, r7, r8, r9, r10, r11, lr}
    14d8:	f500 5509 	add.w	r5, r0, #8768	; 0x2240
    14dc:	b089      	sub	sp, #36	; 0x24
    14de:	f89d 8054 	ldrb.w	r8, [sp, #84]	; 0x54
    14e2:	350c      	adds	r5, #12
    14e4:	4606      	mov	r6, r0
    14e6:	460f      	mov	r7, r1
    14e8:	4628      	mov	r0, r5
    14ea:	f04f 31ff 	mov.w	r1, #4294967295	; 0xffffffff
    14ee:	4614      	mov	r4, r2
    14f0:	469a      	mov	r10, r3
    14f2:	f89d b04c 	ldrb.w	r11, [sp, #76]	; 0x4c
    14f6:	f89d 9050 	ldrb.w	r9, [sp, #80]	; 0x50
    14fa:	f002 fc61 	bl	3dc0 <rtos::Mutex::lock(unsigned long)>
    14fe:	f1b8 0f00 	cmp.w	r8, #0
    1502:	bf0c      	ite	eq
    1504:	2202      	moveq	r2, #2
    1506:	2201      	movne	r2, #1
    1508:	2f00      	cmp	r7, #0
    150a:	d033      	beq.n	1574 <USBHost::generalTransfer(USBDeviceConnected*, USBEndpoint*, unsigned char*, unsigned long, bool, ENDPOINT_TYPE, bool)+0xa0>
    150c:	2c00      	cmp	r4, #0
    150e:	d050      	beq.n	15b2 <USBHost::generalTransfer(USBDeviceConnected*, USBEndpoint*, unsigned char*, unsigned long, bool, ENDPOINT_TYPE, bool)+0xde>
    1510:	f894 3025 	ldrb.w	r3, [r4, #37]	; 0x25
    1514:	2b10      	cmp	r3, #16
    1516:	d114      	bne.n	1542 <USBHost::generalTransfer(USBDeviceConnected*, USBEndpoint*, unsigned char*, unsigned long, bool, ENDPOINT_TYPE, bool)+0x6e>
    1518:	f894 3026 	ldrb.w	r3, [r4, #38]	; 0x26
    151c:	4293      	cmp	r3, r2
    151e:	d031      	beq.n	1584 <USBHost::generalTransfer(USBDeviceConnected*, USBEndpoint*, unsigned char*, unsigned long, bool, ENDPOINT_TYPE, bool)+0xb0>
    1520:	6822      	ldr	r2, [r4, #0]
    1522:	4623      	mov	r3, r4
    1524:	9200      	str	r2, [sp, #0]
    1526:	4832      	ldr	r0, [pc, #200]	; (15f0 <USBHost::generalTransfer(USBDeviceConnected*, USBEndpoint*, unsigned char*, unsigned long, bool, ENDPOINT_TYPE, bool)+0x11c>)
    1528:	4932      	ldr	r1, [pc, #200]	; (15f4 <USBHost::generalTransfer(USBDeviceConnected*, USBEndpoint*, unsigned char*, unsigned long, bool, ENDPOINT_TYPE, bool)+0x120>)
    152a:	f240 32fd 	movw	r2, #1021	; 0x3fd
    152e:	f004 fd09 	bl	5f44 <iprintf>
    1532:	2412      	movs	r4, #18
    1534:	4628      	mov	r0, r5
    1536:	f002 fc47 	bl	3dc8 <rtos::Mutex::unlock()>
    153a:	4620      	mov	r0, r4
    153c:	b009      	add	sp, #36	; 0x24
    153e:	e8bd 8ff0 	ldmia.w	sp!, {r4, r5, r6, r7, r8, r9, r10, r11, pc}
    1542:	f894 306c 	ldrb.w	r3, [r4, #108]	; 0x6c
    1546:	6826      	ldr	r6, [r4, #0]
    1548:	ebc3 1303 	rsb	r3, r3, r3, lsl #4
    154c:	4620      	mov	r0, r4
    154e:	eb06 0783 	add.w	r7, r6, r3, lsl #2
    1552:	f000 ff55 	bl	2400 <USBEndpoint::getStateString()>
    1556:	3738      	adds	r7, #56	; 0x38
    1558:	9002      	str	r0, [sp, #8]
    155a:	4623      	mov	r3, r4
    155c:	9701      	str	r7, [sp, #4]
    155e:	9600      	str	r6, [sp, #0]
    1560:	4825      	ldr	r0, [pc, #148]	; (15f8 <USBHost::generalTransfer(USBDeviceConnected*, USBEndpoint*, unsigned char*, unsigned long, bool, ENDPOINT_TYPE, bool)+0x124>)
    1562:	4924      	ldr	r1, [pc, #144]	; (15f4 <USBHost::generalTransfer(USBDeviceConnected*, USBEndpoint*, unsigned char*, unsigned long, bool, ENDPOINT_TYPE, bool)+0x120>)
    1564:	f44f 727e 	mov.w	r2, #1016	; 0x3f8
    1568:	f004 fcec 	bl	5f44 <iprintf>
    156c:	f894 4025 	ldrb.w	r4, [r4, #37]	; 0x25
    1570:	b2e4      	uxtb	r4, r4
    1572:	e7df      	b.n	1534 <USBHost::generalTransfer(USBDeviceConnected*, USBEndpoint*, unsigned char*, unsigned long, bool, ENDPOINT_TYPE, bool)+0x60>
    1574:	4821      	ldr	r0, [pc, #132]	; (15fc <USBHost::generalTransfer(USBDeviceConnected*, USBEndpoint*, unsigned char*, unsigned long, bool, ENDPOINT_TYPE, bool)+0x128>)
    1576:	491f      	ldr	r1, [pc, #124]	; (15f4 <USBHost::generalTransfer(USBDeviceConnected*, USBEndpoint*, unsigned char*, unsigned long, bool, ENDPOINT_TYPE, bool)+0x120>)
    1578:	f240 32ee 	movw	r2, #1006	; 0x3ee
    157c:	f004 fce2 	bl	5f44 <iprintf>
    1580:	2412      	movs	r4, #18
    1582:	e7d7      	b.n	1534 <USBHost::generalTransfer(USBDeviceConnected*, USBEndpoint*, unsigned char*, unsigned long, bool, ENDPOINT_TYPE, bool)+0x60>
    1584:	f894 3024 	ldrb.w	r3, [r4, #36]	; 0x24
    1588:	454b      	cmp	r3, r9
    158a:	d1c9      	bne.n	1520 <USBHost::generalTransfer(USBDeviceConnected*, USBEndpoint*, unsigned char*, unsigned long, bool, ENDPOINT_TYPE, bool)+0x4c>
    158c:	6da3      	ldr	r3, [r4, #88]	; 0x58
    158e:	f897 2102 	ldrb.w	r2, [r7, #258]	; 0x102
    1592:	681b      	ldr	r3, [r3, #0]
    1594:	f003 037f 	and.w	r3, r3, #127	; 0x7f
    1598:	429a      	cmp	r2, r3
    159a:	d012      	beq.n	15c2 <USBHost::generalTransfer(USBDeviceConnected*, USBEndpoint*, unsigned char*, unsigned long, bool, ENDPOINT_TYPE, bool)+0xee>
    159c:	6822      	ldr	r2, [r4, #0]
    159e:	4623      	mov	r3, r4
    15a0:	9200      	str	r2, [sp, #0]
    15a2:	4817      	ldr	r0, [pc, #92]	; (1600 <USBHost::generalTransfer(USBDeviceConnected*, USBEndpoint*, unsigned char*, unsigned long, bool, ENDPOINT_TYPE, bool)+0x12c>)
    15a4:	4913      	ldr	r1, [pc, #76]	; (15f4 <USBHost::generalTransfer(USBDeviceConnected*, USBEndpoint*, unsigned char*, unsigned long, bool, ENDPOINT_TYPE, bool)+0x120>)
    15a6:	f240 4202 	movw	r2, #1026	; 0x402
    15aa:	f004 fccb 	bl	5f44 <iprintf>
    15ae:	2412      	movs	r4, #18
    15b0:	e7c0      	b.n	1534 <USBHost::generalTransfer(USBDeviceConnected*, USBEndpoint*, unsigned char*, unsigned long, bool, ENDPOINT_TYPE, bool)+0x60>
    15b2:	4814      	ldr	r0, [pc, #80]	; (1604 <USBHost::generalTransfer(USBDeviceConnected*, USBEndpoint*, unsigned char*, unsigned long, bool, ENDPOINT_TYPE, bool)+0x130>)
    15b4:	490f      	ldr	r1, [pc, #60]	; (15f4 <USBHost::generalTransfer(USBDeviceConnected*, USBEndpoint*, unsigned char*, unsigned long, bool, ENDPOINT_TYPE, bool)+0x120>)
    15b6:	f240 32f3 	movw	r2, #1011	; 0x3f3
    15ba:	f004 fcc3 	bl	5f44 <iprintf>
    15be:	2412      	movs	r4, #18
    15c0:	e7b8      	b.n	1534 <USBHost::generalTransfer(USBDeviceConnected*, USBEndpoint*, unsigned char*, unsigned long, bool, ENDPOINT_TYPE, bool)+0x60>
    15c2:	4630      	mov	r0, r6
    15c4:	4652      	mov	r2, r10
    15c6:	4621      	mov	r1, r4
    15c8:	9b12      	ldr	r3, [sp, #72]	; 0x48
    15ca:	f7ff fe7f 	bl	12cc <USBHost::addTransfer(USBEndpoint*, unsigned char*, unsigned long)>
    15ce:	f1bb 0f00 	cmp.w	r11, #0
    15d2:	d101      	bne.n	15d8 <USBHost::generalTransfer(USBDeviceConnected*, USBEndpoint*, unsigned char*, unsigned long, bool, ENDPOINT_TYPE, bool)+0x104>
    15d4:	2411      	movs	r4, #17
    15d6:	e7ad      	b.n	1534 <USBHost::generalTransfer(USBDeviceConnected*, USBEndpoint*, unsigned char*, unsigned long, bool, ENDPOINT_TYPE, bool)+0x60>
    15d8:	6861      	ldr	r1, [r4, #4]
    15da:	a805      	add	r0, sp, #20
    15dc:	f04f 32ff 	mov.w	r2, #4294967295	; 0xffffffff
    15e0:	f001 fc64 	bl	2eac <osMessageGet>
    15e4:	f894 4025 	ldrb.w	r4, [r4, #37]	; 0x25
    15e8:	2c10      	cmp	r4, #16
    15ea:	bf08      	it	eq
    15ec:	2400      	moveq	r4, #0
    15ee:	e7a1      	b.n	1534 <USBHost::generalTransfer(USBDeviceConnected*, USBEndpoint*, unsigned char*, unsigned long, bool, ENDPOINT_TYPE, bool)+0x60>
    15f0:	00008048 	.word	0x00008048
    15f4:	00007ec4 	.word	0x00007ec4
    15f8:	00007fb8 	.word	0x00007fb8
    15fc:	00007f80 	.word	0x00007f80
    1600:	00007ff4 	.word	0x00007ff4
    1604:	00007f9c 	.word	0x00007f9c

00001608 <USBHost::bulkWrite(USBDeviceConnected*, USBEndpoint*, unsigned char*, unsigned long, bool)>:
    1608:	b5f0      	push	{r4, r5, r6, r7, lr}
    160a:	b085      	sub	sp, #20
    160c:	9c0a      	ldr	r4, [sp, #40]	; 0x28
    160e:	f89d 702c 	ldrb.w	r7, [sp, #44]	; 0x2c
    1612:	2602      	movs	r6, #2
    1614:	2501      	movs	r5, #1
    1616:	e88d 0090 	stmia.w	sp, {r4, r7}
    161a:	9602      	str	r6, [sp, #8]
    161c:	9503      	str	r5, [sp, #12]
    161e:	f7ff ff59 	bl	14d4 <USBHost::generalTransfer(USBDeviceConnected*, USBEndpoint*, unsigned char*, unsigned long, bool, ENDPOINT_TYPE, bool)>
    1622:	b005      	add	sp, #20
    1624:	bdf0      	pop	{r4, r5, r6, r7, pc}
    1626:	bf00      	nop

00001628 <USBHost::bulkRead(USBDeviceConnected*, USBEndpoint*, unsigned char*, unsigned long, bool)>:
    1628:	b5f0      	push	{r4, r5, r6, r7, lr}
    162a:	b085      	sub	sp, #20
    162c:	9c0a      	ldr	r4, [sp, #40]	; 0x28
    162e:	f89d 702c 	ldrb.w	r7, [sp, #44]	; 0x2c
    1632:	2602      	movs	r6, #2
    1634:	2500      	movs	r5, #0
    1636:	e88d 0090 	stmia.w	sp, {r4, r7}
    163a:	9602      	str	r6, [sp, #8]
    163c:	9503      	str	r5, [sp, #12]
    163e:	f7ff ff49 	bl	14d4 <USBHost::generalTransfer(USBDeviceConnected*, USBEndpoint*, unsigned char*, unsigned long, bool, ENDPOINT_TYPE, bool)>
    1642:	b005      	add	sp, #20
    1644:	bdf0      	pop	{r4, r5, r6, r7, pc}
    1646:	bf00      	nop

00001648 <USBHost::interruptRead(USBDeviceConnected*, USBEndpoint*, unsigned char*, unsigned long, bool)>:
    1648:	b5f0      	push	{r4, r5, r6, r7, lr}
    164a:	b085      	sub	sp, #20
    164c:	9c0a      	ldr	r4, [sp, #40]	; 0x28
    164e:	f89d 702c 	ldrb.w	r7, [sp, #44]	; 0x2c
    1652:	2603      	movs	r6, #3
    1654:	2500      	movs	r5, #0
    1656:	e88d 0090 	stmia.w	sp, {r4, r7}
    165a:	9602      	str	r6, [sp, #8]
    165c:	9503      	str	r5, [sp, #12]
    165e:	f7ff ff39 	bl	14d4 <USBHost::generalTransfer(USBDeviceConnected*, USBEndpoint*, unsigned char*, unsigned long, bool, ENDPOINT_TYPE, bool)>
    1662:	b005      	add	sp, #20
    1664:	bdf0      	pop	{r4, r5, r6, r7, pc}
    1666:	bf00      	nop

00001668 <USBHost::controlTransfer(USBDeviceConnected*, unsigned char, unsigned char, unsigned long, unsigned long, unsigned char*, unsigned long, bool)>:
    1668:	e92d 4ff0 	stmdb	sp!, {r4, r5, r6, r7, r8, r9, r10, r11, lr}
    166c:	f500 5409 	add.w	r4, r0, #8768	; 0x2240
    1670:	b087      	sub	sp, #28
    1672:	340c      	adds	r4, #12
    1674:	4692      	mov	r10, r2
    1676:	f89d 2050 	ldrb.w	r2, [sp, #80]	; 0x50
    167a:	4683      	mov	r11, r0
    167c:	460d      	mov	r5, r1
    167e:	f641 3608 	movw	r6, #6920	; 0x1b08
    1682:	f04f 31ff 	mov.w	r1, #4294967295	; 0xffffffff
    1686:	4620      	mov	r0, r4
    1688:	4699      	mov	r9, r3
    168a:	9201      	str	r2, [sp, #4]
    168c:	f8dd 8040 	ldr.w	r8, [sp, #64]	; 0x40
    1690:	9f13      	ldr	r7, [sp, #76]	; 0x4c
    1692:	f002 fb95 	bl	3dc0 <rtos::Mutex::lock(unsigned long)>
    1696:	f85b 0006 	ldr.w	r0, [r11, r6]
    169a:	f895 1106 	ldrb.w	r1, [r5, #262]	; 0x106
    169e:	f000 fe7d 	bl	239c <USBEndpoint::setSpeed(unsigned char)>
    16a2:	f85b 0006 	ldr.w	r0, [r11, r6]
    16a6:	f8d5 10f8 	ldr.w	r1, [r5, #248]	; 0xf8
    16aa:	f000 fe5b 	bl	2364 <USBEndpoint::setSize(unsigned long)>
    16ae:	f895 3107 	ldrb.w	r3, [r5, #263]	; 0x107
    16b2:	f85b 0006 	ldr.w	r0, [r11, r6]
    16b6:	f003 01ff 	and.w	r1, r3, #255	; 0xff
    16ba:	2b00      	cmp	r3, #0
    16bc:	d051      	beq.n	1762 <USBHost::controlTransfer(USBDeviceConnected*, unsigned char, unsigned char, unsigned long, unsigned long, unsigned char*, unsigned long, bool)+0xfa>
    16be:	f895 1102 	ldrb.w	r1, [r5, #258]	; 0x102
    16c2:	f000 fe5d 	bl	2380 <USBEndpoint::setDeviceAddress(unsigned char)>
    16c6:	f641 3508 	movw	r5, #6920	; 0x1b08
    16ca:	f242 01fa 	movw	r1, #8442	; 0x20fa
    16ce:	f242 02fb 	movw	r2, #8443	; 0x20fb
    16d2:	f85b 0005 	ldr.w	r0, [r11, r5]
    16d6:	f3c8 2e07 	ubfx	lr, r8, #8, #8
    16da:	f80b a001 	strb.w	r10, [r11, r1]
    16de:	f242 03fc 	movw	r3, #8444	; 0x20fc
    16e2:	f80b 9002 	strb.w	r9, [r11, r2]
    16e6:	f242 06fd 	movw	r6, #8445	; 0x20fd
    16ea:	9a11      	ldr	r2, [sp, #68]	; 0x44
    16ec:	f80b 8003 	strb.w	r8, [r11, r3]
    16f0:	f80b e006 	strb.w	lr, [r11, r6]
    16f4:	f8dd e044 	ldr.w	lr, [sp, #68]	; 0x44
    16f8:	f242 1301 	movw	r3, #8449	; 0x2101
    16fc:	f242 01fe 	movw	r1, #8446	; 0x20fe
    1700:	f3c2 2907 	ubfx	r9, r2, #8, #8
    1704:	123e      	asrs	r6, r7, #8
    1706:	f242 02ff 	movw	r2, #8447	; 0x20ff
    170a:	f50b 5804 	add.w	r8, r11, #8448	; 0x2100
    170e:	f80b e001 	strb.w	lr, [r11, r1]
    1712:	f80b 9002 	strb.w	r9, [r11, r2]
    1716:	2100      	movs	r1, #0
    1718:	f888 7000 	strb.w	r7, [r8]
    171c:	f80b 6003 	strb.w	r6, [r11, r3]
    1720:	f000 fe48 	bl	23b4 <USBEndpoint::setNextToken(unsigned long)>
    1724:	f50b 5203 	add.w	r2, r11, #8384	; 0x20c0
    1728:	f85b 1005 	ldr.w	r1, [r11, r5]
    172c:	323a      	adds	r2, #58	; 0x3a
    172e:	2308      	movs	r3, #8
    1730:	4658      	mov	r0, r11
    1732:	f7ff fdcb 	bl	12cc <USBHost::addTransfer(USBEndpoint*, unsigned char*, unsigned long)>
    1736:	f85b 3005 	ldr.w	r3, [r11, r5]
    173a:	a803      	add	r0, sp, #12
    173c:	6859      	ldr	r1, [r3, #4]
    173e:	f04f 32ff 	mov.w	r2, #4294967295	; 0xffffffff
    1742:	f001 fbb3 	bl	2eac <osMessageGet>
    1746:	f85b 3005 	ldr.w	r3, [r11, r5]
    174a:	f893 6025 	ldrb.w	r6, [r3, #37]	; 0x25
    174e:	b2f6      	uxtb	r6, r6
    1750:	2e10      	cmp	r6, #16
    1752:	d009      	beq.n	1768 <USBHost::controlTransfer(USBDeviceConnected*, unsigned char, unsigned char, unsigned long, unsigned long, unsigned char*, unsigned long, bool)+0x100>
    1754:	4620      	mov	r0, r4
    1756:	f002 fb37 	bl	3dc8 <rtos::Mutex::unlock()>
    175a:	4630      	mov	r0, r6
    175c:	b007      	add	sp, #28
    175e:	e8bd 8ff0 	ldmia.w	sp!, {r4, r5, r6, r7, r8, r9, r10, r11, pc}
    1762:	f000 fe0d 	bl	2380 <USBEndpoint::setDeviceAddress(unsigned char)>
    1766:	e7ae      	b.n	16c6 <USBHost::controlTransfer(USBDeviceConnected*, unsigned char, unsigned char, unsigned long, unsigned long, unsigned char*, unsigned long, bool)+0x5e>
    1768:	b307      	cbz	r7, 17ac <USBHost::controlTransfer(USBDeviceConnected*, unsigned char, unsigned char, unsigned long, unsigned long, unsigned char*, unsigned long, bool)+0x144>
    176a:	9b01      	ldr	r3, [sp, #4]
    176c:	f85b 0005 	ldr.w	r0, [r11, r5]
    1770:	2b00      	cmp	r3, #0
    1772:	bf0c      	ite	eq
    1774:	f44f 1180 	moveq.w	r1, #1048576	; 0x100000
    1778:	f44f 2100 	movne.w	r1, #524288	; 0x80000
    177c:	f000 fe1a 	bl	23b4 <USBEndpoint::setNextToken(unsigned long)>
    1780:	f85b 1005 	ldr.w	r1, [r11, r5]
    1784:	463b      	mov	r3, r7
    1786:	9a12      	ldr	r2, [sp, #72]	; 0x48
    1788:	4658      	mov	r0, r11
    178a:	f7ff fd9f 	bl	12cc <USBHost::addTransfer(USBEndpoint*, unsigned char*, unsigned long)>
    178e:	f85b 3005 	ldr.w	r3, [r11, r5]
    1792:	a803      	add	r0, sp, #12
    1794:	6859      	ldr	r1, [r3, #4]
    1796:	f04f 32ff 	mov.w	r2, #4294967295	; 0xffffffff
    179a:	f001 fb87 	bl	2eac <osMessageGet>
    179e:	f85b 3005 	ldr.w	r3, [r11, r5]
    17a2:	f893 6025 	ldrb.w	r6, [r3, #37]	; 0x25
    17a6:	b2f6      	uxtb	r6, r6
    17a8:	2e10      	cmp	r6, #16
    17aa:	d1d3      	bne.n	1754 <USBHost::controlTransfer(USBDeviceConnected*, unsigned char, unsigned char, unsigned long, unsigned long, unsigned char*, unsigned long, bool)+0xec>
    17ac:	9a01      	ldr	r2, [sp, #4]
    17ae:	f641 3508 	movw	r5, #6920	; 0x1b08
    17b2:	2a00      	cmp	r2, #0
    17b4:	bf14      	ite	ne
    17b6:	f44f 1180 	movne.w	r1, #1048576	; 0x100000
    17ba:	f44f 2100 	moveq.w	r1, #524288	; 0x80000
    17be:	f85b 0005 	ldr.w	r0, [r11, r5]
    17c2:	f000 fdf7 	bl	23b4 <USBEndpoint::setNextToken(unsigned long)>
    17c6:	2200      	movs	r2, #0
    17c8:	4613      	mov	r3, r2
    17ca:	f85b 1005 	ldr.w	r1, [r11, r5]
    17ce:	4658      	mov	r0, r11
    17d0:	f7ff fd7c 	bl	12cc <USBHost::addTransfer(USBEndpoint*, unsigned char*, unsigned long)>
    17d4:	f85b 3005 	ldr.w	r3, [r11, r5]
    17d8:	a803      	add	r0, sp, #12
    17da:	6859      	ldr	r1, [r3, #4]
    17dc:	f04f 32ff 	mov.w	r2, #4294967295	; 0xffffffff
    17e0:	f001 fb64 	bl	2eac <osMessageGet>
    17e4:	f85b 3005 	ldr.w	r3, [r11, r5]
    17e8:	f893 6025 	ldrb.w	r6, [r3, #37]	; 0x25
    17ec:	2e10      	cmp	r6, #16
    17ee:	bf08      	it	eq
    17f0:	2600      	moveq	r6, #0
    17f2:	e7af      	b.n	1754 <USBHost::controlTransfer(USBDeviceConnected*, unsigned char, unsigned char, unsigned long, unsigned long, unsigned char*, unsigned long, bool)+0xec>

000017f4 <USBHost::controlRead(USBDeviceConnected*, unsigned char, unsigned char, unsigned long, unsigned long, unsigned char*, unsigned long)>:
    17f4:	b5f0      	push	{r4, r5, r6, r7, lr}
    17f6:	b087      	sub	sp, #28
    17f8:	9d0e      	ldr	r5, [sp, #56]	; 0x38
    17fa:	9f0c      	ldr	r7, [sp, #48]	; 0x30
    17fc:	9e0d      	ldr	r6, [sp, #52]	; 0x34
    17fe:	9502      	str	r5, [sp, #8]
    1800:	9d0f      	ldr	r5, [sp, #60]	; 0x3c
    1802:	2400      	movs	r4, #0
    1804:	9700      	str	r7, [sp, #0]
    1806:	9601      	str	r6, [sp, #4]
    1808:	9503      	str	r5, [sp, #12]
    180a:	9404      	str	r4, [sp, #16]
    180c:	f7ff ff2c 	bl	1668 <USBHost::controlTransfer(USBDeviceConnected*, unsigned char, unsigned char, unsigned long, unsigned long, unsigned char*, unsigned long, bool)>
    1810:	b007      	add	sp, #28
    1812:	bdf0      	pop	{r4, r5, r6, r7, pc}

00001814 <USBHost::getDeviceDescriptor(USBDeviceConnected*, unsigned char*, unsigned short, unsigned short*)>:
    1814:	b5f0      	push	{r4, r5, r6, r7, lr}
    1816:	2b11      	cmp	r3, #17
    1818:	b087      	sub	sp, #28
    181a:	bf94      	ite	ls
    181c:	461f      	movls	r7, r3
    181e:	2712      	movhi	r7, #18
    1820:	461c      	mov	r4, r3
    1822:	f44f 7680 	mov.w	r6, #256	; 0x100
    1826:	2300      	movs	r3, #0
    1828:	9d0c      	ldr	r5, [sp, #48]	; 0x30
    182a:	9202      	str	r2, [sp, #8]
    182c:	9301      	str	r3, [sp, #4]
    182e:	9304      	str	r3, [sp, #16]
    1830:	9703      	str	r7, [sp, #12]
    1832:	9600      	str	r6, [sp, #0]
    1834:	2280      	movs	r2, #128	; 0x80
    1836:	2306      	movs	r3, #6
    1838:	f7ff ff16 	bl	1668 <USBHost::controlTransfer(USBDeviceConnected*, unsigned char, unsigned char, unsigned long, unsigned long, unsigned char*, unsigned long, bool)>
    183c:	b11d      	cbz	r5, 1846 <USBHost::getDeviceDescriptor(USBDeviceConnected*, unsigned char*, unsigned short, unsigned short*)+0x32>
    183e:	2c12      	cmp	r4, #18
    1840:	bf28      	it	cs
    1842:	2412      	movcs	r4, #18
    1844:	802c      	strh	r4, [r5, #0]
    1846:	b007      	add	sp, #28
    1848:	bdf0      	pop	{r4, r5, r6, r7, pc}
    184a:	bf00      	nop

0000184c <USBHost::getConfigurationDescriptor(USBDeviceConnected*, unsigned char*, unsigned short, unsigned short*)>:
    184c:	e92d 43f0 	stmdb	sp!, {r4, r5, r6, r7, r8, r9, lr}
    1850:	4614      	mov	r4, r2
    1852:	b087      	sub	sp, #28
    1854:	2200      	movs	r2, #0
    1856:	f44f 7600 	mov.w	r6, #512	; 0x200
    185a:	2509      	movs	r5, #9
    185c:	9600      	str	r6, [sp, #0]
    185e:	9201      	str	r2, [sp, #4]
    1860:	9204      	str	r2, [sp, #16]
    1862:	9503      	str	r5, [sp, #12]
    1864:	9402      	str	r4, [sp, #8]
    1866:	4698      	mov	r8, r3
    1868:	2280      	movs	r2, #128	; 0x80
    186a:	2306      	movs	r3, #6
    186c:	4681      	mov	r9, r0
    186e:	460f      	mov	r7, r1
    1870:	9e0e      	ldr	r6, [sp, #56]	; 0x38
    1872:	f7ff fef9 	bl	1668 <USBHost::controlTransfer(USBDeviceConnected*, unsigned char, unsigned char, unsigned long, unsigned long, unsigned char*, unsigned long, bool)>
    1876:	4605      	mov	r5, r0
    1878:	b9d8      	cbnz	r0, 18b2 <USBHost::getConfigurationDescriptor(USBDeviceConnected*, unsigned char*, unsigned short, unsigned short*)+0x66>
    187a:	78e2      	ldrb	r2, [r4, #3]
    187c:	78a3      	ldrb	r3, [r4, #2]
    187e:	ea43 2302 	orr.w	r3, r3, r2, lsl #8
    1882:	4543      	cmp	r3, r8
    1884:	bf28      	it	cs
    1886:	4643      	movcs	r3, r8
    1888:	b106      	cbz	r6, 188c <USBHost::getConfigurationDescriptor(USBDeviceConnected*, unsigned char*, unsigned short, unsigned short*)+0x40>
    188a:	8033      	strh	r3, [r6, #0]
    188c:	2200      	movs	r2, #0
    188e:	f44f 7500 	mov.w	r5, #512	; 0x200
    1892:	9303      	str	r3, [sp, #12]
    1894:	9500      	str	r5, [sp, #0]
    1896:	9201      	str	r2, [sp, #4]
    1898:	9204      	str	r2, [sp, #16]
    189a:	9402      	str	r4, [sp, #8]
    189c:	4648      	mov	r0, r9
    189e:	4639      	mov	r1, r7
    18a0:	2280      	movs	r2, #128	; 0x80
    18a2:	2306      	movs	r3, #6
    18a4:	f7ff fee0 	bl	1668 <USBHost::controlTransfer(USBDeviceConnected*, unsigned char, unsigned char, unsigned long, unsigned long, unsigned char*, unsigned long, bool)>
    18a8:	4605      	mov	r5, r0
    18aa:	4628      	mov	r0, r5
    18ac:	b007      	add	sp, #28
    18ae:	e8bd 83f0 	ldmia.w	sp!, {r4, r5, r6, r7, r8, r9, pc}
    18b2:	4905      	ldr	r1, [pc, #20]	; (18c8 <USBHost::getConfigurationDescriptor(USBDeviceConnected*, unsigned char*, unsigned short, unsigned short*)+0x7c>)
    18b4:	f240 3202 	movw	r2, #770	; 0x302
    18b8:	4804      	ldr	r0, [pc, #16]	; (18cc <USBHost::getConfigurationDescriptor(USBDeviceConnected*, unsigned char*, unsigned short, unsigned short*)+0x80>)
    18ba:	f004 fb43 	bl	5f44 <iprintf>
    18be:	4628      	mov	r0, r5
    18c0:	b007      	add	sp, #28
    18c2:	e8bd 83f0 	ldmia.w	sp!, {r4, r5, r6, r7, r8, r9, pc}
    18c6:	bf00      	nop
    18c8:	00007ec4 	.word	0x00007ec4
    18cc:	00008090 	.word	0x00008090

000018d0 <USBHost::controlWrite(USBDeviceConnected*, unsigned char, unsigned char, unsigned long, unsigned long, unsigned char*, unsigned long)>:
    18d0:	b5f0      	push	{r4, r5, r6, r7, lr}
    18d2:	b087      	sub	sp, #28
    18d4:	9d0e      	ldr	r5, [sp, #56]	; 0x38
    18d6:	9f0c      	ldr	r7, [sp, #48]	; 0x30
    18d8:	9e0d      	ldr	r6, [sp, #52]	; 0x34
    18da:	9502      	str	r5, [sp, #8]
    18dc:	9d0f      	ldr	r5, [sp, #60]	; 0x3c
    18de:	2401      	movs	r4, #1
    18e0:	9700      	str	r7, [sp, #0]
    18e2:	9601      	str	r6, [sp, #4]
    18e4:	9503      	str	r5, [sp, #12]
    18e6:	9404      	str	r4, [sp, #16]
    18e8:	f7ff febe 	bl	1668 <USBHost::controlTransfer(USBDeviceConnected*, unsigned char, unsigned char, unsigned long, unsigned long, unsigned char*, unsigned long, bool)>
    18ec:	b007      	add	sp, #28
    18ee:	bdf0      	pop	{r4, r5, r6, r7, pc}

000018f0 <USBHost::setAddress(USBDeviceConnected*, unsigned char)>:
    18f0:	b510      	push	{r4, lr}
    18f2:	2300      	movs	r3, #0
    18f4:	b086      	sub	sp, #24
    18f6:	2401      	movs	r4, #1
    18f8:	e88d 000c 	stmia.w	sp, {r2, r3}
    18fc:	9302      	str	r3, [sp, #8]
    18fe:	9303      	str	r3, [sp, #12]
    1900:	461a      	mov	r2, r3
    1902:	9404      	str	r4, [sp, #16]
    1904:	2305      	movs	r3, #5
    1906:	f7ff feaf 	bl	1668 <USBHost::controlTransfer(USBDeviceConnected*, unsigned char, unsigned char, unsigned long, unsigned long, unsigned char*, unsigned long, bool)>
    190a:	b006      	add	sp, #24
    190c:	bd10      	pop	{r4, pc}
    190e:	bf00      	nop

00001910 <USBHost::usb_process()>:
    1910:	e92d 4ff0 	stmdb	sp!, {r4, r5, r6, r7, r8, r9, r10, r11, lr}
    1914:	f500 5209 	add.w	r2, r0, #8768	; 0x2240
    1918:	b095      	sub	sp, #84	; 0x54
    191a:	9206      	str	r2, [sp, #24]
    191c:	f500 5302 	add.w	r3, r0, #8320	; 0x2080
    1920:	930c      	str	r3, [sp, #48]	; 0x30
    1922:	9b06      	ldr	r3, [sp, #24]
    1924:	f500 52d8 	add.w	r2, r0, #6912	; 0x1b00
    1928:	9208      	str	r2, [sp, #32]
    192a:	330c      	adds	r3, #12
    192c:	9306      	str	r3, [sp, #24]
    192e:	9b08      	ldr	r3, [sp, #32]
    1930:	f500 52d9 	add.w	r2, r0, #6944	; 0x1b20
    1934:	9207      	str	r2, [sp, #28]
    1936:	3308      	adds	r3, #8
    1938:	3204      	adds	r2, #4
    193a:	920b      	str	r2, [sp, #44]	; 0x2c
    193c:	9308      	str	r3, [sp, #32]
    193e:	9a0c      	ldr	r2, [sp, #48]	; 0x30
    1940:	9b07      	ldr	r3, [sp, #28]
    1942:	f500 5805 	add.w	r8, r0, #8512	; 0x2140
    1946:	3208      	adds	r2, #8
    1948:	3308      	adds	r3, #8
    194a:	4605      	mov	r5, r0
    194c:	f108 0810 	add.w	r8, r8, #16
    1950:	920c      	str	r2, [sp, #48]	; 0x30
    1952:	9307      	str	r3, [sp, #28]
    1954:	a811      	add	r0, sp, #68	; 0x44
    1956:	f8d8 1000 	ldr.w	r1, [r8]
    195a:	f04f 32ff 	mov.w	r2, #4294967295	; 0xffffffff
    195e:	f001 fbd9 	bl	3114 <osMailGet>
    1962:	9b11      	ldr	r3, [sp, #68]	; 0x44
    1964:	2b20      	cmp	r3, #32
    1966:	d1f5      	bne.n	1954 <USBHost::usb_process()+0x44>
    1968:	9f12      	ldr	r7, [sp, #72]	; 0x48
    196a:	783c      	ldrb	r4, [r7, #0]
    196c:	2c02      	cmp	r4, #2
    196e:	d009      	beq.n	1984 <USBHost::usb_process()+0x74>
    1970:	2c04      	cmp	r4, #4
    1972:	d070      	beq.n	1a56 <USBHost::usb_process()+0x146>
    1974:	2c01      	cmp	r4, #1
    1976:	d052      	beq.n	1a1e <USBHost::usb_process()+0x10e>
    1978:	4639      	mov	r1, r7
    197a:	f8d8 0000 	ldr.w	r0, [r8]
    197e:	f001 fbaf 	bl	30e0 <osMailFree>
    1982:	e7e7      	b.n	1954 <USBHost::usb_process()+0x44>
    1984:	f04f 31ff 	mov.w	r1, #4294967295	; 0xffffffff
    1988:	9806      	ldr	r0, [sp, #24]
    198a:	f002 fa19 	bl	3dc0 <rtos::Mutex::lock(unsigned long)>
    198e:	2100      	movs	r1, #0
    1990:	4628      	mov	r0, r5
    1992:	f000 fe6b 	bl	266c <USBHALHost::disableList(ENDPOINT_TYPE)>
    1996:	4621      	mov	r1, r4
    1998:	4606      	mov	r6, r0
    199a:	4628      	mov	r0, r5
    199c:	f000 fe66 	bl	266c <USBHALHost::disableList(ENDPOINT_TYPE)>
    19a0:	2103      	movs	r1, #3
    19a2:	4604      	mov	r4, r0
    19a4:	4628      	mov	r0, r5
    19a6:	f000 fe61 	bl	266c <USBHALHost::disableList(ENDPOINT_TYPE)>
    19aa:	f897 e008 	ldrb.w	lr, [r7, #8]
    19ae:	4681      	mov	r9, r0
    19b0:	f897 c009 	ldrb.w	r12, [r7, #9]
    19b4:	68f8      	ldr	r0, [r7, #12]
    19b6:	9907      	ldr	r1, [sp, #28]
    19b8:	2305      	movs	r3, #5
    19ba:	f891 20fc 	ldrb.w	r2, [r1, #252]	; 0xfc
    19be:	4572      	cmp	r2, lr
    19c0:	d01f      	beq.n	1a02 <USBHost::usb_process()+0xf2>
    19c2:	3b01      	subs	r3, #1
    19c4:	f501 7186 	add.w	r1, r1, #268	; 0x10c
    19c8:	d1f7      	bne.n	19ba <USBHost::usb_process()+0xaa>
    19ca:	b99e      	cbnz	r6, 19f4 <USBHost::usb_process()+0xe4>
    19cc:	b934      	cbnz	r4, 19dc <USBHost::usb_process()+0xcc>
    19ce:	f1b9 0f00 	cmp.w	r9, #0
    19d2:	d10a      	bne.n	19ea <USBHost::usb_process()+0xda>
    19d4:	9806      	ldr	r0, [sp, #24]
    19d6:	f002 f9f7 	bl	3dc8 <rtos::Mutex::unlock()>
    19da:	e7cd      	b.n	1978 <USBHost::usb_process()+0x68>
    19dc:	4628      	mov	r0, r5
    19de:	2102      	movs	r1, #2
    19e0:	f000 fe26 	bl	2630 <USBHALHost::enableList(ENDPOINT_TYPE)>
    19e4:	f1b9 0f00 	cmp.w	r9, #0
    19e8:	d0f4      	beq.n	19d4 <USBHost::usb_process()+0xc4>
    19ea:	4628      	mov	r0, r5
    19ec:	2103      	movs	r1, #3
    19ee:	f000 fe1f 	bl	2630 <USBHALHost::enableList(ENDPOINT_TYPE)>
    19f2:	e7ef      	b.n	19d4 <USBHost::usb_process()+0xc4>
    19f4:	4628      	mov	r0, r5
    19f6:	2100      	movs	r1, #0
    19f8:	f000 fe1a 	bl	2630 <USBHALHost::enableList(ENDPOINT_TYPE)>
    19fc:	2c00      	cmp	r4, #0
    19fe:	d0e6      	beq.n	19ce <USBHost::usb_process()+0xbe>
    1a00:	e7ec      	b.n	19dc <USBHost::usb_process()+0xcc>
    1a02:	f891 20fd 	ldrb.w	r2, [r1, #253]	; 0xfd
    1a06:	4562      	cmp	r2, r12
    1a08:	d1db      	bne.n	19c2 <USBHost::usb_process()+0xb2>
    1a0a:	b110      	cbz	r0, 1a12 <USBHost::usb_process()+0x102>
    1a0c:	684a      	ldr	r2, [r1, #4]
    1a0e:	4290      	cmp	r0, r2
    1a10:	d1d7      	bne.n	19c2 <USBHost::usb_process()+0xb2>
    1a12:	4628      	mov	r0, r5
    1a14:	f7ff fa94 	bl	f40 <USBHost::freeDevice(USBDeviceConnected*)>
    1a18:	2e00      	cmp	r6, #0
    1a1a:	d0d7      	beq.n	19cc <USBHost::usb_process()+0xbc>
    1a1c:	e7ea      	b.n	19f4 <USBHost::usb_process()+0xe4>
    1a1e:	f04f 0900 	mov.w	r9, #0
    1a22:	9806      	ldr	r0, [sp, #24]
    1a24:	f04f 31ff 	mov.w	r1, #4294967295	; 0xffffffff
    1a28:	f88d 9040 	strb.w	r9, [sp, #64]	; 0x40
    1a2c:	f002 f9c8 	bl	3dc0 <rtos::Mutex::lock(unsigned long)>
    1a30:	eb05 0b09 	add.w	r11, r5, r9
    1a34:	f50b 5301 	add.w	r3, r11, #8256	; 0x2040
    1a38:	f893 6024 	ldrb.w	r6, [r3, #36]	; 0x24
    1a3c:	2e00      	cmp	r6, #0
    1a3e:	d042      	beq.n	1ac6 <USBHost::usb_process()+0x1b6>
    1a40:	f109 0901 	add.w	r9, r9, #1
    1a44:	f1b9 0f05 	cmp.w	r9, #5
    1a48:	d1f2      	bne.n	1a30 <USBHost::usb_process()+0x120>
    1a4a:	4995      	ldr	r1, [pc, #596]	; (1ca0 <USBHost::usb_process()+0x390>)
    1a4c:	2261      	movs	r2, #97	; 0x61
    1a4e:	4895      	ldr	r0, [pc, #596]	; (1ca4 <USBHost::usb_process()+0x394>)
    1a50:	f004 fa78 	bl	5f44 <iprintf>
    1a54:	e7be      	b.n	19d4 <USBHost::usb_process()+0xc4>
    1a56:	7afb      	ldrb	r3, [r7, #11]
    1a58:	f8d7 9004 	ldr.w	r9, [r7, #4]
    1a5c:	2b10      	cmp	r3, #16
    1a5e:	f8d9 6010 	ldr.w	r6, [r9, #16]
    1a62:	f000 80ff 	beq.w	1c64 <USBHost::usb_process()+0x354>
    1a66:	9a07      	ldr	r2, [sp, #28]
    1a68:	6834      	ldr	r4, [r6, #0]
    1a6a:	2100      	movs	r1, #0
    1a6c:	4294      	cmp	r4, r2
    1a6e:	f502 7286 	add.w	r2, r2, #268	; 0x10c
    1a72:	d007      	beq.n	1a84 <USBHost::usb_process()+0x174>
    1a74:	3101      	adds	r1, #1
    1a76:	2905      	cmp	r1, #5
    1a78:	f43f af7e 	beq.w	1978 <USBHost::usb_process()+0x68>
    1a7c:	4294      	cmp	r4, r2
    1a7e:	f502 7286 	add.w	r2, r2, #268	; 0x10c
    1a82:	d1f7      	bne.n	1a74 <USBHost::usb_process()+0x164>
    1a84:	186b      	adds	r3, r5, r1
    1a86:	f503 5301 	add.w	r3, r3, #8256	; 0x2040
    1a8a:	3320      	adds	r3, #32
    1a8c:	791b      	ldrb	r3, [r3, #4]
    1a8e:	2b00      	cmp	r3, #0
    1a90:	f43f af72 	beq.w	1978 <USBHost::usb_process()+0x68>
    1a94:	4630      	mov	r0, r6
    1a96:	f000 fcb3 	bl	2400 <USBEndpoint::getStateString()>
    1a9a:	6832      	ldr	r2, [r6, #0]
    1a9c:	9000      	str	r0, [sp, #0]
    1a9e:	9202      	str	r2, [sp, #8]
    1aa0:	9601      	str	r6, [sp, #4]
    1aa2:	f896 106c 	ldrb.w	r1, [r6, #108]	; 0x6c
    1aa6:	464b      	mov	r3, r9
    1aa8:	ebc1 1101 	rsb	r1, r1, r1, lsl #4
    1aac:	eb02 0281 	add.w	r2, r2, r1, lsl #2
    1ab0:	3238      	adds	r2, #56	; 0x38
    1ab2:	9203      	str	r2, [sp, #12]
    1ab4:	487c      	ldr	r0, [pc, #496]	; (1ca8 <USBHost::usb_process()+0x398>)
    1ab6:	497a      	ldr	r1, [pc, #488]	; (1ca0 <USBHost::usb_process()+0x390>)
    1ab8:	22ed      	movs	r2, #237	; 0xed
    1aba:	f004 fa43 	bl	5f44 <iprintf>
    1abe:	2310      	movs	r3, #16
    1ac0:	f886 3025 	strb.w	r3, [r6, #37]	; 0x25
    1ac4:	e758      	b.n	1978 <USBHost::usb_process()+0x68>
    1ac6:	f44f 7486 	mov.w	r4, #268	; 0x10c
    1aca:	fb04 5409 	mla	r4, r4, r9, r5
    1ace:	7abb      	ldrb	r3, [r7, #10]
    1ad0:	f504 54d9 	add.w	r4, r4, #6944	; 0x1b20
    1ad4:	3300      	adds	r3, #0
    1ad6:	f104 0408 	add.w	r4, r4, #8
    1ada:	bf18      	it	ne
    1adc:	2301      	movne	r3, #1
    1ade:	7a7a      	ldrb	r2, [r7, #9]
    1ae0:	4620      	mov	r0, r4
    1ae2:	7a39      	ldrb	r1, [r7, #8]
    1ae4:	f7fe ff92 	bl	a0c <USBDeviceConnected::init(unsigned char, unsigned char, bool)>
    1ae8:	9a0b      	ldr	r2, [sp, #44]	; 0x2c
    1aea:	f50b 5301 	add.w	r3, r11, #8256	; 0x2040
    1aee:	f892 a000 	ldrb.w	r10, [r2]
    1af2:	f04f 0c01 	mov.w	r12, #1
    1af6:	f50b 5202 	add.w	r2, r11, #8320	; 0x2080
    1afa:	f883 603d 	strb.w	r6, [r3, #61]	; 0x3d
    1afe:	f882 c002 	strb.w	r12, [r2, #2]
    1b02:	f1ba 0f00 	cmp.w	r10, #0
    1b06:	d116      	bne.n	1b36 <USBHost::usb_process()+0x226>
    1b08:	4662      	mov	r2, r12
    1b0a:	4651      	mov	r1, r10
    1b0c:	2308      	movs	r3, #8
    1b0e:	f8cd a000 	str.w	r10, [sp]
    1b12:	4628      	mov	r0, r5
    1b14:	f8cd c014 	str.w	r12, [sp, #20]
    1b18:	f7ff fad4 	bl	10c4 <USBHost::newEndpoint(ENDPOINT_TYPE, ENDPOINT_DIRECTION, unsigned long, unsigned char)>
    1b1c:	9b08      	ldr	r3, [sp, #32]
    1b1e:	4651      	mov	r1, r10
    1b20:	6018      	str	r0, [r3, #0]
    1b22:	681b      	ldr	r3, [r3, #0]
    1b24:	4652      	mov	r2, r10
    1b26:	4628      	mov	r0, r5
    1b28:	f7ff fb42 	bl	11b0 <USBHost::addEndpoint(USBDeviceConnected*, unsigned char, USBEndpoint*)>
    1b2c:	f8dd c014 	ldr.w	r12, [sp, #20]
    1b30:	9b0b      	ldr	r3, [sp, #44]	; 0x2c
    1b32:	f883 c000 	strb.w	r12, [r3]
    1b36:	68fb      	ldr	r3, [r7, #12]
    1b38:	b103      	cbz	r3, 1b3c <USBHost::usb_process()+0x22c>
    1b3a:	6063      	str	r3, [r4, #4]
    1b3c:	f04f 0a0a 	mov.w	r10, #10
    1b40:	e008      	b.n	1b54 <USBHost::usb_process()+0x244>
    1b42:	485a      	ldr	r0, [pc, #360]	; (1cac <USBHost::usb_process()+0x39c>)
    1b44:	4956      	ldr	r1, [pc, #344]	; (1ca0 <USBHost::usb_process()+0x390>)
    1b46:	f004 f9fd 	bl	5f44 <iprintf>
    1b4a:	f10a 3aff 	add.w	r10, r10, #4294967295	; 0xffffffff
    1b4e:	f01a 0aff 	ands.w	r10, r10, #255	; 0xff
    1b52:	d031      	beq.n	1bb8 <USBHost::usb_process()+0x2a8>
    1b54:	4621      	mov	r1, r4
    1b56:	4628      	mov	r0, r5
    1b58:	f7ff fafc 	bl	1154 <USBHost::resetDevice(USBDeviceConnected*)>
    1b5c:	2608      	movs	r6, #8
    1b5e:	2200      	movs	r2, #0
    1b60:	f884 2107 	strb.w	r2, [r4, #263]	; 0x107
    1b64:	f8c4 60f8 	str.w	r6, [r4, #248]	; 0xf8
    1b68:	4621      	mov	r1, r4
    1b6a:	9200      	str	r2, [sp, #0]
    1b6c:	4633      	mov	r3, r6
    1b6e:	aa0f      	add	r2, sp, #60	; 0x3c
    1b70:	4628      	mov	r0, r5
    1b72:	f7ff fe4f 	bl	1814 <USBHost::getDeviceDescriptor(USBDeviceConnected*, unsigned char*, unsigned short, unsigned short*)>
    1b76:	4621      	mov	r1, r4
    1b78:	227f      	movs	r2, #127	; 0x7f
    1b7a:	2800      	cmp	r0, #0
    1b7c:	d1e1      	bne.n	1b42 <USBHost::usb_process()+0x232>
    1b7e:	f89d 3043 	ldrb.w	r3, [sp, #67]	; 0x43
    1b82:	f894 2102 	ldrb.w	r2, [r4, #258]	; 0x102
    1b86:	f8c4 30f8 	str.w	r3, [r4, #248]	; 0xf8
    1b8a:	4628      	mov	r0, r5
    1b8c:	f7ff feb0 	bl	18f0 <USBHost::setAddress(USBDeviceConnected*, unsigned char)>
    1b90:	4686      	mov	lr, r0
    1b92:	f04f 0c01 	mov.w	r12, #1
    1b96:	4621      	mov	r1, r4
    1b98:	aa0f      	add	r2, sp, #60	; 0x3c
    1b9a:	4633      	mov	r3, r6
    1b9c:	4628      	mov	r0, r5
    1b9e:	f1be 0f00 	cmp.w	lr, #0
    1ba2:	d026      	beq.n	1bf2 <USBHost::usb_process()+0x2e2>
    1ba4:	4842      	ldr	r0, [pc, #264]	; (1cb0 <USBHost::usb_process()+0x3a0>)
    1ba6:	493e      	ldr	r1, [pc, #248]	; (1ca0 <USBHost::usb_process()+0x390>)
    1ba8:	228a      	movs	r2, #138	; 0x8a
    1baa:	f10a 3aff 	add.w	r10, r10, #4294967295	; 0xffffffff
    1bae:	f004 f9c9 	bl	5f44 <iprintf>
    1bb2:	f01a 0aff 	ands.w	r10, r10, #255	; 0xff
    1bb6:	d1cd      	bne.n	1b54 <USBHost::usb_process()+0x244>
    1bb8:	7a3b      	ldrb	r3, [r7, #8]
    1bba:	483e      	ldr	r0, [pc, #248]	; (1cb4 <USBHost::usb_process()+0x3a4>)
    1bbc:	9300      	str	r3, [sp, #0]
    1bbe:	7a7b      	ldrb	r3, [r7, #9]
    1bc0:	4937      	ldr	r1, [pc, #220]	; (1ca0 <USBHost::usb_process()+0x390>)
    1bc2:	9301      	str	r3, [sp, #4]
    1bc4:	229b      	movs	r2, #155	; 0x9b
    1bc6:	4623      	mov	r3, r4
    1bc8:	f004 f9bc 	bl	5f44 <iprintf>
    1bcc:	f89d 3040 	ldrb.w	r3, [sp, #64]	; 0x40
    1bd0:	2b09      	cmp	r3, #9
    1bd2:	d01a      	beq.n	1c0a <USBHost::usb_process()+0x2fa>
    1bd4:	2600      	movs	r6, #0
    1bd6:	68f8      	ldr	r0, [r7, #12]
    1bd8:	b110      	cbz	r0, 1be0 <USBHost::usb_process()+0x2d0>
    1bda:	4621      	mov	r1, r4
    1bdc:	f000 f9a2 	bl	1f24 <USBHostHub::deviceConnected(USBDeviceConnected*)>
    1be0:	2e00      	cmp	r6, #0
    1be2:	f47f aef7 	bne.w	19d4 <USBHost::usb_process()+0xc4>
    1be6:	f50b 5b01 	add.w	r11, r11, #8256	; 0x2040
    1bea:	2301      	movs	r3, #1
    1bec:	f88b 3024 	strb.w	r3, [r11, #36]	; 0x24
    1bf0:	e6f0      	b.n	19d4 <USBHost::usb_process()+0xc4>
    1bf2:	f884 c107 	strb.w	r12, [r4, #263]	; 0x107
    1bf6:	f8cd e000 	str.w	lr, [sp]
    1bfa:	f7ff fe0b 	bl	1814 <USBHost::getDeviceDescriptor(USBDeviceConnected*, unsigned char*, unsigned short, unsigned short*)>
    1bfe:	2800      	cmp	r0, #0
    1c00:	d0da      	beq.n	1bb8 <USBHost::usb_process()+0x2a8>
    1c02:	2064      	movs	r0, #100	; 0x64
    1c04:	f002 f934 	bl	3e70 <rtos::Thread::wait(unsigned long)>
    1c08:	e79f      	b.n	1b4a <USBHost::usb_process()+0x23a>
    1c0a:	2300      	movs	r3, #0
    1c0c:	f8dd a030 	ldr.w	r10, [sp, #48]	; 0x30
    1c10:	9709      	str	r7, [sp, #36]	; 0x24
    1c12:	f8cd 9034 	str.w	r9, [sp, #52]	; 0x34
    1c16:	461f      	mov	r7, r3
    1c18:	f8cd 8028 	str.w	r8, [sp, #40]	; 0x28
    1c1c:	eb05 0907 	add.w	r9, r5, r7
    1c20:	f509 5603 	add.w	r6, r9, #8384	; 0x20c0
    1c24:	3638      	adds	r6, #56	; 0x38
    1c26:	7832      	ldrb	r2, [r6, #0]
    1c28:	b96a      	cbnz	r2, 1c46 <USBHost::usb_process()+0x336>
    1c2a:	f04f 0803 	mov.w	r8, #3
    1c2e:	4650      	mov	r0, r10
    1c30:	4621      	mov	r1, r4
    1c32:	f000 f9a7 	bl	1f84 <USBHostHub::connect(USBDeviceConnected*)>
    1c36:	f108 38ff 	add.w	r8, r8, #4294967295	; 0xffffffff
    1c3a:	b9c0      	cbnz	r0, 1c6e <USBHost::usb_process()+0x35e>
    1c3c:	f018 08ff 	ands.w	r8, r8, #255	; 0xff
    1c40:	d1f5      	bne.n	1c2e <USBHost::usb_process()+0x31e>
    1c42:	7832      	ldrb	r2, [r6, #0]
    1c44:	bb42      	cbnz	r2, 1c98 <USBHost::usb_process()+0x388>
    1c46:	3701      	adds	r7, #1
    1c48:	2f02      	cmp	r7, #2
    1c4a:	f10a 0a38 	add.w	r10, r10, #56	; 0x38
    1c4e:	d1e5      	bne.n	1c1c <USBHost::usb_process()+0x30c>
    1c50:	4819      	ldr	r0, [pc, #100]	; (1cb8 <USBHost::usb_process()+0x3a8>)
    1c52:	4913      	ldr	r1, [pc, #76]	; (1ca0 <USBHost::usb_process()+0x390>)
    1c54:	22ae      	movs	r2, #174	; 0xae
    1c56:	9f09      	ldr	r7, [sp, #36]	; 0x24
    1c58:	f8dd 8028 	ldr.w	r8, [sp, #40]	; 0x28
    1c5c:	2601      	movs	r6, #1
    1c5e:	f004 f971 	bl	5f44 <iprintf>
    1c62:	e7b8      	b.n	1bd6 <USBHost::usb_process()+0x2c6>
    1c64:	f106 0038 	add.w	r0, r6, #56	; 0x38
    1c68:	f002 fb26 	bl	42b8 <mbed::FunctionPointer::call()>
    1c6c:	e684      	b.n	1978 <USBHost::usb_process()+0x68>
    1c6e:	4649      	mov	r1, r9
    1c70:	f8dd 9034 	ldr.w	r9, [sp, #52]	; 0x34
    1c74:	f44f 7386 	mov.w	r3, #268	; 0x10c
    1c78:	fb03 5309 	mla	r3, r3, r9, r5
    1c7c:	f501 5103 	add.w	r1, r1, #8384	; 0x20c0
    1c80:	f503 53d9 	add.w	r3, r3, #6944	; 0x1b20
    1c84:	2201      	movs	r2, #1
    1c86:	f8c3 a008 	str.w	r10, [r3, #8]
    1c8a:	9f09      	ldr	r7, [sp, #36]	; 0x24
    1c8c:	f8dd 8028 	ldr.w	r8, [sp, #40]	; 0x28
    1c90:	2600      	movs	r6, #0
    1c92:	f881 2038 	strb.w	r2, [r1, #56]	; 0x38
    1c96:	e79e      	b.n	1bd6 <USBHost::usb_process()+0x2c6>
    1c98:	9f09      	ldr	r7, [sp, #36]	; 0x24
    1c9a:	f8dd 8028 	ldr.w	r8, [sp, #40]	; 0x28
    1c9e:	e799      	b.n	1bd4 <USBHost::usb_process()+0x2c4>
    1ca0:	00007ec4 	.word	0x00007ec4
    1ca4:	000081b4 	.word	0x000081b4
    1ca8:	0000815c 	.word	0x0000815c
    1cac:	000080bc 	.word	0x000080bc
    1cb0:	000080f4 	.word	0x000080f4
    1cb4:	00008118 	.word	0x00008118
    1cb8:	000081e4 	.word	0x000081e4

00001cbc <USBHost::usb_process_static(void const*)>:
    1cbc:	b508      	push	{r3, lr}
    1cbe:	f7ff fe27 	bl	1910 <USBHost::usb_process()>
    1cc2:	bf00      	nop

00001cc4 <USBHost::setConfiguration(USBDeviceConnected*, unsigned char)>:
    1cc4:	b510      	push	{r4, lr}
    1cc6:	2300      	movs	r3, #0
    1cc8:	b086      	sub	sp, #24
    1cca:	2401      	movs	r4, #1
    1ccc:	e88d 000c 	stmia.w	sp, {r2, r3}
    1cd0:	9302      	str	r3, [sp, #8]
    1cd2:	9303      	str	r3, [sp, #12]
    1cd4:	461a      	mov	r2, r3
    1cd6:	9404      	str	r4, [sp, #16]
    1cd8:	2309      	movs	r3, #9
    1cda:	f7ff fcc5 	bl	1668 <USBHost::controlTransfer(USBDeviceConnected*, unsigned char, unsigned char, unsigned long, unsigned long, unsigned char*, unsigned long, bool)>
    1cde:	b006      	add	sp, #24
    1ce0:	bd10      	pop	{r4, pc}
    1ce2:	bf00      	nop

00001ce4 <USBHost::enumerate(USBDeviceConnected*, IUSBEnumerator*)>:
    1ce4:	e92d 43f0 	stmdb	sp!, {r4, r5, r6, r7, r8, r9, lr}
    1ce8:	f500 5809 	add.w	r8, r0, #8768	; 0x2240
    1cec:	f108 080c 	add.w	r8, r8, #12
    1cf0:	b085      	sub	sp, #20
    1cf2:	4606      	mov	r6, r0
    1cf4:	2400      	movs	r4, #0
    1cf6:	460d      	mov	r5, r1
    1cf8:	4640      	mov	r0, r8
    1cfa:	f04f 31ff 	mov.w	r1, #4294967295	; 0xffffffff
    1cfe:	4617      	mov	r7, r2
    1d00:	f8ad 400e 	strh.w	r4, [sp, #14]
    1d04:	f002 f85c 	bl	3dc0 <rtos::Mutex::lock(unsigned long)>
    1d08:	f506 52d9 	add.w	r2, r6, #6944	; 0x1b20
    1d0c:	4623      	mov	r3, r4
    1d0e:	3208      	adds	r2, #8
    1d10:	f240 503c 	movw	r0, #1340	; 0x53c
    1d14:	18d1      	adds	r1, r2, r3
    1d16:	428d      	cmp	r5, r1
    1d18:	f503 7386 	add.w	r3, r3, #268	; 0x10c
    1d1c:	d009      	beq.n	1d32 <USBHost::enumerate(USBDeviceConnected*, IUSBEnumerator*)+0x4e>
    1d1e:	4283      	cmp	r3, r0
    1d20:	d1f8      	bne.n	1d14 <USBHost::enumerate(USBDeviceConnected*, IUSBEnumerator*)+0x30>
    1d22:	2412      	movs	r4, #18
    1d24:	4640      	mov	r0, r8
    1d26:	f002 f84f 	bl	3dc8 <rtos::Mutex::unlock()>
    1d2a:	4620      	mov	r0, r4
    1d2c:	b005      	add	sp, #20
    1d2e:	e8bd 83f0 	ldmia.w	sp!, {r4, r5, r6, r7, r8, r9, pc}
    1d32:	4613      	mov	r3, r2
    1d34:	2400      	movs	r4, #0
    1d36:	429d      	cmp	r5, r3
    1d38:	f503 7386 	add.w	r3, r3, #268	; 0x10c
    1d3c:	d011      	beq.n	1d62 <USBHost::enumerate(USBDeviceConnected*, IUSBEnumerator*)+0x7e>
    1d3e:	3401      	adds	r4, #1
    1d40:	2c05      	cmp	r4, #5
    1d42:	d1f8      	bne.n	1d36 <USBHost::enumerate(USBDeviceConnected*, IUSBEnumerator*)+0x52>
    1d44:	f506 5909 	add.w	r9, r6, #8768	; 0x2240
    1d48:	2300      	movs	r3, #0
    1d4a:	f109 0934 	add.w	r9, r9, #52	; 0x34
    1d4e:	9300      	str	r3, [sp, #0]
    1d50:	464a      	mov	r2, r9
    1d52:	4630      	mov	r0, r6
    1d54:	4629      	mov	r1, r5
    1d56:	2312      	movs	r3, #18
    1d58:	f7ff fd5c 	bl	1814 <USBHost::getDeviceDescriptor(USBDeviceConnected*, unsigned char*, unsigned short, unsigned short*)>
    1d5c:	b1d0      	cbz	r0, 1d94 <USBHost::enumerate(USBDeviceConnected*, IUSBEnumerator*)+0xb0>
    1d5e:	4604      	mov	r4, r0
    1d60:	e7e0      	b.n	1d24 <USBHost::enumerate(USBDeviceConnected*, IUSBEnumerator*)+0x40>
    1d62:	f506 5201 	add.w	r2, r6, #8256	; 0x2040
    1d66:	f604 031a 	addw	r3, r4, #2074	; 0x81a
    1d6a:	322c      	adds	r2, #44	; 0x2c
    1d6c:	eb02 0484 	add.w	r4, r2, r4, lsl #2
    1d70:	eb06 0383 	add.w	r3, r6, r3, lsl #2
    1d74:	2100      	movs	r1, #0
    1d76:	f813 2f01 	ldrb.w	r2, [r3, #1]!
    1d7a:	1c48      	adds	r0, r1, #1
    1d7c:	b102      	cbz	r2, 1d80 <USBHost::enumerate(USBDeviceConnected*, IUSBEnumerator*)+0x9c>
    1d7e:	b2c1      	uxtb	r1, r0
    1d80:	42a3      	cmp	r3, r4
    1d82:	d1f8      	bne.n	1d76 <USBHost::enumerate(USBDeviceConnected*, IUSBEnumerator*)+0x92>
    1d84:	2900      	cmp	r1, #0
    1d86:	d0dd      	beq.n	1d44 <USBHost::enumerate(USBDeviceConnected*, IUSBEnumerator*)+0x60>
    1d88:	f895 3109 	ldrb.w	r3, [r5, #265]	; 0x109
    1d8c:	428b      	cmp	r3, r1
    1d8e:	d1d9      	bne.n	1d44 <USBHost::enumerate(USBDeviceConnected*, IUSBEnumerator*)+0x60>
    1d90:	2400      	movs	r4, #0
    1d92:	e7c7      	b.n	1d24 <USBHost::enumerate(USBDeviceConnected*, IUSBEnumerator*)+0x40>
    1d94:	f242 2378 	movw	r3, #8824	; 0x2278
    1d98:	5cf2      	ldrb	r2, [r6, r3]
    1d9a:	f242 2379 	movw	r3, #8825	; 0x2279
    1d9e:	f885 2103 	strb.w	r2, [r5, #259]	; 0x103
    1da2:	5cf2      	ldrb	r2, [r6, r3]
    1da4:	f242 237a 	movw	r3, #8826	; 0x227a
    1da8:	f885 2104 	strb.w	r2, [r5, #260]	; 0x104
    1dac:	5cf3      	ldrb	r3, [r6, r3]
    1dae:	f242 217d 	movw	r1, #8829	; 0x227d
    1db2:	f885 3105 	strb.w	r3, [r5, #261]	; 0x105
    1db6:	f242 207c 	movw	r0, #8828	; 0x227c
    1dba:	5c74      	ldrb	r4, [r6, r1]
    1dbc:	5c33      	ldrb	r3, [r6, r0]
    1dbe:	f242 227f 	movw	r2, #8831	; 0x227f
    1dc2:	ea43 2304 	orr.w	r3, r3, r4, lsl #8
    1dc6:	f8a5 30fe 	strh.w	r3, [r5, #254]	; 0xfe
    1dca:	f242 237e 	movw	r3, #8830	; 0x227e
    1dce:	f816 c002 	ldrb.w	r12, [r6, r2]
    1dd2:	f816 e003 	ldrb.w	lr, [r6, r3]
    1dd6:	683c      	ldr	r4, [r7, #0]
    1dd8:	ea4e 2e0c 	orr.w	lr, lr, r12, lsl #8
    1ddc:	f8a5 e100 	strh.w	lr, [r5, #256]	; 0x100
    1de0:	f816 e001 	ldrb.w	lr, [r6, r1]
    1de4:	5cf3      	ldrb	r3, [r6, r3]
    1de6:	5c31      	ldrb	r1, [r6, r0]
    1de8:	5cb2      	ldrb	r2, [r6, r2]
    1dea:	ea41 210e 	orr.w	r1, r1, lr, lsl #8
    1dee:	ea43 2202 	orr.w	r2, r3, r2, lsl #8
    1df2:	4638      	mov	r0, r7
    1df4:	6823      	ldr	r3, [r4, #0]
    1df6:	4798      	blx	r3
    1df8:	f10d 030e 	add.w	r3, sp, #14
    1dfc:	9300      	str	r3, [sp, #0]
    1dfe:	4630      	mov	r0, r6
    1e00:	4629      	mov	r1, r5
    1e02:	464a      	mov	r2, r9
    1e04:	f240 139f 	movw	r3, #415	; 0x19f
    1e08:	f7ff fd20 	bl	184c <USBHost::getConfigurationDescriptor(USBDeviceConnected*, unsigned char*, unsigned short, unsigned short*)>
    1e0c:	2800      	cmp	r0, #0
    1e0e:	d1a6      	bne.n	1d5e <USBHost::enumerate(USBDeviceConnected*, IUSBEnumerator*)+0x7a>
    1e10:	f8bd 300e 	ldrh.w	r3, [sp, #14]
    1e14:	9700      	str	r7, [sp, #0]
    1e16:	464a      	mov	r2, r9
    1e18:	4630      	mov	r0, r6
    1e1a:	4629      	mov	r1, r5
    1e1c:	f7ff faaa 	bl	1374 <USBHost::parseConfDescr(USBDeviceConnected*, unsigned char*, unsigned long, IUSBEnumerator*)>
    1e20:	f895 3108 	ldrb.w	r3, [r5, #264]	; 0x108
    1e24:	b933      	cbnz	r3, 1e34 <USBHost::enumerate(USBDeviceConnected*, IUSBEnumerator*)+0x150>
    1e26:	4630      	mov	r0, r6
    1e28:	4629      	mov	r1, r5
    1e2a:	2201      	movs	r2, #1
    1e2c:	f7ff ff4a 	bl	1cc4 <USBHost::setConfiguration(USBDeviceConnected*, unsigned char)>
    1e30:	2800      	cmp	r0, #0
    1e32:	d194      	bne.n	1d5e <USBHost::enumerate(USBDeviceConnected*, IUSBEnumerator*)+0x7a>
    1e34:	2301      	movs	r3, #1
    1e36:	f885 3108 	strb.w	r3, [r5, #264]	; 0x108
    1e3a:	4640      	mov	r0, r8
    1e3c:	f001 ffc4 	bl	3dc8 <rtos::Mutex::unlock()>
    1e40:	2064      	movs	r0, #100	; 0x64
    1e42:	f002 f815 	bl	3e70 <rtos::Thread::wait(unsigned long)>
    1e46:	2400      	movs	r4, #0
    1e48:	e76f      	b.n	1d2a <USBHost::enumerate(USBDeviceConnected*, IUSBEnumerator*)+0x46>
    1e4a:	bf00      	nop

00001e4c <USBHostHub::disconnect()>:
    1e4c:	2300      	movs	r3, #0
    1e4e:	f04f 32ff 	mov.w	r2, #4294967295	; 0xffffffff
    1e52:	6202      	str	r2, [r0, #32]
    1e54:	7303      	strb	r3, [r0, #12]
    1e56:	6083      	str	r3, [r0, #8]
    1e58:	6103      	str	r3, [r0, #16]
    1e5a:	f880 3024 	strb.w	r3, [r0, #36]	; 0x24
    1e5e:	7503      	strb	r3, [r0, #20]
    1e60:	7543      	strb	r3, [r0, #21]
    1e62:	6283      	str	r3, [r0, #40]	; 0x28
    1e64:	62c3      	str	r3, [r0, #44]	; 0x2c
    1e66:	6303      	str	r3, [r0, #48]	; 0x30
    1e68:	6343      	str	r3, [r0, #52]	; 0x34
    1e6a:	4770      	bx	lr

00001e6c <USBHostHub::setVidPid(unsigned short, unsigned short)>:
    1e6c:	4770      	bx	lr
    1e6e:	bf00      	nop

00001e70 <USBHostHub::parseInterface(unsigned char, unsigned char, unsigned char, unsigned char)>:
    1e70:	b430      	push	{r4, r5}
    1e72:	6a04      	ldr	r4, [r0, #32]
    1e74:	f89d 5008 	ldrb.w	r5, [sp, #8]
    1e78:	3401      	adds	r4, #1
    1e7a:	d002      	beq.n	1e82 <USBHostHub::parseInterface(unsigned char, unsigned char, unsigned char, unsigned char)+0x12>
    1e7c:	2000      	movs	r0, #0
    1e7e:	bc30      	pop	{r4, r5}
    1e80:	4770      	bx	lr
    1e82:	2a09      	cmp	r2, #9
    1e84:	d1fa      	bne.n	1e7c <USBHostHub::parseInterface(unsigned char, unsigned char, unsigned char, unsigned char)+0xc>
    1e86:	2b00      	cmp	r3, #0
    1e88:	d1f8      	bne.n	1e7c <USBHostHub::parseInterface(unsigned char, unsigned char, unsigned char, unsigned char)+0xc>
    1e8a:	b915      	cbnz	r5, 1e92 <USBHostHub::parseInterface(unsigned char, unsigned char, unsigned char, unsigned char)+0x22>
    1e8c:	6201      	str	r1, [r0, #32]
    1e8e:	2001      	movs	r0, #1
    1e90:	e7f5      	b.n	1e7e <USBHostHub::parseInterface(unsigned char, unsigned char, unsigned char, unsigned char)+0xe>
    1e92:	4618      	mov	r0, r3
    1e94:	e7f3      	b.n	1e7e <USBHostHub::parseInterface(unsigned char, unsigned char, unsigned char, unsigned char)+0xe>
    1e96:	bf00      	nop

00001e98 <USBHostHub::useEndpoint(unsigned char, ENDPOINT_TYPE, ENDPOINT_DIRECTION)>:
    1e98:	b410      	push	{r4}
    1e9a:	6a04      	ldr	r4, [r0, #32]
    1e9c:	42a1      	cmp	r1, r4
    1e9e:	d003      	beq.n	1ea8 <USBHostHub::useEndpoint(unsigned char, ENDPOINT_TYPE, ENDPOINT_DIRECTION)+0x10>
    1ea0:	2000      	movs	r0, #0
    1ea2:	f85d 4b04 	ldr.w	r4, [sp], #4
    1ea6:	4770      	bx	lr
    1ea8:	2a03      	cmp	r2, #3
    1eaa:	d1f9      	bne.n	1ea0 <USBHostHub::useEndpoint(unsigned char, ENDPOINT_TYPE, ENDPOINT_DIRECTION)+0x8>
    1eac:	2b02      	cmp	r3, #2
    1eae:	d1f7      	bne.n	1ea0 <USBHostHub::useEndpoint(unsigned char, ENDPOINT_TYPE, ENDPOINT_DIRECTION)+0x8>
    1eb0:	2301      	movs	r3, #1
    1eb2:	f880 3024 	strb.w	r3, [r0, #36]	; 0x24
    1eb6:	4618      	mov	r0, r3
    1eb8:	e7f3      	b.n	1ea2 <USBHostHub::useEndpoint(unsigned char, ENDPOINT_TYPE, ENDPOINT_DIRECTION)+0xa>
    1eba:	bf00      	nop

00001ebc <void mbed::FunctionPointer::membercaller<USBHostHub>(void*, char*)>:
    1ebc:	b510      	push	{r4, lr}
    1ebe:	460b      	mov	r3, r1
    1ec0:	b082      	sub	sp, #8
    1ec2:	6849      	ldr	r1, [r1, #4]
    1ec4:	4602      	mov	r2, r0
    1ec6:	6818      	ldr	r0, [r3, #0]
    1ec8:	466b      	mov	r3, sp
    1eca:	c303      	stmia	r3!, {r0, r1}
    1ecc:	460b      	mov	r3, r1
    1ece:	07d9      	lsls	r1, r3, #31
    1ed0:	d507      	bpl.n	1ee2 <void mbed::FunctionPointer::membercaller<USBHostHub>(void*, char*)+0x26>
    1ed2:	105b      	asrs	r3, r3, #1
    1ed4:	58d4      	ldr	r4, [r2, r3]
    1ed6:	9900      	ldr	r1, [sp, #0]
    1ed8:	18d0      	adds	r0, r2, r3
    1eda:	5861      	ldr	r1, [r4, r1]
    1edc:	4788      	blx	r1
    1ede:	b002      	add	sp, #8
    1ee0:	bd10      	pop	{r4, pc}
    1ee2:	eb02 0063 	add.w	r0, r2, r3, asr #1
    1ee6:	9900      	ldr	r1, [sp, #0]
    1ee8:	4788      	blx	r1
    1eea:	b002      	add	sp, #8
    1eec:	bd10      	pop	{r4, pc}
    1eee:	bf00      	nop

00001ef0 <USBHostHub::USBHostHub()>:
    1ef0:	b410      	push	{r4}
    1ef2:	4c0a      	ldr	r4, [pc, #40]	; (1f1c <USBHostHub::USBHostHub()+0x2c>)
    1ef4:	2200      	movs	r2, #0
    1ef6:	f04f 31ff 	mov.w	r1, #4294967295	; 0xffffffff
    1efa:	6004      	str	r4, [r0, #0]
    1efc:	6201      	str	r1, [r0, #32]
    1efe:	6042      	str	r2, [r0, #4]
    1f00:	7302      	strb	r2, [r0, #12]
    1f02:	6082      	str	r2, [r0, #8]
    1f04:	6102      	str	r2, [r0, #16]
    1f06:	f880 2024 	strb.w	r2, [r0, #36]	; 0x24
    1f0a:	7502      	strb	r2, [r0, #20]
    1f0c:	7542      	strb	r2, [r0, #21]
    1f0e:	6282      	str	r2, [r0, #40]	; 0x28
    1f10:	62c2      	str	r2, [r0, #44]	; 0x2c
    1f12:	6302      	str	r2, [r0, #48]	; 0x30
    1f14:	6342      	str	r2, [r0, #52]	; 0x34
    1f16:	f85d 4b04 	ldr.w	r4, [sp], #4
    1f1a:	4770      	bx	lr
    1f1c:	00008220 	.word	0x00008220

00001f20 <USBHostHub::setHost(USBHost*)>:
    1f20:	6041      	str	r1, [r0, #4]
    1f22:	4770      	bx	lr

00001f24 <USBHostHub::deviceConnected(USBDeviceConnected*)>:
    1f24:	f891 30fd 	ldrb.w	r3, [r1, #253]	; 0xfd
    1f28:	3309      	adds	r3, #9
    1f2a:	f840 1023 	str.w	r1, [r0, r3, lsl #2]
    1f2e:	4770      	bx	lr

00001f30 <USBHostHub::deviceDisconnected(USBDeviceConnected*)>:
    1f30:	f891 30fd 	ldrb.w	r3, [r1, #253]	; 0xfd
    1f34:	2200      	movs	r2, #0
    1f36:	3309      	adds	r3, #9
    1f38:	f840 2023 	str.w	r2, [r0, r3, lsl #2]
    1f3c:	4770      	bx	lr
    1f3e:	bf00      	nop

00001f40 <USBHostHub::hubDisconnected()>:
    1f40:	b570      	push	{r4, r5, r6, lr}
    1f42:	4605      	mov	r5, r0
    1f44:	4604      	mov	r4, r0
    1f46:	f100 0610 	add.w	r6, r0, #16
    1f4a:	6aa3      	ldr	r3, [r4, #40]	; 0x28
    1f4c:	3404      	adds	r4, #4
    1f4e:	4619      	mov	r1, r3
    1f50:	b113      	cbz	r3, 1f58 <USBHostHub::hubDisconnected()+0x18>
    1f52:	6868      	ldr	r0, [r5, #4]
    1f54:	f7fe fff4 	bl	f40 <USBHost::freeDevice(USBDeviceConnected*)>
    1f58:	42b4      	cmp	r4, r6
    1f5a:	d1f6      	bne.n	1f4a <USBHostHub::hubDisconnected()+0xa>
    1f5c:	bd70      	pop	{r4, r5, r6, pc}
    1f5e:	bf00      	nop

00001f60 <USBHostHub::setPortFeature(unsigned long, unsigned char)>:
    1f60:	b510      	push	{r4, lr}
    1f62:	4603      	mov	r3, r0
    1f64:	689c      	ldr	r4, [r3, #8]
    1f66:	b084      	sub	sp, #16
    1f68:	2300      	movs	r3, #0
    1f6a:	6840      	ldr	r0, [r0, #4]
    1f6c:	e88d 0006 	stmia.w	sp, {r1, r2}
    1f70:	9302      	str	r3, [sp, #8]
    1f72:	9303      	str	r3, [sp, #12]
    1f74:	4621      	mov	r1, r4
    1f76:	2223      	movs	r2, #35	; 0x23
    1f78:	2303      	movs	r3, #3
    1f7a:	f7ff fca9 	bl	18d0 <USBHost::controlWrite(USBDeviceConnected*, unsigned char, unsigned char, unsigned long, unsigned long, unsigned char*, unsigned long)>
    1f7e:	b004      	add	sp, #16
    1f80:	bd10      	pop	{r4, pc}
    1f82:	bf00      	nop

00001f84 <USBHostHub::connect(USBDeviceConnected*)>:
    1f84:	e92d 43f0 	stmdb	sp!, {r4, r5, r6, r7, r8, r9, lr}
    1f88:	7b05      	ldrb	r5, [r0, #12]
    1f8a:	b089      	sub	sp, #36	; 0x24
    1f8c:	4604      	mov	r4, r0
    1f8e:	460e      	mov	r6, r1
    1f90:	b11d      	cbz	r5, 1f9a <USBHostHub::connect(USBDeviceConnected*)+0x16>
    1f92:	4628      	mov	r0, r5
    1f94:	b009      	add	sp, #36	; 0x24
    1f96:	e8bd 83f0 	ldmia.w	sp!, {r4, r5, r6, r7, r8, r9, pc}
    1f9a:	6840      	ldr	r0, [r0, #4]
    1f9c:	4622      	mov	r2, r4
    1f9e:	f7ff fea1 	bl	1ce4 <USBHost::enumerate(USBDeviceConnected*, IUSBEnumerator*)>
    1fa2:	4607      	mov	r7, r0
    1fa4:	2800      	cmp	r0, #0
    1fa6:	f040 808a 	bne.w	20be <USBHostHub::connect(USBDeviceConnected*)+0x13a>
    1faa:	f894 8024 	ldrb.w	r8, [r4, #36]	; 0x24
    1fae:	f1b8 0f00 	cmp.w	r8, #0
    1fb2:	d0ee      	beq.n	1f92 <USBHostHub::connect(USBDeviceConnected*)+0xe>
    1fb4:	f894 1020 	ldrb.w	r1, [r4, #32]
    1fb8:	60a6      	str	r6, [r4, #8]
    1fba:	4630      	mov	r0, r6
    1fbc:	9500      	str	r5, [sp, #0]
    1fbe:	2203      	movs	r2, #3
    1fc0:	2302      	movs	r3, #2
    1fc2:	f7fe fd47 	bl	a54 <USBDeviceConnected::getEndpoint(unsigned char, ENDPOINT_TYPE, ENDPOINT_DIRECTION, unsigned char)>
    1fc6:	6120      	str	r0, [r4, #16]
    1fc8:	2800      	cmp	r0, #0
    1fca:	d078      	beq.n	20be <USBHostHub::connect(USBDeviceConnected*)+0x13a>
    1fcc:	f8b6 1100 	ldrh.w	r1, [r6, #256]	; 0x100
    1fd0:	6a22      	ldr	r2, [r4, #32]
    1fd2:	f8b6 30fe 	ldrh.w	r3, [r6, #254]	; 0xfe
    1fd6:	4845      	ldr	r0, [pc, #276]	; (20ec <USBHostHub::connect(USBDeviceConnected*)+0x168>)
    1fd8:	e88d 0042 	stmia.w	sp, {r1, r6}
    1fdc:	9202      	str	r2, [sp, #8]
    1fde:	4944      	ldr	r1, [pc, #272]	; (20f0 <USBHostHub::connect(USBDeviceConnected*)+0x16c>)
    1fe0:	2267      	movs	r2, #103	; 0x67
    1fe2:	f003 ffaf 	bl	5f44 <iprintf>
    1fe6:	f894 3020 	ldrb.w	r3, [r4, #32]
    1fea:	4a42      	ldr	r2, [pc, #264]	; (20f4 <USBHostHub::connect(USBDeviceConnected*)+0x170>)
    1fec:	ebc3 1303 	rsb	r3, r3, r3, lsl #4
    1ff0:	6810      	ldr	r0, [r2, #0]
    1ff2:	eb06 0383 	add.w	r3, r6, r3, lsl #2
    1ff6:	6398      	str	r0, [r3, #56]	; 0x38
    1ff8:	6865      	ldr	r5, [r4, #4]
    1ffa:	4631      	mov	r1, r6
    1ffc:	4628      	mov	r0, r5
    1ffe:	f8d4 9020 	ldr.w	r9, [r4, #32]
    2002:	f7ff f953 	bl	12ac <USBHost::findDevice(USBDeviceConnected*)>
    2006:	1c43      	adds	r3, r0, #1
    2008:	d06b      	beq.n	20e2 <USBHostHub::connect(USBDeviceConnected*)+0x15e>
    200a:	b324      	cbz	r4, 2056 <USBHostHub::connect(USBDeviceConnected*)+0xd2>
    200c:	eb05 0080 	add.w	r0, r5, r0, lsl #2
    2010:	fa5f f389 	uxtb.w	r3, r9
    2014:	4d38      	ldr	r5, [pc, #224]	; (20f8 <USBHostHub::connect(USBDeviceConnected*)+0x174>)
    2016:	ebc3 1203 	rsb	r2, r3, r3, lsl #4
    201a:	4403      	add	r3, r0
    201c:	eb06 0282 	add.w	r2, r6, r2, lsl #2
    2020:	f503 5101 	add.w	r1, r3, #8256	; 0x2040
    2024:	2001      	movs	r0, #1
    2026:	9504      	str	r5, [sp, #16]
    2028:	9705      	str	r7, [sp, #20]
    202a:	ab04      	add	r3, sp, #16
    202c:	4d33      	ldr	r5, [pc, #204]	; (20fc <USBHostHub::connect(USBDeviceConnected*)+0x178>)
    202e:	f881 0029 	strb.w	r0, [r1, #41]	; 0x29
    2032:	cb03      	ldmia	r3!, {r0, r1}
    2034:	6250      	str	r0, [r2, #36]	; 0x24
    2036:	6291      	str	r1, [r2, #40]	; 0x28
    2038:	6923      	ldr	r3, [r4, #16]
    203a:	6214      	str	r4, [r2, #32]
    203c:	6355      	str	r5, [r2, #52]	; 0x34
    203e:	61d7      	str	r7, [r2, #28]
    2040:	4a2f      	ldr	r2, [pc, #188]	; (2100 <USBHostHub::connect(USBDeviceConnected*)+0x17c>)
    2042:	2100      	movs	r1, #0
    2044:	9206      	str	r2, [sp, #24]
    2046:	9107      	str	r1, [sp, #28]
    2048:	aa06      	add	r2, sp, #24
    204a:	6399      	str	r1, [r3, #56]	; 0x38
    204c:	63dc      	str	r4, [r3, #60]	; 0x3c
    204e:	ca03      	ldmia	r2!, {r0, r1}
    2050:	651d      	str	r5, [r3, #80]	; 0x50
    2052:	6418      	str	r0, [r3, #64]	; 0x40
    2054:	6459      	str	r1, [r3, #68]	; 0x44
    2056:	f44f 5124 	mov.w	r1, #10496	; 0x2900
    205a:	2200      	movs	r2, #0
    205c:	230a      	movs	r3, #10
    205e:	f104 0716 	add.w	r7, r4, #22
    2062:	6860      	ldr	r0, [r4, #4]
    2064:	e88d 0086 	stmia.w	sp, {r1, r2, r7}
    2068:	9303      	str	r3, [sp, #12]
    206a:	22a0      	movs	r2, #160	; 0xa0
    206c:	2306      	movs	r3, #6
    206e:	4631      	mov	r1, r6
    2070:	f7ff fbc0 	bl	17f4 <USBHost::controlRead(USBDeviceConnected*, unsigned char, unsigned char, unsigned long, unsigned long, unsigned char*, unsigned long)>
    2074:	7e23      	ldrb	r3, [r4, #24]
    2076:	7e62      	ldrb	r2, [r4, #25]
    2078:	7523      	strb	r3, [r4, #20]
    207a:	7562      	strb	r2, [r4, #21]
    207c:	2501      	movs	r5, #1
    207e:	b14b      	cbz	r3, 2094 <USBHostHub::connect(USBDeviceConnected*)+0x110>
    2080:	462a      	mov	r2, r5
    2082:	4620      	mov	r0, r4
    2084:	2108      	movs	r1, #8
    2086:	f7ff ff6b 	bl	1f60 <USBHostHub::setPortFeature(unsigned long, unsigned char)>
    208a:	3501      	adds	r5, #1
    208c:	7d22      	ldrb	r2, [r4, #20]
    208e:	b2ed      	uxtb	r5, r5
    2090:	42aa      	cmp	r2, r5
    2092:	d2f5      	bcs.n	2080 <USBHostHub::connect(USBDeviceConnected*)+0xfc>
    2094:	7ee0      	ldrb	r0, [r4, #27]
    2096:	f04f 0901 	mov.w	r9, #1
    209a:	fa00 f009 	lsl.w	r0, r0, r9
    209e:	2500      	movs	r5, #0
    20a0:	f002 f8fe 	bl	42a0 <wait_ms>
    20a4:	6860      	ldr	r0, [r4, #4]
    20a6:	6922      	ldr	r2, [r4, #16]
    20a8:	4631      	mov	r1, r6
    20aa:	9501      	str	r5, [sp, #4]
    20ac:	463b      	mov	r3, r7
    20ae:	f8cd 9000 	str.w	r9, [sp]
    20b2:	f7ff fac9 	bl	1648 <USBHost::interruptRead(USBDeviceConnected*, USBEndpoint*, unsigned char*, unsigned long, bool)>
    20b6:	4645      	mov	r5, r8
    20b8:	f884 900c 	strb.w	r9, [r4, #12]
    20bc:	e769      	b.n	1f92 <USBHostHub::connect(USBDeviceConnected*)+0xe>
    20be:	f04f 33ff 	mov.w	r3, #4294967295	; 0xffffffff
    20c2:	4628      	mov	r0, r5
    20c4:	7325      	strb	r5, [r4, #12]
    20c6:	60a5      	str	r5, [r4, #8]
    20c8:	6125      	str	r5, [r4, #16]
    20ca:	f884 5024 	strb.w	r5, [r4, #36]	; 0x24
    20ce:	7525      	strb	r5, [r4, #20]
    20d0:	7565      	strb	r5, [r4, #21]
    20d2:	62a5      	str	r5, [r4, #40]	; 0x28
    20d4:	62e5      	str	r5, [r4, #44]	; 0x2c
    20d6:	6325      	str	r5, [r4, #48]	; 0x30
    20d8:	6365      	str	r5, [r4, #52]	; 0x34
    20da:	6223      	str	r3, [r4, #32]
    20dc:	b009      	add	sp, #36	; 0x24
    20de:	e8bd 83f0 	ldmia.w	sp!, {r4, r5, r6, r7, r8, r9, pc}
    20e2:	6923      	ldr	r3, [r4, #16]
    20e4:	2c00      	cmp	r4, #0
    20e6:	d0b6      	beq.n	2056 <USBHostHub::connect(USBDeviceConnected*)+0xd2>
    20e8:	4d04      	ldr	r5, [pc, #16]	; (20fc <USBHostHub::connect(USBDeviceConnected*)+0x178>)
    20ea:	e7a9      	b.n	2040 <USBHostHub::connect(USBDeviceConnected*)+0xbc>
    20ec:	00008230 	.word	0x00008230
    20f0:	00008274 	.word	0x00008274
    20f4:	000082b4 	.word	0x000082b4
    20f8:	00001e4d 	.word	0x00001e4d
    20fc:	00001ebd 	.word	0x00001ebd
    2100:	00002151 	.word	0x00002151

00002104 <USBHostHub::clearPortFeature(unsigned long, unsigned char)>:
    2104:	b510      	push	{r4, lr}
    2106:	4603      	mov	r3, r0
    2108:	689c      	ldr	r4, [r3, #8]
    210a:	b084      	sub	sp, #16
    210c:	2300      	movs	r3, #0
    210e:	6840      	ldr	r0, [r0, #4]
    2110:	e88d 0006 	stmia.w	sp, {r1, r2}
    2114:	9302      	str	r3, [sp, #8]
    2116:	9303      	str	r3, [sp, #12]
    2118:	4621      	mov	r1, r4
    211a:	2223      	movs	r2, #35	; 0x23
    211c:	2301      	movs	r3, #1
    211e:	f7ff fbd7 	bl	18d0 <USBHost::controlWrite(USBDeviceConnected*, unsigned char, unsigned char, unsigned long, unsigned long, unsigned char*, unsigned long)>
    2122:	b004      	add	sp, #16
    2124:	bd10      	pop	{r4, pc}
    2126:	bf00      	nop

00002128 <USBHostHub::getPortStatus(unsigned char)>:
    2128:	b530      	push	{r4, r5, lr}
    212a:	4603      	mov	r3, r0
    212c:	b087      	sub	sp, #28
    212e:	689d      	ldr	r5, [r3, #8]
    2130:	ac05      	add	r4, sp, #20
    2132:	2300      	movs	r3, #0
    2134:	2204      	movs	r2, #4
    2136:	6840      	ldr	r0, [r0, #4]
    2138:	9101      	str	r1, [sp, #4]
    213a:	9203      	str	r2, [sp, #12]
    213c:	4629      	mov	r1, r5
    213e:	9300      	str	r3, [sp, #0]
    2140:	9402      	str	r4, [sp, #8]
    2142:	22a3      	movs	r2, #163	; 0xa3
    2144:	f7ff fb56 	bl	17f4 <USBHost::controlRead(USBDeviceConnected*, unsigned char, unsigned char, unsigned long, unsigned long, unsigned char*, unsigned long)>
    2148:	9805      	ldr	r0, [sp, #20]
    214a:	b007      	add	sp, #28
    214c:	bd30      	pop	{r4, r5, pc}
    214e:	bf00      	nop

00002150 <USBHostHub::rxHandler()>:
    2150:	b5f0      	push	{r4, r5, r6, r7, lr}
    2152:	6902      	ldr	r2, [r0, #16]
    2154:	b083      	sub	sp, #12
    2156:	4604      	mov	r4, r0
    2158:	b16a      	cbz	r2, 2176 <USBHostHub::rxHandler()+0x26>
    215a:	f892 3025 	ldrb.w	r3, [r2, #37]	; 0x25
    215e:	2b10      	cmp	r3, #16
    2160:	d00b      	beq.n	217a <USBHostHub::rxHandler()+0x2a>
    2162:	2601      	movs	r6, #1
    2164:	2500      	movs	r5, #0
    2166:	6860      	ldr	r0, [r4, #4]
    2168:	68a1      	ldr	r1, [r4, #8]
    216a:	f104 0316 	add.w	r3, r4, #22
    216e:	9600      	str	r6, [sp, #0]
    2170:	9501      	str	r5, [sp, #4]
    2172:	f7ff fa69 	bl	1648 <USBHost::interruptRead(USBDeviceConnected*, USBEndpoint*, unsigned char*, unsigned long, bool)>
    2176:	b003      	add	sp, #12
    2178:	bdf0      	pop	{r4, r5, r6, r7, pc}
    217a:	7d03      	ldrb	r3, [r0, #20]
    217c:	2b00      	cmp	r3, #0
    217e:	d0f0      	beq.n	2162 <USBHostHub::rxHandler()+0x12>
    2180:	2601      	movs	r6, #1
    2182:	e007      	b.n	2194 <USBHostHub::rxHandler()+0x44>
    2184:	03aa      	lsls	r2, r5, #14
    2186:	d42b      	bmi.n	21e0 <USBHostHub::rxHandler()+0x90>
    2188:	072b      	lsls	r3, r5, #28
    218a:	d430      	bmi.n	21ee <USBHostHub::rxHandler()+0x9e>
    218c:	7d23      	ldrb	r3, [r4, #20]
    218e:	3601      	adds	r6, #1
    2190:	42b3      	cmp	r3, r6
    2192:	db46      	blt.n	2222 <USBHostHub::rxHandler()+0xd2>
    2194:	b2f7      	uxtb	r7, r6
    2196:	4639      	mov	r1, r7
    2198:	4620      	mov	r0, r4
    219a:	f7ff ffc5 	bl	2128 <USBHostHub::getPortStatus(unsigned char)>
    219e:	4605      	mov	r5, r0
    21a0:	03e8      	lsls	r0, r5, #15
    21a2:	d514      	bpl.n	21ce <USBHostHub::rxHandler()+0x7e>
    21a4:	f015 0301 	ands.w	r3, r5, #1
    21a8:	6860      	ldr	r0, [r4, #4]
    21aa:	d03c      	beq.n	2226 <USBHostHub::rxHandler()+0xd6>
    21ac:	68a3      	ldr	r3, [r4, #8]
    21ae:	6802      	ldr	r2, [r0, #0]
    21b0:	f893 10fc 	ldrb.w	r1, [r3, #252]	; 0xfc
    21b4:	9400      	str	r4, [sp, #0]
    21b6:	f8d2 c000 	ldr.w	r12, [r2]
    21ba:	3101      	adds	r1, #1
    21bc:	4632      	mov	r2, r6
    21be:	f3c5 2340 	ubfx	r3, r5, #9, #1
    21c2:	47e0      	blx	r12
    21c4:	4620      	mov	r0, r4
    21c6:	2110      	movs	r1, #16
    21c8:	463a      	mov	r2, r7
    21ca:	f7ff ff9b 	bl	2104 <USBHostHub::clearPortFeature(unsigned long, unsigned char)>
    21ce:	02e9      	lsls	r1, r5, #11
    21d0:	d5d8      	bpl.n	2184 <USBHostHub::rxHandler()+0x34>
    21d2:	463a      	mov	r2, r7
    21d4:	4620      	mov	r0, r4
    21d6:	2114      	movs	r1, #20
    21d8:	f7ff ff94 	bl	2104 <USBHostHub::clearPortFeature(unsigned long, unsigned char)>
    21dc:	03aa      	lsls	r2, r5, #14
    21de:	d5d3      	bpl.n	2188 <USBHostHub::rxHandler()+0x38>
    21e0:	4620      	mov	r0, r4
    21e2:	2111      	movs	r1, #17
    21e4:	463a      	mov	r2, r7
    21e6:	f7ff ff8d 	bl	2104 <USBHostHub::clearPortFeature(unsigned long, unsigned char)>
    21ea:	072b      	lsls	r3, r5, #28
    21ec:	d5ce      	bpl.n	218c <USBHostHub::rxHandler()+0x3c>
    21ee:	4914      	ldr	r1, [pc, #80]	; (2240 <USBHostHub::rxHandler()+0xf0>)
    21f0:	22d2      	movs	r2, #210	; 0xd2
    21f2:	4814      	ldr	r0, [pc, #80]	; (2244 <USBHostHub::rxHandler()+0xf4>)
    21f4:	f003 fea6 	bl	5f44 <iprintf>
    21f8:	4620      	mov	r0, r4
    21fa:	463a      	mov	r2, r7
    21fc:	2108      	movs	r1, #8
    21fe:	f7ff ff81 	bl	2104 <USBHostHub::clearPortFeature(unsigned long, unsigned char)>
    2202:	68a3      	ldr	r3, [r4, #8]
    2204:	6860      	ldr	r0, [r4, #4]
    2206:	f893 10fc 	ldrb.w	r1, [r3, #252]	; 0xfc
    220a:	6802      	ldr	r2, [r0, #0]
    220c:	2300      	movs	r3, #0
    220e:	9300      	str	r3, [sp, #0]
    2210:	6855      	ldr	r5, [r2, #4]
    2212:	4623      	mov	r3, r4
    2214:	4632      	mov	r2, r6
    2216:	3101      	adds	r1, #1
    2218:	47a8      	blx	r5
    221a:	7d23      	ldrb	r3, [r4, #20]
    221c:	3601      	adds	r6, #1
    221e:	42b3      	cmp	r3, r6
    2220:	dab8      	bge.n	2194 <USBHostHub::rxHandler()+0x44>
    2222:	6922      	ldr	r2, [r4, #16]
    2224:	e79d      	b.n	2162 <USBHostHub::rxHandler()+0x12>
    2226:	68a1      	ldr	r1, [r4, #8]
    2228:	6802      	ldr	r2, [r0, #0]
    222a:	f891 10fc 	ldrb.w	r1, [r1, #252]	; 0xfc
    222e:	9300      	str	r3, [sp, #0]
    2230:	f8d2 c004 	ldr.w	r12, [r2, #4]
    2234:	3101      	adds	r1, #1
    2236:	4632      	mov	r2, r6
    2238:	4623      	mov	r3, r4
    223a:	47e0      	blx	r12
    223c:	e7c2      	b.n	21c4 <USBHostHub::rxHandler()+0x74>
    223e:	bf00      	nop
    2240:	00008274 	.word	0x00008274
    2244:	000082b8 	.word	0x000082b8

00002248 <USBHostHub::portReset(unsigned char)>:
    2248:	b5f0      	push	{r4, r5, r6, r7, lr}
    224a:	460a      	mov	r2, r1
    224c:	460c      	mov	r4, r1
    224e:	b083      	sub	sp, #12
    2250:	2104      	movs	r1, #4
    2252:	4605      	mov	r5, r0
    2254:	f7ff fe84 	bl	1f60 <USBHostHub::setPortFeature(unsigned long, unsigned char)>
    2258:	e004      	b.n	2264 <USBHostHub::portReset(unsigned char)+0x1c>
    225a:	0703      	lsls	r3, r0, #28
    225c:	d40b      	bmi.n	2276 <USBHostHub::portReset(unsigned char)+0x2e>
    225e:	200a      	movs	r0, #10
    2260:	f001 fe06 	bl	3e70 <rtos::Thread::wait(unsigned long)>
    2264:	4628      	mov	r0, r5
    2266:	4621      	mov	r1, r4
    2268:	f7ff ff5e 	bl	2128 <USBHostHub::getPortStatus(unsigned char)>
    226c:	f010 0612 	ands.w	r6, r0, #18
    2270:	d0f3      	beq.n	225a <USBHostHub::portReset(unsigned char)+0x12>
    2272:	b003      	add	sp, #12
    2274:	bdf0      	pop	{r4, r5, r6, r7, pc}
    2276:	490b      	ldr	r1, [pc, #44]	; (22a4 <USBHostHub::portReset(unsigned char)+0x5c>)
    2278:	22e6      	movs	r2, #230	; 0xe6
    227a:	480b      	ldr	r0, [pc, #44]	; (22a8 <USBHostHub::portReset(unsigned char)+0x60>)
    227c:	f003 fe62 	bl	5f44 <iprintf>
    2280:	4628      	mov	r0, r5
    2282:	4622      	mov	r2, r4
    2284:	2108      	movs	r1, #8
    2286:	f7ff ff3d 	bl	2104 <USBHostHub::clearPortFeature(unsigned long, unsigned char)>
    228a:	68ab      	ldr	r3, [r5, #8]
    228c:	6868      	ldr	r0, [r5, #4]
    228e:	f893 10fc 	ldrb.w	r1, [r3, #252]	; 0xfc
    2292:	6807      	ldr	r7, [r0, #0]
    2294:	9600      	str	r6, [sp, #0]
    2296:	4622      	mov	r2, r4
    2298:	3101      	adds	r1, #1
    229a:	687c      	ldr	r4, [r7, #4]
    229c:	462b      	mov	r3, r5
    229e:	47a0      	blx	r4
    22a0:	b003      	add	sp, #12
    22a2:	bdf0      	pop	{r4, r5, r6, r7, pc}
    22a4:	00008274 	.word	0x00008274
    22a8:	000082b8 	.word	0x000082b8

000022ac <USBEndpoint::init(hcEd*, ENDPOINT_TYPE, ENDPOINT_DIRECTION, unsigned long, unsigned char, HCTD**)>:
    22ac:	e92d 43f8 	stmdb	sp!, {r3, r4, r5, r6, r7, r8, r9, lr}
    22b0:	4604      	mov	r4, r0
    22b2:	f1d2 0001 	rsbs	r0, r2, #1
    22b6:	9e0a      	ldr	r6, [sp, #40]	; 0x28
    22b8:	bf38      	it	cc
    22ba:	2000      	movcc	r0, #0
    22bc:	65a1      	str	r1, [r4, #88]	; 0x58
    22be:	f884 0027 	strb.w	r0, [r4, #39]	; 0x27
    22c2:	f884 2024 	strb.w	r2, [r4, #36]	; 0x24
    22c6:	f884 3026 	strb.w	r3, [r4, #38]	; 0x26
    22ca:	6873      	ldr	r3, [r6, #4]
    22cc:	6832      	ldr	r2, [r6, #0]
    22ce:	6623      	str	r3, [r4, #96]	; 0x60
    22d0:	65e2      	str	r2, [r4, #92]	; 0x5c
    22d2:	6830      	ldr	r0, [r6, #0]
    22d4:	2100      	movs	r1, #0
    22d6:	2220      	movs	r2, #32
    22d8:	f89d 8024 	ldrb.w	r8, [sp, #36]	; 0x24
    22dc:	f003 fd51 	bl	5d82 <memset>
    22e0:	6870      	ldr	r0, [r6, #4]
    22e2:	2100      	movs	r1, #0
    22e4:	2220      	movs	r2, #32
    22e6:	f003 fd4c 	bl	5d82 <memset>
    22ea:	6de1      	ldr	r1, [r4, #92]	; 0x5c
    22ec:	6e20      	ldr	r0, [r4, #96]	; 0x60
    22ee:	690b      	ldr	r3, [r1, #16]
    22f0:	6da3      	ldr	r3, [r4, #88]	; 0x58
    22f2:	610c      	str	r4, [r1, #16]
    22f4:	6902      	ldr	r2, [r0, #16]
    22f6:	f894 7026 	ldrb.w	r7, [r4, #38]	; 0x26
    22fa:	6104      	str	r4, [r0, #16]
    22fc:	2200      	movs	r2, #0
    22fe:	681e      	ldr	r6, [r3, #0]
    2300:	601a      	str	r2, [r3, #0]
    2302:	685d      	ldr	r5, [r3, #4]
    2304:	f008 067f 	and.w	r6, r8, #127	; 0x7f
    2308:	6059      	str	r1, [r3, #4]
    230a:	f894 5024 	ldrb.w	r5, [r4, #36]	; 0x24
    230e:	f107 38ff 	add.w	r8, r7, #4294967295	; 0xffffffff
    2312:	f8d3 9008 	ldr.w	r9, [r3, #8]
    2316:	ea46 18c8 	orr.w	r8, r6, r8, lsl #7
    231a:	6099      	str	r1, [r3, #8]
    231c:	f8d3 900c 	ldr.w	r9, [r3, #12]
    2320:	01f6      	lsls	r6, r6, #7
    2322:	60da      	str	r2, [r3, #12]
    2324:	f884 8028 	strb.w	r8, [r4, #40]	; 0x28
    2328:	b1cd      	cbz	r5, 235e <USBEndpoint::init(hcEd*, ENDPOINT_TYPE, ENDPOINT_DIRECTION, unsigned long, unsigned char, HCTD**)+0xb2>
    232a:	ea4f 2cc7 	mov.w	r12, r7, lsl #11
    232e:	9a08      	ldr	r2, [sp, #32]
    2330:	ea4c 0c06 	orr.w	r12, r12, r6
    2334:	f3c2 0509 	ubfx	r5, r2, #0, #10
    2338:	ea4c 4505 	orr.w	r5, r12, r5, lsl #16
    233c:	2200      	movs	r2, #0
    233e:	681e      	ldr	r6, [r3, #0]
    2340:	f04f 0810 	mov.w	r8, #16
    2344:	601d      	str	r5, [r3, #0]
    2346:	f884 206c 	strb.w	r2, [r4, #108]	; 0x6c
    234a:	6661      	str	r1, [r4, #100]	; 0x64
    234c:	66a0      	str	r0, [r4, #104]	; 0x68
    234e:	62e2      	str	r2, [r4, #44]	; 0x2c
    2350:	6322      	str	r2, [r4, #48]	; 0x30
    2352:	6362      	str	r2, [r4, #52]	; 0x34
    2354:	6562      	str	r2, [r4, #84]	; 0x54
    2356:	f884 8025 	strb.w	r8, [r4, #37]	; 0x25
    235a:	e8bd 83f8 	ldmia.w	sp!, {r3, r4, r5, r6, r7, r8, r9, pc}
    235e:	46ac      	mov	r12, r5
    2360:	e7e5      	b.n	232e <USBEndpoint::init(hcEd*, ENDPOINT_TYPE, ENDPOINT_DIRECTION, unsigned long, unsigned char, HCTD**)+0x82>
    2362:	bf00      	nop

00002364 <USBEndpoint::setSize(unsigned long)>:
    2364:	6d83      	ldr	r3, [r0, #88]	; 0x58
    2366:	681a      	ldr	r2, [r3, #0]
    2368:	6818      	ldr	r0, [r3, #0]
    236a:	f022 727f 	bic.w	r2, r2, #66846720	; 0x3fc0000
    236e:	f422 3240 	bic.w	r2, r2, #196608	; 0x30000
    2372:	601a      	str	r2, [r3, #0]
    2374:	681a      	ldr	r2, [r3, #0]
    2376:	6818      	ldr	r0, [r3, #0]
    2378:	ea42 4101 	orr.w	r1, r2, r1, lsl #16
    237c:	6019      	str	r1, [r3, #0]
    237e:	4770      	bx	lr

00002380 <USBEndpoint::setDeviceAddress(unsigned char)>:
    2380:	6d83      	ldr	r3, [r0, #88]	; 0x58
    2382:	f001 017f 	and.w	r1, r1, #127	; 0x7f
    2386:	681a      	ldr	r2, [r3, #0]
    2388:	6818      	ldr	r0, [r3, #0]
    238a:	f022 027f 	bic.w	r2, r2, #127	; 0x7f
    238e:	601a      	str	r2, [r3, #0]
    2390:	681a      	ldr	r2, [r3, #0]
    2392:	6818      	ldr	r0, [r3, #0]
    2394:	4311      	orrs	r1, r2
    2396:	6019      	str	r1, [r3, #0]
    2398:	4770      	bx	lr
    239a:	bf00      	nop

0000239c <USBEndpoint::setSpeed(unsigned char)>:
    239c:	6d83      	ldr	r3, [r0, #88]	; 0x58
    239e:	681a      	ldr	r2, [r3, #0]
    23a0:	6818      	ldr	r0, [r3, #0]
    23a2:	f422 5200 	bic.w	r2, r2, #8192	; 0x2000
    23a6:	601a      	str	r2, [r3, #0]
    23a8:	681a      	ldr	r2, [r3, #0]
    23aa:	6818      	ldr	r0, [r3, #0]
    23ac:	ea42 3141 	orr.w	r1, r2, r1, lsl #13
    23b0:	6019      	str	r1, [r3, #0]
    23b2:	4770      	bx	lr

000023b4 <USBEndpoint::setNextToken(unsigned long)>:
    23b4:	f5b1 2f00 	cmp.w	r1, #524288	; 0x80000
    23b8:	d011      	beq.n	23de <USBEndpoint::setNextToken(unsigned long)+0x2a>
    23ba:	f5b1 1f80 	cmp.w	r1, #1048576	; 0x100000
    23be:	d007      	beq.n	23d0 <USBEndpoint::setNextToken(unsigned long)+0x1c>
    23c0:	b101      	cbz	r1, 23c4 <USBEndpoint::setNextToken(unsigned long)+0x10>
    23c2:	4770      	bx	lr
    23c4:	2301      	movs	r3, #1
    23c6:	f880 3026 	strb.w	r3, [r0, #38]	; 0x26
    23ca:	f880 3027 	strb.w	r3, [r0, #39]	; 0x27
    23ce:	4770      	bx	lr
    23d0:	2202      	movs	r2, #2
    23d2:	2300      	movs	r3, #0
    23d4:	f880 2026 	strb.w	r2, [r0, #38]	; 0x26
    23d8:	f880 3027 	strb.w	r3, [r0, #39]	; 0x27
    23dc:	4770      	bx	lr
    23de:	2201      	movs	r2, #1
    23e0:	2300      	movs	r3, #0
    23e2:	f880 2026 	strb.w	r2, [r0, #38]	; 0x26
    23e6:	f880 3027 	strb.w	r3, [r0, #39]	; 0x27
    23ea:	4770      	bx	lr

000023ec <USBEndpoint::setState(unsigned char)>:
    23ec:	2912      	cmp	r1, #18
    23ee:	d804      	bhi.n	23fa <USBEndpoint::setState(unsigned char)+0xe>
    23f0:	4b02      	ldr	r3, [pc, #8]	; (23fc <USBEndpoint::setState(unsigned char)+0x10>)
    23f2:	f813 3031 	ldrb.w	r3, [r3, r1, lsl #3]
    23f6:	f880 3025 	strb.w	r3, [r0, #37]	; 0x25
    23fa:	4770      	bx	lr
    23fc:	000084a0 	.word	0x000084a0

00002400 <USBEndpoint::getStateString()>:
    2400:	f890 2025 	ldrb.w	r2, [r0, #37]	; 0x25
    2404:	4b02      	ldr	r3, [pc, #8]	; (2410 <USBEndpoint::getStateString()+0x10>)
    2406:	eb03 03c2 	add.w	r3, r3, r2, lsl #3
    240a:	6858      	ldr	r0, [r3, #4]
    240c:	4770      	bx	lr
    240e:	bf00      	nop
    2410:	000084a0 	.word	0x000084a0

00002414 <USBEndpoint::queueTransfer()>:
    2414:	b430      	push	{r4, r5}
    2416:	6e43      	ldr	r3, [r0, #100]	; 0x64
    2418:	2511      	movs	r5, #17
    241a:	68da      	ldr	r2, [r3, #12]
    241c:	6859      	ldr	r1, [r3, #4]
    241e:	3201      	adds	r2, #1
    2420:	1a52      	subs	r2, r2, r1
    2422:	62c2      	str	r2, [r0, #44]	; 0x2c
    2424:	6302      	str	r2, [r0, #48]	; 0x30
    2426:	685c      	ldr	r4, [r3, #4]
    2428:	6e81      	ldr	r1, [r0, #104]	; 0x68
    242a:	f880 5025 	strb.w	r5, [r0, #37]	; 0x25
    242e:	6d82      	ldr	r2, [r0, #88]	; 0x58
    2430:	6344      	str	r4, [r0, #52]	; 0x34
    2432:	6898      	ldr	r0, [r3, #8]
    2434:	6099      	str	r1, [r3, #8]
    2436:	6853      	ldr	r3, [r2, #4]
    2438:	bc30      	pop	{r4, r5}
    243a:	6051      	str	r1, [r2, #4]
    243c:	4770      	bx	lr
    243e:	bf00      	nop

00002440 <USBEndpoint::unqueueTransfer(HCTD volatile*)>:
    2440:	b430      	push	{r4, r5}
    2442:	2300      	movs	r3, #0
    2444:	680a      	ldr	r2, [r1, #0]
    2446:	600b      	str	r3, [r1, #0]
    2448:	684a      	ldr	r2, [r1, #4]
    244a:	604b      	str	r3, [r1, #4]
    244c:	68ca      	ldr	r2, [r1, #12]
    244e:	6d82      	ldr	r2, [r0, #88]	; 0x58
    2450:	60cb      	str	r3, [r1, #12]
    2452:	688c      	ldr	r4, [r1, #8]
    2454:	608b      	str	r3, [r1, #8]
    2456:	6855      	ldr	r5, [r2, #4]
    2458:	6894      	ldr	r4, [r2, #8]
    245a:	6e83      	ldr	r3, [r0, #104]	; 0x68
    245c:	f004 0402 	and.w	r4, r4, #2
    2460:	432c      	orrs	r4, r5
    2462:	6895      	ldr	r5, [r2, #8]
    2464:	6094      	str	r4, [r2, #8]
    2466:	6643      	str	r3, [r0, #100]	; 0x64
    2468:	6681      	str	r1, [r0, #104]	; 0x68
    246a:	bc30      	pop	{r4, r5}
    246c:	4770      	bx	lr
    246e:	bf00      	nop

00002470 <USBEndpoint::queueEndpoint(USBEndpoint*)>:
    2470:	6541      	str	r1, [r0, #84]	; 0x54
    2472:	6d83      	ldr	r3, [r0, #88]	; 0x58
    2474:	b101      	cbz	r1, 2478 <USBEndpoint::queueEndpoint(USBEndpoint*)+0x8>
    2476:	6d89      	ldr	r1, [r1, #88]	; 0x58
    2478:	68da      	ldr	r2, [r3, #12]
    247a:	60d9      	str	r1, [r3, #12]
    247c:	4770      	bx	lr
    247e:	bf00      	nop

00002480 <USBHALHost::USBHALHost()>:
    2480:	b538      	push	{r3, r4, r5, lr}
    2482:	4b12      	ldr	r3, [pc, #72]	; (24cc <USBHALHost::USBHALHost()+0x4c>)
    2484:	4a12      	ldr	r2, [pc, #72]	; (24d0 <USBHALHost::USBHALHost()+0x50>)
    2486:	4604      	mov	r4, r0
    2488:	f503 6198 	add.w	r1, r3, #1216	; 0x4c0
    248c:	f503 7080 	add.w	r0, r3, #256	; 0x100
    2490:	4d10      	ldr	r5, [pc, #64]	; (24d4 <USBHALHost::USBHALHost()+0x54>)
    2492:	e884 000c 	stmia.w	r4, {r2, r3}
    2496:	60a0      	str	r0, [r4, #8]
    2498:	60e1      	str	r1, [r4, #12]
    249a:	4618      	mov	r0, r3
    249c:	2100      	movs	r1, #0
    249e:	f44f 7280 	mov.w	r2, #256	; 0x100
    24a2:	602c      	str	r4, [r5, #0]
    24a4:	f003 fc6d 	bl	5d82 <memset>
    24a8:	2300      	movs	r3, #0
    24aa:	4619      	mov	r1, r3
    24ac:	18e2      	adds	r2, r4, r3
    24ae:	3301      	adds	r3, #1
    24b0:	2b3c      	cmp	r3, #60	; 0x3c
    24b2:	7411      	strb	r1, [r2, #16]
    24b4:	d1fa      	bne.n	24ac <USBHALHost::USBHALHost()+0x2c>
    24b6:	2300      	movs	r3, #0
    24b8:	4619      	mov	r1, r3
    24ba:	18e2      	adds	r2, r4, r3
    24bc:	3301      	adds	r3, #1
    24be:	2b78      	cmp	r3, #120	; 0x78
    24c0:	f882 104c 	strb.w	r1, [r2, #76]	; 0x4c
    24c4:	d1f9      	bne.n	24ba <USBHALHost::USBHALHost()+0x3a>
    24c6:	4620      	mov	r0, r4
    24c8:	bd38      	pop	{r3, r4, r5, pc}
    24ca:	bf00      	nop
    24cc:	20080000 	.word	0x20080000
    24d0:	00008540 	.word	0x00008540
    24d4:	10000204 	.word	0x10000204

000024d8 <USBHALHost::init()>:
    24d8:	4b3e      	ldr	r3, [pc, #248]	; (25d4 <USBHALHost::init()+0xfc>)
    24da:	e92d 41f0 	stmdb	sp!, {r4, r5, r6, r7, r8, lr}
    24de:	f04f 7280 	mov.w	r2, #16777216	; 0x1000000
    24e2:	4c3d      	ldr	r4, [pc, #244]	; (25d8 <USBHALHost::init()+0x100>)
    24e4:	f8c3 2080 	str.w	r2, [r3, #128]	; 0x80
    24e8:	f8d4 30c4 	ldr.w	r3, [r4, #196]	; 0xc4
    24ec:	b082      	sub	sp, #8
    24ee:	f023 4300 	bic.w	r3, r3, #2147483648	; 0x80000000
    24f2:	f8c4 30c4 	str.w	r3, [r4, #196]	; 0xc4
    24f6:	4606      	mov	r6, r0
    24f8:	2064      	movs	r0, #100	; 0x64
    24fa:	f001 fed1 	bl	42a0 <wait_ms>
    24fe:	f8d4 20c4 	ldr.w	r2, [r4, #196]	; 0xc4
    2502:	4b36      	ldr	r3, [pc, #216]	; (25dc <USBHALHost::init()+0x104>)
    2504:	f042 4200 	orr.w	r2, r2, #2147483648	; 0x80000000
    2508:	f8c4 20c4 	str.w	r2, [r4, #196]	; 0xc4
    250c:	f8d3 1ff4 	ldr.w	r1, [r3, #4084]	; 0xff4
    2510:	461a      	mov	r2, r3
    2512:	f041 0119 	orr.w	r1, r1, #25
    2516:	f8c3 1ff4 	str.w	r1, [r3, #4084]	; 0xff4
    251a:	f8d2 3ff8 	ldr.w	r3, [r2, #4088]	; 0xff8
    251e:	4c2f      	ldr	r4, [pc, #188]	; (25dc <USBHALHost::init()+0x104>)
    2520:	f003 0319 	and.w	r3, r3, #25
    2524:	2b19      	cmp	r3, #25
    2526:	d1f8      	bne.n	251a <USBHALHost::init()+0x42>
    2528:	f8d4 2110 	ldr.w	r2, [r4, #272]	; 0x110
    252c:	4b2c      	ldr	r3, [pc, #176]	; (25e0 <USBHALHost::init()+0x108>)
    252e:	f042 0201 	orr.w	r2, r2, #1
    2532:	f8c4 2110 	str.w	r2, [r4, #272]	; 0x110
    2536:	f8d4 2ff4 	ldr.w	r2, [r4, #4084]	; 0xff4
    253a:	2500      	movs	r5, #0
    253c:	f022 0208 	bic.w	r2, r2, #8
    2540:	f8c4 2ff4 	str.w	r2, [r4, #4084]	; 0xff4
    2544:	685a      	ldr	r2, [r3, #4]
    2546:	2064      	movs	r0, #100	; 0x64
    2548:	f022 5270 	bic.w	r2, r2, #1006632960	; 0x3c000000
    254c:	605a      	str	r2, [r3, #4]
    254e:	685a      	ldr	r2, [r3, #4]
    2550:	f04f 0801 	mov.w	r8, #1
    2554:	f042 52a0 	orr.w	r2, r2, #335544320	; 0x14000000
    2558:	605a      	str	r2, [r3, #4]
    255a:	6065      	str	r5, [r4, #4]
    255c:	6225      	str	r5, [r4, #32]
    255e:	62a5      	str	r5, [r4, #40]	; 0x28
    2560:	f001 fe9e 	bl	42a0 <wait_ms>
    2564:	4a1f      	ldr	r2, [pc, #124]	; (25e4 <USBHALHost::init()+0x10c>)
    2566:	f642 232f 	movw	r3, #10799	; 0x2a2f
    256a:	f8c4 8008 	str.w	r8, [r4, #8]
    256e:	6362      	str	r2, [r4, #52]	; 0x34
    2570:	6423      	str	r3, [r4, #64]	; 0x40
    2572:	6862      	ldr	r2, [r4, #4]
    2574:	6873      	ldr	r3, [r6, #4]
    2576:	f022 02c0 	bic.w	r2, r2, #192	; 0xc0
    257a:	f042 0280 	orr.w	r2, r2, #128	; 0x80
    257e:	f44f 3780 	mov.w	r7, #65536	; 0x10000
    2582:	6062      	str	r2, [r4, #4]
    2584:	6527      	str	r7, [r4, #80]	; 0x50
    2586:	61a3      	str	r3, [r4, #24]
    2588:	68e2      	ldr	r2, [r4, #12]
    258a:	68e1      	ldr	r1, [r4, #12]
    258c:	4b16      	ldr	r3, [pc, #88]	; (25e8 <USBHALHost::init()+0x110>)
    258e:	430a      	orrs	r2, r1
    2590:	60e2      	str	r2, [r4, #12]
    2592:	4916      	ldr	r1, [pc, #88]	; (25ec <USBHALHost::init()+0x114>)
    2594:	6123      	str	r3, [r4, #16]
    2596:	2018      	movs	r0, #24
    2598:	f001 fd9a 	bl	40d0 <NVIC_SetVector>
    259c:	4b0d      	ldr	r3, [pc, #52]	; (25d4 <USBHALHost::init()+0xfc>)
    259e:	f44f 1180 	mov.w	r1, #1048576	; 0x100000
    25a2:	f04f 7280 	mov.w	r2, #16777216	; 0x1000000
    25a6:	6567      	str	r7, [r4, #84]	; 0x54
    25a8:	6561      	str	r1, [r4, #84]	; 0x54
    25aa:	601a      	str	r2, [r3, #0]
    25ac:	6d63      	ldr	r3, [r4, #84]	; 0x54
    25ae:	07db      	lsls	r3, r3, #31
    25b0:	d50c      	bpl.n	25cc <USBHALHost::init()+0xf4>
    25b2:	2096      	movs	r0, #150	; 0x96
    25b4:	f001 fe74 	bl	42a0 <wait_ms>
    25b8:	6d63      	ldr	r3, [r4, #84]	; 0x54
    25ba:	6830      	ldr	r0, [r6, #0]
    25bc:	9500      	str	r5, [sp, #0]
    25be:	6804      	ldr	r4, [r0, #0]
    25c0:	f3c3 2340 	ubfx	r3, r3, #9, #1
    25c4:	4629      	mov	r1, r5
    25c6:	4642      	mov	r2, r8
    25c8:	4630      	mov	r0, r6
    25ca:	47a0      	blx	r4
    25cc:	b002      	add	sp, #8
    25ce:	e8bd 81f0 	ldmia.w	sp!, {r4, r5, r6, r7, r8, pc}
    25d2:	bf00      	nop
    25d4:	e000e100 	.word	0xe000e100
    25d8:	400fc000 	.word	0x400fc000
    25dc:	5000c000 	.word	0x5000c000
    25e0:	4002c000 	.word	0x4002c000
    25e4:	27782edf 	.word	0x27782edf
    25e8:	80000042 	.word	0x80000042
    25ec:	00002865 	.word	0x00002865

000025f0 <USBHALHost::controlHeadED()>:
    25f0:	4b01      	ldr	r3, [pc, #4]	; (25f8 <USBHALHost::controlHeadED()+0x8>)
    25f2:	6a18      	ldr	r0, [r3, #32]
    25f4:	4770      	bx	lr
    25f6:	bf00      	nop
    25f8:	5000c000 	.word	0x5000c000

000025fc <USBHALHost::bulkHeadED()>:
    25fc:	4b01      	ldr	r3, [pc, #4]	; (2604 <USBHALHost::bulkHeadED()+0x8>)
    25fe:	6a98      	ldr	r0, [r3, #40]	; 0x28
    2600:	4770      	bx	lr
    2602:	bf00      	nop
    2604:	5000c000 	.word	0x5000c000

00002608 <USBHALHost::interruptHeadED()>:
    2608:	6843      	ldr	r3, [r0, #4]
    260a:	6818      	ldr	r0, [r3, #0]
    260c:	4770      	bx	lr
    260e:	bf00      	nop

00002610 <USBHALHost::updateBulkHeadED(unsigned long)>:
    2610:	4b01      	ldr	r3, [pc, #4]	; (2618 <USBHALHost::updateBulkHeadED(unsigned long)+0x8>)
    2612:	6299      	str	r1, [r3, #40]	; 0x28
    2614:	4770      	bx	lr
    2616:	bf00      	nop
    2618:	5000c000 	.word	0x5000c000

0000261c <USBHALHost::updateControlHeadED(unsigned long)>:
    261c:	4b01      	ldr	r3, [pc, #4]	; (2624 <USBHALHost::updateControlHeadED(unsigned long)+0x8>)
    261e:	6219      	str	r1, [r3, #32]
    2620:	4770      	bx	lr
    2622:	bf00      	nop
    2624:	5000c000 	.word	0x5000c000

00002628 <USBHALHost::updateInterruptHeadED(unsigned long)>:
    2628:	6843      	ldr	r3, [r0, #4]
    262a:	681a      	ldr	r2, [r3, #0]
    262c:	6019      	str	r1, [r3, #0]
    262e:	4770      	bx	lr

00002630 <USBHALHost::enableList(ENDPOINT_TYPE)>:
    2630:	2902      	cmp	r1, #2
    2632:	d011      	beq.n	2658 <USBHALHost::enableList(ENDPOINT_TYPE)+0x28>
    2634:	2903      	cmp	r1, #3
    2636:	d009      	beq.n	264c <USBHALHost::enableList(ENDPOINT_TYPE)+0x1c>
    2638:	b101      	cbz	r1, 263c <USBHALHost::enableList(ENDPOINT_TYPE)+0xc>
    263a:	4770      	bx	lr
    263c:	4b0a      	ldr	r3, [pc, #40]	; (2668 <USBHALHost::enableList(ENDPOINT_TYPE)+0x38>)
    263e:	2202      	movs	r2, #2
    2640:	609a      	str	r2, [r3, #8]
    2642:	685a      	ldr	r2, [r3, #4]
    2644:	f042 0210 	orr.w	r2, r2, #16
    2648:	605a      	str	r2, [r3, #4]
    264a:	4770      	bx	lr
    264c:	4b06      	ldr	r3, [pc, #24]	; (2668 <USBHALHost::enableList(ENDPOINT_TYPE)+0x38>)
    264e:	685a      	ldr	r2, [r3, #4]
    2650:	f042 0204 	orr.w	r2, r2, #4
    2654:	605a      	str	r2, [r3, #4]
    2656:	4770      	bx	lr
    2658:	4b03      	ldr	r3, [pc, #12]	; (2668 <USBHALHost::enableList(ENDPOINT_TYPE)+0x38>)
    265a:	2204      	movs	r2, #4
    265c:	609a      	str	r2, [r3, #8]
    265e:	685a      	ldr	r2, [r3, #4]
    2660:	f042 0220 	orr.w	r2, r2, #32
    2664:	605a      	str	r2, [r3, #4]
    2666:	4770      	bx	lr
    2668:	5000c000 	.word	0x5000c000

0000266c <USBHALHost::disableList(ENDPOINT_TYPE)>:
    266c:	2902      	cmp	r1, #2
    266e:	d01a      	beq.n	26a6 <USBHALHost::disableList(ENDPOINT_TYPE)+0x3a>
    2670:	2903      	cmp	r1, #3
    2672:	d00d      	beq.n	2690 <USBHALHost::disableList(ENDPOINT_TYPE)+0x24>
    2674:	b109      	cbz	r1, 267a <USBHALHost::disableList(ENDPOINT_TYPE)+0xe>
    2676:	2000      	movs	r0, #0
    2678:	4770      	bx	lr
    267a:	4b10      	ldr	r3, [pc, #64]	; (26bc <USBHALHost::disableList(ENDPOINT_TYPE)+0x50>)
    267c:	6858      	ldr	r0, [r3, #4]
    267e:	f010 0010 	ands.w	r0, r0, #16
    2682:	d0f9      	beq.n	2678 <USBHALHost::disableList(ENDPOINT_TYPE)+0xc>
    2684:	685a      	ldr	r2, [r3, #4]
    2686:	2001      	movs	r0, #1
    2688:	f022 0210 	bic.w	r2, r2, #16
    268c:	605a      	str	r2, [r3, #4]
    268e:	4770      	bx	lr
    2690:	4b0a      	ldr	r3, [pc, #40]	; (26bc <USBHALHost::disableList(ENDPOINT_TYPE)+0x50>)
    2692:	6858      	ldr	r0, [r3, #4]
    2694:	f010 0004 	ands.w	r0, r0, #4
    2698:	d0ee      	beq.n	2678 <USBHALHost::disableList(ENDPOINT_TYPE)+0xc>
    269a:	685a      	ldr	r2, [r3, #4]
    269c:	2001      	movs	r0, #1
    269e:	f022 0204 	bic.w	r2, r2, #4
    26a2:	605a      	str	r2, [r3, #4]
    26a4:	4770      	bx	lr
    26a6:	4b05      	ldr	r3, [pc, #20]	; (26bc <USBHALHost::disableList(ENDPOINT_TYPE)+0x50>)
    26a8:	6858      	ldr	r0, [r3, #4]
    26aa:	f010 0020 	ands.w	r0, r0, #32
    26ae:	d0e3      	beq.n	2678 <USBHALHost::disableList(ENDPOINT_TYPE)+0xc>
    26b0:	685a      	ldr	r2, [r3, #4]
    26b2:	2001      	movs	r0, #1
    26b4:	f022 0220 	bic.w	r2, r2, #32
    26b8:	605a      	str	r2, [r3, #4]
    26ba:	4770      	bx	lr
    26bc:	5000c000 	.word	0x5000c000

000026c0 <USBHALHost::getED()>:
    26c0:	b508      	push	{r3, lr}
    26c2:	2300      	movs	r3, #0
    26c4:	e002      	b.n	26cc <USBHALHost::getED()+0xc>
    26c6:	3301      	adds	r3, #1
    26c8:	2b3c      	cmp	r3, #60	; 0x3c
    26ca:	d009      	beq.n	26e0 <USBHALHost::getED()+0x20>
    26cc:	18c2      	adds	r2, r0, r3
    26ce:	7c11      	ldrb	r1, [r2, #16]
    26d0:	2900      	cmp	r1, #0
    26d2:	d1f8      	bne.n	26c6 <USBHALHost::getED()+0x6>
    26d4:	6880      	ldr	r0, [r0, #8]
    26d6:	2101      	movs	r1, #1
    26d8:	eb00 1003 	add.w	r0, r0, r3, lsl #4
    26dc:	7411      	strb	r1, [r2, #16]
    26de:	bd08      	pop	{r3, pc}
    26e0:	4802      	ldr	r0, [pc, #8]	; (26ec <USBHALHost::getED()+0x2c>)
    26e2:	f003 fc27 	bl	5f34 <perror>
    26e6:	2000      	movs	r0, #0
    26e8:	bd08      	pop	{r3, pc}
    26ea:	bf00      	nop
    26ec:	00008550 	.word	0x00008550

000026f0 <USBHALHost::getTD()>:
    26f0:	b508      	push	{r3, lr}
    26f2:	2300      	movs	r3, #0
    26f4:	e002      	b.n	26fc <USBHALHost::getTD()+0xc>
    26f6:	3301      	adds	r3, #1
    26f8:	2b78      	cmp	r3, #120	; 0x78
    26fa:	d00b      	beq.n	2714 <USBHALHost::getTD()+0x24>
    26fc:	18c2      	adds	r2, r0, r3
    26fe:	f892 104c 	ldrb.w	r1, [r2, #76]	; 0x4c
    2702:	2900      	cmp	r1, #0
    2704:	d1f7      	bne.n	26f6 <USBHALHost::getTD()+0x6>
    2706:	68c0      	ldr	r0, [r0, #12]
    2708:	2101      	movs	r1, #1
    270a:	eb00 1043 	add.w	r0, r0, r3, lsl #5
    270e:	f882 104c 	strb.w	r1, [r2, #76]	; 0x4c
    2712:	bd08      	pop	{r3, pc}
    2714:	4802      	ldr	r0, [pc, #8]	; (2720 <USBHALHost::getTD()+0x30>)
    2716:	f003 fc0d 	bl	5f34 <perror>
    271a:	2000      	movs	r0, #0
    271c:	bd08      	pop	{r3, pc}
    271e:	bf00      	nop
    2720:	00008568 	.word	0x00008568

00002724 <USBHALHost::freeED(unsigned char volatile*)>:
    2724:	6883      	ldr	r3, [r0, #8]
    2726:	2200      	movs	r2, #0
    2728:	1ac9      	subs	r1, r1, r3
    272a:	eb00 1011 	add.w	r0, r0, r1, lsr #4
    272e:	7402      	strb	r2, [r0, #16]
    2730:	4770      	bx	lr
    2732:	bf00      	nop

00002734 <USBHALHost::freeTD(unsigned char volatile*)>:
    2734:	68c3      	ldr	r3, [r0, #12]
    2736:	2200      	movs	r2, #0
    2738:	1ac9      	subs	r1, r1, r3
    273a:	eb00 1051 	add.w	r0, r0, r1, lsr #5
    273e:	f880 204c 	strb.w	r2, [r0, #76]	; 0x4c
    2742:	4770      	bx	lr

00002744 <USBHALHost::resetRootHub()>:
    2744:	4905      	ldr	r1, [pc, #20]	; (275c <USBHALHost::resetRootHub()+0x18>)
    2746:	2310      	movs	r3, #16
    2748:	654b      	str	r3, [r1, #84]	; 0x54
    274a:	6d4b      	ldr	r3, [r1, #84]	; 0x54
    274c:	4a03      	ldr	r2, [pc, #12]	; (275c <USBHALHost::resetRootHub()+0x18>)
    274e:	06db      	lsls	r3, r3, #27
    2750:	d4fb      	bmi.n	274a <USBHALHost::resetRootHub()+0x6>
    2752:	f44f 1380 	mov.w	r3, #1048576	; 0x100000
    2756:	6553      	str	r3, [r2, #84]	; 0x54
    2758:	4770      	bx	lr
    275a:	bf00      	nop
    275c:	5000c000 	.word	0x5000c000

00002760 <USBHALHost::UsbIrqhandler()>:
    2760:	e92d 41f0 	stmdb	sp!, {r4, r5, r6, r7, r8, lr}
    2764:	4c3e      	ldr	r4, [pc, #248]	; (2860 <USBHALHost::UsbIrqhandler()+0x100>)
    2766:	b082      	sub	sp, #8
    2768:	68e3      	ldr	r3, [r4, #12]
    276a:	6922      	ldr	r2, [r4, #16]
    276c:	4605      	mov	r5, r0
    276e:	421a      	tst	r2, r3
    2770:	d02b      	beq.n	27ca <USBHALHost::UsbIrqhandler()+0x6a>
    2772:	68e3      	ldr	r3, [r4, #12]
    2774:	6926      	ldr	r6, [r4, #16]
    2776:	401e      	ands	r6, r3
    2778:	0670      	lsls	r0, r6, #25
    277a:	d529      	bpl.n	27d0 <USBHALHost::UsbIrqhandler()+0x70>
    277c:	6d63      	ldr	r3, [r4, #84]	; 0x54
    277e:	03d9      	lsls	r1, r3, #15
    2780:	d50a      	bpl.n	2798 <USBHALHost::UsbIrqhandler()+0x38>
    2782:	6d21      	ldr	r1, [r4, #80]	; 0x50
    2784:	f411 4700 	ands.w	r7, r1, #32768	; 0x8000
    2788:	d025      	beq.n	27d6 <USBHALHost::UsbIrqhandler()+0x76>
    278a:	f006 0602 	and.w	r6, r6, #2
    278e:	4b34      	ldr	r3, [pc, #208]	; (2860 <USBHALHost::UsbIrqhandler()+0x100>)
    2790:	f44f 3280 	mov.w	r2, #65536	; 0x10000
    2794:	655a      	str	r2, [r3, #84]	; 0x54
    2796:	e001      	b.n	279c <USBHALHost::UsbIrqhandler()+0x3c>
    2798:	f006 0602 	and.w	r6, r6, #2
    279c:	4b30      	ldr	r3, [pc, #192]	; (2860 <USBHALHost::UsbIrqhandler()+0x100>)
    279e:	6d5a      	ldr	r2, [r3, #84]	; 0x54
    27a0:	02d2      	lsls	r2, r2, #11
    27a2:	bf44      	itt	mi
    27a4:	f44f 1280 	movmi.w	r2, #1048576	; 0x100000
    27a8:	655a      	strmi	r2, [r3, #84]	; 0x54
    27aa:	4b2d      	ldr	r3, [pc, #180]	; (2860 <USBHALHost::UsbIrqhandler()+0x100>)
    27ac:	2240      	movs	r2, #64	; 0x40
    27ae:	60da      	str	r2, [r3, #12]
    27b0:	b15e      	cbz	r6, 27ca <USBHALHost::UsbIrqhandler()+0x6a>
    27b2:	686a      	ldr	r2, [r5, #4]
    27b4:	682b      	ldr	r3, [r5, #0]
    27b6:	f8d2 1084 	ldr.w	r1, [r2, #132]	; 0x84
    27ba:	689b      	ldr	r3, [r3, #8]
    27bc:	f021 0101 	bic.w	r1, r1, #1
    27c0:	4628      	mov	r0, r5
    27c2:	4798      	blx	r3
    27c4:	4b26      	ldr	r3, [pc, #152]	; (2860 <USBHALHost::UsbIrqhandler()+0x100>)
    27c6:	2202      	movs	r2, #2
    27c8:	60da      	str	r2, [r3, #12]
    27ca:	b002      	add	sp, #8
    27cc:	e8bd 81f0 	ldmia.w	sp!, {r4, r5, r6, r7, r8, pc}
    27d0:	f006 0602 	and.w	r6, r6, #2
    27d4:	e7ec      	b.n	27b0 <USBHALHost::UsbIrqhandler()+0x50>
    27d6:	6d63      	ldr	r3, [r4, #84]	; 0x54
    27d8:	f013 0801 	ands.w	r8, r3, #1
    27dc:	d130      	bne.n	2840 <USBHALHost::UsbIrqhandler()+0xe0>
    27de:	f016 0602 	ands.w	r6, r6, #2
    27e2:	d115      	bne.n	2810 <USBHALHost::UsbIrqhandler()+0xb0>
    27e4:	686b      	ldr	r3, [r5, #4]
    27e6:	20c8      	movs	r0, #200	; 0xc8
    27e8:	f8d3 2084 	ldr.w	r2, [r3, #132]	; 0x84
    27ec:	f8c3 6084 	str.w	r6, [r3, #132]	; 0x84
    27f0:	f001 fd56 	bl	42a0 <wait_ms>
    27f4:	e895 000c 	ldmia.w	r5, {r2, r3}
    27f8:	f8d3 3084 	ldr.w	r3, [r3, #132]	; 0x84
    27fc:	4628      	mov	r0, r5
    27fe:	f023 0301 	bic.w	r3, r3, #1
    2802:	9300      	str	r3, [sp, #0]
    2804:	6854      	ldr	r4, [r2, #4]
    2806:	4631      	mov	r1, r6
    2808:	2201      	movs	r2, #1
    280a:	4633      	mov	r3, r6
    280c:	47a0      	blx	r4
    280e:	e7be      	b.n	278e <USBHALHost::UsbIrqhandler()+0x2e>
    2810:	20c8      	movs	r0, #200	; 0xc8
    2812:	f001 fd45 	bl	42a0 <wait_ms>
    2816:	e895 000c 	ldmia.w	r5, {r2, r3}
    281a:	f8d3 3084 	ldr.w	r3, [r3, #132]	; 0x84
    281e:	4641      	mov	r1, r8
    2820:	f023 0301 	bic.w	r3, r3, #1
    2824:	9300      	str	r3, [sp, #0]
    2826:	6857      	ldr	r7, [r2, #4]
    2828:	4643      	mov	r3, r8
    282a:	2201      	movs	r2, #1
    282c:	4628      	mov	r0, r5
    282e:	47b8      	blx	r7
    2830:	686b      	ldr	r3, [r5, #4]
    2832:	2202      	movs	r2, #2
    2834:	f8d3 1084 	ldr.w	r1, [r3, #132]	; 0x84
    2838:	f8c3 8084 	str.w	r8, [r3, #132]	; 0x84
    283c:	60e2      	str	r2, [r4, #12]
    283e:	e7a6      	b.n	278e <USBHALHost::UsbIrqhandler()+0x2e>
    2840:	2096      	movs	r0, #150	; 0x96
    2842:	f001 fd2d 	bl	42a0 <wait_ms>
    2846:	682a      	ldr	r2, [r5, #0]
    2848:	6d63      	ldr	r3, [r4, #84]	; 0x54
    284a:	9700      	str	r7, [sp, #0]
    284c:	6814      	ldr	r4, [r2, #0]
    284e:	f3c3 2340 	ubfx	r3, r3, #9, #1
    2852:	4639      	mov	r1, r7
    2854:	4628      	mov	r0, r5
    2856:	2201      	movs	r2, #1
    2858:	f006 0602 	and.w	r6, r6, #2
    285c:	47a0      	blx	r4
    285e:	e796      	b.n	278e <USBHALHost::UsbIrqhandler()+0x2e>
    2860:	5000c000 	.word	0x5000c000

00002864 <USBHALHost::_usbisr()>:
    2864:	4b02      	ldr	r3, [pc, #8]	; (2870 <USBHALHost::_usbisr()+0xc>)
    2866:	6818      	ldr	r0, [r3, #0]
    2868:	b108      	cbz	r0, 286e <USBHALHost::_usbisr()+0xa>
    286a:	f7ff bf79 	b.w	2760 <USBHALHost::UsbIrqhandler()>
    286e:	4770      	bx	lr
    2870:	10000204 	.word	0x10000204

00002874 <osThreadExit>:
    2874:	b500      	push	{lr}
    2876:	f8df c00c 	ldr.w	r12, [pc, #12]	; 2884 <osThreadExit+0x10>
    287a:	df00      	svc	0
    287c:	f8df c008 	ldr.w	r12, [pc, #8]	; 2888 <osThreadExit+0x14>
    2880:	df00      	svc	0
    2882:	e7fe      	b.n	2882 <osThreadExit+0xe>
    2884:	00002a2d 	.word	0x00002a2d
    2888:	00002a45 	.word	0x00002a45

0000288c <rt_timer_insert>:
    288c:	b430      	push	{r4, r5}
    288e:	4d11      	ldr	r5, [pc, #68]	; (28d4 <rt_timer_insert+0x48>)
    2890:	682c      	ldr	r4, [r5, #0]
    2892:	b15c      	cbz	r4, 28ac <rt_timer_insert+0x20>
    2894:	8922      	ldrh	r2, [r4, #8]
    2896:	4291      	cmp	r1, r2
    2898:	d204      	bcs.n	28a4 <rt_timer_insert+0x18>
    289a:	e00e      	b.n	28ba <rt_timer_insert+0x2e>
    289c:	891a      	ldrh	r2, [r3, #8]
    289e:	428a      	cmp	r2, r1
    28a0:	d80d      	bhi.n	28be <rt_timer_insert+0x32>
    28a2:	461c      	mov	r4, r3
    28a4:	6823      	ldr	r3, [r4, #0]
    28a6:	1a89      	subs	r1, r1, r2
    28a8:	2b00      	cmp	r3, #0
    28aa:	d1f7      	bne.n	289c <rt_timer_insert+0x10>
    28ac:	2300      	movs	r3, #0
    28ae:	8101      	strh	r1, [r0, #8]
    28b0:	6003      	str	r3, [r0, #0]
    28b2:	b164      	cbz	r4, 28ce <rt_timer_insert+0x42>
    28b4:	6020      	str	r0, [r4, #0]
    28b6:	bc30      	pop	{r4, r5}
    28b8:	4770      	bx	lr
    28ba:	4623      	mov	r3, r4
    28bc:	2400      	movs	r4, #0
    28be:	b289      	uxth	r1, r1
    28c0:	8101      	strh	r1, [r0, #8]
    28c2:	891a      	ldrh	r2, [r3, #8]
    28c4:	6003      	str	r3, [r0, #0]
    28c6:	1a51      	subs	r1, r2, r1
    28c8:	8119      	strh	r1, [r3, #8]
    28ca:	2c00      	cmp	r4, #0
    28cc:	d1f2      	bne.n	28b4 <rt_timer_insert+0x28>
    28ce:	6028      	str	r0, [r5, #0]
    28d0:	bc30      	pop	{r4, r5}
    28d2:	4770      	bx	lr
    28d4:	100004a4 	.word	0x100004a4

000028d8 <rt_ms2tick.part.0>:
    28d8:	4b08      	ldr	r3, [pc, #32]	; (28fc <rt_ms2tick.part.0+0x24>)
    28da:	b410      	push	{r4}
    28dc:	681b      	ldr	r3, [r3, #0]
    28de:	f44f 747a 	mov.w	r4, #1000	; 0x3e8
    28e2:	1e59      	subs	r1, r3, #1
    28e4:	fb04 1000 	mla	r0, r4, r0, r1
    28e8:	f64f 72fe 	movw	r2, #65534	; 0xfffe
    28ec:	fbb0 f0f3 	udiv	r0, r0, r3
    28f0:	4290      	cmp	r0, r2
    28f2:	bf28      	it	cs
    28f4:	4610      	movcs	r0, r2
    28f6:	f85d 4b04 	ldr.w	r4, [sp], #4
    28fa:	4770      	bx	lr
    28fc:	000085e4 	.word	0x000085e4

00002900 <svcKernelInitialize>:
    2900:	b538      	push	{r3, r4, r5, lr}
    2902:	4c08      	ldr	r4, [pc, #32]	; (2924 <svcKernelInitialize+0x24>)
    2904:	7825      	ldrb	r5, [r4, #0]
    2906:	b955      	cbnz	r5, 291e <svcKernelInitialize+0x1e>
    2908:	f001 f99a 	bl	3c40 <rt_sys_init>
    290c:	4b06      	ldr	r3, [pc, #24]	; (2928 <svcKernelInitialize+0x28>)
    290e:	22ff      	movs	r2, #255	; 0xff
    2910:	681b      	ldr	r3, [r3, #0]
    2912:	4628      	mov	r0, r5
    2914:	709a      	strb	r2, [r3, #2]
    2916:	f001 fb79 	bl	400c <sysThreadError>
    291a:	2301      	movs	r3, #1
    291c:	7023      	strb	r3, [r4, #0]
    291e:	2000      	movs	r0, #0
    2920:	bd38      	pop	{r3, r4, r5, pc}
    2922:	bf00      	nop
    2924:	100004a0 	.word	0x100004a0
    2928:	100004dc 	.word	0x100004dc

0000292c <osKernelInitialize>:
    292c:	b510      	push	{r4, lr}
    292e:	f3ef 8405 	mrs	r4, IPSR
    2932:	b10c      	cbz	r4, 2938 <osKernelInitialize+0xc>
    2934:	2082      	movs	r0, #130	; 0x82
    2936:	bd10      	pop	{r4, pc}
    2938:	f3ef 8414 	mrs	r4, CONTROL
    293c:	07e4      	lsls	r4, r4, #31
    293e:	d503      	bpl.n	2948 <osKernelInitialize+0x1c>
    2940:	f8df c00c 	ldr.w	r12, [pc, #12]	; 2950 <osKernelInitialize+0x24>
    2944:	df00      	svc	0
    2946:	bd10      	pop	{r4, pc}
    2948:	e8bd 4010 	ldmia.w	sp!, {r4, lr}
    294c:	f7ff bfd8 	b.w	2900 <svcKernelInitialize>
    2950:	00002901 	.word	0x00002901

00002954 <osKernelStart>:
    2954:	b510      	push	{r4, lr}
    2956:	b088      	sub	sp, #32
    2958:	f3ef 8405 	mrs	r4, IPSR
    295c:	b114      	cbz	r4, 2964 <osKernelStart+0x10>
    295e:	2082      	movs	r0, #130	; 0x82
    2960:	b008      	add	sp, #32
    2962:	bd10      	pop	{r4, pc}
    2964:	f3ef 8414 	mrs	r4, CONTROL
    2968:	f004 0403 	and.w	r4, r4, #3
    296c:	2c02      	cmp	r4, #2
    296e:	d01d      	beq.n	29ac <osKernelStart+0x58>
    2970:	2c03      	cmp	r4, #3
    2972:	d014      	beq.n	299e <osKernelStart+0x4a>
    2974:	2c01      	cmp	r4, #1
    2976:	d016      	beq.n	29a6 <osKernelStart+0x52>
    2978:	ac08      	add	r4, sp, #32
    297a:	f384 8809 	msr	PSP, r4
    297e:	4c0f      	ldr	r4, [pc, #60]	; (29bc <osKernelStart+0x68>)
    2980:	7824      	ldrb	r4, [r4, #0]
    2982:	07e4      	lsls	r4, r4, #31
    2984:	d516      	bpl.n	29b4 <osKernelStart+0x60>
    2986:	2402      	movs	r4, #2
    2988:	f384 8814 	msr	CONTROL, r4
    298c:	f3bf 8f4f 	dsb	sy
    2990:	f3bf 8f6f 	isb	sy
    2994:	f8df c028 	ldr.w	r12, [pc, #40]	; 29c0 <osKernelStart+0x6c>
    2998:	df00      	svc	0
    299a:	b008      	add	sp, #32
    299c:	bd10      	pop	{r4, pc}
    299e:	4c07      	ldr	r4, [pc, #28]	; (29bc <osKernelStart+0x68>)
    29a0:	7824      	ldrb	r4, [r4, #0]
    29a2:	07e4      	lsls	r4, r4, #31
    29a4:	d5f6      	bpl.n	2994 <osKernelStart+0x40>
    29a6:	20ff      	movs	r0, #255	; 0xff
    29a8:	b008      	add	sp, #32
    29aa:	bd10      	pop	{r4, pc}
    29ac:	4c03      	ldr	r4, [pc, #12]	; (29bc <osKernelStart+0x68>)
    29ae:	7824      	ldrb	r4, [r4, #0]
    29b0:	07e4      	lsls	r4, r4, #31
    29b2:	d4ef      	bmi.n	2994 <osKernelStart+0x40>
    29b4:	2403      	movs	r4, #3
    29b6:	f384 8814 	msr	CONTROL, r4
    29ba:	e7e7      	b.n	298c <osKernelStart+0x38>
    29bc:	000085ec 	.word	0x000085ec
    29c0:	00002ce9 	.word	0x00002ce9

000029c4 <svcThreadCreate>:
    29c4:	b5f8      	push	{r3, r4, r5, r6, r7, lr}
    29c6:	4604      	mov	r4, r0
    29c8:	460f      	mov	r7, r1
    29ca:	b328      	cbz	r0, 2a18 <svcThreadCreate+0x54>
    29cc:	6802      	ldr	r2, [r0, #0]
    29ce:	b31a      	cbz	r2, 2a18 <svcThreadCreate+0x54>
    29d0:	8883      	ldrh	r3, [r0, #4]
    29d2:	1cd8      	adds	r0, r3, #3
    29d4:	b280      	uxth	r0, r0
    29d6:	2806      	cmp	r0, #6
    29d8:	d81e      	bhi.n	2a18 <svcThreadCreate+0x54>
    29da:	68a0      	ldr	r0, [r4, #8]
    29dc:	b1e0      	cbz	r0, 2a18 <svcThreadCreate+0x54>
    29de:	68e6      	ldr	r6, [r4, #12]
    29e0:	b1d6      	cbz	r6, 2a18 <svcThreadCreate+0x54>
    29e2:	1d19      	adds	r1, r3, #4
    29e4:	f104 0510 	add.w	r5, r4, #16
    29e8:	b2c9      	uxtb	r1, r1
    29ea:	63a6      	str	r6, [r4, #56]	; 0x38
    29ec:	8660      	strh	r0, [r4, #50]	; 0x32
    29ee:	62e7      	str	r7, [r4, #44]	; 0x2c
    29f0:	4628      	mov	r0, r5
    29f2:	f001 f851 	bl	3a98 <rt_init_context>
    29f6:	f001 f837 	bl	3a68 <rt_get_TID>
    29fa:	4e0a      	ldr	r6, [pc, #40]	; (2a24 <svcThreadCreate+0x60>)
    29fc:	4603      	mov	r3, r0
    29fe:	1e47      	subs	r7, r0, #1
    2a00:	f846 5027 	str.w	r5, [r6, r7, lsl #2]
    2a04:	4628      	mov	r0, r5
    2a06:	74e3      	strb	r3, [r4, #19]
    2a08:	f001 f862 	bl	3ad0 <rt_dispatch>
    2a0c:	f856 0027 	ldr.w	r0, [r6, r7, lsl #2]
    2a10:	4a05      	ldr	r2, [pc, #20]	; (2a28 <svcThreadCreate+0x64>)
    2a12:	6a43      	ldr	r3, [r0, #36]	; 0x24
    2a14:	635a      	str	r2, [r3, #52]	; 0x34
    2a16:	bdf8      	pop	{r3, r4, r5, r6, r7, pc}
    2a18:	2080      	movs	r0, #128	; 0x80
    2a1a:	f001 faf7 	bl	400c <sysThreadError>
    2a1e:	2000      	movs	r0, #0
    2a20:	bdf8      	pop	{r3, r4, r5, r6, r7, pc}
    2a22:	bf00      	nop
    2a24:	10000718 	.word	0x10000718
    2a28:	00002875 	.word	0x00002875

00002a2c <svcThreadGetId>:
    2a2c:	b508      	push	{r3, lr}
    2a2e:	f001 f88b 	bl	3b48 <rt_tsk_self>
    2a32:	b118      	cbz	r0, 2a3c <svcThreadGetId+0x10>
    2a34:	4b02      	ldr	r3, [pc, #8]	; (2a40 <svcThreadGetId+0x14>)
    2a36:	3801      	subs	r0, #1
    2a38:	f853 0020 	ldr.w	r0, [r3, r0, lsl #2]
    2a3c:	bd08      	pop	{r3, pc}
    2a3e:	bf00      	nop
    2a40:	10000718 	.word	0x10000718

00002a44 <svcThreadTerminate>:
    2a44:	b508      	push	{r3, lr}
    2a46:	b158      	cbz	r0, 2a60 <svcThreadTerminate+0x1c>
    2a48:	0783      	lsls	r3, r0, #30
    2a4a:	d109      	bne.n	2a60 <svcThreadTerminate+0x1c>
    2a4c:	7803      	ldrb	r3, [r0, #0]
    2a4e:	b93b      	cbnz	r3, 2a60 <svcThreadTerminate+0x1c>
    2a50:	78c0      	ldrb	r0, [r0, #3]
    2a52:	f001 f8bd 	bl	3bd0 <rt_tsk_delete>
    2a56:	28ff      	cmp	r0, #255	; 0xff
    2a58:	bf14      	ite	ne
    2a5a:	2000      	movne	r0, #0
    2a5c:	2081      	moveq	r0, #129	; 0x81
    2a5e:	bd08      	pop	{r3, pc}
    2a60:	2080      	movs	r0, #128	; 0x80
    2a62:	bd08      	pop	{r3, pc}

00002a64 <osThreadCreate>:
    2a64:	b510      	push	{r4, lr}
    2a66:	f3ef 8405 	mrs	r4, IPSR
    2a6a:	b974      	cbnz	r4, 2a8a <osThreadCreate+0x26>
    2a6c:	f3ef 8414 	mrs	r4, CONTROL
    2a70:	07e4      	lsls	r4, r4, #31
    2a72:	d402      	bmi.n	2a7a <osThreadCreate+0x16>
    2a74:	4c06      	ldr	r4, [pc, #24]	; (2a90 <osThreadCreate+0x2c>)
    2a76:	7824      	ldrb	r4, [r4, #0]
    2a78:	b11c      	cbz	r4, 2a82 <osThreadCreate+0x1e>
    2a7a:	f8df c018 	ldr.w	r12, [pc, #24]	; 2a94 <osThreadCreate+0x30>
    2a7e:	df00      	svc	0
    2a80:	bd10      	pop	{r4, pc}
    2a82:	e8bd 4010 	ldmia.w	sp!, {r4, lr}
    2a86:	f7ff bf9d 	b.w	29c4 <svcThreadCreate>
    2a8a:	2000      	movs	r0, #0
    2a8c:	bd10      	pop	{r4, pc}
    2a8e:	bf00      	nop
    2a90:	100004a1 	.word	0x100004a1
    2a94:	000029c5 	.word	0x000029c5

00002a98 <osThreadTerminate>:
    2a98:	b510      	push	{r4, lr}
    2a9a:	f3ef 8405 	mrs	r4, IPSR
    2a9e:	b10c      	cbz	r4, 2aa4 <osThreadTerminate+0xc>
    2aa0:	2082      	movs	r0, #130	; 0x82
    2aa2:	bd10      	pop	{r4, pc}
    2aa4:	f8df c004 	ldr.w	r12, [pc, #4]	; 2aac <osThreadTerminate+0x14>
    2aa8:	df00      	svc	0
    2aaa:	bd10      	pop	{r4, pc}
    2aac:	00002a45 	.word	0x00002a45

00002ab0 <svcDelay>:
    2ab0:	b508      	push	{r3, lr}
    2ab2:	b158      	cbz	r0, 2acc <svcDelay+0x1c>
    2ab4:	1c42      	adds	r2, r0, #1
    2ab6:	d010      	beq.n	2ada <svcDelay+0x2a>
    2ab8:	4a0b      	ldr	r2, [pc, #44]	; (2ae8 <svcDelay+0x38>)
    2aba:	4290      	cmp	r0, r2
    2abc:	d807      	bhi.n	2ace <svcDelay+0x1e>
    2abe:	f7ff ff0b 	bl	28d8 <rt_ms2tick.part.0>
    2ac2:	b280      	uxth	r0, r0
    2ac4:	f001 f958 	bl	3d78 <rt_dly_wait>
    2ac8:	2040      	movs	r0, #64	; 0x40
    2aca:	bd08      	pop	{r3, pc}
    2acc:	bd08      	pop	{r3, pc}
    2ace:	f64f 70fe 	movw	r0, #65534	; 0xfffe
    2ad2:	f001 f951 	bl	3d78 <rt_dly_wait>
    2ad6:	2040      	movs	r0, #64	; 0x40
    2ad8:	bd08      	pop	{r3, pc}
    2ada:	f64f 70ff 	movw	r0, #65535	; 0xffff
    2ade:	f001 f94b 	bl	3d78 <rt_dly_wait>
    2ae2:	2040      	movs	r0, #64	; 0x40
    2ae4:	bd08      	pop	{r3, pc}
    2ae6:	bf00      	nop
    2ae8:	003d0900 	.word	0x003d0900

00002aec <osDelay>:
    2aec:	b510      	push	{r4, lr}
    2aee:	f3ef 8405 	mrs	r4, IPSR
    2af2:	b10c      	cbz	r4, 2af8 <osDelay+0xc>
    2af4:	2082      	movs	r0, #130	; 0x82
    2af6:	bd10      	pop	{r4, pc}
    2af8:	f8df c004 	ldr.w	r12, [pc, #4]	; 2b00 <osDelay+0x14>
    2afc:	df00      	svc	0
    2afe:	bd10      	pop	{r4, pc}
    2b00:	00002ab1 	.word	0x00002ab1

00002b04 <svcTimerCall>:
    2b04:	0783      	lsls	r3, r0, #30
    2b06:	d106      	bne.n	2b16 <svcTimerCall+0x12>
    2b08:	b128      	cbz	r0, 2b16 <svcTimerCall+0x12>
    2b0a:	6901      	ldr	r1, [r0, #16]
    2b0c:	68c3      	ldr	r3, [r0, #12]
    2b0e:	680a      	ldr	r2, [r1, #0]
    2b10:	4619      	mov	r1, r3
    2b12:	4610      	mov	r0, r2
    2b14:	4770      	bx	lr
    2b16:	2000      	movs	r0, #0
    2b18:	2100      	movs	r1, #0
    2b1a:	4770      	bx	lr

00002b1c <sysTimerTick>:
    2b1c:	e92d 43f8 	stmdb	sp!, {r3, r4, r5, r6, r7, r8, r9, lr}
    2b20:	4f17      	ldr	r7, [pc, #92]	; (2b80 <sysTimerTick+0x64>)
    2b22:	683d      	ldr	r5, [r7, #0]
    2b24:	b1d5      	cbz	r5, 2b5c <sysTimerTick+0x40>
    2b26:	892b      	ldrh	r3, [r5, #8]
    2b28:	f8df 8058 	ldr.w	r8, [pc, #88]	; 2b84 <sysTimerTick+0x68>
    2b2c:	3b01      	subs	r3, #1
    2b2e:	b29b      	uxth	r3, r3
    2b30:	812b      	strh	r3, [r5, #8]
    2b32:	f04f 0901 	mov.w	r9, #1
    2b36:	b98b      	cbnz	r3, 2b5c <sysTimerTick+0x40>
    2b38:	682c      	ldr	r4, [r5, #0]
    2b3a:	f8d8 6000 	ldr.w	r6, [r8]
    2b3e:	603c      	str	r4, [r7, #0]
    2b40:	b116      	cbz	r6, 2b48 <sysTimerTick+0x2c>
    2b42:	7833      	ldrb	r3, [r6, #0]
    2b44:	2b01      	cmp	r3, #1
    2b46:	d010      	beq.n	2b6a <sysTimerTick+0x4e>
    2b48:	796b      	ldrb	r3, [r5, #5]
    2b4a:	2b01      	cmp	r3, #1
    2b4c:	d008      	beq.n	2b60 <sysTimerTick+0x44>
    2b4e:	f885 9004 	strb.w	r9, [r5, #4]
    2b52:	b11c      	cbz	r4, 2b5c <sysTimerTick+0x40>
    2b54:	8923      	ldrh	r3, [r4, #8]
    2b56:	4625      	mov	r5, r4
    2b58:	2b00      	cmp	r3, #0
    2b5a:	d0ed      	beq.n	2b38 <sysTimerTick+0x1c>
    2b5c:	e8bd 83f8 	ldmia.w	sp!, {r3, r4, r5, r6, r7, r8, r9, pc}
    2b60:	4628      	mov	r0, r5
    2b62:	8969      	ldrh	r1, [r5, #10]
    2b64:	f7ff fe92 	bl	288c <rt_timer_insert>
    2b68:	e7f3      	b.n	2b52 <sysTimerTick+0x36>
    2b6a:	4630      	mov	r0, r6
    2b6c:	f000 fce6 	bl	353c <rt_mbx_check>
    2b70:	2800      	cmp	r0, #0
    2b72:	d0e9      	beq.n	2b48 <sysTimerTick+0x2c>
    2b74:	4630      	mov	r0, r6
    2b76:	4629      	mov	r1, r5
    2b78:	f000 fce4 	bl	3544 <isr_mbx_send>
    2b7c:	e7e4      	b.n	2b48 <sysTimerTick+0x2c>
    2b7e:	bf00      	nop
    2b80:	100004a4 	.word	0x100004a4
    2b84:	100007f8 	.word	0x100007f8

00002b88 <svcMutexCreate>:
    2b88:	b510      	push	{r4, lr}
    2b8a:	b140      	cbz	r0, 2b9e <svcMutexCreate+0x16>
    2b8c:	6804      	ldr	r4, [r0, #0]
    2b8e:	b134      	cbz	r4, 2b9e <svcMutexCreate+0x16>
    2b90:	7823      	ldrb	r3, [r4, #0]
    2b92:	b923      	cbnz	r3, 2b9e <svcMutexCreate+0x16>
    2b94:	4620      	mov	r0, r4
    2b96:	f000 fdc7 	bl	3728 <rt_mut_init>
    2b9a:	4620      	mov	r0, r4
    2b9c:	bd10      	pop	{r4, pc}
    2b9e:	2080      	movs	r0, #128	; 0x80
    2ba0:	f001 fa34 	bl	400c <sysThreadError>
    2ba4:	2000      	movs	r0, #0
    2ba6:	bd10      	pop	{r4, pc}

00002ba8 <svcMutexWait>:
    2ba8:	b570      	push	{r4, r5, r6, lr}
    2baa:	f010 0603 	ands.w	r6, r0, #3
    2bae:	4604      	mov	r4, r0
    2bb0:	460d      	mov	r5, r1
    2bb2:	d103      	bne.n	2bbc <svcMutexWait+0x14>
    2bb4:	b110      	cbz	r0, 2bbc <svcMutexWait+0x14>
    2bb6:	7803      	ldrb	r3, [r0, #0]
    2bb8:	2b03      	cmp	r3, #3
    2bba:	d001      	beq.n	2bc0 <svcMutexWait+0x18>
    2bbc:	2080      	movs	r0, #128	; 0x80
    2bbe:	bd70      	pop	{r4, r5, r6, pc}
    2bc0:	1c4b      	adds	r3, r1, #1
    2bc2:	d015      	beq.n	2bf0 <svcMutexWait+0x48>
    2bc4:	4b0e      	ldr	r3, [pc, #56]	; (2c00 <svcMutexWait+0x58>)
    2bc6:	4299      	cmp	r1, r3
    2bc8:	d80a      	bhi.n	2be0 <svcMutexWait+0x38>
    2bca:	4608      	mov	r0, r1
    2bcc:	f7ff fe84 	bl	28d8 <rt_ms2tick.part.0>
    2bd0:	b281      	uxth	r1, r0
    2bd2:	4620      	mov	r0, r4
    2bd4:	f000 fe4c 	bl	3870 <rt_mut_wait>
    2bd8:	2801      	cmp	r0, #1
    2bda:	d004      	beq.n	2be6 <svcMutexWait+0x3e>
    2bdc:	2000      	movs	r0, #0
    2bde:	bd70      	pop	{r4, r5, r6, pc}
    2be0:	f64f 71fe 	movw	r1, #65534	; 0xfffe
    2be4:	e7f5      	b.n	2bd2 <svcMutexWait+0x2a>
    2be6:	b10d      	cbz	r5, 2bec <svcMutexWait+0x44>
    2be8:	20c1      	movs	r0, #193	; 0xc1
    2bea:	bd70      	pop	{r4, r5, r6, pc}
    2bec:	2081      	movs	r0, #129	; 0x81
    2bee:	bd70      	pop	{r4, r5, r6, pc}
    2bf0:	f64f 71ff 	movw	r1, #65535	; 0xffff
    2bf4:	f000 fe3c 	bl	3870 <rt_mut_wait>
    2bf8:	2801      	cmp	r0, #1
    2bfa:	d1ef      	bne.n	2bdc <svcMutexWait+0x34>
    2bfc:	e7f4      	b.n	2be8 <svcMutexWait+0x40>
    2bfe:	bf00      	nop
    2c00:	003d0900 	.word	0x003d0900

00002c04 <svcMutexRelease>:
    2c04:	0782      	lsls	r2, r0, #30
    2c06:	b508      	push	{r3, lr}
    2c08:	d103      	bne.n	2c12 <svcMutexRelease+0xe>
    2c0a:	b110      	cbz	r0, 2c12 <svcMutexRelease+0xe>
    2c0c:	7803      	ldrb	r3, [r0, #0]
    2c0e:	2b03      	cmp	r3, #3
    2c10:	d001      	beq.n	2c16 <svcMutexRelease+0x12>
    2c12:	2080      	movs	r0, #128	; 0x80
    2c14:	bd08      	pop	{r3, pc}
    2c16:	f000 fdcb 	bl	37b0 <rt_mut_release>
    2c1a:	28ff      	cmp	r0, #255	; 0xff
    2c1c:	bf14      	ite	ne
    2c1e:	2000      	movne	r0, #0
    2c20:	2081      	moveq	r0, #129	; 0x81
    2c22:	bd08      	pop	{r3, pc}

00002c24 <svcMutexDelete>:
    2c24:	b510      	push	{r4, lr}
    2c26:	f010 0403 	ands.w	r4, r0, #3
    2c2a:	d103      	bne.n	2c34 <svcMutexDelete+0x10>
    2c2c:	b110      	cbz	r0, 2c34 <svcMutexDelete+0x10>
    2c2e:	7803      	ldrb	r3, [r0, #0]
    2c30:	2b03      	cmp	r3, #3
    2c32:	d001      	beq.n	2c38 <svcMutexDelete+0x14>
    2c34:	2080      	movs	r0, #128	; 0x80
    2c36:	bd10      	pop	{r4, pc}
    2c38:	f000 fd7e 	bl	3738 <rt_mut_delete>
    2c3c:	4620      	mov	r0, r4
    2c3e:	bd10      	pop	{r4, pc}

00002c40 <osMutexCreate>:
    2c40:	b510      	push	{r4, lr}
    2c42:	f3ef 8405 	mrs	r4, IPSR
    2c46:	b974      	cbnz	r4, 2c66 <osMutexCreate+0x26>
    2c48:	f3ef 8414 	mrs	r4, CONTROL
    2c4c:	07e4      	lsls	r4, r4, #31
    2c4e:	d402      	bmi.n	2c56 <osMutexCreate+0x16>
    2c50:	4c06      	ldr	r4, [pc, #24]	; (2c6c <osMutexCreate+0x2c>)
    2c52:	7824      	ldrb	r4, [r4, #0]
    2c54:	b11c      	cbz	r4, 2c5e <osMutexCreate+0x1e>
    2c56:	f8df c018 	ldr.w	r12, [pc, #24]	; 2c70 <osMutexCreate+0x30>
    2c5a:	df00      	svc	0
    2c5c:	bd10      	pop	{r4, pc}
    2c5e:	e8bd 4010 	ldmia.w	sp!, {r4, lr}
    2c62:	f7ff bf91 	b.w	2b88 <svcMutexCreate>
    2c66:	2000      	movs	r0, #0
    2c68:	bd10      	pop	{r4, pc}
    2c6a:	bf00      	nop
    2c6c:	100004a1 	.word	0x100004a1
    2c70:	00002b89 	.word	0x00002b89

00002c74 <osMutexWait>:
    2c74:	b510      	push	{r4, lr}
    2c76:	f3ef 8405 	mrs	r4, IPSR
    2c7a:	b10c      	cbz	r4, 2c80 <osMutexWait+0xc>
    2c7c:	2082      	movs	r0, #130	; 0x82
    2c7e:	bd10      	pop	{r4, pc}
    2c80:	f8df c004 	ldr.w	r12, [pc, #4]	; 2c88 <osMutexWait+0x14>
    2c84:	df00      	svc	0
    2c86:	bd10      	pop	{r4, pc}
    2c88:	00002ba9 	.word	0x00002ba9

00002c8c <osMutexRelease>:
    2c8c:	b510      	push	{r4, lr}
    2c8e:	f3ef 8405 	mrs	r4, IPSR
    2c92:	b10c      	cbz	r4, 2c98 <osMutexRelease+0xc>
    2c94:	2082      	movs	r0, #130	; 0x82
    2c96:	bd10      	pop	{r4, pc}
    2c98:	f8df c004 	ldr.w	r12, [pc, #4]	; 2ca0 <osMutexRelease+0x14>
    2c9c:	df00      	svc	0
    2c9e:	bd10      	pop	{r4, pc}
    2ca0:	00002c05 	.word	0x00002c05

00002ca4 <osMutexDelete>:
    2ca4:	b510      	push	{r4, lr}
    2ca6:	f3ef 8405 	mrs	r4, IPSR
    2caa:	b10c      	cbz	r4, 2cb0 <osMutexDelete+0xc>
    2cac:	2082      	movs	r0, #130	; 0x82
    2cae:	bd10      	pop	{r4, pc}
    2cb0:	f8df c004 	ldr.w	r12, [pc, #4]	; 2cb8 <osMutexDelete+0x14>
    2cb4:	df00      	svc	0
    2cb6:	bd10      	pop	{r4, pc}
    2cb8:	00002c25 	.word	0x00002c25

00002cbc <svcMessageCreate>:
    2cbc:	b510      	push	{r4, lr}
    2cbe:	4604      	mov	r4, r0
    2cc0:	b160      	cbz	r0, 2cdc <svcMessageCreate+0x20>
    2cc2:	6801      	ldr	r1, [r0, #0]
    2cc4:	b151      	cbz	r1, 2cdc <svcMessageCreate+0x20>
    2cc6:	6840      	ldr	r0, [r0, #4]
    2cc8:	b140      	cbz	r0, 2cdc <svcMessageCreate+0x20>
    2cca:	7803      	ldrb	r3, [r0, #0]
    2ccc:	b933      	cbnz	r3, 2cdc <svcMessageCreate+0x20>
    2cce:	3104      	adds	r1, #4
    2cd0:	0089      	lsls	r1, r1, #2
    2cd2:	b289      	uxth	r1, r1
    2cd4:	f000 fb7e 	bl	33d4 <rt_mbx_init>
    2cd8:	6860      	ldr	r0, [r4, #4]
    2cda:	bd10      	pop	{r4, pc}
    2cdc:	2080      	movs	r0, #128	; 0x80
    2cde:	f001 f995 	bl	400c <sysThreadError>
    2ce2:	2000      	movs	r0, #0
    2ce4:	bd10      	pop	{r4, pc}
    2ce6:	bf00      	nop

00002ce8 <svcKernelStart>:
    2ce8:	b538      	push	{r3, r4, r5, lr}
    2cea:	4d11      	ldr	r5, [pc, #68]	; (2d30 <svcKernelStart+0x48>)
    2cec:	782c      	ldrb	r4, [r5, #0]
    2cee:	b9e4      	cbnz	r4, 2d2a <svcKernelStart+0x42>
    2cf0:	4621      	mov	r1, r4
    2cf2:	4810      	ldr	r0, [pc, #64]	; (2d34 <svcKernelStart+0x4c>)
    2cf4:	f7ff ffe2 	bl	2cbc <svcMessageCreate>
    2cf8:	4b0f      	ldr	r3, [pc, #60]	; (2d38 <svcKernelStart+0x50>)
    2cfa:	4621      	mov	r1, r4
    2cfc:	6018      	str	r0, [r3, #0]
    2cfe:	480f      	ldr	r0, [pc, #60]	; (2d3c <svcKernelStart+0x54>)
    2d00:	f7ff fe60 	bl	29c4 <svcThreadCreate>
    2d04:	4b0e      	ldr	r3, [pc, #56]	; (2d40 <svcKernelStart+0x58>)
    2d06:	4621      	mov	r1, r4
    2d08:	6018      	str	r0, [r3, #0]
    2d0a:	4620      	mov	r0, r4
    2d0c:	f000 ff24 	bl	3b58 <rt_tsk_prio>
    2d10:	4b0c      	ldr	r3, [pc, #48]	; (2d44 <svcKernelStart+0x5c>)
    2d12:	681b      	ldr	r3, [r3, #0]
    2d14:	6a5b      	ldr	r3, [r3, #36]	; 0x24
    2d16:	3320      	adds	r3, #32
    2d18:	f383 8809 	msr	PSP, r3
    2d1c:	4b09      	ldr	r3, [pc, #36]	; (2d44 <svcKernelStart+0x5c>)
    2d1e:	2200      	movs	r2, #0
    2d20:	601a      	str	r2, [r3, #0]
    2d22:	f001 f80b 	bl	3d3c <rt_sys_start>
    2d26:	2301      	movs	r3, #1
    2d28:	702b      	strb	r3, [r5, #0]
    2d2a:	2000      	movs	r0, #0
    2d2c:	bd38      	pop	{r3, r4, r5, pc}
    2d2e:	bf00      	nop
    2d30:	100004a1 	.word	0x100004a1
    2d34:	10000108 	.word	0x10000108
    2d38:	100007f8 	.word	0x100007f8
    2d3c:	10000110 	.word	0x10000110
    2d40:	10000ffc 	.word	0x10000ffc
    2d44:	100004dc 	.word	0x100004dc

00002d48 <svcMessagePut>:
    2d48:	b570      	push	{r4, r5, r6, lr}
    2d4a:	4615      	mov	r5, r2
    2d4c:	460e      	mov	r6, r1
    2d4e:	4604      	mov	r4, r0
    2d50:	b110      	cbz	r0, 2d58 <svcMessagePut+0x10>
    2d52:	7803      	ldrb	r3, [r0, #0]
    2d54:	2b01      	cmp	r3, #1
    2d56:	d001      	beq.n	2d5c <svcMessagePut+0x14>
    2d58:	2080      	movs	r0, #128	; 0x80
    2d5a:	bd70      	pop	{r4, r5, r6, pc}
    2d5c:	1c53      	adds	r3, r2, #1
    2d5e:	d016      	beq.n	2d8e <svcMessagePut+0x46>
    2d60:	4b0e      	ldr	r3, [pc, #56]	; (2d9c <svcMessagePut+0x54>)
    2d62:	429a      	cmp	r2, r3
    2d64:	d80b      	bhi.n	2d7e <svcMessagePut+0x36>
    2d66:	4610      	mov	r0, r2
    2d68:	f7ff fdb6 	bl	28d8 <rt_ms2tick.part.0>
    2d6c:	b282      	uxth	r2, r0
    2d6e:	4620      	mov	r0, r4
    2d70:	4631      	mov	r1, r6
    2d72:	f000 fb3d 	bl	33f0 <rt_mbx_send>
    2d76:	2801      	cmp	r0, #1
    2d78:	d004      	beq.n	2d84 <svcMessagePut+0x3c>
    2d7a:	2000      	movs	r0, #0
    2d7c:	bd70      	pop	{r4, r5, r6, pc}
    2d7e:	f64f 72fe 	movw	r2, #65534	; 0xfffe
    2d82:	e7f4      	b.n	2d6e <svcMessagePut+0x26>
    2d84:	b10d      	cbz	r5, 2d8a <svcMessagePut+0x42>
    2d86:	20c1      	movs	r0, #193	; 0xc1
    2d88:	bd70      	pop	{r4, r5, r6, pc}
    2d8a:	2081      	movs	r0, #129	; 0x81
    2d8c:	bd70      	pop	{r4, r5, r6, pc}
    2d8e:	f64f 72ff 	movw	r2, #65535	; 0xffff
    2d92:	f000 fb2d 	bl	33f0 <rt_mbx_send>
    2d96:	2801      	cmp	r0, #1
    2d98:	d1ef      	bne.n	2d7a <svcMessagePut+0x32>
    2d9a:	e7f4      	b.n	2d86 <svcMessagePut+0x3e>
    2d9c:	003d0900 	.word	0x003d0900

00002da0 <svcMessageGet>:
    2da0:	e92d 4ff0 	stmdb	sp!, {r4, r5, r6, r7, r8, r9, r10, r11, lr}
    2da4:	460c      	mov	r4, r1
    2da6:	b085      	sub	sp, #20
    2da8:	4680      	mov	r8, r0
    2daa:	b348      	cbz	r0, 2e00 <svcMessageGet+0x60>
    2dac:	7803      	ldrb	r3, [r0, #0]
    2dae:	2b01      	cmp	r3, #1
    2db0:	d00a      	beq.n	2dc8 <svcMessageGet+0x28>
    2db2:	2500      	movs	r5, #0
    2db4:	2480      	movs	r4, #128	; 0x80
    2db6:	462e      	mov	r6, r5
    2db8:	462f      	mov	r7, r5
    2dba:	463b      	mov	r3, r7
    2dbc:	4620      	mov	r0, r4
    2dbe:	4629      	mov	r1, r5
    2dc0:	4632      	mov	r2, r6
    2dc2:	b005      	add	sp, #20
    2dc4:	e8bd 8ff0 	ldmia.w	sp!, {r4, r5, r6, r7, r8, r9, r10, r11, pc}
    2dc8:	1c4b      	adds	r3, r1, #1
    2dca:	d024      	beq.n	2e16 <svcMessageGet+0x76>
    2dcc:	4b16      	ldr	r3, [pc, #88]	; (2e28 <svcMessageGet+0x88>)
    2dce:	4299      	cmp	r1, r3
    2dd0:	d911      	bls.n	2df6 <svcMessageGet+0x56>
    2dd2:	f64f 72fe 	movw	r2, #65534	; 0xfffe
    2dd6:	4640      	mov	r0, r8
    2dd8:	a902      	add	r1, sp, #8
    2dda:	f000 fb59 	bl	3490 <rt_mbx_wait>
    2dde:	2801      	cmp	r0, #1
    2de0:	d013      	beq.n	2e0a <svcMessageGet+0x6a>
    2de2:	2000      	movs	r0, #0
    2de4:	4602      	mov	r2, r0
    2de6:	4603      	mov	r3, r0
    2de8:	2010      	movs	r0, #16
    2dea:	9902      	ldr	r1, [sp, #8]
    2dec:	4604      	mov	r4, r0
    2dee:	460d      	mov	r5, r1
    2df0:	4616      	mov	r6, r2
    2df2:	461f      	mov	r7, r3
    2df4:	e7e1      	b.n	2dba <svcMessageGet+0x1a>
    2df6:	4608      	mov	r0, r1
    2df8:	f7ff fd6e 	bl	28d8 <rt_ms2tick.part.0>
    2dfc:	b282      	uxth	r2, r0
    2dfe:	e7ea      	b.n	2dd6 <svcMessageGet+0x36>
    2e00:	2480      	movs	r4, #128	; 0x80
    2e02:	4605      	mov	r5, r0
    2e04:	4606      	mov	r6, r0
    2e06:	4607      	mov	r7, r0
    2e08:	e7d7      	b.n	2dba <svcMessageGet+0x1a>
    2e0a:	b95c      	cbnz	r4, 2e24 <svcMessageGet+0x84>
    2e0c:	2000      	movs	r0, #0
    2e0e:	4602      	mov	r2, r0
    2e10:	4603      	mov	r3, r0
    2e12:	4620      	mov	r0, r4
    2e14:	e7e9      	b.n	2dea <svcMessageGet+0x4a>
    2e16:	a902      	add	r1, sp, #8
    2e18:	f64f 72ff 	movw	r2, #65535	; 0xffff
    2e1c:	f000 fb38 	bl	3490 <rt_mbx_wait>
    2e20:	2801      	cmp	r0, #1
    2e22:	d1de      	bne.n	2de2 <svcMessageGet+0x42>
    2e24:	2440      	movs	r4, #64	; 0x40
    2e26:	e7f1      	b.n	2e0c <svcMessageGet+0x6c>
    2e28:	003d0900 	.word	0x003d0900

00002e2c <osMessageCreate>:
    2e2c:	b510      	push	{r4, lr}
    2e2e:	f3ef 8405 	mrs	r4, IPSR
    2e32:	b974      	cbnz	r4, 2e52 <osMessageCreate+0x26>
    2e34:	f3ef 8414 	mrs	r4, CONTROL
    2e38:	07e4      	lsls	r4, r4, #31
    2e3a:	d402      	bmi.n	2e42 <osMessageCreate+0x16>
    2e3c:	4c06      	ldr	r4, [pc, #24]	; (2e58 <osMessageCreate+0x2c>)
    2e3e:	7824      	ldrb	r4, [r4, #0]
    2e40:	b11c      	cbz	r4, 2e4a <osMessageCreate+0x1e>
    2e42:	f8df c018 	ldr.w	r12, [pc, #24]	; 2e5c <osMessageCreate+0x30>
    2e46:	df00      	svc	0
    2e48:	bd10      	pop	{r4, pc}
    2e4a:	e8bd 4010 	ldmia.w	sp!, {r4, lr}
    2e4e:	f7ff bf35 	b.w	2cbc <svcMessageCreate>
    2e52:	2000      	movs	r0, #0
    2e54:	bd10      	pop	{r4, pc}
    2e56:	bf00      	nop
    2e58:	100004a1 	.word	0x100004a1
    2e5c:	00002cbd 	.word	0x00002cbd

00002e60 <osMessagePut>:
    2e60:	b510      	push	{r4, lr}
    2e62:	4604      	mov	r4, r0
    2e64:	b082      	sub	sp, #8
    2e66:	f3ef 8005 	mrs	r0, IPSR
    2e6a:	b928      	cbnz	r0, 2e78 <osMessagePut+0x18>
    2e6c:	4620      	mov	r0, r4
    2e6e:	f8df c038 	ldr.w	r12, [pc, #56]	; 2ea8 <osMessagePut+0x48>
    2e72:	df00      	svc	0
    2e74:	b002      	add	sp, #8
    2e76:	bd10      	pop	{r4, pc}
    2e78:	b11c      	cbz	r4, 2e82 <osMessagePut+0x22>
    2e7a:	b912      	cbnz	r2, 2e82 <osMessagePut+0x22>
    2e7c:	7823      	ldrb	r3, [r4, #0]
    2e7e:	2b01      	cmp	r3, #1
    2e80:	d002      	beq.n	2e88 <osMessagePut+0x28>
    2e82:	2080      	movs	r0, #128	; 0x80
    2e84:	b002      	add	sp, #8
    2e86:	bd10      	pop	{r4, pc}
    2e88:	4620      	mov	r0, r4
    2e8a:	9101      	str	r1, [sp, #4]
    2e8c:	9200      	str	r2, [sp, #0]
    2e8e:	f000 fb55 	bl	353c <rt_mbx_check>
    2e92:	9901      	ldr	r1, [sp, #4]
    2e94:	b908      	cbnz	r0, 2e9a <osMessagePut+0x3a>
    2e96:	2081      	movs	r0, #129	; 0x81
    2e98:	e7ec      	b.n	2e74 <osMessagePut+0x14>
    2e9a:	4620      	mov	r0, r4
    2e9c:	f000 fb52 	bl	3544 <isr_mbx_send>
    2ea0:	9a00      	ldr	r2, [sp, #0]
    2ea2:	4610      	mov	r0, r2
    2ea4:	e7e6      	b.n	2e74 <osMessagePut+0x14>
    2ea6:	0000      	.short	0x0000
    2ea8:	00002d49 	.word	0x00002d49

00002eac <osMessageGet>:
    2eac:	b570      	push	{r4, r5, r6, lr}
    2eae:	4604      	mov	r4, r0
    2eb0:	b084      	sub	sp, #16
    2eb2:	4616      	mov	r6, r2
    2eb4:	f3ef 8505 	mrs	r5, IPSR
    2eb8:	b94d      	cbnz	r5, 2ece <osMessageGet+0x22>
    2eba:	4608      	mov	r0, r1
    2ebc:	4611      	mov	r1, r2
    2ebe:	f8df c050 	ldr.w	r12, [pc, #80]	; 2f10 <osMessageGet+0x64>
    2ec2:	df00      	svc	0
    2ec4:	e884 0007 	stmia.w	r4, {r0, r1, r2}
    2ec8:	4620      	mov	r0, r4
    2eca:	b004      	add	sp, #16
    2ecc:	bd70      	pop	{r4, r5, r6, pc}
    2ece:	b119      	cbz	r1, 2ed8 <osMessageGet+0x2c>
    2ed0:	b912      	cbnz	r2, 2ed8 <osMessageGet+0x2c>
    2ed2:	780b      	ldrb	r3, [r1, #0]
    2ed4:	2b01      	cmp	r3, #1
    2ed6:	d00a      	beq.n	2eee <osMessageGet+0x42>
    2ed8:	ab04      	add	r3, sp, #16
    2eda:	2280      	movs	r2, #128	; 0x80
    2edc:	f843 2d0c 	str.w	r2, [r3, #-12]!
    2ee0:	e893 0007 	ldmia.w	r3, {r0, r1, r2}
    2ee4:	e884 0007 	stmia.w	r4, {r0, r1, r2}
    2ee8:	4620      	mov	r0, r4
    2eea:	b004      	add	sp, #16
    2eec:	bd70      	pop	{r4, r5, r6, pc}
    2eee:	4608      	mov	r0, r1
    2ef0:	a902      	add	r1, sp, #8
    2ef2:	f000 fb2f 	bl	3554 <isr_mbx_receive>
    2ef6:	2804      	cmp	r0, #4
    2ef8:	bf08      	it	eq
    2efa:	2310      	moveq	r3, #16
    2efc:	ad01      	add	r5, sp, #4
    2efe:	bf14      	ite	ne
    2f00:	9601      	strne	r6, [sp, #4]
    2f02:	9301      	streq	r3, [sp, #4]
    2f04:	e895 0007 	ldmia.w	r5, {r0, r1, r2}
    2f08:	e884 0007 	stmia.w	r4, {r0, r1, r2}
    2f0c:	e7dc      	b.n	2ec8 <osMessageGet+0x1c>
    2f0e:	0000      	.short	0x0000
    2f10:	00002da1 	.word	0x00002da1

00002f14 <osTimerThread>:
    2f14:	b500      	push	{lr}
    2f16:	4c0a      	ldr	r4, [pc, #40]	; (2f40 <osTimerThread+0x2c>)
    2f18:	b085      	sub	sp, #20
    2f1a:	a801      	add	r0, sp, #4
    2f1c:	6821      	ldr	r1, [r4, #0]
    2f1e:	f04f 32ff 	mov.w	r2, #4294967295	; 0xffffffff
    2f22:	f7ff ffc3 	bl	2eac <osMessageGet>
    2f26:	9801      	ldr	r0, [sp, #4]
    2f28:	2810      	cmp	r0, #16
    2f2a:	d1f6      	bne.n	2f1a <osTimerThread+0x6>
    2f2c:	9802      	ldr	r0, [sp, #8]
    2f2e:	f8df c014 	ldr.w	r12, [pc, #20]	; 2f44 <osTimerThread+0x30>
    2f32:	df00      	svc	0
    2f34:	4603      	mov	r3, r0
    2f36:	2800      	cmp	r0, #0
    2f38:	d0ef      	beq.n	2f1a <osTimerThread+0x6>
    2f3a:	4608      	mov	r0, r1
    2f3c:	4798      	blx	r3
    2f3e:	e7ec      	b.n	2f1a <osTimerThread+0x6>
    2f40:	100007f8 	.word	0x100007f8
    2f44:	00002b05 	.word	0x00002b05

00002f48 <svcMailCreate>:
    2f48:	b538      	push	{r3, r4, r5, lr}
    2f4a:	4604      	mov	r4, r0
    2f4c:	b1e0      	cbz	r0, 2f88 <svcMailCreate+0x40>
    2f4e:	6801      	ldr	r1, [r0, #0]
    2f50:	b1d1      	cbz	r1, 2f88 <svcMailCreate+0x40>
    2f52:	6842      	ldr	r2, [r0, #4]
    2f54:	b1c2      	cbz	r2, 2f88 <svcMailCreate+0x40>
    2f56:	6883      	ldr	r3, [r0, #8]
    2f58:	b1b3      	cbz	r3, 2f88 <svcMailCreate+0x40>
    2f5a:	6858      	ldr	r0, [r3, #4]
    2f5c:	681d      	ldr	r5, [r3, #0]
    2f5e:	b198      	cbz	r0, 2f88 <svcMailCreate+0x40>
    2f60:	b195      	cbz	r5, 2f88 <svcMailCreate+0x40>
    2f62:	782b      	ldrb	r3, [r5, #0]
    2f64:	b983      	cbnz	r3, 2f88 <svcMailCreate+0x40>
    2f66:	3203      	adds	r2, #3
    2f68:	f022 0203 	bic.w	r2, r2, #3
    2f6c:	fb01 f102 	mul.w	r1, r1, r2
    2f70:	310c      	adds	r1, #12
    2f72:	f000 fb89 	bl	3688 <_init_box>
    2f76:	6821      	ldr	r1, [r4, #0]
    2f78:	4628      	mov	r0, r5
    2f7a:	3104      	adds	r1, #4
    2f7c:	0089      	lsls	r1, r1, #2
    2f7e:	b289      	uxth	r1, r1
    2f80:	f000 fa28 	bl	33d4 <rt_mbx_init>
    2f84:	68a0      	ldr	r0, [r4, #8]
    2f86:	bd38      	pop	{r3, r4, r5, pc}
    2f88:	2080      	movs	r0, #128	; 0x80
    2f8a:	f001 f83f 	bl	400c <sysThreadError>
    2f8e:	2000      	movs	r0, #0
    2f90:	bd38      	pop	{r3, r4, r5, pc}
    2f92:	bf00      	nop

00002f94 <sysMailAlloc>:
    2f94:	b5f8      	push	{r3, r4, r5, r6, r7, lr}
    2f96:	460e      	mov	r6, r1
    2f98:	461f      	mov	r7, r3
    2f9a:	b348      	cbz	r0, 2ff0 <sysMailAlloc+0x5c>
    2f9c:	6844      	ldr	r4, [r0, #4]
    2f9e:	6805      	ldr	r5, [r0, #0]
    2fa0:	b334      	cbz	r4, 2ff0 <sysMailAlloc+0x5c>
    2fa2:	b32d      	cbz	r5, 2ff0 <sysMailAlloc+0x5c>
    2fa4:	b102      	cbz	r2, 2fa8 <sysMailAlloc+0x14>
    2fa6:	bb19      	cbnz	r1, 2ff0 <sysMailAlloc+0x5c>
    2fa8:	4620      	mov	r0, r4
    2faa:	f000 fb99 	bl	36e0 <rt_alloc_box>
    2fae:	b14f      	cbz	r7, 2fc4 <sysMailAlloc+0x30>
    2fb0:	b150      	cbz	r0, 2fc8 <sysMailAlloc+0x34>
    2fb2:	68a3      	ldr	r3, [r4, #8]
    2fb4:	b13b      	cbz	r3, 2fc6 <sysMailAlloc+0x32>
    2fb6:	4602      	mov	r2, r0
    2fb8:	2100      	movs	r1, #0
    2fba:	3b04      	subs	r3, #4
    2fbc:	f842 1b04 	str.w	r1, [r2], #4
    2fc0:	d1fb      	bne.n	2fba <sysMailAlloc+0x26>
    2fc2:	bdf8      	pop	{r3, r4, r5, r6, r7, pc}
    2fc4:	b100      	cbz	r0, 2fc8 <sysMailAlloc+0x34>
    2fc6:	bdf8      	pop	{r3, r4, r5, r6, r7, pc}
    2fc8:	b196      	cbz	r6, 2ff0 <sysMailAlloc+0x5c>
    2fca:	686b      	ldr	r3, [r5, #4]
    2fcc:	b193      	cbz	r3, 2ff4 <sysMailAlloc+0x60>
    2fce:	4b10      	ldr	r3, [pc, #64]	; (3010 <sysMailAlloc+0x7c>)
    2fd0:	4628      	mov	r0, r5
    2fd2:	6819      	ldr	r1, [r3, #0]
    2fd4:	f000 f8da 	bl	318c <rt_put_prio>
    2fd8:	1c73      	adds	r3, r6, #1
    2fda:	d016      	beq.n	300a <sysMailAlloc+0x76>
    2fdc:	4b0d      	ldr	r3, [pc, #52]	; (3014 <sysMailAlloc+0x80>)
    2fde:	429e      	cmp	r6, r3
    2fe0:	d810      	bhi.n	3004 <sysMailAlloc+0x70>
    2fe2:	4630      	mov	r0, r6
    2fe4:	f7ff fc78 	bl	28d8 <rt_ms2tick.part.0>
    2fe8:	b280      	uxth	r0, r0
    2fea:	2108      	movs	r1, #8
    2fec:	f000 fd92 	bl	3b14 <rt_block>
    2ff0:	2000      	movs	r0, #0
    2ff2:	bdf8      	pop	{r3, r4, r5, r6, r7, pc}
    2ff4:	4a06      	ldr	r2, [pc, #24]	; (3010 <sysMailAlloc+0x7c>)
    2ff6:	2103      	movs	r1, #3
    2ff8:	6812      	ldr	r2, [r2, #0]
    2ffa:	606a      	str	r2, [r5, #4]
    2ffc:	6053      	str	r3, [r2, #4]
    2ffe:	6095      	str	r5, [r2, #8]
    3000:	7069      	strb	r1, [r5, #1]
    3002:	e7e9      	b.n	2fd8 <sysMailAlloc+0x44>
    3004:	f64f 70fe 	movw	r0, #65534	; 0xfffe
    3008:	e7ef      	b.n	2fea <sysMailAlloc+0x56>
    300a:	f64f 70ff 	movw	r0, #65535	; 0xffff
    300e:	e7ec      	b.n	2fea <sysMailAlloc+0x56>
    3010:	100004dc 	.word	0x100004dc
    3014:	003d0900 	.word	0x003d0900

00003018 <sysMailFree>:
    3018:	b5f8      	push	{r3, r4, r5, r6, r7, lr}
    301a:	4616      	mov	r6, r2
    301c:	b150      	cbz	r0, 3034 <sysMailFree+0x1c>
    301e:	e890 0030 	ldmia.w	r0, {r4, r5}
    3022:	b13c      	cbz	r4, 3034 <sysMailFree+0x1c>
    3024:	b135      	cbz	r5, 3034 <sysMailFree+0x1c>
    3026:	4628      	mov	r0, r5
    3028:	f000 fb68 	bl	36fc <rt_free_box>
    302c:	4607      	mov	r7, r0
    302e:	b118      	cbz	r0, 3038 <sysMailFree+0x20>
    3030:	2086      	movs	r0, #134	; 0x86
    3032:	bdf8      	pop	{r3, r4, r5, r6, r7, pc}
    3034:	2080      	movs	r0, #128	; 0x80
    3036:	bdf8      	pop	{r3, r4, r5, r6, r7, pc}
    3038:	7863      	ldrb	r3, [r4, #1]
    303a:	2b03      	cmp	r3, #3
    303c:	d001      	beq.n	3042 <sysMailFree+0x2a>
    303e:	2000      	movs	r0, #0
    3040:	bdf8      	pop	{r3, r4, r5, r6, r7, pc}
    3042:	b9b6      	cbnz	r6, 3072 <sysMailFree+0x5a>
    3044:	4628      	mov	r0, r5
    3046:	f000 fb4b 	bl	36e0 <rt_alloc_box>
    304a:	4606      	mov	r6, r0
    304c:	2800      	cmp	r0, #0
    304e:	d0f6      	beq.n	303e <sysMailFree+0x26>
    3050:	4620      	mov	r0, r4
    3052:	f000 f8c5 	bl	31e0 <rt_get_first>
    3056:	6863      	ldr	r3, [r4, #4]
    3058:	4605      	mov	r5, r0
    305a:	b193      	cbz	r3, 3082 <sysMailFree+0x6a>
    305c:	4631      	mov	r1, r6
    305e:	4628      	mov	r0, r5
    3060:	f000 ffc8 	bl	3ff4 <rt_ret_val>
    3064:	4628      	mov	r0, r5
    3066:	f000 f97f 	bl	3368 <rt_rmv_dly>
    306a:	4628      	mov	r0, r5
    306c:	f000 fd30 	bl	3ad0 <rt_dispatch>
    3070:	e7e5      	b.n	303e <sysMailFree+0x26>
    3072:	4620      	mov	r0, r4
    3074:	4629      	mov	r1, r5
    3076:	f000 f98b 	bl	3390 <rt_psq_enq>
    307a:	f000 fc45 	bl	3908 <rt_psh_req>
    307e:	4638      	mov	r0, r7
    3080:	bdf8      	pop	{r3, r4, r5, r6, r7, pc}
    3082:	7063      	strb	r3, [r4, #1]
    3084:	e7ea      	b.n	305c <sysMailFree+0x44>
    3086:	bf00      	nop

00003088 <osMailCreate>:
    3088:	b510      	push	{r4, lr}
    308a:	f3ef 8405 	mrs	r4, IPSR
    308e:	b974      	cbnz	r4, 30ae <osMailCreate+0x26>
    3090:	f3ef 8414 	mrs	r4, CONTROL
    3094:	07e4      	lsls	r4, r4, #31
    3096:	d402      	bmi.n	309e <osMailCreate+0x16>
    3098:	4c06      	ldr	r4, [pc, #24]	; (30b4 <osMailCreate+0x2c>)
    309a:	7824      	ldrb	r4, [r4, #0]
    309c:	b11c      	cbz	r4, 30a6 <osMailCreate+0x1e>
    309e:	f8df c018 	ldr.w	r12, [pc, #24]	; 30b8 <osMailCreate+0x30>
    30a2:	df00      	svc	0
    30a4:	bd10      	pop	{r4, pc}
    30a6:	e8bd 4010 	ldmia.w	sp!, {r4, lr}
    30aa:	f7ff bf4d 	b.w	2f48 <svcMailCreate>
    30ae:	2000      	movs	r0, #0
    30b0:	bd10      	pop	{r4, pc}
    30b2:	bf00      	nop
    30b4:	100004a1 	.word	0x100004a1
    30b8:	00002f49 	.word	0x00002f49

000030bc <osMailAlloc>:
    30bc:	b500      	push	{lr}
    30be:	f3ef 8205 	mrs	r2, IPSR
    30c2:	b92a      	cbnz	r2, 30d0 <osMailAlloc+0x14>
    30c4:	4613      	mov	r3, r2
    30c6:	f8df c014 	ldr.w	r12, [pc, #20]	; 30dc <osMailAlloc+0x20>
    30ca:	df00      	svc	0
    30cc:	f85d fb04 	ldr.w	pc, [sp], #4
    30d0:	2201      	movs	r2, #1
    30d2:	2300      	movs	r3, #0
    30d4:	f85d eb04 	ldr.w	lr, [sp], #4
    30d8:	f7ff bf5c 	b.w	2f94 <sysMailAlloc>
    30dc:	00002f95 	.word	0x00002f95

000030e0 <osMailFree>:
    30e0:	b500      	push	{lr}
    30e2:	f3ef 8205 	mrs	r2, IPSR
    30e6:	b922      	cbnz	r2, 30f2 <osMailFree+0x12>
    30e8:	f8df c010 	ldr.w	r12, [pc, #16]	; 30fc <osMailFree+0x1c>
    30ec:	df00      	svc	0
    30ee:	f85d fb04 	ldr.w	pc, [sp], #4
    30f2:	2201      	movs	r2, #1
    30f4:	f85d eb04 	ldr.w	lr, [sp], #4
    30f8:	f7ff bf8e 	b.w	3018 <sysMailFree>
    30fc:	00003019 	.word	0x00003019

00003100 <osMailPut>:
    3100:	b130      	cbz	r0, 3110 <osMailPut+0x10>
    3102:	b119      	cbz	r1, 310c <osMailPut+0xc>
    3104:	6800      	ldr	r0, [r0, #0]
    3106:	2200      	movs	r2, #0
    3108:	f7ff beaa 	b.w	2e60 <osMessagePut>
    310c:	2086      	movs	r0, #134	; 0x86
    310e:	4770      	bx	lr
    3110:	2080      	movs	r0, #128	; 0x80
    3112:	4770      	bx	lr

00003114 <osMailGet>:
    3114:	b510      	push	{r4, lr}
    3116:	4604      	mov	r4, r0
    3118:	b149      	cbz	r1, 312e <osMailGet+0x1a>
    311a:	6809      	ldr	r1, [r1, #0]
    311c:	f7ff fec6 	bl	2eac <osMessageGet>
    3120:	6823      	ldr	r3, [r4, #0]
    3122:	4620      	mov	r0, r4
    3124:	2b10      	cmp	r3, #16
    3126:	bf08      	it	eq
    3128:	2320      	moveq	r3, #32
    312a:	6023      	str	r3, [r4, #0]
    312c:	bd10      	pop	{r4, pc}
    312e:	2380      	movs	r3, #128	; 0x80
    3130:	6003      	str	r3, [r0, #0]
    3132:	4620      	mov	r0, r4
    3134:	bd10      	pop	{r4, pc}
    3136:	bf00      	nop

00003138 <rt_evt_psh>:
    3138:	b510      	push	{r4, lr}
    313a:	8b02      	ldrh	r2, [r0, #24]
    313c:	7843      	ldrb	r3, [r0, #1]
    313e:	4311      	orrs	r1, r2
    3140:	2b06      	cmp	r3, #6
    3142:	4604      	mov	r4, r0
    3144:	8301      	strh	r1, [r0, #24]
    3146:	8b42      	ldrh	r2, [r0, #26]
    3148:	d019      	beq.n	317e <rt_evt_psh+0x46>
    314a:	2b05      	cmp	r3, #5
    314c:	d000      	beq.n	3150 <rt_evt_psh+0x18>
    314e:	bd10      	pop	{r4, pc}
    3150:	ea11 0302 	ands.w	r3, r1, r2
    3154:	d0fb      	beq.n	314e <rt_evt_psh+0x16>
    3156:	8343      	strh	r3, [r0, #26]
    3158:	ea21 0102 	bic.w	r1, r1, r2
    315c:	8321      	strh	r1, [r4, #24]
    315e:	4620      	mov	r0, r4
    3160:	f000 f902 	bl	3368 <rt_rmv_dly>
    3164:	2301      	movs	r3, #1
    3166:	4620      	mov	r0, r4
    3168:	7063      	strb	r3, [r4, #1]
    316a:	2108      	movs	r1, #8
    316c:	8b62      	ldrh	r2, [r4, #26]
    316e:	f000 ff45 	bl	3ffc <rt_ret_val2>
    3172:	4621      	mov	r1, r4
    3174:	4804      	ldr	r0, [pc, #16]	; (3188 <rt_evt_psh+0x50>)
    3176:	e8bd 4010 	ldmia.w	sp!, {r4, lr}
    317a:	f000 b807 	b.w	318c <rt_put_prio>
    317e:	ea01 0302 	and.w	r3, r1, r2
    3182:	4293      	cmp	r3, r2
    3184:	d0e8      	beq.n	3158 <rt_evt_psh+0x20>
    3186:	bd10      	pop	{r4, pc}
    3188:	100004a8 	.word	0x100004a8

0000318c <rt_put_prio>:
    318c:	b470      	push	{r4, r5, r6}
    318e:	7803      	ldrb	r3, [r0, #0]
    3190:	6842      	ldr	r2, [r0, #4]
    3192:	3b01      	subs	r3, #1
    3194:	2b02      	cmp	r3, #2
    3196:	bf8c      	ite	hi
    3198:	2600      	movhi	r6, #0
    319a:	2601      	movls	r6, #1
    319c:	788c      	ldrb	r4, [r1, #2]
    319e:	b1e2      	cbz	r2, 31da <rt_put_prio+0x4e>
    31a0:	7895      	ldrb	r5, [r2, #2]
    31a2:	42a5      	cmp	r5, r4
    31a4:	d204      	bcs.n	31b0 <rt_put_prio+0x24>
    31a6:	e00e      	b.n	31c6 <rt_put_prio+0x3a>
    31a8:	7898      	ldrb	r0, [r3, #2]
    31aa:	42a0      	cmp	r0, r4
    31ac:	d30d      	bcc.n	31ca <rt_put_prio+0x3e>
    31ae:	461a      	mov	r2, r3
    31b0:	6853      	ldr	r3, [r2, #4]
    31b2:	2b00      	cmp	r3, #0
    31b4:	d1f8      	bne.n	31a8 <rt_put_prio+0x1c>
    31b6:	2300      	movs	r3, #0
    31b8:	604b      	str	r3, [r1, #4]
    31ba:	6051      	str	r1, [r2, #4]
    31bc:	b956      	cbnz	r6, 31d4 <rt_put_prio+0x48>
    31be:	2300      	movs	r3, #0
    31c0:	608b      	str	r3, [r1, #8]
    31c2:	bc70      	pop	{r4, r5, r6}
    31c4:	4770      	bx	lr
    31c6:	4613      	mov	r3, r2
    31c8:	4602      	mov	r2, r0
    31ca:	604b      	str	r3, [r1, #4]
    31cc:	6051      	str	r1, [r2, #4]
    31ce:	2e00      	cmp	r6, #0
    31d0:	d0f5      	beq.n	31be <rt_put_prio+0x32>
    31d2:	6099      	str	r1, [r3, #8]
    31d4:	608a      	str	r2, [r1, #8]
    31d6:	bc70      	pop	{r4, r5, r6}
    31d8:	4770      	bx	lr
    31da:	4602      	mov	r2, r0
    31dc:	e7eb      	b.n	31b6 <rt_put_prio+0x2a>
    31de:	bf00      	nop

000031e0 <rt_get_first>:
    31e0:	6843      	ldr	r3, [r0, #4]
    31e2:	7801      	ldrb	r1, [r0, #0]
    31e4:	685a      	ldr	r2, [r3, #4]
    31e6:	3901      	subs	r1, #1
    31e8:	2902      	cmp	r1, #2
    31ea:	6042      	str	r2, [r0, #4]
    31ec:	d807      	bhi.n	31fe <rt_get_first+0x1e>
    31ee:	b112      	cbz	r2, 31f6 <rt_get_first+0x16>
    31f0:	2100      	movs	r1, #0
    31f2:	6090      	str	r0, [r2, #8]
    31f4:	6059      	str	r1, [r3, #4]
    31f6:	2200      	movs	r2, #0
    31f8:	609a      	str	r2, [r3, #8]
    31fa:	4618      	mov	r0, r3
    31fc:	4770      	bx	lr
    31fe:	2200      	movs	r2, #0
    3200:	605a      	str	r2, [r3, #4]
    3202:	4618      	mov	r0, r3
    3204:	4770      	bx	lr
    3206:	bf00      	nop

00003208 <rt_put_rdy_first>:
    3208:	4b03      	ldr	r3, [pc, #12]	; (3218 <rt_put_rdy_first+0x10>)
    320a:	2100      	movs	r1, #0
    320c:	685a      	ldr	r2, [r3, #4]
    320e:	6081      	str	r1, [r0, #8]
    3210:	6042      	str	r2, [r0, #4]
    3212:	6058      	str	r0, [r3, #4]
    3214:	4770      	bx	lr
    3216:	bf00      	nop
    3218:	100004a8 	.word	0x100004a8

0000321c <rt_put_dly>:
    321c:	b430      	push	{r4, r5}
    321e:	4c16      	ldr	r4, [pc, #88]	; (3278 <rt_put_dly+0x5c>)
    3220:	68e3      	ldr	r3, [r4, #12]
    3222:	b31b      	cbz	r3, 326c <rt_put_dly+0x50>
    3224:	8aa2      	ldrh	r2, [r4, #20]
    3226:	4291      	cmp	r1, r2
    3228:	d803      	bhi.n	3232 <rt_put_dly+0x16>
    322a:	e022      	b.n	3272 <rt_put_dly+0x56>
    322c:	68dc      	ldr	r4, [r3, #12]
    322e:	b19c      	cbz	r4, 3258 <rt_put_dly+0x3c>
    3230:	4623      	mov	r3, r4
    3232:	8a9c      	ldrh	r4, [r3, #20]
    3234:	4422      	add	r2, r4
    3236:	4291      	cmp	r1, r2
    3238:	d8f8      	bhi.n	322c <rt_put_dly+0x10>
    323a:	68dd      	ldr	r5, [r3, #12]
    323c:	60c5      	str	r5, [r0, #12]
    323e:	60d8      	str	r0, [r3, #12]
    3240:	68c4      	ldr	r4, [r0, #12]
    3242:	6103      	str	r3, [r0, #16]
    3244:	b104      	cbz	r4, 3248 <rt_put_dly+0x2c>
    3246:	6120      	str	r0, [r4, #16]
    3248:	1a52      	subs	r2, r2, r1
    324a:	b292      	uxth	r2, r2
    324c:	8282      	strh	r2, [r0, #20]
    324e:	8a99      	ldrh	r1, [r3, #20]
    3250:	bc30      	pop	{r4, r5}
    3252:	1a8a      	subs	r2, r1, r2
    3254:	829a      	strh	r2, [r3, #20]
    3256:	4770      	bx	lr
    3258:	b292      	uxth	r2, r2
    325a:	2400      	movs	r4, #0
    325c:	1a89      	subs	r1, r1, r2
    325e:	60c4      	str	r4, [r0, #12]
    3260:	60d8      	str	r0, [r3, #12]
    3262:	6103      	str	r3, [r0, #16]
    3264:	8299      	strh	r1, [r3, #20]
    3266:	8284      	strh	r4, [r0, #20]
    3268:	bc30      	pop	{r4, r5}
    326a:	4770      	bx	lr
    326c:	461a      	mov	r2, r3
    326e:	4623      	mov	r3, r4
    3270:	e7f3      	b.n	325a <rt_put_dly+0x3e>
    3272:	461d      	mov	r5, r3
    3274:	4623      	mov	r3, r4
    3276:	e7e1      	b.n	323c <rt_put_dly+0x20>
    3278:	100004c0 	.word	0x100004c0

0000327c <rt_dec_dly>:
    327c:	b5f8      	push	{r3, r4, r5, r6, r7, lr}
    327e:	4d1d      	ldr	r5, [pc, #116]	; (32f4 <rt_dec_dly+0x78>)
    3280:	68ec      	ldr	r4, [r5, #12]
    3282:	2c00      	cmp	r4, #0
    3284:	d034      	beq.n	32f0 <rt_dec_dly+0x74>
    3286:	8aab      	ldrh	r3, [r5, #20]
    3288:	3b01      	subs	r3, #1
    328a:	b29b      	uxth	r3, r3
    328c:	82ab      	strh	r3, [r5, #20]
    328e:	2b00      	cmp	r3, #0
    3290:	d12e      	bne.n	32f0 <rt_dec_dly+0x74>
    3292:	4f19      	ldr	r7, [pc, #100]	; (32f8 <rt_dec_dly+0x7c>)
    3294:	462e      	mov	r6, r5
    3296:	e008      	b.n	32aa <rt_dec_dly+0x2e>
    3298:	68e3      	ldr	r3, [r4, #12]
    329a:	7060      	strb	r0, [r4, #1]
    329c:	60eb      	str	r3, [r5, #12]
    329e:	b333      	cbz	r3, 32ee <rt_dec_dly+0x72>
    32a0:	611e      	str	r6, [r3, #16]
    32a2:	60e1      	str	r1, [r4, #12]
    32a4:	6121      	str	r1, [r4, #16]
    32a6:	bb1a      	cbnz	r2, 32f0 <rt_dec_dly+0x74>
    32a8:	461c      	mov	r4, r3
    32aa:	68a3      	ldr	r3, [r4, #8]
    32ac:	4621      	mov	r1, r4
    32ae:	4813      	ldr	r0, [pc, #76]	; (32fc <rt_dec_dly+0x80>)
    32b0:	f04f 0e00 	mov.w	lr, #0
    32b4:	b143      	cbz	r3, 32c8 <rt_dec_dly+0x4c>
    32b6:	6862      	ldr	r2, [r4, #4]
    32b8:	605a      	str	r2, [r3, #4]
    32ba:	6862      	ldr	r2, [r4, #4]
    32bc:	b112      	cbz	r2, 32c4 <rt_dec_dly+0x48>
    32be:	6093      	str	r3, [r2, #8]
    32c0:	f8c4 e004 	str.w	lr, [r4, #4]
    32c4:	f8c4 e008 	str.w	lr, [r4, #8]
    32c8:	f7ff ff60 	bl	318c <rt_put_prio>
    32cc:	8aa2      	ldrh	r2, [r4, #20]
    32ce:	2001      	movs	r0, #1
    32d0:	82aa      	strh	r2, [r5, #20]
    32d2:	7863      	ldrb	r3, [r4, #1]
    32d4:	2100      	movs	r1, #0
    32d6:	2b04      	cmp	r3, #4
    32d8:	d1de      	bne.n	3298 <rt_dec_dly+0x1c>
    32da:	683b      	ldr	r3, [r7, #0]
    32dc:	f8b4 c016 	ldrh.w	r12, [r4, #22]
    32e0:	7060      	strb	r0, [r4, #1]
    32e2:	4463      	add	r3, r12
    32e4:	82a3      	strh	r3, [r4, #20]
    32e6:	68e3      	ldr	r3, [r4, #12]
    32e8:	60eb      	str	r3, [r5, #12]
    32ea:	2b00      	cmp	r3, #0
    32ec:	d1d8      	bne.n	32a0 <rt_dec_dly+0x24>
    32ee:	6123      	str	r3, [r4, #16]
    32f0:	bdf8      	pop	{r3, r4, r5, r6, r7, pc}
    32f2:	bf00      	nop
    32f4:	100004c0 	.word	0x100004c0
    32f8:	10000514 	.word	0x10000514
    32fc:	100004a8 	.word	0x100004a8

00003300 <rt_rmv_list>:
    3300:	6883      	ldr	r3, [r0, #8]
    3302:	b133      	cbz	r3, 3312 <rt_rmv_list+0x12>
    3304:	6842      	ldr	r2, [r0, #4]
    3306:	605a      	str	r2, [r3, #4]
    3308:	6842      	ldr	r2, [r0, #4]
    330a:	b10a      	cbz	r2, 3310 <rt_rmv_list+0x10>
    330c:	6093      	str	r3, [r2, #8]
    330e:	4770      	bx	lr
    3310:	4770      	bx	lr
    3312:	4a07      	ldr	r2, [pc, #28]	; (3330 <rt_rmv_list+0x30>)
    3314:	6853      	ldr	r3, [r2, #4]
    3316:	4283      	cmp	r3, r0
    3318:	d005      	beq.n	3326 <rt_rmv_list+0x26>
    331a:	b143      	cbz	r3, 332e <rt_rmv_list+0x2e>
    331c:	685a      	ldr	r2, [r3, #4]
    331e:	4282      	cmp	r2, r0
    3320:	d002      	beq.n	3328 <rt_rmv_list+0x28>
    3322:	4613      	mov	r3, r2
    3324:	e7f9      	b.n	331a <rt_rmv_list+0x1a>
    3326:	4613      	mov	r3, r2
    3328:	6842      	ldr	r2, [r0, #4]
    332a:	605a      	str	r2, [r3, #4]
    332c:	4770      	bx	lr
    332e:	4770      	bx	lr
    3330:	100004a8 	.word	0x100004a8

00003334 <rt_resort_prio>:
    3334:	b538      	push	{r3, r4, r5, lr}
    3336:	6884      	ldr	r4, [r0, #8]
    3338:	4605      	mov	r5, r0
    333a:	b90c      	cbnz	r4, 3340 <rt_resort_prio+0xc>
    333c:	e00c      	b.n	3358 <rt_resort_prio+0x24>
    333e:	68a4      	ldr	r4, [r4, #8]
    3340:	7823      	ldrb	r3, [r4, #0]
    3342:	2b00      	cmp	r3, #0
    3344:	d0fb      	beq.n	333e <rt_resort_prio+0xa>
    3346:	4628      	mov	r0, r5
    3348:	f7ff ffda 	bl	3300 <rt_rmv_list>
    334c:	4620      	mov	r0, r4
    334e:	4629      	mov	r1, r5
    3350:	e8bd 4038 	ldmia.w	sp!, {r3, r4, r5, lr}
    3354:	f7ff bf1a 	b.w	318c <rt_put_prio>
    3358:	7843      	ldrb	r3, [r0, #1]
    335a:	2b01      	cmp	r3, #1
    335c:	d000      	beq.n	3360 <rt_resort_prio+0x2c>
    335e:	bd38      	pop	{r3, r4, r5, pc}
    3360:	4c00      	ldr	r4, [pc, #0]	; (3364 <rt_resort_prio+0x30>)
    3362:	e7f0      	b.n	3346 <rt_resort_prio+0x12>
    3364:	100004a8 	.word	0x100004a8

00003368 <rt_rmv_dly>:
    3368:	6903      	ldr	r3, [r0, #16]
    336a:	b430      	push	{r4, r5}
    336c:	b163      	cbz	r3, 3388 <rt_rmv_dly+0x20>
    336e:	68c2      	ldr	r2, [r0, #12]
    3370:	60da      	str	r2, [r3, #12]
    3372:	68c2      	ldr	r2, [r0, #12]
    3374:	b152      	cbz	r2, 338c <rt_rmv_dly+0x24>
    3376:	8a9c      	ldrh	r4, [r3, #20]
    3378:	8a85      	ldrh	r5, [r0, #20]
    337a:	2100      	movs	r1, #0
    337c:	442c      	add	r4, r5
    337e:	829c      	strh	r4, [r3, #20]
    3380:	6113      	str	r3, [r2, #16]
    3382:	60c1      	str	r1, [r0, #12]
    3384:	2300      	movs	r3, #0
    3386:	6103      	str	r3, [r0, #16]
    3388:	bc30      	pop	{r4, r5}
    338a:	4770      	bx	lr
    338c:	829a      	strh	r2, [r3, #20]
    338e:	e7f9      	b.n	3384 <rt_rmv_dly+0x1c>

00003390 <rt_psq_enq>:
    3390:	b430      	push	{r4, r5}
    3392:	4b0f      	ldr	r3, [pc, #60]	; (33d0 <rt_psq_enq+0x40>)
    3394:	78dc      	ldrb	r4, [r3, #3]
    3396:	f3ef 8310 	mrs	r3, PRIMASK
    339a:	b672      	cpsid	i
    339c:	4a0c      	ldr	r2, [pc, #48]	; (33d0 <rt_psq_enq+0x40>)
    339e:	7893      	ldrb	r3, [r2, #2]
    33a0:	429c      	cmp	r4, r3
    33a2:	d908      	bls.n	33b6 <rt_psq_enq+0x26>
    33a4:	1c5d      	adds	r5, r3, #1
    33a6:	7813      	ldrb	r3, [r2, #0]
    33a8:	7095      	strb	r5, [r2, #2]
    33aa:	1c5d      	adds	r5, r3, #1
    33ac:	42ac      	cmp	r4, r5
    33ae:	bf14      	ite	ne
    33b0:	b2ed      	uxtbne	r5, r5
    33b2:	2500      	moveq	r5, #0
    33b4:	7015      	strb	r5, [r2, #0]
    33b6:	b662      	cpsie	i
    33b8:	429c      	cmp	r4, r3
    33ba:	d905      	bls.n	33c8 <rt_psq_enq+0x38>
    33bc:	bc30      	pop	{r4, r5}
    33be:	eb02 03c3 	add.w	r3, r2, r3, lsl #3
    33c2:	6058      	str	r0, [r3, #4]
    33c4:	6099      	str	r1, [r3, #8]
    33c6:	4770      	bx	lr
    33c8:	2002      	movs	r0, #2
    33ca:	bc30      	pop	{r4, r5}
    33cc:	f000 be1c 	b.w	4008 <os_error>
    33d0:	10000774 	.word	0x10000774

000033d4 <rt_mbx_init>:
    33d4:	3910      	subs	r1, #16
    33d6:	2300      	movs	r3, #0
    33d8:	0889      	lsrs	r1, r1, #2
    33da:	2201      	movs	r2, #1
    33dc:	81c1      	strh	r1, [r0, #14]
    33de:	7002      	strb	r2, [r0, #0]
    33e0:	7043      	strb	r3, [r0, #1]
    33e2:	7083      	strb	r3, [r0, #2]
    33e4:	6043      	str	r3, [r0, #4]
    33e6:	8103      	strh	r3, [r0, #8]
    33e8:	8143      	strh	r3, [r0, #10]
    33ea:	8183      	strh	r3, [r0, #12]
    33ec:	4770      	bx	lr
    33ee:	bf00      	nop

000033f0 <rt_mbx_send>:
    33f0:	b5f0      	push	{r4, r5, r6, r7, lr}
    33f2:	6846      	ldr	r6, [r0, #4]
    33f4:	b083      	sub	sp, #12
    33f6:	4603      	mov	r3, r0
    33f8:	460f      	mov	r7, r1
    33fa:	b116      	cbz	r6, 3402 <rt_mbx_send+0x12>
    33fc:	7841      	ldrb	r1, [r0, #1]
    33fe:	2901      	cmp	r1, #1
    3400:	d02c      	beq.n	345c <rt_mbx_send+0x6c>
    3402:	899d      	ldrh	r5, [r3, #12]
    3404:	89dc      	ldrh	r4, [r3, #14]
    3406:	42a5      	cmp	r5, r4
    3408:	d013      	beq.n	3432 <rt_mbx_send+0x42>
    340a:	8918      	ldrh	r0, [r3, #8]
    340c:	1d02      	adds	r2, r0, #4
    340e:	f843 7022 	str.w	r7, [r3, r2, lsl #2]
    3412:	f3ef 8210 	mrs	r2, PRIMASK
    3416:	b672      	cpsid	i
    3418:	3501      	adds	r5, #1
    341a:	819d      	strh	r5, [r3, #12]
    341c:	b662      	cpsie	i
    341e:	3001      	adds	r0, #1
    3420:	b280      	uxth	r0, r0
    3422:	4284      	cmp	r4, r0
    3424:	bf0b      	itete	eq
    3426:	2000      	moveq	r0, #0
    3428:	8118      	strhne	r0, [r3, #8]
    342a:	8118      	strheq	r0, [r3, #8]
    342c:	2000      	movne	r0, #0
    342e:	b003      	add	sp, #12
    3430:	bdf0      	pop	{r4, r5, r6, r7, pc}
    3432:	b182      	cbz	r2, 3456 <rt_mbx_send+0x66>
    3434:	b30e      	cbz	r6, 347a <rt_mbx_send+0x8a>
    3436:	4c15      	ldr	r4, [pc, #84]	; (348c <rt_mbx_send+0x9c>)
    3438:	4618      	mov	r0, r3
    343a:	6821      	ldr	r1, [r4, #0]
    343c:	9201      	str	r2, [sp, #4]
    343e:	f7ff fea5 	bl	318c <rt_put_prio>
    3442:	6821      	ldr	r1, [r4, #0]
    3444:	9a01      	ldr	r2, [sp, #4]
    3446:	61cf      	str	r7, [r1, #28]
    3448:	4610      	mov	r0, r2
    344a:	2108      	movs	r1, #8
    344c:	f000 fb62 	bl	3b14 <rt_block>
    3450:	2001      	movs	r0, #1
    3452:	b003      	add	sp, #12
    3454:	bdf0      	pop	{r4, r5, r6, r7, pc}
    3456:	2001      	movs	r0, #1
    3458:	b003      	add	sp, #12
    345a:	bdf0      	pop	{r4, r5, r6, r7, pc}
    345c:	f7ff fec0 	bl	31e0 <rt_get_first>
    3460:	463a      	mov	r2, r7
    3462:	4604      	mov	r4, r0
    3464:	2110      	movs	r1, #16
    3466:	f000 fdc9 	bl	3ffc <rt_ret_val2>
    346a:	4620      	mov	r0, r4
    346c:	f7ff ff7c 	bl	3368 <rt_rmv_dly>
    3470:	4620      	mov	r0, r4
    3472:	f000 fb2d 	bl	3ad0 <rt_dispatch>
    3476:	2000      	movs	r0, #0
    3478:	e7d9      	b.n	342e <rt_mbx_send+0x3e>
    347a:	4904      	ldr	r1, [pc, #16]	; (348c <rt_mbx_send+0x9c>)
    347c:	2002      	movs	r0, #2
    347e:	6809      	ldr	r1, [r1, #0]
    3480:	6059      	str	r1, [r3, #4]
    3482:	604e      	str	r6, [r1, #4]
    3484:	608b      	str	r3, [r1, #8]
    3486:	7058      	strb	r0, [r3, #1]
    3488:	e7dd      	b.n	3446 <rt_mbx_send+0x56>
    348a:	bf00      	nop
    348c:	100004dc 	.word	0x100004dc

00003490 <rt_mbx_wait>:
    3490:	b538      	push	{r3, r4, r5, lr}
    3492:	8983      	ldrh	r3, [r0, #12]
    3494:	4604      	mov	r4, r0
    3496:	4615      	mov	r5, r2
    3498:	b1cb      	cbz	r3, 34ce <rt_mbx_wait+0x3e>
    349a:	8942      	ldrh	r2, [r0, #10]
    349c:	89c5      	ldrh	r5, [r0, #14]
    349e:	1d10      	adds	r0, r2, #4
    34a0:	3201      	adds	r2, #1
    34a2:	b292      	uxth	r2, r2
    34a4:	f854 0020 	ldr.w	r0, [r4, r0, lsl #2]
    34a8:	4295      	cmp	r5, r2
    34aa:	6008      	str	r0, [r1, #0]
    34ac:	8162      	strh	r2, [r4, #10]
    34ae:	bf04      	itt	eq
    34b0:	2200      	moveq	r2, #0
    34b2:	8162      	strheq	r2, [r4, #10]
    34b4:	6862      	ldr	r2, [r4, #4]
    34b6:	b112      	cbz	r2, 34be <rt_mbx_wait+0x2e>
    34b8:	7862      	ldrb	r2, [r4, #1]
    34ba:	2a02      	cmp	r2, #2
    34bc:	d01e      	beq.n	34fc <rt_mbx_wait+0x6c>
    34be:	f3ef 8210 	mrs	r2, PRIMASK
    34c2:	b672      	cpsid	i
    34c4:	3b01      	subs	r3, #1
    34c6:	81a3      	strh	r3, [r4, #12]
    34c8:	b662      	cpsie	i
    34ca:	2000      	movs	r0, #0
    34cc:	bd38      	pop	{r3, r4, r5, pc}
    34ce:	b15a      	cbz	r2, 34e8 <rt_mbx_wait+0x58>
    34d0:	6843      	ldr	r3, [r0, #4]
    34d2:	b15b      	cbz	r3, 34ec <rt_mbx_wait+0x5c>
    34d4:	4b18      	ldr	r3, [pc, #96]	; (3538 <rt_mbx_wait+0xa8>)
    34d6:	6819      	ldr	r1, [r3, #0]
    34d8:	f7ff fe58 	bl	318c <rt_put_prio>
    34dc:	4628      	mov	r0, r5
    34de:	2108      	movs	r1, #8
    34e0:	f000 fb18 	bl	3b14 <rt_block>
    34e4:	2001      	movs	r0, #1
    34e6:	bd38      	pop	{r3, r4, r5, pc}
    34e8:	2001      	movs	r0, #1
    34ea:	bd38      	pop	{r3, r4, r5, pc}
    34ec:	4a12      	ldr	r2, [pc, #72]	; (3538 <rt_mbx_wait+0xa8>)
    34ee:	2101      	movs	r1, #1
    34f0:	6812      	ldr	r2, [r2, #0]
    34f2:	6042      	str	r2, [r0, #4]
    34f4:	6053      	str	r3, [r2, #4]
    34f6:	6090      	str	r0, [r2, #8]
    34f8:	7041      	strb	r1, [r0, #1]
    34fa:	e7ef      	b.n	34dc <rt_mbx_wait+0x4c>
    34fc:	4620      	mov	r0, r4
    34fe:	f7ff fe6f 	bl	31e0 <rt_get_first>
    3502:	2100      	movs	r1, #0
    3504:	4605      	mov	r5, r0
    3506:	f000 fd75 	bl	3ff4 <rt_ret_val>
    350a:	8922      	ldrh	r2, [r4, #8]
    350c:	89e0      	ldrh	r0, [r4, #14]
    350e:	1c53      	adds	r3, r2, #1
    3510:	b29b      	uxth	r3, r3
    3512:	69e9      	ldr	r1, [r5, #28]
    3514:	4298      	cmp	r0, r3
    3516:	f102 0204 	add.w	r2, r2, #4
    351a:	f844 1022 	str.w	r1, [r4, r2, lsl #2]
    351e:	8123      	strh	r3, [r4, #8]
    3520:	bf04      	itt	eq
    3522:	2300      	moveq	r3, #0
    3524:	8123      	strheq	r3, [r4, #8]
    3526:	4628      	mov	r0, r5
    3528:	f7ff ff1e 	bl	3368 <rt_rmv_dly>
    352c:	4628      	mov	r0, r5
    352e:	f000 facf 	bl	3ad0 <rt_dispatch>
