
LPC1768/USBHostSerial.elf:     file format elf32-littlearm
architecture: arm, flags 0x00000112:
EXEC_P, HAS_SYMS, D_PAGED
start address 0x000046f5


Disassembly of section .text:

00000000 <__isr_vector>:
       0:	10008000 	.word	0x10008000
       4:	000046f5 	.word	0x000046f5
       8:	00004725 	.word	0x00004725
       c:	00004727 	.word	0x00004727
      10:	00004729 	.word	0x00004729
      14:	0000472b 	.word	0x0000472b
      18:	0000472d 	.word	0x0000472d
	...
      2c:	00003ed1 	.word	0x00003ed1
      30:	00004731 	.word	0x00004731
      34:	00000000 	.word	0x00000000
      38:	00003f3f 	.word	0x00003f3f
      3c:	00003f77 	.word	0x00003f77
      40:	00004737 	.word	0x00004737
      44:	00004737 	.word	0x00004737
      48:	00004737 	.word	0x00004737
      4c:	00004737 	.word	0x00004737
      50:	00004737 	.word	0x00004737
      54:	00004737 	.word	0x00004737
      58:	00004737 	.word	0x00004737
      5c:	00004737 	.word	0x00004737
      60:	00004737 	.word	0x00004737
      64:	00004737 	.word	0x00004737
      68:	00004737 	.word	0x00004737
      6c:	00004737 	.word	0x00004737
      70:	00004737 	.word	0x00004737
      74:	00004737 	.word	0x00004737
      78:	00004737 	.word	0x00004737
      7c:	00004737 	.word	0x00004737
      80:	00004737 	.word	0x00004737
      84:	00004737 	.word	0x00004737
      88:	00004737 	.word	0x00004737
      8c:	00004737 	.word	0x00004737
      90:	00004737 	.word	0x00004737
      94:	00004737 	.word	0x00004737
      98:	00004737 	.word	0x00004737
      9c:	00004737 	.word	0x00004737
      a0:	00004737 	.word	0x00004737
      a4:	00004737 	.word	0x00004737
      a8:	00004737 	.word	0x00004737
      ac:	00004737 	.word	0x00004737
      b0:	00004737 	.word	0x00004737
      b4:	00004737 	.word	0x00004737
      b8:	00004737 	.word	0x00004737
      bc:	00004737 	.word	0x00004737
      c0:	00004737 	.word	0x00004737
      c4:	00004737 	.word	0x00004737
      c8:	00004737 	.word	0x00004737

000000cc <__do_global_dtors_aux>:
      cc:	b510      	push	{r4, lr}
      ce:	4c05      	ldr	r4, [pc, #20]	; (e4 <__do_global_dtors_aux+0x18>)
      d0:	7823      	ldrb	r3, [r4, #0]
      d2:	b933      	cbnz	r3, e2 <__do_global_dtors_aux+0x16>
      d4:	4b04      	ldr	r3, [pc, #16]	; (e8 <__do_global_dtors_aux+0x1c>)
      d6:	b113      	cbz	r3, de <__do_global_dtors_aux+0x12>
      d8:	4804      	ldr	r0, [pc, #16]	; (ec <__do_global_dtors_aux+0x20>)
      da:	f3af 8000 	nop.w
      de:	2301      	movs	r3, #1
      e0:	7023      	strb	r3, [r4, #0]
      e2:	bd10      	pop	{r4, pc}
      e4:	100001cc 	.word	0x100001cc
      e8:	00000000 	.word	0x00000000
      ec:	00008ff8 	.word	0x00008ff8

000000f0 <frame_dummy>:
      f0:	b508      	push	{r3, lr}
      f2:	4b06      	ldr	r3, [pc, #24]	; (10c <frame_dummy+0x1c>)
      f4:	b11b      	cbz	r3, fe <frame_dummy+0xe>
      f6:	4806      	ldr	r0, [pc, #24]	; (110 <frame_dummy+0x20>)
      f8:	4906      	ldr	r1, [pc, #24]	; (114 <frame_dummy+0x24>)
      fa:	f3af 8000 	nop.w
      fe:	4806      	ldr	r0, [pc, #24]	; (118 <frame_dummy+0x28>)
     100:	6803      	ldr	r3, [r0, #0]
     102:	b113      	cbz	r3, 10a <frame_dummy+0x1a>
     104:	4b05      	ldr	r3, [pc, #20]	; (11c <frame_dummy+0x2c>)
     106:	b103      	cbz	r3, 10a <frame_dummy+0x1a>
     108:	4798      	blx	r3
     10a:	bd08      	pop	{r3, pc}
     10c:	00000000 	.word	0x00000000
     110:	00008ff8 	.word	0x00008ff8
     114:	100001d0 	.word	0x100001d0
     118:	100001cc 	.word	0x100001cc
     11c:	00000000 	.word	0x00000000

00000120 <serial_task(void const*)>:
     120:	b500      	push	{lr}
     122:	b0db      	sub	sp, #364	; 0x16c
     124:	a801      	add	r0, sp, #4
     126:	f000 fa8d 	bl	644 <USBHostSerial::USBHostSerial()>
     12a:	a801      	add	r0, sp, #4
     12c:	f000 fb52 	bl	7d4 <USBHostSerial::connect()>
     130:	b190      	cbz	r0, 158 <serial_task(void const*)+0x38>
     132:	a801      	add	r0, sp, #4
     134:	f000 fa4c 	bl	5d0 <USBHostSerial::connected()>
     138:	b928      	cbnz	r0, 146 <serial_task(void const*)+0x26>
     13a:	e7f6      	b.n	12a <serial_task(void const*)+0xa>
     13c:	a802      	add	r0, sp, #8
     13e:	f004 f949 	bl	43d4 <mbed::Stream::getc()>
     142:	f005 ff53 	bl	5fec <putchar>
     146:	a802      	add	r0, sp, #8
     148:	f000 fba2 	bl	890 <USBHostSerialPort::available()>
     14c:	2800      	cmp	r0, #0
     14e:	d1f5      	bne.n	13c <serial_task(void const*)+0x1c>
     150:	2032      	movs	r0, #50	; 0x32
     152:	f003 fe8d 	bl	3e70 <rtos::Thread::wait(unsigned long)>
     156:	e7ec      	b.n	132 <serial_task(void const*)+0x12>
     158:	f44f 70fa 	mov.w	r0, #500	; 0x1f4
     15c:	f003 fe88 	bl	3e70 <rtos::Thread::wait(unsigned long)>
     160:	e7e3      	b.n	12a <serial_task(void const*)+0xa>
     162:	bf00      	nop

00000164 <main>:
     164:	b530      	push	{r4, r5, lr}
     166:	2300      	movs	r3, #0
     168:	b097      	sub	sp, #92	; 0x5c
     16a:	f44f 61c0 	mov.w	r1, #1536	; 0x600
     16e:	4c0c      	ldr	r4, [pc, #48]	; (1a0 <main+0x3c>)
     170:	e88d 000a 	stmia.w	sp, {r1, r3}
     174:	461a      	mov	r2, r3
     176:	a803      	add	r0, sp, #12
     178:	490a      	ldr	r1, [pc, #40]	; (1a4 <main+0x40>)
     17a:	f003 fe4d 	bl	3e18 <rtos::Thread::Thread(void (*)(void const*), void*, osPriority, unsigned long, unsigned char*)>
     17e:	4625      	mov	r5, r4
     180:	e005      	b.n	18e <main+0x2a>
     182:	692a      	ldr	r2, [r5, #16]
     184:	6013      	str	r3, [r2, #0]
     186:	f44f 70fa 	mov.w	r0, #500	; 0x1f4
     18a:	f003 fe71 	bl	3e70 <rtos::Thread::wait(unsigned long)>
     18e:	6962      	ldr	r2, [r4, #20]
     190:	6863      	ldr	r3, [r4, #4]
     192:	6812      	ldr	r2, [r2, #0]
     194:	421a      	tst	r2, r3
     196:	d1f4      	bne.n	182 <main+0x1e>
     198:	68ea      	ldr	r2, [r5, #12]
     19a:	6013      	str	r3, [r2, #0]
     19c:	e7f3      	b.n	186 <main+0x22>
     19e:	bf00      	nop
     1a0:	100001e8 	.word	0x100001e8
     1a4:	00000121 	.word	0x00000121

000001a8 <_GLOBAL__sub_I_led>:
     1a8:	4b05      	ldr	r3, [pc, #20]	; (1c0 <_GLOBAL__sub_I_led+0x18>)
     1aa:	2200      	movs	r2, #0
     1ac:	4618      	mov	r0, r3
     1ae:	4905      	ldr	r1, [pc, #20]	; (1c4 <_GLOBAL__sub_I_led+0x1c>)
     1b0:	601a      	str	r2, [r3, #0]
     1b2:	605a      	str	r2, [r3, #4]
     1b4:	609a      	str	r2, [r3, #8]
     1b6:	60da      	str	r2, [r3, #12]
     1b8:	611a      	str	r2, [r3, #16]
     1ba:	615a      	str	r2, [r3, #20]
     1bc:	f004 b81c 	b.w	41f8 <gpio_init_out>
     1c0:	100001e8 	.word	0x100001e8
     1c4:	2009c032 	.word	0x2009c032

000001c8 <_start>:
     1c8:	4807      	ldr	r0, [pc, #28]	; (1e8 <_start+0x20>)
     1ca:	4a08      	ldr	r2, [pc, #32]	; (1ec <_start+0x24>)
     1cc:	b508      	push	{r3, lr}
     1ce:	1a12      	subs	r2, r2, r0
     1d0:	2100      	movs	r1, #0
     1d2:	f005 fdd6 	bl	5d82 <memset>
     1d6:	f003 ff2b 	bl	4030 <software_init_hook>
     1da:	f005 fd39 	bl	5c50 <__libc_init_array>
     1de:	f7ff ffc1 	bl	164 <main>
     1e2:	f003 ffdf 	bl	41a4 <exit>
     1e6:	bf00      	nop
     1e8:	100001cc 	.word	0x100001cc
     1ec:	10001014 	.word	0x10001014

000001f0 <__wrap__isatty>:
     1f0:	2802      	cmp	r0, #2
     1f2:	dc01      	bgt.n	1f8 <__wrap__isatty+0x8>
     1f4:	2001      	movs	r0, #1
     1f6:	4770      	bx	lr
     1f8:	f004 ba30 	b.w	465c <_isatty>

000001fc <__wrap_malloc>:
     1fc:	f3ef 8305 	mrs	r3, IPSR
     200:	b103      	cbz	r3, 204 <__wrap_malloc+0x8>
     202:	be00      	bkpt	0x0000
     204:	f005 bd96 	b.w	5d34 <malloc>

00000208 <__wrap_free>:
     208:	f3ef 8305 	mrs	r3, IPSR
     20c:	b103      	cbz	r3, 210 <__wrap_free+0x8>
     20e:	be00      	bkpt	0x0000
     210:	f005 bd98 	b.w	5d44 <free>

00000214 <abort>:
     214:	b508      	push	{r3, lr}
     216:	2001      	movs	r0, #1
     218:	f003 ffc4 	bl	41a4 <exit>

0000021c <__cxa_pure_virtual>:
     21c:	b508      	push	{r3, lr}
     21e:	f7ff fff9 	bl	214 <abort>
     222:	bf00      	nop

00000224 <USBHostSerial::setVidPid(unsigned short, unsigned short)>:
     224:	4770      	bx	lr
     226:	bf00      	nop

00000228 <USBHostSerial::useEndpoint(unsigned char, ENDPOINT_TYPE, ENDPOINT_DIRECTION)>:
     228:	f8d0 315c 	ldr.w	r3, [r0, #348]	; 0x15c
     22c:	b12b      	cbz	r3, 23a <USBHostSerial::useEndpoint(unsigned char, ENDPOINT_TYPE, ENDPOINT_DIRECTION)+0x12>
     22e:	f890 3158 	ldrb.w	r3, [r0, #344]	; 0x158
     232:	428b      	cmp	r3, r1
     234:	d003      	beq.n	23e <USBHostSerial::useEndpoint(unsigned char, ENDPOINT_TYPE, ENDPOINT_DIRECTION)+0x16>
     236:	2000      	movs	r0, #0
     238:	4770      	bx	lr
     23a:	4618      	mov	r0, r3
     23c:	4770      	bx	lr
     23e:	1e93      	subs	r3, r2, #2
     240:	4258      	negs	r0, r3
     242:	4158      	adcs	r0, r3
     244:	4770      	bx	lr
     246:	bf00      	nop

00000248 <USBHostSerialPort::init()>:
     248:	2300      	movs	r3, #0
     24a:	b410      	push	{r4}
     24c:	2108      	movs	r1, #8
     24e:	f44f 5416 	mov.w	r4, #9600	; 0x2580
     252:	2201      	movs	r2, #1
     254:	f8c0 4108 	str.w	r4, [r0, #264]	; 0x108
     258:	8603      	strh	r3, [r0, #48]	; 0x30
     25a:	f880 110e 	strb.w	r1, [r0, #270]	; 0x10e
     25e:	f880 210c 	strb.w	r2, [r0, #268]	; 0x10c
     262:	6183      	str	r3, [r0, #24]
     264:	61c3      	str	r3, [r0, #28]
     266:	f880 3148 	strb.w	r3, [r0, #328]	; 0x148
     26a:	6283      	str	r3, [r0, #40]	; 0x28
     26c:	62c3      	str	r3, [r0, #44]	; 0x2c
     26e:	6203      	str	r3, [r0, #32]
     270:	6243      	str	r3, [r0, #36]	; 0x24
     272:	f880 310d 	strb.w	r3, [r0, #269]	; 0x10d
     276:	8643      	strh	r3, [r0, #50]	; 0x32
     278:	f85d 4b04 	ldr.w	r4, [sp], #4
     27c:	4770      	bx	lr
     27e:	bf00      	nop

00000280 <USBHostSerialPort::~USBHostSerialPort()>:
     280:	b510      	push	{r4, lr}
     282:	4b07      	ldr	r3, [pc, #28]	; (2a0 <USBHostSerialPort::~USBHostSerialPort()+0x20>)
     284:	4604      	mov	r4, r0
     286:	f103 0208 	add.w	r2, r3, #8
     28a:	3344      	adds	r3, #68	; 0x44
     28c:	e880 000c 	stmia.w	r0, {r2, r3}
     290:	30b4      	adds	r0, #180	; 0xb4
     292:	f003 fd9d 	bl	3dd0 <rtos::Mutex::~Mutex()>
     296:	4620      	mov	r0, r4
     298:	f004 f854 	bl	4344 <mbed::Stream::~Stream()>
     29c:	4620      	mov	r0, r4
     29e:	bd10      	pop	{r4, pc}
     2a0:	00007e08 	.word	0x00007e08

000002a4 <non-virtual thunk to USBHostSerialPort::~USBHostSerialPort()>:
     2a4:	f1a0 0004 	sub.w	r0, r0, #4
     2a8:	f7ff bfea 	b.w	280 <USBHostSerialPort::~USBHostSerialPort()>

000002ac <USBHostSerialPort::~USBHostSerialPort()>:
     2ac:	4b09      	ldr	r3, [pc, #36]	; (2d4 <USBHostSerialPort::~USBHostSerialPort()+0x28>)
     2ae:	b510      	push	{r4, lr}
     2b0:	f103 0208 	add.w	r2, r3, #8
     2b4:	3344      	adds	r3, #68	; 0x44
     2b6:	4604      	mov	r4, r0
     2b8:	e880 000c 	stmia.w	r0, {r2, r3}
     2bc:	30b4      	adds	r0, #180	; 0xb4
     2be:	f003 fd87 	bl	3dd0 <rtos::Mutex::~Mutex()>
     2c2:	4620      	mov	r0, r4
     2c4:	f004 f83e 	bl	4344 <mbed::Stream::~Stream()>
     2c8:	4620      	mov	r0, r4
     2ca:	f005 f8d5 	bl	5478 <operator delete(void*)>
     2ce:	4620      	mov	r0, r4
     2d0:	bd10      	pop	{r4, pc}
     2d2:	bf00      	nop
     2d4:	00007e08 	.word	0x00007e08

000002d8 <non-virtual thunk to USBHostSerialPort::~USBHostSerialPort()>:
     2d8:	f1a0 0004 	sub.w	r0, r0, #4
     2dc:	e7e6      	b.n	2ac <USBHostSerialPort::~USBHostSerialPort()>
     2de:	bf00      	nop

000002e0 <USBHostSerial::~USBHostSerial()>:
     2e0:	b510      	push	{r4, lr}
     2e2:	4b08      	ldr	r3, [pc, #32]	; (304 <USBHostSerial::~USBHostSerial()+0x24>)
     2e4:	4a08      	ldr	r2, [pc, #32]	; (308 <USBHostSerial::~USBHostSerial()+0x28>)
     2e6:	f103 0108 	add.w	r1, r3, #8
     2ea:	3344      	adds	r3, #68	; 0x44
     2ec:	4604      	mov	r4, r0
     2ee:	6002      	str	r2, [r0, #0]
     2f0:	6041      	str	r1, [r0, #4]
     2f2:	6083      	str	r3, [r0, #8]
     2f4:	30b8      	adds	r0, #184	; 0xb8
     2f6:	f003 fd6b 	bl	3dd0 <rtos::Mutex::~Mutex()>
     2fa:	1d20      	adds	r0, r4, #4
     2fc:	f004 f822 	bl	4344 <mbed::Stream::~Stream()>
     300:	4620      	mov	r0, r4
     302:	bd10      	pop	{r4, pc}
     304:	00007e08 	.word	0x00007e08
     308:	00007d08 	.word	0x00007d08

0000030c <non-virtual thunk to USBHostSerial::~USBHostSerial()>:
     30c:	f1a0 0008 	sub.w	r0, r0, #8
     310:	f7ff bfe6 	b.w	2e0 <USBHostSerial::~USBHostSerial()>

00000314 <non-virtual thunk to USBHostSerial::~USBHostSerial()>:
     314:	f1a0 0004 	sub.w	r0, r0, #4
     318:	f7ff bfe2 	b.w	2e0 <USBHostSerial::~USBHostSerial()>

0000031c <void mbed::FunctionPointer::membercaller<USBHostSerialPort>(void*, char*)>:
     31c:	b510      	push	{r4, lr}
     31e:	460b      	mov	r3, r1
     320:	b082      	sub	sp, #8
     322:	6849      	ldr	r1, [r1, #4]
     324:	4602      	mov	r2, r0
     326:	6818      	ldr	r0, [r3, #0]
     328:	466b      	mov	r3, sp
     32a:	c303      	stmia	r3!, {r0, r1}
     32c:	460b      	mov	r3, r1
     32e:	07d9      	lsls	r1, r3, #31
     330:	d507      	bpl.n	342 <void mbed::FunctionPointer::membercaller<USBHostSerialPort>(void*, char*)+0x26>
     332:	105b      	asrs	r3, r3, #1
     334:	58d4      	ldr	r4, [r2, r3]
     336:	9900      	ldr	r1, [sp, #0]
     338:	18d0      	adds	r0, r2, r3
     33a:	5861      	ldr	r1, [r4, r1]
     33c:	4788      	blx	r1
     33e:	b002      	add	sp, #8
     340:	bd10      	pop	{r4, pc}
     342:	eb02 0063 	add.w	r0, r2, r3, asr #1
     346:	9900      	ldr	r1, [sp, #0]
     348:	4788      	blx	r1
     34a:	b002      	add	sp, #8
     34c:	bd10      	pop	{r4, pc}
     34e:	bf00      	nop

00000350 <USBHostSerialPort::txHandler()>:
     350:	6a43      	ldr	r3, [r0, #36]	; 0x24
     352:	b11b      	cbz	r3, 35c <USBHostSerialPort::txHandler()+0xc>
     354:	f893 3025 	ldrb.w	r3, [r3, #37]	; 0x25
     358:	2b10      	cmp	r3, #16
     35a:	d000      	beq.n	35e <USBHostSerialPort::txHandler()+0xe>
     35c:	4770      	bx	lr
     35e:	f500 7096 	add.w	r0, r0, #300	; 0x12c
     362:	f003 bfa9 	b.w	42b8 <mbed::FunctionPointer::call()>
     366:	bf00      	nop

00000368 <USBHostSerialPort::_putc(int)>:
     368:	b510      	push	{r4, lr}
     36a:	6a42      	ldr	r2, [r0, #36]	; 0x24
     36c:	b084      	sub	sp, #16
     36e:	9103      	str	r1, [sp, #12]
     370:	b17a      	cbz	r2, 392 <USBHostSerialPort::_putc(int)+0x2a>
     372:	6984      	ldr	r4, [r0, #24]
     374:	2301      	movs	r3, #1
     376:	69c1      	ldr	r1, [r0, #28]
     378:	9300      	str	r3, [sp, #0]
     37a:	9301      	str	r3, [sp, #4]
     37c:	4620      	mov	r0, r4
     37e:	ab03      	add	r3, sp, #12
     380:	f001 f942 	bl	1608 <USBHost::bulkWrite(USBDeviceConnected*, USBEndpoint*, unsigned char*, unsigned long, bool)>
     384:	2800      	cmp	r0, #0
     386:	bf14      	ite	ne
     388:	f04f 30ff 	movne.w	r0, #4294967295	; 0xffffffff
     38c:	2001      	moveq	r0, #1
     38e:	b004      	add	sp, #16
     390:	bd10      	pop	{r4, pc}
     392:	f04f 30ff 	mov.w	r0, #4294967295	; 0xffffffff
     396:	e7fa      	b.n	38e <USBHostSerialPort::_putc(int)+0x26>

00000398 <USBHostSerialPort::writeBuf(char const*, int)>:
     398:	e92d 47f0 	stmdb	sp!, {r4, r5, r6, r7, r8, r9, r10, lr}
     39c:	6a47      	ldr	r7, [r0, #36]	; 0x24
     39e:	b082      	sub	sp, #8
     3a0:	4604      	mov	r4, r0
     3a2:	4689      	mov	r9, r1
     3a4:	4615      	mov	r5, r2
     3a6:	b1cf      	cbz	r7, 3dc <USBHostSerialPort::writeBuf(char const*, int)+0x44>
     3a8:	2a00      	cmp	r2, #0
     3aa:	dd17      	ble.n	3dc <USBHostSerialPort::writeBuf(char const*, int)+0x44>
     3ac:	2600      	movs	r6, #0
     3ae:	f04f 0a01 	mov.w	r10, #1
     3b2:	e000      	b.n	3b6 <USBHostSerialPort::writeBuf(char const*, int)+0x1e>
     3b4:	6a67      	ldr	r7, [r4, #36]	; 0x24
     3b6:	6ae3      	ldr	r3, [r4, #44]	; 0x2c
     3b8:	46a8      	mov	r8, r5
     3ba:	429d      	cmp	r5, r3
     3bc:	bf34      	ite	cc
     3be:	462b      	movcc	r3, r5
     3c0:	4698      	movcs	r8, r3
     3c2:	69a0      	ldr	r0, [r4, #24]
     3c4:	69e1      	ldr	r1, [r4, #28]
     3c6:	463a      	mov	r2, r7
     3c8:	e88d 0408 	stmia.w	sp, {r3, r10}
     3cc:	eb09 0306 	add.w	r3, r9, r6
     3d0:	f001 f91a 	bl	1608 <USBHost::bulkWrite(USBDeviceConnected*, USBEndpoint*, unsigned char*, unsigned long, bool)>
     3d4:	b900      	cbnz	r0, 3d8 <USBHostSerialPort::writeBuf(char const*, int)+0x40>
     3d6:	4446      	add	r6, r8
     3d8:	42b5      	cmp	r5, r6
     3da:	dceb      	bgt.n	3b4 <USBHostSerialPort::writeBuf(char const*, int)+0x1c>
     3dc:	4628      	mov	r0, r5
     3de:	b002      	add	sp, #8
     3e0:	e8bd 87f0 	ldmia.w	sp!, {r4, r5, r6, r7, r8, r9, r10, pc}

000003e4 <USBHostSerialPort::readBuf(char*, int)>:
     3e4:	b5f8      	push	{r3, r4, r5, r6, r7, lr}
     3e6:	6a03      	ldr	r3, [r0, #32]
     3e8:	4605      	mov	r5, r0
     3ea:	4617      	mov	r7, r2
     3ec:	b163      	cbz	r3, 408 <USBHostSerialPort::readBuf(char*, int)+0x24>
     3ee:	2a00      	cmp	r2, #0
     3f0:	dd0d      	ble.n	40e <USBHostSerialPort::readBuf(char*, int)+0x2a>
     3f2:	460c      	mov	r4, r1
     3f4:	188e      	adds	r6, r1, r2
     3f6:	4628      	mov	r0, r5
     3f8:	f003 ffec 	bl	43d4 <mbed::Stream::getc()>
     3fc:	f804 0b01 	strb.w	r0, [r4], #1
     400:	42b4      	cmp	r4, r6
     402:	d1f8      	bne.n	3f6 <USBHostSerialPort::readBuf(char*, int)+0x12>
     404:	4638      	mov	r0, r7
     406:	bdf8      	pop	{r3, r4, r5, r6, r7, pc}
     408:	461f      	mov	r7, r3
     40a:	4638      	mov	r0, r7
     40c:	bdf8      	pop	{r3, r4, r5, r6, r7, pc}
     40e:	2700      	movs	r7, #0
     410:	e7f8      	b.n	404 <USBHostSerialPort::readBuf(char*, int)+0x20>
     412:	bf00      	nop

00000414 <USBHostSerial::parseInterface(unsigned char, unsigned char, unsigned char, unsigned char)>:
     414:	b430      	push	{r4, r5}
     416:	f8d0 415c 	ldr.w	r4, [r0, #348]	; 0x15c
     41a:	f89d 5008 	ldrb.w	r5, [sp, #8]
     41e:	b974      	cbnz	r4, 43e <USBHostSerial::parseInterface(unsigned char, unsigned char, unsigned char, unsigned char)+0x2a>
     420:	2aff      	cmp	r2, #255	; 0xff
     422:	d00a      	beq.n	43a <USBHostSerial::parseInterface(unsigned char, unsigned char, unsigned char, unsigned char)+0x26>
     424:	2a0a      	cmp	r2, #10
     426:	d10d      	bne.n	444 <USBHostSerial::parseInterface(unsigned char, unsigned char, unsigned char, unsigned char)+0x30>
     428:	b94b      	cbnz	r3, 43e <USBHostSerial::parseInterface(unsigned char, unsigned char, unsigned char, unsigned char)+0x2a>
     42a:	b945      	cbnz	r5, 43e <USBHostSerial::parseInterface(unsigned char, unsigned char, unsigned char, unsigned char)+0x2a>
     42c:	2401      	movs	r4, #1
     42e:	f880 1158 	strb.w	r1, [r0, #344]	; 0x158
     432:	f8c0 415c 	str.w	r4, [r0, #348]	; 0x15c
     436:	4620      	mov	r0, r4
     438:	e002      	b.n	440 <USBHostSerial::parseInterface(unsigned char, unsigned char, unsigned char, unsigned char)+0x2c>
     43a:	2bff      	cmp	r3, #255	; 0xff
     43c:	d005      	beq.n	44a <USBHostSerial::parseInterface(unsigned char, unsigned char, unsigned char, unsigned char)+0x36>
     43e:	2000      	movs	r0, #0
     440:	bc30      	pop	{r4, r5}
     442:	4770      	bx	lr
     444:	4620      	mov	r0, r4
     446:	bc30      	pop	{r4, r5}
     448:	4770      	bx	lr
     44a:	2dff      	cmp	r5, #255	; 0xff
     44c:	d1f7      	bne.n	43e <USBHostSerial::parseInterface(unsigned char, unsigned char, unsigned char, unsigned char)+0x2a>
     44e:	e7ed      	b.n	42c <USBHostSerial::parseInterface(unsigned char, unsigned char, unsigned char, unsigned char)+0x18>

00000450 <USBHostSerialPort::rxHandler()>:
     450:	e92d 41f0 	stmdb	sp!, {r4, r5, r6, r7, r8, lr}
     454:	6a03      	ldr	r3, [r0, #32]
     456:	b082      	sub	sp, #8
     458:	4604      	mov	r4, r0
     45a:	b123      	cbz	r3, 466 <USBHostSerialPort::rxHandler()+0x16>
     45c:	f893 2025 	ldrb.w	r2, [r3, #37]	; 0x25
     460:	6b1b      	ldr	r3, [r3, #48]	; 0x30
     462:	2a10      	cmp	r2, #16
     464:	d002      	beq.n	46c <USBHostSerialPort::rxHandler()+0x1c>
     466:	b002      	add	sp, #8
     468:	e8bd 81f0 	ldmia.w	sp!, {r4, r5, r6, r7, r8, pc}
     46c:	2b00      	cmp	r3, #0
     46e:	dd30      	ble.n	4d2 <USBHostSerialPort::rxHandler()+0x82>
     470:	33c7      	adds	r3, #199	; 0xc7
     472:	eb00 0803 	add.w	r8, r0, r3
     476:	f100 05b4 	add.w	r5, r0, #180	; 0xb4
     47a:	f100 06c7 	add.w	r6, r0, #199	; 0xc7
     47e:	4628      	mov	r0, r5
     480:	f04f 31ff 	mov.w	r1, #4294967295	; 0xffffffff
     484:	f816 7f01 	ldrb.w	r7, [r6, #1]!
     488:	e008      	b.n	49c <USBHostSerialPort::rxHandler()+0x4c>
     48a:	4628      	mov	r0, r5
     48c:	f003 fc9c 	bl	3dc8 <rtos::Mutex::unlock()>
     490:	200a      	movs	r0, #10
     492:	f003 fced 	bl	3e70 <rtos::Thread::wait(unsigned long)>
     496:	4628      	mov	r0, r5
     498:	f04f 31ff 	mov.w	r1, #4294967295	; 0xffffffff
     49c:	f003 fc90 	bl	3dc0 <rtos::Mutex::lock(unsigned long)>
     4a0:	8e22      	ldrh	r2, [r4, #48]	; 0x30
     4a2:	8e63      	ldrh	r3, [r4, #50]	; 0x32
     4a4:	3201      	adds	r2, #1
     4a6:	f002 027f 	and.w	r2, r2, #127	; 0x7f
     4aa:	b29b      	uxth	r3, r3
     4ac:	429a      	cmp	r2, r3
     4ae:	d0ec      	beq.n	48a <USBHostSerialPort::rxHandler()+0x3a>
     4b0:	8e23      	ldrh	r3, [r4, #48]	; 0x30
     4b2:	4628      	mov	r0, r5
     4b4:	b29b      	uxth	r3, r3
     4b6:	1c5a      	adds	r2, r3, #1
     4b8:	b292      	uxth	r2, r2
     4ba:	4423      	add	r3, r4
     4bc:	8622      	strh	r2, [r4, #48]	; 0x30
     4be:	f883 7034 	strb.w	r7, [r3, #52]	; 0x34
     4c2:	8e23      	ldrh	r3, [r4, #48]	; 0x30
     4c4:	f003 037f 	and.w	r3, r3, #127	; 0x7f
     4c8:	8623      	strh	r3, [r4, #48]	; 0x30
     4ca:	f003 fc7d 	bl	3dc8 <rtos::Mutex::unlock()>
     4ce:	4546      	cmp	r6, r8
     4d0:	d1d5      	bne.n	47e <USBHostSerialPort::rxHandler()+0x2e>
     4d2:	f504 7088 	add.w	r0, r4, #272	; 0x110
     4d6:	f003 feef 	bl	42b8 <mbed::FunctionPointer::call()>
     4da:	6aa3      	ldr	r3, [r4, #40]	; 0x28
     4dc:	f104 0018 	add.w	r0, r4, #24
     4e0:	2500      	movs	r5, #0
     4e2:	c807      	ldmia	r0, {r0, r1, r2}
     4e4:	9300      	str	r3, [sp, #0]
     4e6:	9501      	str	r5, [sp, #4]
     4e8:	f104 03c8 	add.w	r3, r4, #200	; 0xc8
     4ec:	f001 f89c 	bl	1628 <USBHost::bulkRead(USBDeviceConnected*, USBEndpoint*, unsigned char*, unsigned long, bool)>
     4f0:	b002      	add	sp, #8
     4f2:	e8bd 81f0 	ldmia.w	sp!, {r4, r5, r6, r7, r8, pc}
     4f6:	bf00      	nop

000004f8 <USBHostSerialPort::_getc()>:
     4f8:	b5f8      	push	{r3, r4, r5, r6, r7, lr}
     4fa:	6a03      	ldr	r3, [r0, #32]
     4fc:	4604      	mov	r4, r0
     4fe:	f100 05b4 	add.w	r5, r0, #180	; 0xb4
     502:	b35b      	cbz	r3, 55c <USBHostSerialPort::_getc()+0x64>
     504:	f04f 31ff 	mov.w	r1, #4294967295	; 0xffffffff
     508:	4628      	mov	r0, r5
     50a:	f003 fc59 	bl	3dc0 <rtos::Mutex::lock(unsigned long)>
     50e:	8e67      	ldrh	r7, [r4, #50]	; 0x32
     510:	8e26      	ldrh	r6, [r4, #48]	; 0x30
     512:	b2bf      	uxth	r7, r7
     514:	b2b6      	uxth	r6, r6
     516:	4628      	mov	r0, r5
     518:	f003 fc56 	bl	3dc8 <rtos::Mutex::unlock()>
     51c:	42b7      	cmp	r7, r6
     51e:	d0f1      	beq.n	504 <USBHostSerialPort::_getc()+0xc>
     520:	4628      	mov	r0, r5
     522:	f04f 31ff 	mov.w	r1, #4294967295	; 0xffffffff
     526:	f003 fc4b 	bl	3dc0 <rtos::Mutex::lock(unsigned long)>
     52a:	8e62      	ldrh	r2, [r4, #50]	; 0x32
     52c:	8e23      	ldrh	r3, [r4, #48]	; 0x30
     52e:	b292      	uxth	r2, r2
     530:	b29b      	uxth	r3, r3
     532:	429a      	cmp	r2, r3
     534:	d010      	beq.n	558 <USBHostSerialPort::_getc()+0x60>
     536:	8e63      	ldrh	r3, [r4, #50]	; 0x32
     538:	b29b      	uxth	r3, r3
     53a:	1c5a      	adds	r2, r3, #1
     53c:	b292      	uxth	r2, r2
     53e:	8662      	strh	r2, [r4, #50]	; 0x32
     540:	4423      	add	r3, r4
     542:	f893 6034 	ldrb.w	r6, [r3, #52]	; 0x34
     546:	8e63      	ldrh	r3, [r4, #50]	; 0x32
     548:	f003 037f 	and.w	r3, r3, #127	; 0x7f
     54c:	8663      	strh	r3, [r4, #50]	; 0x32
     54e:	4628      	mov	r0, r5
     550:	f003 fc3a 	bl	3dc8 <rtos::Mutex::unlock()>
     554:	4630      	mov	r0, r6
     556:	bdf8      	pop	{r3, r4, r5, r6, r7, pc}
     558:	2600      	movs	r6, #0
     55a:	e7f8      	b.n	54e <USBHostSerialPort::_getc()+0x56>
     55c:	f44f 5016 	mov.w	r0, #9600	; 0x2580
     560:	2108      	movs	r1, #8
     562:	2201      	movs	r2, #1
     564:	8623      	strh	r3, [r4, #48]	; 0x30
     566:	61a3      	str	r3, [r4, #24]
     568:	61e3      	str	r3, [r4, #28]
     56a:	f884 3148 	strb.w	r3, [r4, #328]	; 0x148
     56e:	62a3      	str	r3, [r4, #40]	; 0x28
     570:	62e3      	str	r3, [r4, #44]	; 0x2c
     572:	6263      	str	r3, [r4, #36]	; 0x24
     574:	f884 310d 	strb.w	r3, [r4, #269]	; 0x10d
     578:	8663      	strh	r3, [r4, #50]	; 0x32
     57a:	f8c4 0108 	str.w	r0, [r4, #264]	; 0x108
     57e:	f884 110e 	strb.w	r1, [r4, #270]	; 0x10e
     582:	f884 210c 	strb.w	r2, [r4, #268]	; 0x10c
     586:	f04f 36ff 	mov.w	r6, #4294967295	; 0xffffffff
     58a:	e7e3      	b.n	554 <USBHostSerialPort::_getc()+0x5c>

0000058c <USBHostSerial::~USBHostSerial()>:
     58c:	4b0a      	ldr	r3, [pc, #40]	; (5b8 <USBHostSerial::~USBHostSerial()+0x2c>)
     58e:	b510      	push	{r4, lr}
     590:	4a0a      	ldr	r2, [pc, #40]	; (5bc <USBHostSerial::~USBHostSerial()+0x30>)
     592:	f103 0108 	add.w	r1, r3, #8
     596:	3344      	adds	r3, #68	; 0x44
     598:	4604      	mov	r4, r0
     59a:	6002      	str	r2, [r0, #0]
     59c:	6041      	str	r1, [r0, #4]
     59e:	6083      	str	r3, [r0, #8]
     5a0:	30b8      	adds	r0, #184	; 0xb8
     5a2:	f003 fc15 	bl	3dd0 <rtos::Mutex::~Mutex()>
     5a6:	1d20      	adds	r0, r4, #4
     5a8:	f003 fecc 	bl	4344 <mbed::Stream::~Stream()>
     5ac:	4620      	mov	r0, r4
     5ae:	f004 ff63 	bl	5478 <operator delete(void*)>
     5b2:	4620      	mov	r0, r4
     5b4:	bd10      	pop	{r4, pc}
     5b6:	bf00      	nop
     5b8:	00007e08 	.word	0x00007e08
     5bc:	00007d08 	.word	0x00007d08

000005c0 <non-virtual thunk to USBHostSerial::~USBHostSerial()>:
     5c0:	f1a0 0008 	sub.w	r0, r0, #8
     5c4:	e7e2      	b.n	58c <USBHostSerial::~USBHostSerial()>
     5c6:	bf00      	nop

000005c8 <non-virtual thunk to USBHostSerial::~USBHostSerial()>:
     5c8:	f1a0 0004 	sub.w	r0, r0, #4
     5cc:	e7de      	b.n	58c <USBHostSerial::~USBHostSerial()>
     5ce:	bf00      	nop

000005d0 <USBHostSerial::connected()>:
     5d0:	f890 0160 	ldrb.w	r0, [r0, #352]	; 0x160
     5d4:	4770      	bx	lr
     5d6:	bf00      	nop

000005d8 <USBHostSerialPort::USBHostSerialPort()>:
     5d8:	b538      	push	{r3, r4, r5, lr}
     5da:	2100      	movs	r1, #0
     5dc:	4604      	mov	r4, r0
     5de:	f003 fed5 	bl	438c <mbed::Stream::Stream(char const*)>
     5e2:	4b17      	ldr	r3, [pc, #92]	; (640 <USBHostSerialPort::USBHostSerialPort()+0x68>)
     5e4:	2500      	movs	r5, #0
     5e6:	f103 0208 	add.w	r2, r3, #8
     5ea:	3344      	adds	r3, #68	; 0x44
     5ec:	e884 000c 	stmia.w	r4, {r2, r3}
     5f0:	f104 00b4 	add.w	r0, r4, #180	; 0xb4
     5f4:	f003 fbc4 	bl	3d80 <rtos::Mutex::Mutex()>
     5f8:	8625      	strh	r5, [r4, #48]	; 0x30
     5fa:	4629      	mov	r1, r5
     5fc:	f504 7088 	add.w	r0, r4, #272	; 0x110
     600:	8665      	strh	r5, [r4, #50]	; 0x32
     602:	f003 fe53 	bl	42ac <mbed::FunctionPointer::FunctionPointer(void (*)())>
     606:	4629      	mov	r1, r5
     608:	f504 7096 	add.w	r0, r4, #300	; 0x12c
     60c:	f003 fe4e 	bl	42ac <mbed::FunctionPointer::FunctionPointer(void (*)())>
     610:	2208      	movs	r2, #8
     612:	2301      	movs	r3, #1
     614:	f44f 5116 	mov.w	r1, #9600	; 0x2580
     618:	f884 5148 	strb.w	r5, [r4, #328]	; 0x148
     61c:	f884 510d 	strb.w	r5, [r4, #269]	; 0x10d
     620:	f884 210e 	strb.w	r2, [r4, #270]	; 0x10e
     624:	f884 310c 	strb.w	r3, [r4, #268]	; 0x10c
     628:	8625      	strh	r5, [r4, #48]	; 0x30
     62a:	61a5      	str	r5, [r4, #24]
     62c:	61e5      	str	r5, [r4, #28]
     62e:	62a5      	str	r5, [r4, #40]	; 0x28
     630:	62e5      	str	r5, [r4, #44]	; 0x2c
     632:	6225      	str	r5, [r4, #32]
     634:	6265      	str	r5, [r4, #36]	; 0x24
     636:	8665      	strh	r5, [r4, #50]	; 0x32
     638:	f8c4 1108 	str.w	r1, [r4, #264]	; 0x108
     63c:	4620      	mov	r0, r4
     63e:	bd38      	pop	{r3, r4, r5, pc}
     640:	00007e08 	.word	0x00007e08

00000644 <USBHostSerial::USBHostSerial()>:
     644:	4b0c      	ldr	r3, [pc, #48]	; (678 <USBHostSerial::USBHostSerial()+0x34>)
     646:	b510      	push	{r4, lr}
     648:	4604      	mov	r4, r0
     64a:	f840 3b04 	str.w	r3, [r0], #4
     64e:	f7ff ffc3 	bl	5d8 <USBHostSerialPort::USBHostSerialPort()>
     652:	4b0a      	ldr	r3, [pc, #40]	; (67c <USBHostSerial::USBHostSerial()+0x38>)
     654:	f103 0108 	add.w	r1, r3, #8
     658:	f103 0224 	add.w	r2, r3, #36	; 0x24
     65c:	3360      	adds	r3, #96	; 0x60
     65e:	e884 000e 	stmia.w	r4, {r1, r2, r3}
     662:	f000 fbe7 	bl	e34 <USBHost::getHostInst()>
     666:	2300      	movs	r3, #0
     668:	f8c4 0150 	str.w	r0, [r4, #336]	; 0x150
     66c:	f8c4 315c 	str.w	r3, [r4, #348]	; 0x15c
     670:	f884 3160 	strb.w	r3, [r4, #352]	; 0x160
     674:	4620      	mov	r0, r4
     676:	bd10      	pop	{r4, pc}
     678:	00007cf0 	.word	0x00007cf0
     67c:	00007d00 	.word	0x00007d00

00000680 <USBHostSerialPort::connect(USBHost*, USBDeviceConnected*, unsigned char, USBEndpoint*, USBEndpoint*)>:
     680:	e92d 41f0 	stmdb	sp!, {r4, r5, r6, r7, r8, lr}
     684:	f880 3148 	strb.w	r3, [r0, #328]	; 0x148
     688:	b08a      	sub	sp, #40	; 0x28
     68a:	f8b2 70fe 	ldrh.w	r7, [r2, #254]	; 0xfe
     68e:	4604      	mov	r4, r0
     690:	f8b2 6100 	ldrh.w	r6, [r2, #256]	; 0x100
     694:	9d10      	ldr	r5, [sp, #64]	; 0x40
     696:	9811      	ldr	r0, [sp, #68]	; 0x44
     698:	61a1      	str	r1, [r4, #24]
     69a:	61e2      	str	r2, [r4, #28]
     69c:	4946      	ldr	r1, [pc, #280]	; (7b8 <USBHostSerialPort::connect(USBHost*, USBDeviceConnected*, unsigned char, USBEndpoint*, USBEndpoint*)+0x138>)
     69e:	9201      	str	r2, [sp, #4]
     6a0:	9302      	str	r3, [sp, #8]
     6a2:	22f2      	movs	r2, #242	; 0xf2
     6a4:	6225      	str	r5, [r4, #32]
     6a6:	6260      	str	r0, [r4, #36]	; 0x24
     6a8:	463b      	mov	r3, r7
     6aa:	9600      	str	r6, [sp, #0]
     6ac:	4843      	ldr	r0, [pc, #268]	; (7bc <USBHostSerialPort::connect(USBHost*, USBDeviceConnected*, unsigned char, USBEndpoint*, USBEndpoint*)+0x13c>)
     6ae:	f005 fc49 	bl	5f44 <iprintf>
     6b2:	f894 2148 	ldrb.w	r2, [r4, #328]	; 0x148
     6b6:	4b42      	ldr	r3, [pc, #264]	; (7c0 <USBHostSerialPort::connect(USBHost*, USBDeviceConnected*, unsigned char, USBEndpoint*, USBEndpoint*)+0x140>)
     6b8:	ebc2 1202 	rsb	r2, r2, r2, lsl #4
     6bc:	69e1      	ldr	r1, [r4, #28]
     6be:	0092      	lsls	r2, r2, #2
     6c0:	6818      	ldr	r0, [r3, #0]
     6c2:	889e      	ldrh	r6, [r3, #4]
     6c4:	799d      	ldrb	r5, [r3, #6]
     6c6:	3238      	adds	r2, #56	; 0x38
     6c8:	188b      	adds	r3, r1, r2
     6ca:	5088      	str	r0, [r1, r2]
     6cc:	809e      	strh	r6, [r3, #4]
     6ce:	719d      	strb	r5, [r3, #6]
     6d0:	69a7      	ldr	r7, [r4, #24]
     6d2:	69e6      	ldr	r6, [r4, #28]
     6d4:	4638      	mov	r0, r7
     6d6:	4631      	mov	r1, r6
     6d8:	f894 5148 	ldrb.w	r5, [r4, #328]	; 0x148
     6dc:	f000 fde6 	bl	12ac <USBHost::findDevice(USBDeviceConnected*)>
     6e0:	1c43      	adds	r3, r0, #1
     6e2:	d04c      	beq.n	77e <USBHostSerialPort::connect(USBHost*, USBDeviceConnected*, unsigned char, USBEndpoint*, USBEndpoint*)+0xfe>
     6e4:	2c00      	cmp	r4, #0
     6e6:	d05a      	beq.n	79e <USBHostSerialPort::connect(USBHost*, USBDeviceConnected*, unsigned char, USBEndpoint*, USBEndpoint*)+0x11e>
     6e8:	ebc5 1305 	rsb	r3, r5, r5, lsl #4
     6ec:	eb06 0683 	add.w	r6, r6, r3, lsl #2
     6f0:	eb07 0780 	add.w	r7, r7, r0, lsl #2
     6f4:	4b33      	ldr	r3, [pc, #204]	; (7c4 <USBHostSerialPort::connect(USBHost*, USBDeviceConnected*, unsigned char, USBEndpoint*, USBEndpoint*)+0x144>)
     6f6:	443d      	add	r5, r7
     6f8:	f04f 0c00 	mov.w	r12, #0
     6fc:	f505 5501 	add.w	r5, r5, #8256	; 0x2040
     700:	2201      	movs	r2, #1
     702:	9304      	str	r3, [sp, #16]
     704:	f8cd c014 	str.w	r12, [sp, #20]
     708:	ab04      	add	r3, sp, #16
     70a:	f885 2029 	strb.w	r2, [r5, #41]	; 0x29
     70e:	cb03      	ldmia	r3!, {r0, r1}
     710:	6270      	str	r0, [r6, #36]	; 0x24
     712:	62b1      	str	r1, [r6, #40]	; 0x28
     714:	6a22      	ldr	r2, [r4, #32]
     716:	6a63      	ldr	r3, [r4, #36]	; 0x24
     718:	6d91      	ldr	r1, [r2, #88]	; 0x58
     71a:	6d9b      	ldr	r3, [r3, #88]	; 0x58
     71c:	680d      	ldr	r5, [r1, #0]
     71e:	681b      	ldr	r3, [r3, #0]
     720:	4f29      	ldr	r7, [pc, #164]	; (7c8 <USBHostSerialPort::connect(USBHost*, USBDeviceConnected*, unsigned char, USBEndpoint*, USBEndpoint*)+0x148>)
     722:	f3c5 4509 	ubfx	r5, r5, #16, #10
     726:	f3c3 4309 	ubfx	r3, r3, #16, #10
     72a:	6234      	str	r4, [r6, #32]
     72c:	6377      	str	r7, [r6, #52]	; 0x34
     72e:	f8c6 c01c 	str.w	r12, [r6, #28]
     732:	62a5      	str	r5, [r4, #40]	; 0x28
     734:	62e3      	str	r3, [r4, #44]	; 0x2c
     736:	4b25      	ldr	r3, [pc, #148]	; (7cc <USBHostSerialPort::connect(USBHost*, USBDeviceConnected*, unsigned char, USBEndpoint*, USBEndpoint*)+0x14c>)
     738:	2600      	movs	r6, #0
     73a:	9306      	str	r3, [sp, #24]
     73c:	9607      	str	r6, [sp, #28]
     73e:	ab06      	add	r3, sp, #24
     740:	cb03      	ldmia	r3!, {r0, r1}
     742:	4d23      	ldr	r5, [pc, #140]	; (7d0 <USBHostSerialPort::connect(USBHost*, USBDeviceConnected*, unsigned char, USBEndpoint*, USBEndpoint*)+0x150>)
     744:	6410      	str	r0, [r2, #64]	; 0x40
     746:	6451      	str	r1, [r2, #68]	; 0x44
     748:	6a63      	ldr	r3, [r4, #36]	; 0x24
     74a:	9508      	str	r5, [sp, #32]
     74c:	9609      	str	r6, [sp, #36]	; 0x24
     74e:	ad08      	add	r5, sp, #32
     750:	63d4      	str	r4, [r2, #60]	; 0x3c
     752:	6517      	str	r7, [r2, #80]	; 0x50
     754:	6396      	str	r6, [r2, #56]	; 0x38
     756:	cd03      	ldmia	r5!, {r0, r1}
     758:	6418      	str	r0, [r3, #64]	; 0x40
     75a:	6459      	str	r1, [r3, #68]	; 0x44
     75c:	6a22      	ldr	r2, [r4, #32]
     75e:	6aa5      	ldr	r5, [r4, #40]	; 0x28
     760:	639e      	str	r6, [r3, #56]	; 0x38
     762:	63dc      	str	r4, [r3, #60]	; 0x3c
     764:	651f      	str	r7, [r3, #80]	; 0x50
     766:	69a0      	ldr	r0, [r4, #24]
     768:	69e1      	ldr	r1, [r4, #28]
     76a:	2600      	movs	r6, #0
     76c:	f104 03c8 	add.w	r3, r4, #200	; 0xc8
     770:	9510      	str	r5, [sp, #64]	; 0x40
     772:	9611      	str	r6, [sp, #68]	; 0x44
     774:	b00a      	add	sp, #40	; 0x28
     776:	e8bd 41f0 	ldmia.w	sp!, {r4, r5, r6, r7, r8, lr}
     77a:	f000 bf55 	b.w	1628 <USBHost::bulkRead(USBDeviceConnected*, USBEndpoint*, unsigned char*, unsigned long, bool)>
     77e:	6a22      	ldr	r2, [r4, #32]
     780:	6a63      	ldr	r3, [r4, #36]	; 0x24
     782:	6d91      	ldr	r1, [r2, #88]	; 0x58
     784:	6d9b      	ldr	r3, [r3, #88]	; 0x58
     786:	680d      	ldr	r5, [r1, #0]
     788:	681b      	ldr	r3, [r3, #0]
     78a:	f3c5 4509 	ubfx	r5, r5, #16, #10
     78e:	f3c3 4309 	ubfx	r3, r3, #16, #10
     792:	62a5      	str	r5, [r4, #40]	; 0x28
     794:	62e3      	str	r3, [r4, #44]	; 0x2c
     796:	2c00      	cmp	r4, #0
     798:	d0e5      	beq.n	766 <USBHostSerialPort::connect(USBHost*, USBDeviceConnected*, unsigned char, USBEndpoint*, USBEndpoint*)+0xe6>
     79a:	4f0b      	ldr	r7, [pc, #44]	; (7c8 <USBHostSerialPort::connect(USBHost*, USBDeviceConnected*, unsigned char, USBEndpoint*, USBEndpoint*)+0x148>)
     79c:	e7cb      	b.n	736 <USBHostSerialPort::connect(USBHost*, USBDeviceConnected*, unsigned char, USBEndpoint*, USBEndpoint*)+0xb6>
     79e:	6a22      	ldr	r2, [r4, #32]
     7a0:	6a63      	ldr	r3, [r4, #36]	; 0x24
     7a2:	6d91      	ldr	r1, [r2, #88]	; 0x58
     7a4:	6d9b      	ldr	r3, [r3, #88]	; 0x58
     7a6:	680d      	ldr	r5, [r1, #0]
     7a8:	681b      	ldr	r3, [r3, #0]
     7aa:	f3c5 4509 	ubfx	r5, r5, #16, #10
     7ae:	f3c3 4309 	ubfx	r3, r3, #16, #10
     7b2:	62a5      	str	r5, [r4, #40]	; 0x28
     7b4:	62e3      	str	r3, [r4, #44]	; 0x2c
     7b6:	e7d6      	b.n	766 <USBHostSerialPort::connect(USBHost*, USBDeviceConnected*, unsigned char, USBEndpoint*, USBEndpoint*)+0xe6>
     7b8:	00007db8 	.word	0x00007db8
     7bc:	00007d68 	.word	0x00007d68
     7c0:	00007e00 	.word	0x00007e00
     7c4:	00000249 	.word	0x00000249
     7c8:	0000031d 	.word	0x0000031d
     7cc:	00000451 	.word	0x00000451
     7d0:	00000351 	.word	0x00000351

000007d4 <USBHostSerial::connect()>:
     7d4:	e92d 43f0 	stmdb	sp!, {r4, r5, r6, r7, r8, r9, lr}
     7d8:	f8d0 3154 	ldr.w	r3, [r0, #340]	; 0x154
     7dc:	b083      	sub	sp, #12
     7de:	4604      	mov	r4, r0
     7e0:	b18b      	cbz	r3, 806 <Heap_Size+0x6>
     7e2:	2500      	movs	r5, #0
     7e4:	b2e9      	uxtb	r1, r5
     7e6:	f8d4 0150 	ldr.w	r0, [r4, #336]	; 0x150
     7ea:	f000 fc57 	bl	109c <USBHost::getDevice(unsigned char)>
     7ee:	f8d4 3154 	ldr.w	r3, [r4, #340]	; 0x154
     7f2:	3501      	adds	r5, #1
     7f4:	4283      	cmp	r3, r0
     7f6:	d046      	beq.n	886 <Heap_Size+0x86>
     7f8:	2d05      	cmp	r5, #5
     7fa:	d1f3      	bne.n	7e4 <USBHostSerial::connect()+0x10>
     7fc:	2300      	movs	r3, #0
     7fe:	f8c4 315c 	str.w	r3, [r4, #348]	; 0x15c
     802:	f8c4 3154 	str.w	r3, [r4, #340]	; 0x154
     806:	2600      	movs	r6, #0
     808:	f104 0904 	add.w	r9, r4, #4
     80c:	b2f1      	uxtb	r1, r6
     80e:	f8d4 0150 	ldr.w	r0, [r4, #336]	; 0x150
     812:	f000 fc43 	bl	109c <USBHost::getDevice(unsigned char)>
     816:	3601      	adds	r6, #1
     818:	4605      	mov	r5, r0
     81a:	4601      	mov	r1, r0
     81c:	4622      	mov	r2, r4
     81e:	b340      	cbz	r0, 872 <Heap_Size+0x72>
     820:	f8d4 0150 	ldr.w	r0, [r4, #336]	; 0x150
     824:	f001 fa5e 	bl	1ce4 <USBHost::enumerate(USBDeviceConnected*, IUSBEnumerator*)>
     828:	2202      	movs	r2, #2
     82a:	4607      	mov	r7, r0
     82c:	4613      	mov	r3, r2
     82e:	4628      	mov	r0, r5
     830:	bb0f      	cbnz	r7, 876 <Heap_Size+0x76>
     832:	f894 1158 	ldrb.w	r1, [r4, #344]	; 0x158
     836:	9700      	str	r7, [sp, #0]
     838:	f000 f90c 	bl	a54 <USBDeviceConnected::getEndpoint(unsigned char, ENDPOINT_TYPE, ENDPOINT_DIRECTION, unsigned char)>
     83c:	f894 1158 	ldrb.w	r1, [r4, #344]	; 0x158
     840:	2202      	movs	r2, #2
     842:	9700      	str	r7, [sp, #0]
     844:	4680      	mov	r8, r0
     846:	2301      	movs	r3, #1
     848:	4628      	mov	r0, r5
     84a:	f000 f903 	bl	a54 <USBDeviceConnected::getEndpoint(unsigned char, ENDPOINT_TYPE, ENDPOINT_DIRECTION, unsigned char)>
     84e:	462a      	mov	r2, r5
     850:	4607      	mov	r7, r0
     852:	4648      	mov	r0, r9
     854:	f1b8 0f00 	cmp.w	r8, #0
     858:	d00b      	beq.n	872 <Heap_Size+0x72>
     85a:	b157      	cbz	r7, 872 <Heap_Size+0x72>
     85c:	f8d4 1150 	ldr.w	r1, [r4, #336]	; 0x150
     860:	f894 3158 	ldrb.w	r3, [r4, #344]	; 0x158
     864:	f8cd 8000 	str.w	r8, [sp]
     868:	9701      	str	r7, [sp, #4]
     86a:	f7ff ff09 	bl	680 <USBHostSerialPort::connect(USBHost*, USBDeviceConnected*, unsigned char, USBEndpoint*, USBEndpoint*)>
     86e:	f8c4 5154 	str.w	r5, [r4, #340]	; 0x154
     872:	2e05      	cmp	r6, #5
     874:	d1ca      	bne.n	80c <Heap_Size+0xc>
     876:	f8d4 0154 	ldr.w	r0, [r4, #340]	; 0x154
     87a:	3000      	adds	r0, #0
     87c:	bf18      	it	ne
     87e:	2001      	movne	r0, #1
     880:	b003      	add	sp, #12
     882:	e8bd 83f0 	ldmia.w	sp!, {r4, r5, r6, r7, r8, r9, pc}
     886:	2001      	movs	r0, #1
     888:	b003      	add	sp, #12
     88a:	e8bd 83f0 	ldmia.w	sp!, {r4, r5, r6, r7, r8, r9, pc}
     88e:	bf00      	nop

00000890 <USBHostSerialPort::available()>:
     890:	b538      	push	{r3, r4, r5, lr}
     892:	f100 05b4 	add.w	r5, r0, #180	; 0xb4
     896:	4604      	mov	r4, r0
     898:	f04f 31ff 	mov.w	r1, #4294967295	; 0xffffffff
     89c:	4628      	mov	r0, r5
     89e:	f003 fa8f 	bl	3dc0 <rtos::Mutex::lock(unsigned long)>
     8a2:	8e22      	ldrh	r2, [r4, #48]	; 0x30
     8a4:	8e63      	ldrh	r3, [r4, #50]	; 0x32
     8a6:	b292      	uxth	r2, r2
     8a8:	b29b      	uxth	r3, r3
     8aa:	429a      	cmp	r2, r3
     8ac:	8e22      	ldrh	r2, [r4, #48]	; 0x30
     8ae:	8e63      	ldrh	r3, [r4, #50]	; 0x32
     8b0:	bf3b      	ittet	cc
     8b2:	b294      	uxthcc	r4, r2
     8b4:	3480      	addcc	r4, #128	; 0x80
     8b6:	ebc3 0402 	rsbcs	r4, r3, r2
     8ba:	ebc3 0404 	rsbcc	r4, r3, r4
     8be:	b2a4      	uxth	r4, r4
     8c0:	4628      	mov	r0, r5
     8c2:	f003 fa81 	bl	3dc8 <rtos::Mutex::unlock()>
     8c6:	b2e0      	uxtb	r0, r4
     8c8:	bd38      	pop	{r3, r4, r5, pc}
     8ca:	bf00      	nop

000008cc <USBDeviceConnected::init()>:
     8cc:	e92d 41f0 	stmdb	sp!, {r4, r5, r6, r7, r8, lr}
     8d0:	2308      	movs	r3, #8
     8d2:	2700      	movs	r7, #0
     8d4:	f880 7108 	strb.w	r7, [r0, #264]	; 0x108
     8d8:	4606      	mov	r6, r0
     8da:	f8c0 30f8 	str.w	r3, [r0, #248]	; 0xf8
     8de:	f880 70fc 	strb.w	r7, [r0, #252]	; 0xfc
     8e2:	f880 70fd 	strb.w	r7, [r0, #253]	; 0xfd
     8e6:	f8a0 70fe 	strh.w	r7, [r0, #254]	; 0xfe
     8ea:	f8a0 7100 	strh.w	r7, [r0, #256]	; 0x100
     8ee:	f880 7109 	strb.w	r7, [r0, #265]	; 0x109
     8f2:	f880 7107 	strb.w	r7, [r0, #263]	; 0x107
     8f6:	f880 7103 	strb.w	r7, [r0, #259]	; 0x103
     8fa:	f880 7104 	strb.w	r7, [r0, #260]	; 0x104
     8fe:	f880 7105 	strb.w	r7, [r0, #261]	; 0x105
     902:	f880 7106 	strb.w	r7, [r0, #262]	; 0x106
     906:	f100 040c 	add.w	r4, r0, #12
     90a:	f100 08fc 	add.w	r8, r0, #252	; 0xfc
     90e:	223c      	movs	r2, #60	; 0x3c
     910:	1f20      	subs	r0, r4, #4
     912:	2100      	movs	r1, #0
     914:	f005 fa35 	bl	5d82 <memset>
     918:	f104 052c 	add.w	r5, r4, #44	; 0x2c
     91c:	f804 7c04 	strb.w	r7, [r4, #-4]
     920:	f104 0c0c 	add.w	r12, r4, #12
     924:	4622      	mov	r2, r4
     926:	f842 7f04 	str.w	r7, [r2, #4]!
     92a:	4b08      	ldr	r3, [pc, #32]	; (94c <USBDeviceConnected::init()+0x80>)
     92c:	4562      	cmp	r2, r12
     92e:	cb03      	ldmia	r3!, {r0, r1}
     930:	f04f 0300 	mov.w	r3, #0
     934:	6028      	str	r0, [r5, #0]
     936:	6069      	str	r1, [r5, #4]
     938:	d1f5      	bne.n	926 <USBDeviceConnected::init()+0x5a>
     93a:	343c      	adds	r4, #60	; 0x3c
     93c:	4544      	cmp	r4, r8
     93e:	d1e6      	bne.n	90e <USBDeviceConnected::init()+0x42>
     940:	f886 3109 	strb.w	r3, [r6, #265]	; 0x109
     944:	6073      	str	r3, [r6, #4]
     946:	6033      	str	r3, [r6, #0]
     948:	e8bd 81f0 	ldmia.w	sp!, {r4, r5, r6, r7, r8, pc}
     94c:	00007e58 	.word	0x00007e58

00000950 <USBDeviceConnected::USBDeviceConnected()>:
     950:	b570      	push	{r4, r5, r6, lr}
     952:	4605      	mov	r5, r0
     954:	f100 041c 	add.w	r4, r0, #28
     958:	f500 7686 	add.w	r6, r0, #268	; 0x10c
     95c:	4620      	mov	r0, r4
     95e:	2100      	movs	r1, #0
     960:	343c      	adds	r4, #60	; 0x3c
     962:	f003 fca3 	bl	42ac <mbed::FunctionPointer::FunctionPointer(void (*)())>
     966:	42b4      	cmp	r4, r6
     968:	d1f8      	bne.n	95c <USBDeviceConnected::USBDeviceConnected()+0xc>
     96a:	4628      	mov	r0, r5
     96c:	f7ff ffae 	bl	8cc <USBDeviceConnected::init()>
     970:	4628      	mov	r0, r5
     972:	bd70      	pop	{r4, r5, r6, pc}

00000974 <USBDeviceConnected::getInterface(unsigned char)>:
     974:	2903      	cmp	r1, #3
     976:	d808      	bhi.n	98a <USBDeviceConnected::getInterface(unsigned char)+0x16>
     978:	ebc1 1101 	rsb	r1, r1, r1, lsl #4
     97c:	0089      	lsls	r1, r1, #2
     97e:	1843      	adds	r3, r0, r1
     980:	7a1b      	ldrb	r3, [r3, #8]
     982:	b123      	cbz	r3, 98e <USBDeviceConnected::getInterface(unsigned char)+0x1a>
     984:	3108      	adds	r1, #8
     986:	4408      	add	r0, r1
     988:	4770      	bx	lr
     98a:	2000      	movs	r0, #0
     98c:	4770      	bx	lr
     98e:	4618      	mov	r0, r3
     990:	4770      	bx	lr
     992:	bf00      	nop

00000994 <USBDeviceConnected::addInterface(unsigned char, unsigned char, unsigned char, unsigned char)>:
     994:	b470      	push	{r4, r5, r6}
     996:	2903      	cmp	r1, #3
     998:	f89d 600c 	ldrb.w	r6, [sp, #12]
     99c:	d80d      	bhi.n	9ba <USBDeviceConnected::addInterface(unsigned char, unsigned char, unsigned char, unsigned char)+0x26>
     99e:	ebc1 1101 	rsb	r1, r1, r1, lsl #4
     9a2:	eb00 0181 	add.w	r1, r0, r1, lsl #2
     9a6:	7a0d      	ldrb	r5, [r1, #8]
     9a8:	b93d      	cbnz	r5, 9ba <USBDeviceConnected::addInterface(unsigned char, unsigned char, unsigned char, unsigned char)+0x26>
     9aa:	2001      	movs	r0, #1
     9ac:	728a      	strb	r2, [r1, #10]
     9ae:	72cb      	strb	r3, [r1, #11]
     9b0:	730e      	strb	r6, [r1, #12]
     9b2:	724d      	strb	r5, [r1, #9]
     9b4:	7208      	strb	r0, [r1, #8]
     9b6:	bc70      	pop	{r4, r5, r6}
     9b8:	4770      	bx	lr
     9ba:	2000      	movs	r0, #0
     9bc:	bc70      	pop	{r4, r5, r6}
     9be:	4770      	bx	lr

000009c0 <USBDeviceConnected::addEndpoint(unsigned char, USBEndpoint*)>:
     9c0:	2903      	cmp	r1, #3
     9c2:	b4f0      	push	{r4, r5, r6, r7}
     9c4:	d815      	bhi.n	9f2 <USBDeviceConnected::addEndpoint(unsigned char, USBEndpoint*)+0x32>
     9c6:	010d      	lsls	r5, r1, #4
     9c8:	1a6c      	subs	r4, r5, r1
     9ca:	eb00 0484 	add.w	r4, r0, r4, lsl #2
     9ce:	7a23      	ldrb	r3, [r4, #8]
     9d0:	b17b      	cbz	r3, 9f2 <USBDeviceConnected::addEndpoint(unsigned char, USBEndpoint*)+0x32>
     9d2:	7a67      	ldrb	r7, [r4, #9]
     9d4:	2f02      	cmp	r7, #2
     9d6:	d80c      	bhi.n	9f2 <USBDeviceConnected::addEndpoint(unsigned char, USBEndpoint*)+0x32>
     9d8:	f8d4 c010 	ldr.w	r12, [r4, #16]
     9dc:	3701      	adds	r7, #1
     9de:	7267      	strb	r7, [r4, #9]
     9e0:	f1bc 0f00 	cmp.w	r12, #0
     9e4:	d00b      	beq.n	9fe <USBDeviceConnected::addEndpoint(unsigned char, USBEndpoint*)+0x3e>
     9e6:	6966      	ldr	r6, [r4, #20]
     9e8:	b13e      	cbz	r6, 9fa <USBDeviceConnected::addEndpoint(unsigned char, USBEndpoint*)+0x3a>
     9ea:	69a4      	ldr	r4, [r4, #24]
     9ec:	f04f 0c02 	mov.w	r12, #2
     9f0:	b12c      	cbz	r4, 9fe <USBDeviceConnected::addEndpoint(unsigned char, USBEndpoint*)+0x3e>
     9f2:	2300      	movs	r3, #0
     9f4:	4618      	mov	r0, r3
     9f6:	bcf0      	pop	{r4, r5, r6, r7}
     9f8:	4770      	bx	lr
     9fa:	f04f 0c01 	mov.w	r12, #1
     9fe:	1a69      	subs	r1, r5, r1
     a00:	448c      	add	r12, r1
     a02:	f10c 0c04 	add.w	r12, r12, #4
     a06:	f840 202c 	str.w	r2, [r0, r12, lsl #2]
     a0a:	e7f3      	b.n	9f4 <USBDeviceConnected::addEndpoint(unsigned char, USBEndpoint*)+0x34>

00000a0c <USBDeviceConnected::init(unsigned char, unsigned char, bool)>:
     a0c:	b5f8      	push	{r3, r4, r5, r6, r7, lr}
     a0e:	4604      	mov	r4, r0
     a10:	460d      	mov	r5, r1
     a12:	4616      	mov	r6, r2
     a14:	461f      	mov	r7, r3
     a16:	f7ff ff59 	bl	8cc <USBDeviceConnected::init()>
     a1a:	f884 50fc 	strb.w	r5, [r4, #252]	; 0xfc
     a1e:	f884 60fd 	strb.w	r6, [r4, #253]	; 0xfd
     a22:	f884 7106 	strb.w	r7, [r4, #262]	; 0x106
     a26:	bdf8      	pop	{r3, r4, r5, r6, r7, pc}

00000a28 <USBDeviceConnected::disconnect()>:
     a28:	b510      	push	{r4, lr}
     a2a:	4604      	mov	r4, r0
     a2c:	301c      	adds	r0, #28
     a2e:	f003 fc43 	bl	42b8 <mbed::FunctionPointer::call()>
     a32:	f104 0058 	add.w	r0, r4, #88	; 0x58
     a36:	f003 fc3f 	bl	42b8 <mbed::FunctionPointer::call()>
     a3a:	f104 0094 	add.w	r0, r4, #148	; 0x94
     a3e:	f003 fc3b 	bl	42b8 <mbed::FunctionPointer::call()>
     a42:	f104 00d0 	add.w	r0, r4, #208	; 0xd0
     a46:	f003 fc37 	bl	42b8 <mbed::FunctionPointer::call()>
     a4a:	4620      	mov	r0, r4
     a4c:	e8bd 4010 	ldmia.w	sp!, {r4, lr}
     a50:	f7ff bf3c 	b.w	8cc <USBDeviceConnected::init()>

00000a54 <USBDeviceConnected::getEndpoint(unsigned char, ENDPOINT_TYPE, ENDPOINT_DIRECTION, unsigned char)>:
     a54:	b470      	push	{r4, r5, r6}
     a56:	2903      	cmp	r1, #3
     a58:	f89d 600c 	ldrb.w	r6, [sp, #12]
     a5c:	d810      	bhi.n	a80 <USBDeviceConnected::getEndpoint(unsigned char, ENDPOINT_TYPE, ENDPOINT_DIRECTION, unsigned char)+0x2c>
     a5e:	ebc1 1101 	rsb	r1, r1, r1, lsl #4
     a62:	0089      	lsls	r1, r1, #2
     a64:	f101 040c 	add.w	r4, r1, #12
     a68:	f100 0518 	add.w	r5, r0, #24
     a6c:	4404      	add	r4, r0
     a6e:	4429      	add	r1, r5
     a70:	f854 0f04 	ldr.w	r0, [r4, #4]!
     a74:	f890 5024 	ldrb.w	r5, [r0, #36]	; 0x24
     a78:	4295      	cmp	r5, r2
     a7a:	d004      	beq.n	a86 <USBDeviceConnected::getEndpoint(unsigned char, ENDPOINT_TYPE, ENDPOINT_DIRECTION, unsigned char)+0x32>
     a7c:	428c      	cmp	r4, r1
     a7e:	d1f7      	bne.n	a70 <USBDeviceConnected::getEndpoint(unsigned char, ENDPOINT_TYPE, ENDPOINT_DIRECTION, unsigned char)+0x1c>
     a80:	2000      	movs	r0, #0
     a82:	bc70      	pop	{r4, r5, r6}
     a84:	4770      	bx	lr
     a86:	f890 5026 	ldrb.w	r5, [r0, #38]	; 0x26
     a8a:	429d      	cmp	r5, r3
     a8c:	d1f6      	bne.n	a7c <USBDeviceConnected::getEndpoint(unsigned char, ENDPOINT_TYPE, ENDPOINT_DIRECTION, unsigned char)+0x28>
     a8e:	1e75      	subs	r5, r6, #1
     a90:	2e00      	cmp	r6, #0
     a92:	d0f6      	beq.n	a82 <USBDeviceConnected::getEndpoint(unsigned char, ENDPOINT_TYPE, ENDPOINT_DIRECTION, unsigned char)+0x2e>
     a94:	b2ee      	uxtb	r6, r5
     a96:	e7f1      	b.n	a7c <USBDeviceConnected::getEndpoint(unsigned char, ENDPOINT_TYPE, ENDPOINT_DIRECTION, unsigned char)+0x28>

00000a98 <USBDeviceConnected::getEndpoint(unsigned char, unsigned char)>:
     a98:	2903      	cmp	r1, #3
     a9a:	d808      	bhi.n	aae <USBDeviceConnected::getEndpoint(unsigned char, unsigned char)+0x16>
     a9c:	2a02      	cmp	r2, #2
     a9e:	d806      	bhi.n	aae <USBDeviceConnected::getEndpoint(unsigned char, unsigned char)+0x16>
     aa0:	ebc1 1101 	rsb	r1, r1, r1, lsl #4
     aa4:	440a      	add	r2, r1
     aa6:	3204      	adds	r2, #4
     aa8:	f850 0022 	ldr.w	r0, [r0, r2, lsl #2]
     aac:	4770      	bx	lr
     aae:	2000      	movs	r0, #0
     ab0:	4770      	bx	lr
     ab2:	bf00      	nop

00000ab4 <USBHost::deviceConnected(int, int, bool, USBHostHub*)>:
     ab4:	e92d 4ff8 	stmdb	sp!, {r3, r4, r5, r6, r7, r8, r9, r10, r11, lr}
     ab8:	f8dd 8028 	ldr.w	r8, [sp, #40]	; 0x28
     abc:	f500 54d9 	add.w	r4, r0, #6944	; 0x1b20
     ac0:	4681      	mov	r9, r0
     ac2:	469b      	mov	r11, r3
     ac4:	b2cf      	uxtb	r7, r1
     ac6:	fa5f fa82 	uxtb.w	r10, r2
     aca:	340c      	adds	r4, #12
     acc:	2500      	movs	r5, #0
     ace:	f894 60f8 	ldrb.w	r6, [r4, #248]	; 0xf8
     ad2:	42be      	cmp	r6, r7
     ad4:	d01b      	beq.n	b0e <USBHost::deviceConnected(int, int, bool, USBHostHub*)+0x5a>
     ad6:	3501      	adds	r5, #1
     ad8:	2d05      	cmp	r5, #5
     ada:	f504 7486 	add.w	r4, r4, #268	; 0x10c
     ade:	d1f6      	bne.n	ace <USBHost::deviceConnected(int, int, bool, USBHostHub*)+0x1a>
     ae0:	f242 1450 	movw	r4, #8528	; 0x2150
     ae4:	f859 0004 	ldr.w	r0, [r9, r4]
     ae8:	2100      	movs	r1, #0
     aea:	f002 fae7 	bl	30bc <osMailAlloc>
     aee:	2301      	movs	r3, #1
     af0:	7207      	strb	r7, [r0, #8]
     af2:	f880 a009 	strb.w	r10, [r0, #9]
     af6:	f880 b00a 	strb.w	r11, [r0, #10]
     afa:	f8c0 800c 	str.w	r8, [r0, #12]
     afe:	7003      	strb	r3, [r0, #0]
     b00:	4601      	mov	r1, r0
     b02:	f859 0004 	ldr.w	r0, [r9, r4]
     b06:	e8bd 4ff8 	ldmia.w	sp!, {r3, r4, r5, r6, r7, r8, r9, r10, r11, lr}
     b0a:	f002 baf9 	b.w	3100 <osMailPut>
     b0e:	f894 30f9 	ldrb.w	r3, [r4, #249]	; 0xf9
     b12:	4553      	cmp	r3, r10
     b14:	d1df      	bne.n	ad6 <USBHost::deviceConnected(int, int, bool, USBHostHub*)+0x22>
     b16:	f1b8 0f00 	cmp.w	r8, #0
     b1a:	d002      	beq.n	b22 <USBHost::deviceConnected(int, int, bool, USBHostHub*)+0x6e>
     b1c:	6821      	ldr	r1, [r4, #0]
     b1e:	4588      	cmp	r8, r1
     b20:	d1d9      	bne.n	ad6 <USBHost::deviceConnected(int, int, bool, USBHostHub*)+0x22>
     b22:	eb09 0305 	add.w	r3, r9, r5
     b26:	f503 5302 	add.w	r3, r3, #8320	; 0x2080
     b2a:	789b      	ldrb	r3, [r3, #2]
     b2c:	2b00      	cmp	r3, #0
     b2e:	d0d7      	beq.n	ae0 <USBHost::deviceConnected(int, int, bool, USBHostHub*)+0x2c>
     b30:	e8bd 8ff8 	ldmia.w	sp!, {r3, r4, r5, r6, r7, r8, r9, r10, r11, pc}

00000b34 <USBHost::deviceDisconnected(int, int, USBHostHub*, unsigned long)>:
     b34:	e92d 47f0 	stmdb	sp!, {r4, r5, r6, r7, r8, r9, r10, lr}
     b38:	f500 54d9 	add.w	r4, r0, #6944	; 0x1b20
     b3c:	4681      	mov	r9, r0
     b3e:	4698      	mov	r8, r3
     b40:	b2cf      	uxtb	r7, r1
     b42:	fa5f fa82 	uxtb.w	r10, r2
     b46:	340c      	adds	r4, #12
     b48:	2500      	movs	r5, #0
     b4a:	f894 60f8 	ldrb.w	r6, [r4, #248]	; 0xf8
     b4e:	42be      	cmp	r6, r7
     b50:	d006      	beq.n	b60 <USBHost::deviceDisconnected(int, int, USBHostHub*, unsigned long)+0x2c>
     b52:	3501      	adds	r5, #1
     b54:	2d05      	cmp	r5, #5
     b56:	f504 7486 	add.w	r4, r4, #268	; 0x10c
     b5a:	d1f6      	bne.n	b4a <USBHost::deviceDisconnected(int, int, USBHostHub*, unsigned long)+0x16>
     b5c:	e8bd 87f0 	ldmia.w	sp!, {r4, r5, r6, r7, r8, r9, r10, pc}
     b60:	f894 30f9 	ldrb.w	r3, [r4, #249]	; 0xf9
     b64:	4553      	cmp	r3, r10
     b66:	d1f4      	bne.n	b52 <USBHost::deviceDisconnected(int, int, USBHostHub*, unsigned long)+0x1e>
     b68:	f1b8 0f00 	cmp.w	r8, #0
     b6c:	d002      	beq.n	b74 <USBHost::deviceDisconnected(int, int, USBHostHub*, unsigned long)+0x40>
     b6e:	6821      	ldr	r1, [r4, #0]
     b70:	4588      	cmp	r8, r1
     b72:	d1ee      	bne.n	b52 <USBHost::deviceDisconnected(int, int, USBHostHub*, unsigned long)+0x1e>
     b74:	eb09 0305 	add.w	r3, r9, r5
     b78:	f503 5301 	add.w	r3, r3, #8256	; 0x2040
     b7c:	3320      	adds	r3, #32
     b7e:	791b      	ldrb	r3, [r3, #4]
     b80:	b90b      	cbnz	r3, b86 <USBHost::deviceDisconnected(int, int, USBHostHub*, unsigned long)+0x52>
     b82:	e8bd 87f0 	ldmia.w	sp!, {r4, r5, r6, r7, r8, r9, r10, pc}
     b86:	f242 1450 	movw	r4, #8528	; 0x2150
     b8a:	f859 0004 	ldr.w	r0, [r9, r4]
     b8e:	2100      	movs	r1, #0
     b90:	f002 fa94 	bl	30bc <osMailAlloc>
     b94:	2302      	movs	r3, #2
     b96:	7207      	strb	r7, [r0, #8]
     b98:	f880 a009 	strb.w	r10, [r0, #9]
     b9c:	f8c0 800c 	str.w	r8, [r0, #12]
     ba0:	7003      	strb	r3, [r0, #0]
     ba2:	4601      	mov	r1, r0
     ba4:	f859 0004 	ldr.w	r0, [r9, r4]
     ba8:	e8bd 47f0 	ldmia.w	sp!, {r4, r5, r6, r7, r8, r9, r10, lr}
     bac:	f002 baa8 	b.w	3100 <osMailPut>

00000bb0 <USBHost::transferCompleted(unsigned long)>:
     bb0:	e92d 41f0 	stmdb	sp!, {r4, r5, r6, r7, r8, lr}
     bb4:	b082      	sub	sp, #8
     bb6:	9101      	str	r1, [sp, #4]
     bb8:	9b01      	ldr	r3, [sp, #4]
     bba:	2b00      	cmp	r3, #0
     bbc:	d042      	beq.n	c44 <Stack_Size+0x44>
     bbe:	2300      	movs	r3, #0
     bc0:	9c01      	ldr	r4, [sp, #4]
     bc2:	68a2      	ldr	r2, [r4, #8]
     bc4:	9201      	str	r2, [sp, #4]
     bc6:	68a2      	ldr	r2, [r4, #8]
     bc8:	60a3      	str	r3, [r4, #8]
     bca:	9a01      	ldr	r2, [sp, #4]
     bcc:	4623      	mov	r3, r4
     bce:	2a00      	cmp	r2, #0
     bd0:	d1f6      	bne.n	bc0 <USBHost::transferCompleted(unsigned long)+0x10>
     bd2:	2c00      	cmp	r4, #0
     bd4:	d036      	beq.n	c44 <Stack_Size+0x44>
     bd6:	f500 5805 	add.w	r8, r0, #8512	; 0x2140
     bda:	f108 0810 	add.w	r8, r8, #16
     bde:	68a6      	ldr	r6, [r4, #8]
     be0:	6923      	ldr	r3, [r4, #16]
     be2:	b1ab      	cbz	r3, c10 <Stack_Size+0x10>
     be4:	6925      	ldr	r5, [r4, #16]
     be6:	6823      	ldr	r3, [r4, #0]
     be8:	0f1b      	lsrs	r3, r3, #28
     bea:	d014      	beq.n	c16 <Stack_Size+0x16>
     bec:	6827      	ldr	r7, [r4, #0]
     bee:	0f3f      	lsrs	r7, r7, #28
     bf0:	4628      	mov	r0, r5
     bf2:	4621      	mov	r1, r4
     bf4:	f001 fc24 	bl	2440 <USBEndpoint::unqueueTransfer(HCTD volatile*)>
     bf8:	f895 3024 	ldrb.w	r3, [r5, #36]	; 0x24
     bfc:	b99b      	cbnz	r3, c26 <Stack_Size+0x26>
     bfe:	4639      	mov	r1, r7
     c00:	4628      	mov	r0, r5
     c02:	f001 fbf3 	bl	23ec <USBEndpoint::setState(unsigned char)>
     c06:	6868      	ldr	r0, [r5, #4]
     c08:	2101      	movs	r1, #1
     c0a:	2200      	movs	r2, #0
     c0c:	f002 f928 	bl	2e60 <osMessagePut>
     c10:	b1c6      	cbz	r6, c44 <Stack_Size+0x44>
     c12:	4634      	mov	r4, r6
     c14:	e7e3      	b.n	bde <USBHost::transferCompleted(unsigned long)+0x2e>
     c16:	6863      	ldr	r3, [r4, #4]
     c18:	b1bb      	cbz	r3, c4a <Stack_Size+0x4a>
     c1a:	6862      	ldr	r2, [r4, #4]
     c1c:	6b6b      	ldr	r3, [r5, #52]	; 0x34
     c1e:	2710      	movs	r7, #16
     c20:	1ad3      	subs	r3, r2, r3
     c22:	632b      	str	r3, [r5, #48]	; 0x30
     c24:	e7e4      	b.n	bf0 <USBHost::transferCompleted(unsigned long)+0x40>
     c26:	f8d8 0000 	ldr.w	r0, [r8]
     c2a:	2100      	movs	r1, #0
     c2c:	f002 fa46 	bl	30bc <osMailAlloc>
     c30:	2304      	movs	r3, #4
     c32:	6044      	str	r4, [r0, #4]
     c34:	72c7      	strb	r7, [r0, #11]
     c36:	7003      	strb	r3, [r0, #0]
     c38:	4601      	mov	r1, r0
     c3a:	f8d8 0000 	ldr.w	r0, [r8]
     c3e:	f002 fa5f 	bl	3100 <osMailPut>
     c42:	e7dc      	b.n	bfe <USBHost::transferCompleted(unsigned long)+0x4e>
     c44:	b002      	add	sp, #8
     c46:	e8bd 81f0 	ldmia.w	sp!, {r4, r5, r6, r7, r8, pc}
     c4a:	2710      	movs	r7, #16
     c4c:	e7d0      	b.n	bf0 <USBHost::transferCompleted(unsigned long)+0x40>
     c4e:	bf00      	nop

00000c50 <USBHost::USBHost()>:
     c50:	e92d 4ff0 	stmdb	sp!, {r4, r5, r6, r7, r8, r9, r10, r11, lr}
     c54:	b083      	sub	sp, #12
     c56:	4683      	mov	r11, r0
     c58:	f001 fc12 	bl	2480 <USBHALHost::USBHALHost()>
     c5c:	4b72      	ldr	r3, [pc, #456]	; (e28 <USBHost::USBHost()+0x1d8>)
     c5e:	46d8      	mov	r8, r11
     c60:	f848 3bc8 	str.w	r3, [r8], #200
     c64:	f50b 59d8 	add.w	r9, r11, #6912	; 0x1b00
     c68:	4644      	mov	r4, r8
     c6a:	f109 0908 	add.w	r9, r9, #8
     c6e:	f10b 07cc 	add.w	r7, r11, #204	; 0xcc
     c72:	f04f 0a00 	mov.w	r10, #0
     c76:	e00c      	b.n	c92 <USBHost::USBHost()+0x42>
     c78:	f104 0038 	add.w	r0, r4, #56	; 0x38
     c7c:	2100      	movs	r1, #0
     c7e:	f003 fb15 	bl	42ac <mbed::FunctionPointer::FunctionPointer(void (*)())>
     c82:	230f      	movs	r3, #15
     c84:	f8c4 a054 	str.w	r10, [r4, #84]	; 0x54
     c88:	f884 3025 	strb.w	r3, [r4, #37]	; 0x25
     c8c:	3470      	adds	r4, #112	; 0x70
     c8e:	454c      	cmp	r4, r9
     c90:	d018      	beq.n	cc4 <USBHost::USBHost()+0x74>
     c92:	f104 0510 	add.w	r5, r4, #16
     c96:	2100      	movs	r1, #0
     c98:	2214      	movs	r2, #20
     c9a:	ebc8 0604 	rsb	r6, r8, r4
     c9e:	4628      	mov	r0, r5
     ca0:	f005 f86f 	bl	5d82 <memset>
     ca4:	19f3      	adds	r3, r6, r7
     ca6:	2201      	movs	r2, #1
     ca8:	609d      	str	r5, [r3, #8]
     caa:	605a      	str	r2, [r3, #4]
     cac:	f104 0008 	add.w	r0, r4, #8
     cb0:	2100      	movs	r1, #0
     cb2:	f002 f8bb 	bl	2e2c <osMessageCreate>
     cb6:	51f0      	str	r0, [r6, r7]
     cb8:	2800      	cmp	r0, #0
     cba:	d1dd      	bne.n	c78 <USBHost::USBHost()+0x28>
     cbc:	485b      	ldr	r0, [pc, #364]	; (e2c <USBHost::USBHost()+0x1dc>)
     cbe:	f003 fa5f 	bl	4180 <error>
     cc2:	e7d9      	b.n	c78 <USBHost::USBHost()+0x28>
     cc4:	f50b 56d9 	add.w	r6, r11, #6944	; 0x1b20
     cc8:	3608      	adds	r6, #8
     cca:	4634      	mov	r4, r6
     ccc:	f206 553c 	addw	r5, r6, #1340	; 0x53c
     cd0:	4620      	mov	r0, r4
     cd2:	f504 7486 	add.w	r4, r4, #268	; 0x10c
     cd6:	f7ff fe3b 	bl	950 <USBDeviceConnected::USBDeviceConnected()>
     cda:	42ac      	cmp	r4, r5
     cdc:	d1f8      	bne.n	cd0 <USBHost::USBHost()+0x80>
     cde:	f50b 5802 	add.w	r8, r11, #8320	; 0x2080
     ce2:	f108 0808 	add.w	r8, r8, #8
     ce6:	4640      	mov	r0, r8
     ce8:	f50b 5703 	add.w	r7, r11, #8384	; 0x20c0
     cec:	f001 f900 	bl	1ef0 <USBHostHub::USBHostHub()>
     cf0:	4638      	mov	r0, r7
     cf2:	f04f 0a00 	mov.w	r10, #0
     cf6:	f50b 5405 	add.w	r4, r11, #8512	; 0x2140
     cfa:	f001 f8f9 	bl	1ef0 <USBHostHub::USBHostHub()>
     cfe:	f44f 6340 	mov.w	r3, #3072	; 0xc00
     d02:	f50b 5004 	add.w	r0, r11, #8448	; 0x2100
     d06:	f104 0920 	add.w	r9, r4, #32
     d0a:	e88d 0408 	stmia.w	sp, {r3, r10}
     d0e:	4948      	ldr	r1, [pc, #288]	; (e30 <USBHost::USBHost()+0x1e0>)
     d10:	4653      	mov	r3, r10
     d12:	465a      	mov	r2, r11
     d14:	3004      	adds	r0, #4
     d16:	f003 f87f 	bl	3e18 <rtos::Thread::Thread(void (*)(void const*), void*, osPriority, unsigned long, unsigned char*)>
     d1a:	f104 0558 	add.w	r5, r4, #88	; 0x58
     d1e:	4648      	mov	r0, r9
     d20:	4651      	mov	r1, r10
     d22:	2238      	movs	r2, #56	; 0x38
     d24:	f005 f82d 	bl	5d82 <memset>
     d28:	f8c4 9104 	str.w	r9, [r4, #260]	; 0x104
     d2c:	4628      	mov	r0, r5
     d2e:	4651      	mov	r1, r10
     d30:	22ac      	movs	r2, #172	; 0xac
     d32:	f005 f826 	bl	5d82 <memset>
     d36:	220a      	movs	r2, #10
     d38:	f504 7182 	add.w	r1, r4, #260	; 0x104
     d3c:	2310      	movs	r3, #16
     d3e:	6162      	str	r2, [r4, #20]
     d40:	f8c4 5108 	str.w	r5, [r4, #264]	; 0x108
     d44:	61e1      	str	r1, [r4, #28]
     d46:	61a3      	str	r3, [r4, #24]
     d48:	4651      	mov	r1, r10
     d4a:	f104 0014 	add.w	r0, r4, #20
     d4e:	f002 f99b 	bl	3088 <osMailCreate>
     d52:	f242 1350 	movw	r3, #8528	; 0x2150
     d56:	f84b 0003 	str.w	r0, [r11, r3]
     d5a:	f50b 5009 	add.w	r0, r11, #8768	; 0x2240
     d5e:	300c      	adds	r0, #12
     d60:	f003 f80e 	bl	3d80 <rtos::Mutex::Mutex()>
     d64:	f50b 5009 	add.w	r0, r11, #8768	; 0x2240
     d68:	3020      	adds	r0, #32
     d6a:	f003 f809 	bl	3d80 <rtos::Mutex::Mutex()>
     d6e:	f641 3414 	movw	r4, #6932	; 0x1b14
     d72:	f641 3210 	movw	r2, #6928	; 0x1b10
     d76:	f641 3c0c 	movw	r12, #6924	; 0x1b0c
     d7a:	f641 3e18 	movw	lr, #6936	; 0x1b18
     d7e:	f641 301c 	movw	r0, #6940	; 0x1b1c
     d82:	f50b 51d9 	add.w	r1, r11, #6944	; 0x1b20
     d86:	f641 3324 	movw	r3, #6948	; 0x1b24
     d8a:	f50b 59e1 	add.w	r9, r11, #7200	; 0x1c20
     d8e:	f84b a00c 	str.w	r10, [r11, r12]
     d92:	4655      	mov	r5, r10
     d94:	f84b a002 	str.w	r10, [r11, r2]
     d98:	f109 0914 	add.w	r9, r9, #20
     d9c:	f84b a004 	str.w	r10, [r11, r4]
     da0:	4652      	mov	r2, r10
     da2:	f84b a00e 	str.w	r10, [r11, lr]
     da6:	465c      	mov	r4, r11
     da8:	f84b a000 	str.w	r10, [r11, r0]
     dac:	f8c1 a000 	str.w	r10, [r1]
     db0:	f8ab a0c4 	strh.w	r10, [r11, #196]	; 0xc4
     db4:	f80b a003 	strb.w	r10, [r11, r3]
     db8:	eb0b 0c05 	add.w	r12, r11, r5
     dbc:	f50c 5301 	add.w	r3, r12, #8256	; 0x2040
     dc0:	3501      	adds	r5, #1
     dc2:	f504 5e01 	add.w	lr, r4, #8256	; 0x2040
     dc6:	469a      	mov	r10, r3
     dc8:	f50c 5c02 	add.w	r12, r12, #8320	; 0x2080
     dcc:	2d05      	cmp	r5, #5
     dce:	f883 2024 	strb.w	r2, [r3, #36]	; 0x24
     dd2:	f104 0404 	add.w	r4, r4, #4
     dd6:	f886 5102 	strb.w	r5, [r6, #258]	; 0x102
     dda:	f88a 203d 	strb.w	r2, [r10, #61]	; 0x3d
     dde:	f04f 0600 	mov.w	r6, #0
     de2:	f88c 2002 	strb.w	r2, [r12, #2]
     de6:	f88e 2029 	strb.w	r2, [lr, #41]	; 0x29
     dea:	f88e 202a 	strb.w	r2, [lr, #42]	; 0x2a
     dee:	f88e 202b 	strb.w	r2, [lr, #43]	; 0x2b
     df2:	f88e 202c 	strb.w	r2, [lr, #44]	; 0x2c
     df6:	d003      	beq.n	e00 <USBHost::USBHost()+0x1b0>
     df8:	464e      	mov	r6, r9
     dfa:	f509 7986 	add.w	r9, r9, #268	; 0x10c
     dfe:	e7db      	b.n	db8 <USBHost::USBHost()+0x168>
     e00:	4640      	mov	r0, r8
     e02:	4659      	mov	r1, r11
     e04:	f001 f88c 	bl	1f20 <USBHostHub::setHost(USBHost*)>
     e08:	f242 03f8 	movw	r3, #8440	; 0x20f8
     e0c:	4638      	mov	r0, r7
     e0e:	f80b 6003 	strb.w	r6, [r11, r3]
     e12:	4659      	mov	r1, r11
     e14:	f001 f884 	bl	1f20 <USBHostHub::setHost(USBHost*)>
     e18:	f242 03f9 	movw	r3, #8441	; 0x20f9
     e1c:	4658      	mov	r0, r11
     e1e:	f80b 6003 	strb.w	r6, [r11, r3]
     e22:	b003      	add	sp, #12
     e24:	e8bd 8ff0 	ldmia.w	sp!, {r4, r5, r6, r7, r8, r9, r10, r11, pc}
     e28:	00007e68 	.word	0x00007e68
     e2c:	00007e78 	.word	0x00007e78
     e30:	00001cbd 	.word	0x00001cbd

00000e34 <USBHost::getHostInst()>:
     e34:	b538      	push	{r3, r4, r5, lr}
     e36:	4c08      	ldr	r4, [pc, #32]	; (e58 <USBHost::getHostInst()+0x24>)
     e38:	6820      	ldr	r0, [r4, #0]
     e3a:	b100      	cbz	r0, e3e <USBHost::getHostInst()+0xa>
     e3c:	bd38      	pop	{r3, r4, r5, pc}
     e3e:	f242 4014 	movw	r0, #9236	; 0x2414
     e42:	f004 fb1f 	bl	5484 <operator new(unsigned int)>
     e46:	4605      	mov	r5, r0
     e48:	f7ff ff02 	bl	c50 <USBHost::USBHost()>
     e4c:	4628      	mov	r0, r5
     e4e:	6025      	str	r5, [r4, #0]
     e50:	f001 fb42 	bl	24d8 <USBHALHost::init()>
     e54:	6820      	ldr	r0, [r4, #0]
     e56:	bd38      	pop	{r3, r4, r5, pc}
     e58:	10000200 	.word	0x10000200

00000e5c <USBHost::unqueueEndpoint(USBEndpoint*)>:
     e5c:	f641 3310 	movw	r3, #6928	; 0x1b10
     e60:	e92d 41f0 	stmdb	sp!, {r4, r5, r6, r7, r8, lr}
     e64:	58c5      	ldr	r5, [r0, r3]
     e66:	4606      	mov	r6, r0
     e68:	b145      	cbz	r5, e7c <USBHost::unqueueEndpoint(USBEndpoint*)+0x20>
     e6a:	42a9      	cmp	r1, r5
     e6c:	d103      	bne.n	e76 <USBHost::unqueueEndpoint(USBEndpoint*)+0x1a>
     e6e:	e014      	b.n	e9a <USBHost::unqueueEndpoint(USBEndpoint*)+0x3e>
     e70:	42a1      	cmp	r1, r4
     e72:	d013      	beq.n	e9c <USBHost::unqueueEndpoint(USBEndpoint*)+0x40>
     e74:	4625      	mov	r5, r4
     e76:	6d6c      	ldr	r4, [r5, #84]	; 0x54
     e78:	2c00      	cmp	r4, #0
     e7a:	d1f9      	bne.n	e70 <USBHost::unqueueEndpoint(USBEndpoint*)+0x14>
     e7c:	f641 3314 	movw	r3, #6932	; 0x1b14
     e80:	58f5      	ldr	r5, [r6, r3]
     e82:	b1f5      	cbz	r5, ec2 <USBHost::unqueueEndpoint(USBEndpoint*)+0x66>
     e84:	42a9      	cmp	r1, r5
     e86:	d103      	bne.n	e90 <USBHost::unqueueEndpoint(USBEndpoint*)+0x34>
     e88:	e007      	b.n	e9a <USBHost::unqueueEndpoint(USBEndpoint*)+0x3e>
     e8a:	42a1      	cmp	r1, r4
     e8c:	d006      	beq.n	e9c <USBHost::unqueueEndpoint(USBEndpoint*)+0x40>
     e8e:	4625      	mov	r5, r4
     e90:	6d6c      	ldr	r4, [r5, #84]	; 0x54
     e92:	2c00      	cmp	r4, #0
     e94:	d1f9      	bne.n	e8a <USBHost::unqueueEndpoint(USBEndpoint*)+0x2e>
     e96:	e8bd 81f0 	ldmia.w	sp!, {r4, r5, r6, r7, r8, pc}
     e9a:	462c      	mov	r4, r5
     e9c:	6d67      	ldr	r7, [r4, #84]	; 0x54
     e9e:	4628      	mov	r0, r5
     ea0:	4639      	mov	r1, r7
     ea2:	b187      	cbz	r7, ec6 <USBHost::unqueueEndpoint(USBEndpoint*)+0x6a>
     ea4:	f641 3510 	movw	r5, #6928	; 0x1b10
     ea8:	f001 fae2 	bl	2470 <USBEndpoint::queueEndpoint(USBEndpoint*)>
     eac:	5973      	ldr	r3, [r6, r5]
     eae:	429c      	cmp	r4, r3
     eb0:	d029      	beq.n	f06 <USBHost::unqueueEndpoint(USBEndpoint*)+0xaa>
     eb2:	f641 3514 	movw	r5, #6932	; 0x1b14
     eb6:	5973      	ldr	r3, [r6, r5]
     eb8:	429c      	cmp	r4, r3
     eba:	d01c      	beq.n	ef6 <USBHost::unqueueEndpoint(USBEndpoint*)+0x9a>
     ebc:	230f      	movs	r3, #15
     ebe:	f884 3025 	strb.w	r3, [r4, #37]	; 0x25
     ec2:	e8bd 81f0 	ldmia.w	sp!, {r4, r5, r6, r7, r8, pc}
     ec6:	f641 3810 	movw	r8, #6928	; 0x1b10
     eca:	f001 fad1 	bl	2470 <USBEndpoint::queueEndpoint(USBEndpoint*)>
     ece:	f856 3008 	ldr.w	r3, [r6, r8]
     ed2:	429c      	cmp	r4, r3
     ed4:	d02b      	beq.n	f2e <USBHost::unqueueEndpoint(USBEndpoint*)+0xd2>
     ed6:	f641 3814 	movw	r8, #6932	; 0x1b14
     eda:	f856 3008 	ldr.w	r3, [r6, r8]
     ede:	429c      	cmp	r4, r3
     ee0:	d01d      	beq.n	f1e <USBHost::unqueueEndpoint(USBEndpoint*)+0xc2>
     ee2:	f894 3024 	ldrb.w	r3, [r4, #36]	; 0x24
     ee6:	2b02      	cmp	r3, #2
     ee8:	d015      	beq.n	f16 <USBHost::unqueueEndpoint(USBEndpoint*)+0xba>
     eea:	2b03      	cmp	r3, #3
     eec:	d1e6      	bne.n	ebc <USBHost::unqueueEndpoint(USBEndpoint*)+0x60>
     eee:	f506 56d9 	add.w	r6, r6, #6944	; 0x1b20
     ef2:	6035      	str	r5, [r6, #0]
     ef4:	e7e2      	b.n	ebc <USBHost::unqueueEndpoint(USBEndpoint*)+0x60>
     ef6:	6d63      	ldr	r3, [r4, #84]	; 0x54
     ef8:	4630      	mov	r0, r6
     efa:	6d99      	ldr	r1, [r3, #88]	; 0x58
     efc:	f001 fb94 	bl	2628 <USBHALHost::updateInterruptHeadED(unsigned long)>
     f00:	6d63      	ldr	r3, [r4, #84]	; 0x54
     f02:	5173      	str	r3, [r6, r5]
     f04:	e7da      	b.n	ebc <USBHost::unqueueEndpoint(USBEndpoint*)+0x60>
     f06:	6d63      	ldr	r3, [r4, #84]	; 0x54
     f08:	4630      	mov	r0, r6
     f0a:	6d99      	ldr	r1, [r3, #88]	; 0x58
     f0c:	f001 fb80 	bl	2610 <USBHALHost::updateBulkHeadED(unsigned long)>
     f10:	6d63      	ldr	r3, [r4, #84]	; 0x54
     f12:	5173      	str	r3, [r6, r5]
     f14:	e7d2      	b.n	ebc <USBHost::unqueueEndpoint(USBEndpoint*)+0x60>
     f16:	f641 331c 	movw	r3, #6940	; 0x1b1c
     f1a:	50f5      	str	r5, [r6, r3]
     f1c:	e7ce      	b.n	ebc <USBHost::unqueueEndpoint(USBEndpoint*)+0x60>
     f1e:	4639      	mov	r1, r7
     f20:	4630      	mov	r0, r6
     f22:	f001 fb81 	bl	2628 <USBHALHost::updateInterruptHeadED(unsigned long)>
     f26:	6d63      	ldr	r3, [r4, #84]	; 0x54
     f28:	f846 3008 	str.w	r3, [r6, r8]
     f2c:	e7d9      	b.n	ee2 <USBHost::unqueueEndpoint(USBEndpoint*)+0x86>
     f2e:	4639      	mov	r1, r7
     f30:	4630      	mov	r0, r6
     f32:	f001 fb6d 	bl	2610 <USBHALHost::updateBulkHeadED(unsigned long)>
     f36:	6d63      	ldr	r3, [r4, #84]	; 0x54
     f38:	f846 3008 	str.w	r3, [r6, r8]
     f3c:	e7d1      	b.n	ee2 <USBHost::unqueueEndpoint(USBEndpoint*)+0x86>
     f3e:	bf00      	nop

00000f40 <USBHost::freeDevice(USBDeviceConnected*)>:
     f40:	e92d 4ff0 	stmdb	sp!, {r4, r5, r6, r7, r8, r9, r10, r11, lr}
     f44:	f891 3103 	ldrb.w	r3, [r1, #259]	; 0x103
     f48:	b085      	sub	sp, #20
     f4a:	2b09      	cmp	r3, #9
     f4c:	460e      	mov	r6, r1
     f4e:	4605      	mov	r5, r0
     f50:	d015      	beq.n	f7e <USBHost::freeDevice(USBDeviceConnected*)+0x3e>
     f52:	6870      	ldr	r0, [r6, #4]
     f54:	b110      	cbz	r0, f5c <USBHost::freeDevice(USBDeviceConnected*)+0x1c>
     f56:	4631      	mov	r1, r6
     f58:	f000 ffea 	bl	1f30 <USBHostHub::deviceDisconnected(USBDeviceConnected*)>
     f5c:	f505 53d9 	add.w	r3, r5, #6944	; 0x1b20
     f60:	3308      	adds	r3, #8
     f62:	f04f 0b00 	mov.w	r11, #0
     f66:	429e      	cmp	r6, r3
     f68:	f503 7386 	add.w	r3, r3, #268	; 0x10c
     f6c:	d01e      	beq.n	fac <USBHost::freeDevice(USBDeviceConnected*)+0x6c>
     f6e:	f10b 0b01 	add.w	r11, r11, #1
     f72:	f1bb 0f05 	cmp.w	r11, #5
     f76:	d1f6      	bne.n	f66 <USBHost::freeDevice(USBDeviceConnected*)+0x26>
     f78:	b005      	add	sp, #20
     f7a:	e8bd 8ff0 	ldmia.w	sp!, {r4, r5, r6, r7, r8, r9, r10, r11, pc}
     f7e:	6808      	ldr	r0, [r1, #0]
     f80:	2800      	cmp	r0, #0
     f82:	d07c      	beq.n	107e <USBHost::freeDevice(USBDeviceConnected*)+0x13e>
     f84:	f000 ffdc 	bl	1f40 <USBHostHub::hubDisconnected()>
     f88:	f505 5302 	add.w	r3, r5, #8320	; 0x2080
     f8c:	6832      	ldr	r2, [r6, #0]
     f8e:	3308      	adds	r3, #8
     f90:	429a      	cmp	r2, r3
     f92:	d07b      	beq.n	108c <USBHost::freeDevice(USBDeviceConnected*)+0x14c>
     f94:	f505 5303 	add.w	r3, r5, #8384	; 0x20c0
     f98:	429a      	cmp	r2, r3
     f9a:	bf08      	it	eq
     f9c:	2301      	moveq	r3, #1
     f9e:	d1d8      	bne.n	f52 <USBHost::freeDevice(USBDeviceConnected*)+0x12>
     fa0:	442b      	add	r3, r5
     fa2:	f242 02f8 	movw	r2, #8440	; 0x20f8
     fa6:	2100      	movs	r1, #0
     fa8:	5499      	strb	r1, [r3, r2]
     faa:	e7d2      	b.n	f52 <USBHost::freeDevice(USBDeviceConnected*)+0x12>
     fac:	eb05 030b 	add.w	r3, r5, r11
     fb0:	f503 5101 	add.w	r1, r3, #8256	; 0x2040
     fb4:	2200      	movs	r2, #0
     fb6:	460b      	mov	r3, r1
     fb8:	f881 2024 	strb.w	r2, [r1, #36]	; 0x24
     fbc:	4690      	mov	r8, r2
     fbe:	eb05 0b8b 	add.w	r11, r5, r11, lsl #2
     fc2:	f883 203d 	strb.w	r2, [r3, #61]	; 0x3d
     fc6:	f106 0938 	add.w	r9, r6, #56	; 0x38
     fca:	eb0b 0308 	add.w	r3, r11, r8
     fce:	f503 5301 	add.w	r3, r3, #8256	; 0x2040
     fd2:	fa5f f788 	uxtb.w	r7, r8
     fd6:	f04f 0200 	mov.w	r2, #0
     fda:	f883 2029 	strb.w	r2, [r3, #41]	; 0x29
     fde:	4639      	mov	r1, r7
     fe0:	4630      	mov	r0, r6
     fe2:	f7ff fcc7 	bl	974 <USBDeviceConnected::getInterface(unsigned char)>
     fe6:	2800      	cmp	r0, #0
     fe8:	d03c      	beq.n	1064 <USBHost::freeDevice(USBDeviceConnected*)+0x124>
     fea:	2400      	movs	r4, #0
     fec:	e023      	b.n	1036 <USBHost::freeDevice(USBDeviceConnected*)+0xf6>
     fee:	4639      	mov	r1, r7
     ff0:	4630      	mov	r0, r6
     ff2:	f7ff fd51 	bl	a98 <USBDeviceConnected::getEndpoint(unsigned char, unsigned char)>
     ff6:	4682      	mov	r10, r0
     ff8:	4601      	mov	r1, r0
     ffa:	4628      	mov	r0, r5
     ffc:	f1ba 0f00 	cmp.w	r10, #0
    1000:	d018      	beq.n	1034 <USBHost::freeDevice(USBDeviceConnected*)+0xf4>
    1002:	f8da 2058 	ldr.w	r2, [r10, #88]	; 0x58
    1006:	6813      	ldr	r3, [r2, #0]
    1008:	f8d2 c000 	ldr.w	r12, [r2]
    100c:	f443 4380 	orr.w	r3, r3, #16384	; 0x4000
    1010:	6013      	str	r3, [r2, #0]
    1012:	f7ff ff23 	bl	e5c <USBHost::unqueueEndpoint(USBEndpoint*)>
    1016:	4628      	mov	r0, r5
    1018:	f8da 105c 	ldr.w	r1, [r10, #92]	; 0x5c
    101c:	f001 fb8a 	bl	2734 <USBHALHost::freeTD(unsigned char volatile*)>
    1020:	4628      	mov	r0, r5
    1022:	f8da 1060 	ldr.w	r1, [r10, #96]	; 0x60
    1026:	f001 fb85 	bl	2734 <USBHALHost::freeTD(unsigned char volatile*)>
    102a:	4628      	mov	r0, r5
    102c:	f8da 1058 	ldr.w	r1, [r10, #88]	; 0x58
    1030:	f001 fb78 	bl	2724 <USBHALHost::freeED(unsigned char volatile*)>
    1034:	3401      	adds	r4, #1
    1036:	4630      	mov	r0, r6
    1038:	4639      	mov	r1, r7
    103a:	f7ff fc9b 	bl	974 <USBDeviceConnected::getInterface(unsigned char)>
    103e:	7843      	ldrb	r3, [r0, #1]
    1040:	b2e2      	uxtb	r2, r4
    1042:	429c      	cmp	r4, r3
    1044:	dbd3      	blt.n	fee <USBHost::freeDevice(USBDeviceConnected*)+0xae>
    1046:	f896 20fc 	ldrb.w	r2, [r6, #252]	; 0xfc
    104a:	f896 30fd 	ldrb.w	r3, [r6, #253]	; 0xfd
    104e:	4810      	ldr	r0, [pc, #64]	; (1090 <USBHost::freeDevice(USBDeviceConnected*)+0x150>)
    1050:	9201      	str	r2, [sp, #4]
    1052:	9302      	str	r3, [sp, #8]
    1054:	f8cd 9000 	str.w	r9, [sp]
    1058:	490e      	ldr	r1, [pc, #56]	; (1094 <USBHost::freeDevice(USBDeviceConnected*)+0x154>)
    105a:	f240 12bd 	movw	r2, #445	; 0x1bd
    105e:	4633      	mov	r3, r6
    1060:	f004 ff70 	bl	5f44 <iprintf>
    1064:	f108 0801 	add.w	r8, r8, #1
    1068:	f1b8 0f04 	cmp.w	r8, #4
    106c:	f109 093c 	add.w	r9, r9, #60	; 0x3c
    1070:	d1ab      	bne.n	fca <USBHost::freeDevice(USBDeviceConnected*)+0x8a>
    1072:	4630      	mov	r0, r6
    1074:	b005      	add	sp, #20
    1076:	e8bd 4ff0 	ldmia.w	sp!, {r4, r5, r6, r7, r8, r9, r10, r11, lr}
    107a:	f7ff bcd5 	b.w	a28 <USBDeviceConnected::disconnect()>
    107e:	4905      	ldr	r1, [pc, #20]	; (1094 <USBHost::freeDevice(USBDeviceConnected*)+0x154>)
    1080:	f44f 72ca 	mov.w	r2, #404	; 0x194
    1084:	4804      	ldr	r0, [pc, #16]	; (1098 <USBHost::freeDevice(USBDeviceConnected*)+0x158>)
    1086:	f004 ff5d 	bl	5f44 <iprintf>
    108a:	e762      	b.n	f52 <USBHost::freeDevice(USBDeviceConnected*)+0x12>
    108c:	2300      	movs	r3, #0
    108e:	e787      	b.n	fa0 <USBHost::freeDevice(USBDeviceConnected*)+0x60>
    1090:	00007f00 	.word	0x00007f00
    1094:	00007ec4 	.word	0x00007ec4
    1098:	00007ea0 	.word	0x00007ea0

0000109c <USBHost::getDevice(unsigned char)>:
    109c:	2904      	cmp	r1, #4
    109e:	d80d      	bhi.n	10bc <USBHost::getDevice(unsigned char)+0x20>
    10a0:	1843      	adds	r3, r0, r1
    10a2:	f503 5301 	add.w	r3, r3, #8256	; 0x2040
    10a6:	3320      	adds	r3, #32
    10a8:	791b      	ldrb	r3, [r3, #4]
    10aa:	b14b      	cbz	r3, 10c0 <USBHost::getDevice(unsigned char)+0x24>
    10ac:	f44f 7386 	mov.w	r3, #268	; 0x10c
    10b0:	fb03 0001 	mla	r0, r3, r1, r0
    10b4:	f500 50d9 	add.w	r0, r0, #6944	; 0x1b20
    10b8:	3008      	adds	r0, #8
    10ba:	4770      	bx	lr
    10bc:	2000      	movs	r0, #0
    10be:	4770      	bx	lr
    10c0:	4618      	mov	r0, r3
    10c2:	4770      	bx	lr

000010c4 <USBHost::newEndpoint(ENDPOINT_TYPE, ENDPOINT_DIRECTION, unsigned long, unsigned char)>:
    10c4:	e92d 4ff0 	stmdb	sp!, {r4, r5, r6, r7, r8, r9, r10, r11, lr}
    10c8:	b089      	sub	sp, #36	; 0x24
    10ca:	9305      	str	r3, [sp, #20]
    10cc:	4607      	mov	r7, r0
    10ce:	4689      	mov	r9, r1
    10d0:	4690      	mov	r8, r2
    10d2:	f89d b048 	ldrb.w	r11, [sp, #72]	; 0x48
    10d6:	f001 faf3 	bl	26c0 <USBHALHost::getED()>
    10da:	4682      	mov	r10, r0
    10dc:	4638      	mov	r0, r7
    10de:	f001 fb07 	bl	26f0 <USBHALHost::getTD()>
    10e2:	9006      	str	r0, [sp, #24]
    10e4:	4638      	mov	r0, r7
    10e6:	f001 fb03 	bl	26f0 <USBHALHost::getTD()>
    10ea:	2100      	movs	r1, #0
    10ec:	9007      	str	r0, [sp, #28]
    10ee:	2220      	movs	r2, #32
    10f0:	9806      	ldr	r0, [sp, #24]
    10f2:	f004 fe46 	bl	5d82 <memset>
    10f6:	9807      	ldr	r0, [sp, #28]
    10f8:	2100      	movs	r1, #0
    10fa:	2220      	movs	r2, #32
    10fc:	f004 fe41 	bl	5d82 <memset>
    1100:	37c8      	adds	r7, #200	; 0xc8
    1102:	2400      	movs	r4, #0
    1104:	9b05      	ldr	r3, [sp, #20]
    1106:	e002      	b.n	110e <USBHost::newEndpoint(ENDPOINT_TYPE, ENDPOINT_DIRECTION, unsigned long, unsigned char)+0x4a>
    1108:	f5b4 5fd2 	cmp.w	r4, #6720	; 0x1a40
    110c:	d013      	beq.n	1136 <USBHost::newEndpoint(ENDPOINT_TYPE, ENDPOINT_DIRECTION, unsigned long, unsigned char)+0x72>
    110e:	193d      	adds	r5, r7, r4
    1110:	f895 6025 	ldrb.w	r6, [r5, #37]	; 0x25
    1114:	3470      	adds	r4, #112	; 0x70
    1116:	2e0f      	cmp	r6, #15
    1118:	d1f6      	bne.n	1108 <USBHost::newEndpoint(ENDPOINT_TYPE, ENDPOINT_DIRECTION, unsigned long, unsigned char)+0x44>
    111a:	a806      	add	r0, sp, #24
    111c:	e88d 0808 	stmia.w	sp, {r3, r11}
    1120:	9002      	str	r0, [sp, #8]
    1122:	4651      	mov	r1, r10
    1124:	4628      	mov	r0, r5
    1126:	464a      	mov	r2, r9
    1128:	4643      	mov	r3, r8
    112a:	f001 f8bf 	bl	22ac <USBEndpoint::init(hcEd*, ENDPOINT_TYPE, ENDPOINT_DIRECTION, unsigned long, unsigned char, HCTD**)>
    112e:	4628      	mov	r0, r5
    1130:	b009      	add	sp, #36	; 0x24
    1132:	e8bd 8ff0 	ldmia.w	sp!, {r4, r5, r6, r7, r8, r9, r10, r11, pc}
    1136:	4905      	ldr	r1, [pc, #20]	; (114c <USBHost::newEndpoint(ENDPOINT_TYPE, ENDPOINT_DIRECTION, unsigned long, unsigned char)+0x88>)
    1138:	f240 2215 	movw	r2, #533	; 0x215
    113c:	4804      	ldr	r0, [pc, #16]	; (1150 <USBHost::newEndpoint(ENDPOINT_TYPE, ENDPOINT_DIRECTION, unsigned long, unsigned char)+0x8c>)
    113e:	f004 ff01 	bl	5f44 <iprintf>
    1142:	2500      	movs	r5, #0
    1144:	4628      	mov	r0, r5
    1146:	b009      	add	sp, #36	; 0x24
    1148:	e8bd 8ff0 	ldmia.w	sp!, {r4, r5, r6, r7, r8, r9, r10, r11, pc}
    114c:	00007ec4 	.word	0x00007ec4
    1150:	00007f48 	.word	0x00007f48

00001154 <USBHost::resetDevice(USBDeviceConnected*)>:
    1154:	b530      	push	{r4, r5, lr}
    1156:	f500 53d9 	add.w	r3, r0, #6944	; 0x1b20
    115a:	b083      	sub	sp, #12
    115c:	4605      	mov	r5, r0
    115e:	3308      	adds	r3, #8
    1160:	2400      	movs	r4, #0
    1162:	4299      	cmp	r1, r3
    1164:	f503 7386 	add.w	r3, r3, #268	; 0x10c
    1168:	d005      	beq.n	1176 <USBHost::resetDevice(USBDeviceConnected*)+0x22>
    116a:	3401      	adds	r4, #1
    116c:	2c05      	cmp	r4, #5
    116e:	d1f8      	bne.n	1162 <USBHost::resetDevice(USBDeviceConnected*)+0xe>
    1170:	2012      	movs	r0, #18
    1172:	b003      	add	sp, #12
    1174:	bd30      	pop	{r4, r5, pc}
    1176:	2064      	movs	r0, #100	; 0x64
    1178:	9101      	str	r1, [sp, #4]
    117a:	f002 fe79 	bl	3e70 <rtos::Thread::wait(unsigned long)>
    117e:	9901      	ldr	r1, [sp, #4]
    1180:	f891 30fc 	ldrb.w	r3, [r1, #252]	; 0xfc
    1184:	b973      	cbnz	r3, 11a4 <USBHost::resetDevice(USBDeviceConnected*)+0x50>
    1186:	4628      	mov	r0, r5
    1188:	f001 fadc 	bl	2744 <USBHALHost::resetRootHub()>
    118c:	2064      	movs	r0, #100	; 0x64
    118e:	f002 fe6f 	bl	3e70 <rtos::Thread::wait(unsigned long)>
    1192:	442c      	add	r4, r5
    1194:	f504 5401 	add.w	r4, r4, #8256	; 0x2040
    1198:	2301      	movs	r3, #1
    119a:	2000      	movs	r0, #0
    119c:	f884 303d 	strb.w	r3, [r4, #61]	; 0x3d
    11a0:	b003      	add	sp, #12
    11a2:	bd30      	pop	{r4, r5, pc}
    11a4:	6848      	ldr	r0, [r1, #4]
    11a6:	f891 10fd 	ldrb.w	r1, [r1, #253]	; 0xfd
    11aa:	f001 f84d 	bl	2248 <USBHostHub::portReset(unsigned char)>
    11ae:	e7ed      	b.n	118c <USBHost::resetDevice(USBDeviceConnected*)+0x38>

000011b0 <USBHost::addEndpoint(USBDeviceConnected*, unsigned char, USBEndpoint*)>:
    11b0:	e92d 41f0 	stmdb	sp!, {r4, r5, r6, r7, r8, lr}
    11b4:	461c      	mov	r4, r3
    11b6:	4606      	mov	r6, r0
    11b8:	4617      	mov	r7, r2
    11ba:	460d      	mov	r5, r1
    11bc:	b193      	cbz	r3, 11e4 <USBHost::addEndpoint(USBDeviceConnected*, unsigned char, USBEndpoint*)+0x34>
    11be:	4618      	mov	r0, r3
    11c0:	2900      	cmp	r1, #0
    11c2:	d04c      	beq.n	125e <USBHost::addEndpoint(USBDeviceConnected*, unsigned char, USBEndpoint*)+0xae>
    11c4:	f891 1102 	ldrb.w	r1, [r1, #258]	; 0x102
    11c8:	f001 f8da 	bl	2380 <USBEndpoint::setDeviceAddress(unsigned char)>
    11cc:	f895 3106 	ldrb.w	r3, [r5, #262]	; 0x106
    11d0:	b95b      	cbnz	r3, 11ea <USBHost::addEndpoint(USBDeviceConnected*, unsigned char, USBEndpoint*)+0x3a>
    11d2:	f894 3024 	ldrb.w	r3, [r4, #36]	; 0x24
    11d6:	f884 706c 	strb.w	r7, [r4, #108]	; 0x6c
    11da:	2b02      	cmp	r3, #2
    11dc:	d00f      	beq.n	11fe <USBHost::addEndpoint(USBDeviceConnected*, unsigned char, USBEndpoint*)+0x4e>
    11de:	2b03      	cmp	r3, #3
    11e0:	d023      	beq.n	122a <USBHost::addEndpoint(USBDeviceConnected*, unsigned char, USBEndpoint*)+0x7a>
    11e2:	b373      	cbz	r3, 1242 <USBHost::addEndpoint(USBDeviceConnected*, unsigned char, USBEndpoint*)+0x92>
    11e4:	2000      	movs	r0, #0
    11e6:	e8bd 81f0 	ldmia.w	sp!, {r4, r5, r6, r7, r8, pc}
    11ea:	4620      	mov	r0, r4
    11ec:	2101      	movs	r1, #1
    11ee:	f001 f8d5 	bl	239c <USBEndpoint::setSpeed(unsigned char)>
    11f2:	f894 3024 	ldrb.w	r3, [r4, #36]	; 0x24
    11f6:	f884 706c 	strb.w	r7, [r4, #108]	; 0x6c
    11fa:	2b02      	cmp	r3, #2
    11fc:	d1ef      	bne.n	11de <USBHost::addEndpoint(USBDeviceConnected*, unsigned char, USBEndpoint*)+0x2e>
    11fe:	4630      	mov	r0, r6
    1200:	f001 f9fc 	bl	25fc <USBHALHost::bulkHeadED()>
    1204:	b370      	cbz	r0, 1264 <USBHost::addEndpoint(USBDeviceConnected*, unsigned char, USBEndpoint*)+0xb4>
    1206:	f641 381c 	movw	r8, #6940	; 0x1b1c
    120a:	f856 0008 	ldr.w	r0, [r6, r8]
    120e:	4621      	mov	r1, r4
    1210:	f001 f92e 	bl	2470 <USBEndpoint::queueEndpoint(USBEndpoint*)>
    1214:	f846 4008 	str.w	r4, [r6, r8]
    1218:	6025      	str	r5, [r4, #0]
    121a:	4628      	mov	r0, r5
    121c:	4639      	mov	r1, r7
    121e:	4622      	mov	r2, r4
    1220:	f7ff fbce 	bl	9c0 <USBDeviceConnected::addEndpoint(unsigned char, USBEndpoint*)>
    1224:	2001      	movs	r0, #1
    1226:	e8bd 81f0 	ldmia.w	sp!, {r4, r5, r6, r7, r8, pc}
    122a:	4630      	mov	r0, r6
    122c:	f001 f9ec 	bl	2608 <USBHALHost::interruptHeadED()>
    1230:	b318      	cbz	r0, 127a <USBHost::addEndpoint(USBDeviceConnected*, unsigned char, USBEndpoint*)+0xca>
    1232:	f506 56d9 	add.w	r6, r6, #6944	; 0x1b20
    1236:	6830      	ldr	r0, [r6, #0]
    1238:	4621      	mov	r1, r4
    123a:	f001 f919 	bl	2470 <USBEndpoint::queueEndpoint(USBEndpoint*)>
    123e:	6034      	str	r4, [r6, #0]
    1240:	e7ea      	b.n	1218 <USBHost::addEndpoint(USBDeviceConnected*, unsigned char, USBEndpoint*)+0x68>
    1242:	4630      	mov	r0, r6
    1244:	f001 f9d4 	bl	25f0 <USBHALHost::controlHeadED()>
    1248:	b310      	cbz	r0, 1290 <USBHost::addEndpoint(USBDeviceConnected*, unsigned char, USBEndpoint*)+0xe0>
    124a:	f641 3518 	movw	r5, #6936	; 0x1b18
    124e:	5970      	ldr	r0, [r6, r5]
    1250:	4621      	mov	r1, r4
    1252:	f001 f90d 	bl	2470 <USBEndpoint::queueEndpoint(USBEndpoint*)>
    1256:	5174      	str	r4, [r6, r5]
    1258:	2001      	movs	r0, #1
    125a:	e8bd 81f0 	ldmia.w	sp!, {r4, r5, r6, r7, r8, pc}
    125e:	f001 f88f 	bl	2380 <USBEndpoint::setDeviceAddress(unsigned char)>
    1262:	e7b6      	b.n	11d2 <USBHost::addEndpoint(USBDeviceConnected*, unsigned char, USBEndpoint*)+0x22>
    1264:	4630      	mov	r0, r6
    1266:	6da1      	ldr	r1, [r4, #88]	; 0x58
    1268:	f001 f9d2 	bl	2610 <USBHALHost::updateBulkHeadED(unsigned long)>
    126c:	f641 3210 	movw	r2, #6928	; 0x1b10
    1270:	f641 331c 	movw	r3, #6940	; 0x1b1c
    1274:	50b4      	str	r4, [r6, r2]
    1276:	50f4      	str	r4, [r6, r3]
    1278:	e7ce      	b.n	1218 <USBHost::addEndpoint(USBDeviceConnected*, unsigned char, USBEndpoint*)+0x68>
    127a:	4630      	mov	r0, r6
    127c:	6da1      	ldr	r1, [r4, #88]	; 0x58
    127e:	f001 f9d3 	bl	2628 <USBHALHost::updateInterruptHeadED(unsigned long)>
    1282:	f641 3214 	movw	r2, #6932	; 0x1b14
    1286:	f506 53d9 	add.w	r3, r6, #6944	; 0x1b20
    128a:	50b4      	str	r4, [r6, r2]
    128c:	601c      	str	r4, [r3, #0]
    128e:	e7c3      	b.n	1218 <USBHost::addEndpoint(USBDeviceConnected*, unsigned char, USBEndpoint*)+0x68>
    1290:	4630      	mov	r0, r6
    1292:	6da1      	ldr	r1, [r4, #88]	; 0x58
    1294:	f001 f9c2 	bl	261c <USBHALHost::updateControlHeadED(unsigned long)>
    1298:	f641 320c 	movw	r2, #6924	; 0x1b0c
    129c:	f641 3318 	movw	r3, #6936	; 0x1b18
    12a0:	50b4      	str	r4, [r6, r2]
    12a2:	2001      	movs	r0, #1
    12a4:	50f4      	str	r4, [r6, r3]
    12a6:	e8bd 81f0 	ldmia.w	sp!, {r4, r5, r6, r7, r8, pc}
    12aa:	bf00      	nop

000012ac <USBHost::findDevice(USBDeviceConnected*)>:
    12ac:	f500 50d9 	add.w	r0, r0, #6944	; 0x1b20
    12b0:	3008      	adds	r0, #8
    12b2:	2300      	movs	r3, #0
    12b4:	4281      	cmp	r1, r0
    12b6:	f500 7086 	add.w	r0, r0, #268	; 0x10c
    12ba:	d005      	beq.n	12c8 <USBHost::findDevice(USBDeviceConnected*)+0x1c>
    12bc:	3301      	adds	r3, #1
    12be:	2b05      	cmp	r3, #5
    12c0:	d1f8      	bne.n	12b4 <USBHost::findDevice(USBDeviceConnected*)+0x8>
    12c2:	f04f 30ff 	mov.w	r0, #4294967295	; 0xffffffff
    12c6:	4770      	bx	lr
    12c8:	4618      	mov	r0, r3
    12ca:	4770      	bx	lr

000012cc <USBHost::addTransfer(USBEndpoint*, unsigned char*, unsigned long)>:
    12cc:	e92d 47f0 	stmdb	sp!, {r4, r5, r6, r7, r8, r9, r10, lr}
    12d0:	f500 5609 	add.w	r6, r0, #8768	; 0x2240
    12d4:	3620      	adds	r6, #32
    12d6:	460d      	mov	r5, r1
    12d8:	4680      	mov	r8, r0
    12da:	f04f 31ff 	mov.w	r1, #4294967295	; 0xffffffff
    12de:	4630      	mov	r0, r6
    12e0:	4691      	mov	r9, r2
    12e2:	469a      	mov	r10, r3
    12e4:	f002 fd6c 	bl	3dc0 <rtos::Mutex::lock(unsigned long)>
    12e8:	6e6c      	ldr	r4, [r5, #100]	; 0x64
    12ea:	2c00      	cmp	r4, #0
    12ec:	d035      	beq.n	135a <USBHost::addTransfer(USBEndpoint*, unsigned char*, unsigned long)+0x8e>
    12ee:	f895 3027 	ldrb.w	r3, [r5, #39]	; 0x27
    12f2:	b313      	cbz	r3, 133a <USBHost::addTransfer(USBEndpoint*, unsigned char*, unsigned long)+0x6e>
    12f4:	f895 7024 	ldrb.w	r7, [r5, #36]	; 0x24
    12f8:	4a1c      	ldr	r2, [pc, #112]	; (136c <USBHost::addTransfer(USBEndpoint*, unsigned char*, unsigned long)+0xa0>)
    12fa:	4b1d      	ldr	r3, [pc, #116]	; (1370 <USBHost::addTransfer(USBEndpoint*, unsigned char*, unsigned long)+0xa4>)
    12fc:	2f00      	cmp	r7, #0
    12fe:	bf08      	it	eq
    1300:	4613      	moveq	r3, r2
    1302:	6822      	ldr	r2, [r4, #0]
    1304:	f10a 3aff 	add.w	r10, r10, #4294967295	; 0xffffffff
    1308:	6023      	str	r3, [r4, #0]
    130a:	6863      	ldr	r3, [r4, #4]
    130c:	eb09 030a 	add.w	r3, r9, r10
    1310:	f8c4 9004 	str.w	r9, [r4, #4]
    1314:	68e2      	ldr	r2, [r4, #12]
    1316:	4639      	mov	r1, r7
    1318:	60e3      	str	r3, [r4, #12]
    131a:	4640      	mov	r0, r8
    131c:	f001 f9a6 	bl	266c <USBHALHost::disableList(ENDPOINT_TYPE)>
    1320:	4628      	mov	r0, r5
    1322:	f001 f877 	bl	2414 <USBEndpoint::queueTransfer()>
    1326:	4640      	mov	r0, r8
    1328:	4639      	mov	r1, r7
    132a:	f001 f981 	bl	2630 <USBHALHost::enableList(ENDPOINT_TYPE)>
    132e:	4630      	mov	r0, r6
    1330:	f002 fd4a 	bl	3dc8 <rtos::Mutex::unlock()>
    1334:	2011      	movs	r0, #17
    1336:	e8bd 87f0 	ldmia.w	sp!, {r4, r5, r6, r7, r8, r9, r10, pc}
    133a:	f895 3026 	ldrb.w	r3, [r5, #38]	; 0x26
    133e:	f895 7024 	ldrb.w	r7, [r5, #36]	; 0x24
    1342:	2b02      	cmp	r3, #2
    1344:	bf0c      	ite	eq
    1346:	f44f 1380 	moveq.w	r3, #1048576	; 0x100000
    134a:	f44f 2300 	movne.w	r3, #524288	; 0x80000
    134e:	b93f      	cbnz	r7, 1360 <USBHost::addTransfer(USBEndpoint*, unsigned char*, unsigned long)+0x94>
    1350:	f043 4373 	orr.w	r3, r3, #4076863488	; 0xf3000000
    1354:	f443 2380 	orr.w	r3, r3, #262144	; 0x40000
    1358:	e7d3      	b.n	1302 <USBHost::addTransfer(USBEndpoint*, unsigned char*, unsigned long)+0x36>
    135a:	2012      	movs	r0, #18
    135c:	e8bd 87f0 	ldmia.w	sp!, {r4, r5, r6, r7, r8, r9, r10, pc}
    1360:	f043 4370 	orr.w	r3, r3, #4026531840	; 0xf0000000
    1364:	f443 2380 	orr.w	r3, r3, #262144	; 0x40000
    1368:	e7cb      	b.n	1302 <USBHost::addTransfer(USBEndpoint*, unsigned char*, unsigned long)+0x36>
    136a:	bf00      	nop
    136c:	f2040000 	.word	0xf2040000
    1370:	f0040000 	.word	0xf0040000

00001374 <USBHost::parseConfDescr(USBDeviceConnected*, unsigned char*, unsigned long, IUSBEnumerator*)>:
    1374:	e92d 4ff0 	stmdb	sp!, {r4, r5, r6, r7, r8, r9, r10, r11, lr}
    1378:	b089      	sub	sp, #36	; 0x24
    137a:	4698      	mov	r8, r3
    137c:	9005      	str	r0, [sp, #20]
    137e:	9104      	str	r1, [sp, #16]
    1380:	4615      	mov	r5, r2
    1382:	b34b      	cbz	r3, 13d8 <USBHost::parseConfDescr(USBDeviceConnected*, unsigned char*, unsigned long, IUSBEnumerator*)+0x64>
    1384:	f04f 0b00 	mov.w	r11, #0
    1388:	46d9      	mov	r9, r11
    138a:	f8cd b018 	str.w	r11, [sp, #24]
    138e:	465c      	mov	r4, r11
    1390:	f8cd b01c 	str.w	r11, [sp, #28]
    1394:	192f      	adds	r7, r5, r4
    1396:	787b      	ldrb	r3, [r7, #1]
    1398:	5d2e      	ldrb	r6, [r5, r4]
    139a:	3b02      	subs	r3, #2
    139c:	2b1f      	cmp	r3, #31
    139e:	d818      	bhi.n	13d2 <USBHost::parseConfDescr(USBDeviceConnected*, unsigned char*, unsigned long, IUSBEnumerator*)+0x5e>
    13a0:	e8df f003 	tbb	[pc, r3]
    13a4:	451d1740 	.word	0x451d1740
    13a8:	17171717 	.word	0x17171717
    13ac:	17171717 	.word	0x17171717
    13b0:	17171717 	.word	0x17171717
    13b4:	17171717 	.word	0x17171717
    13b8:	17171717 	.word	0x17171717
    13bc:	17171717 	.word	0x17171717
    13c0:	10171717 	.word	0x10171717
    13c4:	7a3a      	ldrb	r2, [r7, #8]
    13c6:	79fb      	ldrb	r3, [r7, #7]
    13c8:	ea43 2302 	orr.w	r3, r3, r2, lsl #8
    13cc:	9a05      	ldr	r2, [sp, #20]
    13ce:	f8a2 30c4 	strh.w	r3, [r2, #196]	; 0xc4
    13d2:	4434      	add	r4, r6
    13d4:	45a0      	cmp	r8, r4
    13d6:	d8dd      	bhi.n	1394 <USBHost::parseConfDescr(USBDeviceConnected*, unsigned char*, unsigned long, IUSBEnumerator*)+0x20>
    13d8:	b009      	add	sp, #36	; 0x24
    13da:	e8bd 8ff0 	ldmia.w	sp!, {r4, r5, r6, r7, r8, r9, r10, r11, pc}
    13de:	9a12      	ldr	r2, [sp, #72]	; 0x48
    13e0:	1de7      	adds	r7, r4, #7
    13e2:	f815 e007 	ldrb.w	lr, [r5, r7]
    13e6:	6810      	ldr	r0, [r2, #0]
    13e8:	1d63      	adds	r3, r4, #5
    13ea:	f104 0902 	add.w	r9, r4, #2
    13ee:	f104 0a06 	add.w	r10, r4, #6
    13f2:	5cea      	ldrb	r2, [r5, r3]
    13f4:	9303      	str	r3, [sp, #12]
    13f6:	f815 1009 	ldrb.w	r1, [r5, r9]
    13fa:	f815 300a 	ldrb.w	r3, [r5, r10]
    13fe:	f8cd e000 	str.w	lr, [sp]
    1402:	f8d0 c004 	ldr.w	r12, [r0, #4]
    1406:	9812      	ldr	r0, [sp, #72]	; 0x48
    1408:	47e0      	blx	r12
    140a:	2800      	cmp	r0, #0
    140c:	d04c      	beq.n	14a8 <USBHost::parseConfDescr(USBDeviceConnected*, unsigned char*, unsigned long, IUSBEnumerator*)+0x134>
    140e:	f10b 0c01 	add.w	r12, r11, #1
    1412:	f1bb 0f04 	cmp.w	r11, #4
    1416:	fa5f fc8c 	uxtb.w	r12, r12
    141a:	d947      	bls.n	14ac <USBHost::parseConfDescr(USBDeviceConnected*, unsigned char*, unsigned long, IUSBEnumerator*)+0x138>
    141c:	46e3      	mov	r11, r12
    141e:	f04f 0901 	mov.w	r9, #1
    1422:	e7d6      	b.n	13d2 <USBHost::parseConfDescr(USBDeviceConnected*, unsigned char*, unsigned long, IUSBEnumerator*)+0x5e>
    1424:	792b      	ldrb	r3, [r5, #4]
    1426:	9a04      	ldr	r2, [sp, #16]
    1428:	f882 3109 	strb.w	r3, [r2, #265]	; 0x109
    142c:	e7d1      	b.n	13d2 <USBHost::parseConfDescr(USBDeviceConnected*, unsigned char*, unsigned long, IUSBEnumerator*)+0x5e>
    142e:	f1b9 0f00 	cmp.w	r9, #0
    1432:	d0ce      	beq.n	13d2 <USBHost::parseConfDescr(USBDeviceConnected*, unsigned char*, unsigned long, IUSBEnumerator*)+0x5e>
    1434:	f1bb 0f04 	cmp.w	r11, #4
    1438:	d8cb      	bhi.n	13d2 <USBHost::parseConfDescr(USBDeviceConnected*, unsigned char*, unsigned long, IUSBEnumerator*)+0x5e>
    143a:	9a06      	ldr	r2, [sp, #24]
    143c:	2a02      	cmp	r2, #2
    143e:	dcc8      	bgt.n	13d2 <USBHost::parseConfDescr(USBDeviceConnected*, unsigned char*, unsigned long, IUSBEnumerator*)+0x5e>
    1440:	1ca3      	adds	r3, r4, #2
    1442:	9812      	ldr	r0, [sp, #72]	; 0x48
    1444:	9303      	str	r3, [sp, #12]
    1446:	f104 0a03 	add.w	r10, r4, #3
    144a:	5ceb      	ldrb	r3, [r5, r3]
    144c:	6801      	ldr	r1, [r0, #0]
    144e:	f815 200a 	ldrb.w	r2, [r5, r10]
    1452:	11db      	asrs	r3, r3, #7
    1454:	f8d1 c008 	ldr.w	r12, [r1, #8]
    1458:	3301      	adds	r3, #1
    145a:	f002 0203 	and.w	r2, r2, #3
    145e:	9907      	ldr	r1, [sp, #28]
    1460:	47e0      	blx	r12
    1462:	2800      	cmp	r0, #0
    1464:	d0b5      	beq.n	13d2 <USBHost::parseConfDescr(USBDeviceConnected*, unsigned char*, unsigned long, IUSBEnumerator*)+0x5e>
    1466:	f815 100a 	ldrb.w	r1, [r5, r10]
    146a:	f001 0103 	and.w	r1, r1, #3
    146e:	2901      	cmp	r1, #1
    1470:	d0af      	beq.n	13d2 <USBHost::parseConfDescr(USBDeviceConnected*, unsigned char*, unsigned long, IUSBEnumerator*)+0x5e>
    1472:	9a03      	ldr	r2, [sp, #12]
    1474:	797b      	ldrb	r3, [r7, #5]
    1476:	5ca8      	ldrb	r0, [r5, r2]
    1478:	793f      	ldrb	r7, [r7, #4]
    147a:	11c2      	asrs	r2, r0, #7
    147c:	f000 000f 	and.w	r0, r0, #15
    1480:	9000      	str	r0, [sp, #0]
    1482:	3201      	adds	r2, #1
    1484:	ea47 2303 	orr.w	r3, r7, r3, lsl #8
    1488:	9805      	ldr	r0, [sp, #20]
    148a:	f7ff fe1b 	bl	10c4 <USBHost::newEndpoint(ENDPOINT_TYPE, ENDPOINT_DIRECTION, unsigned long, unsigned char)>
    148e:	b138      	cbz	r0, 14a0 <USBHost::parseConfDescr(USBDeviceConnected*, unsigned char*, unsigned long, IUSBEnumerator*)+0x12c>
    1490:	9b04      	ldr	r3, [sp, #16]
    1492:	b12b      	cbz	r3, 14a0 <USBHost::parseConfDescr(USBDeviceConnected*, unsigned char*, unsigned long, IUSBEnumerator*)+0x12c>
    1494:	4603      	mov	r3, r0
    1496:	9904      	ldr	r1, [sp, #16]
    1498:	9805      	ldr	r0, [sp, #20]
    149a:	9a07      	ldr	r2, [sp, #28]
    149c:	f7ff fe88 	bl	11b0 <USBHost::addEndpoint(USBDeviceConnected*, unsigned char, USBEndpoint*)>
    14a0:	9806      	ldr	r0, [sp, #24]
    14a2:	3001      	adds	r0, #1
    14a4:	9006      	str	r0, [sp, #24]
    14a6:	e794      	b.n	13d2 <USBHost::parseConfDescr(USBDeviceConnected*, unsigned char*, unsigned long, IUSBEnumerator*)+0x5e>
    14a8:	4681      	mov	r9, r0
    14aa:	e792      	b.n	13d2 <USBHost::parseConfDescr(USBDeviceConnected*, unsigned char*, unsigned long, IUSBEnumerator*)+0x5e>
    14ac:	f815 9009 	ldrb.w	r9, [r5, r9]
    14b0:	9b03      	ldr	r3, [sp, #12]
    14b2:	5de9      	ldrb	r1, [r5, r7]
    14b4:	5cea      	ldrb	r2, [r5, r3]
    14b6:	9804      	ldr	r0, [sp, #16]
    14b8:	f815 300a 	ldrb.w	r3, [r5, r10]
    14bc:	9100      	str	r1, [sp, #0]
    14be:	4649      	mov	r1, r9
    14c0:	f8cd 901c 	str.w	r9, [sp, #28]
    14c4:	46e3      	mov	r11, r12
    14c6:	f7ff fa65 	bl	994 <USBDeviceConnected::addInterface(unsigned char, unsigned char, unsigned char, unsigned char)>
    14ca:	2000      	movs	r0, #0
    14cc:	f04f 0901 	mov.w	r9, #1
    14d0:	9006      	str	r0, [sp, #24]
    14d2:	e77e      	b.n	13d2 <USBHost::parseConfDescr(USBDeviceConnected*, unsigned char*, unsigned long, IUSBEnumerator*)+0x5e>

000014d4 <USBHost::generalTransfer(USBDeviceConnected*, USBEndpoint*, unsigned char*, unsigned long, bool, ENDPOINT_TYPE, bool)>:
    14d4:	e92d 4ff0 	stmdb	sp!, {r4, r5, r6, r7, r8, r9, r10, r11, lr}
    14d8:	f500 5509 	add.w	r5, r0, #8768	; 0x2240
    14dc:	b089      	sub	sp, #36	; 0x24
    14de:	f89d 8054 	ldrb.w	r8, [sp, #84]	; 0x54
    14e2:	350c      	adds	r5, #12
    14e4:	4606      	mov	r6, r0
    14e6:	460f      	mov	r7, r1
    14e8:	4628      	mov	r0, r5
    14ea:	f04f 31ff 	mov.w	r1, #4294967295	; 0xffffffff
    14ee:	4614      	mov	r4, r2
    14f0:	469a      	mov	r10, r3
    14f2:	f89d b04c 	ldrb.w	r11, [sp, #76]	; 0x4c
    14f6:	f89d 9050 	ldrb.w	r9, [sp, #80]	; 0x50
    14fa:	f002 fc61 	bl	3dc0 <rtos::Mutex::lock(unsigned long)>
    14fe:	f1b8 0f00 	cmp.w	r8, #0
    1502:	bf0c      	ite	eq
    1504:	2202      	moveq	r2, #2
    1506:	2201      	movne	r2, #1
    1508:	2f00      	cmp	r7, #0
    150a:	d033      	beq.n	1574 <USBHost::generalTransfer(USBDeviceConnected*, USBEndpoint*, unsigned char*, unsigned long, bool, ENDPOINT_TYPE, bool)+0xa0>
    150c:	2c00      	cmp	r4, #0
    150e:	d050      	beq.n	15b2 <USBHost::generalTransfer(USBDeviceConnected*, USBEndpoint*, unsigned char*, unsigned long, bool, ENDPOINT_TYPE, bool)+0xde>
    1510:	f894 3025 	ldrb.w	r3, [r4, #37]	; 0x25
    1514:	2b10      	cmp	r3, #16
    1516:	d114      	bne.n	1542 <USBHost::generalTransfer(USBDeviceConnected*, USBEndpoint*, unsigned char*, unsigned long, bool, ENDPOINT_TYPE, bool)+0x6e>
    1518:	f894 3026 	ldrb.w	r3, [r4, #38]	; 0x26
    151c:	4293      	cmp	r3, r2
    151e:	d031      	beq.n	1584 <USBHost::generalTransfer(USBDeviceConnected*, USBEndpoint*, unsigned char*, unsigned long, bool, ENDPOINT_TYPE, bool)+0xb0>
    1520:	6822      	ldr	r2, [r4, #0]
    1522:	4623      	mov	r3, r4
    1524:	9200      	str	r2, [sp, #0]
    1526:	4832      	ldr	r0, [pc, #200]	; (15f0 <USBHost::generalTransfer(USBDeviceConnected*, USBEndpoint*, unsigned char*, unsigned long, bool, ENDPOINT_TYPE, bool)+0x11c>)
    1528:	4932      	ldr	r1, [pc, #200]	; (15f4 <USBHost::generalTransfer(USBDeviceConnected*, USBEndpoint*, unsigned char*, unsigned long, bool, ENDPOINT_TYPE, bool)+0x120>)
    152a:	f240 32fd 	movw	r2, #1021	; 0x3fd
    152e:	f004 fd09 	bl	5f44 <iprintf>
    1532:	2412      	movs	r4, #18
    1534:	4628      	mov	r0, r5
    1536:	f002 fc47 	bl	3dc8 <rtos::Mutex::unlock()>
    153a:	4620      	mov	r0, r4
    153c:	b009      	add	sp, #36	; 0x24
    153e:	e8bd 8ff0 	ldmia.w	sp!, {r4, r5, r6, r7, r8, r9, r10, r11, pc}
    1542:	f894 306c 	ldrb.w	r3, [r4, #108]	; 0x6c
    1546:	6826      	ldr	r6, [r4, #0]
    1548:	ebc3 1303 	rsb	r3, r3, r3, lsl #4
    154c:	4620      	mov	r0, r4
    154e:	eb06 0783 	add.w	r7, r6, r3, lsl #2
    1552:	f000 ff55 	bl	2400 <USBEndpoint::getStateString()>
    1556:	3738      	adds	r7, #56	; 0x38
    1558:	9002      	str	r0, [sp, #8]
    155a:	4623      	mov	r3, r4
    155c:	9701      	str	r7, [sp, #4]
    155e:	9600      	str	r6, [sp, #0]
    1560:	4825      	ldr	r0, [pc, #148]	; (15f8 <USBHost::generalTransfer(USBDeviceConnected*, USBEndpoint*, unsigned char*, unsigned long, bool, ENDPOINT_TYPE, bool)+0x124>)
    1562:	4924      	ldr	r1, [pc, #144]	; (15f4 <USBHost::generalTransfer(USBDeviceConnected*, USBEndpoint*, unsigned char*, unsigned long, bool, ENDPOINT_TYPE, bool)+0x120>)
    1564:	f44f 727e 	mov.w	r2, #1016	; 0x3f8
    1568:	f004 fcec 	bl	5f44 <iprintf>
    156c:	f894 4025 	ldrb.w	r4, [r4, #37]	; 0x25
    1570:	b2e4      	uxtb	r4, r4
    1572:	e7df      	b.n	1534 <USBHost::generalTransfer(USBDeviceConnected*, USBEndpoint*, unsigned char*, unsigned long, bool, ENDPOINT_TYPE, bool)+0x60>
    1574:	4821      	ldr	r0, [pc, #132]	; (15fc <USBHost::generalTransfer(USBDeviceConnected*, USBEndpoint*, unsigned char*, unsigned long, bool, ENDPOINT_TYPE, bool)+0x128>)
    1576:	491f      	ldr	r1, [pc, #124]	; (15f4 <USBHost::generalTransfer(USBDeviceConnected*, USBEndpoint*, unsigned char*, unsigned long, bool, ENDPOINT_TYPE, bool)+0x120>)
    1578:	f240 32ee 	movw	r2, #1006	; 0x3ee
    157c:	f004 fce2 	bl	5f44 <iprintf>
    1580:	2412      	movs	r4, #18
    1582:	e7d7      	b.n	1534 <USBHost::generalTransfer(USBDeviceConnected*, USBEndpoint*, unsigned char*, unsigned long, bool, ENDPOINT_TYPE, bool)+0x60>
    1584:	f894 3024 	ldrb.w	r3, [r4, #36]	; 0x24
    1588:	454b      	cmp	r3, r9
    158a:	d1c9      	bne.n	1520 <USBHost::generalTransfer(USBDeviceConnected*, USBEndpoint*, unsigned char*, unsigned long, bool, ENDPOINT_TYPE, bool)+0x4c>
    158c:	6da3      	ldr	r3, [r4, #88]	; 0x58
    158e:	f897 2102 	ldrb.w	r2, [r7, #258]	; 0x102
    1592:	681b      	ldr	r3, [r3, #0]
    1594:	f003 037f 	and.w	r3, r3, #127	; 0x7f
    1598:	429a      	cmp	r2, r3
    159a:	d012      	beq.n	15c2 <USBHost::generalTransfer(USBDeviceConnected*, USBEndpoint*, unsigned char*, unsigned long, bool, ENDPOINT_TYPE, bool)+0xee>
    159c:	6822      	ldr	r2, [r4, #0]
    159e:	4623      	mov	r3, r4
    15a0:	9200      	str	r2, [sp, #0]
    15a2:	4817      	ldr	r0, [pc, #92]	; (1600 <USBHost::generalTransfer(USBDeviceConnected*, USBEndpoint*, unsigned char*, unsigned long, bool, ENDPOINT_TYPE, bool)+0x12c>)
    15a4:	4913      	ldr	r1, [pc, #76]	; (15f4 <USBHost::generalTransfer(USBDeviceConnected*, USBEndpoint*, unsigned char*, unsigned long, bool, ENDPOINT_TYPE, bool)+0x120>)
    15a6:	f240 4202 	movw	r2, #1026	; 0x402
    15aa:	f004 fccb 	bl	5f44 <iprintf>
    15ae:	2412      	movs	r4, #18
    15b0:	e7c0      	b.n	1534 <USBHost::generalTransfer(USBDeviceConnected*, USBEndpoint*, unsigned char*, unsigned long, bool, ENDPOINT_TYPE, bool)+0x60>
    15b2:	4814      	ldr	r0, [pc, #80]	; (1604 <USBHost::generalTransfer(USBDeviceConnected*, USBEndpoint*, unsigned char*, unsigned long, bool, ENDPOINT_TYPE, bool)+0x130>)
    15b4:	490f      	ldr	r1, [pc, #60]	; (15f4 <USBHost::generalTransfer(USBDeviceConnected*, USBEndpoint*, unsigned char*, unsigned long, bool, ENDPOINT_TYPE, bool)+0x120>)
    15b6:	f240 32f3 	movw	r2, #1011	; 0x3f3
    15ba:	f004 fcc3 	bl	5f44 <iprintf>
    15be:	2412      	movs	r4, #18
    15c0:	e7b8      	b.n	1534 <USBHost::generalTransfer(USBDeviceConnected*, USBEndpoint*, unsigned char*, unsigned long, bool, ENDPOINT_TYPE, bool)+0x60>
    15c2:	4630      	mov	r0, r6
    15c4:	4652      	mov	r2, r10
    15c6:	4621      	mov	r1, r4
    15c8:	9b12      	ldr	r3, [sp, #72]	; 0x48
    15ca:	f7ff fe7f 	bl	12cc <USBHost::addTransfer(USBEndpoint*, unsigned char*, unsigned long)>
    15ce:	f1bb 0f00 	cmp.w	r11, #0
    15d2:	d101      	bne.n	15d8 <USBHost::generalTransfer(USBDeviceConnected*, USBEndpoint*, unsigned char*, unsigned long, bool, ENDPOINT_TYPE, bool)+0x104>
    15d4:	2411      	movs	r4, #17
    15d6:	e7ad      	b.n	1534 <USBHost::generalTransfer(USBDeviceConnected*, USBEndpoint*, unsigned char*, unsigned long, bool, ENDPOINT_TYPE, bool)+0x60>
    15d8:	6861      	ldr	r1, [r4, #4]
    15da:	a805      	add	r0, sp, #20
    15dc:	f04f 32ff 	mov.w	r2, #4294967295	; 0xffffffff
    15e0:	f001 fc64 	bl	2eac <osMessageGet>
    15e4:	f894 4025 	ldrb.w	r4, [r4, #37]	; 0x25
    15e8:	2c10      	cmp	r4, #16
    15ea:	bf08      	it	eq
    15ec:	2400      	moveq	r4, #0
    15ee:	e7a1      	b.n	1534 <USBHost::generalTransfer(USBDeviceConnected*, USBEndpoint*, unsigned char*, unsigned long, bool, ENDPOINT_TYPE, bool)+0x60>
    15f0:	00008048 	.word	0x00008048
    15f4:	00007ec4 	.word	0x00007ec4
    15f8:	00007fb8 	.word	0x00007fb8
    15fc:	00007f80 	.word	0x00007f80
    1600:	00007ff4 	.word	0x00007ff4
    1604:	00007f9c 	.word	0x00007f9c

00001608 <USBHost::bulkWrite(USBDeviceConnected*, USBEndpoint*, unsigned char*, unsigned long, bool)>:
    1608:	b5f0      	push	{r4, r5, r6, r7, lr}
    160a:	b085      	sub	sp, #20
    160c:	9c0a      	ldr	r4, [sp, #40]	; 0x28
    160e:	f89d 702c 	ldrb.w	r7, [sp, #44]	; 0x2c
    1612:	2602      	movs	r6, #2
    1614:	2501      	movs	r5, #1
    1616:	e88d 0090 	stmia.w	sp, {r4, r7}
    161a:	9602      	str	r6, [sp, #8]
    161c:	9503      	str	r5, [sp, #12]
    161e:	f7ff ff59 	bl	14d4 <USBHost::generalTransfer(USBDeviceConnected*, USBEndpoint*, unsigned char*, unsigned long, bool, ENDPOINT_TYPE, bool)>
    1622:	b005      	add	sp, #20
    1624:	bdf0      	pop	{r4, r5, r6, r7, pc}
    1626:	bf00      	nop

00001628 <USBHost::bulkRead(USBDeviceConnected*, USBEndpoint*, unsigned char*, unsigned long, bool)>:
    1628:	b5f0      	push	{r4, r5, r6, r7, lr}
    162a:	b085      	sub	sp, #20
    162c:	9c0a      	ldr	r4, [sp, #40]	; 0x28
    162e:	f89d 702c 	ldrb.w	r7, [sp, #44]	; 0x2c
    1632:	2602      	movs	r6, #2
    1634:	2500      	movs	r5, #0
    1636:	e88d 0090 	stmia.w	sp, {r4, r7}
    163a:	9602      	str	r6, [sp, #8]
    163c:	9503      	str	r5, [sp, #12]
    163e:	f7ff ff49 	bl	14d4 <USBHost::generalTransfer(USBDeviceConnected*, USBEndpoint*, unsigned char*, unsigned long, bool, ENDPOINT_TYPE, bool)>
    1642:	b005      	add	sp, #20
    1644:	bdf0      	pop	{r4, r5, r6, r7, pc}
    1646:	bf00      	nop

00001648 <USBHost::interruptRead(USBDeviceConnected*, USBEndpoint*, unsigned char*, unsigned long, bool)>:
    1648:	b5f0      	push	{r4, r5, r6, r7, lr}
    164a:	b085      	sub	sp, #20
    164c:	9c0a      	ldr	r4, [sp, #40]	; 0x28
    164e:	f89d 702c 	ldrb.w	r7, [sp, #44]	; 0x2c
    1652:	2603      	movs	r6, #3
    1654:	2500      	movs	r5, #0
    1656:	e88d 0090 	stmia.w	sp, {r4, r7}
    165a:	9602      	str	r6, [sp, #8]
    165c:	9503      	str	r5, [sp, #12]
    165e:	f7ff ff39 	bl	14d4 <USBHost::generalTransfer(USBDeviceConnected*, USBEndpoint*, unsigned char*, unsigned long, bool, ENDPOINT_TYPE, bool)>
    1662:	b005      	add	sp, #20
    1664:	bdf0      	pop	{r4, r5, r6, r7, pc}
    1666:	bf00      	nop

00001668 <USBHost::controlTransfer(USBDeviceConnected*, unsigned char, unsigned char, unsigned long, unsigned long, unsigned char*, unsigned long, bool)>:
    1668:	e92d 4ff0 	stmdb	sp!, {r4, r5, r6, r7, r8, r9, r10, r11, lr}
    166c:	f500 5409 	add.w	r4, r0, #8768	; 0x2240
    1670:	b087      	sub	sp, #28
    1672:	340c      	adds	r4, #12
    1674:	4692      	mov	r10, r2
    1676:	f89d 2050 	ldrb.w	r2, [sp, #80]	; 0x50
    167a:	4683      	mov	r11, r0
    167c:	460d      	mov	r5, r1
    167e:	f641 3608 	movw	r6, #6920	; 0x1b08
    1682:	f04f 31ff 	mov.w	r1, #4294967295	; 0xffffffff
    1686:	4620      	mov	r0, r4
    1688:	4699      	mov	r9, r3
    168a:	9201      	str	r2, [sp, #4]
    168c:	f8dd 8040 	ldr.w	r8, [sp, #64]	; 0x40
    1690:	9f13      	ldr	r7, [sp, #76]	; 0x4c
    1692:	f002 fb95 	bl	3dc0 <rtos::Mutex::lock(unsigned long)>
    1696:	f85b 0006 	ldr.w	r0, [r11, r6]
    169a:	f895 1106 	ldrb.w	r1, [r5, #262]	; 0x106
    169e:	f000 fe7d 	bl	239c <USBEndpoint::setSpeed(unsigned char)>
    16a2:	f85b 0006 	ldr.w	r0, [r11, r6]
    16a6:	f8d5 10f8 	ldr.w	r1, [r5, #248]	; 0xf8
    16aa:	f000 fe5b 	bl	2364 <USBEndpoint::setSize(unsigned long)>
    16ae:	f895 3107 	ldrb.w	r3, [r5, #263]	; 0x107
    16b2:	f85b 0006 	ldr.w	r0, [r11, r6]
    16b6:	f003 01ff 	and.w	r1, r3, #255	; 0xff
    16ba:	2b00      	cmp	r3, #0
    16bc:	d051      	beq.n	1762 <USBHost::controlTransfer(USBDeviceConnected*, unsigned char, unsigned char, unsigned long, unsigned long, unsigned char*, unsigned long, bool)+0xfa>
    16be:	f895 1102 	ldrb.w	r1, [r5, #258]	; 0x102
    16c2:	f000 fe5d 	bl	2380 <USBEndpoint::setDeviceAddress(unsigned char)>
    16c6:	f641 3508 	movw	r5, #6920	; 0x1b08
    16ca:	f242 01fa 	movw	r1, #8442	; 0x20fa
    16ce:	f242 02fb 	movw	r2, #8443	; 0x20fb
    16d2:	f85b 0005 	ldr.w	r0, [r11, r5]
    16d6:	f3c8 2e07 	ubfx	lr, r8, #8, #8
    16da:	f80b a001 	strb.w	r10, [r11, r1]
    16de:	f242 03fc 	movw	r3, #8444	; 0x20fc
    16e2:	f80b 9002 	strb.w	r9, [r11, r2]
    16e6:	f242 06fd 	movw	r6, #8445	; 0x20fd
    16ea:	9a11      	ldr	r2, [sp, #68]	; 0x44
    16ec:	f80b 8003 	strb.w	r8, [r11, r3]
    16f0:	f80b e006 	strb.w	lr, [r11, r6]
    16f4:	f8dd e044 	ldr.w	lr, [sp, #68]	; 0x44
    16f8:	f242 1301 	movw	r3, #8449	; 0x2101
    16fc:	f242 01fe 	movw	r1, #8446	; 0x20fe
    1700:	f3c2 2907 	ubfx	r9, r2, #8, #8
    1704:	123e      	asrs	r6, r7, #8
    1706:	f242 02ff 	movw	r2, #8447	; 0x20ff
    170a:	f50b 5804 	add.w	r8, r11, #8448	; 0x2100
    170e:	f80b e001 	strb.w	lr, [r11, r1]
    1712:	f80b 9002 	strb.w	r9, [r11, r2]
    1716:	2100      	movs	r1, #0
    1718:	f888 7000 	strb.w	r7, [r8]
    171c:	f80b 6003 	strb.w	r6, [r11, r3]
    1720:	f000 fe48 	bl	23b4 <USBEndpoint::setNextToken(unsigned long)>
    1724:	f50b 5203 	add.w	r2, r11, #8384	; 0x20c0
    1728:	f85b 1005 	ldr.w	r1, [r11, r5]
    172c:	323a      	adds	r2, #58	; 0x3a
    172e:	2308      	movs	r3, #8
    1730:	4658      	mov	r0, r11
    1732:	f7ff fdcb 	bl	12cc <USBHost::addTransfer(USBEndpoint*, unsigned char*, unsigned long)>
    1736:	f85b 3005 	ldr.w	r3, [r11, r5]
    173a:	a803      	add	r0, sp, #12
    173c:	6859      	ldr	r1, [r3, #4]
    173e:	f04f 32ff 	mov.w	r2, #4294967295	; 0xffffffff
    1742:	f001 fbb3 	bl	2eac <osMessageGet>
    1746:	f85b 3005 	ldr.w	r3, [r11, r5]
    174a:	f893 6025 	ldrb.w	r6, [r3, #37]	; 0x25
    174e:	b2f6      	uxtb	r6, r6
    1750:	2e10      	cmp	r6, #16
    1752:	d009      	beq.n	1768 <USBHost::controlTransfer(USBDeviceConnected*, unsigned char, unsigned char, unsigned long, unsigned long, unsigned char*, unsigned long, bool)+0x100>
    1754:	4620      	mov	r0, r4
    1756:	f002 fb37 	bl	3dc8 <rtos::Mutex::unlock()>
    175a:	4630      	mov	r0, r6
    175c:	b007      	add	sp, #28
    175e:	e8bd 8ff0 	ldmia.w	sp!, {r4, r5, r6, r7, r8, r9, r10, r11, pc}
    1762:	f000 fe0d 	bl	2380 <USBEndpoint::setDeviceAddress(unsigned char)>
    1766:	e7ae      	b.n	16c6 <USBHost::controlTransfer(USBDeviceConnected*, unsigned char, unsigned char, unsigned long, unsigned long, unsigned char*, unsigned long, bool)+0x5e>
    1768:	b307      	cbz	r7, 17ac <USBHost::controlTransfer(USBDeviceConnected*, unsigned char, unsigned char, unsigned long, unsigned long, unsigned char*, unsigned long, bool)+0x144>
    176a:	9b01      	ldr	r3, [sp, #4]
    176c:	f85b 0005 	ldr.w	r0, [r11, r5]
    1770:	2b00      	cmp	r3, #0
    1772:	bf0c      	ite	eq
    1774:	f44f 1180 	moveq.w	r1, #1048576	; 0x100000
    1778:	f44f 2100 	movne.w	r1, #524288	; 0x80000
    177c:	f000 fe1a 	bl	23b4 <USBEndpoint::setNextToken(unsigned long)>
    1780:	f85b 1005 	ldr.w	r1, [r11, r5]
    1784:	463b      	mov	r3, r7
    1786:	9a12      	ldr	r2, [sp, #72]	; 0x48
    1788:	4658      	mov	r0, r11
    178a:	f7ff fd9f 	bl	12cc <USBHost::addTransfer(USBEndpoint*, unsigned char*, unsigned long)>
    178e:	f85b 3005 	ldr.w	r3, [r11, r5]
    1792:	a803      	add	r0, sp, #12
    1794:	6859      	ldr	r1, [r3, #4]
    1796:	f04f 32ff 	mov.w	r2, #4294967295	; 0xffffffff
    179a:	f001 fb87 	bl	2eac <osMessageGet>
    179e:	f85b 3005 	ldr.w	r3, [r11, r5]
    17a2:	f893 6025 	ldrb.w	r6, [r3, #37]	; 0x25
    17a6:	b2f6      	uxtb	r6, r6
    17a8:	2e10      	cmp	r6, #16
    17aa:	d1d3      	bne.n	1754 <USBHost::controlTransfer(USBDeviceConnected*, unsigned char, unsigned char, unsigned long, unsigned long, unsigned char*, unsigned long, bool)+0xec>
    17ac:	9a01      	ldr	r2, [sp, #4]
    17ae:	f641 3508 	movw	r5, #6920	; 0x1b08
    17b2:	2a00      	cmp	r2, #0
    17b4:	bf14      	ite	ne
    17b6:	f44f 1180 	movne.w	r1, #1048576	; 0x100000
    17ba:	f44f 2100 	moveq.w	r1, #524288	; 0x80000
    17be:	f85b 0005 	ldr.w	r0, [r11, r5]
    17c2:	f000 fdf7 	bl	23b4 <USBEndpoint::setNextToken(unsigned long)>
    17c6:	2200      	movs	r2, #0
    17c8:	4613      	mov	r3, r2
    17ca:	f85b 1005 	ldr.w	r1, [r11, r5]
    17ce:	4658      	mov	r0, r11
    17d0:	f7ff fd7c 	bl	12cc <USBHost::addTransfer(USBEndpoint*, unsigned char*, unsigned long)>
    17d4:	f85b 3005 	ldr.w	r3, [r11, r5]
    17d8:	a803      	add	r0, sp, #12
    17da:	6859      	ldr	r1, [r3, #4]
    17dc:	f04f 32ff 	mov.w	r2, #4294967295	; 0xffffffff
    17e0:	f001 fb64 	bl	2eac <osMessageGet>
    17e4:	f85b 3005 	ldr.w	r3, [r11, r5]
    17e8:	f893 6025 	ldrb.w	r6, [r3, #37]	; 0x25
    17ec:	2e10      	cmp	r6, #16
    17ee:	bf08      	it	eq
    17f0:	2600      	moveq	r6, #0
    17f2:	e7af      	b.n	1754 <USBHost::controlTransfer(USBDeviceConnected*, unsigned char, unsigned char, unsigned long, unsigned long, unsigned char*, unsigned long, bool)+0xec>

000017f4 <USBHost::controlRead(USBDeviceConnected*, unsigned char, unsigned char, unsigned long, unsigned long, unsigned char*, unsigned long)>:
    17f4:	b5f0      	push	{r4, r5, r6, r7, lr}
    17f6:	b087      	sub	sp, #28
    17f8:	9d0e      	ldr	r5, [sp, #56]	; 0x38
    17fa:	9f0c      	ldr	r7, [sp, #48]	; 0x30
    17fc:	9e0d      	ldr	r6, [sp, #52]	; 0x34
    17fe:	9502      	str	r5, [sp, #8]
    1800:	9d0f      	ldr	r5, [sp, #60]	; 0x3c
    1802:	2400      	movs	r4, #0
    1804:	9700      	str	r7, [sp, #0]
    1806:	9601      	str	r6, [sp, #4]
    1808:	9503      	str	r5, [sp, #12]
    180a:	9404      	str	r4, [sp, #16]
    180c:	f7ff ff2c 	bl	1668 <USBHost::controlTransfer(USBDeviceConnected*, unsigned char, unsigned char, unsigned long, unsigned long, unsigned char*, unsigned long, bool)>
    1810:	b007      	add	sp, #28
    1812:	bdf0      	pop	{r4, r5, r6, r7, pc}

00001814 <USBHost::getDeviceDescriptor(USBDeviceConnected*, unsigned char*, unsigned short, unsigned short*)>:
    1814:	b5f0      	push	{r4, r5, r6, r7, lr}
    1816:	2b11      	cmp	r3, #17
    1818:	b087      	sub	sp, #28
    181a:	bf94      	ite	ls
    181c:	461f      	movls	r7, r3
    181e:	2712      	movhi	r7, #18
    1820:	461c      	mov	r4, r3
    1822:	f44f 7680 	mov.w	r6, #256	; 0x100
    1826:	2300      	movs	r3, #0
    1828:	9d0c      	ldr	r5, [sp, #48]	; 0x30
    182a:	9202      	str	r2, [sp, #8]
    182c:	9301      	str	r3, [sp, #4]
    182e:	9304      	str	r3, [sp, #16]
    1830:	9703      	str	r7, [sp, #12]
    1832:	9600      	str	r6, [sp, #0]
    1834:	2280      	movs	r2, #128	; 0x80
    1836:	2306      	movs	r3, #6
    1838:	f7ff ff16 	bl	1668 <USBHost::controlTransfer(USBDeviceConnected*, unsigned char, unsigned char, unsigned long, unsigned long, unsigned char*, unsigned long, bool)>
    183c:	b11d      	cbz	r5, 1846 <USBHost::getDeviceDescriptor(USBDeviceConnected*, unsigned char*, unsigned short, unsigned short*)+0x32>
    183e:	2c12      	cmp	r4, #18
    1840:	bf28      	it	cs
    1842:	2412      	movcs	r4, #18
    1844:	802c      	strh	r4, [r5, #0]
    1846:	b007      	add	sp, #28
    1848:	bdf0      	pop	{r4, r5, r6, r7, pc}
    184a:	bf00      	nop

0000184c <USBHost::getConfigurationDescriptor(USBDeviceConnected*, unsigned char*, unsigned short, unsigned short*)>:
    184c:	e92d 43f0 	stmdb	sp!, {r4, r5, r6, r7, r8, r9, lr}
    1850:	4614      	mov	r4, r2
    1852:	b087      	sub	sp, #28
    1854:	2200      	movs	r2, #0
    1856:	f44f 7600 	mov.w	r6, #512	; 0x200
    185a:	2509      	movs	r5, #9
    185c:	9600      	str	r6, [sp, #0]
    185e:	9201      	str	r2, [sp, #4]
    1860:	9204      	str	r2, [sp, #16]
    1862:	9503      	str	r5, [sp, #12]
    1864:	9402      	str	r4, [sp, #8]
    1866:	4698      	mov	r8, r3
    1868:	2280      	movs	r2, #128	; 0x80
    186a:	2306      	movs	r3, #6
    186c:	4681      	mov	r9, r0
    186e:	460f      	mov	r7, r1
    1870:	9e0e      	ldr	r6, [sp, #56]	; 0x38
    1872:	f7ff fef9 	bl	1668 <USBHost::controlTransfer(USBDeviceConnected*, unsigned char, unsigned char, unsigned long, unsigned long, unsigned char*, unsigned long, bool)>
    1876:	4605      	mov	r5, r0
    1878:	b9d8      	cbnz	r0, 18b2 <USBHost::getConfigurationDescriptor(USBDeviceConnected*, unsigned char*, unsigned short, unsigned short*)+0x66>
    187a:	78e2      	ldrb	r2, [r4, #3]
    187c:	78a3      	ldrb	r3, [r4, #2]
    187e:	ea43 2302 	orr.w	r3, r3, r2, lsl #8
    1882:	4543      	cmp	r3, r8
    1884:	bf28      	it	cs
    1886:	4643      	movcs	r3, r8
    1888:	b106      	cbz	r6, 188c <USBHost::getConfigurationDescriptor(USBDeviceConnected*, unsigned char*, unsigned short, unsigned short*)+0x40>
    188a:	8033      	strh	r3, [r6, #0]
    188c:	2200      	movs	r2, #0
    188e:	f44f 7500 	mov.w	r5, #512	; 0x200
    1892:	9303      	str	r3, [sp, #12]
    1894:	9500      	str	r5, [sp, #0]
    1896:	9201      	str	r2, [sp, #4]
    1898:	9204      	str	r2, [sp, #16]
    189a:	9402      	str	r4, [sp, #8]
    189c:	4648      	mov	r0, r9
    189e:	4639      	mov	r1, r7
    18a0:	2280      	movs	r2, #128	; 0x80
    18a2:	2306      	movs	r3, #6
    18a4:	f7ff fee0 	bl	1668 <USBHost::controlTransfer(USBDeviceConnected*, unsigned char, unsigned char, unsigned long, unsigned long, unsigned char*, unsigned long, bool)>
    18a8:	4605      	mov	r5, r0
    18aa:	4628      	mov	r0, r5
    18ac:	b007      	add	sp, #28
    18ae:	e8bd 83f0 	ldmia.w	sp!, {r4, r5, r6, r7, r8, r9, pc}
    18b2:	4905      	ldr	r1, [pc, #20]	; (18c8 <USBHost::getConfigurationDescriptor(USBDeviceConnected*, unsigned char*, unsigned short, unsigned short*)+0x7c>)
    18b4:	f240 3202 	movw	r2, #770	; 0x302
    18b8:	4804      	ldr	r0, [pc, #16]	; (18cc <USBHost::getConfigurationDescriptor(USBDeviceConnected*, unsigned char*, unsigned short, unsigned short*)+0x80>)
    18ba:	f004 fb43 	bl	5f44 <iprintf>
    18be:	4628      	mov	r0, r5
    18c0:	b007      	add	sp, #28
    18c2:	e8bd 83f0 	ldmia.w	sp!, {r4, r5, r6, r7, r8, r9, pc}
    18c6:	bf00      	nop
    18c8:	00007ec4 	.word	0x00007ec4
    18cc:	00008090 	.word	0x00008090

000018d0 <USBHost::controlWrite(USBDeviceConnected*, unsigned char, unsigned char, unsigned long, unsigned long, unsigned char*, unsigned long)>:
    18d0:	b5f0      	push	{r4, r5, r6, r7, lr}
    18d2:	b087      	sub	sp, #28
    18d4:	9d0e      	ldr	r5, [sp, #56]	; 0x38
    18d6:	9f0c      	ldr	r7, [sp, #48]	; 0x30
    18d8:	9e0d      	ldr	r6, [sp, #52]	; 0x34
    18da:	9502      	str	r5, [sp, #8]
    18dc:	9d0f      	ldr	r5, [sp, #60]	; 0x3c
    18de:	2401      	movs	r4, #1
    18e0:	9700      	str	r7, [sp, #0]
    18e2:	9601      	str	r6, [sp, #4]
    18e4:	9503      	str	r5, [sp, #12]
    18e6:	9404      	str	r4, [sp, #16]
    18e8:	f7ff febe 	bl	1668 <USBHost::controlTransfer(USBDeviceConnected*, unsigned char, unsigned char, unsigned long, unsigned long, unsigned char*, unsigned long, bool)>
    18ec:	b007      	add	sp, #28
    18ee:	bdf0      	pop	{r4, r5, r6, r7, pc}

000018f0 <USBHost::setAddress(USBDeviceConnected*, unsigned char)>:
    18f0:	b510      	push	{r4, lr}
    18f2:	2300      	movs	r3, #0
    18f4:	b086      	sub	sp, #24
    18f6:	2401      	movs	r4, #1
    18f8:	e88d 000c 	stmia.w	sp, {r2, r3}
    18fc:	9302      	str	r3, [sp, #8]
    18fe:	9303      	str	r3, [sp, #12]
    1900:	461a      	mov	r2, r3
    1902:	9404      	str	r4, [sp, #16]
    1904:	2305      	movs	r3, #5
    1906:	f7ff feaf 	bl	1668 <USBHost::controlTransfer(USBDeviceConnected*, unsigned char, unsigned char, unsigned long, unsigned long, unsigned char*, unsigned long, bool)>
    190a:	b006      	add	sp, #24
    190c:	bd10      	pop	{r4, pc}
    190e:	bf00      	nop

00001910 <USBHost::usb_process()>:
    1910:	e92d 4ff0 	stmdb	sp!, {r4, r5, r6, r7, r8, r9, r10, r11, lr}
    1914:	f500 5209 	add.w	r2, r0, #8768	; 0x2240
    1918:	b095      	sub	sp, #84	; 0x54
    191a:	9206      	str	r2, [sp, #24]
    191c:	f500 5302 	add.w	r3, r0, #8320	; 0x2080
    1920:	930c      	str	r3, [sp, #48]	; 0x30
    1922:	9b06      	ldr	r3, [sp, #24]
    1924:	f500 52d8 	add.w	r2, r0, #6912	; 0x1b00
    1928:	9208      	str	r2, [sp, #32]
    192a:	330c      	adds	r3, #12
    192c:	9306      	str	r3, [sp, #24]
    192e:	9b08      	ldr	r3, [sp, #32]
    1930:	f500 52d9 	add.w	r2, r0, #6944	; 0x1b20
    1934:	9207      	str	r2, [sp, #28]
    1936:	3308      	adds	r3, #8
    1938:	3204      	adds	r2, #4
    193a:	920b      	str	r2, [sp, #44]	; 0x2c
    193c:	9308      	str	r3, [sp, #32]
    193e:	9a0c      	ldr	r2, [sp, #48]	; 0x30
    1940:	9b07      	ldr	r3, [sp, #28]
    1942:	f500 5805 	add.w	r8, r0, #8512	; 0x2140
    1946:	3208      	adds	r2, #8
    1948:	3308      	adds	r3, #8
    194a:	4605      	mov	r5, r0
    194c:	f108 0810 	add.w	r8, r8, #16
    1950:	920c      	str	r2, [sp, #48]	; 0x30
    1952:	9307      	str	r3, [sp, #28]
    1954:	a811      	add	r0, sp, #68	; 0x44
    1956:	f8d8 1000 	ldr.w	r1, [r8]
    195a:	f04f 32ff 	mov.w	r2, #4294967295	; 0xffffffff
    195e:	f001 fbd9 	bl	3114 <osMailGet>
    1962:	9b11      	ldr	r3, [sp, #68]	; 0x44
    1964:	2b20      	cmp	r3, #32
    1966:	d1f5      	bne.n	1954 <USBHost::usb_process()+0x44>
    1968:	9f12      	ldr	r7, [sp, #72]	; 0x48
    196a:	783c      	ldrb	r4, [r7, #0]
    196c:	2c02      	cmp	r4, #2
    196e:	d009      	beq.n	1984 <USBHost::usb_process()+0x74>
    1970:	2c04      	cmp	r4, #4
    1972:	d070      	beq.n	1a56 <USBHost::usb_process()+0x146>
    1974:	2c01      	cmp	r4, #1
    1976:	d052      	beq.n	1a1e <USBHost::usb_process()+0x10e>
    1978:	4639      	mov	r1, r7
    197a:	f8d8 0000 	ldr.w	r0, [r8]
    197e:	f001 fbaf 	bl	30e0 <osMailFree>
    1982:	e7e7      	b.n	1954 <USBHost::usb_process()+0x44>
    1984:	f04f 31ff 	mov.w	r1, #4294967295	; 0xffffffff
    1988:	9806      	ldr	r0, [sp, #24]
    198a:	f002 fa19 	bl	3dc0 <rtos::Mutex::lock(unsigned long)>
    198e:	2100      	movs	r1, #0
    1990:	4628      	mov	r0, r5
    1992:	f000 fe6b 	bl	266c <USBHALHost::disableList(ENDPOINT_TYPE)>
    1996:	4621      	mov	r1, r4
    1998:	4606      	mov	r6, r0
    199a:	4628      	mov	r0, r5
    199c:	f000 fe66 	bl	266c <USBHALHost::disableList(ENDPOINT_TYPE)>
    19a0:	2103      	movs	r1, #3
    19a2:	4604      	mov	r4, r0
    19a4:	4628      	mov	r0, r5
    19a6:	f000 fe61 	bl	266c <USBHALHost::disableList(ENDPOINT_TYPE)>
    19aa:	f897 e008 	ldrb.w	lr, [r7, #8]
    19ae:	4681      	mov	r9, r0
    19b0:	f897 c009 	ldrb.w	r12, [r7, #9]
    19b4:	68f8      	ldr	r0, [r7, #12]
    19b6:	9907      	ldr	r1, [sp, #28]
    19b8:	2305      	movs	r3, #5
    19ba:	f891 20fc 	ldrb.w	r2, [r1, #252]	; 0xfc
    19be:	4572      	cmp	r2, lr
    19c0:	d01f      	beq.n	1a02 <USBHost::usb_process()+0xf2>
    19c2:	3b01      	subs	r3, #1
    19c4:	f501 7186 	add.w	r1, r1, #268	; 0x10c
    19c8:	d1f7      	bne.n	19ba <USBHost::usb_process()+0xaa>
    19ca:	b99e      	cbnz	r6, 19f4 <USBHost::usb_process()+0xe4>
    19cc:	b934      	cbnz	r4, 19dc <USBHost::usb_process()+0xcc>
    19ce:	f1b9 0f00 	cmp.w	r9, #0
    19d2:	d10a      	bne.n	19ea <USBHost::usb_process()+0xda>
    19d4:	9806      	ldr	r0, [sp, #24]
    19d6:	f002 f9f7 	bl	3dc8 <rtos::Mutex::unlock()>
    19da:	e7cd      	b.n	1978 <USBHost::usb_process()+0x68>
    19dc:	4628      	mov	r0, r5
    19de:	2102      	movs	r1, #2
    19e0:	f000 fe26 	bl	2630 <USBHALHost::enableList(ENDPOINT_TYPE)>
    19e4:	f1b9 0f00 	cmp.w	r9, #0
    19e8:	d0f4      	beq.n	19d4 <USBHost::usb_process()+0xc4>
    19ea:	4628      	mov	r0, r5
    19ec:	2103      	movs	r1, #3
    19ee:	f000 fe1f 	bl	2630 <USBHALHost::enableList(ENDPOINT_TYPE)>
    19f2:	e7ef      	b.n	19d4 <USBHost::usb_process()+0xc4>
    19f4:	4628      	mov	r0, r5
    19f6:	2100      	movs	r1, #0
    19f8:	f000 fe1a 	bl	2630 <USBHALHost::enableList(ENDPOINT_TYPE)>
    19fc:	2c00      	cmp	r4, #0
    19fe:	d0e6      	beq.n	19ce <USBHost::usb_process()+0xbe>
    1a00:	e7ec      	b.n	19dc <USBHost::usb_process()+0xcc>
    1a02:	f891 20fd 	ldrb.w	r2, [r1, #253]	; 0xfd
    1a06:	4562      	cmp	r2, r12
    1a08:	d1db      	bne.n	19c2 <USBHost::usb_process()+0xb2>
    1a0a:	b110      	cbz	r0, 1a12 <USBHost::usb_process()+0x102>
    1a0c:	684a      	ldr	r2, [r1, #4]
    1a0e:	4290      	cmp	r0, r2
    1a10:	d1d7      	bne.n	19c2 <USBHost::usb_process()+0xb2>
    1a12:	4628      	mov	r0, r5
    1a14:	f7ff fa94 	bl	f40 <USBHost::freeDevice(USBDeviceConnected*)>
    1a18:	2e00      	cmp	r6, #0
    1a1a:	d0d7      	beq.n	19cc <USBHost::usb_process()+0xbc>
    1a1c:	e7ea      	b.n	19f4 <USBHost::usb_process()+0xe4>
    1a1e:	f04f 0900 	mov.w	r9, #0
    1a22:	9806      	ldr	r0, [sp, #24]
    1a24:	f04f 31ff 	mov.w	r1, #4294967295	; 0xffffffff
    1a28:	f88d 9040 	strb.w	r9, [sp, #64]	; 0x40
    1a2c:	f002 f9c8 	bl	3dc0 <rtos::Mutex::lock(unsigned long)>
    1a30:	eb05 0b09 	add.w	r11, r5, r9
    1a34:	f50b 5301 	add.w	r3, r11, #8256	; 0x2040
    1a38:	f893 6024 	ldrb.w	r6, [r3, #36]	; 0x24
    1a3c:	2e00      	cmp	r6, #0
    1a3e:	d042      	beq.n	1ac6 <USBHost::usb_process()+0x1b6>
    1a40:	f109 0901 	add.w	r9, r9, #1
    1a44:	f1b9 0f05 	cmp.w	r9, #5
    1a48:	d1f2      	bne.n	1a30 <USBHost::usb_process()+0x120>
    1a4a:	4995      	ldr	r1, [pc, #596]	; (1ca0 <USBHost::usb_process()+0x390>)
    1a4c:	2261      	movs	r2, #97	; 0x61
    1a4e:	4895      	ldr	r0, [pc, #596]	; (1ca4 <USBHost::usb_process()+0x394>)
    1a50:	f004 fa78 	bl	5f44 <iprintf>
    1a54:	e7be      	b.n	19d4 <USBHost::usb_process()+0xc4>
    1a56:	7afb      	ldrb	r3, [r7, #11]
    1a58:	f8d7 9004 	ldr.w	r9, [r7, #4]
    1a5c:	2b10      	cmp	r3, #16
    1a5e:	f8d9 6010 	ldr.w	r6, [r9, #16]
    1a62:	f000 80ff 	beq.w	1c64 <USBHost::usb_process()+0x354>
    1a66:	9a07      	ldr	r2, [sp, #28]
    1a68:	6834      	ldr	r4, [r6, #0]
    1a6a:	2100      	movs	r1, #0
    1a6c:	4294      	cmp	r4, r2
    1a6e:	f502 7286 	add.w	r2, r2, #268	; 0x10c
    1a72:	d007      	beq.n	1a84 <USBHost::usb_process()+0x174>
    1a74:	3101      	adds	r1, #1
    1a76:	2905      	cmp	r1, #5
    1a78:	f43f af7e 	beq.w	1978 <USBHost::usb_process()+0x68>
    1a7c:	4294      	cmp	r4, r2
    1a7e:	f502 7286 	add.w	r2, r2, #268	; 0x10c
    1a82:	d1f7      	bne.n	1a74 <USBHost::usb_process()+0x164>
    1a84:	186b      	adds	r3, r5, r1
    1a86:	f503 5301 	add.w	r3, r3, #8256	; 0x2040
    1a8a:	3320      	adds	r3, #32
    1a8c:	791b      	ldrb	r3, [r3, #4]
    1a8e:	2b00      	cmp	r3, #0
    1a90:	f43f af72 	beq.w	1978 <USBHost::usb_process()+0x68>
    1a94:	4630      	mov	r0, r6
    1a96:	f000 fcb3 	bl	2400 <USBEndpoint::getStateString()>
    1a9a:	6832      	ldr	r2, [r6, #0]
    1a9c:	9000      	str	r0, [sp, #0]
    1a9e:	9202      	str	r2, [sp, #8]
    1aa0:	9601      	str	r6, [sp, #4]
    1aa2:	f896 106c 	ldrb.w	r1, [r6, #108]	; 0x6c
    1aa6:	464b      	mov	r3, r9
    1aa8:	ebc1 1101 	rsb	r1, r1, r1, lsl #4
    1aac:	eb02 0281 	add.w	r2, r2, r1, lsl #2
    1ab0:	3238      	adds	r2, #56	; 0x38
    1ab2:	9203      	str	r2, [sp, #12]
    1ab4:	487c      	ldr	r0, [pc, #496]	; (1ca8 <USBHost::usb_process()+0x398>)
    1ab6:	497a      	ldr	r1, [pc, #488]	; (1ca0 <USBHost::usb_process()+0x390>)
    1ab8:	22ed      	movs	r2, #237	; 0xed
    1aba:	f004 fa43 	bl	5f44 <iprintf>
    1abe:	2310      	movs	r3, #16
    1ac0:	f886 3025 	strb.w	r3, [r6, #37]	; 0x25
    1ac4:	e758      	b.n	1978 <USBHost::usb_process()+0x68>
    1ac6:	f44f 7486 	mov.w	r4, #268	; 0x10c
    1aca:	fb04 5409 	mla	r4, r4, r9, r5
    1ace:	7abb      	ldrb	r3, [r7, #10]
    1ad0:	f504 54d9 	add.w	r4, r4, #6944	; 0x1b20
    1ad4:	3300      	adds	r3, #0
    1ad6:	f104 0408 	add.w	r4, r4, #8
    1ada:	bf18      	it	ne
    1adc:	2301      	movne	r3, #1
    1ade:	7a7a      	ldrb	r2, [r7, #9]
    1ae0:	4620      	mov	r0, r4
    1ae2:	7a39      	ldrb	r1, [r7, #8]
    1ae4:	f7fe ff92 	bl	a0c <USBDeviceConnected::init(unsigned char, unsigned char, bool)>
    1ae8:	9a0b      	ldr	r2, [sp, #44]	; 0x2c
    1aea:	f50b 5301 	add.w	r3, r11, #8256	; 0x2040
    1aee:	f892 a000 	ldrb.w	r10, [r2]
    1af2:	f04f 0c01 	mov.w	r12, #1
    1af6:	f50b 5202 	add.w	r2, r11, #8320	; 0x2080
    1afa:	f883 603d 	strb.w	r6, [r3, #61]	; 0x3d
    1afe:	f882 c002 	strb.w	r12, [r2, #2]
    1b02:	f1ba 0f00 	cmp.w	r10, #0
    1b06:	d116      	bne.n	1b36 <USBHost::usb_process()+0x226>
    1b08:	4662      	mov	r2, r12
    1b0a:	4651      	mov	r1, r10
    1b0c:	2308      	movs	r3, #8
    1b0e:	f8cd a000 	str.w	r10, [sp]
    1b12:	4628      	mov	r0, r5
    1b14:	f8cd c014 	str.w	r12, [sp, #20]
    1b18:	f7ff fad4 	bl	10c4 <USBHost::newEndpoint(ENDPOINT_TYPE, ENDPOINT_DIRECTION, unsigned long, unsigned char)>
    1b1c:	9b08      	ldr	r3, [sp, #32]
    1b1e:	4651      	mov	r1, r10
    1b20:	6018      	str	r0, [r3, #0]
    1b22:	681b      	ldr	r3, [r3, #0]
    1b24:	4652      	mov	r2, r10
    1b26:	4628      	mov	r0, r5
    1b28:	f7ff fb42 	bl	11b0 <USBHost::addEndpoint(USBDeviceConnected*, unsigned char, USBEndpoint*)>
    1b2c:	f8dd c014 	ldr.w	r12, [sp, #20]
    1b30:	9b0b      	ldr	r3, [sp, #44]	; 0x2c
    1b32:	f883 c000 	strb.w	r12, [r3]
    1b36:	68fb      	ldr	r3, [r7, #12]
    1b38:	b103      	cbz	r3, 1b3c <USBHost::usb_process()+0x22c>
    1b3a:	6063      	str	r3, [r4, #4]
    1b3c:	f04f 0a0a 	mov.w	r10, #10
    1b40:	e008      	b.n	1b54 <USBHost::usb_process()+0x244>
    1b42:	485a      	ldr	r0, [pc, #360]	; (1cac <USBHost::usb_process()+0x39c>)
    1b44:	4956      	ldr	r1, [pc, #344]	; (1ca0 <USBHost::usb_process()+0x390>)
    1b46:	f004 f9fd 	bl	5f44 <iprintf>
    1b4a:	f10a 3aff 	add.w	r10, r10, #4294967295	; 0xffffffff
    1b4e:	f01a 0aff 	ands.w	r10, r10, #255	; 0xff
    1b52:	d031      	beq.n	1bb8 <USBHost::usb_process()+0x2a8>
    1b54:	4621      	mov	r1, r4
    1b56:	4628      	mov	r0, r5
    1b58:	f7ff fafc 	bl	1154 <USBHost::resetDevice(USBDeviceConnected*)>
    1b5c:	2608      	movs	r6, #8
    1b5e:	2200      	movs	r2, #0
    1b60:	f884 2107 	strb.w	r2, [r4, #263]	; 0x107
    1b64:	f8c4 60f8 	str.w	r6, [r4, #248]	; 0xf8
    1b68:	4621      	mov	r1, r4
    1b6a:	9200      	str	r2, [sp, #0]
    1b6c:	4633      	mov	r3, r6
    1b6e:	aa0f      	add	r2, sp, #60	; 0x3c
    1b70:	4628      	mov	r0, r5
    1b72:	f7ff fe4f 	bl	1814 <USBHost::getDeviceDescriptor(USBDeviceConnected*, unsigned char*, unsigned short, unsigned short*)>
    1b76:	4621      	mov	r1, r4
    1b78:	227f      	movs	r2, #127	; 0x7f
    1b7a:	2800      	cmp	r0, #0
    1b7c:	d1e1      	bne.n	1b42 <USBHost::usb_process()+0x232>
    1b7e:	f89d 3043 	ldrb.w	r3, [sp, #67]	; 0x43
    1b82:	f894 2102 	ldrb.w	r2, [r4, #258]	; 0x102
    1b86:	f8c4 30f8 	str.w	r3, [r4, #248]	; 0xf8
    1b8a:	4628      	mov	r0, r5
    1b8c:	f7ff feb0 	bl	18f0 <USBHost::setAddress(USBDeviceConnected*, unsigned char)>
    1b90:	4686      	mov	lr, r0
    1b92:	f04f 0c01 	mov.w	r12, #1
    1b96:	4621      	mov	r1, r4
    1b98:	aa0f      	add	r2, sp, #60	; 0x3c
    1b9a:	4633      	mov	r3, r6
    1b9c:	4628      	mov	r0, r5
    1b9e:	f1be 0f00 	cmp.w	lr, #0
    1ba2:	d026      	beq.n	1bf2 <USBHost::usb_process()+0x2e2>
    1ba4:	4842      	ldr	r0, [pc, #264]	; (1cb0 <USBHost::usb_process()+0x3a0>)
    1ba6:	493e      	ldr	r1, [pc, #248]	; (1ca0 <USBHost::usb_process()+0x390>)
    1ba8:	228a      	movs	r2, #138	; 0x8a
    1baa:	f10a 3aff 	add.w	r10, r10, #4294967295	; 0xffffffff
    1bae:	f004 f9c9 	bl	5f44 <iprintf>
    1bb2:	f01a 0aff 	ands.w	r10, r10, #255	; 0xff
    1bb6:	d1cd      	bne.n	1b54 <USBHost::usb_process()+0x244>
    1bb8:	7a3b      	ldrb	r3, [r7, #8]
    1bba:	483e      	ldr	r0, [pc, #248]	; (1cb4 <USBHost::usb_process()+0x3a4>)
    1bbc:	9300      	str	r3, [sp, #0]
    1bbe:	7a7b      	ldrb	r3, [r7, #9]
    1bc0:	4937      	ldr	r1, [pc, #220]	; (1ca0 <USBHost::usb_process()+0x390>)
    1bc2:	9301      	str	r3, [sp, #4]
    1bc4:	229b      	movs	r2, #155	; 0x9b
    1bc6:	4623      	mov	r3, r4
    1bc8:	f004 f9bc 	bl	5f44 <iprintf>
    1bcc:	f89d 3040 	ldrb.w	r3, [sp, #64]	; 0x40
    1bd0:	2b09      	cmp	r3, #9
    1bd2:	d01a      	beq.n	1c0a <USBHost::usb_process()+0x2fa>
    1bd4:	2600      	movs	r6, #0
    1bd6:	68f8      	ldr	r0, [r7, #12]
    1bd8:	b110      	cbz	r0, 1be0 <USBHost::usb_process()+0x2d0>
    1bda:	4621      	mov	r1, r4
    1bdc:	f000 f9a2 	bl	1f24 <USBHostHub::deviceConnected(USBDeviceConnected*)>
    1be0:	2e00      	cmp	r6, #0
    1be2:	f47f aef7 	bne.w	19d4 <USBHost::usb_process()+0xc4>
    1be6:	f50b 5b01 	add.w	r11, r11, #8256	; 0x2040
    1bea:	2301      	movs	r3, #1
    1bec:	f88b 3024 	strb.w	r3, [r11, #36]	; 0x24
    1bf0:	e6f0      	b.n	19d4 <USBHost::usb_process()+0xc4>
    1bf2:	f884 c107 	strb.w	r12, [r4, #263]	; 0x107
    1bf6:	f8cd e000 	str.w	lr, [sp]
    1bfa:	f7ff fe0b 	bl	1814 <USBHost::getDeviceDescriptor(USBDeviceConnected*, unsigned char*, unsigned short, unsigned short*)>
    1bfe:	2800      	cmp	r0, #0
    1c00:	d0da      	beq.n	1bb8 <USBHost::usb_process()+0x2a8>
    1c02:	2064      	movs	r0, #100	; 0x64
    1c04:	f002 f934 	bl	3e70 <rtos::Thread::wait(unsigned long)>
    1c08:	e79f      	b.n	1b4a <USBHost::usb_process()+0x23a>
    1c0a:	2300      	movs	r3, #0
    1c0c:	f8dd a030 	ldr.w	r10, [sp, #48]	; 0x30
    1c10:	9709      	str	r7, [sp, #36]	; 0x24
    1c12:	f8cd 9034 	str.w	r9, [sp, #52]	; 0x34
    1c16:	461f      	mov	r7, r3
    1c18:	f8cd 8028 	str.w	r8, [sp, #40]	; 0x28
    1c1c:	eb05 0907 	add.w	r9, r5, r7
    1c20:	f509 5603 	add.w	r6, r9, #8384	; 0x20c0
    1c24:	3638      	adds	r6, #56	; 0x38
    1c26:	7832      	ldrb	r2, [r6, #0]
    1c28:	b96a      	cbnz	r2, 1c46 <USBHost::usb_process()+0x336>
    1c2a:	f04f 0803 	mov.w	r8, #3
    1c2e:	4650      	mov	r0, r10
    1c30:	4621      	mov	r1, r4
    1c32:	f000 f9a7 	bl	1f84 <USBHostHub::connect(USBDeviceConnected*)>
    1c36:	f108 38ff 	add.w	r8, r8, #4294967295	; 0xffffffff
    1c3a:	b9c0      	cbnz	r0, 1c6e <USBHost::usb_process()+0x35e>
    1c3c:	f018 08ff 	ands.w	r8, r8, #255	; 0xff
    1c40:	d1f5      	bne.n	1c2e <USBHost::usb_process()+0x31e>
    1c42:	7832      	ldrb	r2, [r6, #0]
    1c44:	bb42      	cbnz	r2, 1c98 <USBHost::usb_process()+0x388>
    1c46:	3701      	adds	r7, #1
    1c48:	2f02      	cmp	r7, #2
    1c4a:	f10a 0a38 	add.w	r10, r10, #56	; 0x38
    1c4e:	d1e5      	bne.n	1c1c <USBHost::usb_process()+0x30c>
    1c50:	4819      	ldr	r0, [pc, #100]	; (1cb8 <USBHost::usb_process()+0x3a8>)
    1c52:	4913      	ldr	r1, [pc, #76]	; (1ca0 <USBHost::usb_process()+0x390>)
    1c54:	22ae      	movs	r2, #174	; 0xae
    1c56:	9f09      	ldr	r7, [sp, #36]	; 0x24
    1c58:	f8dd 8028 	ldr.w	r8, [sp, #40]	; 0x28
    1c5c:	2601      	movs	r6, #1
    1c5e:	f004 f971 	bl	5f44 <iprintf>
    1c62:	e7b8      	b.n	1bd6 <USBHost::usb_process()+0x2c6>
    1c64:	f106 0038 	add.w	r0, r6, #56	; 0x38
    1c68:	f002 fb26 	bl	42b8 <mbed::FunctionPointer::call()>
    1c6c:	e684      	b.n	1978 <USBHost::usb_process()+0x68>
    1c6e:	4649      	mov	r1, r9
    1c70:	f8dd 9034 	ldr.w	r9, [sp, #52]	; 0x34
    1c74:	f44f 7386 	mov.w	r3, #268	; 0x10c
    1c78:	fb03 5309 	mla	r3, r3, r9, r5
    1c7c:	f501 5103 	add.w	r1, r1, #8384	; 0x20c0
    1c80:	f503 53d9 	add.w	r3, r3, #6944	; 0x1b20
    1c84:	2201      	movs	r2, #1
    1c86:	f8c3 a008 	str.w	r10, [r3, #8]
    1c8a:	9f09      	ldr	r7, [sp, #36]	; 0x24
    1c8c:	f8dd 8028 	ldr.w	r8, [sp, #40]	; 0x28
    1c90:	2600      	movs	r6, #0
    1c92:	f881 2038 	strb.w	r2, [r1, #56]	; 0x38
    1c96:	e79e      	b.n	1bd6 <USBHost::usb_process()+0x2c6>
    1c98:	9f09      	ldr	r7, [sp, #36]	; 0x24
    1c9a:	f8dd 8028 	ldr.w	r8, [sp, #40]	; 0x28
    1c9e:	e799      	b.n	1bd4 <USBHost::usb_process()+0x2c4>
    1ca0:	00007ec4 	.word	0x00007ec4
    1ca4:	000081b4 	.word	0x000081b4
    1ca8:	0000815c 	.word	0x0000815c
    1cac:	000080bc 	.word	0x000080bc
    1cb0:	000080f4 	.word	0x000080f4
    1cb4:	00008118 	.word	0x00008118
    1cb8:	000081e4 	.word	0x000081e4

00001cbc <USBHost::usb_process_static(void const*)>:
    1cbc:	b508      	push	{r3, lr}
    1cbe:	f7ff fe27 	bl	1910 <USBHost::usb_process()>
    1cc2:	bf00      	nop

00001cc4 <USBHost::setConfiguration(USBDeviceConnected*, unsigned char)>:
    1cc4:	b510      	push	{r4, lr}
    1cc6:	2300      	movs	r3, #0
    1cc8:	b086      	sub	sp, #24
    1cca:	2401      	movs	r4, #1
    1ccc:	e88d 000c 	stmia.w	sp, {r2, r3}
    1cd0:	9302      	str	r3, [sp, #8]
    1cd2:	9303      	str	r3, [sp, #12]
    1cd4:	461a      	mov	r2, r3
    1cd6:	9404      	str	r4, [sp, #16]
    1cd8:	2309      	movs	r3, #9
    1cda:	f7ff fcc5 	bl	1668 <USBHost::controlTransfer(USBDeviceConnected*, unsigned char, unsigned char, unsigned long, unsigned long, unsigned char*, unsigned long, bool)>
    1cde:	b006      	add	sp, #24
    1ce0:	bd10      	pop	{r4, pc}
    1ce2:	bf00      	nop

00001ce4 <USBHost::enumerate(USBDeviceConnected*, IUSBEnumerator*)>:
    1ce4:	e92d 43f0 	stmdb	sp!, {r4, r5, r6, r7, r8, r9, lr}
    1ce8:	f500 5809 	add.w	r8, r0, #8768	; 0x2240
    1cec:	f108 080c 	add.w	r8, r8, #12
    1cf0:	b085      	sub	sp, #20
    1cf2:	4606      	mov	r6, r0
    1cf4:	2400      	movs	r4, #0
    1cf6:	460d      	mov	r5, r1
    1cf8:	4640      	mov	r0, r8
    1cfa:	f04f 31ff 	mov.w	r1, #4294967295	; 0xffffffff
    1cfe:	4617      	mov	r7, r2
    1d00:	f8ad 400e 	strh.w	r4, [sp, #14]
    1d04:	f002 f85c 	bl	3dc0 <rtos::Mutex::lock(unsigned long)>
    1d08:	f506 52d9 	add.w	r2, r6, #6944	; 0x1b20
    1d0c:	4623      	mov	r3, r4
    1d0e:	3208      	adds	r2, #8
    1d10:	f240 503c 	movw	r0, #1340	; 0x53c
    1d14:	18d1      	adds	r1, r2, r3
    1d16:	428d      	cmp	r5, r1
    1d18:	f503 7386 	add.w	r3, r3, #268	; 0x10c
    1d1c:	d009      	beq.n	1d32 <USBHost::enumerate(USBDeviceConnected*, IUSBEnumerator*)+0x4e>
    1d1e:	4283      	cmp	r3, r0
    1d20:	d1f8      	bne.n	1d14 <USBHost::enumerate(USBDeviceConnected*, IUSBEnumerator*)+0x30>
    1d22:	2412      	movs	r4, #18
    1d24:	4640      	mov	r0, r8
    1d26:	f002 f84f 	bl	3dc8 <rtos::Mutex::unlock()>
    1d2a:	4620      	mov	r0, r4
    1d2c:	b005      	add	sp, #20
    1d2e:	e8bd 83f0 	ldmia.w	sp!, {r4, r5, r6, r7, r8, r9, pc}
    1d32:	4613      	mov	r3, r2
    1d34:	2400      	movs	r4, #0
    1d36:	429d      	cmp	r5, r3
    1d38:	f503 7386 	add.w	r3, r3, #268	; 0x10c
    1d3c:	d011      	beq.n	1d62 <USBHost::enumerate(USBDeviceConnected*, IUSBEnumerator*)+0x7e>
    1d3e:	3401      	adds	r4, #1
    1d40:	2c05      	cmp	r4, #5
    1d42:	d1f8      	bne.n	1d36 <USBHost::enumerate(USBDeviceConnected*, IUSBEnumerator*)+0x52>
    1d44:	f506 5909 	add.w	r9, r6, #8768	; 0x2240
    1d48:	2300      	movs	r3, #0
    1d4a:	f109 0934 	add.w	r9, r9, #52	; 0x34
    1d4e:	9300      	str	r3, [sp, #0]
    1d50:	464a      	mov	r2, r9
    1d52:	4630      	mov	r0, r6
    1d54:	4629      	mov	r1, r5
    1d56:	2312      	movs	r3, #18
    1d58:	f7ff fd5c 	bl	1814 <USBHost::getDeviceDescriptor(USBDeviceConnected*, unsigned char*, unsigned short, unsigned short*)>
    1d5c:	b1d0      	cbz	r0, 1d94 <USBHost::enumerate(USBDeviceConnected*, IUSBEnumerator*)+0xb0>
    1d5e:	4604      	mov	r4, r0
    1d60:	e7e0      	b.n	1d24 <USBHost::enumerate(USBDeviceConnected*, IUSBEnumerator*)+0x40>
    1d62:	f506 5201 	add.w	r2, r6, #8256	; 0x2040
    1d66:	f604 031a 	addw	r3, r4, #2074	; 0x81a
    1d6a:	322c      	adds	r2, #44	; 0x2c
    1d6c:	eb02 0484 	add.w	r4, r2, r4, lsl #2
    1d70:	eb06 0383 	add.w	r3, r6, r3, lsl #2
    1d74:	2100      	movs	r1, #0
    1d76:	f813 2f01 	ldrb.w	r2, [r3, #1]!
    1d7a:	1c48      	adds	r0, r1, #1
    1d7c:	b102      	cbz	r2, 1d80 <USBHost::enumerate(USBDeviceConnected*, IUSBEnumerator*)+0x9c>
    1d7e:	b2c1      	uxtb	r1, r0
    1d80:	42a3      	cmp	r3, r4
    1d82:	d1f8      	bne.n	1d76 <USBHost::enumerate(USBDeviceConnected*, IUSBEnumerator*)+0x92>
    1d84:	2900      	cmp	r1, #0
    1d86:	d0dd      	beq.n	1d44 <USBHost::enumerate(USBDeviceConnected*, IUSBEnumerator*)+0x60>
    1d88:	f895 3109 	ldrb.w	r3, [r5, #265]	; 0x109
    1d8c:	428b      	cmp	r3, r1
    1d8e:	d1d9      	bne.n	1d44 <USBHost::enumerate(USBDeviceConnected*, IUSBEnumerator*)+0x60>
    1d90:	2400      	movs	r4, #0
    1d92:	e7c7      	b.n	1d24 <USBHost::enumerate(USBDeviceConnected*, IUSBEnumerator*)+0x40>
    1d94:	f242 2378 	movw	r3, #8824	; 0x2278
    1d98:	5cf2      	ldrb	r2, [r6, r3]
    1d9a:	f242 2379 	movw	r3, #8825	; 0x2279
    1d9e:	f885 2103 	strb.w	r2, [r5, #259]	; 0x103
    1da2:	5cf2      	ldrb	r2, [r6, r3]
    1da4:	f242 237a 	movw	r3, #8826	; 0x227a
    1da8:	f885 2104 	strb.w	r2, [r5, #260]	; 0x104
    1dac:	5cf3      	ldrb	r3, [r6, r3]
    1dae:	f242 217d 	movw	r1, #8829	; 0x227d
    1db2:	f885 3105 	strb.w	r3, [r5, #261]	; 0x105
    1db6:	f242 207c 	movw	r0, #8828	; 0x227c
    1dba:	5c74      	ldrb	r4, [r6, r1]
    1dbc:	5c33      	ldrb	r3, [r6, r0]
    1dbe:	f242 227f 	movw	r2, #8831	; 0x227f
    1dc2:	ea43 2304 	orr.w	r3, r3, r4, lsl #8
    1dc6:	f8a5 30fe 	strh.w	r3, [r5, #254]	; 0xfe
    1dca:	f242 237e 	movw	r3, #8830	; 0x227e
    1dce:	f816 c002 	ldrb.w	r12, [r6, r2]
    1dd2:	f816 e003 	ldrb.w	lr, [r6, r3]
    1dd6:	683c      	ldr	r4, [r7, #0]
    1dd8:	ea4e 2e0c 	orr.w	lr, lr, r12, lsl #8
    1ddc:	f8a5 e100 	strh.w	lr, [r5, #256]	; 0x100
    1de0:	f816 e001 	ldrb.w	lr, [r6, r1]
    1de4:	5cf3      	ldrb	r3, [r6, r3]
    1de6:	5c31      	ldrb	r1, [r6, r0]
    1de8:	5cb2      	ldrb	r2, [r6, r2]
    1dea:	ea41 210e 	orr.w	r1, r1, lr, lsl #8
    1dee:	ea43 2202 	orr.w	r2, r3, r2, lsl #8
    1df2:	4638      	mov	r0, r7
    1df4:	6823      	ldr	r3, [r4, #0]
    1df6:	4798      	blx	r3
    1df8:	f10d 030e 	add.w	r3, sp, #14
    1dfc:	9300      	str	r3, [sp, #0]
    1dfe:	4630      	mov	r0, r6
    1e00:	4629      	mov	r1, r5
    1e02:	464a      	mov	r2, r9
    1e04:	f240 139f 	movw	r3, #415	; 0x19f
    1e08:	f7ff fd20 	bl	184c <USBHost::getConfigurationDescriptor(USBDeviceConnected*, unsigned char*, unsigned short, unsigned short*)>
    1e0c:	2800      	cmp	r0, #0
    1e0e:	d1a6      	bne.n	1d5e <USBHost::enumerate(USBDeviceConnected*, IUSBEnumerator*)+0x7a>
    1e10:	f8bd 300e 	ldrh.w	r3, [sp, #14]
    1e14:	9700      	str	r7, [sp, #0]
    1e16:	464a      	mov	r2, r9
    1e18:	4630      	mov	r0, r6
    1e1a:	4629      	mov	r1, r5
    1e1c:	f7ff faaa 	bl	1374 <USBHost::parseConfDescr(USBDeviceConnected*, unsigned char*, unsigned long, IUSBEnumerator*)>
    1e20:	f895 3108 	ldrb.w	r3, [r5, #264]	; 0x108
    1e24:	b933      	cbnz	r3, 1e34 <USBHost::enumerate(USBDeviceConnected*, IUSBEnumerator*)+0x150>
    1e26:	4630      	mov	r0, r6
    1e28:	4629      	mov	r1, r5
    1e2a:	2201      	movs	r2, #1
    1e2c:	f7ff ff4a 	bl	1cc4 <USBHost::setConfiguration(USBDeviceConnected*, unsigned char)>
    1e30:	2800      	cmp	r0, #0
    1e32:	d194      	bne.n	1d5e <USBHost::enumerate(USBDeviceConnected*, IUSBEnumerator*)+0x7a>
    1e34:	2301      	movs	r3, #1
    1e36:	f885 3108 	strb.w	r3, [r5, #264]	; 0x108
    1e3a:	4640      	mov	r0, r8
    1e3c:	f001 ffc4 	bl	3dc8 <rtos::Mutex::unlock()>
    1e40:	2064      	movs	r0, #100	; 0x64
    1e42:	f002 f815 	bl	3e70 <rtos::Thread::wait(unsigned long)>
    1e46:	2400      	movs	r4, #0
    1e48:	e76f      	b.n	1d2a <USBHost::enumerate(USBDeviceConnected*, IUSBEnumerator*)+0x46>
    1e4a:	bf00      	nop

00001e4c <USBHostHub::disconnect()>:
    1e4c:	2300      	movs	r3, #0
    1e4e:	f04f 32ff 	mov.w	r2, #4294967295	; 0xffffffff
    1e52:	6202      	str	r2, [r0, #32]
    1e54:	7303      	strb	r3, [r0, #12]
    1e56:	6083      	str	r3, [r0, #8]
    1e58:	6103      	str	r3, [r0, #16]
    1e5a:	f880 3024 	strb.w	r3, [r0, #36]	; 0x24
    1e5e:	7503      	strb	r3, [r0, #20]
    1e60:	7543      	strb	r3, [r0, #21]
    1e62:	6283      	str	r3, [r0, #40]	; 0x28
    1e64:	62c3      	str	r3, [r0, #44]	; 0x2c
    1e66:	6303      	str	r3, [r0, #48]	; 0x30
    1e68:	6343      	str	r3, [r0, #52]	; 0x34
    1e6a:	4770      	bx	lr

00001e6c <USBHostHub::setVidPid(unsigned short, unsigned short)>:
    1e6c:	4770      	bx	lr
    1e6e:	bf00      	nop

00001e70 <USBHostHub::parseInterface(unsigned char, unsigned char, unsigned char, unsigned char)>:
    1e70:	b430      	push	{r4, r5}
    1e72:	6a04      	ldr	r4, [r0, #32]
    1e74:	f89d 5008 	ldrb.w	r5, [sp, #8]
    1e78:	3401      	adds	r4, #1
    1e7a:	d002      	beq.n	1e82 <USBHostHub::parseInterface(unsigned char, unsigned char, unsigned char, unsigned char)+0x12>
    1e7c:	2000      	movs	r0, #0
    1e7e:	bc30      	pop	{r4, r5}
    1e80:	4770      	bx	lr
    1e82:	2a09      	cmp	r2, #9
    1e84:	d1fa      	bne.n	1e7c <USBHostHub::parseInterface(unsigned char, unsigned char, unsigned char, unsigned char)+0xc>
    1e86:	2b00      	cmp	r3, #0
    1e88:	d1f8      	bne.n	1e7c <USBHostHub::parseInterface(unsigned char, unsigned char, unsigned char, unsigned char)+0xc>
    1e8a:	b915      	cbnz	r5, 1e92 <USBHostHub::parseInterface(unsigned char, unsigned char, unsigned char, unsigned char)+0x22>
    1e8c:	6201      	str	r1, [r0, #32]
    1e8e:	2001      	movs	r0, #1
    1e90:	e7f5      	b.n	1e7e <USBHostHub::parseInterface(unsigned char, unsigned char, unsigned char, unsigned char)+0xe>
    1e92:	4618      	mov	r0, r3
    1e94:	e7f3      	b.n	1e7e <USBHostHub::parseInterface(unsigned char, unsigned char, unsigned char, unsigned char)+0xe>
    1e96:	bf00      	nop

00001e98 <USBHostHub::useEndpoint(unsigned char, ENDPOINT_TYPE, ENDPOINT_DIRECTION)>:
    1e98:	b410      	push	{r4}
    1e9a:	6a04      	ldr	r4, [r0, #32]
    1e9c:	42a1      	cmp	r1, r4
    1e9e:	d003      	beq.n	1ea8 <USBHostHub::useEndpoint(unsigned char, ENDPOINT_TYPE, ENDPOINT_DIRECTION)+0x10>
    1ea0:	2000      	movs	r0, #0
    1ea2:	f85d 4b04 	ldr.w	r4, [sp], #4
    1ea6:	4770      	bx	lr
    1ea8:	2a03      	cmp	r2, #3
    1eaa:	d1f9      	bne.n	1ea0 <USBHostHub::useEndpoint(unsigned char, ENDPOINT_TYPE, ENDPOINT_DIRECTION)+0x8>
    1eac:	2b02      	cmp	r3, #2
    1eae:	d1f7      	bne.n	1ea0 <USBHostHub::useEndpoint(unsigned char, ENDPOINT_TYPE, ENDPOINT_DIRECTION)+0x8>
    1eb0:	2301      	movs	r3, #1
    1eb2:	f880 3024 	strb.w	r3, [r0, #36]	; 0x24
    1eb6:	4618      	mov	r0, r3
    1eb8:	e7f3      	b.n	1ea2 <USBHostHub::useEndpoint(unsigned char, ENDPOINT_TYPE, ENDPOINT_DIRECTION)+0xa>
    1eba:	bf00      	nop

00001ebc <void mbed::FunctionPointer::membercaller<USBHostHub>(void*, char*)>:
    1ebc:	b510      	push	{r4, lr}
    1ebe:	460b      	mov	r3, r1
    1ec0:	b082      	sub	sp, #8
    1ec2:	6849      	ldr	r1, [r1, #4]
    1ec4:	4602      	mov	r2, r0
    1ec6:	6818      	ldr	r0, [r3, #0]
    1ec8:	466b      	mov	r3, sp
    1eca:	c303      	stmia	r3!, {r0, r1}
    1ecc:	460b      	mov	r3, r1
    1ece:	07d9      	lsls	r1, r3, #31
    1ed0:	d507      	bpl.n	1ee2 <void mbed::FunctionPointer::membercaller<USBHostHub>(void*, char*)+0x26>
    1ed2:	105b      	asrs	r3, r3, #1
    1ed4:	58d4      	ldr	r4, [r2, r3]
    1ed6:	9900      	ldr	r1, [sp, #0]
    1ed8:	18d0      	adds	r0, r2, r3
    1eda:	5861      	ldr	r1, [r4, r1]
    1edc:	4788      	blx	r1
    1ede:	b002      	add	sp, #8
    1ee0:	bd10      	pop	{r4, pc}
    1ee2:	eb02 0063 	add.w	r0, r2, r3, asr #1
    1ee6:	9900      	ldr	r1, [sp, #0]
    1ee8:	4788      	blx	r1
    1eea:	b002      	add	sp, #8
    1eec:	bd10      	pop	{r4, pc}
    1eee:	bf00      	nop

00001ef0 <USBHostHub::USBHostHub()>:
    1ef0:	b410      	push	{r4}
    1ef2:	4c0a      	ldr	r4, [pc, #40]	; (1f1c <USBHostHub::USBHostHub()+0x2c>)
    1ef4:	2200      	movs	r2, #0
    1ef6:	f04f 31ff 	mov.w	r1, #4294967295	; 0xffffffff
    1efa:	6004      	str	r4, [r0, #0]
    1efc:	6201      	str	r1, [r0, #32]
    1efe:	6042      	str	r2, [r0, #4]
    1f00:	7302      	strb	r2, [r0, #12]
    1f02:	6082      	str	r2, [r0, #8]
    1f04:	6102      	str	r2, [r0, #16]
    1f06:	f880 2024 	strb.w	r2, [r0, #36]	; 0x24
    1f0a:	7502      	strb	r2, [r0, #20]
    1f0c:	7542      	strb	r2, [r0, #21]
    1f0e:	6282      	str	r2, [r0, #40]	; 0x28
    1f10:	62c2      	str	r2, [r0, #44]	; 0x2c
    1f12:	6302      	str	r2, [r0, #48]	; 0x30
    1f14:	6342      	str	r2, [r0, #52]	; 0x34
    1f16:	f85d 4b04 	ldr.w	r4, [sp], #4
    1f1a:	4770      	bx	lr
    1f1c:	00008220 	.word	0x00008220

00001f20 <USBHostHub::setHost(USBHost*)>:
    1f20:	6041      	str	r1, [r0, #4]
    1f22:	4770      	bx	lr

00001f24 <USBHostHub::deviceConnected(USBDeviceConnected*)>:
    1f24:	f891 30fd 	ldrb.w	r3, [r1, #253]	; 0xfd
    1f28:	3309      	adds	r3, #9
    1f2a:	f840 1023 	str.w	r1, [r0, r3, lsl #2]
    1f2e:	4770      	bx	lr

00001f30 <USBHostHub::deviceDisconnected(USBDeviceConnected*)>:
    1f30:	f891 30fd 	ldrb.w	r3, [r1, #253]	; 0xfd
    1f34:	2200      	movs	r2, #0
    1f36:	3309      	adds	r3, #9
    1f38:	f840 2023 	str.w	r2, [r0, r3, lsl #2]
    1f3c:	4770      	bx	lr
    1f3e:	bf00      	nop

00001f40 <USBHostHub::hubDisconnected()>:
    1f40:	b570      	push	{r4, r5, r6, lr}
    1f42:	4605      	mov	r5, r0
    1f44:	4604      	mov	r4, r0
    1f46:	f100 0610 	add.w	r6, r0, #16
    1f4a:	6aa3      	ldr	r3, [r4, #40]	; 0x28
    1f4c:	3404      	adds	r4, #4
    1f4e:	4619      	mov	r1, r3
    1f50:	b113      	cbz	r3, 1f58 <USBHostHub::hubDisconnected()+0x18>
    1f52:	6868      	ldr	r0, [r5, #4]
    1f54:	f7fe fff4 	bl	f40 <USBHost::freeDevice(USBDeviceConnected*)>
    1f58:	42b4      	cmp	r4, r6
    1f5a:	d1f6      	bne.n	1f4a <USBHostHub::hubDisconnected()+0xa>
    1f5c:	bd70      	pop	{r4, r5, r6, pc}
    1f5e:	bf00      	nop

00001f60 <USBHostHub::setPortFeature(unsigned long, unsigned char)>:
    1f60:	b510      	push	{r4, lr}
    1f62:	4603      	mov	r3, r0
    1f64:	689c      	ldr	r4, [r3, #8]
    1f66:	b084      	sub	sp, #16
    1f68:	2300      	movs	r3, #0
    1f6a:	6840      	ldr	r0, [r0, #4]
    1f6c:	e88d 0006 	stmia.w	sp, {r1, r2}
    1f70:	9302      	str	r3, [sp, #8]
    1f72:	9303      	str	r3, [sp, #12]
    1f74:	4621      	mov	r1, r4
    1f76:	2223      	movs	r2, #35	; 0x23
    1f78:	2303      	movs	r3, #3
    1f7a:	f7ff fca9 	bl	18d0 <USBHost::controlWrite(USBDeviceConnected*, unsigned char, unsigned char, unsigned long, unsigned long, unsigned char*, unsigned long)>
    1f7e:	b004      	add	sp, #16
    1f80:	bd10      	pop	{r4, pc}
    1f82:	bf00      	nop

00001f84 <USBHostHub::connect(USBDeviceConnected*)>:
    1f84:	e92d 43f0 	stmdb	sp!, {r4, r5, r6, r7, r8, r9, lr}
    1f88:	7b05      	ldrb	r5, [r0, #12]
    1f8a:	b089      	sub	sp, #36	; 0x24
    1f8c:	4604      	mov	r4, r0
    1f8e:	460e      	mov	r6, r1
    1f90:	b11d      	cbz	r5, 1f9a <USBHostHub::connect(USBDeviceConnected*)+0x16>
    1f92:	4628      	mov	r0, r5
    1f94:	b009      	add	sp, #36	; 0x24
    1f96:	e8bd 83f0 	ldmia.w	sp!, {r4, r5, r6, r7, r8, r9, pc}
    1f9a:	6840      	ldr	r0, [r0, #4]
    1f9c:	4622      	mov	r2, r4
    1f9e:	f7ff fea1 	bl	1ce4 <USBHost::enumerate(USBDeviceConnected*, IUSBEnumerator*)>
    1fa2:	4607      	mov	r7, r0
    1fa4:	2800      	cmp	r0, #0
    1fa6:	f040 808a 	bne.w	20be <USBHostHub::connect(USBDeviceConnected*)+0x13a>
    1faa:	f894 8024 	ldrb.w	r8, [r4, #36]	; 0x24
    1fae:	f1b8 0f00 	cmp.w	r8, #0
    1fb2:	d0ee      	beq.n	1f92 <USBHostHub::connect(USBDeviceConnected*)+0xe>
    1fb4:	f894 1020 	ldrb.w	r1, [r4, #32]
    1fb8:	60a6      	str	r6, [r4, #8]
    1fba:	4630      	mov	r0, r6
    1fbc:	9500      	str	r5, [sp, #0]
    1fbe:	2203      	movs	r2, #3
    1fc0:	2302      	movs	r3, #2
    1fc2:	f7fe fd47 	bl	a54 <USBDeviceConnected::getEndpoint(unsigned char, ENDPOINT_TYPE, ENDPOINT_DIRECTION, unsigned char)>
    1fc6:	6120      	str	r0, [r4, #16]
    1fc8:	2800      	cmp	r0, #0
    1fca:	d078      	beq.n	20be <USBHostHub::connect(USBDeviceConnected*)+0x13a>
    1fcc:	f8b6 1100 	ldrh.w	r1, [r6, #256]	; 0x100
    1fd0:	6a22      	ldr	r2, [r4, #32]
    1fd2:	f8b6 30fe 	ldrh.w	r3, [r6, #254]	; 0xfe
    1fd6:	4845      	ldr	r0, [pc, #276]	; (20ec <USBHostHub::connect(USBDeviceConnected*)+0x168>)
    1fd8:	e88d 0042 	stmia.w	sp, {r1, r6}
    1fdc:	9202      	str	r2, [sp, #8]
    1fde:	4944      	ldr	r1, [pc, #272]	; (20f0 <USBHostHub::connect(USBDeviceConnected*)+0x16c>)
    1fe0:	2267      	movs	r2, #103	; 0x67
    1fe2:	f003 ffaf 	bl	5f44 <iprintf>
    1fe6:	f894 3020 	ldrb.w	r3, [r4, #32]
    1fea:	4a42      	ldr	r2, [pc, #264]	; (20f4 <USBHostHub::connect(USBDeviceConnected*)+0x170>)
    1fec:	ebc3 1303 	rsb	r3, r3, r3, lsl #4
    1ff0:	6810      	ldr	r0, [r2, #0]
    1ff2:	eb06 0383 	add.w	r3, r6, r3, lsl #2
    1ff6:	6398      	str	r0, [r3, #56]	; 0x38
    1ff8:	6865      	ldr	r5, [r4, #4]
    1ffa:	4631      	mov	r1, r6
    1ffc:	4628      	mov	r0, r5
    1ffe:	f8d4 9020 	ldr.w	r9, [r4, #32]
    2002:	f7ff f953 	bl	12ac <USBHost::findDevice(USBDeviceConnected*)>
    2006:	1c43      	adds	r3, r0, #1
    2008:	d06b      	beq.n	20e2 <USBHostHub::connect(USBDeviceConnected*)+0x15e>
    200a:	b324      	cbz	r4, 2056 <USBHostHub::connect(USBDeviceConnected*)+0xd2>
    200c:	eb05 0080 	add.w	r0, r5, r0, lsl #2
    2010:	fa5f f389 	uxtb.w	r3, r9
    2014:	4d38      	ldr	r5, [pc, #224]	; (20f8 <USBHostHub::connect(USBDeviceConnected*)+0x174>)
    2016:	ebc3 1203 	rsb	r2, r3, r3, lsl #4
    201a:	4403      	add	r3, r0
    201c:	eb06 0282 	add.w	r2, r6, r2, lsl #2
    2020:	f503 5101 	add.w	r1, r3, #8256	; 0x2040
    2024:	2001      	movs	r0, #1
    2026:	9504      	str	r5, [sp, #16]
    2028:	9705      	str	r7, [sp, #20]
    202a:	ab04      	add	r3, sp, #16
    202c:	4d33      	ldr	r5, [pc, #204]	; (20fc <USBHostHub::connect(USBDeviceConnected*)+0x178>)
    202e:	f881 0029 	strb.w	r0, [r1, #41]	; 0x29
    2032:	cb03      	ldmia	r3!, {r0, r1}
    2034:	6250      	str	r0, [r2, #36]	; 0x24
    2036:	6291      	str	r1, [r2, #40]	; 0x28
    2038:	6923      	ldr	r3, [r4, #16]
    203a:	6214      	str	r4, [r2, #32]
    203c:	6355      	str	r5, [r2, #52]	; 0x34
    203e:	61d7      	str	r7, [r2, #28]
    2040:	4a2f      	ldr	r2, [pc, #188]	; (2100 <USBHostHub::connect(USBDeviceConnected*)+0x17c>)
    2042:	2100      	movs	r1, #0
    2044:	9206      	str	r2, [sp, #24]
    2046:	9107      	str	r1, [sp, #28]
    2048:	aa06      	add	r2, sp, #24
    204a:	6399      	str	r1, [r3, #56]	; 0x38
    204c:	63dc      	str	r4, [r3, #60]	; 0x3c
    204e:	ca03      	ldmia	r2!, {r0, r1}
    2050:	651d      	str	r5, [r3, #80]	; 0x50
    2052:	6418      	str	r0, [r3, #64]	; 0x40
    2054:	6459      	str	r1, [r3, #68]	; 0x44
    2056:	f44f 5124 	mov.w	r1, #10496	; 0x2900
    205a:	2200      	movs	r2, #0
    205c:	230a      	movs	r3, #10
    205e:	f104 0716 	add.w	r7, r4, #22
    2062:	6860      	ldr	r0, [r4, #4]
    2064:	e88d 0086 	stmia.w	sp, {r1, r2, r7}
    2068:	9303      	str	r3, [sp, #12]
    206a:	22a0      	movs	r2, #160	; 0xa0
    206c:	2306      	movs	r3, #6
    206e:	4631      	mov	r1, r6
    2070:	f7ff fbc0 	bl	17f4 <USBHost::controlRead(USBDeviceConnected*, unsigned char, unsigned char, unsigned long, unsigned long, unsigned char*, unsigned long)>
    2074:	7e23      	ldrb	r3, [r4, #24]
    2076:	7e62      	ldrb	r2, [r4, #25]
    2078:	7523      	strb	r3, [r4, #20]
    207a:	7562      	strb	r2, [r4, #21]
    207c:	2501      	movs	r5, #1
    207e:	b14b      	cbz	r3, 2094 <USBHostHub::connect(USBDeviceConnected*)+0x110>
    2080:	462a      	mov	r2, r5
    2082:	4620      	mov	r0, r4
    2084:	2108      	movs	r1, #8
    2086:	f7ff ff6b 	bl	1f60 <USBHostHub::setPortFeature(unsigned long, unsigned char)>
    208a:	3501      	adds	r5, #1
    208c:	7d22      	ldrb	r2, [r4, #20]
    208e:	b2ed      	uxtb	r5, r5
    2090:	42aa      	cmp	r2, r5
    2092:	d2f5      	bcs.n	2080 <USBHostHub::connect(USBDeviceConnected*)+0xfc>
    2094:	7ee0      	ldrb	r0, [r4, #27]
    2096:	f04f 0901 	mov.w	r9, #1
    209a:	fa00 f009 	lsl.w	r0, r0, r9
    209e:	2500      	movs	r5, #0
    20a0:	f002 f8fe 	bl	42a0 <wait_ms>
    20a4:	6860      	ldr	r0, [r4, #4]
    20a6:	6922      	ldr	r2, [r4, #16]
    20a8:	4631      	mov	r1, r6
    20aa:	9501      	str	r5, [sp, #4]
    20ac:	463b      	mov	r3, r7
    20ae:	f8cd 9000 	str.w	r9, [sp]
    20b2:	f7ff fac9 	bl	1648 <USBHost::interruptRead(USBDeviceConnected*, USBEndpoint*, unsigned char*, unsigned long, bool)>
    20b6:	4645      	mov	r5, r8
    20b8:	f884 900c 	strb.w	r9, [r4, #12]
    20bc:	e769      	b.n	1f92 <USBHostHub::connect(USBDeviceConnected*)+0xe>
    20be:	f04f 33ff 	mov.w	r3, #4294967295	; 0xffffffff
    20c2:	4628      	mov	r0, r5
    20c4:	7325      	strb	r5, [r4, #12]
    20c6:	60a5      	str	r5, [r4, #8]
    20c8:	6125      	str	r5, [r4, #16]
    20ca:	f884 5024 	strb.w	r5, [r4, #36]	; 0x24
    20ce:	7525      	strb	r5, [r4, #20]
    20d0:	7565      	strb	r5, [r4, #21]
    20d2:	62a5      	str	r5, [r4, #40]	; 0x28
    20d4:	62e5      	str	r5, [r4, #44]	; 0x2c
    20d6:	6325      	str	r5, [r4, #48]	; 0x30
    20d8:	6365      	str	r5, [r4, #52]	; 0x34
    20da:	6223      	str	r3, [r4, #32]
    20dc:	b009      	add	sp, #36	; 0x24
    20de:	e8bd 83f0 	ldmia.w	sp!, {r4, r5, r6, r7, r8, r9, pc}
    20e2:	6923      	ldr	r3, [r4, #16]
    20e4:	2c00      	cmp	r4, #0
    20e6:	d0b6      	beq.n	2056 <USBHostHub::connect(USBDeviceConnected*)+0xd2>
    20e8:	4d04      	ldr	r5, [pc, #16]	; (20fc <USBHostHub::connect(USBDeviceConnected*)+0x178>)
    20ea:	e7a9      	b.n	2040 <USBHostHub::connect(USBDeviceConnected*)+0xbc>
    20ec:	00008230 	.word	0x00008230
    20f0:	00008274 	.word	0x00008274
    20f4:	000082b4 	.word	0x000082b4
    20f8:	00001e4d 	.word	0x00001e4d
    20fc:	00001ebd 	.word	0x00001ebd
    2100:	00002151 	.word	0x00002151

00002104 <USBHostHub::clearPortFeature(unsigned long, unsigned char)>:
    2104:	b510      	push	{r4, lr}
    2106:	4603      	mov	r3, r0
    2108:	689c      	ldr	r4, [r3, #8]
    210a:	b084      	sub	sp, #16
    210c:	2300      	movs	r3, #0
    210e:	6840      	ldr	r0, [r0, #4]
    2110:	e88d 0006 	stmia.w	sp, {r1, r2}
    2114:	9302      	str	r3, [sp, #8]
    2116:	9303      	str	r3, [sp, #12]
    2118:	4621      	mov	r1, r4
    211a:	2223      	movs	r2, #35	; 0x23
    211c:	2301      	movs	r3, #1
    211e:	f7ff fbd7 	bl	18d0 <USBHost::controlWrite(USBDeviceConnected*, unsigned char, unsigned char, unsigned long, unsigned long, unsigned char*, unsigned long)>
    2122:	b004      	add	sp, #16
    2124:	bd10      	pop	{r4, pc}
    2126:	bf00      	nop

00002128 <USBHostHub::getPortStatus(unsigned char)>:
    2128:	b530      	push	{r4, r5, lr}
    212a:	4603      	mov	r3, r0
    212c:	b087      	sub	sp, #28
    212e:	689d      	ldr	r5, [r3, #8]
    2130:	ac05      	add	r4, sp, #20
    2132:	2300      	movs	r3, #0
    2134:	2204      	movs	r2, #4
    2136:	6840      	ldr	r0, [r0, #4]
    2138:	9101      	str	r1, [sp, #4]
    213a:	9203      	str	r2, [sp, #12]
    213c:	4629      	mov	r1, r5
    213e:	9300      	str	r3, [sp, #0]
    2140:	9402      	str	r4, [sp, #8]
    2142:	22a3      	movs	r2, #163	; 0xa3
    2144:	f7ff fb56 	bl	17f4 <USBHost::controlRead(USBDeviceConnected*, unsigned char, unsigned char, unsigned long, unsigned long, unsigned char*, unsigned long)>
    2148:	9805      	ldr	r0, [sp, #20]
    214a:	b007      	add	sp, #28
    214c:	bd30      	pop	{r4, r5, pc}
    214e:	bf00      	nop

00002150 <USBHostHub::rxHandler()>:
    2150:	b5f0      	push	{r4, r5, r6, r7, lr}
    2152:	6902      	ldr	r2, [r0, #16]
    2154:	b083      	sub	sp, #12
    2156:	4604      	mov	r4, r0
    2158:	b16a      	cbz	r2, 2176 <USBHostHub::rxHandler()+0x26>
    215a:	f892 3025 	ldrb.w	r3, [r2, #37]	; 0x25
    215e:	2b10      	cmp	r3, #16
    2160:	d00b      	beq.n	217a <USBHostHub::rxHandler()+0x2a>
    2162:	2601      	movs	r6, #1
    2164:	2500      	movs	r5, #0
    2166:	6860      	ldr	r0, [r4, #4]
    2168:	68a1      	ldr	r1, [r4, #8]
    216a:	f104 0316 	add.w	r3, r4, #22
    216e:	9600      	str	r6, [sp, #0]
    2170:	9501      	str	r5, [sp, #4]
    2172:	f7ff fa69 	bl	1648 <USBHost::interruptRead(USBDeviceConnected*, USBEndpoint*, unsigned char*, unsigned long, bool)>
    2176:	b003      	add	sp, #12
    2178:	bdf0      	pop	{r4, r5, r6, r7, pc}
    217a:	7d03      	ldrb	r3, [r0, #20]
    217c:	2b00      	cmp	r3, #0
    217e:	d0f0      	beq.n	2162 <USBHostHub::rxHandler()+0x12>
    2180:	2601      	movs	r6, #1
    2182:	e007      	b.n	2194 <USBHostHub::rxHandler()+0x44>
    2184:	03aa      	lsls	r2, r5, #14
    2186:	d42b      	bmi.n	21e0 <USBHostHub::rxHandler()+0x90>
    2188:	072b      	lsls	r3, r5, #28
    218a:	d430      	bmi.n	21ee <USBHostHub::rxHandler()+0x9e>
    218c:	7d23      	ldrb	r3, [r4, #20]
    218e:	3601      	adds	r6, #1
    2190:	42b3      	cmp	r3, r6
    2192:	db46      	blt.n	2222 <USBHostHub::rxHandler()+0xd2>
    2194:	b2f7      	uxtb	r7, r6
    2196:	4639      	mov	r1, r7
    2198:	4620      	mov	r0, r4
    219a:	f7ff ffc5 	bl	2128 <USBHostHub::getPortStatus(unsigned char)>
    219e:	4605      	mov	r5, r0
    21a0:	03e8      	lsls	r0, r5, #15
    21a2:	d514      	bpl.n	21ce <USBHostHub::rxHandler()+0x7e>
    21a4:	f015 0301 	ands.w	r3, r5, #1
    21a8:	6860      	ldr	r0, [r4, #4]
    21aa:	d03c      	beq.n	2226 <USBHostHub::rxHandler()+0xd6>
    21ac:	68a3      	ldr	r3, [r4, #8]
    21ae:	6802      	ldr	r2, [r0, #0]
    21b0:	f893 10fc 	ldrb.w	r1, [r3, #252]	; 0xfc
    21b4:	9400      	str	r4, [sp, #0]
    21b6:	f8d2 c000 	ldr.w	r12, [r2]
    21ba:	3101      	adds	r1, #1
    21bc:	4632      	mov	r2, r6
    21be:	f3c5 2340 	ubfx	r3, r5, #9, #1
    21c2:	47e0      	blx	r12
    21c4:	4620      	mov	r0, r4
    21c6:	2110      	movs	r1, #16
    21c8:	463a      	mov	r2, r7
    21ca:	f7ff ff9b 	bl	2104 <USBHostHub::clearPortFeature(unsigned long, unsigned char)>
    21ce:	02e9      	lsls	r1, r5, #11
    21d0:	d5d8      	bpl.n	2184 <USBHostHub::rxHandler()+0x34>
    21d2:	463a      	mov	r2, r7
    21d4:	4620      	mov	r0, r4
    21d6:	2114      	movs	r1, #20
    21d8:	f7ff ff94 	bl	2104 <USBHostHub::clearPortFeature(unsigned long, unsigned char)>
    21dc:	03aa      	lsls	r2, r5, #14
    21de:	d5d3      	bpl.n	2188 <USBHostHub::rxHandler()+0x38>
    21e0:	4620      	mov	r0, r4
    21e2:	2111      	movs	r1, #17
    21e4:	463a      	mov	r2, r7
    21e6:	f7ff ff8d 	bl	2104 <USBHostHub::clearPortFeature(unsigned long, unsigned char)>
    21ea:	072b      	lsls	r3, r5, #28
    21ec:	d5ce      	bpl.n	218c <USBHostHub::rxHandler()+0x3c>
    21ee:	4914      	ldr	r1, [pc, #80]	; (2240 <USBHostHub::rxHandler()+0xf0>)
    21f0:	22d2      	movs	r2, #210	; 0xd2
    21f2:	4814      	ldr	r0, [pc, #80]	; (2244 <USBHostHub::rxHandler()+0xf4>)
    21f4:	f003 fea6 	bl	5f44 <iprintf>
    21f8:	4620      	mov	r0, r4
    21fa:	463a      	mov	r2, r7
    21fc:	2108      	movs	r1, #8
    21fe:	f7ff ff81 	bl	2104 <USBHostHub::clearPortFeature(unsigned long, unsigned char)>
    2202:	68a3      	ldr	r3, [r4, #8]
    2204:	6860      	ldr	r0, [r4, #4]
    2206:	f893 10fc 	ldrb.w	r1, [r3, #252]	; 0xfc
    220a:	6802      	ldr	r2, [r0, #0]
    220c:	2300      	movs	r3, #0
    220e:	9300      	str	r3, [sp, #0]
    2210:	6855      	ldr	r5, [r2, #4]
    2212:	4623      	mov	r3, r4
    2214:	4632      	mov	r2, r6
    2216:	3101      	adds	r1, #1
    2218:	47a8      	blx	r5
    221a:	7d23      	ldrb	r3, [r4, #20]
    221c:	3601      	adds	r6, #1
    221e:	42b3      	cmp	r3, r6
    2220:	dab8      	bge.n	2194 <USBHostHub::rxHandler()+0x44>
    2222:	6922      	ldr	r2, [r4, #16]
    2224:	e79d      	b.n	2162 <USBHostHub::rxHandler()+0x12>
    2226:	68a1      	ldr	r1, [r4, #8]
    2228:	6802      	ldr	r2, [r0, #0]
    222a:	f891 10fc 	ldrb.w	r1, [r1, #252]	; 0xfc
    222e:	9300      	str	r3, [sp, #0]
    2230:	f8d2 c004 	ldr.w	r12, [r2, #4]
    2234:	3101      	adds	r1, #1
    2236:	4632      	mov	r2, r6
    2238:	4623      	mov	r3, r4
    223a:	47e0      	blx	r12
    223c:	e7c2      	b.n	21c4 <USBHostHub::rxHandler()+0x74>
    223e:	bf00      	nop
    2240:	00008274 	.word	0x00008274
    2244:	000082b8 	.word	0x000082b8

00002248 <USBHostHub::portReset(unsigned char)>:
    2248:	b5f0      	push	{r4, r5, r6, r7, lr}
    224a:	460a      	mov	r2, r1
    224c:	460c      	mov	r4, r1
    224e:	b083      	sub	sp, #12
    2250:	2104      	movs	r1, #4
    2252:	4605      	mov	r5, r0
    2254:	f7ff fe84 	bl	1f60 <USBHostHub::setPortFeature(unsigned long, unsigned char)>
    2258:	e004      	b.n	2264 <USBHostHub::portReset(unsigned char)+0x1c>
    225a:	0703      	lsls	r3, r0, #28
    225c:	d40b      	bmi.n	2276 <USBHostHub::portReset(unsigned char)+0x2e>
    225e:	200a      	movs	r0, #10
    2260:	f001 fe06 	bl	3e70 <rtos::Thread::wait(unsigned long)>
    2264:	4628      	mov	r0, r5
    2266:	4621      	mov	r1, r4
    2268:	f7ff ff5e 	bl	2128 <USBHostHub::getPortStatus(unsigned char)>
    226c:	f010 0612 	ands.w	r6, r0, #18
    2270:	d0f3      	beq.n	225a <USBHostHub::portReset(unsigned char)+0x12>
    2272:	b003      	add	sp, #12
    2274:	bdf0      	pop	{r4, r5, r6, r7, pc}
    2276:	490b      	ldr	r1, [pc, #44]	; (22a4 <USBHostHub::portReset(unsigned char)+0x5c>)
    2278:	22e6      	movs	r2, #230	; 0xe6
    227a:	480b      	ldr	r0, [pc, #44]	; (22a8 <USBHostHub::portReset(unsigned char)+0x60>)
    227c:	f003 fe62 	bl	5f44 <iprintf>
    2280:	4628      	mov	r0, r5
    2282:	4622      	mov	r2, r4
    2284:	2108      	movs	r1, #8
    2286:	f7ff ff3d 	bl	2104 <USBHostHub::clearPortFeature(unsigned long, unsigned char)>
    228a:	68ab      	ldr	r3, [r5, #8]
    228c:	6868      	ldr	r0, [r5, #4]
    228e:	f893 10fc 	ldrb.w	r1, [r3, #252]	; 0xfc
    2292:	6807      	ldr	r7, [r0, #0]
    2294:	9600      	str	r6, [sp, #0]
    2296:	4622      	mov	r2, r4
    2298:	3101      	adds	r1, #1
    229a:	687c      	ldr	r4, [r7, #4]
    229c:	462b      	mov	r3, r5
    229e:	47a0      	blx	r4
    22a0:	b003      	add	sp, #12
    22a2:	bdf0      	pop	{r4, r5, r6, r7, pc}
    22a4:	00008274 	.word	0x00008274
    22a8:	000082b8 	.word	0x000082b8

000022ac <USBEndpoint::init(hcEd*, ENDPOINT_TYPE, ENDPOINT_DIRECTION, unsigned long, unsigned char, HCTD**)>:
    22ac:	e92d 43f8 	stmdb	sp!, {r3, r4, r5, r6, r7, r8, r9, lr}
    22b0:	4604      	mov	r4, r0
    22b2:	f1d2 0001 	rsbs	r0, r2, #1
    22b6:	9e0a      	ldr	r6, [sp, #40]	; 0x28
    22b8:	bf38      	it	cc
    22ba:	2000      	movcc	r0, #0
    22bc:	65a1      	str	r1, [r4, #88]	; 0x58
    22be:	f884 0027 	strb.w	r0, [r4, #39]	; 0x27
    22c2:	f884 2024 	strb.w	r2, [r4, #36]	; 0x24
    22c6:	f884 3026 	strb.w	r3, [r4, #38]	; 0x26
    22ca:	6873      	ldr	r3, [r6, #4]
    22cc:	6832      	ldr	r2, [r6, #0]
    22ce:	6623      	str	r3, [r4, #96]	; 0x60
    22d0:	65e2      	str	r2, [r4, #92]	; 0x5c
    22d2:	6830      	ldr	r0, [r6, #0]
    22d4:	2100      	movs	r1, #0
    22d6:	2220      	movs	r2, #32
    22d8:	f89d 8024 	ldrb.w	r8, [sp, #36]	; 0x24
    22dc:	f003 fd51 	bl	5d82 <memset>
    22e0:	6870      	ldr	r0, [r6, #4]
    22e2:	2100      	movs	r1, #0
    22e4:	2220      	movs	r2, #32
    22e6:	f003 fd4c 	bl	5d82 <memset>
    22ea:	6de1      	ldr	r1, [r4, #92]	; 0x5c
    22ec:	6e20      	ldr	r0, [r4, #96]	; 0x60
    22ee:	690b      	ldr	r3, [r1, #16]
    22f0:	6da3      	ldr	r3, [r4, #88]	; 0x58
    22f2:	610c      	str	r4, [r1, #16]
    22f4:	6902      	ldr	r2, [r0, #16]
    22f6:	f894 7026 	ldrb.w	r7, [r4, #38]	; 0x26
    22fa:	6104      	str	r4, [r0, #16]
    22fc:	2200      	movs	r2, #0
    22fe:	681e      	ldr	r6, [r3, #0]
    2300:	601a      	str	r2, [r3, #0]
    2302:	685d      	ldr	r5, [r3, #4]
    2304:	f008 067f 	and.w	r6, r8, #127	; 0x7f
    2308:	6059      	str	r1, [r3, #4]
    230a:	f894 5024 	ldrb.w	r5, [r4, #36]	; 0x24
    230e:	f107 38ff 	add.w	r8, r7, #4294967295	; 0xffffffff
    2312:	f8d3 9008 	ldr.w	r9, [r3, #8]
    2316:	ea46 18c8 	orr.w	r8, r6, r8, lsl #7
    231a:	6099      	str	r1, [r3, #8]
    231c:	f8d3 900c 	ldr.w	r9, [r3, #12]
    2320:	01f6      	lsls	r6, r6, #7
    2322:	60da      	str	r2, [r3, #12]
    2324:	f884 8028 	strb.w	r8, [r4, #40]	; 0x28
    2328:	b1cd      	cbz	r5, 235e <USBEndpoint::init(hcEd*, ENDPOINT_TYPE, ENDPOINT_DIRECTION, unsigned long, unsigned char, HCTD**)+0xb2>
    232a:	ea4f 2cc7 	mov.w	r12, r7, lsl #11
    232e:	9a08      	ldr	r2, [sp, #32]
    2330:	ea4c 0c06 	orr.w	r12, r12, r6
    2334:	f3c2 0509 	ubfx	r5, r2, #0, #10
    2338:	ea4c 4505 	orr.w	r5, r12, r5, lsl #16
    233c:	2200      	movs	r2, #0
    233e:	681e      	ldr	r6, [r3, #0]
    2340:	f04f 0810 	mov.w	r8, #16
    2344:	601d      	str	r5, [r3, #0]
    2346:	f884 206c 	strb.w	r2, [r4, #108]	; 0x6c
    234a:	6661      	str	r1, [r4, #100]	; 0x64
    234c:	66a0      	str	r0, [r4, #104]	; 0x68
    234e:	62e2      	str	r2, [r4, #44]	; 0x2c
    2350:	6322      	str	r2, [r4, #48]	; 0x30
    2352:	6362      	str	r2, [r4, #52]	; 0x34
    2354:	6562      	str	r2, [r4, #84]	; 0x54
    2356:	f884 8025 	strb.w	r8, [r4, #37]	; 0x25
    235a:	e8bd 83f8 	ldmia.w	sp!, {r3, r4, r5, r6, r7, r8, r9, pc}
    235e:	46ac      	mov	r12, r5
    2360:	e7e5      	b.n	232e <USBEndpoint::init(hcEd*, ENDPOINT_TYPE, ENDPOINT_DIRECTION, unsigned long, unsigned char, HCTD**)+0x82>
    2362:	bf00      	nop

00002364 <USBEndpoint::setSize(unsigned long)>:
    2364:	6d83      	ldr	r3, [r0, #88]	; 0x58
    2366:	681a      	ldr	r2, [r3, #0]
    2368:	6818      	ldr	r0, [r3, #0]
    236a:	f022 727f 	bic.w	r2, r2, #66846720	; 0x3fc0000
    236e:	f422 3240 	bic.w	r2, r2, #196608	; 0x30000
    2372:	601a      	str	r2, [r3, #0]
    2374:	681a      	ldr	r2, [r3, #0]
    2376:	6818      	ldr	r0, [r3, #0]
    2378:	ea42 4101 	orr.w	r1, r2, r1, lsl #16
    237c:	6019      	str	r1, [r3, #0]
    237e:	4770      	bx	lr

00002380 <USBEndpoint::setDeviceAddress(unsigned char)>:
    2380:	6d83      	ldr	r3, [r0, #88]	; 0x58
    2382:	f001 017f 	and.w	r1, r1, #127	; 0x7f
    2386:	681a      	ldr	r2, [r3, #0]
    2388:	6818      	ldr	r0, [r3, #0]
    238a:	f022 027f 	bic.w	r2, r2, #127	; 0x7f
    238e:	601a      	str	r2, [r3, #0]
    2390:	681a      	ldr	r2, [r3, #0]
    2392:	6818      	ldr	r0, [r3, #0]
    2394:	4311      	orrs	r1, r2
    2396:	6019      	str	r1, [r3, #0]
    2398:	4770      	bx	lr
    239a:	bf00      	nop

0000239c <USBEndpoint::setSpeed(unsigned char)>:
    239c:	6d83      	ldr	r3, [r0, #88]	; 0x58
    239e:	681a      	ldr	r2, [r3, #0]
    23a0:	6818      	ldr	r0, [r3, #0]
    23a2:	f422 5200 	bic.w	r2, r2, #8192	; 0x2000
    23a6:	601a      	str	r2, [r3, #0]
    23a8:	681a      	ldr	r2, [r3, #0]
    23aa:	6818      	ldr	r0, [r3, #0]
    23ac:	ea42 3141 	orr.w	r1, r2, r1, lsl #13
    23b0:	6019      	str	r1, [r3, #0]
    23b2:	4770      	bx	lr

000023b4 <USBEndpoint::setNextToken(unsigned long)>:
    23b4:	f5b1 2f00 	cmp.w	r1, #524288	; 0x80000
    23b8:	d011      	beq.n	23de <USBEndpoint::setNextToken(unsigned long)+0x2a>
    23ba:	f5b1 1f80 	cmp.w	r1, #1048576	; 0x100000
    23be:	d007      	beq.n	23d0 <USBEndpoint::setNextToken(unsigned long)+0x1c>
    23c0:	b101      	cbz	r1, 23c4 <USBEndpoint::setNextToken(unsigned long)+0x10>
    23c2:	4770      	bx	lr
    23c4:	2301      	movs	r3, #1
    23c6:	f880 3026 	strb.w	r3, [r0, #38]	; 0x26
    23ca:	f880 3027 	strb.w	r3, [r0, #39]	; 0x27
    23ce:	4770      	bx	lr
    23d0:	2202      	movs	r2, #2
    23d2:	2300      	movs	r3, #0
    23d4:	f880 2026 	strb.w	r2, [r0, #38]	; 0x26
    23d8:	f880 3027 	strb.w	r3, [r0, #39]	; 0x27
    23dc:	4770      	bx	lr
    23de:	2201      	movs	r2, #1
    23e0:	2300      	movs	r3, #0
    23e2:	f880 2026 	strb.w	r2, [r0, #38]	; 0x26
    23e6:	f880 3027 	strb.w	r3, [r0, #39]	; 0x27
    23ea:	4770      	bx	lr

000023ec <USBEndpoint::setState(unsigned char)>:
    23ec:	2912      	cmp	r1, #18
    23ee:	d804      	bhi.n	23fa <USBEndpoint::setState(unsigned char)+0xe>
    23f0:	4b02      	ldr	r3, [pc, #8]	; (23fc <USBEndpoint::setState(unsigned char)+0x10>)
    23f2:	f813 3031 	ldrb.w	r3, [r3, r1, lsl #3]
    23f6:	f880 3025 	strb.w	r3, [r0, #37]	; 0x25
    23fa:	4770      	bx	lr
    23fc:	000084a0 	.word	0x000084a0

00002400 <USBEndpoint::getStateString()>:
    2400:	f890 2025 	ldrb.w	r2, [r0, #37]	; 0x25
    2404:	4b02      	ldr	r3, [pc, #8]	; (2410 <USBEndpoint::getStateString()+0x10>)
    2406:	eb03 03c2 	add.w	r3, r3, r2, lsl #3
    240a:	6858      	ldr	r0, [r3, #4]
    240c:	4770      	bx	lr
    240e:	bf00      	nop
    2410:	000084a0 	.word	0x000084a0

00002414 <USBEndpoint::queueTransfer()>:
    2414:	b430      	push	{r4, r5}
    2416:	6e43      	ldr	r3, [r0, #100]	; 0x64
    2418:	2511      	movs	r5, #17
    241a:	68da      	ldr	r2, [r3, #12]
    241c:	6859      	ldr	r1, [r3, #4]
    241e:	3201      	adds	r2, #1
    2420:	1a52      	subs	r2, r2, r1
    2422:	62c2      	str	r2, [r0, #44]	; 0x2c
    2424:	6302      	str	r2, [r0, #48]	; 0x30
    2426:	685c      	ldr	r4, [r3, #4]
    2428:	6e81      	ldr	r1, [r0, #104]	; 0x68
    242a:	f880 5025 	strb.w	r5, [r0, #37]	; 0x25
    242e:	6d82      	ldr	r2, [r0, #88]	; 0x58
    2430:	6344      	str	r4, [r0, #52]	; 0x34
    2432:	6898      	ldr	r0, [r3, #8]
    2434:	6099      	str	r1, [r3, #8]
    2436:	6853      	ldr	r3, [r2, #4]
    2438:	bc30      	pop	{r4, r5}
    243a:	6051      	str	r1, [r2, #4]
    243c:	4770      	bx	lr
    243e:	bf00      	nop

00002440 <USBEndpoint::unqueueTransfer(HCTD volatile*)>:
    2440:	b430      	push	{r4, r5}
    2442:	2300      	movs	r3, #0
    2444:	680a      	ldr	r2, [r1, #0]
    2446:	600b      	str	r3, [r1, #0]
    2448:	684a      	ldr	r2, [r1, #4]
    244a:	604b      	str	r3, [r1, #4]
    244c:	68ca      	ldr	r2, [r1, #12]
    244e:	6d82      	ldr	r2, [r0, #88]	; 0x58
    2450:	60cb      	str	r3, [r1, #12]
    2452:	688c      	ldr	r4, [r1, #8]
    2454:	608b      	str	r3, [r1, #8]
    2456:	6855      	ldr	r5, [r2, #4]
    2458:	6894      	ldr	r4, [r2, #8]
    245a:	6e83      	ldr	r3, [r0, #104]	; 0x68
    245c:	f004 0402 	and.w	r4, r4, #2
    2460:	432c      	orrs	r4, r5
    2462:	6895      	ldr	r5, [r2, #8]
    2464:	6094      	str	r4, [r2, #8]
    2466:	6643      	str	r3, [r0, #100]	; 0x64
    2468:	6681      	str	r1, [r0, #104]	; 0x68
    246a:	bc30      	pop	{r4, r5}
    246c:	4770      	bx	lr
    246e:	bf00      	nop

00002470 <USBEndpoint::queueEndpoint(USBEndpoint*)>:
    2470:	6541      	str	r1, [r0, #84]	; 0x54
    2472:	6d83      	ldr	r3, [r0, #88]	; 0x58
    2474:	b101      	cbz	r1, 2478 <USBEndpoint::queueEndpoint(USBEndpoint*)+0x8>
    2476:	6d89      	ldr	r1, [r1, #88]	; 0x58
    2478:	68da      	ldr	r2, [r3, #12]
    247a:	60d9      	str	r1, [r3, #12]
    247c:	4770      	bx	lr
    247e:	bf00      	nop

00002480 <USBHALHost::USBHALHost()>:
    2480:	b538      	push	{r3, r4, r5, lr}
    2482:	4b12      	ldr	r3, [pc, #72]	; (24cc <USBHALHost::USBHALHost()+0x4c>)
    2484:	4a12      	ldr	r2, [pc, #72]	; (24d0 <USBHALHost::USBHALHost()+0x50>)
    2486:	4604      	mov	r4, r0
    2488:	f503 6198 	add.w	r1, r3, #1216	; 0x4c0
    248c:	f503 7080 	add.w	r0, r3, #256	; 0x100
    2490:	4d10      	ldr	r5, [pc, #64]	; (24d4 <USBHALHost::USBHALHost()+0x54>)
    2492:	e884 000c 	stmia.w	r4, {r2, r3}
    2496:	60a0      	str	r0, [r4, #8]
    2498:	60e1      	str	r1, [r4, #12]
    249a:	4618      	mov	r0, r3
    249c:	2100      	movs	r1, #0
    249e:	f44f 7280 	mov.w	r2, #256	; 0x100
    24a2:	602c      	str	r4, [r5, #0]
    24a4:	f003 fc6d 	bl	5d82 <memset>
    24a8:	2300      	movs	r3, #0
    24aa:	4619      	mov	r1, r3
    24ac:	18e2      	adds	r2, r4, r3
    24ae:	3301      	adds	r3, #1
    24b0:	2b3c      	cmp	r3, #60	; 0x3c
    24b2:	7411      	strb	r1, [r2, #16]
    24b4:	d1fa      	bne.n	24ac <USBHALHost::USBHALHost()+0x2c>
    24b6:	2300      	movs	r3, #0
    24b8:	4619      	mov	r1, r3
    24ba:	18e2      	adds	r2, r4, r3
    24bc:	3301      	adds	r3, #1
    24be:	2b78      	cmp	r3, #120	; 0x78
    24c0:	f882 104c 	strb.w	r1, [r2, #76]	; 0x4c
    24c4:	d1f9      	bne.n	24ba <USBHALHost::USBHALHost()+0x3a>
    24c6:	4620      	mov	r0, r4
    24c8:	bd38      	pop	{r3, r4, r5, pc}
    24ca:	bf00      	nop
    24cc:	20080000 	.word	0x20080000
    24d0:	00008540 	.word	0x00008540
    24d4:	10000204 	.word	0x10000204

000024d8 <USBHALHost::init()>:
    24d8:	4b3e      	ldr	r3, [pc, #248]	; (25d4 <USBHALHost::init()+0xfc>)
    24da:	e92d 41f0 	stmdb	sp!, {r4, r5, r6, r7, r8, lr}
    24de:	f04f 7280 	mov.w	r2, #16777216	; 0x1000000
    24e2:	4c3d      	ldr	r4, [pc, #244]	; (25d8 <USBHALHost::init()+0x100>)
    24e4:	f8c3 2080 	str.w	r2, [r3, #128]	; 0x80
    24e8:	f8d4 30c4 	ldr.w	r3, [r4, #196]	; 0xc4
    24ec:	b082      	sub	sp, #8
    24ee:	f023 4300 	bic.w	r3, r3, #2147483648	; 0x80000000
    24f2:	f8c4 30c4 	str.w	r3, [r4, #196]	; 0xc4
    24f6:	4606      	mov	r6, r0
    24f8:	2064      	movs	r0, #100	; 0x64
    24fa:	f001 fed1 	bl	42a0 <wait_ms>
    24fe:	f8d4 20c4 	ldr.w	r2, [r4, #196]	; 0xc4
    2502:	4b36      	ldr	r3, [pc, #216]	; (25dc <USBHALHost::init()+0x104>)
    2504:	f042 4200 	orr.w	r2, r2, #2147483648	; 0x80000000
    2508:	f8c4 20c4 	str.w	r2, [r4, #196]	; 0xc4
    250c:	f8d3 1ff4 	ldr.w	r1, [r3, #4084]	; 0xff4
    2510:	461a      	mov	r2, r3
    2512:	f041 0119 	orr.w	r1, r1, #25
    2516:	f8c3 1ff4 	str.w	r1, [r3, #4084]	; 0xff4
    251a:	f8d2 3ff8 	ldr.w	r3, [r2, #4088]	; 0xff8
    251e:	4c2f      	ldr	r4, [pc, #188]	; (25dc <USBHALHost::init()+0x104>)
    2520:	f003 0319 	and.w	r3, r3, #25
    2524:	2b19      	cmp	r3, #25
    2526:	d1f8      	bne.n	251a <USBHALHost::init()+0x42>
    2528:	f8d4 2110 	ldr.w	r2, [r4, #272]	; 0x110
    252c:	4b2c      	ldr	r3, [pc, #176]	; (25e0 <USBHALHost::init()+0x108>)
    252e:	f042 0201 	orr.w	r2, r2, #1
    2532:	f8c4 2110 	str.w	r2, [r4, #272]	; 0x110
    2536:	f8d4 2ff4 	ldr.w	r2, [r4, #4084]	; 0xff4
    253a:	2500      	movs	r5, #0
    253c:	f022 0208 	bic.w	r2, r2, #8
    2540:	f8c4 2ff4 	str.w	r2, [r4, #4084]	; 0xff4
    2544:	685a      	ldr	r2, [r3, #4]
    2546:	2064      	movs	r0, #100	; 0x64
    2548:	f022 5270 	bic.w	r2, r2, #1006632960	; 0x3c000000
    254c:	605a      	str	r2, [r3, #4]
    254e:	685a      	ldr	r2, [r3, #4]
    2550:	f04f 0801 	mov.w	r8, #1
    2554:	f042 52a0 	orr.w	r2, r2, #335544320	; 0x14000000
    2558:	605a      	str	r2, [r3, #4]
    255a:	6065      	str	r5, [r4, #4]
    255c:	6225      	str	r5, [r4, #32]
    255e:	62a5      	str	r5, [r4, #40]	; 0x28
    2560:	f001 fe9e 	bl	42a0 <wait_ms>
    2564:	4a1f      	ldr	r2, [pc, #124]	; (25e4 <USBHALHost::init()+0x10c>)
    2566:	f642 232f 	movw	r3, #10799	; 0x2a2f
    256a:	f8c4 8008 	str.w	r8, [r4, #8]
    256e:	6362      	str	r2, [r4, #52]	; 0x34
    2570:	6423      	str	r3, [r4, #64]	; 0x40
    2572:	6862      	ldr	r2, [r4, #4]
    2574:	6873      	ldr	r3, [r6, #4]
    2576:	f022 02c0 	bic.w	r2, r2, #192	; 0xc0
    257a:	f042 0280 	orr.w	r2, r2, #128	; 0x80
    257e:	f44f 3780 	mov.w	r7, #65536	; 0x10000
    2582:	6062      	str	r2, [r4, #4]
    2584:	6527      	str	r7, [r4, #80]	; 0x50
    2586:	61a3      	str	r3, [r4, #24]
    2588:	68e2      	ldr	r2, [r4, #12]
    258a:	68e1      	ldr	r1, [r4, #12]
    258c:	4b16      	ldr	r3, [pc, #88]	; (25e8 <USBHALHost::init()+0x110>)
    258e:	430a      	orrs	r2, r1
    2590:	60e2      	str	r2, [r4, #12]
    2592:	4916      	ldr	r1, [pc, #88]	; (25ec <USBHALHost::init()+0x114>)
    2594:	6123      	str	r3, [r4, #16]
    2596:	2018      	movs	r0, #24
    2598:	f001 fd9a 	bl	40d0 <NVIC_SetVector>
    259c:	4b0d      	ldr	r3, [pc, #52]	; (25d4 <USBHALHost::init()+0xfc>)
    259e:	f44f 1180 	mov.w	r1, #1048576	; 0x100000
    25a2:	f04f 7280 	mov.w	r2, #16777216	; 0x1000000
    25a6:	6567      	str	r7, [r4, #84]	; 0x54
    25a8:	6561      	str	r1, [r4, #84]	; 0x54
    25aa:	601a      	str	r2, [r3, #0]
    25ac:	6d63      	ldr	r3, [r4, #84]	; 0x54
    25ae:	07db      	lsls	r3, r3, #31
    25b0:	d50c      	bpl.n	25cc <USBHALHost::init()+0xf4>
    25b2:	2096      	movs	r0, #150	; 0x96
    25b4:	f001 fe74 	bl	42a0 <wait_ms>
    25b8:	6d63      	ldr	r3, [r4, #84]	; 0x54
    25ba:	6830      	ldr	r0, [r6, #0]
    25bc:	9500      	str	r5, [sp, #0]
    25be:	6804      	ldr	r4, [r0, #0]
    25c0:	f3c3 2340 	ubfx	r3, r3, #9, #1
    25c4:	4629      	mov	r1, r5
    25c6:	4642      	mov	r2, r8
    25c8:	4630      	mov	r0, r6
    25ca:	47a0      	blx	r4
    25cc:	b002      	add	sp, #8
    25ce:	e8bd 81f0 	ldmia.w	sp!, {r4, r5, r6, r7, r8, pc}
    25d2:	bf00      	nop
    25d4:	e000e100 	.word	0xe000e100
    25d8:	400fc000 	.word	0x400fc000
    25dc:	5000c000 	.word	0x5000c000
    25e0:	4002c000 	.word	0x4002c000
    25e4:	27782edf 	.word	0x27782edf
    25e8:	80000042 	.word	0x80000042
    25ec:	00002865 	.word	0x00002865

000025f0 <USBHALHost::controlHeadED()>:
    25f0:	4b01      	ldr	r3, [pc, #4]	; (25f8 <USBHALHost::controlHeadED()+0x8>)
    25f2:	6a18      	ldr	r0, [r3, #32]
    25f4:	4770      	bx	lr
    25f6:	bf00      	nop
    25f8:	5000c000 	.word	0x5000c000

000025fc <USBHALHost::bulkHeadED()>:
    25fc:	4b01      	ldr	r3, [pc, #4]	; (2604 <USBHALHost::bulkHeadED()+0x8>)
    25fe:	6a98      	ldr	r0, [r3, #40]	; 0x28
    2600:	4770      	bx	lr
    2602:	bf00      	nop
    2604:	5000c000 	.word	0x5000c000

00002608 <USBHALHost::interruptHeadED()>:
    2608:	6843      	ldr	r3, [r0, #4]
    260a:	6818      	ldr	r0, [r3, #0]
    260c:	4770      	bx	lr
    260e:	bf00      	nop

00002610 <USBHALHost::updateBulkHeadED(unsigned long)>:
    2610:	4b01      	ldr	r3, [pc, #4]	; (2618 <USBHALHost::updateBulkHeadED(unsigned long)+0x8>)
    2612:	6299      	str	r1, [r3, #40]	; 0x28
    2614:	4770      	bx	lr
    2616:	bf00      	nop
    2618:	5000c000 	.word	0x5000c000

0000261c <USBHALHost::updateControlHeadED(unsigned long)>:
    261c:	4b01      	ldr	r3, [pc, #4]	; (2624 <USBHALHost::updateControlHeadED(unsigned long)+0x8>)
    261e:	6219      	str	r1, [r3, #32]
    2620:	4770      	bx	lr
    2622:	bf00      	nop
    2624:	5000c000 	.word	0x5000c000

00002628 <USBHALHost::updateInterruptHeadED(unsigned long)>:
    2628:	6843      	ldr	r3, [r0, #4]
    262a:	681a      	ldr	r2, [r3, #0]
    262c:	6019      	str	r1, [r3, #0]
    262e:	4770      	bx	lr

00002630 <USBHALHost::enableList(ENDPOINT_TYPE)>:
    2630:	2902      	cmp	r1, #2
    2632:	d011      	beq.n	2658 <USBHALHost::enableList(ENDPOINT_TYPE)+0x28>
    2634:	2903      	cmp	r1, #3
    2636:	d009      	beq.n	264c <USBHALHost::enableList(ENDPOINT_TYPE)+0x1c>
    2638:	b101      	cbz	r1, 263c <USBHALHost::enableList(ENDPOINT_TYPE)+0xc>
    263a:	4770      	bx	lr
    263c:	4b0a      	ldr	r3, [pc, #40]	; (2668 <USBHALHost::enableList(ENDPOINT_TYPE)+0x38>)
    263e:	2202      	movs	r2, #2
    2640:	609a      	str	r2, [r3, #8]
    2642:	685a      	ldr	r2, [r3, #4]
    2644:	f042 0210 	orr.w	r2, r2, #16
    2648:	605a      	str	r2, [r3, #4]
    264a:	4770      	bx	lr
    264c:	4b06      	ldr	r3, [pc, #24]	; (2668 <USBHALHost::enableList(ENDPOINT_TYPE)+0x38>)
    264e:	685a      	ldr	r2, [r3, #4]
    2650:	f042 0204 	orr.w	r2, r2, #4
    2654:	605a      	str	r2, [r3, #4]
    2656:	4770      	bx	lr
    2658:	4b03      	ldr	r3, [pc, #12]	; (2668 <USBHALHost::enableList(ENDPOINT_TYPE)+0x38>)
    265a:	2204      	movs	r2, #4
    265c:	609a      	str	r2, [r3, #8]
    265e:	685a      	ldr	r2, [r3, #4]
    2660:	f042 0220 	orr.w	r2, r2, #32
    2664:	605a      	str	r2, [r3, #4]
    2666:	4770      	bx	lr
    2668:	5000c000 	.word	0x5000c000

0000266c <USBHALHost::disableList(ENDPOINT_TYPE)>:
    266c:	2902      	cmp	r1, #2
    266e:	d01a      	beq.n	26a6 <USBHALHost::disableList(ENDPOINT_TYPE)+0x3a>
    2670:	2903      	cmp	r1, #3
    2672:	d00d      	beq.n	2690 <USBHALHost::disableList(ENDPOINT_TYPE)+0x24>
    2674:	b109      	cbz	r1, 267a <USBHALHost::disableList(ENDPOINT_TYPE)+0xe>
    2676:	2000      	movs	r0, #0
    2678:	4770      	bx	lr
    267a:	4b10      	ldr	r3, [pc, #64]	; (26bc <USBHALHost::disableList(ENDPOINT_TYPE)+0x50>)
    267c:	6858      	ldr	r0, [r3, #4]
    267e:	f010 0010 	ands.w	r0, r0, #16
    2682:	d0f9      	beq.n	2678 <USBHALHost::disableList(ENDPOINT_TYPE)+0xc>
    2684:	685a      	ldr	r2, [r3, #4]
    2686:	2001      	movs	r0, #1
    2688:	f022 0210 	bic.w	r2, r2, #16
    268c:	605a      	str	r2, [r3, #4]
    268e:	4770      	bx	lr
    2690:	4b0a      	ldr	r3, [pc, #40]	; (26bc <USBHALHost::disableList(ENDPOINT_TYPE)+0x50>)
    2692:	6858      	ldr	r0, [r3, #4]
    2694:	f010 0004 	ands.w	r0, r0, #4
    2698:	d0ee      	beq.n	2678 <USBHALHost::disableList(ENDPOINT_TYPE)+0xc>
    269a:	685a      	ldr	r2, [r3, #4]
    269c:	2001      	movs	r0, #1
    269e:	f022 0204 	bic.w	r2, r2, #4
    26a2:	605a      	str	r2, [r3, #4]
    26a4:	4770      	bx	lr
    26a6:	4b05      	ldr	r3, [pc, #20]	; (26bc <USBHALHost::disableList(ENDPOINT_TYPE)+0x50>)
    26a8:	6858      	ldr	r0, [r3, #4]
    26aa:	f010 0020 	ands.w	r0, r0, #32
    26ae:	d0e3      	beq.n	2678 <USBHALHost::disableList(ENDPOINT_TYPE)+0xc>
    26b0:	685a      	ldr	r2, [r3, #4]
    26b2:	2001      	movs	r0, #1
    26b4:	f022 0220 	bic.w	r2, r2, #32
    26b8:	605a      	str	r2, [r3, #4]
    26ba:	4770      	bx	lr
    26bc:	5000c000 	.word	0x5000c000

000026c0 <USBHALHost::getED()>:
    26c0:	b508      	push	{r3, lr}
    26c2:	2300      	movs	r3, #0
    26c4:	e002      	b.n	26cc <USBHALHost::getED()+0xc>
    26c6:	3301      	adds	r3, #1
    26c8:	2b3c      	cmp	r3, #60	; 0x3c
    26ca:	d009      	beq.n	26e0 <USBHALHost::getED()+0x20>
    26cc:	18c2      	adds	r2, r0, r3
    26ce:	7c11      	ldrb	r1, [r2, #16]
    26d0:	2900      	cmp	r1, #0
    26d2:	d1f8      	bne.n	26c6 <USBHALHost::getED()+0x6>
    26d4:	6880      	ldr	r0, [r0, #8]
    26d6:	2101      	movs	r1, #1
    26d8:	eb00 1003 	add.w	r0, r0, r3, lsl #4
    26dc:	7411      	strb	r1, [r2, #16]
    26de:	bd08      	pop	{r3, pc}
    26e0:	4802      	ldr	r0, [pc, #8]	; (26ec <USBHALHost::getED()+0x2c>)
    26e2:	f003 fc27 	bl	5f34 <perror>
    26e6:	2000      	movs	r0, #0
    26e8:	bd08      	pop	{r3, pc}
    26ea:	bf00      	nop
    26ec:	00008550 	.word	0x00008550

000026f0 <USBHALHost::getTD()>:
    26f0:	b508      	push	{r3, lr}
    26f2:	2300      	movs	r3, #0
    26f4:	e002      	b.n	26fc <USBHALHost::getTD()+0xc>
    26f6:	3301      	adds	r3, #1
    26f8:	2b78      	cmp	r3, #120	; 0x78
    26fa:	d00b      	beq.n	2714 <USBHALHost::getTD()+0x24>
    26fc:	18c2      	adds	r2, r0, r3
    26fe:	f892 104c 	ldrb.w	r1, [r2, #76]	; 0x4c
    2702:	2900      	cmp	r1, #0
    2704:	d1f7      	bne.n	26f6 <USBHALHost::getTD()+0x6>
    2706:	68c0      	ldr	r0, [r0, #12]
    2708:	2101      	movs	r1, #1
    270a:	eb00 1043 	add.w	r0, r0, r3, lsl #5
    270e:	f882 104c 	strb.w	r1, [r2, #76]	; 0x4c
    2712:	bd08      	pop	{r3, pc}
    2714:	4802      	ldr	r0, [pc, #8]	; (2720 <USBHALHost::getTD()+0x30>)
    2716:	f003 fc0d 	bl	5f34 <perror>
    271a:	2000      	movs	r0, #0
    271c:	bd08      	pop	{r3, pc}
    271e:	bf00      	nop
    2720:	00008568 	.word	0x00008568

00002724 <USBHALHost::freeED(unsigned char volatile*)>:
    2724:	6883      	ldr	r3, [r0, #8]
    2726:	2200      	movs	r2, #0
    2728:	1ac9      	subs	r1, r1, r3
    272a:	eb00 1011 	add.w	r0, r0, r1, lsr #4
    272e:	7402      	strb	r2, [r0, #16]
    2730:	4770      	bx	lr
    2732:	bf00      	nop

00002734 <USBHALHost::freeTD(unsigned char volatile*)>:
    2734:	68c3      	ldr	r3, [r0, #12]
    2736:	2200      	movs	r2, #0
    2738:	1ac9      	subs	r1, r1, r3
    273a:	eb00 1051 	add.w	r0, r0, r1, lsr #5
    273e:	f880 204c 	strb.w	r2, [r0, #76]	; 0x4c
    2742:	4770      	bx	lr

00002744 <USBHALHost::resetRootHub()>:
    2744:	4905      	ldr	r1, [pc, #20]	; (275c <USBHALHost::resetRootHub()+0x18>)
    2746:	2310      	movs	r3, #16
    2748:	654b      	str	r3, [r1, #84]	; 0x54
    274a:	6d4b      	ldr	r3, [r1, #84]	; 0x54
    274c:	4a03      	ldr	r2, [pc, #12]	; (275c <USBHALHost::resetRootHub()+0x18>)
    274e:	06db      	lsls	r3, r3, #27
    2750:	d4fb      	bmi.n	274a <USBHALHost::resetRootHub()+0x6>
    2752:	f44f 1380 	mov.w	r3, #1048576	; 0x100000
    2756:	6553      	str	r3, [r2, #84]	; 0x54
    2758:	4770      	bx	lr
    275a:	bf00      	nop
    275c:	5000c000 	.word	0x5000c000

00002760 <USBHALHost::UsbIrqhandler()>:
    2760:	e92d 41f0 	stmdb	sp!, {r4, r5, r6, r7, r8, lr}
    2764:	4c3e      	ldr	r4, [pc, #248]	; (2860 <USBHALHost::UsbIrqhandler()+0x100>)
    2766:	b082      	sub	sp, #8
    2768:	68e3      	ldr	r3, [r4, #12]
    276a:	6922      	ldr	r2, [r4, #16]
    276c:	4605      	mov	r5, r0
    276e:	421a      	tst	r2, r3
    2770:	d02b      	beq.n	27ca <USBHALHost::UsbIrqhandler()+0x6a>
    2772:	68e3      	ldr	r3, [r4, #12]
    2774:	6926      	ldr	r6, [r4, #16]
    2776:	401e      	ands	r6, r3
    2778:	0670      	lsls	r0, r6, #25
    277a:	d529      	bpl.n	27d0 <USBHALHost::UsbIrqhandler()+0x70>
    277c:	6d63      	ldr	r3, [r4, #84]	; 0x54
    277e:	03d9      	lsls	r1, r3, #15
    2780:	d50a      	bpl.n	2798 <USBHALHost::UsbIrqhandler()+0x38>
    2782:	6d21      	ldr	r1, [r4, #80]	; 0x50
    2784:	f411 4700 	ands.w	r7, r1, #32768	; 0x8000
    2788:	d025      	beq.n	27d6 <USBHALHost::UsbIrqhandler()+0x76>
    278a:	f006 0602 	and.w	r6, r6, #2
    278e:	4b34      	ldr	r3, [pc, #208]	; (2860 <USBHALHost::UsbIrqhandler()+0x100>)
    2790:	f44f 3280 	mov.w	r2, #65536	; 0x10000
    2794:	655a      	str	r2, [r3, #84]	; 0x54
    2796:	e001      	b.n	279c <USBHALHost::UsbIrqhandler()+0x3c>
    2798:	f006 0602 	and.w	r6, r6, #2
    279c:	4b30      	ldr	r3, [pc, #192]	; (2860 <USBHALHost::UsbIrqhandler()+0x100>)
    279e:	6d5a      	ldr	r2, [r3, #84]	; 0x54
    27a0:	02d2      	lsls	r2, r2, #11
    27a2:	bf44      	itt	mi
    27a4:	f44f 1280 	movmi.w	r2, #1048576	; 0x100000
    27a8:	655a      	strmi	r2, [r3, #84]	; 0x54
    27aa:	4b2d      	ldr	r3, [pc, #180]	; (2860 <USBHALHost::UsbIrqhandler()+0x100>)
    27ac:	2240      	movs	r2, #64	; 0x40
    27ae:	60da      	str	r2, [r3, #12]
    27b0:	b15e      	cbz	r6, 27ca <USBHALHost::UsbIrqhandler()+0x6a>
    27b2:	686a      	ldr	r2, [r5, #4]
    27b4:	682b      	ldr	r3, [r5, #0]
    27b6:	f8d2 1084 	ldr.w	r1, [r2, #132]	; 0x84
    27ba:	689b      	ldr	r3, [r3, #8]
    27bc:	f021 0101 	bic.w	r1, r1, #1
    27c0:	4628      	mov	r0, r5
    27c2:	4798      	blx	r3
    27c4:	4b26      	ldr	r3, [pc, #152]	; (2860 <USBHALHost::UsbIrqhandler()+0x100>)
    27c6:	2202      	movs	r2, #2
    27c8:	60da      	str	r2, [r3, #12]
    27ca:	b002      	add	sp, #8
    27cc:	e8bd 81f0 	ldmia.w	sp!, {r4, r5, r6, r7, r8, pc}
    27d0:	f006 0602 	and.w	r6, r6, #2
    27d4:	e7ec      	b.n	27b0 <USBHALHost::UsbIrqhandler()+0x50>
    27d6:	6d63      	ldr	r3, [r4, #84]	; 0x54
    27d8:	f013 0801 	ands.w	r8, r3, #1
    27dc:	d130      	bne.n	2840 <USBHALHost::UsbIrqhandler()+0xe0>
    27de:	f016 0602 	ands.w	r6, r6, #2
    27e2:	d115      	bne.n	2810 <USBHALHost::UsbIrqhandler()+0xb0>
    27e4:	686b      	ldr	r3, [r5, #4]
    27e6:	20c8      	movs	r0, #200	; 0xc8
    27e8:	f8d3 2084 	ldr.w	r2, [r3, #132]	; 0x84
    27ec:	f8c3 6084 	str.w	r6, [r3, #132]	; 0x84
    27f0:	f001 fd56 	bl	42a0 <wait_ms>
    27f4:	e895 000c 	ldmia.w	r5, {r2, r3}
    27f8:	f8d3 3084 	ldr.w	r3, [r3, #132]	; 0x84
    27fc:	4628      	mov	r0, r5
    27fe:	f023 0301 	bic.w	r3, r3, #1
    2802:	9300      	str	r3, [sp, #0]
    2804:	6854      	ldr	r4, [r2, #4]
    2806:	4631      	mov	r1, r6
    2808:	2201      	movs	r2, #1
    280a:	4633      	mov	r3, r6
    280c:	47a0      	blx	r4
    280e:	e7be      	b.n	278e <USBHALHost::UsbIrqhandler()+0x2e>
    2810:	20c8      	movs	r0, #200	; 0xc8
    2812:	f001 fd45 	bl	42a0 <wait_ms>
    2816:	e895 000c 	ldmia.w	r5, {r2, r3}
    281a:	f8d3 3084 	ldr.w	r3, [r3, #132]	; 0x84
    281e:	4641      	mov	r1, r8
    2820:	f023 0301 	bic.w	r3, r3, #1
    2824:	9300      	str	r3, [sp, #0]
    2826:	6857      	ldr	r7, [r2, #4]
    2828:	4643      	mov	r3, r8
    282a:	2201      	movs	r2, #1
    282c:	4628      	mov	r0, r5
    282e:	47b8      	blx	r7
    2830:	686b      	ldr	r3, [r5, #4]
    2832:	2202      	movs	r2, #2
    2834:	f8d3 1084 	ldr.w	r1, [r3, #132]	; 0x84
    2838:	f8c3 8084 	str.w	r8, [r3, #132]	; 0x84
    283c:	60e2      	str	r2, [r4, #12]
    283e:	e7a6      	b.n	278e <USBHALHost::UsbIrqhandler()+0x2e>
    2840:	2096      	movs	r0, #150	; 0x96
    2842:	f001 fd2d 	bl	42a0 <wait_ms>
    2846:	682a      	ldr	r2, [r5, #0]
    2848:	6d63      	ldr	r3, [r4, #84]	; 0x54
    284a:	9700      	str	r7, [sp, #0]
    284c:	6814      	ldr	r4, [r2, #0]
    284e:	f3c3 2340 	ubfx	r3, r3, #9, #1
    2852:	4639      	mov	r1, r7
    2854:	4628      	mov	r0, r5
    2856:	2201      	movs	r2, #1
    2858:	f006 0602 	and.w	r6, r6, #2
    285c:	47a0      	blx	r4
    285e:	e796      	b.n	278e <USBHALHost::UsbIrqhandler()+0x2e>
    2860:	5000c000 	.word	0x5000c000

00002864 <USBHALHost::_usbisr()>:
    2864:	4b02      	ldr	r3, [pc, #8]	; (2870 <USBHALHost::_usbisr()+0xc>)
    2866:	6818      	ldr	r0, [r3, #0]
    2868:	b108      	cbz	r0, 286e <USBHALHost::_usbisr()+0xa>
    286a:	f7ff bf79 	b.w	2760 <USBHALHost::UsbIrqhandler()>
    286e:	4770      	bx	lr
    2870:	10000204 	.word	0x10000204

00002874 <osThreadExit>:
    2874:	b500      	push	{lr}
    2876:	f8df c00c 	ldr.w	r12, [pc, #12]	; 2884 <osThreadExit+0x10>
    287a:	df00      	svc	0
    287c:	f8df c008 	ldr.w	r12, [pc, #8]	; 2888 <osThreadExit+0x14>
    2880:	df00      	svc	0
    2882:	e7fe      	b.n	2882 <osThreadExit+0xe>
    2884:	00002a2d 	.word	0x00002a2d
    2888:	00002a45 	.word	0x00002a45

0000288c <rt_timer_insert>:
    288c:	b430      	push	{r4, r5}
    288e:	4d11      	ldr	r5, [pc, #68]	; (28d4 <rt_timer_insert+0x48>)
    2890:	682c      	ldr	r4, [r5, #0]
    2892:	b15c      	cbz	r4, 28ac <rt_timer_insert+0x20>
    2894:	8922      	ldrh	r2, [r4, #8]
    2896:	4291      	cmp	r1, r2
    2898:	d204      	bcs.n	28a4 <rt_timer_insert+0x18>
    289a:	e00e      	b.n	28ba <rt_timer_insert+0x2e>
    289c:	891a      	ldrh	r2, [r3, #8]
    289e:	428a      	cmp	r2, r1
    28a0:	d80d      	bhi.n	28be <rt_timer_insert+0x32>
    28a2:	461c      	mov	r4, r3
    28a4:	6823      	ldr	r3, [r4, #0]
    28a6:	1a89      	subs	r1, r1, r2
    28a8:	2b00      	cmp	r3, #0
    28aa:	d1f7      	bne.n	289c <rt_timer_insert+0x10>
    28ac:	2300      	movs	r3, #0
    28ae:	8101      	strh	r1, [r0, #8]
    28b0:	6003      	str	r3, [r0, #0]
    28b2:	b164      	cbz	r4, 28ce <rt_timer_insert+0x42>
    28b4:	6020      	str	r0, [r4, #0]
    28b6:	bc30      	pop	{r4, r5}
    28b8:	4770      	bx	lr
    28ba:	4623      	mov	r3, r4
    28bc:	2400      	movs	r4, #0
    28be:	b289      	uxth	r1, r1
    28c0:	8101      	strh	r1, [r0, #8]
    28c2:	891a      	ldrh	r2, [r3, #8]
    28c4:	6003      	str	r3, [r0, #0]
    28c6:	1a51      	subs	r1, r2, r1
    28c8:	8119      	strh	r1, [r3, #8]
    28ca:	2c00      	cmp	r4, #0
    28cc:	d1f2      	bne.n	28b4 <rt_timer_insert+0x28>
    28ce:	6028      	str	r0, [r5, #0]
    28d0:	bc30      	pop	{r4, r5}
    28d2:	4770      	bx	lr
    28d4:	100004a4 	.word	0x100004a4

000028d8 <rt_ms2tick.part.0>:
    28d8:	4b08      	ldr	r3, [pc, #32]	; (28fc <rt_ms2tick.part.0+0x24>)
    28da:	b410      	push	{r4}
    28dc:	681b      	ldr	r3, [r3, #0]
    28de:	f44f 747a 	mov.w	r4, #1000	; 0x3e8
    28e2:	1e59      	subs	r1, r3, #1
    28e4:	fb04 1000 	mla	r0, r4, r0, r1
    28e8:	f64f 72fe 	movw	r2, #65534	; 0xfffe
    28ec:	fbb0 f0f3 	udiv	r0, r0, r3
    28f0:	4290      	cmp	r0, r2
    28f2:	bf28      	it	cs
    28f4:	4610      	movcs	r0, r2
    28f6:	f85d 4b04 	ldr.w	r4, [sp], #4
    28fa:	4770      	bx	lr
    28fc:	000085e4 	.word	0x000085e4

00002900 <svcKernelInitialize>:
    2900:	b538      	push	{r3, r4, r5, lr}
    2902:	4c08      	ldr	r4, [pc, #32]	; (2924 <svcKernelInitialize+0x24>)
    2904:	7825      	ldrb	r5, [r4, #0]
    2906:	b955      	cbnz	r5, 291e <svcKernelInitialize+0x1e>
    2908:	f001 f99a 	bl	3c40 <rt_sys_init>
    290c:	4b06      	ldr	r3, [pc, #24]	; (2928 <svcKernelInitialize+0x28>)
    290e:	22ff      	movs	r2, #255	; 0xff
    2910:	681b      	ldr	r3, [r3, #0]
    2912:	4628      	mov	r0, r5
    2914:	709a      	strb	r2, [r3, #2]
    2916:	f001 fb79 	bl	400c <sysThreadError>
    291a:	2301      	movs	r3, #1
    291c:	7023      	strb	r3, [r4, #0]
    291e:	2000      	movs	r0, #0
    2920:	bd38      	pop	{r3, r4, r5, pc}
    2922:	bf00      	nop
    2924:	100004a0 	.word	0x100004a0
    2928:	100004dc 	.word	0x100004dc

0000292c <osKernelInitialize>:
    292c:	b510      	push	{r4, lr}
    292e:	f3ef 8405 	mrs	r4, IPSR
    2932:	b10c      	cbz	r4, 2938 <osKernelInitialize+0xc>
    2934:	2082      	movs	r0, #130	; 0x82
    2936:	bd10      	pop	{r4, pc}
    2938:	f3ef 8414 	mrs	r4, CONTROL
    293c:	07e4      	lsls	r4, r4, #31
    293e:	d503      	bpl.n	2948 <osKernelInitialize+0x1c>
    2940:	f8df c00c 	ldr.w	r12, [pc, #12]	; 2950 <osKernelInitialize+0x24>
    2944:	df00      	svc	0
    2946:	bd10      	pop	{r4, pc}
    2948:	e8bd 4010 	ldmia.w	sp!, {r4, lr}
    294c:	f7ff bfd8 	b.w	2900 <svcKernelInitialize>
    2950:	00002901 	.word	0x00002901

00002954 <osKernelStart>:
    2954:	b510      	push	{r4, lr}
    2956:	b088      	sub	sp, #32
    2958:	f3ef 8405 	mrs	r4, IPSR
    295c:	b114      	cbz	r4, 2964 <osKernelStart+0x10>
    295e:	2082      	movs	r0, #130	; 0x82
    2960:	b008      	add	sp, #32
    2962:	bd10      	pop	{r4, pc}
    2964:	f3ef 8414 	mrs	r4, CONTROL
    2968:	f004 0403 	and.w	r4, r4, #3
    296c:	2c02      	cmp	r4, #2
    296e:	d01d      	beq.n	29ac <osKernelStart+0x58>
    2970:	2c03      	cmp	r4, #3
    2972:	d014      	beq.n	299e <osKernelStart+0x4a>
    2974:	2c01      	cmp	r4, #1
    2976:	d016      	beq.n	29a6 <osKernelStart+0x52>
    2978:	ac08      	add	r4, sp, #32
    297a:	f384 8809 	msr	PSP, r4
    297e:	4c0f      	ldr	r4, [pc, #60]	; (29bc <osKernelStart+0x68>)
    2980:	7824      	ldrb	r4, [r4, #0]
    2982:	07e4      	lsls	r4, r4, #31
    2984:	d516      	bpl.n	29b4 <osKernelStart+0x60>
    2986:	2402      	movs	r4, #2
    2988:	f384 8814 	msr	CONTROL, r4
    298c:	f3bf 8f4f 	dsb	sy
    2990:	f3bf 8f6f 	isb	sy
    2994:	f8df c028 	ldr.w	r12, [pc, #40]	; 29c0 <osKernelStart+0x6c>
    2998:	df00      	svc	0
    299a:	b008      	add	sp, #32
    299c:	bd10      	pop	{r4, pc}
    299e:	4c07      	ldr	r4, [pc, #28]	; (29bc <osKernelStart+0x68>)
    29a0:	7824      	ldrb	r4, [r4, #0]
    29a2:	07e4      	lsls	r4, r4, #31
    29a4:	d5f6      	bpl.n	2994 <osKernelStart+0x40>
    29a6:	20ff      	movs	r0, #255	; 0xff
    29a8:	b008      	add	sp, #32
    29aa:	bd10      	pop	{r4, pc}
    29ac:	4c03      	ldr	r4, [pc, #12]	; (29bc <osKernelStart+0x68>)
    29ae:	7824      	ldrb	r4, [r4, #0]
    29b0:	07e4      	lsls	r4, r4, #31
    29b2:	d4ef      	bmi.n	2994 <osKernelStart+0x40>
    29b4:	2403      	movs	r4, #3
    29b6:	f384 8814 	msr	CONTROL, r4
    29ba:	e7e7      	b.n	298c <osKernelStart+0x38>
    29bc:	000085ec 	.word	0x000085ec
    29c0:	00002ce9 	.word	0x00002ce9

000029c4 <svcThreadCreate>:
    29c4:	b5f8      	push	{r3, r4, r5, r6, r7, lr}
    29c6:	4604      	mov	r4, r0
    29c8:	460f      	mov	r7, r1
    29ca:	b328      	cbz	r0, 2a18 <svcThreadCreate+0x54>
    29cc:	6802      	ldr	r2, [r0, #0]
    29ce:	b31a      	cbz	r2, 2a18 <svcThreadCreate+0x54>
    29d0:	8883      	ldrh	r3, [r0, #4]
    29d2:	1cd8      	adds	r0, r3, #3
    29d4:	b280      	uxth	r0, r0
    29d6:	2806      	cmp	r0, #6
    29d8:	d81e      	bhi.n	2a18 <svcThreadCreate+0x54>
    29da:	68a0      	ldr	r0, [r4, #8]
    29dc:	b1e0      	cbz	r0, 2a18 <svcThreadCreate+0x54>
    29de:	68e6      	ldr	r6, [r4, #12]
    29e0:	b1d6      	cbz	r6, 2a18 <svcThreadCreate+0x54>
    29e2:	1d19      	adds	r1, r3, #4
    29e4:	f104 0510 	add.w	r5, r4, #16
    29e8:	b2c9      	uxtb	r1, r1
    29ea:	63a6      	str	r6, [r4, #56]	; 0x38
    29ec:	8660      	strh	r0, [r4, #50]	; 0x32
    29ee:	62e7      	str	r7, [r4, #44]	; 0x2c
    29f0:	4628      	mov	r0, r5
    29f2:	f001 f851 	bl	3a98 <rt_init_context>
    29f6:	f001 f837 	bl	3a68 <rt_get_TID>
    29fa:	4e0a      	ldr	r6, [pc, #40]	; (2a24 <svcThreadCreate+0x60>)
    29fc:	4603      	mov	r3, r0
    29fe:	1e47      	subs	r7, r0, #1
    2a00:	f846 5027 	str.w	r5, [r6, r7, lsl #2]
    2a04:	4628      	mov	r0, r5
    2a06:	74e3      	strb	r3, [r4, #19]
    2a08:	f001 f862 	bl	3ad0 <rt_dispatch>
    2a0c:	f856 0027 	ldr.w	r0, [r6, r7, lsl #2]
    2a10:	4a05      	ldr	r2, [pc, #20]	; (2a28 <svcThreadCreate+0x64>)
    2a12:	6a43      	ldr	r3, [r0, #36]	; 0x24
    2a14:	635a      	str	r2, [r3, #52]	; 0x34
    2a16:	bdf8      	pop	{r3, r4, r5, r6, r7, pc}
    2a18:	2080      	movs	r0, #128	; 0x80
    2a1a:	f001 faf7 	bl	400c <sysThreadError>
    2a1e:	2000      	movs	r0, #0
    2a20:	bdf8      	pop	{r3, r4, r5, r6, r7, pc}
    2a22:	bf00      	nop
    2a24:	10000718 	.word	0x10000718
    2a28:	00002875 	.word	0x00002875

00002a2c <svcThreadGetId>:
    2a2c:	b508      	push	{r3, lr}
    2a2e:	f001 f88b 	bl	3b48 <rt_tsk_self>
    2a32:	b118      	cbz	r0, 2a3c <svcThreadGetId+0x10>
    2a34:	4b02      	ldr	r3, [pc, #8]	; (2a40 <svcThreadGetId+0x14>)
    2a36:	3801      	subs	r0, #1
    2a38:	f853 0020 	ldr.w	r0, [r3, r0, lsl #2]
    2a3c:	bd08      	pop	{r3, pc}
    2a3e:	bf00      	nop
    2a40:	10000718 	.word	0x10000718

00002a44 <svcThreadTerminate>:
    2a44:	b508      	push	{r3, lr}
    2a46:	b158      	cbz	r0, 2a60 <svcThreadTerminate+0x1c>
    2a48:	0783      	lsls	r3, r0, #30
    2a4a:	d109      	bne.n	2a60 <svcThreadTerminate+0x1c>
    2a4c:	7803      	ldrb	r3, [r0, #0]
    2a4e:	b93b      	cbnz	r3, 2a60 <svcThreadTerminate+0x1c>
    2a50:	78c0      	ldrb	r0, [r0, #3]
    2a52:	f001 f8bd 	bl	3bd0 <rt_tsk_delete>
    2a56:	28ff      	cmp	r0, #255	; 0xff
    2a58:	bf14      	ite	ne
    2a5a:	2000      	movne	r0, #0
    2a5c:	2081      	moveq	r0, #129	; 0x81
    2a5e:	bd08      	pop	{r3, pc}
    2a60:	2080      	movs	r0, #128	; 0x80
    2a62:	bd08      	pop	{r3, pc}

00002a64 <osThreadCreate>:
    2a64:	b510      	push	{r4, lr}
    2a66:	f3ef 8405 	mrs	r4, IPSR
    2a6a:	b974      	cbnz	r4, 2a8a <osThreadCreate+0x26>
    2a6c:	f3ef 8414 	mrs	r4, CONTROL
    2a70:	07e4      	lsls	r4, r4, #31
    2a72:	d402      	bmi.n	2a7a <osThreadCreate+0x16>
    2a74:	4c06      	ldr	r4, [pc, #24]	; (2a90 <osThreadCreate+0x2c>)
    2a76:	7824      	ldrb	r4, [r4, #0]
    2a78:	b11c      	cbz	r4, 2a82 <osThreadCreate+0x1e>
    2a7a:	f8df c018 	ldr.w	r12, [pc, #24]	; 2a94 <osThreadCreate+0x30>
    2a7e:	df00      	svc	0
    2a80:	bd10      	pop	{r4, pc}
    2a82:	e8bd 4010 	ldmia.w	sp!, {r4, lr}
    2a86:	f7ff bf9d 	b.w	29c4 <svcThreadCreate>
    2a8a:	2000      	movs	r0, #0
    2a8c:	bd10      	pop	{r4, pc}
    2a8e:	bf00      	nop
    2a90:	100004a1 	.word	0x100004a1
    2a94:	000029c5 	.word	0x000029c5

00002a98 <osThreadTerminate>:
    2a98:	b510      	push	{r4, lr}
    2a9a:	f3ef 8405 	mrs	r4, IPSR
    2a9e:	b10c      	cbz	r4, 2aa4 <osThreadTerminate+0xc>
    2aa0:	2082      	movs	r0, #130	; 0x82
    2aa2:	bd10      	pop	{r4, pc}
    2aa4:	f8df c004 	ldr.w	r12, [pc, #4]	; 2aac <osThreadTerminate+0x14>
    2aa8:	df00      	svc	0
    2aaa:	bd10      	pop	{r4, pc}
    2aac:	00002a45 	.word	0x00002a45

00002ab0 <svcDelay>:
    2ab0:	b508      	push	{r3, lr}
    2ab2:	b158      	cbz	r0, 2acc <svcDelay+0x1c>
    2ab4:	1c42      	adds	r2, r0, #1
    2ab6:	d010      	beq.n	2ada <svcDelay+0x2a>
    2ab8:	4a0b      	ldr	r2, [pc, #44]	; (2ae8 <svcDelay+0x38>)
    2aba:	4290      	cmp	r0, r2
    2abc:	d807      	bhi.n	2ace <svcDelay+0x1e>
    2abe:	f7ff ff0b 	bl	28d8 <rt_ms2tick.part.0>
    2ac2:	b280      	uxth	r0, r0
    2ac4:	f001 f958 	bl	3d78 <rt_dly_wait>
    2ac8:	2040      	movs	r0, #64	; 0x40
    2aca:	bd08      	pop	{r3, pc}
    2acc:	bd08      	pop	{r3, pc}
    2ace:	f64f 70fe 	movw	r0, #65534	; 0xfffe
    2ad2:	f001 f951 	bl	3d78 <rt_dly_wait>
    2ad6:	2040      	movs	r0, #64	; 0x40
    2ad8:	bd08      	pop	{r3, pc}
    2ada:	f64f 70ff 	movw	r0, #65535	; 0xffff
    2ade:	f001 f94b 	bl	3d78 <rt_dly_wait>
    2ae2:	2040      	movs	r0, #64	; 0x40
    2ae4:	bd08      	pop	{r3, pc}
    2ae6:	bf00      	nop
    2ae8:	003d0900 	.word	0x003d0900

00002aec <osDelay>:
    2aec:	b510      	push	{r4, lr}
    2aee:	f3ef 8405 	mrs	r4, IPSR
    2af2:	b10c      	cbz	r4, 2af8 <osDelay+0xc>
    2af4:	2082      	movs	r0, #130	; 0x82
    2af6:	bd10      	pop	{r4, pc}
    2af8:	f8df c004 	ldr.w	r12, [pc, #4]	; 2b00 <osDelay+0x14>
    2afc:	df00      	svc	0
    2afe:	bd10      	pop	{r4, pc}
    2b00:	00002ab1 	.word	0x00002ab1

00002b04 <svcTimerCall>:
    2b04:	0783      	lsls	r3, r0, #30
    2b06:	d106      	bne.n	2b16 <svcTimerCall+0x12>
    2b08:	b128      	cbz	r0, 2b16 <svcTimerCall+0x12>
    2b0a:	6901      	ldr	r1, [r0, #16]
    2b0c:	68c3      	ldr	r3, [r0, #12]
    2b0e:	680a      	ldr	r2, [r1, #0]
    2b10:	4619      	mov	r1, r3
    2b12:	4610      	mov	r0, r2
    2b14:	4770      	bx	lr
    2b16:	2000      	movs	r0, #0
    2b18:	2100      	movs	r1, #0
    2b1a:	4770      	bx	lr

00002b1c <sysTimerTick>:
    2b1c:	e92d 43f8 	stmdb	sp!, {r3, r4, r5, r6, r7, r8, r9, lr}
    2b20:	4f17      	ldr	r7, [pc, #92]	; (2b80 <sysTimerTick+0x64>)
    2b22:	683d      	ldr	r5, [r7, #0]
    2b24:	b1d5      	cbz	r5, 2b5c <sysTimerTick+0x40>
    2b26:	892b      	ldrh	r3, [r5, #8]
    2b28:	f8df 8058 	ldr.w	r8, [pc, #88]	; 2b84 <sysTimerTick+0x68>
    2b2c:	3b01      	subs	r3, #1
    2b2e:	b29b      	uxth	r3, r3
    2b30:	812b      	strh	r3, [r5, #8]
    2b32:	f04f 0901 	mov.w	r9, #1
    2b36:	b98b      	cbnz	r3, 2b5c <sysTimerTick+0x40>
    2b38:	682c      	ldr	r4, [r5, #0]
    2b3a:	f8d8 6000 	ldr.w	r6, [r8]
    2b3e:	603c      	str	r4, [r7, #0]
    2b40:	b116      	cbz	r6, 2b48 <sysTimerTick+0x2c>
    2b42:	7833      	ldrb	r3, [r6, #0]
    2b44:	2b01      	cmp	r3, #1
    2b46:	d010      	beq.n	2b6a <sysTimerTick+0x4e>
    2b48:	796b      	ldrb	r3, [r5, #5]
    2b4a:	2b01      	cmp	r3, #1
    2b4c:	d008      	beq.n	2b60 <sysTimerTick+0x44>
    2b4e:	f885 9004 	strb.w	r9, [r5, #4]
    2b52:	b11c      	cbz	r4, 2b5c <sysTimerTick+0x40>
    2b54:	8923      	ldrh	r3, [r4, #8]
    2b56:	4625      	mov	r5, r4
    2b58:	2b00      	cmp	r3, #0
    2b5a:	d0ed      	beq.n	2b38 <sysTimerTick+0x1c>
    2b5c:	e8bd 83f8 	ldmia.w	sp!, {r3, r4, r5, r6, r7, r8, r9, pc}
    2b60:	4628      	mov	r0, r5
    2b62:	8969      	ldrh	r1, [r5, #10]
    2b64:	f7ff fe92 	bl	288c <rt_timer_insert>
    2b68:	e7f3      	b.n	2b52 <sysTimerTick+0x36>
    2b6a:	4630      	mov	r0, r6
    2b6c:	f000 fce6 	bl	353c <rt_mbx_check>
    2b70:	2800      	cmp	r0, #0
    2b72:	d0e9      	beq.n	2b48 <sysTimerTick+0x2c>
    2b74:	4630      	mov	r0, r6
    2b76:	4629      	mov	r1, r5
    2b78:	f000 fce4 	bl	3544 <isr_mbx_send>
    2b7c:	e7e4      	b.n	2b48 <sysTimerTick+0x2c>
    2b7e:	bf00      	nop
    2b80:	100004a4 	.word	0x100004a4
    2b84:	100007f8 	.word	0x100007f8

00002b88 <svcMutexCreate>:
    2b88:	b510      	push	{r4, lr}
    2b8a:	b140      	cbz	r0, 2b9e <svcMutexCreate+0x16>
    2b8c:	6804      	ldr	r4, [r0, #0]
    2b8e:	b134      	cbz	r4, 2b9e <svcMutexCreate+0x16>
    2b90:	7823      	ldrb	r3, [r4, #0]
    2b92:	b923      	cbnz	r3, 2b9e <svcMutexCreate+0x16>
    2b94:	4620      	mov	r0, r4
    2b96:	f000 fdc7 	bl	3728 <rt_mut_init>
    2b9a:	4620      	mov	r0, r4
    2b9c:	bd10      	pop	{r4, pc}
    2b9e:	2080      	movs	r0, #128	; 0x80
    2ba0:	f001 fa34 	bl	400c <sysThreadError>
    2ba4:	2000      	movs	r0, #0
    2ba6:	bd10      	pop	{r4, pc}

00002ba8 <svcMutexWait>:
    2ba8:	b570      	push	{r4, r5, r6, lr}
    2baa:	f010 0603 	ands.w	r6, r0, #3
    2bae:	4604      	mov	r4, r0
    2bb0:	460d      	mov	r5, r1
    2bb2:	d103      	bne.n	2bbc <svcMutexWait+0x14>
    2bb4:	b110      	cbz	r0, 2bbc <svcMutexWait+0x14>
    2bb6:	7803      	ldrb	r3, [r0, #0]
    2bb8:	2b03      	cmp	r3, #3
    2bba:	d001      	beq.n	2bc0 <svcMutexWait+0x18>
    2bbc:	2080      	movs	r0, #128	; 0x80
    2bbe:	bd70      	pop	{r4, r5, r6, pc}
    2bc0:	1c4b      	adds	r3, r1, #1
    2bc2:	d015      	beq.n	2bf0 <svcMutexWait+0x48>
    2bc4:	4b0e      	ldr	r3, [pc, #56]	; (2c00 <svcMutexWait+0x58>)
    2bc6:	4299      	cmp	r1, r3
    2bc8:	d80a      	bhi.n	2be0 <svcMutexWait+0x38>
    2bca:	4608      	mov	r0, r1
    2bcc:	f7ff fe84 	bl	28d8 <rt_ms2tick.part.0>
    2bd0:	b281      	uxth	r1, r0
    2bd2:	4620      	mov	r0, r4
    2bd4:	f000 fe4c 	bl	3870 <rt_mut_wait>
    2bd8:	2801      	cmp	r0, #1
    2bda:	d004      	beq.n	2be6 <svcMutexWait+0x3e>
    2bdc:	2000      	movs	r0, #0
    2bde:	bd70      	pop	{r4, r5, r6, pc}
    2be0:	f64f 71fe 	movw	r1, #65534	; 0xfffe
    2be4:	e7f5      	b.n	2bd2 <svcMutexWait+0x2a>
    2be6:	b10d      	cbz	r5, 2bec <svcMutexWait+0x44>
    2be8:	20c1      	movs	r0, #193	; 0xc1
    2bea:	bd70      	pop	{r4, r5, r6, pc}
    2bec:	2081      	movs	r0, #129	; 0x81
    2bee:	bd70      	pop	{r4, r5, r6, pc}
    2bf0:	f64f 71ff 	movw	r1, #65535	; 0xffff
    2bf4:	f000 fe3c 	bl	3870 <rt_mut_wait>
    2bf8:	2801      	cmp	r0, #1
    2bfa:	d1ef      	bne.n	2bdc <svcMutexWait+0x34>
    2bfc:	e7f4      	b.n	2be8 <svcMutexWait+0x40>
    2bfe:	bf00      	nop
    2c00:	003d0900 	.word	0x003d0900

00002c04 <svcMutexRelease>:
    2c04:	0782      	lsls	r2, r0, #30
    2c06:	b508      	push	{r3, lr}
    2c08:	d103      	bne.n	2c12 <svcMutexRelease+0xe>
    2c0a:	b110      	cbz	r0, 2c12 <svcMutexRelease+0xe>
    2c0c:	7803      	ldrb	r3, [r0, #0]
    2c0e:	2b03      	cmp	r3, #3
    2c10:	d001      	beq.n	2c16 <svcMutexRelease+0x12>
    2c12:	2080      	movs	r0, #128	; 0x80
    2c14:	bd08      	pop	{r3, pc}
    2c16:	f000 fdcb 	bl	37b0 <rt_mut_release>
    2c1a:	28ff      	cmp	r0, #255	; 0xff
    2c1c:	bf14      	ite	ne
    2c1e:	2000      	movne	r0, #0
    2c20:	2081      	moveq	r0, #129	; 0x81
    2c22:	bd08      	pop	{r3, pc}

00002c24 <svcMutexDelete>:
    2c24:	b510      	push	{r4, lr}
    2c26:	f010 0403 	ands.w	r4, r0, #3
    2c2a:	d103      	bne.n	2c34 <svcMutexDelete+0x10>
    2c2c:	b110      	cbz	r0, 2c34 <svcMutexDelete+0x10>
    2c2e:	7803      	ldrb	r3, [r0, #0]
    2c30:	2b03      	cmp	r3, #3
    2c32:	d001      	beq.n	2c38 <svcMutexDelete+0x14>
    2c34:	2080      	movs	r0, #128	; 0x80
    2c36:	bd10      	pop	{r4, pc}
    2c38:	f000 fd7e 	bl	3738 <rt_mut_delete>
    2c3c:	4620      	mov	r0, r4
    2c3e:	bd10      	pop	{r4, pc}

00002c40 <osMutexCreate>:
    2c40:	b510      	push	{r4, lr}
    2c42:	f3ef 8405 	mrs	r4, IPSR
    2c46:	b974      	cbnz	r4, 2c66 <osMutexCreate+0x26>
    2c48:	f3ef 8414 	mrs	r4, CONTROL
    2c4c:	07e4      	lsls	r4, r4, #31
    2c4e:	d402      	bmi.n	2c56 <osMutexCreate+0x16>
    2c50:	4c06      	ldr	r4, [pc, #24]	; (2c6c <osMutexCreate+0x2c>)
    2c52:	7824      	ldrb	r4, [r4, #0]
    2c54:	b11c      	cbz	r4, 2c5e <osMutexCreate+0x1e>
    2c56:	f8df c018 	ldr.w	r12, [pc, #24]	; 2c70 <osMutexCreate+0x30>
    2c5a:	df00      	svc	0
    2c5c:	bd10      	pop	{r4, pc}
    2c5e:	e8bd 4010 	ldmia.w	sp!, {r4, lr}
    2c62:	f7ff bf91 	b.w	2b88 <svcMutexCreate>
    2c66:	2000      	movs	r0, #0
    2c68:	bd10      	pop	{r4, pc}
    2c6a:	bf00      	nop
    2c6c:	100004a1 	.word	0x100004a1
    2c70:	00002b89 	.word	0x00002b89

00002c74 <osMutexWait>:
    2c74:	b510      	push	{r4, lr}
    2c76:	f3ef 8405 	mrs	r4, IPSR
    2c7a:	b10c      	cbz	r4, 2c80 <osMutexWait+0xc>
    2c7c:	2082      	movs	r0, #130	; 0x82
    2c7e:	bd10      	pop	{r4, pc}
    2c80:	f8df c004 	ldr.w	r12, [pc, #4]	; 2c88 <osMutexWait+0x14>
    2c84:	df00      	svc	0
    2c86:	bd10      	pop	{r4, pc}
    2c88:	00002ba9 	.word	0x00002ba9

00002c8c <osMutexRelease>:
    2c8c:	b510      	push	{r4, lr}
    2c8e:	f3ef 8405 	mrs	r4, IPSR
    2c92:	b10c      	cbz	r4, 2c98 <osMutexRelease+0xc>
    2c94:	2082      	movs	r0, #130	; 0x82
    2c96:	bd10      	pop	{r4, pc}
    2c98:	f8df c004 	ldr.w	r12, [pc, #4]	; 2ca0 <osMutexRelease+0x14>
    2c9c:	df00      	svc	0
    2c9e:	bd10      	pop	{r4, pc}
    2ca0:	00002c05 	.word	0x00002c05

00002ca4 <osMutexDelete>:
    2ca4:	b510      	push	{r4, lr}
    2ca6:	f3ef 8405 	mrs	r4, IPSR
    2caa:	b10c      	cbz	r4, 2cb0 <osMutexDelete+0xc>
    2cac:	2082      	movs	r0, #130	; 0x82
    2cae:	bd10      	pop	{r4, pc}
    2cb0:	f8df c004 	ldr.w	r12, [pc, #4]	; 2cb8 <osMutexDelete+0x14>
    2cb4:	df00      	svc	0
    2cb6:	bd10      	pop	{r4, pc}
    2cb8:	00002c25 	.word	0x00002c25

00002cbc <svcMessageCreate>:
    2cbc:	b510      	push	{r4, lr}
    2cbe:	4604      	mov	r4, r0
    2cc0:	b160      	cbz	r0, 2cdc <svcMessageCreate+0x20>
    2cc2:	6801      	ldr	r1, [r0, #0]
    2cc4:	b151      	cbz	r1, 2cdc <svcMessageCreate+0x20>
    2cc6:	6840      	ldr	r0, [r0, #4]
    2cc8:	b140      	cbz	r0, 2cdc <svcMessageCreate+0x20>
    2cca:	7803      	ldrb	r3, [r0, #0]
    2ccc:	b933      	cbnz	r3, 2cdc <svcMessageCreate+0x20>
    2cce:	3104      	adds	r1, #4
    2cd0:	0089      	lsls	r1, r1, #2
    2cd2:	b289      	uxth	r1, r1
    2cd4:	f000 fb7e 	bl	33d4 <rt_mbx_init>
    2cd8:	6860      	ldr	r0, [r4, #4]
    2cda:	bd10      	pop	{r4, pc}
    2cdc:	2080      	movs	r0, #128	; 0x80
    2cde:	f001 f995 	bl	400c <sysThreadError>
    2ce2:	2000      	movs	r0, #0
    2ce4:	bd10      	pop	{r4, pc}
    2ce6:	bf00      	nop

00002ce8 <svcKernelStart>:
    2ce8:	b538      	push	{r3, r4, r5, lr}
    2cea:	4d11      	ldr	r5, [pc, #68]	; (2d30 <svcKernelStart+0x48>)
    2cec:	782c      	ldrb	r4, [r5, #0]
    2cee:	b9e4      	cbnz	r4, 2d2a <svcKernelStart+0x42>
    2cf0:	4621      	mov	r1, r4
    2cf2:	4810      	ldr	r0, [pc, #64]	; (2d34 <svcKernelStart+0x4c>)
    2cf4:	f7ff ffe2 	bl	2cbc <svcMessageCreate>
    2cf8:	4b0f      	ldr	r3, [pc, #60]	; (2d38 <svcKernelStart+0x50>)
    2cfa:	4621      	mov	r1, r4
    2cfc:	6018      	str	r0, [r3, #0]
    2cfe:	480f      	ldr	r0, [pc, #60]	; (2d3c <svcKernelStart+0x54>)
    2d00:	f7ff fe60 	bl	29c4 <svcThreadCreate>
    2d04:	4b0e      	ldr	r3, [pc, #56]	; (2d40 <svcKernelStart+0x58>)
    2d06:	4621      	mov	r1, r4
    2d08:	6018      	str	r0, [r3, #0]
    2d0a:	4620      	mov	r0, r4
    2d0c:	f000 ff24 	bl	3b58 <rt_tsk_prio>
    2d10:	4b0c      	ldr	r3, [pc, #48]	; (2d44 <svcKernelStart+0x5c>)
    2d12:	681b      	ldr	r3, [r3, #0]
    2d14:	6a5b      	ldr	r3, [r3, #36]	; 0x24
    2d16:	3320      	adds	r3, #32
    2d18:	f383 8809 	msr	PSP, r3
    2d1c:	4b09      	ldr	r3, [pc, #36]	; (2d44 <svcKernelStart+0x5c>)
    2d1e:	2200      	movs	r2, #0
    2d20:	601a      	str	r2, [r3, #0]
    2d22:	f001 f80b 	bl	3d3c <rt_sys_start>
    2d26:	2301      	movs	r3, #1
    2d28:	702b      	strb	r3, [r5, #0]
    2d2a:	2000      	movs	r0, #0
    2d2c:	bd38      	pop	{r3, r4, r5, pc}
    2d2e:	bf00      	nop
    2d30:	100004a1 	.word	0x100004a1
    2d34:	10000108 	.word	0x10000108
    2d38:	100007f8 	.word	0x100007f8
    2d3c:	10000110 	.word	0x10000110
    2d40:	10000ffc 	.word	0x10000ffc
    2d44:	100004dc 	.word	0x100004dc

00002d48 <svcMessagePut>:
    2d48:	b570      	push	{r4, r5, r6, lr}
    2d4a:	4615      	mov	r5, r2
    2d4c:	460e      	mov	r6, r1
    2d4e:	4604      	mov	r4, r0
    2d50:	b110      	cbz	r0, 2d58 <svcMessagePut+0x10>
    2d52:	7803      	ldrb	r3, [r0, #0]
    2d54:	2b01      	cmp	r3, #1
    2d56:	d001      	beq.n	2d5c <svcMessagePut+0x14>
    2d58:	2080      	movs	r0, #128	; 0x80
    2d5a:	bd70      	pop	{r4, r5, r6, pc}
    2d5c:	1c53      	adds	r3, r2, #1
    2d5e:	d016      	beq.n	2d8e <svcMessagePut+0x46>
    2d60:	4b0e      	ldr	r3, [pc, #56]	; (2d9c <svcMessagePut+0x54>)
    2d62:	429a      	cmp	r2, r3
    2d64:	d80b      	bhi.n	2d7e <svcMessagePut+0x36>
    2d66:	4610      	mov	r0, r2
    2d68:	f7ff fdb6 	bl	28d8 <rt_ms2tick.part.0>
    2d6c:	b282      	uxth	r2, r0
    2d6e:	4620      	mov	r0, r4
    2d70:	4631      	mov	r1, r6
    2d72:	f000 fb3d 	bl	33f0 <rt_mbx_send>
    2d76:	2801      	cmp	r0, #1
    2d78:	d004      	beq.n	2d84 <svcMessagePut+0x3c>
    2d7a:	2000      	movs	r0, #0
    2d7c:	bd70      	pop	{r4, r5, r6, pc}
    2d7e:	f64f 72fe 	movw	r2, #65534	; 0xfffe
    2d82:	e7f4      	b.n	2d6e <svcMessagePut+0x26>
    2d84:	b10d      	cbz	r5, 2d8a <svcMessagePut+0x42>
    2d86:	20c1      	movs	r0, #193	; 0xc1
    2d88:	bd70      	pop	{r4, r5, r6, pc}
    2d8a:	2081      	movs	r0, #129	; 0x81
    2d8c:	bd70      	pop	{r4, r5, r6, pc}
    2d8e:	f64f 72ff 	movw	r2, #65535	; 0xffff
    2d92:	f000 fb2d 	bl	33f0 <rt_mbx_send>
    2d96:	2801      	cmp	r0, #1
    2d98:	d1ef      	bne.n	2d7a <svcMessagePut+0x32>
    2d9a:	e7f4      	b.n	2d86 <svcMessagePut+0x3e>
    2d9c:	003d0900 	.word	0x003d0900

00002da0 <svcMessageGet>:
    2da0:	e92d 4ff0 	stmdb	sp!, {r4, r5, r6, r7, r8, r9, r10, r11, lr}
    2da4:	460c      	mov	r4, r1
    2da6:	b085      	sub	sp, #20
    2da8:	4680      	mov	r8, r0
    2daa:	b348      	cbz	r0, 2e00 <svcMessageGet+0x60>
    2dac:	7803      	ldrb	r3, [r0, #0]
    2dae:	2b01      	cmp	r3, #1
    2db0:	d00a      	beq.n	2dc8 <svcMessageGet+0x28>
    2db2:	2500      	movs	r5, #0
    2db4:	2480      	movs	r4, #128	; 0x80
    2db6:	462e      	mov	r6, r5
    2db8:	462f      	mov	r7, r5
    2dba:	463b      	mov	r3, r7
    2dbc:	4620      	mov	r0, r4
    2dbe:	4629      	mov	r1, r5
    2dc0:	4632      	mov	r2, r6
    2dc2:	b005      	add	sp, #20
    2dc4:	e8bd 8ff0 	ldmia.w	sp!, {r4, r5, r6, r7, r8, r9, r10, r11, pc}
    2dc8:	1c4b      	adds	r3, r1, #1
    2dca:	d024      	beq.n	2e16 <svcMessageGet+0x76>
    2dcc:	4b16      	ldr	r3, [pc, #88]	; (2e28 <svcMessageGet+0x88>)
    2dce:	4299      	cmp	r1, r3
    2dd0:	d911      	bls.n	2df6 <svcMessageGet+0x56>
    2dd2:	f64f 72fe 	movw	r2, #65534	; 0xfffe
    2dd6:	4640      	mov	r0, r8
    2dd8:	a902      	add	r1, sp, #8
    2dda:	f000 fb59 	bl	3490 <rt_mbx_wait>
    2dde:	2801      	cmp	r0, #1
    2de0:	d013      	beq.n	2e0a <svcMessageGet+0x6a>
    2de2:	2000      	movs	r0, #0
    2de4:	4602      	mov	r2, r0
    2de6:	4603      	mov	r3, r0
    2de8:	2010      	movs	r0, #16
    2dea:	9902      	ldr	r1, [sp, #8]
    2dec:	4604      	mov	r4, r0
    2dee:	460d      	mov	r5, r1
    2df0:	4616      	mov	r6, r2
    2df2:	461f      	mov	r7, r3
    2df4:	e7e1      	b.n	2dba <svcMessageGet+0x1a>
    2df6:	4608      	mov	r0, r1
    2df8:	f7ff fd6e 	bl	28d8 <rt_ms2tick.part.0>
    2dfc:	b282      	uxth	r2, r0
    2dfe:	e7ea      	b.n	2dd6 <svcMessageGet+0x36>
    2e00:	2480      	movs	r4, #128	; 0x80
    2e02:	4605      	mov	r5, r0
    2e04:	4606      	mov	r6, r0
    2e06:	4607      	mov	r7, r0
    2e08:	e7d7      	b.n	2dba <svcMessageGet+0x1a>
    2e0a:	b95c      	cbnz	r4, 2e24 <svcMessageGet+0x84>
    2e0c:	2000      	movs	r0, #0
    2e0e:	4602      	mov	r2, r0
    2e10:	4603      	mov	r3, r0
    2e12:	4620      	mov	r0, r4
    2e14:	e7e9      	b.n	2dea <svcMessageGet+0x4a>
    2e16:	a902      	add	r1, sp, #8
    2e18:	f64f 72ff 	movw	r2, #65535	; 0xffff
    2e1c:	f000 fb38 	bl	3490 <rt_mbx_wait>
    2e20:	2801      	cmp	r0, #1
    2e22:	d1de      	bne.n	2de2 <svcMessageGet+0x42>
    2e24:	2440      	movs	r4, #64	; 0x40
    2e26:	e7f1      	b.n	2e0c <svcMessageGet+0x6c>
    2e28:	003d0900 	.word	0x003d0900

00002e2c <osMessageCreate>:
    2e2c:	b510      	push	{r4, lr}
    2e2e:	f3ef 8405 	mrs	r4, IPSR
    2e32:	b974      	cbnz	r4, 2e52 <osMessageCreate+0x26>
    2e34:	f3ef 8414 	mrs	r4, CONTROL
    2e38:	07e4      	lsls	r4, r4, #31
    2e3a:	d402      	bmi.n	2e42 <osMessageCreate+0x16>
    2e3c:	4c06      	ldr	r4, [pc, #24]	; (2e58 <osMessageCreate+0x2c>)
    2e3e:	7824      	ldrb	r4, [r4, #0]
    2e40:	b11c      	cbz	r4, 2e4a <osMessageCreate+0x1e>
    2e42:	f8df c018 	ldr.w	r12, [pc, #24]	; 2e5c <osMessageCreate+0x30>
    2e46:	df00      	svc	0
    2e48:	bd10      	pop	{r4, pc}
    2e4a:	e8bd 4010 	ldmia.w	sp!, {r4, lr}
    2e4e:	f7ff bf35 	b.w	2cbc <svcMessageCreate>
    2e52:	2000      	movs	r0, #0
    2e54:	bd10      	pop	{r4, pc}
    2e56:	bf00      	nop
    2e58:	100004a1 	.word	0x100004a1
    2e5c:	00002cbd 	.word	0x00002cbd

00002e60 <osMessagePut>:
    2e60:	b510      	push	{r4, lr}
    2e62:	4604      	mov	r4, r0
    2e64:	b082      	sub	sp, #8
    2e66:	f3ef 8005 	mrs	r0, IPSR
    2e6a:	b928      	cbnz	r0, 2e78 <osMessagePut+0x18>
    2e6c:	4620      	mov	r0, r4
    2e6e:	f8df c038 	ldr.w	r12, [pc, #56]	; 2ea8 <osMessagePut+0x48>
    2e72:	df00      	svc	0
    2e74:	b002      	add	sp, #8
    2e76:	bd10      	pop	{r4, pc}
    2e78:	b11c      	cbz	r4, 2e82 <osMessagePut+0x22>
    2e7a:	b912      	cbnz	r2, 2e82 <osMessagePut+0x22>
    2e7c:	7823      	ldrb	r3, [r4, #0]
    2e7e:	2b01      	cmp	r3, #1
    2e80:	d002      	beq.n	2e88 <osMessagePut+0x28>
    2e82:	2080      	movs	r0, #128	; 0x80
    2e84:	b002      	add	sp, #8
    2e86:	bd10      	pop	{r4, pc}
    2e88:	4620      	mov	r0, r4
    2e8a:	9101      	str	r1, [sp, #4]
    2e8c:	9200      	str	r2, [sp, #0]
    2e8e:	f000 fb55 	bl	353c <rt_mbx_check>
    2e92:	9901      	ldr	r1, [sp, #4]
    2e94:	b908      	cbnz	r0, 2e9a <osMessagePut+0x3a>
    2e96:	2081      	movs	r0, #129	; 0x81
    2e98:	e7ec      	b.n	2e74 <osMessagePut+0x14>
    2e9a:	4620      	mov	r0, r4
    2e9c:	f000 fb52 	bl	3544 <isr_mbx_send>
    2ea0:	9a00      	ldr	r2, [sp, #0]
    2ea2:	4610      	mov	r0, r2
    2ea4:	e7e6      	b.n	2e74 <osMessagePut+0x14>
    2ea6:	0000      	.short	0x0000
    2ea8:	00002d49 	.word	0x00002d49

00002eac <osMessageGet>:
    2eac:	b570      	push	{r4, r5, r6, lr}
    2eae:	4604      	mov	r4, r0
    2eb0:	b084      	sub	sp, #16
    2eb2:	4616      	mov	r6, r2
    2eb4:	f3ef 8505 	mrs	r5, IPSR
    2eb8:	b94d      	cbnz	r5, 2ece <osMessageGet+0x22>
    2eba:	4608      	mov	r0, r1
    2ebc:	4611      	mov	r1, r2
    2ebe:	f8df c050 	ldr.w	r12, [pc, #80]	; 2f10 <osMessageGet+0x64>
    2ec2:	df00      	svc	0
    2ec4:	e884 0007 	stmia.w	r4, {r0, r1, r2}
    2ec8:	4620      	mov	r0, r4
    2eca:	b004      	add	sp, #16
    2ecc:	bd70      	pop	{r4, r5, r6, pc}
    2ece:	b119      	cbz	r1, 2ed8 <osMessageGet+0x2c>
    2ed0:	b912      	cbnz	r2, 2ed8 <osMessageGet+0x2c>
    2ed2:	780b      	ldrb	r3, [r1, #0]
    2ed4:	2b01      	cmp	r3, #1
    2ed6:	d00a      	beq.n	2eee <osMessageGet+0x42>
    2ed8:	ab04      	add	r3, sp, #16
    2eda:	2280      	movs	r2, #128	; 0x80
    2edc:	f843 2d0c 	str.w	r2, [r3, #-12]!
    2ee0:	e893 0007 	ldmia.w	r3, {r0, r1, r2}
    2ee4:	e884 0007 	stmia.w	r4, {r0, r1, r2}
    2ee8:	4620      	mov	r0, r4
    2eea:	b004      	add	sp, #16
    2eec:	bd70      	pop	{r4, r5, r6, pc}
    2eee:	4608      	mov	r0, r1
    2ef0:	a902      	add	r1, sp, #8
    2ef2:	f000 fb2f 	bl	3554 <isr_mbx_receive>
    2ef6:	2804      	cmp	r0, #4
    2ef8:	bf08      	it	eq
    2efa:	2310      	moveq	r3, #16
    2efc:	ad01      	add	r5, sp, #4
    2efe:	bf14      	ite	ne
    2f00:	9601      	strne	r6, [sp, #4]
    2f02:	9301      	streq	r3, [sp, #4]
    2f04:	e895 0007 	ldmia.w	r5, {r0, r1, r2}
    2f08:	e884 0007 	stmia.w	r4, {r0, r1, r2}
    2f0c:	e7dc      	b.n	2ec8 <osMessageGet+0x1c>
    2f0e:	0000      	.short	0x0000
    2f10:	00002da1 	.word	0x00002da1

00002f14 <osTimerThread>:
    2f14:	b500      	push	{lr}
    2f16:	4c0a      	ldr	r4, [pc, #40]	; (2f40 <osTimerThread+0x2c>)
    2f18:	b085      	sub	sp, #20
    2f1a:	a801      	add	r0, sp, #4
    2f1c:	6821      	ldr	r1, [r4, #0]
    2f1e:	f04f 32ff 	mov.w	r2, #4294967295	; 0xffffffff
    2f22:	f7ff ffc3 	bl	2eac <osMessageGet>
    2f26:	9801      	ldr	r0, [sp, #4]
    2f28:	2810      	cmp	r0, #16
    2f2a:	d1f6      	bne.n	2f1a <osTimerThread+0x6>
    2f2c:	9802      	ldr	r0, [sp, #8]
    2f2e:	f8df c014 	ldr.w	r12, [pc, #20]	; 2f44 <osTimerThread+0x30>
    2f32:	df00      	svc	0
    2f34:	4603      	mov	r3, r0
    2f36:	2800      	cmp	r0, #0
    2f38:	d0ef      	beq.n	2f1a <osTimerThread+0x6>
    2f3a:	4608      	mov	r0, r1
    2f3c:	4798      	blx	r3
    2f3e:	e7ec      	b.n	2f1a <osTimerThread+0x6>
    2f40:	100007f8 	.word	0x100007f8
    2f44:	00002b05 	.word	0x00002b05

00002f48 <svcMailCreate>:
    2f48:	b538      	push	{r3, r4, r5, lr}
    2f4a:	4604      	mov	r4, r0
    2f4c:	b1e0      	cbz	r0, 2f88 <svcMailCreate+0x40>
    2f4e:	6801      	ldr	r1, [r0, #0]
    2f50:	b1d1      	cbz	r1, 2f88 <svcMailCreate+0x40>
    2f52:	6842      	ldr	r2, [r0, #4]
    2f54:	b1c2      	cbz	r2, 2f88 <svcMailCreate+0x40>
    2f56:	6883      	ldr	r3, [r0, #8]
    2f58:	b1b3      	cbz	r3, 2f88 <svcMailCreate+0x40>
    2f5a:	6858      	ldr	r0, [r3, #4]
    2f5c:	681d      	ldr	r5, [r3, #0]
    2f5e:	b198      	cbz	r0, 2f88 <svcMailCreate+0x40>
    2f60:	b195      	cbz	r5, 2f88 <svcMailCreate+0x40>
    2f62:	782b      	ldrb	r3, [r5, #0]
    2f64:	b983      	cbnz	r3, 2f88 <svcMailCreate+0x40>
    2f66:	3203      	adds	r2, #3
    2f68:	f022 0203 	bic.w	r2, r2, #3
    2f6c:	fb01 f102 	mul.w	r1, r1, r2
    2f70:	310c      	adds	r1, #12
    2f72:	f000 fb89 	bl	3688 <_init_box>
    2f76:	6821      	ldr	r1, [r4, #0]
    2f78:	4628      	mov	r0, r5
    2f7a:	3104      	adds	r1, #4
    2f7c:	0089      	lsls	r1, r1, #2
    2f7e:	b289      	uxth	r1, r1
    2f80:	f000 fa28 	bl	33d4 <rt_mbx_init>
    2f84:	68a0      	ldr	r0, [r4, #8]
    2f86:	bd38      	pop	{r3, r4, r5, pc}
    2f88:	2080      	movs	r0, #128	; 0x80
    2f8a:	f001 f83f 	bl	400c <sysThreadError>
    2f8e:	2000      	movs	r0, #0
    2f90:	bd38      	pop	{r3, r4, r5, pc}
    2f92:	bf00      	nop

00002f94 <sysMailAlloc>:
    2f94:	b5f8      	push	{r3, r4, r5, r6, r7, lr}
    2f96:	460e      	mov	r6, r1
    2f98:	461f      	mov	r7, r3
    2f9a:	b348      	cbz	r0, 2ff0 <sysMailAlloc+0x5c>
    2f9c:	6844      	ldr	r4, [r0, #4]
    2f9e:	6805      	ldr	r5, [r0, #0]
    2fa0:	b334      	cbz	r4, 2ff0 <sysMailAlloc+0x5c>
    2fa2:	b32d      	cbz	r5, 2ff0 <sysMailAlloc+0x5c>
    2fa4:	b102      	cbz	r2, 2fa8 <sysMailAlloc+0x14>
    2fa6:	bb19      	cbnz	r1, 2ff0 <sysMailAlloc+0x5c>
    2fa8:	4620      	mov	r0, r4
    2faa:	f000 fb99 	bl	36e0 <rt_alloc_box>
    2fae:	b14f      	cbz	r7, 2fc4 <sysMailAlloc+0x30>
    2fb0:	b150      	cbz	r0, 2fc8 <sysMailAlloc+0x34>
    2fb2:	68a3      	ldr	r3, [r4, #8]
    2fb4:	b13b      	cbz	r3, 2fc6 <sysMailAlloc+0x32>
    2fb6:	4602      	mov	r2, r0
    2fb8:	2100      	movs	r1, #0
    2fba:	3b04      	subs	r3, #4
    2fbc:	f842 1b04 	str.w	r1, [r2], #4
    2fc0:	d1fb      	bne.n	2fba <sysMailAlloc+0x26>
    2fc2:	bdf8      	pop	{r3, r4, r5, r6, r7, pc}
    2fc4:	b100      	cbz	r0, 2fc8 <sysMailAlloc+0x34>
    2fc6:	bdf8      	pop	{r3, r4, r5, r6, r7, pc}
    2fc8:	b196      	cbz	r6, 2ff0 <sysMailAlloc+0x5c>
    2fca:	686b      	ldr	r3, [r5, #4]
    2fcc:	b193      	cbz	r3, 2ff4 <sysMailAlloc+0x60>
    2fce:	4b10      	ldr	r3, [pc, #64]	; (3010 <sysMailAlloc+0x7c>)
    2fd0:	4628      	mov	r0, r5
    2fd2:	6819      	ldr	r1, [r3, #0]
    2fd4:	f000 f8da 	bl	318c <rt_put_prio>
    2fd8:	1c73      	adds	r3, r6, #1
    2fda:	d016      	beq.n	300a <sysMailAlloc+0x76>
    2fdc:	4b0d      	ldr	r3, [pc, #52]	; (3014 <sysMailAlloc+0x80>)
    2fde:	429e      	cmp	r6, r3
    2fe0:	d810      	bhi.n	3004 <sysMailAlloc+0x70>
    2fe2:	4630      	mov	r0, r6
    2fe4:	f7ff fc78 	bl	28d8 <rt_ms2tick.part.0>
    2fe8:	b280      	uxth	r0, r0
    2fea:	2108      	movs	r1, #8
    2fec:	f000 fd92 	bl	3b14 <rt_block>
    2ff0:	2000      	movs	r0, #0
    2ff2:	bdf8      	pop	{r3, r4, r5, r6, r7, pc}
    2ff4:	4a06      	ldr	r2, [pc, #24]	; (3010 <sysMailAlloc+0x7c>)
    2ff6:	2103      	movs	r1, #3
    2ff8:	6812      	ldr	r2, [r2, #0]
    2ffa:	606a      	str	r2, [r5, #4]
    2ffc:	6053      	str	r3, [r2, #4]
    2ffe:	6095      	str	r5, [r2, #8]
    3000:	7069      	strb	r1, [r5, #1]
    3002:	e7e9      	b.n	2fd8 <sysMailAlloc+0x44>
    3004:	f64f 70fe 	movw	r0, #65534	; 0xfffe
    3008:	e7ef      	b.n	2fea <sysMailAlloc+0x56>
    300a:	f64f 70ff 	movw	r0, #65535	; 0xffff
    300e:	e7ec      	b.n	2fea <sysMailAlloc+0x56>
    3010:	100004dc 	.word	0x100004dc
    3014:	003d0900 	.word	0x003d0900

00003018 <sysMailFree>:
    3018:	b5f8      	push	{r3, r4, r5, r6, r7, lr}
    301a:	4616      	mov	r6, r2
    301c:	b150      	cbz	r0, 3034 <sysMailFree+0x1c>
    301e:	e890 0030 	ldmia.w	r0, {r4, r5}
    3022:	b13c      	cbz	r4, 3034 <sysMailFree+0x1c>
    3024:	b135      	cbz	r5, 3034 <sysMailFree+0x1c>
    3026:	4628      	mov	r0, r5
    3028:	f000 fb68 	bl	36fc <rt_free_box>
    302c:	4607      	mov	r7, r0
    302e:	b118      	cbz	r0, 3038 <sysMailFree+0x20>
    3030:	2086      	movs	r0, #134	; 0x86
    3032:	bdf8      	pop	{r3, r4, r5, r6, r7, pc}
    3034:	2080      	movs	r0, #128	; 0x80
    3036:	bdf8      	pop	{r3, r4, r5, r6, r7, pc}
    3038:	7863      	ldrb	r3, [r4, #1]
    303a:	2b03      	cmp	r3, #3
    303c:	d001      	beq.n	3042 <sysMailFree+0x2a>
    303e:	2000      	movs	r0, #0
    3040:	bdf8      	pop	{r3, r4, r5, r6, r7, pc}
    3042:	b9b6      	cbnz	r6, 3072 <sysMailFree+0x5a>
    3044:	4628      	mov	r0, r5
    3046:	f000 fb4b 	bl	36e0 <rt_alloc_box>
    304a:	4606      	mov	r6, r0
    304c:	2800      	cmp	r0, #0
    304e:	d0f6      	beq.n	303e <sysMailFree+0x26>
    3050:	4620      	mov	r0, r4
    3052:	f000 f8c5 	bl	31e0 <rt_get_first>
    3056:	6863      	ldr	r3, [r4, #4]
    3058:	4605      	mov	r5, r0
    305a:	b193      	cbz	r3, 3082 <sysMailFree+0x6a>
    305c:	4631      	mov	r1, r6
    305e:	4628      	mov	r0, r5
    3060:	f000 ffc8 	bl	3ff4 <rt_ret_val>
    3064:	4628      	mov	r0, r5
    3066:	f000 f97f 	bl	3368 <rt_rmv_dly>
    306a:	4628      	mov	r0, r5
    306c:	f000 fd30 	bl	3ad0 <rt_dispatch>
    3070:	e7e5      	b.n	303e <sysMailFree+0x26>
    3072:	4620      	mov	r0, r4
    3074:	4629      	mov	r1, r5
    3076:	f000 f98b 	bl	3390 <rt_psq_enq>
    307a:	f000 fc45 	bl	3908 <rt_psh_req>
    307e:	4638      	mov	r0, r7
    3080:	bdf8      	pop	{r3, r4, r5, r6, r7, pc}
    3082:	7063      	strb	r3, [r4, #1]
    3084:	e7ea      	b.n	305c <sysMailFree+0x44>
    3086:	bf00      	nop

00003088 <osMailCreate>:
    3088:	b510      	push	{r4, lr}
    308a:	f3ef 8405 	mrs	r4, IPSR
    308e:	b974      	cbnz	r4, 30ae <osMailCreate+0x26>
    3090:	f3ef 8414 	mrs	r4, CONTROL
    3094:	07e4      	lsls	r4, r4, #31
    3096:	d402      	bmi.n	309e <osMailCreate+0x16>
    3098:	4c06      	ldr	r4, [pc, #24]	; (30b4 <osMailCreate+0x2c>)
    309a:	7824      	ldrb	r4, [r4, #0]
    309c:	b11c      	cbz	r4, 30a6 <osMailCreate+0x1e>
    309e:	f8df c018 	ldr.w	r12, [pc, #24]	; 30b8 <osMailCreate+0x30>
    30a2:	df00      	svc	0
    30a4:	bd10      	pop	{r4, pc}
    30a6:	e8bd 4010 	ldmia.w	sp!, {r4, lr}
    30aa:	f7ff bf4d 	b.w	2f48 <svcMailCreate>
    30ae:	2000      	movs	r0, #0
    30b0:	bd10      	pop	{r4, pc}
    30b2:	bf00      	nop
    30b4:	100004a1 	.word	0x100004a1
    30b8:	00002f49 	.word	0x00002f49

000030bc <osMailAlloc>:
    30bc:	b500      	push	{lr}
    30be:	f3ef 8205 	mrs	r2, IPSR
    30c2:	b92a      	cbnz	r2, 30d0 <osMailAlloc+0x14>
    30c4:	4613      	mov	r3, r2
    30c6:	f8df c014 	ldr.w	r12, [pc, #20]	; 30dc <osMailAlloc+0x20>
    30ca:	df00      	svc	0
    30cc:	f85d fb04 	ldr.w	pc, [sp], #4
    30d0:	2201      	movs	r2, #1
    30d2:	2300      	movs	r3, #0
    30d4:	f85d eb04 	ldr.w	lr, [sp], #4
    30d8:	f7ff bf5c 	b.w	2f94 <sysMailAlloc>
    30dc:	00002f95 	.word	0x00002f95

000030e0 <osMailFree>:
    30e0:	b500      	push	{lr}
    30e2:	f3ef 8205 	mrs	r2, IPSR
    30e6:	b922      	cbnz	r2, 30f2 <osMailFree+0x12>
    30e8:	f8df c010 	ldr.w	r12, [pc, #16]	; 30fc <osMailFree+0x1c>
    30ec:	df00      	svc	0
    30ee:	f85d fb04 	ldr.w	pc, [sp], #4
    30f2:	2201      	movs	r2, #1
    30f4:	f85d eb04 	ldr.w	lr, [sp], #4
    30f8:	f7ff bf8e 	b.w	3018 <sysMailFree>
    30fc:	00003019 	.word	0x00003019

00003100 <osMailPut>:
    3100:	b130      	cbz	r0, 3110 <osMailPut+0x10>
    3102:	b119      	cbz	r1, 310c <osMailPut+0xc>
    3104:	6800      	ldr	r0, [r0, #0]
    3106:	2200      	movs	r2, #0
    3108:	f7ff beaa 	b.w	2e60 <osMessagePut>
    310c:	2086      	movs	r0, #134	; 0x86
    310e:	4770      	bx	lr
    3110:	2080      	movs	r0, #128	; 0x80
    3112:	4770      	bx	lr

00003114 <osMailGet>:
    3114:	b510      	push	{r4, lr}
    3116:	4604      	mov	r4, r0
    3118:	b149      	cbz	r1, 312e <osMailGet+0x1a>
    311a:	6809      	ldr	r1, [r1, #0]
    311c:	f7ff fec6 	bl	2eac <osMessageGet>
    3120:	6823      	ldr	r3, [r4, #0]
    3122:	4620      	mov	r0, r4
    3124:	2b10      	cmp	r3, #16
    3126:	bf08      	it	eq
    3128:	2320      	moveq	r3, #32
    312a:	6023      	str	r3, [r4, #0]
    312c:	bd10      	pop	{r4, pc}
    312e:	2380      	movs	r3, #128	; 0x80
    3130:	6003      	str	r3, [r0, #0]
    3132:	4620      	mov	r0, r4
    3134:	bd10      	pop	{r4, pc}
    3136:	bf00      	nop

00003138 <rt_evt_psh>:
    3138:	b510      	push	{r4, lr}
    313a:	8b02      	ldrh	r2, [r0, #24]
    313c:	7843      	ldrb	r3, [r0, #1]
    313e:	4311      	orrs	r1, r2
    3140:	2b06      	cmp	r3, #6
    3142:	4604      	mov	r4, r0
    3144:	8301      	strh	r1, [r0, #24]
    3146:	8b42      	ldrh	r2, [r0, #26]
    3148:	d019      	beq.n	317e <rt_evt_psh+0x46>
    314a:	2b05      	cmp	r3, #5
    314c:	d000      	beq.n	3150 <rt_evt_psh+0x18>
    314e:	bd10      	pop	{r4, pc}
    3150:	ea11 0302 	ands.w	r3, r1, r2
    3154:	d0fb      	beq.n	314e <rt_evt_psh+0x16>
    3156:	8343      	strh	r3, [r0, #26]
    3158:	ea21 0102 	bic.w	r1, r1, r2
    315c:	8321      	strh	r1, [r4, #24]
    315e:	4620      	mov	r0, r4
    3160:	f000 f902 	bl	3368 <rt_rmv_dly>
    3164:	2301      	movs	r3, #1
    3166:	4620      	mov	r0, r4
    3168:	7063      	strb	r3, [r4, #1]
    316a:	2108      	movs	r1, #8
    316c:	8b62      	ldrh	r2, [r4, #26]
    316e:	f000 ff45 	bl	3ffc <rt_ret_val2>
    3172:	4621      	mov	r1, r4
    3174:	4804      	ldr	r0, [pc, #16]	; (3188 <rt_evt_psh+0x50>)
    3176:	e8bd 4010 	ldmia.w	sp!, {r4, lr}
    317a:	f000 b807 	b.w	318c <rt_put_prio>
    317e:	ea01 0302 	and.w	r3, r1, r2
    3182:	4293      	cmp	r3, r2
    3184:	d0e8      	beq.n	3158 <rt_evt_psh+0x20>
    3186:	bd10      	pop	{r4, pc}
    3188:	100004a8 	.word	0x100004a8

0000318c <rt_put_prio>:
    318c:	b470      	push	{r4, r5, r6}
    318e:	7803      	ldrb	r3, [r0, #0]
    3190:	6842      	ldr	r2, [r0, #4]
    3192:	3b01      	subs	r3, #1
    3194:	2b02      	cmp	r3, #2
    3196:	bf8c      	ite	hi
    3198:	2600      	movhi	r6, #0
    319a:	2601      	movls	r6, #1
    319c:	788c      	ldrb	r4, [r1, #2]
    319e:	b1e2      	cbz	r2, 31da <rt_put_prio+0x4e>
    31a0:	7895      	ldrb	r5, [r2, #2]
    31a2:	42a5      	cmp	r5, r4
    31a4:	d204      	bcs.n	31b0 <rt_put_prio+0x24>
    31a6:	e00e      	b.n	31c6 <rt_put_prio+0x3a>
    31a8:	7898      	ldrb	r0, [r3, #2]
    31aa:	42a0      	cmp	r0, r4
    31ac:	d30d      	bcc.n	31ca <rt_put_prio+0x3e>
    31ae:	461a      	mov	r2, r3
    31b0:	6853      	ldr	r3, [r2, #4]
    31b2:	2b00      	cmp	r3, #0
    31b4:	d1f8      	bne.n	31a8 <rt_put_prio+0x1c>
    31b6:	2300      	movs	r3, #0
    31b8:	604b      	str	r3, [r1, #4]
    31ba:	6051      	str	r1, [r2, #4]
    31bc:	b956      	cbnz	r6, 31d4 <rt_put_prio+0x48>
    31be:	2300      	movs	r3, #0
    31c0:	608b      	str	r3, [r1, #8]
    31c2:	bc70      	pop	{r4, r5, r6}
    31c4:	4770      	bx	lr
    31c6:	4613      	mov	r3, r2
    31c8:	4602      	mov	r2, r0
    31ca:	604b      	str	r3, [r1, #4]
    31cc:	6051      	str	r1, [r2, #4]
    31ce:	2e00      	cmp	r6, #0
    31d0:	d0f5      	beq.n	31be <rt_put_prio+0x32>
    31d2:	6099      	str	r1, [r3, #8]
    31d4:	608a      	str	r2, [r1, #8]
    31d6:	bc70      	pop	{r4, r5, r6}
    31d8:	4770      	bx	lr
    31da:	4602      	mov	r2, r0
    31dc:	e7eb      	b.n	31b6 <rt_put_prio+0x2a>
    31de:	bf00      	nop

000031e0 <rt_get_first>:
    31e0:	6843      	ldr	r3, [r0, #4]
    31e2:	7801      	ldrb	r1, [r0, #0]
    31e4:	685a      	ldr	r2, [r3, #4]
    31e6:	3901      	subs	r1, #1
    31e8:	2902      	cmp	r1, #2
    31ea:	6042      	str	r2, [r0, #4]
    31ec:	d807      	bhi.n	31fe <rt_get_first+0x1e>
    31ee:	b112      	cbz	r2, 31f6 <rt_get_first+0x16>
    31f0:	2100      	movs	r1, #0
    31f2:	6090      	str	r0, [r2, #8]
    31f4:	6059      	str	r1, [r3, #4]
    31f6:	2200      	movs	r2, #0
    31f8:	609a      	str	r2, [r3, #8]
    31fa:	4618      	mov	r0, r3
    31fc:	4770      	bx	lr
    31fe:	2200      	movs	r2, #0
    3200:	605a      	str	r2, [r3, #4]
    3202:	4618      	mov	r0, r3
    3204:	4770      	bx	lr
    3206:	bf00      	nop

00003208 <rt_put_rdy_first>:
    3208:	4b03      	ldr	r3, [pc, #12]	; (3218 <rt_put_rdy_first+0x10>)
    320a:	2100      	movs	r1, #0
    320c:	685a      	ldr	r2, [r3, #4]
    320e:	6081      	str	r1, [r0, #8]
    3210:	6042      	str	r2, [r0, #4]
    3212:	6058      	str	r0, [r3, #4]
    3214:	4770      	bx	lr
    3216:	bf00      	nop
    3218:	100004a8 	.word	0x100004a8

0000321c <rt_put_dly>:
    321c:	b430      	push	{r4, r5}
    321e:	4c16      	ldr	r4, [pc, #88]	; (3278 <rt_put_dly+0x5c>)
    3220:	68e3      	ldr	r3, [r4, #12]
    3222:	b31b      	cbz	r3, 326c <rt_put_dly+0x50>
    3224:	8aa2      	ldrh	r2, [r4, #20]
    3226:	4291      	cmp	r1, r2
    3228:	d803      	bhi.n	3232 <rt_put_dly+0x16>
    322a:	e022      	b.n	3272 <rt_put_dly+0x56>
    322c:	68dc      	ldr	r4, [r3, #12]
    322e:	b19c      	cbz	r4, 3258 <rt_put_dly+0x3c>
    3230:	4623      	mov	r3, r4
    3232:	8a9c      	ldrh	r4, [r3, #20]
    3234:	4422      	add	r2, r4
    3236:	4291      	cmp	r1, r2
    3238:	d8f8      	bhi.n	322c <rt_put_dly+0x10>
    323a:	68dd      	ldr	r5, [r3, #12]
    323c:	60c5      	str	r5, [r0, #12]
    323e:	60d8      	str	r0, [r3, #12]
    3240:	68c4      	ldr	r4, [r0, #12]
    3242:	6103      	str	r3, [r0, #16]
    3244:	b104      	cbz	r4, 3248 <rt_put_dly+0x2c>
    3246:	6120      	str	r0, [r4, #16]
    3248:	1a52      	subs	r2, r2, r1
    324a:	b292      	uxth	r2, r2
    324c:	8282      	strh	r2, [r0, #20]
    324e:	8a99      	ldrh	r1, [r3, #20]
    3250:	bc30      	pop	{r4, r5}
    3252:	1a8a      	subs	r2, r1, r2
    3254:	829a      	strh	r2, [r3, #20]
    3256:	4770      	bx	lr
    3258:	b292      	uxth	r2, r2
    325a:	2400      	movs	r4, #0
    325c:	1a89      	subs	r1, r1, r2
    325e:	60c4      	str	r4, [r0, #12]
    3260:	60d8      	str	r0, [r3, #12]
    3262:	6103      	str	r3, [r0, #16]
    3264:	8299      	strh	r1, [r3, #20]
    3266:	8284      	strh	r4, [r0, #20]
    3268:	bc30      	pop	{r4, r5}
    326a:	4770      	bx	lr
    326c:	461a      	mov	r2, r3
    326e:	4623      	mov	r3, r4
    3270:	e7f3      	b.n	325a <rt_put_dly+0x3e>
    3272:	461d      	mov	r5, r3
    3274:	4623      	mov	r3, r4
    3276:	e7e1      	b.n	323c <rt_put_dly+0x20>
    3278:	100004c0 	.word	0x100004c0

0000327c <rt_dec_dly>:
    327c:	b5f8      	push	{r3, r4, r5, r6, r7, lr}
    327e:	4d1d      	ldr	r5, [pc, #116]	; (32f4 <rt_dec_dly+0x78>)
    3280:	68ec      	ldr	r4, [r5, #12]
    3282:	2c00      	cmp	r4, #0
    3284:	d034      	beq.n	32f0 <rt_dec_dly+0x74>
    3286:	8aab      	ldrh	r3, [r5, #20]
    3288:	3b01      	subs	r3, #1
    328a:	b29b      	uxth	r3, r3
    328c:	82ab      	strh	r3, [r5, #20]
    328e:	2b00      	cmp	r3, #0
    3290:	d12e      	bne.n	32f0 <rt_dec_dly+0x74>
    3292:	4f19      	ldr	r7, [pc, #100]	; (32f8 <rt_dec_dly+0x7c>)
    3294:	462e      	mov	r6, r5
    3296:	e008      	b.n	32aa <rt_dec_dly+0x2e>
    3298:	68e3      	ldr	r3, [r4, #12]
    329a:	7060      	strb	r0, [r4, #1]
    329c:	60eb      	str	r3, [r5, #12]
    329e:	b333      	cbz	r3, 32ee <rt_dec_dly+0x72>
    32a0:	611e      	str	r6, [r3, #16]
    32a2:	60e1      	str	r1, [r4, #12]
    32a4:	6121      	str	r1, [r4, #16]
    32a6:	bb1a      	cbnz	r2, 32f0 <rt_dec_dly+0x74>
    32a8:	461c      	mov	r4, r3
    32aa:	68a3      	ldr	r3, [r4, #8]
    32ac:	4621      	mov	r1, r4
    32ae:	4813      	ldr	r0, [pc, #76]	; (32fc <rt_dec_dly+0x80>)
    32b0:	f04f 0e00 	mov.w	lr, #0
    32b4:	b143      	cbz	r3, 32c8 <rt_dec_dly+0x4c>
    32b6:	6862      	ldr	r2, [r4, #4]
    32b8:	605a      	str	r2, [r3, #4]
    32ba:	6862      	ldr	r2, [r4, #4]
    32bc:	b112      	cbz	r2, 32c4 <rt_dec_dly+0x48>
    32be:	6093      	str	r3, [r2, #8]
    32c0:	f8c4 e004 	str.w	lr, [r4, #4]
    32c4:	f8c4 e008 	str.w	lr, [r4, #8]
    32c8:	f7ff ff60 	bl	318c <rt_put_prio>
    32cc:	8aa2      	ldrh	r2, [r4, #20]
    32ce:	2001      	movs	r0, #1
    32d0:	82aa      	strh	r2, [r5, #20]
    32d2:	7863      	ldrb	r3, [r4, #1]
    32d4:	2100      	movs	r1, #0
    32d6:	2b04      	cmp	r3, #4
    32d8:	d1de      	bne.n	3298 <rt_dec_dly+0x1c>
    32da:	683b      	ldr	r3, [r7, #0]
    32dc:	f8b4 c016 	ldrh.w	r12, [r4, #22]
    32e0:	7060      	strb	r0, [r4, #1]
    32e2:	4463      	add	r3, r12
    32e4:	82a3      	strh	r3, [r4, #20]
    32e6:	68e3      	ldr	r3, [r4, #12]
    32e8:	60eb      	str	r3, [r5, #12]
    32ea:	2b00      	cmp	r3, #0
    32ec:	d1d8      	bne.n	32a0 <rt_dec_dly+0x24>
    32ee:	6123      	str	r3, [r4, #16]
    32f0:	bdf8      	pop	{r3, r4, r5, r6, r7, pc}
    32f2:	bf00      	nop
    32f4:	100004c0 	.word	0x100004c0
    32f8:	10000514 	.word	0x10000514
    32fc:	100004a8 	.word	0x100004a8

00003300 <rt_rmv_list>:
    3300:	6883      	ldr	r3, [r0, #8]
    3302:	b133      	cbz	r3, 3312 <rt_rmv_list+0x12>
    3304:	6842      	ldr	r2, [r0, #4]
    3306:	605a      	str	r2, [r3, #4]
    3308:	6842      	ldr	r2, [r0, #4]
    330a:	b10a      	cbz	r2, 3310 <rt_rmv_list+0x10>
    330c:	6093      	str	r3, [r2, #8]
    330e:	4770      	bx	lr
    3310:	4770      	bx	lr
    3312:	4a07      	ldr	r2, [pc, #28]	; (3330 <rt_rmv_list+0x30>)
    3314:	6853      	ldr	r3, [r2, #4]
    3316:	4283      	cmp	r3, r0
    3318:	d005      	beq.n	3326 <rt_rmv_list+0x26>
    331a:	b143      	cbz	r3, 332e <rt_rmv_list+0x2e>
    331c:	685a      	ldr	r2, [r3, #4]
    331e:	4282      	cmp	r2, r0
    3320:	d002      	beq.n	3328 <rt_rmv_list+0x28>
    3322:	4613      	mov	r3, r2
    3324:	e7f9      	b.n	331a <rt_rmv_list+0x1a>
    3326:	4613      	mov	r3, r2
    3328:	6842      	ldr	r2, [r0, #4]
    332a:	605a      	str	r2, [r3, #4]
    332c:	4770      	bx	lr
    332e:	4770      	bx	lr
    3330:	100004a8 	.word	0x100004a8

00003334 <rt_resort_prio>:
    3334:	b538      	push	{r3, r4, r5, lr}
    3336:	6884      	ldr	r4, [r0, #8]
    3338:	4605      	mov	r5, r0
    333a:	b90c      	cbnz	r4, 3340 <rt_resort_prio+0xc>
    333c:	e00c      	b.n	3358 <rt_resort_prio+0x24>
    333e:	68a4      	ldr	r4, [r4, #8]
    3340:	7823      	ldrb	r3, [r4, #0]
    3342:	2b00      	cmp	r3, #0
    3344:	d0fb      	beq.n	333e <rt_resort_prio+0xa>
    3346:	4628      	mov	r0, r5
    3348:	f7ff ffda 	bl	3300 <rt_rmv_list>
    334c:	4620      	mov	r0, r4
    334e:	4629      	mov	r1, r5
    3350:	e8bd 4038 	ldmia.w	sp!, {r3, r4, r5, lr}
    3354:	f7ff bf1a 	b.w	318c <rt_put_prio>
    3358:	7843      	ldrb	r3, [r0, #1]
    335a:	2b01      	cmp	r3, #1
    335c:	d000      	beq.n	3360 <rt_resort_prio+0x2c>
    335e:	bd38      	pop	{r3, r4, r5, pc}
    3360:	4c00      	ldr	r4, [pc, #0]	; (3364 <rt_resort_prio+0x30>)
    3362:	e7f0      	b.n	3346 <rt_resort_prio+0x12>
    3364:	100004a8 	.word	0x100004a8

00003368 <rt_rmv_dly>:
    3368:	6903      	ldr	r3, [r0, #16]
    336a:	b430      	push	{r4, r5}
    336c:	b163      	cbz	r3, 3388 <rt_rmv_dly+0x20>
    336e:	68c2      	ldr	r2, [r0, #12]
    3370:	60da      	str	r2, [r3, #12]
    3372:	68c2      	ldr	r2, [r0, #12]
    3374:	b152      	cbz	r2, 338c <rt_rmv_dly+0x24>
    3376:	8a9c      	ldrh	r4, [r3, #20]
    3378:	8a85      	ldrh	r5, [r0, #20]
    337a:	2100      	movs	r1, #0
    337c:	442c      	add	r4, r5
    337e:	829c      	strh	r4, [r3, #20]
    3380:	6113      	str	r3, [r2, #16]
    3382:	60c1      	str	r1, [r0, #12]
    3384:	2300      	movs	r3, #0
    3386:	6103      	str	r3, [r0, #16]
    3388:	bc30      	pop	{r4, r5}
    338a:	4770      	bx	lr
    338c:	829a      	strh	r2, [r3, #20]
    338e:	e7f9      	b.n	3384 <rt_rmv_dly+0x1c>

00003390 <rt_psq_enq>:
    3390:	b430      	push	{r4, r5}
    3392:	4b0f      	ldr	r3, [pc, #60]	; (33d0 <rt_psq_enq+0x40>)
    3394:	78dc      	ldrb	r4, [r3, #3]
    3396:	f3ef 8310 	mrs	r3, PRIMASK
    339a:	b672      	cpsid	i
    339c:	4a0c      	ldr	r2, [pc, #48]	; (33d0 <rt_psq_enq+0x40>)
    339e:	7893      	ldrb	r3, [r2, #2]
    33a0:	429c      	cmp	r4, r3
    33a2:	d908      	bls.n	33b6 <rt_psq_enq+0x26>
    33a4:	1c5d      	adds	r5, r3, #1
    33a6:	7813      	ldrb	r3, [r2, #0]
    33a8:	7095      	strb	r5, [r2, #2]
    33aa:	1c5d      	adds	r5, r3, #1
    33ac:	42ac      	cmp	r4, r5
    33ae:	bf14      	ite	ne
    33b0:	b2ed      	uxtbne	r5, r5
    33b2:	2500      	moveq	r5, #0
    33b4:	7015      	strb	r5, [r2, #0]
    33b6:	b662      	cpsie	i
    33b8:	429c      	cmp	r4, r3
    33ba:	d905      	bls.n	33c8 <rt_psq_enq+0x38>
    33bc:	bc30      	pop	{r4, r5}
    33be:	eb02 03c3 	add.w	r3, r2, r3, lsl #3
    33c2:	6058      	str	r0, [r3, #4]
    33c4:	6099      	str	r1, [r3, #8]
    33c6:	4770      	bx	lr
    33c8:	2002      	movs	r0, #2
    33ca:	bc30      	pop	{r4, r5}
    33cc:	f000 be1c 	b.w	4008 <os_error>
    33d0:	10000774 	.word	0x10000774

000033d4 <rt_mbx_init>:
    33d4:	3910      	subs	r1, #16
    33d6:	2300      	movs	r3, #0
    33d8:	0889      	lsrs	r1, r1, #2
    33da:	2201      	movs	r2, #1
    33dc:	81c1      	strh	r1, [r0, #14]
    33de:	7002      	strb	r2, [r0, #0]
    33e0:	7043      	strb	r3, [r0, #1]
    33e2:	7083      	strb	r3, [r0, #2]
    33e4:	6043      	str	r3, [r0, #4]
    33e6:	8103      	strh	r3, [r0, #8]
    33e8:	8143      	strh	r3, [r0, #10]
    33ea:	8183      	strh	r3, [r0, #12]
    33ec:	4770      	bx	lr
    33ee:	bf00      	nop

000033f0 <rt_mbx_send>:
    33f0:	b5f0      	push	{r4, r5, r6, r7, lr}
    33f2:	6846      	ldr	r6, [r0, #4]
    33f4:	b083      	sub	sp, #12
    33f6:	4603      	mov	r3, r0
    33f8:	460f      	mov	r7, r1
    33fa:	b116      	cbz	r6, 3402 <rt_mbx_send+0x12>
    33fc:	7841      	ldrb	r1, [r0, #1]
    33fe:	2901      	cmp	r1, #1
    3400:	d02c      	beq.n	345c <rt_mbx_send+0x6c>
    3402:	899d      	ldrh	r5, [r3, #12]
    3404:	89dc      	ldrh	r4, [r3, #14]
    3406:	42a5      	cmp	r5, r4
    3408:	d013      	beq.n	3432 <rt_mbx_send+0x42>
    340a:	8918      	ldrh	r0, [r3, #8]
    340c:	1d02      	adds	r2, r0, #4
    340e:	f843 7022 	str.w	r7, [r3, r2, lsl #2]
    3412:	f3ef 8210 	mrs	r2, PRIMASK
    3416:	b672      	cpsid	i
    3418:	3501      	adds	r5, #1
    341a:	819d      	strh	r5, [r3, #12]
    341c:	b662      	cpsie	i
    341e:	3001      	adds	r0, #1
    3420:	b280      	uxth	r0, r0
    3422:	4284      	cmp	r4, r0
    3424:	bf0b      	itete	eq
    3426:	2000      	moveq	r0, #0
    3428:	8118      	strhne	r0, [r3, #8]
    342a:	8118      	strheq	r0, [r3, #8]
    342c:	2000      	movne	r0, #0
    342e:	b003      	add	sp, #12
    3430:	bdf0      	pop	{r4, r5, r6, r7, pc}
    3432:	b182      	cbz	r2, 3456 <rt_mbx_send+0x66>
    3434:	b30e      	cbz	r6, 347a <rt_mbx_send+0x8a>
    3436:	4c15      	ldr	r4, [pc, #84]	; (348c <rt_mbx_send+0x9c>)
    3438:	4618      	mov	r0, r3
    343a:	6821      	ldr	r1, [r4, #0]
    343c:	9201      	str	r2, [sp, #4]
    343e:	f7ff fea5 	bl	318c <rt_put_prio>
    3442:	6821      	ldr	r1, [r4, #0]
    3444:	9a01      	ldr	r2, [sp, #4]
    3446:	61cf      	str	r7, [r1, #28]
    3448:	4610      	mov	r0, r2
    344a:	2108      	movs	r1, #8
    344c:	f000 fb62 	bl	3b14 <rt_block>
    3450:	2001      	movs	r0, #1
    3452:	b003      	add	sp, #12
    3454:	bdf0      	pop	{r4, r5, r6, r7, pc}
    3456:	2001      	movs	r0, #1
    3458:	b003      	add	sp, #12
    345a:	bdf0      	pop	{r4, r5, r6, r7, pc}
    345c:	f7ff fec0 	bl	31e0 <rt_get_first>
    3460:	463a      	mov	r2, r7
    3462:	4604      	mov	r4, r0
    3464:	2110      	movs	r1, #16
    3466:	f000 fdc9 	bl	3ffc <rt_ret_val2>
    346a:	4620      	mov	r0, r4
    346c:	f7ff ff7c 	bl	3368 <rt_rmv_dly>
    3470:	4620      	mov	r0, r4
    3472:	f000 fb2d 	bl	3ad0 <rt_dispatch>
    3476:	2000      	movs	r0, #0
    3478:	e7d9      	b.n	342e <rt_mbx_send+0x3e>
    347a:	4904      	ldr	r1, [pc, #16]	; (348c <rt_mbx_send+0x9c>)
    347c:	2002      	movs	r0, #2
    347e:	6809      	ldr	r1, [r1, #0]
    3480:	6059      	str	r1, [r3, #4]
    3482:	604e      	str	r6, [r1, #4]
    3484:	608b      	str	r3, [r1, #8]
    3486:	7058      	strb	r0, [r3, #1]
    3488:	e7dd      	b.n	3446 <rt_mbx_send+0x56>
    348a:	bf00      	nop
    348c:	100004dc 	.word	0x100004dc

00003490 <rt_mbx_wait>:
    3490:	b538      	push	{r3, r4, r5, lr}
    3492:	8983      	ldrh	r3, [r0, #12]
    3494:	4604      	mov	r4, r0
    3496:	4615      	mov	r5, r2
    3498:	b1cb      	cbz	r3, 34ce <rt_mbx_wait+0x3e>
    349a:	8942      	ldrh	r2, [r0, #10]
    349c:	89c5      	ldrh	r5, [r0, #14]
    349e:	1d10      	adds	r0, r2, #4
    34a0:	3201      	adds	r2, #1
    34a2:	b292      	uxth	r2, r2
    34a4:	f854 0020 	ldr.w	r0, [r4, r0, lsl #2]
    34a8:	4295      	cmp	r5, r2
    34aa:	6008      	str	r0, [r1, #0]
    34ac:	8162      	strh	r2, [r4, #10]
    34ae:	bf04      	itt	eq
    34b0:	2200      	moveq	r2, #0
    34b2:	8162      	strheq	r2, [r4, #10]
    34b4:	6862      	ldr	r2, [r4, #4]
    34b6:	b112      	cbz	r2, 34be <rt_mbx_wait+0x2e>
    34b8:	7862      	ldrb	r2, [r4, #1]
    34ba:	2a02      	cmp	r2, #2
    34bc:	d01e      	beq.n	34fc <rt_mbx_wait+0x6c>
    34be:	f3ef 8210 	mrs	r2, PRIMASK
    34c2:	b672      	cpsid	i
    34c4:	3b01      	subs	r3, #1
    34c6:	81a3      	strh	r3, [r4, #12]
    34c8:	b662      	cpsie	i
    34ca:	2000      	movs	r0, #0
    34cc:	bd38      	pop	{r3, r4, r5, pc}
    34ce:	b15a      	cbz	r2, 34e8 <rt_mbx_wait+0x58>
    34d0:	6843      	ldr	r3, [r0, #4]
    34d2:	b15b      	cbz	r3, 34ec <rt_mbx_wait+0x5c>
    34d4:	4b18      	ldr	r3, [pc, #96]	; (3538 <rt_mbx_wait+0xa8>)
    34d6:	6819      	ldr	r1, [r3, #0]
    34d8:	f7ff fe58 	bl	318c <rt_put_prio>
    34dc:	4628      	mov	r0, r5
    34de:	2108      	movs	r1, #8
    34e0:	f000 fb18 	bl	3b14 <rt_block>
    34e4:	2001      	movs	r0, #1
    34e6:	bd38      	pop	{r3, r4, r5, pc}
    34e8:	2001      	movs	r0, #1
    34ea:	bd38      	pop	{r3, r4, r5, pc}
    34ec:	4a12      	ldr	r2, [pc, #72]	; (3538 <rt_mbx_wait+0xa8>)
    34ee:	2101      	movs	r1, #1
    34f0:	6812      	ldr	r2, [r2, #0]
    34f2:	6042      	str	r2, [r0, #4]
    34f4:	6053      	str	r3, [r2, #4]
    34f6:	6090      	str	r0, [r2, #8]
    34f8:	7041      	strb	r1, [r0, #1]
    34fa:	e7ef      	b.n	34dc <rt_mbx_wait+0x4c>
    34fc:	4620      	mov	r0, r4
    34fe:	f7ff fe6f 	bl	31e0 <rt_get_first>
    3502:	2100      	movs	r1, #0
    3504:	4605      	mov	r5, r0
    3506:	f000 fd75 	bl	3ff4 <rt_ret_val>
    350a:	8922      	ldrh	r2, [r4, #8]
    350c:	89e0      	ldrh	r0, [r4, #14]
    350e:	1c53      	adds	r3, r2, #1
    3510:	b29b      	uxth	r3, r3
    3512:	69e9      	ldr	r1, [r5, #28]
    3514:	4298      	cmp	r0, r3
    3516:	f102 0204 	add.w	r2, r2, #4
    351a:	f844 1022 	str.w	r1, [r4, r2, lsl #2]
    351e:	8123      	strh	r3, [r4, #8]
    3520:	bf04      	itt	eq
    3522:	2300      	moveq	r3, #0
    3524:	8123      	strheq	r3, [r4, #8]
    3526:	4628      	mov	r0, r5
    3528:	f7ff ff1e 	bl	3368 <rt_rmv_dly>
    352c:	4628      	mov	r0, r5
    352e:	f000 facf 	bl	3ad0 <rt_dispatch>
    3532:	2000      	movs	r0, #0
    3534:	bd38      	pop	{r3, r4, r5, pc}
    3536:	bf00      	nop
    3538:	100004dc 	.word	0x100004dc

0000353c <rt_mbx_check>:
    353c:	89c2      	ldrh	r2, [r0, #14]
    353e:	8980      	ldrh	r0, [r0, #12]
    3540:	1a10      	subs	r0, r2, r0
    3542:	4770      	bx	lr

00003544 <isr_mbx_send>:
    3544:	b508      	push	{r3, lr}
    3546:	f7ff ff23 	bl	3390 <rt_psq_enq>
    354a:	e8bd 4008 	ldmia.w	sp!, {r3, lr}
    354e:	f000 b9db 	b.w	3908 <rt_psh_req>
    3552:	bf00      	nop

00003554 <isr_mbx_receive>:
    3554:	b538      	push	{r3, r4, r5, lr}
    3556:	8983      	ldrh	r3, [r0, #12]
    3558:	4604      	mov	r4, r0
    355a:	b1ab      	cbz	r3, 3588 <isr_mbx_receive+0x34>
    355c:	8942      	ldrh	r2, [r0, #10]
    355e:	1d15      	adds	r5, r2, #4
    3560:	f850 5025 	ldr.w	r5, [r0, r5, lsl #2]
    3564:	600d      	str	r5, [r1, #0]
    3566:	7841      	ldrb	r1, [r0, #1]
    3568:	2902      	cmp	r1, #2
    356a:	d013      	beq.n	3594 <isr_mbx_receive+0x40>
    356c:	f3ef 8110 	mrs	r1, PRIMASK
    3570:	b672      	cpsid	i
    3572:	3b01      	subs	r3, #1
    3574:	81a3      	strh	r3, [r4, #12]
    3576:	b662      	cpsie	i
    3578:	3201      	adds	r2, #1
    357a:	89e3      	ldrh	r3, [r4, #14]
    357c:	b292      	uxth	r2, r2
    357e:	4293      	cmp	r3, r2
    3580:	8162      	strh	r2, [r4, #10]
    3582:	d003      	beq.n	358c <isr_mbx_receive+0x38>
    3584:	2004      	movs	r0, #4
    3586:	bd38      	pop	{r3, r4, r5, pc}
    3588:	4618      	mov	r0, r3
    358a:	bd38      	pop	{r3, r4, r5, pc}
    358c:	2300      	movs	r3, #0
    358e:	8163      	strh	r3, [r4, #10]
    3590:	2004      	movs	r0, #4
    3592:	bd38      	pop	{r3, r4, r5, pc}
    3594:	2100      	movs	r1, #0
    3596:	f7ff fefb 	bl	3390 <rt_psq_enq>
    359a:	f000 f9b5 	bl	3908 <rt_psh_req>
    359e:	89a3      	ldrh	r3, [r4, #12]
    35a0:	8962      	ldrh	r2, [r4, #10]
    35a2:	e7e3      	b.n	356c <isr_mbx_receive+0x18>

000035a4 <rt_mbx_psh>:
    35a4:	6843      	ldr	r3, [r0, #4]
    35a6:	b570      	push	{r4, r5, r6, lr}
    35a8:	4604      	mov	r4, r0
    35aa:	460e      	mov	r6, r1
    35ac:	2b00      	cmp	r3, #0
    35ae:	d04d      	beq.n	364c <rt_mbx_psh+0xa8>
    35b0:	7845      	ldrb	r5, [r0, #1]
    35b2:	2d02      	cmp	r5, #2
    35b4:	d025      	beq.n	3602 <rt_mbx_psh+0x5e>
    35b6:	2d03      	cmp	r5, #3
    35b8:	d002      	beq.n	35c0 <rt_mbx_psh+0x1c>
    35ba:	2d01      	cmp	r5, #1
    35bc:	d010      	beq.n	35e0 <rt_mbx_psh+0x3c>
    35be:	bd70      	pop	{r4, r5, r6, pc}
    35c0:	4608      	mov	r0, r1
    35c2:	f000 f88d 	bl	36e0 <rt_alloc_box>
    35c6:	4605      	mov	r5, r0
    35c8:	2800      	cmp	r0, #0
    35ca:	d0f8      	beq.n	35be <rt_mbx_psh+0x1a>
    35cc:	4620      	mov	r0, r4
    35ce:	f7ff fe07 	bl	31e0 <rt_get_first>
    35d2:	4629      	mov	r1, r5
    35d4:	4604      	mov	r4, r0
    35d6:	f000 fd0d 	bl	3ff4 <rt_ret_val>
    35da:	2301      	movs	r3, #1
    35dc:	7063      	strb	r3, [r4, #1]
    35de:	e007      	b.n	35f0 <rt_mbx_psh+0x4c>
    35e0:	f7ff fdfe 	bl	31e0 <rt_get_first>
    35e4:	4632      	mov	r2, r6
    35e6:	4604      	mov	r4, r0
    35e8:	2110      	movs	r1, #16
    35ea:	f000 fd07 	bl	3ffc <rt_ret_val2>
    35ee:	7065      	strb	r5, [r4, #1]
    35f0:	4620      	mov	r0, r4
    35f2:	f7ff feb9 	bl	3368 <rt_rmv_dly>
    35f6:	4621      	mov	r1, r4
    35f8:	4822      	ldr	r0, [pc, #136]	; (3684 <rt_mbx_psh+0xe0>)
    35fa:	e8bd 4070 	ldmia.w	sp!, {r4, r5, r6, lr}
    35fe:	f7ff bdc5 	b.w	318c <rt_put_prio>
    3602:	f7ff fded 	bl	31e0 <rt_get_first>
    3606:	2100      	movs	r1, #0
    3608:	4605      	mov	r5, r0
    360a:	f000 fcf3 	bl	3ff4 <rt_ret_val>
    360e:	8923      	ldrh	r3, [r4, #8]
    3610:	69ea      	ldr	r2, [r5, #28]
    3612:	1d19      	adds	r1, r3, #4
    3614:	f844 2021 	str.w	r2, [r4, r1, lsl #2]
    3618:	f3ef 8210 	mrs	r2, PRIMASK
    361c:	b672      	cpsid	i
    361e:	89a2      	ldrh	r2, [r4, #12]
    3620:	3201      	adds	r2, #1
    3622:	81a2      	strh	r2, [r4, #12]
    3624:	b662      	cpsie	i
    3626:	89e2      	ldrh	r2, [r4, #14]
    3628:	3301      	adds	r3, #1
    362a:	b29b      	uxth	r3, r3
    362c:	429a      	cmp	r2, r3
    362e:	8123      	strh	r3, [r4, #8]
    3630:	bf04      	itt	eq
    3632:	2300      	moveq	r3, #0
    3634:	8123      	strheq	r3, [r4, #8]
    3636:	2301      	movs	r3, #1
    3638:	4628      	mov	r0, r5
    363a:	706b      	strb	r3, [r5, #1]
    363c:	f7ff fe94 	bl	3368 <rt_rmv_dly>
    3640:	4629      	mov	r1, r5
    3642:	4810      	ldr	r0, [pc, #64]	; (3684 <rt_mbx_psh+0xe0>)
    3644:	e8bd 4070 	ldmia.w	sp!, {r4, r5, r6, lr}
    3648:	f7ff bda0 	b.w	318c <rt_put_prio>
    364c:	8982      	ldrh	r2, [r0, #12]
    364e:	89c3      	ldrh	r3, [r0, #14]
    3650:	429a      	cmp	r2, r3
    3652:	d211      	bcs.n	3678 <rt_mbx_psh+0xd4>
    3654:	8901      	ldrh	r1, [r0, #8]
    3656:	1d08      	adds	r0, r1, #4
    3658:	f844 6020 	str.w	r6, [r4, r0, lsl #2]
    365c:	f3ef 8010 	mrs	r0, PRIMASK
    3660:	b672      	cpsid	i
    3662:	3201      	adds	r2, #1
    3664:	81a2      	strh	r2, [r4, #12]
    3666:	b662      	cpsie	i
    3668:	3101      	adds	r1, #1
    366a:	b289      	uxth	r1, r1
    366c:	428b      	cmp	r3, r1
    366e:	bf0a      	itet	eq
    3670:	2300      	moveq	r3, #0
    3672:	8121      	strhne	r1, [r4, #8]
    3674:	8123      	strheq	r3, [r4, #8]
    3676:	bd70      	pop	{r4, r5, r6, pc}
    3678:	2003      	movs	r0, #3
    367a:	e8bd 4070 	ldmia.w	sp!, {r4, r5, r6, lr}
    367e:	f000 bcc3 	b.w	4008 <os_error>
    3682:	bf00      	nop
    3684:	100004a8 	.word	0x100004a8

00003688 <_init_box>:
    3688:	2a00      	cmp	r2, #0
    368a:	b470      	push	{r4, r5, r6}
    368c:	db1e      	blt.n	36cc <_init_box+0x44>
    368e:	1cd5      	adds	r5, r2, #3
    3690:	f025 0503 	bic.w	r5, r5, #3
    3694:	240c      	movs	r4, #12
    3696:	b1b5      	cbz	r5, 36c6 <_init_box+0x3e>
    3698:	1963      	adds	r3, r4, r5
    369a:	428b      	cmp	r3, r1
    369c:	d813      	bhi.n	36c6 <_init_box+0x3e>
    369e:	4404      	add	r4, r0
    36a0:	4401      	add	r1, r0
    36a2:	1b4e      	subs	r6, r1, r5
    36a4:	1963      	adds	r3, r4, r5
    36a6:	429e      	cmp	r6, r3
    36a8:	6004      	str	r4, [r0, #0]
    36aa:	6041      	str	r1, [r0, #4]
    36ac:	6085      	str	r5, [r0, #8]
    36ae:	d202      	bcs.n	36b6 <_init_box+0x2e>
    36b0:	e013      	b.n	36da <_init_box+0x52>
    36b2:	461c      	mov	r4, r3
    36b4:	4613      	mov	r3, r2
    36b6:	195a      	adds	r2, r3, r5
    36b8:	4296      	cmp	r6, r2
    36ba:	6023      	str	r3, [r4, #0]
    36bc:	d2f9      	bcs.n	36b2 <_init_box+0x2a>
    36be:	2000      	movs	r0, #0
    36c0:	6018      	str	r0, [r3, #0]
    36c2:	bc70      	pop	{r4, r5, r6}
    36c4:	4770      	bx	lr
    36c6:	2001      	movs	r0, #1
    36c8:	bc70      	pop	{r4, r5, r6}
    36ca:	4770      	bx	lr
    36cc:	f022 4500 	bic.w	r5, r2, #2147483648	; 0x80000000
    36d0:	3507      	adds	r5, #7
    36d2:	f025 0507 	bic.w	r5, r5, #7
    36d6:	2410      	movs	r4, #16
    36d8:	e7dd      	b.n	3696 <_init_box+0xe>
    36da:	4623      	mov	r3, r4
    36dc:	e7ef      	b.n	36be <_init_box+0x36>
    36de:	bf00      	nop

000036e0 <rt_alloc_box>:
    36e0:	f3ef 8210 	mrs	r2, PRIMASK
    36e4:	b672      	cpsid	i
    36e6:	6803      	ldr	r3, [r0, #0]
    36e8:	f002 0201 	and.w	r2, r2, #1
    36ec:	b10b      	cbz	r3, 36f2 <rt_alloc_box+0x12>
    36ee:	6819      	ldr	r1, [r3, #0]
    36f0:	6001      	str	r1, [r0, #0]
    36f2:	b902      	cbnz	r2, 36f6 <rt_alloc_box+0x16>
    36f4:	b662      	cpsie	i
    36f6:	4618      	mov	r0, r3
    36f8:	4770      	bx	lr
    36fa:	bf00      	nop

000036fc <rt_free_box>:
    36fc:	4281      	cmp	r1, r0
    36fe:	d30e      	bcc.n	371e <rt_free_box+0x22>
    3700:	6843      	ldr	r3, [r0, #4]
    3702:	4299      	cmp	r1, r3
    3704:	d20b      	bcs.n	371e <rt_free_box+0x22>
    3706:	f3ef 8210 	mrs	r2, PRIMASK
    370a:	b672      	cpsid	i
    370c:	6803      	ldr	r3, [r0, #0]
    370e:	600b      	str	r3, [r1, #0]
    3710:	4613      	mov	r3, r2
    3712:	07db      	lsls	r3, r3, #31
    3714:	6001      	str	r1, [r0, #0]
    3716:	d404      	bmi.n	3722 <rt_free_box+0x26>
    3718:	b662      	cpsie	i
    371a:	2000      	movs	r0, #0
    371c:	4770      	bx	lr
    371e:	2001      	movs	r0, #1
    3720:	4770      	bx	lr
    3722:	2000      	movs	r0, #0
    3724:	4770      	bx	lr
    3726:	bf00      	nop

00003728 <rt_mut_init>:
    3728:	2300      	movs	r3, #0
    372a:	2203      	movs	r2, #3
    372c:	7002      	strb	r2, [r0, #0]
    372e:	7043      	strb	r3, [r0, #1]
    3730:	8043      	strh	r3, [r0, #2]
    3732:	6043      	str	r3, [r0, #4]
    3734:	6083      	str	r3, [r0, #8]
    3736:	4770      	bx	lr

00003738 <rt_mut_delete>:
    3738:	8843      	ldrh	r3, [r0, #2]
    373a:	b570      	push	{r4, r5, r6, lr}
    373c:	4605      	mov	r5, r0
    373e:	b14b      	cbz	r3, 3754 <rt_mut_delete+0x1c>
    3740:	6883      	ldr	r3, [r0, #8]
    3742:	7841      	ldrb	r1, [r0, #1]
    3744:	4a18      	ldr	r2, [pc, #96]	; (37a8 <rt_mut_delete+0x70>)
    3746:	7099      	strb	r1, [r3, #2]
    3748:	6880      	ldr	r0, [r0, #8]
    374a:	6813      	ldr	r3, [r2, #0]
    374c:	4298      	cmp	r0, r3
    374e:	d001      	beq.n	3754 <rt_mut_delete+0x1c>
    3750:	f7ff fdf0 	bl	3334 <rt_resort_prio>
    3754:	686b      	ldr	r3, [r5, #4]
    3756:	2601      	movs	r6, #1
    3758:	b18b      	cbz	r3, 377e <rt_mut_delete+0x46>
    375a:	4628      	mov	r0, r5
    375c:	f7ff fd40 	bl	31e0 <rt_get_first>
    3760:	2100      	movs	r1, #0
    3762:	4604      	mov	r4, r0
    3764:	f000 fc46 	bl	3ff4 <rt_ret_val>
    3768:	4620      	mov	r0, r4
    376a:	f7ff fdfd 	bl	3368 <rt_rmv_dly>
    376e:	7066      	strb	r6, [r4, #1]
    3770:	4621      	mov	r1, r4
    3772:	480e      	ldr	r0, [pc, #56]	; (37ac <rt_mut_delete+0x74>)
    3774:	f7ff fd0a 	bl	318c <rt_put_prio>
    3778:	686b      	ldr	r3, [r5, #4]
    377a:	2b00      	cmp	r3, #0
    377c:	d1ed      	bne.n	375a <rt_mut_delete+0x22>
    377e:	480b      	ldr	r0, [pc, #44]	; (37ac <rt_mut_delete+0x74>)
    3780:	6843      	ldr	r3, [r0, #4]
    3782:	b16b      	cbz	r3, 37a0 <rt_mut_delete+0x68>
    3784:	4c08      	ldr	r4, [pc, #32]	; (37a8 <rt_mut_delete+0x70>)
    3786:	789a      	ldrb	r2, [r3, #2]
    3788:	6821      	ldr	r1, [r4, #0]
    378a:	788b      	ldrb	r3, [r1, #2]
    378c:	429a      	cmp	r2, r3
    378e:	d907      	bls.n	37a0 <rt_mut_delete+0x68>
    3790:	f7ff fcfc 	bl	318c <rt_put_prio>
    3794:	6823      	ldr	r3, [r4, #0]
    3796:	2201      	movs	r2, #1
    3798:	705a      	strb	r2, [r3, #1]
    379a:	2000      	movs	r0, #0
    379c:	f000 f998 	bl	3ad0 <rt_dispatch>
    37a0:	2000      	movs	r0, #0
    37a2:	7028      	strb	r0, [r5, #0]
    37a4:	bd70      	pop	{r4, r5, r6, pc}
    37a6:	bf00      	nop
    37a8:	100004dc 	.word	0x100004dc
    37ac:	100004a8 	.word	0x100004a8

000037b0 <rt_mut_release>:
    37b0:	e92d 43f8 	stmdb	sp!, {r3, r4, r5, r6, r7, r8, r9, lr}
    37b4:	8843      	ldrh	r3, [r0, #2]
    37b6:	4604      	mov	r4, r0
    37b8:	b913      	cbnz	r3, 37c0 <rt_mut_release+0x10>
    37ba:	20ff      	movs	r0, #255	; 0xff
    37bc:	e8bd 83f8 	ldmia.w	sp!, {r3, r4, r5, r6, r7, r8, r9, pc}
    37c0:	4d29      	ldr	r5, [pc, #164]	; (3868 <rt_mut_release+0xb8>)
    37c2:	6882      	ldr	r2, [r0, #8]
    37c4:	6829      	ldr	r1, [r5, #0]
    37c6:	428a      	cmp	r2, r1
    37c8:	d1f7      	bne.n	37ba <rt_mut_release+0xa>
    37ca:	3b01      	subs	r3, #1
    37cc:	b29e      	uxth	r6, r3
    37ce:	8046      	strh	r6, [r0, #2]
    37d0:	bb1e      	cbnz	r6, 381a <rt_mut_release+0x6a>
    37d2:	7843      	ldrb	r3, [r0, #1]
    37d4:	7093      	strb	r3, [r2, #2]
    37d6:	6847      	ldr	r7, [r0, #4]
    37d8:	2f00      	cmp	r7, #0
    37da:	d033      	beq.n	3844 <rt_mut_release+0x94>
    37dc:	f7ff fd00 	bl	31e0 <rt_get_first>
    37e0:	4631      	mov	r1, r6
    37e2:	4607      	mov	r7, r0
    37e4:	f04f 0801 	mov.w	r8, #1
    37e8:	f000 fc04 	bl	3ff4 <rt_ret_val>
    37ec:	4638      	mov	r0, r7
    37ee:	f7ff fdbb 	bl	3368 <rt_rmv_dly>
    37f2:	60a7      	str	r7, [r4, #8]
    37f4:	f8a4 8002 	strh.w	r8, [r4, #2]
    37f8:	78bb      	ldrb	r3, [r7, #2]
    37fa:	f8df 9070 	ldr.w	r9, [pc, #112]	; 386c <rt_mut_release+0xbc>
    37fe:	7063      	strb	r3, [r4, #1]
    3800:	6829      	ldr	r1, [r5, #0]
    3802:	f8d9 3004 	ldr.w	r3, [r9, #4]
    3806:	788a      	ldrb	r2, [r1, #2]
    3808:	789b      	ldrb	r3, [r3, #2]
    380a:	429a      	cmp	r2, r3
    380c:	d308      	bcc.n	3820 <rt_mut_release+0x70>
    380e:	4638      	mov	r0, r7
    3810:	f000 f95e 	bl	3ad0 <rt_dispatch>
    3814:	4630      	mov	r0, r6
    3816:	e8bd 83f8 	ldmia.w	sp!, {r3, r4, r5, r6, r7, r8, r9, pc}
    381a:	2000      	movs	r0, #0
    381c:	e8bd 83f8 	ldmia.w	sp!, {r3, r4, r5, r6, r7, r8, r9, pc}
    3820:	4648      	mov	r0, r9
    3822:	f7ff fcb3 	bl	318c <rt_put_prio>
    3826:	4648      	mov	r0, r9
    3828:	4639      	mov	r1, r7
    382a:	f7ff fcaf 	bl	318c <rt_put_prio>
    382e:	682b      	ldr	r3, [r5, #0]
    3830:	4630      	mov	r0, r6
    3832:	f883 8001 	strb.w	r8, [r3, #1]
    3836:	f887 8001 	strb.w	r8, [r7, #1]
    383a:	f000 f949 	bl	3ad0 <rt_dispatch>
    383e:	4630      	mov	r0, r6
    3840:	e8bd 83f8 	ldmia.w	sp!, {r3, r4, r5, r6, r7, r8, r9, pc}
    3844:	4809      	ldr	r0, [pc, #36]	; (386c <rt_mut_release+0xbc>)
    3846:	6841      	ldr	r1, [r0, #4]
    3848:	7889      	ldrb	r1, [r1, #2]
    384a:	4299      	cmp	r1, r3
    384c:	d9e5      	bls.n	381a <rt_mut_release+0x6a>
    384e:	4611      	mov	r1, r2
    3850:	f7ff fc9c 	bl	318c <rt_put_prio>
    3854:	682b      	ldr	r3, [r5, #0]
    3856:	2201      	movs	r2, #1
    3858:	4638      	mov	r0, r7
    385a:	705a      	strb	r2, [r3, #1]
    385c:	f000 f938 	bl	3ad0 <rt_dispatch>
    3860:	4638      	mov	r0, r7
    3862:	e8bd 83f8 	ldmia.w	sp!, {r3, r4, r5, r6, r7, r8, r9, pc}
    3866:	bf00      	nop
    3868:	100004dc 	.word	0x100004dc
    386c:	100004a8 	.word	0x100004a8

00003870 <rt_mut_wait>:
    3870:	8843      	ldrh	r3, [r0, #2]
    3872:	b570      	push	{r4, r5, r6, lr}
    3874:	4604      	mov	r4, r0
    3876:	460d      	mov	r5, r1
    3878:	b943      	cbnz	r3, 388c <rt_mut_wait+0x1c>
    387a:	4a15      	ldr	r2, [pc, #84]	; (38d0 <rt_mut_wait+0x60>)
    387c:	6812      	ldr	r2, [r2, #0]
    387e:	6082      	str	r2, [r0, #8]
    3880:	7892      	ldrb	r2, [r2, #2]
    3882:	7042      	strb	r2, [r0, #1]
    3884:	3301      	adds	r3, #1
    3886:	8063      	strh	r3, [r4, #2]
    3888:	2000      	movs	r0, #0
    388a:	bd70      	pop	{r4, r5, r6, pc}
    388c:	4e10      	ldr	r6, [pc, #64]	; (38d0 <rt_mut_wait+0x60>)
    388e:	6881      	ldr	r1, [r0, #8]
    3890:	6832      	ldr	r2, [r6, #0]
    3892:	4291      	cmp	r1, r2
    3894:	d0f6      	beq.n	3884 <rt_mut_wait+0x14>
    3896:	b1cd      	cbz	r5, 38cc <rt_mut_wait+0x5c>
    3898:	7893      	ldrb	r3, [r2, #2]
    389a:	7840      	ldrb	r0, [r0, #1]
    389c:	4298      	cmp	r0, r3
    389e:	d30f      	bcc.n	38c0 <rt_mut_wait+0x50>
    38a0:	6863      	ldr	r3, [r4, #4]
    38a2:	b14b      	cbz	r3, 38b8 <rt_mut_wait+0x48>
    38a4:	4620      	mov	r0, r4
    38a6:	4611      	mov	r1, r2
    38a8:	f7ff fc70 	bl	318c <rt_put_prio>
    38ac:	4628      	mov	r0, r5
    38ae:	2109      	movs	r1, #9
    38b0:	f000 f930 	bl	3b14 <rt_block>
    38b4:	2001      	movs	r0, #1
    38b6:	bd70      	pop	{r4, r5, r6, pc}
    38b8:	6062      	str	r2, [r4, #4]
    38ba:	6053      	str	r3, [r2, #4]
    38bc:	6094      	str	r4, [r2, #8]
    38be:	e7f5      	b.n	38ac <rt_mut_wait+0x3c>
    38c0:	708b      	strb	r3, [r1, #2]
    38c2:	68a0      	ldr	r0, [r4, #8]
    38c4:	f7ff fd36 	bl	3334 <rt_resort_prio>
    38c8:	6832      	ldr	r2, [r6, #0]
    38ca:	e7e9      	b.n	38a0 <rt_mut_wait+0x30>
    38cc:	2001      	movs	r0, #1
    38ce:	bd70      	pop	{r4, r5, r6, pc}
    38d0:	100004dc 	.word	0x100004dc

000038d4 <rt_sem_psh>:
    38d4:	6842      	ldr	r2, [r0, #4]
    38d6:	b510      	push	{r4, lr}
    38d8:	b17a      	cbz	r2, 38fa <rt_sem_psh+0x26>
    38da:	f7ff fc81 	bl	31e0 <rt_get_first>
    38de:	4604      	mov	r4, r0
    38e0:	f7ff fd42 	bl	3368 <rt_rmv_dly>
    38e4:	2101      	movs	r1, #1
    38e6:	7061      	strb	r1, [r4, #1]
    38e8:	4620      	mov	r0, r4
    38ea:	f000 fb83 	bl	3ff4 <rt_ret_val>
    38ee:	4621      	mov	r1, r4
    38f0:	4804      	ldr	r0, [pc, #16]	; (3904 <rt_sem_psh+0x30>)
    38f2:	e8bd 4010 	ldmia.w	sp!, {r4, lr}
    38f6:	f7ff bc49 	b.w	318c <rt_put_prio>
    38fa:	8842      	ldrh	r2, [r0, #2]
    38fc:	3201      	adds	r2, #1
    38fe:	8042      	strh	r2, [r0, #2]
    3900:	bd10      	pop	{r4, pc}
    3902:	bf00      	nop
    3904:	100004a8 	.word	0x100004a8

00003908 <rt_psh_req>:
    3908:	4b05      	ldr	r3, [pc, #20]	; (3920 <rt_psh_req+0x18>)
    390a:	781b      	ldrb	r3, [r3, #0]
    390c:	b11b      	cbz	r3, 3916 <rt_psh_req+0xe>
    390e:	4b05      	ldr	r3, [pc, #20]	; (3924 <rt_psh_req+0x1c>)
    3910:	2201      	movs	r2, #1
    3912:	701a      	strb	r2, [r3, #0]
    3914:	4770      	bx	lr
    3916:	4b04      	ldr	r3, [pc, #16]	; (3928 <rt_psh_req+0x20>)
    3918:	f04f 5280 	mov.w	r2, #268435456	; 0x10000000
    391c:	601a      	str	r2, [r3, #0]
    391e:	4770      	bx	lr
    3920:	10000209 	.word	0x10000209
    3924:	10000208 	.word	0x10000208
    3928:	e000ed04 	.word	0xe000ed04

0000392c <rt_pop_req>:
    392c:	4a1a      	ldr	r2, [pc, #104]	; (3998 <rt_pop_req+0x6c>)
    392e:	b538      	push	{r3, r4, r5, lr}
    3930:	6810      	ldr	r0, [r2, #0]
    3932:	2301      	movs	r3, #1
    3934:	4d19      	ldr	r5, [pc, #100]	; (399c <rt_pop_req+0x70>)
    3936:	7043      	strb	r3, [r0, #1]
    3938:	f7ff fc66 	bl	3208 <rt_put_rdy_first>
    393c:	78ab      	ldrb	r3, [r5, #2]
    393e:	786c      	ldrb	r4, [r5, #1]
    3940:	b993      	cbnz	r3, 3968 <rt_pop_req+0x3c>
    3942:	e021      	b.n	3988 <rt_pop_req+0x5c>
    3944:	2a01      	cmp	r2, #1
    3946:	d01a      	beq.n	397e <rt_pop_req+0x52>
    3948:	f7ff ffc4 	bl	38d4 <rt_sem_psh>
    394c:	78eb      	ldrb	r3, [r5, #3]
    394e:	3401      	adds	r4, #1
    3950:	429c      	cmp	r4, r3
    3952:	bf08      	it	eq
    3954:	2400      	moveq	r4, #0
    3956:	f3ef 8310 	mrs	r3, PRIMASK
    395a:	b672      	cpsid	i
    395c:	78ab      	ldrb	r3, [r5, #2]
    395e:	3b01      	subs	r3, #1
    3960:	b2db      	uxtb	r3, r3
    3962:	70ab      	strb	r3, [r5, #2]
    3964:	b662      	cpsie	i
    3966:	b17b      	cbz	r3, 3988 <rt_pop_req+0x5c>
    3968:	eb05 01c4 	add.w	r1, r5, r4, lsl #3
    396c:	684b      	ldr	r3, [r1, #4]
    396e:	781a      	ldrb	r2, [r3, #0]
    3970:	4618      	mov	r0, r3
    3972:	2a00      	cmp	r2, #0
    3974:	d1e6      	bne.n	3944 <rt_pop_req+0x18>
    3976:	8909      	ldrh	r1, [r1, #8]
    3978:	f7ff fbde 	bl	3138 <rt_evt_psh>
    397c:	e7e6      	b.n	394c <rt_pop_req+0x20>
    397e:	4618      	mov	r0, r3
    3980:	6889      	ldr	r1, [r1, #8]
    3982:	f7ff fe0f 	bl	35a4 <rt_mbx_psh>
    3986:	e7e1      	b.n	394c <rt_pop_req+0x20>
    3988:	4805      	ldr	r0, [pc, #20]	; (39a0 <rt_pop_req+0x74>)
    398a:	706c      	strb	r4, [r5, #1]
    398c:	f7ff fc28 	bl	31e0 <rt_get_first>
    3990:	e8bd 4038 	ldmia.w	sp!, {r3, r4, r5, lr}
    3994:	f000 b894 	b.w	3ac0 <rt_switch_req>
    3998:	100004dc 	.word	0x100004dc
    399c:	10000774 	.word	0x10000774
    39a0:	100004a8 	.word	0x100004a8

000039a4 <os_tick_init>:
    39a4:	4b09      	ldr	r3, [pc, #36]	; (39cc <os_tick_init+0x28>)
    39a6:	b470      	push	{r4, r5, r6}
    39a8:	4809      	ldr	r0, [pc, #36]	; (39d0 <os_tick_init+0x2c>)
    39aa:	681e      	ldr	r6, [r3, #0]
    39ac:	4d09      	ldr	r5, [pc, #36]	; (39d4 <os_tick_init+0x30>)
    39ae:	4a0a      	ldr	r2, [pc, #40]	; (39d8 <os_tick_init+0x34>)
    39b0:	2400      	movs	r4, #0
    39b2:	4b0a      	ldr	r3, [pc, #40]	; (39dc <os_tick_init+0x38>)
    39b4:	2107      	movs	r1, #7
    39b6:	602e      	str	r6, [r5, #0]
    39b8:	6004      	str	r4, [r0, #0]
    39ba:	6011      	str	r1, [r2, #0]
    39bc:	681a      	ldr	r2, [r3, #0]
    39be:	f04f 30ff 	mov.w	r0, #4294967295	; 0xffffffff
    39c2:	f042 427f 	orr.w	r2, r2, #4278190080	; 0xff000000
    39c6:	601a      	str	r2, [r3, #0]
    39c8:	bc70      	pop	{r4, r5, r6}
    39ca:	4770      	bx	lr
    39cc:	000085f4 	.word	0x000085f4
    39d0:	e000e018 	.word	0xe000e018
    39d4:	e000e014 	.word	0xe000e014
    39d8:	e000e010 	.word	0xe000e010
    39dc:	e000ed20 	.word	0xe000ed20

000039e0 <os_tick_irqack>:
    39e0:	4770      	bx	lr
    39e2:	bf00      	nop

000039e4 <rt_systick>:
    39e4:	4a0b      	ldr	r2, [pc, #44]	; (3a14 <rt_systick+0x30>)
    39e6:	b508      	push	{r3, lr}
    39e8:	6810      	ldr	r0, [r2, #0]
    39ea:	2301      	movs	r3, #1
    39ec:	7043      	strb	r3, [r0, #1]
    39ee:	f7ff fc0b 	bl	3208 <rt_put_rdy_first>
    39f2:	f000 fb45 	bl	4080 <rt_chk_robin>
    39f6:	4b08      	ldr	r3, [pc, #32]	; (3a18 <rt_systick+0x34>)
    39f8:	681a      	ldr	r2, [r3, #0]
    39fa:	3201      	adds	r2, #1
    39fc:	601a      	str	r2, [r3, #0]
    39fe:	f7ff fc3d 	bl	327c <rt_dec_dly>
    3a02:	f7ff f88b 	bl	2b1c <sysTimerTick>
    3a06:	4805      	ldr	r0, [pc, #20]	; (3a1c <rt_systick+0x38>)
    3a08:	f7ff fbea 	bl	31e0 <rt_get_first>
    3a0c:	e8bd 4008 	ldmia.w	sp!, {r3, lr}
    3a10:	f000 b856 	b.w	3ac0 <rt_switch_req>
    3a14:	100004dc 	.word	0x100004dc
    3a18:	10000514 	.word	0x10000514
    3a1c:	100004a8 	.word	0x100004a8

00003a20 <rt_stk_check>:
    3a20:	4b08      	ldr	r3, [pc, #32]	; (3a44 <rt_stk_check+0x24>)
    3a22:	681b      	ldr	r3, [r3, #0]
    3a24:	78da      	ldrb	r2, [r3, #3]
    3a26:	2a01      	cmp	r2, #1
    3a28:	d00a      	beq.n	3a40 <rt_stk_check+0x20>
    3a2a:	6a9a      	ldr	r2, [r3, #40]	; 0x28
    3a2c:	6a5b      	ldr	r3, [r3, #36]	; 0x24
    3a2e:	429a      	cmp	r2, r3
    3a30:	d803      	bhi.n	3a3a <rt_stk_check+0x1a>
    3a32:	6812      	ldr	r2, [r2, #0]
    3a34:	4b04      	ldr	r3, [pc, #16]	; (3a48 <rt_stk_check+0x28>)
    3a36:	429a      	cmp	r2, r3
    3a38:	d002      	beq.n	3a40 <rt_stk_check+0x20>
    3a3a:	2001      	movs	r0, #1
    3a3c:	f000 bae4 	b.w	4008 <os_error>
    3a40:	4770      	bx	lr
    3a42:	bf00      	nop
    3a44:	100004dc 	.word	0x100004dc
    3a48:	e25a2ea5 	.word	0xe25a2ea5

00003a4c <rt_dispatch.part.0>:
    3a4c:	b508      	push	{r3, lr}
    3a4e:	4804      	ldr	r0, [pc, #16]	; (3a60 <rt_dispatch.part.0+0x14>)
    3a50:	f7ff fbc6 	bl	31e0 <rt_get_first>
    3a54:	4a03      	ldr	r2, [pc, #12]	; (3a64 <rt_dispatch.part.0+0x18>)
    3a56:	2302      	movs	r3, #2
    3a58:	6050      	str	r0, [r2, #4]
    3a5a:	7043      	strb	r3, [r0, #1]
    3a5c:	bd08      	pop	{r3, pc}
    3a5e:	bf00      	nop
    3a60:	100004a8 	.word	0x100004a8
    3a64:	100004dc 	.word	0x100004dc

00003a68 <rt_get_TID>:
    3a68:	4b09      	ldr	r3, [pc, #36]	; (3a90 <rt_get_TID+0x28>)
    3a6a:	8818      	ldrh	r0, [r3, #0]
    3a6c:	b168      	cbz	r0, 3a8a <rt_get_TID+0x22>
    3a6e:	4a09      	ldr	r2, [pc, #36]	; (3a94 <rt_get_TID+0x2c>)
    3a70:	6813      	ldr	r3, [r2, #0]
    3a72:	b15b      	cbz	r3, 3a8c <rt_get_TID+0x24>
    3a74:	2301      	movs	r3, #1
    3a76:	e002      	b.n	3a7e <rt_get_TID+0x16>
    3a78:	f852 1f04 	ldr.w	r1, [r2, #4]!
    3a7c:	b121      	cbz	r1, 3a88 <rt_get_TID+0x20>
    3a7e:	3301      	adds	r3, #1
    3a80:	4283      	cmp	r3, r0
    3a82:	d9f9      	bls.n	3a78 <rt_get_TID+0x10>
    3a84:	2000      	movs	r0, #0
    3a86:	4770      	bx	lr
    3a88:	4618      	mov	r0, r3
    3a8a:	4770      	bx	lr
    3a8c:	2001      	movs	r0, #1
    3a8e:	4770      	bx	lr
    3a90:	000085e0 	.word	0x000085e0
    3a94:	10000718 	.word	0x10000718

00003a98 <rt_init_context>:
    3a98:	b430      	push	{r4, r5}
    3a9a:	2400      	movs	r4, #0
    3a9c:	2501      	movs	r5, #1
    3a9e:	7081      	strb	r1, [r0, #2]
    3aa0:	7045      	strb	r5, [r0, #1]
    3aa2:	7004      	strb	r4, [r0, #0]
    3aa4:	6044      	str	r4, [r0, #4]
    3aa6:	6084      	str	r4, [r0, #8]
    3aa8:	60c4      	str	r4, [r0, #12]
    3aaa:	6104      	str	r4, [r0, #16]
    3aac:	8284      	strh	r4, [r0, #20]
    3aae:	82c4      	strh	r4, [r0, #22]
    3ab0:	8304      	strh	r4, [r0, #24]
    3ab2:	8344      	strh	r4, [r0, #26]
    3ab4:	f880 4020 	strb.w	r4, [r0, #32]
    3ab8:	4611      	mov	r1, r2
    3aba:	bc30      	pop	{r4, r5}
    3abc:	f000 ba72 	b.w	3fa4 <rt_init_stack>

00003ac0 <rt_switch_req>:
    3ac0:	4b02      	ldr	r3, [pc, #8]	; (3acc <rt_switch_req+0xc>)
    3ac2:	2202      	movs	r2, #2
    3ac4:	6058      	str	r0, [r3, #4]
    3ac6:	7042      	strb	r2, [r0, #1]
    3ac8:	4770      	bx	lr
    3aca:	bf00      	nop
    3acc:	100004dc 	.word	0x100004dc

00003ad0 <rt_dispatch>:
    3ad0:	b538      	push	{r3, r4, r5, lr}
    3ad2:	4604      	mov	r4, r0
    3ad4:	b1b0      	cbz	r0, 3b04 <rt_dispatch+0x34>
    3ad6:	4d0d      	ldr	r5, [pc, #52]	; (3b0c <rt_dispatch+0x3c>)
    3ad8:	7882      	ldrb	r2, [r0, #2]
    3ada:	6828      	ldr	r0, [r5, #0]
    3adc:	7883      	ldrb	r3, [r0, #2]
    3ade:	429a      	cmp	r2, r3
    3ae0:	d807      	bhi.n	3af2 <rt_dispatch+0x22>
    3ae2:	2301      	movs	r3, #1
    3ae4:	7063      	strb	r3, [r4, #1]
    3ae6:	4621      	mov	r1, r4
    3ae8:	4809      	ldr	r0, [pc, #36]	; (3b10 <rt_dispatch+0x40>)
    3aea:	e8bd 4038 	ldmia.w	sp!, {r3, r4, r5, lr}
    3aee:	f7ff bb4d 	b.w	318c <rt_put_prio>
    3af2:	f7ff fb89 	bl	3208 <rt_put_rdy_first>
    3af6:	682b      	ldr	r3, [r5, #0]
    3af8:	2101      	movs	r1, #1
    3afa:	2202      	movs	r2, #2
    3afc:	7059      	strb	r1, [r3, #1]
    3afe:	606c      	str	r4, [r5, #4]
    3b00:	7062      	strb	r2, [r4, #1]
    3b02:	bd38      	pop	{r3, r4, r5, pc}
    3b04:	e8bd 4038 	ldmia.w	sp!, {r3, r4, r5, lr}
    3b08:	f7ff bfa0 	b.w	3a4c <rt_dispatch.part.0>
    3b0c:	100004dc 	.word	0x100004dc
    3b10:	100004a8 	.word	0x100004a8

00003b14 <rt_block>:
    3b14:	b538      	push	{r3, r4, r5, lr}
    3b16:	460d      	mov	r5, r1
    3b18:	b180      	cbz	r0, 3b3c <rt_block+0x28>
    3b1a:	f64f 73ff 	movw	r3, #65535	; 0xffff
    3b1e:	4298      	cmp	r0, r3
    3b20:	4c07      	ldr	r4, [pc, #28]	; (3b40 <rt_block+0x2c>)
    3b22:	d003      	beq.n	3b2c <rt_block+0x18>
    3b24:	4601      	mov	r1, r0
    3b26:	6820      	ldr	r0, [r4, #0]
    3b28:	f7ff fb78 	bl	321c <rt_put_dly>
    3b2c:	6823      	ldr	r3, [r4, #0]
    3b2e:	4805      	ldr	r0, [pc, #20]	; (3b44 <rt_block+0x30>)
    3b30:	705d      	strb	r5, [r3, #1]
    3b32:	f7ff fb55 	bl	31e0 <rt_get_first>
    3b36:	2302      	movs	r3, #2
    3b38:	6060      	str	r0, [r4, #4]
    3b3a:	7043      	strb	r3, [r0, #1]
    3b3c:	bd38      	pop	{r3, r4, r5, pc}
    3b3e:	bf00      	nop
    3b40:	100004dc 	.word	0x100004dc
    3b44:	100004a8 	.word	0x100004a8

00003b48 <rt_tsk_self>:
    3b48:	4b02      	ldr	r3, [pc, #8]	; (3b54 <rt_tsk_self+0xc>)
    3b4a:	6818      	ldr	r0, [r3, #0]
    3b4c:	b100      	cbz	r0, 3b50 <rt_tsk_self+0x8>
    3b4e:	78c0      	ldrb	r0, [r0, #3]
    3b50:	4770      	bx	lr
    3b52:	bf00      	nop
    3b54:	100004dc 	.word	0x100004dc

00003b58 <rt_tsk_prio>:
    3b58:	b538      	push	{r3, r4, r5, lr}
    3b5a:	b948      	cbnz	r0, 3b70 <rt_tsk_prio+0x18>
    3b5c:	4c18      	ldr	r4, [pc, #96]	; (3bc0 <rt_tsk_prio+0x68>)
    3b5e:	6823      	ldr	r3, [r4, #0]
    3b60:	7099      	strb	r1, [r3, #2]
    3b62:	4818      	ldr	r0, [pc, #96]	; (3bc4 <rt_tsk_prio+0x6c>)
    3b64:	6843      	ldr	r3, [r0, #4]
    3b66:	789b      	ldrb	r3, [r3, #2]
    3b68:	428b      	cmp	r3, r1
    3b6a:	d81e      	bhi.n	3baa <rt_tsk_prio+0x52>
    3b6c:	2000      	movs	r0, #0
    3b6e:	bd38      	pop	{r3, r4, r5, pc}
    3b70:	4b15      	ldr	r3, [pc, #84]	; (3bc8 <rt_tsk_prio+0x70>)
    3b72:	881b      	ldrh	r3, [r3, #0]
    3b74:	4298      	cmp	r0, r3
    3b76:	d901      	bls.n	3b7c <rt_tsk_prio+0x24>
    3b78:	20ff      	movs	r0, #255	; 0xff
    3b7a:	bd38      	pop	{r3, r4, r5, pc}
    3b7c:	4b13      	ldr	r3, [pc, #76]	; (3bcc <rt_tsk_prio+0x74>)
    3b7e:	3801      	subs	r0, #1
    3b80:	f853 5020 	ldr.w	r5, [r3, r0, lsl #2]
    3b84:	2d00      	cmp	r5, #0
    3b86:	d0f7      	beq.n	3b78 <rt_tsk_prio+0x20>
    3b88:	4c0d      	ldr	r4, [pc, #52]	; (3bc0 <rt_tsk_prio+0x68>)
    3b8a:	70a9      	strb	r1, [r5, #2]
    3b8c:	6823      	ldr	r3, [r4, #0]
    3b8e:	429d      	cmp	r5, r3
    3b90:	d0e7      	beq.n	3b62 <rt_tsk_prio+0xa>
    3b92:	4628      	mov	r0, r5
    3b94:	f7ff fbce 	bl	3334 <rt_resort_prio>
    3b98:	786b      	ldrb	r3, [r5, #1]
    3b9a:	2b01      	cmp	r3, #1
    3b9c:	d1e6      	bne.n	3b6c <rt_tsk_prio+0x14>
    3b9e:	4809      	ldr	r0, [pc, #36]	; (3bc4 <rt_tsk_prio+0x6c>)
    3ba0:	f7ff fb1e 	bl	31e0 <rt_get_first>
    3ba4:	f7ff ff94 	bl	3ad0 <rt_dispatch>
    3ba8:	e7e0      	b.n	3b6c <rt_tsk_prio+0x14>
    3baa:	6821      	ldr	r1, [r4, #0]
    3bac:	f7ff faee 	bl	318c <rt_put_prio>
    3bb0:	6823      	ldr	r3, [r4, #0]
    3bb2:	2201      	movs	r2, #1
    3bb4:	705a      	strb	r2, [r3, #1]
    3bb6:	f7ff ff49 	bl	3a4c <rt_dispatch.part.0>
    3bba:	2000      	movs	r0, #0
    3bbc:	bd38      	pop	{r3, r4, r5, pc}
    3bbe:	bf00      	nop
    3bc0:	100004dc 	.word	0x100004dc
    3bc4:	100004a8 	.word	0x100004a8
    3bc8:	000085e0 	.word	0x000085e0
    3bcc:	10000718 	.word	0x10000718

00003bd0 <rt_tsk_delete>:
    3bd0:	b570      	push	{r4, r5, r6, lr}
    3bd2:	4c18      	ldr	r4, [pc, #96]	; (3c34 <rt_tsk_delete+0x64>)
    3bd4:	6825      	ldr	r5, [r4, #0]
    3bd6:	b1d0      	cbz	r0, 3c0e <rt_tsk_delete+0x3e>
    3bd8:	78eb      	ldrb	r3, [r5, #3]
    3bda:	4283      	cmp	r3, r0
    3bdc:	d017      	beq.n	3c0e <rt_tsk_delete+0x3e>
    3bde:	4b16      	ldr	r3, [pc, #88]	; (3c38 <rt_tsk_delete+0x68>)
    3be0:	881b      	ldrh	r3, [r3, #0]
    3be2:	4298      	cmp	r0, r3
    3be4:	d901      	bls.n	3bea <rt_tsk_delete+0x1a>
    3be6:	20ff      	movs	r0, #255	; 0xff
    3be8:	bd70      	pop	{r4, r5, r6, pc}
    3bea:	4d14      	ldr	r5, [pc, #80]	; (3c3c <rt_tsk_delete+0x6c>)
    3bec:	1e46      	subs	r6, r0, #1
    3bee:	f855 4026 	ldr.w	r4, [r5, r6, lsl #2]
    3bf2:	2c00      	cmp	r4, #0
    3bf4:	d0f7      	beq.n	3be6 <rt_tsk_delete+0x16>
    3bf6:	4620      	mov	r0, r4
    3bf8:	f7ff fb82 	bl	3300 <rt_rmv_list>
    3bfc:	4620      	mov	r0, r4
    3bfe:	f7ff fbb3 	bl	3368 <rt_rmv_dly>
    3c02:	2300      	movs	r3, #0
    3c04:	f845 3026 	str.w	r3, [r5, r6, lsl #2]
    3c08:	4618      	mov	r0, r3
    3c0a:	62a3      	str	r3, [r4, #40]	; 0x28
    3c0c:	bd70      	pop	{r4, r5, r6, pc}
    3c0e:	2600      	movs	r6, #0
    3c10:	706e      	strb	r6, [r5, #1]
    3c12:	f000 f932 	bl	3e7a <rt_get_PSP>
    3c16:	6268      	str	r0, [r5, #36]	; 0x24
    3c18:	f7ff ff02 	bl	3a20 <rt_stk_check>
    3c1c:	6823      	ldr	r3, [r4, #0]
    3c1e:	4a07      	ldr	r2, [pc, #28]	; (3c3c <rt_tsk_delete+0x6c>)
    3c20:	78d9      	ldrb	r1, [r3, #3]
    3c22:	6026      	str	r6, [r4, #0]
    3c24:	3901      	subs	r1, #1
    3c26:	f842 6021 	str.w	r6, [r2, r1, lsl #2]
    3c2a:	629e      	str	r6, [r3, #40]	; 0x28
    3c2c:	f7ff ff0e 	bl	3a4c <rt_dispatch.part.0>
    3c30:	4630      	mov	r0, r6
    3c32:	bd70      	pop	{r4, r5, r6, pc}
    3c34:	100004dc 	.word	0x100004dc
    3c38:	000085e0 	.word	0x000085e0
    3c3c:	10000718 	.word	0x10000718

00003c40 <rt_sys_init>:
    3c40:	b5f8      	push	{r3, r4, r5, r6, r7, lr}
    3c42:	4b30      	ldr	r3, [pc, #192]	; (3d04 <rt_sys_init+0xc4>)
    3c44:	8819      	ldrh	r1, [r3, #0]
    3c46:	b139      	cbz	r1, 3c58 <rt_sys_init+0x18>
    3c48:	2300      	movs	r3, #0
    3c4a:	4a2f      	ldr	r2, [pc, #188]	; (3d08 <rt_sys_init+0xc8>)
    3c4c:	4618      	mov	r0, r3
    3c4e:	3301      	adds	r3, #1
    3c50:	4299      	cmp	r1, r3
    3c52:	f842 0f04 	str.w	r0, [r2, #4]!
    3c56:	d8fa      	bhi.n	3c4e <rt_sys_init+0xe>
    3c58:	4b2c      	ldr	r3, [pc, #176]	; (3d0c <rt_sys_init+0xcc>)
    3c5a:	4c2d      	ldr	r4, [pc, #180]	; (3d10 <rt_sys_init+0xd0>)
    3c5c:	881f      	ldrh	r7, [r3, #0]
    3c5e:	4a2d      	ldr	r2, [pc, #180]	; (3d14 <rt_sys_init+0xd4>)
    3c60:	2500      	movs	r5, #0
    3c62:	2301      	movs	r3, #1
    3c64:	4620      	mov	r0, r4
    3c66:	26ff      	movs	r6, #255	; 0xff
    3c68:	492b      	ldr	r1, [pc, #172]	; (3d18 <rt_sys_init+0xd8>)
    3c6a:	8467      	strh	r7, [r4, #34]	; 0x22
    3c6c:	70e6      	strb	r6, [r4, #3]
    3c6e:	62a2      	str	r2, [r4, #40]	; 0x28
    3c70:	7063      	strb	r3, [r4, #1]
    3c72:	7025      	strb	r5, [r4, #0]
    3c74:	70a5      	strb	r5, [r4, #2]
    3c76:	6065      	str	r5, [r4, #4]
    3c78:	60a5      	str	r5, [r4, #8]
    3c7a:	60e5      	str	r5, [r4, #12]
    3c7c:	6125      	str	r5, [r4, #16]
    3c7e:	82a5      	strh	r5, [r4, #20]
    3c80:	82e5      	strh	r5, [r4, #22]
    3c82:	8325      	strh	r5, [r4, #24]
    3c84:	8365      	strh	r5, [r4, #26]
    3c86:	f884 5020 	strb.w	r5, [r4, #32]
    3c8a:	f000 f98b 	bl	3fa4 <rt_init_stack>
    3c8e:	4b23      	ldr	r3, [pc, #140]	; (3d1c <rt_sys_init+0xdc>)
    3c90:	4a23      	ldr	r2, [pc, #140]	; (3d20 <rt_sys_init+0xe0>)
    3c92:	781e      	ldrb	r6, [r3, #0]
    3c94:	f8df e0a0 	ldr.w	lr, [pc, #160]	; 3d38 <rt_sys_init+0xf8>
    3c98:	4b22      	ldr	r3, [pc, #136]	; (3d24 <rt_sys_init+0xe4>)
    3c9a:	4823      	ldr	r0, [pc, #140]	; (3d28 <rt_sys_init+0xe8>)
    3c9c:	2702      	movs	r7, #2
    3c9e:	f8ce 4000 	str.w	r4, [lr]
    3ca2:	7067      	strb	r7, [r4, #1]
    3ca4:	2104      	movs	r1, #4
    3ca6:	70d6      	strb	r6, [r2, #3]
    3ca8:	7015      	strb	r5, [r2, #0]
    3caa:	7055      	strb	r5, [r2, #1]
    3cac:	7019      	strb	r1, [r3, #0]
    3cae:	60dd      	str	r5, [r3, #12]
    3cb0:	611d      	str	r5, [r3, #16]
    3cb2:	829d      	strh	r5, [r3, #20]
    3cb4:	6045      	str	r5, [r0, #4]
    3cb6:	7001      	strb	r1, [r0, #0]
    3cb8:	f000 f9d6 	bl	4068 <rt_init_robin>
    3cbc:	4b1b      	ldr	r3, [pc, #108]	; (3d2c <rt_sys_init+0xec>)
    3cbe:	681a      	ldr	r2, [r3, #0]
    3cc0:	f442 027f 	orr.w	r2, r2, #16711680	; 0xff0000
    3cc4:	601a      	str	r2, [r3, #0]
    3cc6:	681b      	ldr	r3, [r3, #0]
    3cc8:	021b      	lsls	r3, r3, #8
    3cca:	f003 437f 	and.w	r3, r3, #4278190080	; 0xff000000
    3cce:	43db      	mvns	r3, r3
    3cd0:	fab3 f383 	clz	r3, r3
    3cd4:	4a16      	ldr	r2, [pc, #88]	; (3d30 <rt_sys_init+0xf0>)
    3cd6:	b2db      	uxtb	r3, r3
    3cd8:	6812      	ldr	r2, [r2, #0]
    3cda:	f1c3 0308 	rsb	r3, r3, #8
    3cde:	f3c2 2202 	ubfx	r2, r2, #8, #3
    3ce2:	4293      	cmp	r3, r2
    3ce4:	dc00      	bgt.n	3ce8 <rt_sys_init+0xa8>
    3ce6:	1c53      	adds	r3, r2, #1
    3ce8:	f06f 7280 	mvn.w	r2, #16777216	; 0x1000000
    3cec:	fa02 f303 	lsl.w	r3, r2, r3
    3cf0:	4a10      	ldr	r2, [pc, #64]	; (3d34 <rt_sys_init+0xf4>)
    3cf2:	f003 437f 	and.w	r3, r3, #4278190080	; 0xff000000
    3cf6:	6811      	ldr	r1, [r2, #0]
    3cf8:	f021 417f 	bic.w	r1, r1, #4278190080	; 0xff000000
    3cfc:	430b      	orrs	r3, r1
    3cfe:	6013      	str	r3, [r2, #0]
    3d00:	bdf8      	pop	{r3, r4, r5, r6, r7, pc}
    3d02:	bf00      	nop
    3d04:	000085e0 	.word	0x000085e0
    3d08:	10000714 	.word	0x10000714
    3d0c:	000085ee 	.word	0x000085ee
    3d10:	100004e4 	.word	0x100004e4
    3d14:	10000518 	.word	0x10000518
    3d18:	00004005 	.word	0x00004005
    3d1c:	000085f0 	.word	0x000085f0
    3d20:	10000774 	.word	0x10000774
    3d24:	100004c0 	.word	0x100004c0
    3d28:	100004a8 	.word	0x100004a8
    3d2c:	e000ed20 	.word	0xe000ed20
    3d30:	e000ed0c 	.word	0xe000ed0c
    3d34:	e000ed1c 	.word	0xe000ed1c
    3d38:	100004dc 	.word	0x100004dc

00003d3c <rt_sys_start>:
    3d3c:	b508      	push	{r3, lr}
    3d3e:	f7ff fe31 	bl	39a4 <os_tick_init>
    3d42:	4b0c      	ldr	r3, [pc, #48]	; (3d74 <rt_sys_start+0x38>)
    3d44:	2800      	cmp	r0, #0
    3d46:	6018      	str	r0, [r3, #0]
    3d48:	db12      	blt.n	3d70 <rt_sys_start+0x34>
    3d4a:	f100 4060 	add.w	r0, r0, #3758096384	; 0xe0000000
    3d4e:	22ff      	movs	r2, #255	; 0xff
    3d50:	f500 4064 	add.w	r0, r0, #58368	; 0xe400
    3d54:	7002      	strb	r2, [r0, #0]
    3d56:	681b      	ldr	r3, [r3, #0]
    3d58:	2101      	movs	r1, #1
    3d5a:	f003 021f 	and.w	r2, r3, #31
    3d5e:	fa01 f202 	lsl.w	r2, r1, r2
    3d62:	115b      	asrs	r3, r3, #5
    3d64:	009b      	lsls	r3, r3, #2
    3d66:	f103 4360 	add.w	r3, r3, #3758096384	; 0xe0000000
    3d6a:	f503 4361 	add.w	r3, r3, #57600	; 0xe100
    3d6e:	601a      	str	r2, [r3, #0]
    3d70:	bd08      	pop	{r3, pc}
    3d72:	bf00      	nop
    3d74:	100004d8 	.word	0x100004d8

00003d78 <rt_dly_wait>:
    3d78:	2103      	movs	r1, #3
    3d7a:	f7ff becb 	b.w	3b14 <rt_block>
    3d7e:	bf00      	nop

00003d80 <rtos::Mutex::Mutex()>:
    3d80:	b510      	push	{r4, lr}
    3d82:	2300      	movs	r3, #0
    3d84:	4604      	mov	r4, r0
    3d86:	f100 0208 	add.w	r2, r0, #8
    3d8a:	7223      	strb	r3, [r4, #8]
    3d8c:	7263      	strb	r3, [r4, #9]
    3d8e:	72a3      	strb	r3, [r4, #10]
    3d90:	72e3      	strb	r3, [r4, #11]
    3d92:	7323      	strb	r3, [r4, #12]
    3d94:	7363      	strb	r3, [r4, #13]
    3d96:	73a3      	strb	r3, [r4, #14]
    3d98:	73e3      	strb	r3, [r4, #15]
    3d9a:	7423      	strb	r3, [r4, #16]
    3d9c:	7463      	strb	r3, [r4, #17]
    3d9e:	74a3      	strb	r3, [r4, #18]
    3da0:	74e3      	strb	r3, [r4, #19]
    3da2:	f840 2f04 	str.w	r2, [r0, #4]!
    3da6:	f7fe ff4b 	bl	2c40 <osMutexCreate>
    3daa:	6020      	str	r0, [r4, #0]
    3dac:	b108      	cbz	r0, 3db2 <rtos::Mutex::Mutex()+0x32>
    3dae:	4620      	mov	r0, r4
    3db0:	bd10      	pop	{r4, pc}
    3db2:	4802      	ldr	r0, [pc, #8]	; (3dbc <rtos::Mutex::Mutex()+0x3c>)
    3db4:	f000 f9e4 	bl	4180 <error>
    3db8:	4620      	mov	r0, r4
    3dba:	bd10      	pop	{r4, pc}
    3dbc:	00008580 	.word	0x00008580

00003dc0 <rtos::Mutex::lock(unsigned long)>:
    3dc0:	6800      	ldr	r0, [r0, #0]
    3dc2:	f7fe bf57 	b.w	2c74 <osMutexWait>
    3dc6:	bf00      	nop

00003dc8 <rtos::Mutex::unlock()>:
    3dc8:	6800      	ldr	r0, [r0, #0]
    3dca:	f7fe bf5f 	b.w	2c8c <osMutexRelease>
    3dce:	bf00      	nop

00003dd0 <rtos::Mutex::~Mutex()>:
    3dd0:	b510      	push	{r4, lr}
    3dd2:	4604      	mov	r4, r0
    3dd4:	6800      	ldr	r0, [r0, #0]
    3dd6:	f7fe ff65 	bl	2ca4 <osMutexDelete>
    3dda:	4620      	mov	r0, r4
    3ddc:	bd10      	pop	{r4, pc}
    3dde:	bf00      	nop

00003de0 <rtos::Thread::~Thread()>:
    3de0:	4b07      	ldr	r3, [pc, #28]	; (3e00 <rtos::Thread::~Thread()+0x20>)
    3de2:	b510      	push	{r4, lr}
    3de4:	6003      	str	r3, [r0, #0]
    3de6:	4604      	mov	r4, r0
    3de8:	6840      	ldr	r0, [r0, #4]
    3dea:	f7fe fe55 	bl	2a98 <osThreadTerminate>
    3dee:	f894 3048 	ldrb.w	r3, [r4, #72]	; 0x48
    3df2:	b11b      	cbz	r3, 3dfc <rtos::Thread::~Thread()+0x1c>
    3df4:	6960      	ldr	r0, [r4, #20]
    3df6:	b108      	cbz	r0, 3dfc <rtos::Thread::~Thread()+0x1c>
    3df8:	f001 fb42 	bl	5480 <operator delete[](void*)>
    3dfc:	4620      	mov	r0, r4
    3dfe:	bd10      	pop	{r4, pc}
    3e00:	000085d8 	.word	0x000085d8

00003e04 <rtos::Thread::~Thread()>:
    3e04:	b510      	push	{r4, lr}
    3e06:	4604      	mov	r4, r0
    3e08:	f7ff ffea 	bl	3de0 <rtos::Thread::~Thread()>
    3e0c:	4620      	mov	r0, r4
    3e0e:	f001 fb33 	bl	5478 <operator delete(void*)>
    3e12:	4620      	mov	r0, r4
    3e14:	bd10      	pop	{r4, pc}
    3e16:	bf00      	nop

00003e18 <rtos::Thread::Thread(void (*)(void const*), void*, osPriority, unsigned long, unsigned char*)>:
    3e18:	b5f0      	push	{r4, r5, r6, r7, lr}
    3e1a:	b083      	sub	sp, #12
    3e1c:	4f12      	ldr	r7, [pc, #72]	; (3e68 <rtos::Thread::Thread(void (*)(void const*), void*, osPriority, unsigned long, unsigned char*)+0x50>)
    3e1e:	9e08      	ldr	r6, [sp, #32]
    3e20:	9d09      	ldr	r5, [sp, #36]	; 0x24
    3e22:	4604      	mov	r4, r0
    3e24:	6081      	str	r1, [r0, #8]
    3e26:	8183      	strh	r3, [r0, #12]
    3e28:	6007      	str	r7, [r0, #0]
    3e2a:	6106      	str	r6, [r0, #16]
    3e2c:	b165      	cbz	r5, 3e48 <rtos::Thread::Thread(void (*)(void const*), void*, osPriority, unsigned long, unsigned char*)+0x30>
    3e2e:	2300      	movs	r3, #0
    3e30:	6145      	str	r5, [r0, #20]
    3e32:	f880 3048 	strb.w	r3, [r0, #72]	; 0x48
    3e36:	4611      	mov	r1, r2
    3e38:	f104 0008 	add.w	r0, r4, #8
    3e3c:	f7fe fe12 	bl	2a64 <osThreadCreate>
    3e40:	6060      	str	r0, [r4, #4]
    3e42:	4620      	mov	r0, r4
    3e44:	b003      	add	sp, #12
    3e46:	bdf0      	pop	{r4, r5, r6, r7, pc}
    3e48:	4630      	mov	r0, r6
    3e4a:	9201      	str	r2, [sp, #4]
    3e4c:	f001 fb2e 	bl	54ac <operator new[](unsigned int)>
    3e50:	9a01      	ldr	r2, [sp, #4]
    3e52:	6160      	str	r0, [r4, #20]
    3e54:	b118      	cbz	r0, 3e5e <rtos::Thread::Thread(void (*)(void const*), void*, osPriority, unsigned long, unsigned char*)+0x46>
    3e56:	2301      	movs	r3, #1
    3e58:	f884 3048 	strb.w	r3, [r4, #72]	; 0x48
    3e5c:	e7eb      	b.n	3e36 <rtos::Thread::Thread(void (*)(void const*), void*, osPriority, unsigned long, unsigned char*)+0x1e>
    3e5e:	4803      	ldr	r0, [pc, #12]	; (3e6c <rtos::Thread::Thread(void (*)(void const*), void*, osPriority, unsigned long, unsigned char*)+0x54>)
    3e60:	f000 f98e 	bl	4180 <error>
    3e64:	9a01      	ldr	r2, [sp, #4]
    3e66:	e7f6      	b.n	3e56 <rtos::Thread::Thread(void (*)(void const*), void*, osPriority, unsigned long, unsigned char*)+0x3e>
    3e68:	000085d8 	.word	0x000085d8
    3e6c:	000085a8 	.word	0x000085a8

00003e70 <rtos::Thread::wait(unsigned long)>:
    3e70:	f7fe be3c 	b.w	2aec <osDelay>

00003e74 <rt_set_PSP>:
    3e74:	f380 8809 	msr	PSP, r0
    3e78:	4770      	bx	lr

00003e7a <rt_get_PSP>:
    3e7a:	f3ef 8009 	mrs	r0, PSP
    3e7e:	4770      	bx	lr

00003e80 <os_set_env>:
    3e80:	4668      	mov	r0, sp
    3e82:	f380 8809 	msr	PSP, r0
    3e86:	4841      	ldr	r0, [pc, #260]	; (3f8c <OS_Tick_Handler+0xe>)
    3e88:	7800      	ldrb	r0, [r0, #0]
    3e8a:	07c0      	lsls	r0, r0, #31
    3e8c:	bf14      	ite	ne
    3e8e:	2002      	movne	r0, #2
    3e90:	2003      	moveq	r0, #3
    3e92:	f380 8814 	msr	CONTROL, r0
    3e96:	4770      	bx	lr

00003e98 <_alloc_box>:
    3e98:	f8df c0f4 	ldr.w	r12, [pc, #244]	; 3f90 <OS_Tick_Handler+0x12>
    3e9c:	f3ef 8305 	mrs	r3, IPSR
    3ea0:	061b      	lsls	r3, r3, #24
    3ea2:	bf18      	it	ne
    3ea4:	4760      	bxne	r12
    3ea6:	f3ef 8314 	mrs	r3, CONTROL
    3eaa:	07db      	lsls	r3, r3, #31
    3eac:	bf08      	it	eq
    3eae:	4760      	bxeq	r12
    3eb0:	df00      	svc	0
    3eb2:	4770      	bx	lr

00003eb4 <_free_box>:
    3eb4:	f8df c0dc 	ldr.w	r12, [pc, #220]	; 3f94 <OS_Tick_Handler+0x16>
    3eb8:	f3ef 8305 	mrs	r3, IPSR
    3ebc:	061b      	lsls	r3, r3, #24
    3ebe:	bf18      	it	ne
    3ec0:	4760      	bxne	r12
    3ec2:	f3ef 8314 	mrs	r3, CONTROL
    3ec6:	07db      	lsls	r3, r3, #31
    3ec8:	bf08      	it	eq
    3eca:	4760      	bxeq	r12
    3ecc:	df00      	svc	0
    3ece:	4770      	bx	lr

00003ed0 <SVC_Handler>:
    3ed0:	f3ef 8009 	mrs	r0, PSP
    3ed4:	6981      	ldr	r1, [r0, #24]
    3ed6:	f811 1c02 	ldrb.w	r1, [r1, #-2]
    3eda:	b9f9      	cbnz	r1, 3f1c <SVC_User>
    3edc:	e890 100f 	ldmia.w	r0, {r0, r1, r2, r3, r12}
    3ee0:	47e0      	blx	r12
    3ee2:	f3ef 8c09 	mrs	r12, PSP
    3ee6:	e88c 0007 	stmia.w	r12, {r0, r1, r2}
    3eea:	4b2b      	ldr	r3, [pc, #172]	; (3f98 <OS_Tick_Handler+0x1a>)
    3eec:	e893 0006 	ldmia.w	r3, {r1, r2}
    3ef0:	4291      	cmp	r1, r2
    3ef2:	f000 8010 	beq.w	3f16 <SVC_Exit>
    3ef6:	b139      	cbz	r1, 3f08 <SVC_Next>
    3ef8:	e92c 0ff0 	stmdb	r12!, {r4, r5, r6, r7, r8, r9, r10, r11}
    3efc:	f8c1 c024 	str.w	r12, [r1, #36]	; 0x24
    3f00:	b40c      	push	{r2, r3}
    3f02:	f7ff fd8d 	bl	3a20 <rt_stk_check>
    3f06:	bc0c      	pop	{r2, r3}

00003f08 <SVC_Next>:
    3f08:	601a      	str	r2, [r3, #0]
    3f0a:	f8d2 c024 	ldr.w	r12, [r2, #36]	; 0x24
    3f0e:	e8bc 0ff0 	ldmia.w	r12!, {r4, r5, r6, r7, r8, r9, r10, r11}
    3f12:	f38c 8809 	msr	PSP, r12

00003f16 <SVC_Exit>:
    3f16:	f06f 0e02 	mvn.w	lr, #2
    3f1a:	4770      	bx	lr

00003f1c <SVC_User>:
    3f1c:	b510      	push	{r4, lr}
    3f1e:	4a1f      	ldr	r2, [pc, #124]	; (3f9c <OS_Tick_Handler+0x1e>)
    3f20:	6812      	ldr	r2, [r2, #0]
    3f22:	4291      	cmp	r1, r2
    3f24:	f200 800a 	bhi.w	3f3c <SVC_Done>
    3f28:	4c1d      	ldr	r4, [pc, #116]	; (3fa0 <OS_Tick_Handler+0x22>)
    3f2a:	f854 4021 	ldr.w	r4, [r4, r1, lsl #2]
    3f2e:	e890 100f 	ldmia.w	r0, {r0, r1, r2, r3, r12}
    3f32:	47a0      	blx	r4
    3f34:	f3ef 8c09 	mrs	r12, PSP
    3f38:	e88c 000f 	stmia.w	r12, {r0, r1, r2, r3}

00003f3c <SVC_Done>:
    3f3c:	bd10      	pop	{r4, pc}

00003f3e <PendSV_Handler>:
    3f3e:	f7ff fcf5 	bl	392c <rt_pop_req>

00003f42 <Sys_Switch>:
    3f42:	4b15      	ldr	r3, [pc, #84]	; (3f98 <OS_Tick_Handler+0x1a>)
    3f44:	e893 0006 	ldmia.w	r3, {r1, r2}
    3f48:	4291      	cmp	r1, r2
    3f4a:	f000 8011 	beq.w	3f70 <Sys_Exit>
    3f4e:	f3ef 8c09 	mrs	r12, PSP
    3f52:	e92c 0ff0 	stmdb	r12!, {r4, r5, r6, r7, r8, r9, r10, r11}
    3f56:	f8c1 c024 	str.w	r12, [r1, #36]	; 0x24
    3f5a:	b40c      	push	{r2, r3}
    3f5c:	f7ff fd60 	bl	3a20 <rt_stk_check>
    3f60:	bc0c      	pop	{r2, r3}
    3f62:	601a      	str	r2, [r3, #0]
    3f64:	f8d2 c024 	ldr.w	r12, [r2, #36]	; 0x24
    3f68:	e8bc 0ff0 	ldmia.w	r12!, {r4, r5, r6, r7, r8, r9, r10, r11}
    3f6c:	f38c 8809 	msr	PSP, r12

00003f70 <Sys_Exit>:
    3f70:	f06f 0e02 	mvn.w	lr, #2
    3f74:	4770      	bx	lr

00003f76 <SysTick_Handler>:
    3f76:	f7ff fd35 	bl	39e4 <rt_systick>
    3f7a:	f7ff bfe2 	b.w	3f42 <Sys_Switch>

00003f7e <OS_Tick_Handler>:
    3f7e:	f7ff fd2f 	bl	39e0 <os_tick_irqack>
    3f82:	f7ff fd2f 	bl	39e4 <rt_systick>
    3f86:	f7ff bfdc 	b.w	3f42 <Sys_Switch>
    3f8a:	0000      	.short	0x0000
    3f8c:	000085ec 	.word	0x000085ec
    3f90:	000036e1 	.word	0x000036e1
    3f94:	000036fd 	.word	0x000036fd
    3f98:	100004dc 	.word	0x100004dc
    3f9c:	00000000 	.word	0x00000000
    3fa0:	fffffffc 	.word	0xfffffffc

00003fa4 <rt_init_stack>:
    3fa4:	b4f0      	push	{r4, r5, r6, r7}
    3fa6:	8c45      	ldrh	r5, [r0, #34]	; 0x22
    3fa8:	6a86      	ldr	r6, [r0, #40]	; 0x28
    3faa:	08ad      	lsrs	r5, r5, #2
    3fac:	eb06 0585 	add.w	r5, r6, r5, lsl #2
    3fb0:	076b      	lsls	r3, r5, #29
    3fb2:	bf48      	it	mi
    3fb4:	3d04      	submi	r5, #4
    3fb6:	f04f 7380 	mov.w	r3, #16777216	; 0x1000000
    3fba:	e905 000a 	stmdb	r5, {r1, r3}
    3fbe:	f1a5 0740 	sub.w	r7, r5, #64	; 0x40
    3fc2:	f1a5 0344 	sub.w	r3, r5, #68	; 0x44
    3fc6:	f1a5 040c 	sub.w	r4, r5, #12
    3fca:	2200      	movs	r2, #0
    3fcc:	f843 2f04 	str.w	r2, [r3, #4]!
    3fd0:	42a3      	cmp	r3, r4
    3fd2:	d1fb      	bne.n	3fcc <rt_init_stack+0x28>
    3fd4:	69c3      	ldr	r3, [r0, #28]
    3fd6:	f845 3c20 	str.w	r3, [r5, #-32]
    3fda:	78c3      	ldrb	r3, [r0, #3]
    3fdc:	6247      	str	r7, [r0, #36]	; 0x24
    3fde:	2b01      	cmp	r3, #1
    3fe0:	bf18      	it	ne
    3fe2:	4b03      	ldrne	r3, [pc, #12]	; (3ff0 <rt_init_stack+0x4c>)
    3fe4:	62c1      	str	r1, [r0, #44]	; 0x2c
    3fe6:	bf18      	it	ne
    3fe8:	6033      	strne	r3, [r6, #0]
    3fea:	bcf0      	pop	{r4, r5, r6, r7}
    3fec:	4770      	bx	lr
    3fee:	bf00      	nop
    3ff0:	e25a2ea5 	.word	0xe25a2ea5

00003ff4 <rt_ret_val>:
    3ff4:	6a43      	ldr	r3, [r0, #36]	; 0x24
    3ff6:	6219      	str	r1, [r3, #32]
    3ff8:	4770      	bx	lr
    3ffa:	bf00      	nop

00003ffc <rt_ret_val2>:
    3ffc:	6a43      	ldr	r3, [r0, #36]	; 0x24
    3ffe:	6219      	str	r1, [r3, #32]
    4000:	625a      	str	r2, [r3, #36]	; 0x24
    4002:	4770      	bx	lr

00004004 <os_idle_demon>:
    4004:	e7fe      	b.n	4004 <os_idle_demon>
    4006:	bf00      	nop

00004008 <os_error>:
    4008:	f000 b880 	b.w	410c <mbed_die>

0000400c <sysThreadError>:
    400c:	b900      	cbnz	r0, 4010 <sysThreadError+0x4>
    400e:	4770      	bx	lr
    4010:	f000 b87c 	b.w	410c <mbed_die>

00004014 <set_main_stack>:
    4014:	4904      	ldr	r1, [pc, #16]	; (4028 <set_main_stack+0x14>)
    4016:	4a05      	ldr	r2, [pc, #20]	; (402c <set_main_stack+0x18>)
    4018:	f1c1 5380 	rsb	r3, r1, #268435456	; 0x10000000
    401c:	f503 43f8 	add.w	r3, r3, #31744	; 0x7c00
    4020:	6093      	str	r3, [r2, #8]
    4022:	60d1      	str	r1, [r2, #12]
    4024:	4770      	bx	lr
    4026:	bf00      	nop
    4028:	10001018 	.word	0x10001018
    402c:	100000c8 	.word	0x100000c8

00004030 <software_init_hook>:
    4030:	2000      	movs	r0, #0
    4032:	2100      	movs	r1, #0
    4034:	4604      	mov	r4, r0
    4036:	460d      	mov	r5, r1
    4038:	4809      	ldr	r0, [pc, #36]	; (4060 <software_init_hook+0x30>)
    403a:	f001 fa39 	bl	54b0 <atexit>
    403e:	f001 fe07 	bl	5c50 <__libc_init_array>
    4042:	4620      	mov	r0, r4
    4044:	4629      	mov	r1, r5
    4046:	f7fe fc71 	bl	292c <osKernelInitialize>
    404a:	f7ff ffe3 	bl	4014 <set_main_stack>
    404e:	4805      	ldr	r0, [pc, #20]	; (4064 <software_init_hook+0x34>)
    4050:	2100      	movs	r1, #0
    4052:	f7fe fd07 	bl	2a64 <osThreadCreate>
    4056:	f7fe fc7d 	bl	2954 <osKernelStart>
    405a:	f000 f8a3 	bl	41a4 <exit>
    405e:	0000      	.short	0x0000
    4060:	000058e5 	.word	0x000058e5
    4064:	100000c8 	.word	0x100000c8

00004068 <rt_init_robin>:
    4068:	4a03      	ldr	r2, [pc, #12]	; (4078 <rt_init_robin+0x10>)
    406a:	4b04      	ldr	r3, [pc, #16]	; (407c <rt_init_robin+0x14>)
    406c:	6811      	ldr	r1, [r2, #0]
    406e:	2200      	movs	r2, #0
    4070:	80d9      	strh	r1, [r3, #6]
    4072:	601a      	str	r2, [r3, #0]
    4074:	4770      	bx	lr
    4076:	bf00      	nop
    4078:	000085e8 	.word	0x000085e8
    407c:	10001000 	.word	0x10001000

00004080 <rt_chk_robin>:
    4080:	4a10      	ldr	r2, [pc, #64]	; (40c4 <rt_chk_robin+0x44>)
    4082:	b508      	push	{r3, lr}
    4084:	4b10      	ldr	r3, [pc, #64]	; (40c8 <rt_chk_robin+0x48>)
    4086:	6851      	ldr	r1, [r2, #4]
    4088:	681a      	ldr	r2, [r3, #0]
    408a:	428a      	cmp	r2, r1
    408c:	d016      	beq.n	40bc <rt_chk_robin+0x3c>
    408e:	480f      	ldr	r0, [pc, #60]	; (40cc <rt_chk_robin+0x4c>)
    4090:	88da      	ldrh	r2, [r3, #6]
    4092:	6800      	ldr	r0, [r0, #0]
    4094:	3a01      	subs	r2, #1
    4096:	4402      	add	r2, r0
    4098:	b292      	uxth	r2, r2
    409a:	6019      	str	r1, [r3, #0]
    409c:	809a      	strh	r2, [r3, #4]
    409e:	b280      	uxth	r0, r0
    40a0:	4290      	cmp	r0, r2
    40a2:	d000      	beq.n	40a6 <rt_chk_robin+0x26>
    40a4:	bd08      	pop	{r3, pc}
    40a6:	2200      	movs	r2, #0
    40a8:	4806      	ldr	r0, [pc, #24]	; (40c4 <rt_chk_robin+0x44>)
    40aa:	601a      	str	r2, [r3, #0]
    40ac:	f7ff f898 	bl	31e0 <rt_get_first>
    40b0:	e8bd 4008 	ldmia.w	sp!, {r3, lr}
    40b4:	4601      	mov	r1, r0
    40b6:	4803      	ldr	r0, [pc, #12]	; (40c4 <rt_chk_robin+0x44>)
    40b8:	f7ff b868 	b.w	318c <rt_put_prio>
    40bc:	4903      	ldr	r1, [pc, #12]	; (40cc <rt_chk_robin+0x4c>)
    40be:	889a      	ldrh	r2, [r3, #4]
    40c0:	6808      	ldr	r0, [r1, #0]
    40c2:	e7ec      	b.n	409e <rt_chk_robin+0x1e>
    40c4:	100004a8 	.word	0x100004a8
    40c8:	10001000 	.word	0x10001000
    40cc:	10000514 	.word	0x10000514

000040d0 <NVIC_SetVector>:
    40d0:	4a0c      	ldr	r2, [pc, #48]	; (4104 <NVIC_SetVector+0x34>)
    40d2:	b430      	push	{r4, r5}
    40d4:	6893      	ldr	r3, [r2, #8]
    40d6:	6894      	ldr	r4, [r2, #8]
    40d8:	461a      	mov	r2, r3
    40da:	f1b4 5f80 	cmp.w	r4, #268435456	; 0x10000000
    40de:	d20c      	bcs.n	40fa <NVIC_SetVector+0x2a>
    40e0:	4a09      	ldr	r2, [pc, #36]	; (4108 <NVIC_SetVector+0x38>)
    40e2:	f103 05c4 	add.w	r5, r3, #196	; 0xc4
    40e6:	f853 4b04 	ldr.w	r4, [r3], #4
    40ea:	42ab      	cmp	r3, r5
    40ec:	f842 4f04 	str.w	r4, [r2, #4]!
    40f0:	d1f9      	bne.n	40e6 <NVIC_SetVector+0x16>
    40f2:	4b04      	ldr	r3, [pc, #16]	; (4104 <NVIC_SetVector+0x34>)
    40f4:	f04f 5280 	mov.w	r2, #268435456	; 0x10000000
    40f8:	609a      	str	r2, [r3, #8]
    40fa:	3010      	adds	r0, #16
    40fc:	f842 1020 	str.w	r1, [r2, r0, lsl #2]
    4100:	bc30      	pop	{r4, r5}
    4102:	4770      	bx	lr
    4104:	e000ed00 	.word	0xe000ed00
    4108:	0ffffffc 	.word	0x0ffffffc

0000410c <mbed_die>:
    410c:	b500      	push	{lr}
    410e:	b099      	sub	sp, #100	; 0x64
    4110:	b672      	cpsid	i
    4112:	4917      	ldr	r1, [pc, #92]	; (4170 <mbed_die+0x64>)
    4114:	4668      	mov	r0, sp
    4116:	f000 f86f 	bl	41f8 <gpio_init_out>
    411a:	a806      	add	r0, sp, #24
    411c:	4915      	ldr	r1, [pc, #84]	; (4174 <mbed_die+0x68>)
    411e:	f000 f86b 	bl	41f8 <gpio_init_out>
    4122:	a80c      	add	r0, sp, #48	; 0x30
    4124:	4914      	ldr	r1, [pc, #80]	; (4178 <mbed_die+0x6c>)
    4126:	f000 f867 	bl	41f8 <gpio_init_out>
    412a:	a812      	add	r0, sp, #72	; 0x48
    412c:	4913      	ldr	r1, [pc, #76]	; (417c <mbed_die+0x70>)
    412e:	f000 f863 	bl	41f8 <gpio_init_out>
    4132:	9b03      	ldr	r3, [sp, #12]
    4134:	9a01      	ldr	r2, [sp, #4]
    4136:	980a      	ldr	r0, [sp, #40]	; 0x28
    4138:	601a      	str	r2, [r3, #0]
    413a:	9b07      	ldr	r3, [sp, #28]
    413c:	9910      	ldr	r1, [sp, #64]	; 0x40
    413e:	6003      	str	r3, [r0, #0]
    4140:	9b0d      	ldr	r3, [sp, #52]	; 0x34
    4142:	9a15      	ldr	r2, [sp, #84]	; 0x54
    4144:	600b      	str	r3, [r1, #0]
    4146:	9b13      	ldr	r3, [sp, #76]	; 0x4c
    4148:	2096      	movs	r0, #150	; 0x96
    414a:	6013      	str	r3, [r2, #0]
    414c:	f000 f8a8 	bl	42a0 <wait_ms>
    4150:	9b04      	ldr	r3, [sp, #16]
    4152:	9a01      	ldr	r2, [sp, #4]
    4154:	9809      	ldr	r0, [sp, #36]	; 0x24
    4156:	601a      	str	r2, [r3, #0]
    4158:	9b07      	ldr	r3, [sp, #28]
    415a:	990f      	ldr	r1, [sp, #60]	; 0x3c
    415c:	6003      	str	r3, [r0, #0]
    415e:	9b0d      	ldr	r3, [sp, #52]	; 0x34
    4160:	9a16      	ldr	r2, [sp, #88]	; 0x58
    4162:	600b      	str	r3, [r1, #0]
    4164:	9b13      	ldr	r3, [sp, #76]	; 0x4c
    4166:	2096      	movs	r0, #150	; 0x96
    4168:	6013      	str	r3, [r2, #0]
    416a:	f000 f899 	bl	42a0 <wait_ms>
    416e:	e7e0      	b.n	4132 <mbed_die+0x26>
    4170:	2009c032 	.word	0x2009c032
    4174:	2009c034 	.word	0x2009c034
    4178:	2009c035 	.word	0x2009c035
    417c:	2009c037 	.word	0x2009c037

00004180 <error>:
    4180:	b40f      	push	{r0, r1, r2, r3}
    4182:	b500      	push	{lr}
    4184:	4a06      	ldr	r2, [pc, #24]	; (41a0 <error+0x20>)
    4186:	b083      	sub	sp, #12
    4188:	ab04      	add	r3, sp, #16
    418a:	6812      	ldr	r2, [r2, #0]
    418c:	f853 1b04 	ldr.w	r1, [r3], #4
    4190:	68d0      	ldr	r0, [r2, #12]
    4192:	461a      	mov	r2, r3
    4194:	9301      	str	r3, [sp, #4]
    4196:	f002 ff7b 	bl	7090 <vfiprintf>
    419a:	2001      	movs	r0, #1
    419c:	f000 f802 	bl	41a4 <exit>
    41a0:	100001b8 	.word	0x100001b8

000041a4 <exit>:
    41a4:	4c0a      	ldr	r4, [pc, #40]	; (41d0 <exit+0x2c>)
    41a6:	b508      	push	{r3, lr}
    41a8:	6823      	ldr	r3, [r4, #0]
    41aa:	4605      	mov	r5, r0
    41ac:	6898      	ldr	r0, [r3, #8]
    41ae:	f001 fa93 	bl	56d8 <fflush>
    41b2:	6823      	ldr	r3, [r4, #0]
    41b4:	68d8      	ldr	r0, [r3, #12]
    41b6:	f001 fa8f 	bl	56d8 <fflush>
    41ba:	f000 f84f 	bl	425c <mbed_interface_connected>
    41be:	b920      	cbnz	r0, 41ca <exit+0x26>
    41c0:	b905      	cbnz	r5, 41c4 <exit+0x20>
    41c2:	e7fe      	b.n	41c2 <exit+0x1e>
    41c4:	f7ff ffa2 	bl	410c <mbed_die>
    41c8:	e7fb      	b.n	41c2 <exit+0x1e>
    41ca:	f000 f849 	bl	4260 <semihost_exit>
    41ce:	e7f7      	b.n	41c0 <exit+0x1c>
    41d0:	100001b8 	.word	0x100001b8

000041d4 <gpio_init_in>:
    41d4:	b538      	push	{r3, r4, r5, lr}
    41d6:	460d      	mov	r5, r1
    41d8:	4604      	mov	r4, r0
    41da:	f000 faad 	bl	4738 <gpio_init>
    41de:	3501      	adds	r5, #1
    41e0:	d009      	beq.n	41f6 <gpio_init_in+0x22>
    41e2:	4620      	mov	r0, r4
    41e4:	2100      	movs	r1, #0
    41e6:	f000 fac7 	bl	4778 <gpio_dir>
    41ea:	4620      	mov	r0, r4
    41ec:	2103      	movs	r1, #3
    41ee:	e8bd 4038 	ldmia.w	sp!, {r3, r4, r5, lr}
    41f2:	f000 babd 	b.w	4770 <gpio_mode>
    41f6:	bd38      	pop	{r3, r4, r5, pc}

000041f8 <gpio_init_out>:
    41f8:	b538      	push	{r3, r4, r5, lr}
    41fa:	460d      	mov	r5, r1
    41fc:	4604      	mov	r4, r0
    41fe:	f000 fa9b 	bl	4738 <gpio_init>
    4202:	3501      	adds	r5, #1
    4204:	d00c      	beq.n	4220 <gpio_init_out+0x28>
    4206:	6923      	ldr	r3, [r4, #16]
    4208:	6862      	ldr	r2, [r4, #4]
    420a:	4620      	mov	r0, r4
    420c:	601a      	str	r2, [r3, #0]
    420e:	2101      	movs	r1, #1
    4210:	f000 fab2 	bl	4778 <gpio_dir>
    4214:	4620      	mov	r0, r4
    4216:	2102      	movs	r1, #2
    4218:	e8bd 4038 	ldmia.w	sp!, {r3, r4, r5, lr}
    421c:	f000 baa8 	b.w	4770 <gpio_mode>
    4220:	bd38      	pop	{r3, r4, r5, pc}
    4222:	bf00      	nop

00004224 <gpio_init_out_ex>:
    4224:	b570      	push	{r4, r5, r6, lr}
    4226:	460d      	mov	r5, r1
    4228:	4616      	mov	r6, r2
    422a:	4604      	mov	r4, r0
    422c:	f000 fa84 	bl	4738 <gpio_init>
    4230:	3501      	adds	r5, #1
    4232:	d011      	beq.n	4258 <gpio_init_out_ex+0x34>
    4234:	b966      	cbnz	r6, 4250 <gpio_init_out_ex+0x2c>
    4236:	6923      	ldr	r3, [r4, #16]
    4238:	6862      	ldr	r2, [r4, #4]
    423a:	601a      	str	r2, [r3, #0]
    423c:	4620      	mov	r0, r4
    423e:	2101      	movs	r1, #1
    4240:	f000 fa9a 	bl	4778 <gpio_dir>
    4244:	4620      	mov	r0, r4
    4246:	2102      	movs	r1, #2
    4248:	e8bd 4070 	ldmia.w	sp!, {r4, r5, r6, lr}
    424c:	f000 ba90 	b.w	4770 <gpio_mode>
    4250:	68e3      	ldr	r3, [r4, #12]
    4252:	6862      	ldr	r2, [r4, #4]
    4254:	601a      	str	r2, [r3, #0]
    4256:	e7f1      	b.n	423c <gpio_init_out_ex+0x18>
    4258:	bd70      	pop	{r4, r5, r6, pc}
    425a:	bf00      	nop

0000425c <mbed_interface_connected>:
    425c:	f000 b80c 	b.w	4278 <semihost_connected>

00004260 <semihost_exit>:
    4260:	b530      	push	{r4, r5, lr}
    4262:	b085      	sub	sp, #20
    4264:	2418      	movs	r4, #24
    4266:	466d      	mov	r5, sp
    4268:	4620      	mov	r0, r4
    426a:	4629      	mov	r1, r5
    426c:	beab      	bkpt	0x00ab
    426e:	4604      	mov	r4, r0
    4270:	4620      	mov	r0, r4
    4272:	b005      	add	sp, #20
    4274:	bd30      	pop	{r4, r5, pc}
    4276:	bf00      	nop

00004278 <semihost_connected>:
    4278:	4b02      	ldr	r3, [pc, #8]	; (4284 <semihost_connected+0xc>)
    427a:	6818      	ldr	r0, [r3, #0]
    427c:	f000 0001 	and.w	r0, r0, #1
    4280:	4770      	bx	lr
    4282:	bf00      	nop
    4284:	e000edf0 	.word	0xe000edf0

00004288 <wait_us>:
    4288:	b538      	push	{r3, r4, r5, lr}
    428a:	4605      	mov	r5, r0
    428c:	f000 feea 	bl	5064 <us_ticker_read>
    4290:	4604      	mov	r4, r0
    4292:	f000 fee7 	bl	5064 <us_ticker_read>
    4296:	1b00      	subs	r0, r0, r4
    4298:	42a8      	cmp	r0, r5
    429a:	d3fa      	bcc.n	4292 <wait_us+0xa>
    429c:	bd38      	pop	{r3, r4, r5, pc}
    429e:	bf00      	nop

000042a0 <wait_ms>:
    42a0:	f44f 737a 	mov.w	r3, #1000	; 0x3e8
    42a4:	fb03 f000 	mul.w	r0, r3, r0
    42a8:	f7ff bfee 	b.w	4288 <wait_us>

000042ac <mbed::FunctionPointer::FunctionPointer(void (*)())>:
    42ac:	2200      	movs	r2, #0
    42ae:	e880 0006 	stmia.w	r0, {r1, r2}
    42b2:	6182      	str	r2, [r0, #24]
    42b4:	4770      	bx	lr
    42b6:	bf00      	nop

000042b8 <mbed::FunctionPointer::call()>:
    42b8:	b508      	push	{r3, lr}
    42ba:	6803      	ldr	r3, [r0, #0]
    42bc:	4601      	mov	r1, r0
    42be:	b10b      	cbz	r3, 42c4 <mbed::FunctionPointer::call()+0xc>
    42c0:	4798      	blx	r3
    42c2:	bd08      	pop	{r3, pc}
    42c4:	6840      	ldr	r0, [r0, #4]
    42c6:	b110      	cbz	r0, 42ce <mbed::FunctionPointer::call()+0x16>
    42c8:	698b      	ldr	r3, [r1, #24]
    42ca:	3108      	adds	r1, #8
    42cc:	4798      	blx	r3
    42ce:	bd08      	pop	{r3, pc}

000042d0 <mbed::Stream::close()>:
    42d0:	2000      	movs	r0, #0
    42d2:	4770      	bx	lr

000042d4 <mbed::Stream::write(void const*, unsigned int)>:
    42d4:	b5f8      	push	{r3, r4, r5, r6, r7, lr}
    42d6:	188e      	adds	r6, r1, r2
    42d8:	42b1      	cmp	r1, r6
    42da:	460f      	mov	r7, r1
    42dc:	4605      	mov	r5, r0
    42de:	d00f      	beq.n	4300 <mbed::Stream::write(void const*, unsigned int)+0x2c>
    42e0:	460c      	mov	r4, r1
    42e2:	e001      	b.n	42e8 <mbed::Stream::write(void const*, unsigned int)+0x14>
    42e4:	42a6      	cmp	r6, r4
    42e6:	d009      	beq.n	42fc <mbed::Stream::write(void const*, unsigned int)+0x28>
    42e8:	682b      	ldr	r3, [r5, #0]
    42ea:	4628      	mov	r0, r5
    42ec:	6a5b      	ldr	r3, [r3, #36]	; 0x24
    42ee:	f814 1b01 	ldrb.w	r1, [r4], #1
    42f2:	4798      	blx	r3
    42f4:	3001      	adds	r0, #1
    42f6:	d1f5      	bne.n	42e4 <mbed::Stream::write(void const*, unsigned int)+0x10>
    42f8:	1be0      	subs	r0, r4, r7
    42fa:	bdf8      	pop	{r3, r4, r5, r6, r7, pc}
    42fc:	1bf0      	subs	r0, r6, r7
    42fe:	bdf8      	pop	{r3, r4, r5, r6, r7, pc}
    4300:	2000      	movs	r0, #0
    4302:	bdf8      	pop	{r3, r4, r5, r6, r7, pc}

00004304 <mbed::Stream::read(void*, unsigned int)>:
    4304:	b5f8      	push	{r3, r4, r5, r6, r7, lr}
    4306:	188e      	adds	r6, r1, r2
    4308:	42b1      	cmp	r1, r6
    430a:	460f      	mov	r7, r1
    430c:	4605      	mov	r5, r0
    430e:	d00f      	beq.n	4330 <mbed::Stream::read(void*, unsigned int)+0x2c>
    4310:	460c      	mov	r4, r1
    4312:	e003      	b.n	431c <mbed::Stream::read(void*, unsigned int)+0x18>
    4314:	f804 0b01 	strb.w	r0, [r4], #1
    4318:	42a6      	cmp	r6, r4
    431a:	d007      	beq.n	432c <mbed::Stream::read(void*, unsigned int)+0x28>
    431c:	682b      	ldr	r3, [r5, #0]
    431e:	4628      	mov	r0, r5
    4320:	6a9b      	ldr	r3, [r3, #40]	; 0x28
    4322:	4798      	blx	r3
    4324:	1c43      	adds	r3, r0, #1
    4326:	d1f5      	bne.n	4314 <mbed::Stream::read(void*, unsigned int)+0x10>
    4328:	1be0      	subs	r0, r4, r7
    432a:	bdf8      	pop	{r3, r4, r5, r6, r7, pc}
    432c:	1bf0      	subs	r0, r6, r7
    432e:	bdf8      	pop	{r3, r4, r5, r6, r7, pc}
    4330:	2000      	movs	r0, #0
    4332:	bdf8      	pop	{r3, r4, r5, r6, r7, pc}

00004334 <mbed::Stream::lseek(long, int)>:
    4334:	2000      	movs	r0, #0
    4336:	4770      	bx	lr

00004338 <mbed::Stream::isatty()>:
    4338:	2000      	movs	r0, #0
    433a:	4770      	bx	lr

0000433c <mbed::Stream::fsync()>:
    433c:	2000      	movs	r0, #0
    433e:	4770      	bx	lr

00004340 <mbed::Stream::flen()>:
    4340:	2000      	movs	r0, #0
    4342:	4770      	bx	lr

00004344 <mbed::Stream::~Stream()>:
    4344:	b510      	push	{r4, lr}
    4346:	4b07      	ldr	r3, [pc, #28]	; (4364 <mbed::Stream::~Stream()+0x20>)
    4348:	4604      	mov	r4, r0
    434a:	f103 0208 	add.w	r2, r3, #8
    434e:	333c      	adds	r3, #60	; 0x3c
    4350:	e880 000c 	stmia.w	r0, {r2, r3}
    4354:	6940      	ldr	r0, [r0, #20]
    4356:	f001 f909 	bl	556c <fclose>
    435a:	4620      	mov	r0, r4
    435c:	f000 ff8a 	bl	5274 <mbed::FileLike::~FileLike()>
    4360:	4620      	mov	r0, r4
    4362:	bd10      	pop	{r4, pc}
    4364:	000085f8 	.word	0x000085f8

00004368 <non-virtual thunk to mbed::Stream::~Stream()>:
    4368:	f1a0 0004 	sub.w	r0, r0, #4
    436c:	f7ff bfea 	b.w	4344 <mbed::Stream::~Stream()>

00004370 <mbed::Stream::~Stream()>:
    4370:	b510      	push	{r4, lr}
    4372:	4604      	mov	r4, r0
    4374:	f7ff ffe6 	bl	4344 <mbed::Stream::~Stream()>
    4378:	4620      	mov	r0, r4
    437a:	f001 f87d 	bl	5478 <operator delete(void*)>
    437e:	4620      	mov	r0, r4
    4380:	bd10      	pop	{r4, pc}
    4382:	bf00      	nop

00004384 <non-virtual thunk to mbed::Stream::~Stream()>:
    4384:	f1a0 0004 	sub.w	r0, r0, #4
    4388:	f7ff bff2 	b.w	4370 <mbed::Stream::~Stream()>

0000438c <mbed::Stream::Stream(char const*)>:
    438c:	b530      	push	{r4, r5, lr}
    438e:	b085      	sub	sp, #20
    4390:	4604      	mov	r4, r0
    4392:	f000 ff9f 	bl	52d4 <mbed::FileLike::FileLike(char const*)>
    4396:	4b0c      	ldr	r3, [pc, #48]	; (43c8 <mbed::Stream::Stream(char const*)+0x3c>)
    4398:	2500      	movs	r5, #0
    439a:	f103 0208 	add.w	r2, r3, #8
    439e:	333c      	adds	r3, #60	; 0x3c
    43a0:	e884 000c 	stmia.w	r4, {r2, r3}
    43a4:	6165      	str	r5, [r4, #20]
    43a6:	4622      	mov	r2, r4
    43a8:	a801      	add	r0, sp, #4
    43aa:	4908      	ldr	r1, [pc, #32]	; (43cc <mbed::Stream::Stream(char const*)+0x40>)
    43ac:	f001 ff8e 	bl	62cc <siprintf>
    43b0:	a801      	add	r0, sp, #4
    43b2:	4907      	ldr	r1, [pc, #28]	; (43d0 <mbed::Stream::Stream(char const*)+0x44>)
    43b4:	f001 faec 	bl	5990 <fopen>
    43b8:	4629      	mov	r1, r5
    43ba:	6160      	str	r0, [r4, #20]
    43bc:	f001 fef6 	bl	61ac <setbuf>
    43c0:	4620      	mov	r0, r4
    43c2:	b005      	add	sp, #20
    43c4:	bd30      	pop	{r4, r5, pc}
    43c6:	bf00      	nop
    43c8:	000085f8 	.word	0x000085f8
    43cc:	00008640 	.word	0x00008640
    43d0:	00008644 	.word	0x00008644

000043d4 <mbed::Stream::getc()>:
    43d4:	b510      	push	{r4, lr}
    43d6:	4604      	mov	r4, r0
    43d8:	6940      	ldr	r0, [r0, #20]
    43da:	f001 f97d 	bl	56d8 <fflush>
    43de:	6960      	ldr	r0, [r4, #20]
    43e0:	e8bd 4010 	ldmia.w	sp!, {r4, lr}
    43e4:	f001 b9b6 	b.w	5754 <fgetc>

000043e8 <mbed::FileHandle::flen()>:
    43e8:	6803      	ldr	r3, [r0, #0]
    43ea:	b570      	push	{r4, r5, r6, lr}
    43ec:	691b      	ldr	r3, [r3, #16]
    43ee:	2100      	movs	r1, #0
    43f0:	2201      	movs	r2, #1
    43f2:	4604      	mov	r4, r0
    43f4:	4798      	blx	r3
    43f6:	1c43      	adds	r3, r0, #1
    43f8:	4605      	mov	r5, r0
    43fa:	d00e      	beq.n	441a <mbed::FileHandle::flen()+0x32>
    43fc:	6823      	ldr	r3, [r4, #0]
    43fe:	4620      	mov	r0, r4
    4400:	691b      	ldr	r3, [r3, #16]
    4402:	2100      	movs	r1, #0
    4404:	2202      	movs	r2, #2
    4406:	4798      	blx	r3
    4408:	6823      	ldr	r3, [r4, #0]
    440a:	4606      	mov	r6, r0
    440c:	4629      	mov	r1, r5
    440e:	691b      	ldr	r3, [r3, #16]
    4410:	4620      	mov	r0, r4
    4412:	2200      	movs	r2, #0
    4414:	4798      	blx	r3
    4416:	4630      	mov	r0, r6
    4418:	bd70      	pop	{r4, r5, r6, pc}
    441a:	bd70      	pop	{r4, r5, r6, pc}

0000441c <mbed::FileHandle::~FileHandle()>:
    441c:	4a08      	ldr	r2, [pc, #32]	; (4440 <mbed::FileHandle::~FileHandle()+0x24>)
    441e:	4b09      	ldr	r3, [pc, #36]	; (4444 <mbed::FileHandle::~FileHandle()+0x28>)
    4420:	b410      	push	{r4}
    4422:	6002      	str	r2, [r0, #0]
    4424:	f503 7180 	add.w	r1, r3, #256	; 0x100
    4428:	2400      	movs	r4, #0
    442a:	f853 2b04 	ldr.w	r2, [r3], #4
    442e:	4282      	cmp	r2, r0
    4430:	bf08      	it	eq
    4432:	f843 4c04 	streq.w	r4, [r3, #-4]
    4436:	428b      	cmp	r3, r1
    4438:	d1f7      	bne.n	442a <mbed::FileHandle::~FileHandle()+0xe>
    443a:	f85d 4b04 	ldr.w	r4, [sp], #4
    443e:	4770      	bx	lr
    4440:	00008668 	.word	0x00008668
    4444:	1000020c 	.word	0x1000020c

00004448 <mbed::FileHandle::~FileHandle()>:
    4448:	4a0a      	ldr	r2, [pc, #40]	; (4474 <mbed::FileHandle::~FileHandle()+0x2c>)
    444a:	4b0b      	ldr	r3, [pc, #44]	; (4478 <mbed::FileHandle::~FileHandle()+0x30>)
    444c:	b510      	push	{r4, lr}
    444e:	f503 7180 	add.w	r1, r3, #256	; 0x100
    4452:	4604      	mov	r4, r0
    4454:	6002      	str	r2, [r0, #0]
    4456:	2000      	movs	r0, #0
    4458:	f853 2b04 	ldr.w	r2, [r3], #4
    445c:	4294      	cmp	r4, r2
    445e:	bf08      	it	eq
    4460:	f843 0c04 	streq.w	r0, [r3, #-4]
    4464:	428b      	cmp	r3, r1
    4466:	d1f7      	bne.n	4458 <mbed::FileHandle::~FileHandle()+0x10>
    4468:	4620      	mov	r0, r4
    446a:	f001 f805 	bl	5478 <operator delete(void*)>
    446e:	4620      	mov	r0, r4
    4470:	bd10      	pop	{r4, pc}
    4472:	bf00      	nop
    4474:	00008668 	.word	0x00008668
    4478:	1000020c 	.word	0x1000020c

0000447c <init_serial() [clone .part.0]>:
    447c:	4802      	ldr	r0, [pc, #8]	; (4488 <init_serial() [clone .part.0]+0xc>)
    447e:	4903      	ldr	r1, [pc, #12]	; (448c <init_serial() [clone .part.0]+0x10>)
    4480:	4a03      	ldr	r2, [pc, #12]	; (4490 <init_serial() [clone .part.0]+0x14>)
    4482:	f000 bcf1 	b.w	4e68 <serial_init>
    4486:	bf00      	nop
    4488:	10001008 	.word	0x10001008
    448c:	2009c002 	.word	0x2009c002
    4490:	2009c003 	.word	0x2009c003

00004494 <_open>:
    4494:	b5f0      	push	{r4, r5, r6, r7, lr}
    4496:	460f      	mov	r7, r1
    4498:	b085      	sub	sp, #20
    449a:	4937      	ldr	r1, [pc, #220]	; (4578 <_open+0xe4>)
    449c:	4606      	mov	r6, r0
    449e:	f001 ffa8 	bl	63f2 <strcmp>
    44a2:	b928      	cbnz	r0, 44b0 <_open+0x1c>
    44a4:	4b35      	ldr	r3, [pc, #212]	; (457c <_open+0xe8>)
    44a6:	681b      	ldr	r3, [r3, #0]
    44a8:	2b00      	cmp	r3, #0
    44aa:	d043      	beq.n	4534 <_open+0xa0>
    44ac:	b005      	add	sp, #20
    44ae:	bdf0      	pop	{r4, r5, r6, r7, pc}
    44b0:	4630      	mov	r0, r6
    44b2:	4933      	ldr	r1, [pc, #204]	; (4580 <_open+0xec>)
    44b4:	f001 ff9d 	bl	63f2 <strcmp>
    44b8:	b930      	cbnz	r0, 44c8 <_open+0x34>
    44ba:	4b30      	ldr	r3, [pc, #192]	; (457c <_open+0xe8>)
    44bc:	681b      	ldr	r3, [r3, #0]
    44be:	2b00      	cmp	r3, #0
    44c0:	d043      	beq.n	454a <_open+0xb6>
    44c2:	2001      	movs	r0, #1
    44c4:	b005      	add	sp, #20
    44c6:	bdf0      	pop	{r4, r5, r6, r7, pc}
    44c8:	4630      	mov	r0, r6
    44ca:	492e      	ldr	r1, [pc, #184]	; (4584 <_open+0xf0>)
    44cc:	f001 ff91 	bl	63f2 <strcmp>
    44d0:	2800      	cmp	r0, #0
    44d2:	d035      	beq.n	4540 <_open+0xac>
    44d4:	4b2c      	ldr	r3, [pc, #176]	; (4588 <_open+0xf4>)
    44d6:	2400      	movs	r4, #0
    44d8:	e002      	b.n	44e0 <_open+0x4c>
    44da:	3401      	adds	r4, #1
    44dc:	2c40      	cmp	r4, #64	; 0x40
    44de:	d03d      	beq.n	455c <_open+0xc8>
    44e0:	f853 5f04 	ldr.w	r5, [r3, #4]!
    44e4:	2d00      	cmp	r5, #0
    44e6:	d1f8      	bne.n	44da <_open+0x46>
    44e8:	7833      	ldrb	r3, [r6, #0]
    44ea:	2b3a      	cmp	r3, #58	; 0x3a
    44ec:	d03d      	beq.n	456a <_open+0xd6>
    44ee:	4631      	mov	r1, r6
    44f0:	a802      	add	r0, sp, #8
    44f2:	f000 ff03 	bl	52fc <mbed::FilePath::FilePath(char const*)>
    44f6:	a802      	add	r0, sp, #8
    44f8:	f000 ff52 	bl	53a0 <mbed::FilePath::exists()>
    44fc:	2800      	cmp	r0, #0
    44fe:	d02d      	beq.n	455c <_open+0xc8>
    4500:	a802      	add	r0, sp, #8
    4502:	f000 ff35 	bl	5370 <mbed::FilePath::isFile()>
    4506:	bb20      	cbnz	r0, 4552 <_open+0xbe>
    4508:	a802      	add	r0, sp, #8
    450a:	f000 ff25 	bl	5358 <mbed::FilePath::fileSystem()>
    450e:	4605      	mov	r5, r0
    4510:	b320      	cbz	r0, 455c <_open+0xc8>
    4512:	6803      	ldr	r3, [r0, #0]
    4514:	a802      	add	r0, sp, #8
    4516:	689e      	ldr	r6, [r3, #8]
    4518:	f000 ff1c 	bl	5354 <mbed::FilePath::fileName()>
    451c:	463a      	mov	r2, r7
    451e:	4601      	mov	r1, r0
    4520:	4628      	mov	r0, r5
    4522:	47b0      	blx	r6
    4524:	4603      	mov	r3, r0
    4526:	b1cb      	cbz	r3, 455c <_open+0xc8>
    4528:	4a18      	ldr	r2, [pc, #96]	; (458c <_open+0xf8>)
    452a:	1ce0      	adds	r0, r4, #3
    452c:	f842 3024 	str.w	r3, [r2, r4, lsl #2]
    4530:	b005      	add	sp, #20
    4532:	bdf0      	pop	{r4, r5, r6, r7, pc}
    4534:	9001      	str	r0, [sp, #4]
    4536:	f7ff ffa1 	bl	447c <init_serial() [clone .part.0]>
    453a:	9801      	ldr	r0, [sp, #4]
    453c:	b005      	add	sp, #20
    453e:	bdf0      	pop	{r4, r5, r6, r7, pc}
    4540:	4b0e      	ldr	r3, [pc, #56]	; (457c <_open+0xe8>)
    4542:	681b      	ldr	r3, [r3, #0]
    4544:	b16b      	cbz	r3, 4562 <_open+0xce>
    4546:	2002      	movs	r0, #2
    4548:	e7b0      	b.n	44ac <_open+0x18>
    454a:	f7ff ff97 	bl	447c <init_serial() [clone .part.0]>
    454e:	2001      	movs	r0, #1
    4550:	e7ac      	b.n	44ac <_open+0x18>
    4552:	a802      	add	r0, sp, #8
    4554:	f000 ff16 	bl	5384 <mbed::FilePath::file()>
    4558:	4603      	mov	r3, r0
    455a:	e7e4      	b.n	4526 <_open+0x92>
    455c:	f04f 30ff 	mov.w	r0, #4294967295	; 0xffffffff
    4560:	e7a4      	b.n	44ac <_open+0x18>
    4562:	f7ff ff8b 	bl	447c <init_serial() [clone .part.0]>
    4566:	2002      	movs	r0, #2
    4568:	e7a0      	b.n	44ac <_open+0x18>
    456a:	4630      	mov	r0, r6
    456c:	4908      	ldr	r1, [pc, #32]	; (4590 <_open+0xfc>)
    456e:	aa02      	add	r2, sp, #8
    4570:	f001 fed0 	bl	6314 <siscanf>
    4574:	9b02      	ldr	r3, [sp, #8]
    4576:	e7d6      	b.n	4526 <_open+0x92>
    4578:	00008648 	.word	0x00008648
    457c:	1000030c 	.word	0x1000030c
    4580:	00008658 	.word	0x00008658
    4584:	00008650 	.word	0x00008650
    4588:	10000208 	.word	0x10000208
    458c:	1000020c 	.word	0x1000020c
    4590:	00008640 	.word	0x00008640

00004594 <_close>:
    4594:	2802      	cmp	r0, #2
    4596:	b508      	push	{r3, lr}
    4598:	dd0b      	ble.n	45b2 <_close+0x1e>
    459a:	4b08      	ldr	r3, [pc, #32]	; (45bc <_close+0x28>)
    459c:	1ec2      	subs	r2, r0, #3
    459e:	f853 0022 	ldr.w	r0, [r3, r2, lsl #2]
    45a2:	2100      	movs	r1, #0
    45a4:	f843 1022 	str.w	r1, [r3, r2, lsl #2]
    45a8:	b128      	cbz	r0, 45b6 <_close+0x22>
    45aa:	6803      	ldr	r3, [r0, #0]
    45ac:	685b      	ldr	r3, [r3, #4]
    45ae:	4798      	blx	r3
    45b0:	bd08      	pop	{r3, pc}
    45b2:	2000      	movs	r0, #0
    45b4:	bd08      	pop	{r3, pc}
    45b6:	f04f 30ff 	mov.w	r0, #4294967295	; 0xffffffff
    45ba:	bd08      	pop	{r3, pc}
    45bc:	1000020c 	.word	0x1000020c

000045c0 <_write>:
    45c0:	2802      	cmp	r0, #2
    45c2:	b570      	push	{r4, r5, r6, lr}
    45c4:	460c      	mov	r4, r1
    45c6:	4616      	mov	r6, r2
    45c8:	dc0f      	bgt.n	45ea <_write+0x2a>
    45ca:	4b0e      	ldr	r3, [pc, #56]	; (4604 <_write+0x44>)
    45cc:	681b      	ldr	r3, [r3, #0]
    45ce:	b90b      	cbnz	r3, 45d4 <_write+0x14>
    45d0:	f7ff ff54 	bl	447c <init_serial() [clone .part.0]>
    45d4:	19a5      	adds	r5, r4, r6
    45d6:	b136      	cbz	r6, 45e6 <_write+0x26>
    45d8:	f814 1b01 	ldrb.w	r1, [r4], #1
    45dc:	480a      	ldr	r0, [pc, #40]	; (4608 <_write+0x48>)
    45de:	f000 fb93 	bl	4d08 <serial_putc>
    45e2:	42ac      	cmp	r4, r5
    45e4:	d1f8      	bne.n	45d8 <_write+0x18>
    45e6:	4630      	mov	r0, r6
    45e8:	bd70      	pop	{r4, r5, r6, pc}
    45ea:	4b08      	ldr	r3, [pc, #32]	; (460c <_write+0x4c>)
    45ec:	3803      	subs	r0, #3
    45ee:	f853 0020 	ldr.w	r0, [r3, r0, lsl #2]
    45f2:	b118      	cbz	r0, 45fc <_write+0x3c>
    45f4:	6803      	ldr	r3, [r0, #0]
    45f6:	681b      	ldr	r3, [r3, #0]
    45f8:	4798      	blx	r3
    45fa:	bd70      	pop	{r4, r5, r6, pc}
    45fc:	f04f 30ff 	mov.w	r0, #4294967295	; 0xffffffff
    4600:	bd70      	pop	{r4, r5, r6, pc}
    4602:	bf00      	nop
    4604:	1000030c 	.word	0x1000030c
    4608:	10001008 	.word	0x10001008
    460c:	1000020c 	.word	0x1000020c

00004610 <_read>:
    4610:	2802      	cmp	r0, #2
    4612:	b510      	push	{r4, lr}
    4614:	460c      	mov	r4, r1
    4616:	dc09      	bgt.n	462c <_read+0x1c>
    4618:	4b0d      	ldr	r3, [pc, #52]	; (4650 <_read+0x40>)
    461a:	681b      	ldr	r3, [r3, #0]
    461c:	b18b      	cbz	r3, 4642 <_read+0x32>
    461e:	480d      	ldr	r0, [pc, #52]	; (4654 <_read+0x44>)
    4620:	f000 fb26 	bl	4c70 <serial_getc>
    4624:	2301      	movs	r3, #1
    4626:	7020      	strb	r0, [r4, #0]
    4628:	4618      	mov	r0, r3
    462a:	bd10      	pop	{r4, pc}
    462c:	4b0a      	ldr	r3, [pc, #40]	; (4658 <_read+0x48>)
    462e:	3803      	subs	r0, #3
    4630:	f853 0020 	ldr.w	r0, [r3, r0, lsl #2]
    4634:	b140      	cbz	r0, 4648 <_read+0x38>
    4636:	6803      	ldr	r3, [r0, #0]
    4638:	689b      	ldr	r3, [r3, #8]
    463a:	4798      	blx	r3
    463c:	4603      	mov	r3, r0
    463e:	4618      	mov	r0, r3
    4640:	bd10      	pop	{r4, pc}
    4642:	f7ff ff1b 	bl	447c <init_serial() [clone .part.0]>
    4646:	e7ea      	b.n	461e <_read+0xe>
    4648:	f04f 33ff 	mov.w	r3, #4294967295	; 0xffffffff
    464c:	e7ec      	b.n	4628 <_read+0x18>
    464e:	bf00      	nop
    4650:	1000030c 	.word	0x1000030c
    4654:	10001008 	.word	0x10001008
    4658:	1000020c 	.word	0x1000020c

0000465c <_isatty>:
    465c:	2802      	cmp	r0, #2
    465e:	b508      	push	{r3, lr}
    4660:	dd08      	ble.n	4674 <_isatty+0x18>
    4662:	4b07      	ldr	r3, [pc, #28]	; (4680 <_isatty+0x24>)
    4664:	3803      	subs	r0, #3
    4666:	f853 0020 	ldr.w	r0, [r3, r0, lsl #2]
    466a:	b128      	cbz	r0, 4678 <_isatty+0x1c>
    466c:	6803      	ldr	r3, [r0, #0]
    466e:	68db      	ldr	r3, [r3, #12]
    4670:	4798      	blx	r3
    4672:	bd08      	pop	{r3, pc}
    4674:	2001      	movs	r0, #1
    4676:	bd08      	pop	{r3, pc}
    4678:	f04f 30ff 	mov.w	r0, #4294967295	; 0xffffffff
    467c:	bd08      	pop	{r3, pc}
    467e:	bf00      	nop
    4680:	1000020c 	.word	0x1000020c

00004684 <_lseek>:
    4684:	2802      	cmp	r0, #2
    4686:	b508      	push	{r3, lr}
    4688:	dd08      	ble.n	469c <_lseek+0x18>
    468a:	4b07      	ldr	r3, [pc, #28]	; (46a8 <_lseek+0x24>)
    468c:	3803      	subs	r0, #3
    468e:	f853 0020 	ldr.w	r0, [r3, r0, lsl #2]
    4692:	b128      	cbz	r0, 46a0 <_lseek+0x1c>
    4694:	6803      	ldr	r3, [r0, #0]
    4696:	691b      	ldr	r3, [r3, #16]
    4698:	4798      	blx	r3
    469a:	bd08      	pop	{r3, pc}
    469c:	2000      	movs	r0, #0
    469e:	bd08      	pop	{r3, pc}
    46a0:	f04f 30ff 	mov.w	r0, #4294967295	; 0xffffffff
    46a4:	bd08      	pop	{r3, pc}
    46a6:	bf00      	nop
    46a8:	1000020c 	.word	0x1000020c

000046ac <_fstat>:
    46ac:	2802      	cmp	r0, #2
    46ae:	b508      	push	{r3, lr}
    46b0:	d804      	bhi.n	46bc <_fstat+0x10>
    46b2:	f44f 5300 	mov.w	r3, #8192	; 0x2000
    46b6:	604b      	str	r3, [r1, #4]
    46b8:	2000      	movs	r0, #0
    46ba:	bd08      	pop	{r3, pc}
    46bc:	f000 fefe 	bl	54bc <__errno>
    46c0:	2309      	movs	r3, #9
    46c2:	6003      	str	r3, [r0, #0]
    46c4:	f04f 30ff 	mov.w	r0, #4294967295	; 0xffffffff
    46c8:	bd08      	pop	{r3, pc}
    46ca:	bf00      	nop

000046cc <_sbrk>:
    46cc:	4a07      	ldr	r2, [pc, #28]	; (46ec <_sbrk+0x20>)
    46ce:	6813      	ldr	r3, [r2, #0]
    46d0:	4418      	add	r0, r3
    46d2:	f3ef 8108 	mrs	r1, MSP
    46d6:	4288      	cmp	r0, r1
    46d8:	d202      	bcs.n	46e0 <_sbrk+0x14>
    46da:	6010      	str	r0, [r2, #0]
    46dc:	4618      	mov	r0, r3
    46de:	4770      	bx	lr
    46e0:	4b03      	ldr	r3, [pc, #12]	; (46f0 <_sbrk+0x24>)
    46e2:	220c      	movs	r2, #12
    46e4:	601a      	str	r2, [r3, #0]
    46e6:	f04f 30ff 	mov.w	r0, #4294967295	; 0xffffffff
    46ea:	4770      	bx	lr
    46ec:	10000150 	.word	0x10000150
    46f0:	10001010 	.word	0x10001010

000046f4 <Reset_Handler>:
    46f4:	4906      	ldr	r1, [pc, #24]	; (4710 <Reset_Handler+0x1c>)
    46f6:	4a07      	ldr	r2, [pc, #28]	; (4714 <Reset_Handler+0x20>)
    46f8:	4b07      	ldr	r3, [pc, #28]	; (4718 <Reset_Handler+0x24>)
    46fa:	429a      	cmp	r2, r3
    46fc:	bfbe      	ittt	lt
    46fe:	f851 0b04 	ldrlt.w	r0, [r1], #4
    4702:	f842 0b04 	strlt.w	r0, [r2], #4
    4706:	e7f8      	blt.n	46fa <Reset_Handler+0x6>
    4708:	4804      	ldr	r0, [pc, #16]	; (471c <Reset_Handler+0x28>)
    470a:	4780      	blx	r0
    470c:	4804      	ldr	r0, [pc, #16]	; (4720 <Reset_Handler+0x2c>)
    470e:	4700      	bx	r0
    4710:	00009004 	.word	0x00009004
    4714:	100000c8 	.word	0x100000c8
    4718:	100001cc 	.word	0x100001cc
    471c:	000050b1 	.word	0x000050b1
    4720:	000001c9 	.word	0x000001c9

00004724 <NMI_Handler>:
    4724:	e7fe      	b.n	4724 <NMI_Handler>

00004726 <HardFault_Handler>:
    4726:	e7fe      	b.n	4726 <HardFault_Handler>

00004728 <MemManage_Handler>:
    4728:	e7fe      	b.n	4728 <MemManage_Handler>

0000472a <BusFault_Handler>:
    472a:	e7fe      	b.n	472a <BusFault_Handler>

0000472c <UsageFault_Handler>:
    472c:	e7fe      	b.n	472c <UsageFault_Handler>
    472e:	e7fe      	b.n	472e <UsageFault_Handler+0x2>

00004730 <DebugMon_Handler>:
    4730:	e7fe      	b.n	4730 <DebugMon_Handler>
    4732:	e7fe      	b.n	4732 <DebugMon_Handler+0x2>
    4734:	e7fe      	b.n	4734 <DebugMon_Handler+0x4>

00004736 <ADC_IRQHandler>:
    4736:	e7fe      	b.n	4736 <ADC_IRQHandler>

00004738 <gpio_init>:
    4738:	b538      	push	{r3, r4, r5, lr}
    473a:	4604      	mov	r4, r0
    473c:	1c4b      	adds	r3, r1, #1
    473e:	460d      	mov	r5, r1
    4740:	6021      	str	r1, [r4, #0]
    4742:	d014      	beq.n	476e <gpio_init+0x36>
    4744:	4608      	mov	r0, r1
    4746:	2100      	movs	r1, #0
    4748:	f000 f828 	bl	479c <pin_function>
    474c:	f005 031f 	and.w	r3, r5, #31
    4750:	2001      	movs	r0, #1
    4752:	4098      	lsls	r0, r3
    4754:	f025 051f 	bic.w	r5, r5, #31
    4758:	f105 0118 	add.w	r1, r5, #24
    475c:	f105 021c 	add.w	r2, r5, #28
    4760:	f105 0314 	add.w	r3, r5, #20
    4764:	60a5      	str	r5, [r4, #8]
    4766:	6060      	str	r0, [r4, #4]
    4768:	60e1      	str	r1, [r4, #12]
    476a:	6122      	str	r2, [r4, #16]
    476c:	6163      	str	r3, [r4, #20]
    476e:	bd38      	pop	{r3, r4, r5, pc}

00004770 <gpio_mode>:
    4770:	6800      	ldr	r0, [r0, #0]
    4772:	f000 b82b 	b.w	47cc <pin_mode>
    4776:	bf00      	nop

00004778 <gpio_dir>:
    4778:	b141      	cbz	r1, 478c <gpio_dir+0x14>
    477a:	2901      	cmp	r1, #1
    477c:	d105      	bne.n	478a <gpio_dir+0x12>
    477e:	6883      	ldr	r3, [r0, #8]
    4780:	6842      	ldr	r2, [r0, #4]
    4782:	6819      	ldr	r1, [r3, #0]
    4784:	430a      	orrs	r2, r1
    4786:	601a      	str	r2, [r3, #0]
    4788:	4770      	bx	lr
    478a:	4770      	bx	lr
    478c:	6883      	ldr	r3, [r0, #8]
    478e:	6841      	ldr	r1, [r0, #4]
    4790:	681a      	ldr	r2, [r3, #0]
    4792:	ea22 0201 	bic.w	r2, r2, r1
    4796:	601a      	str	r2, [r3, #0]
    4798:	4770      	bx	lr
    479a:	bf00      	nop

0000479c <pin_function>:
    479c:	f100 4060 	add.w	r0, r0, #3758096384	; 0xe0000000
    47a0:	f5a0 201c 	sub.w	r0, r0, #638976	; 0x9c000
    47a4:	f000 030f 	and.w	r3, r0, #15
    47a8:	005b      	lsls	r3, r3, #1
    47aa:	2203      	movs	r2, #3
    47ac:	409a      	lsls	r2, r3
    47ae:	4099      	lsls	r1, r3
    47b0:	0903      	lsrs	r3, r0, #4
    47b2:	009b      	lsls	r3, r3, #2
    47b4:	f103 4380 	add.w	r3, r3, #1073741824	; 0x40000000
    47b8:	f503 3330 	add.w	r3, r3, #180224	; 0x2c000
    47bc:	6818      	ldr	r0, [r3, #0]
    47be:	ea20 0202 	bic.w	r2, r0, r2
    47c2:	601a      	str	r2, [r3, #0]
    47c4:	681a      	ldr	r2, [r3, #0]
    47c6:	4311      	orrs	r1, r2
    47c8:	6019      	str	r1, [r3, #0]
    47ca:	4770      	bx	lr

000047cc <pin_mode>:
    47cc:	f100 4060 	add.w	r0, r0, #3758096384	; 0xe0000000
    47d0:	f5a0 201c 	sub.w	r0, r0, #638976	; 0x9c000
    47d4:	b430      	push	{r4, r5}
    47d6:	f3c1 0280 	ubfx	r2, r1, #2, #1
    47da:	f000 041f 	and.w	r4, r0, #31
    47de:	fa02 f404 	lsl.w	r4, r2, r4
    47e2:	0943      	lsrs	r3, r0, #5
    47e4:	009b      	lsls	r3, r3, #2
    47e6:	f103 4380 	add.w	r3, r3, #1073741824	; 0x40000000
    47ea:	f503 3330 	add.w	r3, r3, #180224	; 0x2c000
    47ee:	6e9d      	ldr	r5, [r3, #104]	; 0x68
    47f0:	ea25 0504 	bic.w	r5, r5, r4
    47f4:	669d      	str	r5, [r3, #104]	; 0x68
    47f6:	6e9d      	ldr	r5, [r3, #104]	; 0x68
    47f8:	432c      	orrs	r4, r5
    47fa:	669c      	str	r4, [r3, #104]	; 0x68
    47fc:	b99a      	cbnz	r2, 4826 <pin_mode+0x5a>
    47fe:	f000 030f 	and.w	r3, r0, #15
    4802:	005b      	lsls	r3, r3, #1
    4804:	2203      	movs	r2, #3
    4806:	409a      	lsls	r2, r3
    4808:	fa01 f303 	lsl.w	r3, r1, r3
    480c:	0900      	lsrs	r0, r0, #4
    480e:	0080      	lsls	r0, r0, #2
    4810:	f100 4080 	add.w	r0, r0, #1073741824	; 0x40000000
    4814:	f500 3030 	add.w	r0, r0, #180224	; 0x2c000
    4818:	6c01      	ldr	r1, [r0, #64]	; 0x40
    481a:	ea21 0202 	bic.w	r2, r1, r2
    481e:	6402      	str	r2, [r0, #64]	; 0x40
    4820:	6c02      	ldr	r2, [r0, #64]	; 0x40
    4822:	4313      	orrs	r3, r2
    4824:	6403      	str	r3, [r0, #64]	; 0x40
    4826:	bc30      	pop	{r4, r5}
    4828:	4770      	bx	lr
    482a:	bf00      	nop

0000482c <uart2_irq>:
    482c:	b508      	push	{r3, lr}
    482e:	4a15      	ldr	r2, [pc, #84]	; (4884 <uart2_irq+0x58>)
    4830:	6893      	ldr	r3, [r2, #8]
    4832:	f3c3 0342 	ubfx	r3, r3, #1, #3
    4836:	2b01      	cmp	r3, #1
    4838:	d01e      	beq.n	4878 <uart2_irq+0x4c>
    483a:	2b02      	cmp	r3, #2
    483c:	d119      	bne.n	4872 <uart2_irq+0x46>
    483e:	4b12      	ldr	r3, [pc, #72]	; (4888 <uart2_irq+0x5c>)
    4840:	6f59      	ldr	r1, [r3, #116]	; 0x74
    4842:	3101      	adds	r1, #1
    4844:	d00a      	beq.n	485c <uart2_irq+0x30>
    4846:	f8d3 1080 	ldr.w	r1, [r3, #128]	; 0x80
    484a:	6f98      	ldr	r0, [r3, #120]	; 0x78
    484c:	6008      	str	r0, [r1, #0]
    484e:	f893 10a6 	ldrb.w	r1, [r3, #166]	; 0xa6
    4852:	b919      	cbnz	r1, 485c <uart2_irq+0x30>
    4854:	6851      	ldr	r1, [r2, #4]
    4856:	f021 0101 	bic.w	r1, r1, #1
    485a:	6051      	str	r1, [r2, #4]
    485c:	6f18      	ldr	r0, [r3, #112]	; 0x70
    485e:	4b0a      	ldr	r3, [pc, #40]	; (4888 <uart2_irq+0x5c>)
    4860:	b148      	cbz	r0, 4876 <uart2_irq+0x4a>
    4862:	f893 30a6 	ldrb.w	r3, [r3, #166]	; 0xa6
    4866:	b12b      	cbz	r3, 4874 <uart2_irq+0x48>
    4868:	2100      	movs	r1, #0
    486a:	4a08      	ldr	r2, [pc, #32]	; (488c <uart2_irq+0x60>)
    486c:	6813      	ldr	r3, [r2, #0]
    486e:	4798      	blx	r3
    4870:	bd08      	pop	{r3, pc}
    4872:	bd08      	pop	{r3, pc}
    4874:	bd08      	pop	{r3, pc}
    4876:	bd08      	pop	{r3, pc}
    4878:	4a03      	ldr	r2, [pc, #12]	; (4888 <uart2_irq+0x5c>)
    487a:	6f10      	ldr	r0, [r2, #112]	; 0x70
    487c:	2800      	cmp	r0, #0
    487e:	d0f9      	beq.n	4874 <uart2_irq+0x48>
    4880:	4619      	mov	r1, r3
    4882:	e7f2      	b.n	486a <uart2_irq+0x3e>
    4884:	40098000 	.word	0x40098000
    4888:	10000314 	.word	0x10000314
    488c:	10000310 	.word	0x10000310

00004890 <serial_irq_set_internal>:
    4890:	b570      	push	{r4, r5, r6, lr}
    4892:	6803      	ldr	r3, [r0, #0]
    4894:	4c29      	ldr	r4, [pc, #164]	; (493c <serial_irq_set_internal+0xac>)
    4896:	42a3      	cmp	r3, r4
    4898:	d049      	beq.n	492e <serial_irq_set_internal+0x9e>
    489a:	dd41      	ble.n	4920 <serial_irq_set_internal+0x90>
    489c:	4c28      	ldr	r4, [pc, #160]	; (4940 <serial_irq_set_internal+0xb0>)
    489e:	42a3      	cmp	r3, r4
    48a0:	d02a      	beq.n	48f8 <serial_irq_set_internal+0x68>
    48a2:	f504 4480 	add.w	r4, r4, #16384	; 0x4000
    48a6:	42a3      	cmp	r3, r4
    48a8:	d144      	bne.n	4934 <serial_irq_set_internal+0xa4>
    48aa:	4c26      	ldr	r4, [pc, #152]	; (4944 <serial_irq_set_internal+0xb4>)
    48ac:	2608      	movs	r6, #8
    48ae:	bb3a      	cbnz	r2, 4900 <serial_irq_set_internal+0x70>
    48b0:	2901      	cmp	r1, #1
    48b2:	d00b      	beq.n	48cc <serial_irq_set_internal+0x3c>
    48b4:	6845      	ldr	r5, [r0, #4]
    48b6:	4a24      	ldr	r2, [pc, #144]	; (4948 <serial_irq_set_internal+0xb8>)
    48b8:	ebc5 05c5 	rsb	r5, r5, r5, lsl #3
    48bc:	eb02 04c5 	add.w	r4, r2, r5, lsl #3
    48c0:	f894 5035 	ldrb.w	r5, [r4, #53]	; 0x35
    48c4:	f894 2036 	ldrb.w	r2, [r4, #54]	; 0x36
    48c8:	42ea      	cmn	r2, r5
    48ca:	d114      	bne.n	48f6 <serial_irq_set_internal+0x66>
    48cc:	2201      	movs	r2, #1
    48ce:	fa02 f501 	lsl.w	r5, r2, r1
    48d2:	f1d1 0101 	rsbs	r1, r1, #1
    48d6:	bf38      	it	cc
    48d8:	2100      	movcc	r1, #0
    48da:	fa02 f101 	lsl.w	r1, r2, r1
    48de:	685c      	ldr	r4, [r3, #4]
    48e0:	ea24 0405 	bic.w	r4, r4, r5
    48e4:	605c      	str	r4, [r3, #4]
    48e6:	6803      	ldr	r3, [r0, #0]
    48e8:	685b      	ldr	r3, [r3, #4]
    48ea:	4219      	tst	r1, r3
    48ec:	d103      	bne.n	48f6 <serial_irq_set_internal+0x66>
    48ee:	40b2      	lsls	r2, r6
    48f0:	4b16      	ldr	r3, [pc, #88]	; (494c <serial_irq_set_internal+0xbc>)
    48f2:	f8c3 2080 	str.w	r2, [r3, #128]	; 0x80
    48f6:	bd70      	pop	{r4, r5, r6, pc}
    48f8:	4c15      	ldr	r4, [pc, #84]	; (4950 <serial_irq_set_internal+0xc0>)
    48fa:	2607      	movs	r6, #7
    48fc:	2a00      	cmp	r2, #0
    48fe:	d0d7      	beq.n	48b0 <serial_irq_set_internal+0x20>
    4900:	2501      	movs	r5, #1
    4902:	fa05 f101 	lsl.w	r1, r5, r1
    4906:	b276      	sxtb	r6, r6
    4908:	4630      	mov	r0, r6
    490a:	fa05 f606 	lsl.w	r6, r5, r6
    490e:	685a      	ldr	r2, [r3, #4]
    4910:	430a      	orrs	r2, r1
    4912:	605a      	str	r2, [r3, #4]
    4914:	4621      	mov	r1, r4
    4916:	f7ff fbdb 	bl	40d0 <NVIC_SetVector>
    491a:	4b0c      	ldr	r3, [pc, #48]	; (494c <serial_irq_set_internal+0xbc>)
    491c:	601e      	str	r6, [r3, #0]
    491e:	bd70      	pop	{r4, r5, r6, pc}
    4920:	f5a4 4480 	sub.w	r4, r4, #16384	; 0x4000
    4924:	42a3      	cmp	r3, r4
    4926:	d105      	bne.n	4934 <serial_irq_set_internal+0xa4>
    4928:	4c0a      	ldr	r4, [pc, #40]	; (4954 <serial_irq_set_internal+0xc4>)
    492a:	2605      	movs	r6, #5
    492c:	e7bf      	b.n	48ae <serial_irq_set_internal+0x1e>
    492e:	4c0a      	ldr	r4, [pc, #40]	; (4958 <serial_irq_set_internal+0xc8>)
    4930:	2606      	movs	r6, #6
    4932:	e7bc      	b.n	48ae <serial_irq_set_internal+0x1e>
    4934:	2400      	movs	r4, #0
    4936:	4626      	mov	r6, r4
    4938:	e7b9      	b.n	48ae <serial_irq_set_internal+0x1e>
    493a:	bf00      	nop
    493c:	40010000 	.word	0x40010000
    4940:	40098000 	.word	0x40098000
    4944:	0000495d 	.word	0x0000495d
    4948:	10000314 	.word	0x10000314
    494c:	e000e100 	.word	0xe000e100
    4950:	0000482d 	.word	0x0000482d
    4954:	000049c9 	.word	0x000049c9
    4958:	00004a2d 	.word	0x00004a2d

0000495c <uart3_irq>:
    495c:	b508      	push	{r3, lr}
    495e:	4a17      	ldr	r2, [pc, #92]	; (49bc <uart3_irq+0x60>)
    4960:	6893      	ldr	r3, [r2, #8]
    4962:	f3c3 0342 	ubfx	r3, r3, #1, #3
    4966:	2b01      	cmp	r3, #1
    4968:	d021      	beq.n	49ae <uart3_irq+0x52>
    496a:	2b02      	cmp	r3, #2
    496c:	d11c      	bne.n	49a8 <uart3_irq+0x4c>
    496e:	4b14      	ldr	r3, [pc, #80]	; (49c0 <uart3_irq+0x64>)
    4970:	f8d3 10ac 	ldr.w	r1, [r3, #172]	; 0xac
    4974:	3101      	adds	r1, #1
    4976:	d00b      	beq.n	4990 <uart3_irq+0x34>
    4978:	f8d3 10b8 	ldr.w	r1, [r3, #184]	; 0xb8
    497c:	f8d3 00b0 	ldr.w	r0, [r3, #176]	; 0xb0
    4980:	6008      	str	r0, [r1, #0]
    4982:	f893 10de 	ldrb.w	r1, [r3, #222]	; 0xde
    4986:	b919      	cbnz	r1, 4990 <uart3_irq+0x34>
    4988:	6851      	ldr	r1, [r2, #4]
    498a:	f021 0101 	bic.w	r1, r1, #1
    498e:	6051      	str	r1, [r2, #4]
    4990:	f8d3 00a8 	ldr.w	r0, [r3, #168]	; 0xa8
    4994:	4b0a      	ldr	r3, [pc, #40]	; (49c0 <uart3_irq+0x64>)
    4996:	b148      	cbz	r0, 49ac <uart3_irq+0x50>
    4998:	f893 30de 	ldrb.w	r3, [r3, #222]	; 0xde
    499c:	b12b      	cbz	r3, 49aa <uart3_irq+0x4e>
    499e:	2100      	movs	r1, #0
    49a0:	4a08      	ldr	r2, [pc, #32]	; (49c4 <uart3_irq+0x68>)
    49a2:	6813      	ldr	r3, [r2, #0]
    49a4:	4798      	blx	r3
    49a6:	bd08      	pop	{r3, pc}
    49a8:	bd08      	pop	{r3, pc}
    49aa:	bd08      	pop	{r3, pc}
    49ac:	bd08      	pop	{r3, pc}
    49ae:	4a04      	ldr	r2, [pc, #16]	; (49c0 <uart3_irq+0x64>)
    49b0:	f8d2 00a8 	ldr.w	r0, [r2, #168]	; 0xa8
    49b4:	2800      	cmp	r0, #0
    49b6:	d0f8      	beq.n	49aa <uart3_irq+0x4e>
    49b8:	4619      	mov	r1, r3
    49ba:	e7f1      	b.n	49a0 <uart3_irq+0x44>
    49bc:	4009c000 	.word	0x4009c000
    49c0:	10000314 	.word	0x10000314
    49c4:	10000310 	.word	0x10000310

000049c8 <uart0_irq>:
    49c8:	b508      	push	{r3, lr}
    49ca:	4a15      	ldr	r2, [pc, #84]	; (4a20 <uart0_irq+0x58>)
    49cc:	6893      	ldr	r3, [r2, #8]
    49ce:	f3c3 0342 	ubfx	r3, r3, #1, #3
    49d2:	2b01      	cmp	r3, #1
    49d4:	d01d      	beq.n	4a12 <uart0_irq+0x4a>
    49d6:	2b02      	cmp	r3, #2
    49d8:	d118      	bne.n	4a0c <uart0_irq+0x44>
    49da:	4b12      	ldr	r3, [pc, #72]	; (4a24 <uart0_irq+0x5c>)
    49dc:	6859      	ldr	r1, [r3, #4]
    49de:	3101      	adds	r1, #1
    49e0:	d009      	beq.n	49f6 <uart0_irq+0x2e>
    49e2:	6919      	ldr	r1, [r3, #16]
    49e4:	6898      	ldr	r0, [r3, #8]
    49e6:	6008      	str	r0, [r1, #0]
    49e8:	f893 1036 	ldrb.w	r1, [r3, #54]	; 0x36
    49ec:	b919      	cbnz	r1, 49f6 <uart0_irq+0x2e>
    49ee:	6851      	ldr	r1, [r2, #4]
    49f0:	f021 0101 	bic.w	r1, r1, #1
    49f4:	6051      	str	r1, [r2, #4]
    49f6:	6818      	ldr	r0, [r3, #0]
    49f8:	4b0a      	ldr	r3, [pc, #40]	; (4a24 <uart0_irq+0x5c>)
    49fa:	b148      	cbz	r0, 4a10 <uart0_irq+0x48>
    49fc:	f893 3036 	ldrb.w	r3, [r3, #54]	; 0x36
    4a00:	b12b      	cbz	r3, 4a0e <uart0_irq+0x46>
    4a02:	2100      	movs	r1, #0
    4a04:	4a08      	ldr	r2, [pc, #32]	; (4a28 <uart0_irq+0x60>)
    4a06:	6813      	ldr	r3, [r2, #0]
    4a08:	4798      	blx	r3
    4a0a:	bd08      	pop	{r3, pc}
    4a0c:	bd08      	pop	{r3, pc}
    4a0e:	bd08      	pop	{r3, pc}
    4a10:	bd08      	pop	{r3, pc}
    4a12:	4a04      	ldr	r2, [pc, #16]	; (4a24 <uart0_irq+0x5c>)
    4a14:	6810      	ldr	r0, [r2, #0]
    4a16:	2800      	cmp	r0, #0
    4a18:	d0f9      	beq.n	4a0e <uart0_irq+0x46>
    4a1a:	4619      	mov	r1, r3
    4a1c:	e7f2      	b.n	4a04 <uart0_irq+0x3c>
    4a1e:	bf00      	nop
    4a20:	4000c000 	.word	0x4000c000
    4a24:	10000314 	.word	0x10000314
    4a28:	10000310 	.word	0x10000310

00004a2c <uart1_irq>:
    4a2c:	b508      	push	{r3, lr}
    4a2e:	4a15      	ldr	r2, [pc, #84]	; (4a84 <uart1_irq+0x58>)
    4a30:	6893      	ldr	r3, [r2, #8]
    4a32:	f3c3 0342 	ubfx	r3, r3, #1, #3
    4a36:	2b01      	cmp	r3, #1
    4a38:	d01d      	beq.n	4a76 <uart1_irq+0x4a>
    4a3a:	2b02      	cmp	r3, #2
    4a3c:	d118      	bne.n	4a70 <uart1_irq+0x44>
    4a3e:	4b12      	ldr	r3, [pc, #72]	; (4a88 <uart1_irq+0x5c>)
    4a40:	6bd9      	ldr	r1, [r3, #60]	; 0x3c
    4a42:	3101      	adds	r1, #1
    4a44:	d009      	beq.n	4a5a <uart1_irq+0x2e>
    4a46:	6c99      	ldr	r1, [r3, #72]	; 0x48
    4a48:	6c18      	ldr	r0, [r3, #64]	; 0x40
    4a4a:	6008      	str	r0, [r1, #0]
    4a4c:	f893 106e 	ldrb.w	r1, [r3, #110]	; 0x6e
    4a50:	b919      	cbnz	r1, 4a5a <uart1_irq+0x2e>
    4a52:	6851      	ldr	r1, [r2, #4]
    4a54:	f021 0101 	bic.w	r1, r1, #1
    4a58:	6051      	str	r1, [r2, #4]
    4a5a:	6b98      	ldr	r0, [r3, #56]	; 0x38
    4a5c:	4b0a      	ldr	r3, [pc, #40]	; (4a88 <uart1_irq+0x5c>)
    4a5e:	b148      	cbz	r0, 4a74 <uart1_irq+0x48>
    4a60:	f893 306e 	ldrb.w	r3, [r3, #110]	; 0x6e
    4a64:	b12b      	cbz	r3, 4a72 <uart1_irq+0x46>
    4a66:	2100      	movs	r1, #0
    4a68:	4a08      	ldr	r2, [pc, #32]	; (4a8c <uart1_irq+0x60>)
    4a6a:	6813      	ldr	r3, [r2, #0]
    4a6c:	4798      	blx	r3
    4a6e:	bd08      	pop	{r3, pc}
    4a70:	bd08      	pop	{r3, pc}
    4a72:	bd08      	pop	{r3, pc}
    4a74:	bd08      	pop	{r3, pc}
    4a76:	4a04      	ldr	r2, [pc, #16]	; (4a88 <uart1_irq+0x5c>)
    4a78:	6b90      	ldr	r0, [r2, #56]	; 0x38
    4a7a:	2800      	cmp	r0, #0
    4a7c:	d0f9      	beq.n	4a72 <uart1_irq+0x46>
    4a7e:	4619      	mov	r1, r3
    4a80:	e7f2      	b.n	4a68 <uart1_irq+0x3c>
    4a82:	bf00      	nop
    4a84:	40010000 	.word	0x40010000
    4a88:	10000314 	.word	0x10000314
    4a8c:	10000310 	.word	0x10000310

00004a90 <serial_baud>:
    4a90:	e92d 0ff0 	stmdb	sp!, {r4, r5, r6, r7, r8, r9, r10, r11}
    4a94:	b08a      	sub	sp, #40	; 0x28
    4a96:	9008      	str	r0, [sp, #32]
    4a98:	4b71      	ldr	r3, [pc, #452]	; (4c60 <serial_baud+0x1d0>)
    4a9a:	6800      	ldr	r0, [r0, #0]
    4a9c:	4298      	cmp	r0, r3
    4a9e:	9009      	str	r0, [sp, #36]	; 0x24
    4aa0:	f000 80cf 	beq.w	4c42 <serial_baud+0x1b2>
    4aa4:	f340 80ba 	ble.w	4c1c <serial_baud+0x18c>
    4aa8:	4b6e      	ldr	r3, [pc, #440]	; (4c64 <serial_baud+0x1d4>)
    4aaa:	9a09      	ldr	r2, [sp, #36]	; 0x24
    4aac:	429a      	cmp	r2, r3
    4aae:	f000 8090 	beq.w	4bd2 <serial_baud+0x142>
    4ab2:	f503 4380 	add.w	r3, r3, #16384	; 0x4000
    4ab6:	429a      	cmp	r2, r3
    4ab8:	d10c      	bne.n	4ad4 <serial_baud+0x44>
    4aba:	4b6b      	ldr	r3, [pc, #428]	; (4c68 <serial_baud+0x1d8>)
    4abc:	f8d3 21ac 	ldr.w	r2, [r3, #428]	; 0x1ac
    4ac0:	f422 2240 	bic.w	r2, r2, #786432	; 0xc0000
    4ac4:	f8c3 21ac 	str.w	r2, [r3, #428]	; 0x1ac
    4ac8:	f8d3 21ac 	ldr.w	r2, [r3, #428]	; 0x1ac
    4acc:	f442 2280 	orr.w	r2, r2, #262144	; 0x40000
    4ad0:	f8c3 21ac 	str.w	r2, [r3, #428]	; 0x1ac
    4ad4:	4b65      	ldr	r3, [pc, #404]	; (4c6c <serial_baud+0x1dc>)
    4ad6:	010a      	lsls	r2, r1, #4
    4ad8:	681b      	ldr	r3, [r3, #0]
    4ada:	9305      	str	r3, [sp, #20]
    4adc:	9c05      	ldr	r4, [sp, #20]
    4ade:	fbb3 f3f2 	udiv	r3, r3, r2
    4ae2:	fb02 4213 	mls	r2, r2, r3, r4
    4ae6:	b29b      	uxth	r3, r3
    4ae8:	9301      	str	r3, [sp, #4]
    4aea:	2a00      	cmp	r2, #0
    4aec:	f000 8094 	beq.w	4c18 <serial_baud+0x188>
    4af0:	0060      	lsls	r0, r4, #1
    4af2:	00a2      	lsls	r2, r4, #2
    4af4:	f04f 0901 	mov.w	r9, #1
    4af8:	2300      	movs	r3, #0
    4afa:	9007      	str	r0, [sp, #28]
    4afc:	9206      	str	r2, [sp, #24]
    4afe:	4680      	mov	r8, r0
    4b00:	4693      	mov	r11, r2
    4b02:	f8cd 900c 	str.w	r9, [sp, #12]
    4b06:	9104      	str	r1, [sp, #16]
    4b08:	46a2      	mov	r10, r4
    4b0a:	468c      	mov	r12, r1
    4b0c:	9302      	str	r3, [sp, #8]
    4b0e:	2200      	movs	r2, #0
    4b10:	9c04      	ldr	r4, [sp, #16]
    4b12:	4610      	mov	r0, r2
    4b14:	fa5f f789 	uxtb.w	r7, r9
    4b18:	f1b8 0f00 	cmp.w	r8, #0
    4b1c:	bfb5      	itete	lt
    4b1e:	fbb8 f3f4 	udivlt	r3, r8, r4
    4b22:	fbbb f3f4 	udivge	r3, r11, r4
    4b26:	091b      	lsrlt	r3, r3, #4
    4b28:	095b      	lsrge	r3, r3, #5
    4b2a:	3301      	adds	r3, #1
    4b2c:	f3c3 034f 	ubfx	r3, r3, #1, #16
    4b30:	eb02 0609 	add.w	r6, r2, r9
    4b34:	2b00      	cmp	r3, #0
    4b36:	d15a      	bne.n	4bee <serial_baud+0x15e>
    4b38:	2301      	movs	r3, #1
    4b3a:	2800      	cmp	r0, #0
    4b3c:	d15b      	bne.n	4bf6 <serial_baud+0x166>
    4b3e:	fb03 f506 	mul.w	r5, r3, r6
    4b42:	00ed      	lsls	r5, r5, #3
    4b44:	fbba f5f5 	udiv	r5, r10, r5
    4b48:	3501      	adds	r5, #1
    4b4a:	ebc1 0555 	rsb	r5, r1, r5, lsr #1
    4b4e:	2d00      	cmp	r5, #0
    4b50:	bfb8      	it	lt
    4b52:	426d      	neglt	r5, r5
    4b54:	4565      	cmp	r5, r12
    4b56:	da05      	bge.n	4b64 <serial_baud+0xd4>
    4b58:	428d      	cmp	r5, r1
    4b5a:	d04e      	beq.n	4bfa <serial_baud+0x16a>
    4b5c:	46ac      	mov	r12, r5
    4b5e:	9002      	str	r0, [sp, #8]
    4b60:	9301      	str	r3, [sp, #4]
    4b62:	9703      	str	r7, [sp, #12]
    4b64:	3201      	adds	r2, #1
    4b66:	b2d0      	uxtb	r0, r2
    4b68:	4287      	cmp	r7, r0
    4b6a:	440c      	add	r4, r1
    4b6c:	d8d4      	bhi.n	4b18 <serial_baud+0x88>
    4b6e:	f1b9 0f0f 	cmp.w	r9, #15
    4b72:	f04f 0300 	mov.w	r3, #0
    4b76:	d049      	beq.n	4c0c <serial_baud+0x17c>
    4b78:	9a05      	ldr	r2, [sp, #20]
    4b7a:	9c07      	ldr	r4, [sp, #28]
    4b7c:	4492      	add	r10, r2
    4b7e:	9a04      	ldr	r2, [sp, #16]
    4b80:	9806      	ldr	r0, [sp, #24]
    4b82:	440a      	add	r2, r1
    4b84:	f109 0901 	add.w	r9, r9, #1
    4b88:	44a0      	add	r8, r4
    4b8a:	4483      	add	r11, r0
    4b8c:	9204      	str	r2, [sp, #16]
    4b8e:	2b00      	cmp	r3, #0
    4b90:	d0bd      	beq.n	4b0e <serial_baud+0x7e>
    4b92:	9b02      	ldr	r3, [sp, #8]
    4b94:	9c03      	ldr	r4, [sp, #12]
    4b96:	ea43 1004 	orr.w	r0, r3, r4, lsl #4
    4b9a:	b2c0      	uxtb	r0, r0
    4b9c:	9a09      	ldr	r2, [sp, #36]	; 0x24
    4b9e:	9c01      	ldr	r4, [sp, #4]
    4ba0:	7b13      	ldrb	r3, [r2, #12]
    4ba2:	f3c4 2107 	ubfx	r1, r4, #8, #8
    4ba6:	f043 0380 	orr.w	r3, r3, #128	; 0x80
    4baa:	7313      	strb	r3, [r2, #12]
    4bac:	9a08      	ldr	r2, [sp, #32]
    4bae:	6813      	ldr	r3, [r2, #0]
    4bb0:	b2e2      	uxtb	r2, r4
    4bb2:	9c08      	ldr	r4, [sp, #32]
    4bb4:	7119      	strb	r1, [r3, #4]
    4bb6:	6823      	ldr	r3, [r4, #0]
    4bb8:	701a      	strb	r2, [r3, #0]
    4bba:	6823      	ldr	r3, [r4, #0]
    4bbc:	f883 0028 	strb.w	r0, [r3, #40]	; 0x28
    4bc0:	6823      	ldr	r3, [r4, #0]
    4bc2:	7b1a      	ldrb	r2, [r3, #12]
    4bc4:	f002 027f 	and.w	r2, r2, #127	; 0x7f
    4bc8:	731a      	strb	r2, [r3, #12]
    4bca:	b00a      	add	sp, #40	; 0x28
    4bcc:	e8bd 0ff0 	ldmia.w	sp!, {r4, r5, r6, r7, r8, r9, r10, r11}
    4bd0:	4770      	bx	lr
    4bd2:	4b25      	ldr	r3, [pc, #148]	; (4c68 <serial_baud+0x1d8>)
    4bd4:	f8d3 21ac 	ldr.w	r2, [r3, #428]	; 0x1ac
    4bd8:	f422 3240 	bic.w	r2, r2, #196608	; 0x30000
    4bdc:	f8c3 21ac 	str.w	r2, [r3, #428]	; 0x1ac
    4be0:	f8d3 21ac 	ldr.w	r2, [r3, #428]	; 0x1ac
    4be4:	f442 3280 	orr.w	r2, r2, #65536	; 0x10000
    4be8:	f8c3 21ac 	str.w	r2, [r3, #428]	; 0x1ac
    4bec:	e772      	b.n	4ad4 <serial_baud+0x44>
    4bee:	2800      	cmp	r0, #0
    4bf0:	d0a5      	beq.n	4b3e <serial_baud+0xae>
    4bf2:	2b01      	cmp	r3, #1
    4bf4:	d8a3      	bhi.n	4b3e <serial_baud+0xae>
    4bf6:	2302      	movs	r3, #2
    4bf8:	e7a1      	b.n	4b3e <serial_baud+0xae>
    4bfa:	f1b9 0f0f 	cmp.w	r9, #15
    4bfe:	9301      	str	r3, [sp, #4]
    4c00:	9703      	str	r7, [sp, #12]
    4c02:	9002      	str	r0, [sp, #8]
    4c04:	468c      	mov	r12, r1
    4c06:	f04f 0301 	mov.w	r3, #1
    4c0a:	d1b5      	bne.n	4b78 <serial_baud+0xe8>
    4c0c:	9c02      	ldr	r4, [sp, #8]
    4c0e:	9903      	ldr	r1, [sp, #12]
    4c10:	ea44 1001 	orr.w	r0, r4, r1, lsl #4
    4c14:	b2c0      	uxtb	r0, r0
    4c16:	e7c1      	b.n	4b9c <serial_baud+0x10c>
    4c18:	2010      	movs	r0, #16
    4c1a:	e7bf      	b.n	4b9c <serial_baud+0x10c>
    4c1c:	f5a3 4380 	sub.w	r3, r3, #16384	; 0x4000
    4c20:	4298      	cmp	r0, r3
    4c22:	f47f af57 	bne.w	4ad4 <serial_baud+0x44>
    4c26:	4b10      	ldr	r3, [pc, #64]	; (4c68 <serial_baud+0x1d8>)
    4c28:	f8d3 21a8 	ldr.w	r2, [r3, #424]	; 0x1a8
    4c2c:	f022 02c0 	bic.w	r2, r2, #192	; 0xc0
    4c30:	f8c3 21a8 	str.w	r2, [r3, #424]	; 0x1a8
    4c34:	f8d3 21a8 	ldr.w	r2, [r3, #424]	; 0x1a8
    4c38:	f042 0240 	orr.w	r2, r2, #64	; 0x40
    4c3c:	f8c3 21a8 	str.w	r2, [r3, #424]	; 0x1a8
    4c40:	e748      	b.n	4ad4 <serial_baud+0x44>
    4c42:	4b09      	ldr	r3, [pc, #36]	; (4c68 <serial_baud+0x1d8>)
    4c44:	f8d3 21a8 	ldr.w	r2, [r3, #424]	; 0x1a8
    4c48:	f422 7240 	bic.w	r2, r2, #768	; 0x300
    4c4c:	f8c3 21a8 	str.w	r2, [r3, #424]	; 0x1a8
    4c50:	f8d3 21a8 	ldr.w	r2, [r3, #424]	; 0x1a8
    4c54:	f442 7280 	orr.w	r2, r2, #256	; 0x100
    4c58:	f8c3 21a8 	str.w	r2, [r3, #424]	; 0x1a8
    4c5c:	e73a      	b.n	4ad4 <serial_baud+0x44>
    4c5e:	bf00      	nop
    4c60:	40010000 	.word	0x40010000
    4c64:	40098000 	.word	0x40098000
    4c68:	400fc000 	.word	0x400fc000
    4c6c:	10000154 	.word	0x10000154

00004c70 <serial_getc>:
    4c70:	6802      	ldr	r2, [r0, #0]
    4c72:	7d13      	ldrb	r3, [r2, #20]
    4c74:	07db      	lsls	r3, r3, #31
    4c76:	d5fc      	bpl.n	4c72 <serial_getc+0x2>
    4c78:	6843      	ldr	r3, [r0, #4]
    4c7a:	4909      	ldr	r1, [pc, #36]	; (4ca0 <serial_getc+0x30>)
    4c7c:	ebc3 03c3 	rsb	r3, r3, r3, lsl #3
    4c80:	eb01 03c3 	add.w	r3, r1, r3, lsl #3
    4c84:	6859      	ldr	r1, [r3, #4]
    4c86:	7810      	ldrb	r0, [r2, #0]
    4c88:	3101      	adds	r1, #1
    4c8a:	b2c0      	uxtb	r0, r0
    4c8c:	d007      	beq.n	4c9e <serial_getc+0x2e>
    4c8e:	6959      	ldr	r1, [r3, #20]
    4c90:	3304      	adds	r3, #4
    4c92:	685b      	ldr	r3, [r3, #4]
    4c94:	600b      	str	r3, [r1, #0]
    4c96:	6853      	ldr	r3, [r2, #4]
    4c98:	f043 0301 	orr.w	r3, r3, #1
    4c9c:	6053      	str	r3, [r2, #4]
    4c9e:	4770      	bx	lr
    4ca0:	10000314 	.word	0x10000314

00004ca4 <serial_writable>:
    4ca4:	6843      	ldr	r3, [r0, #4]
    4ca6:	4a17      	ldr	r2, [pc, #92]	; (4d04 <serial_writable+0x60>)
    4ca8:	ebc3 03c3 	rsb	r3, r3, r3, lsl #3
    4cac:	00db      	lsls	r3, r3, #3
    4cae:	18d1      	adds	r1, r2, r3
    4cb0:	b410      	push	{r4}
    4cb2:	69cc      	ldr	r4, [r1, #28]
    4cb4:	3401      	adds	r4, #1
    4cb6:	d011      	beq.n	4cdc <serial_writable+0x38>
    4cb8:	6b0a      	ldr	r2, [r1, #48]	; 0x30
    4cba:	f101 031c 	add.w	r3, r1, #28
    4cbe:	685b      	ldr	r3, [r3, #4]
    4cc0:	6812      	ldr	r2, [r2, #0]
    4cc2:	421a      	tst	r2, r3
    4cc4:	d003      	beq.n	4cce <serial_writable+0x2a>
    4cc6:	2000      	movs	r0, #0
    4cc8:	f85d 4b04 	ldr.w	r4, [sp], #4
    4ccc:	4770      	bx	lr
    4cce:	6803      	ldr	r3, [r0, #0]
    4cd0:	f85d 4b04 	ldr.w	r4, [sp], #4
    4cd4:	7d18      	ldrb	r0, [r3, #20]
    4cd6:	f3c0 1080 	ubfx	r0, r0, #6, #1
    4cda:	4770      	bx	lr
    4cdc:	6803      	ldr	r3, [r0, #0]
    4cde:	7d1b      	ldrb	r3, [r3, #20]
    4ce0:	069b      	lsls	r3, r3, #26
    4ce2:	d408      	bmi.n	4cf6 <serial_writable+0x52>
    4ce4:	f891 0034 	ldrb.w	r0, [r1, #52]	; 0x34
    4ce8:	f85d 4b04 	ldr.w	r4, [sp], #4
    4cec:	280f      	cmp	r0, #15
    4cee:	bf8c      	ite	hi
    4cf0:	2000      	movhi	r0, #0
    4cf2:	2001      	movls	r0, #1
    4cf4:	4770      	bx	lr
    4cf6:	2300      	movs	r3, #0
    4cf8:	f881 3034 	strb.w	r3, [r1, #52]	; 0x34
    4cfc:	2001      	movs	r0, #1
    4cfe:	f85d 4b04 	ldr.w	r4, [sp], #4
    4d02:	4770      	bx	lr
    4d04:	10000314 	.word	0x10000314

00004d08 <serial_putc>:
    4d08:	b538      	push	{r3, r4, r5, lr}
    4d0a:	4604      	mov	r4, r0
    4d0c:	460d      	mov	r5, r1
    4d0e:	4620      	mov	r0, r4
    4d10:	f7ff ffc8 	bl	4ca4 <serial_writable>
    4d14:	2800      	cmp	r0, #0
    4d16:	d0fa      	beq.n	4d0e <serial_putc+0x6>
    4d18:	6823      	ldr	r3, [r4, #0]
    4d1a:	b2ed      	uxtb	r5, r5
    4d1c:	701d      	strb	r5, [r3, #0]
    4d1e:	6862      	ldr	r2, [r4, #4]
    4d20:	4b05      	ldr	r3, [pc, #20]	; (4d38 <serial_putc+0x30>)
    4d22:	ebc2 02c2 	rsb	r2, r2, r2, lsl #3
    4d26:	eb03 03c2 	add.w	r3, r3, r2, lsl #3
    4d2a:	f893 2034 	ldrb.w	r2, [r3, #52]	; 0x34
    4d2e:	3201      	adds	r2, #1
    4d30:	f883 2034 	strb.w	r2, [r3, #52]	; 0x34
    4d34:	bd38      	pop	{r3, r4, r5, pc}
    4d36:	bf00      	nop
    4d38:	10000314 	.word	0x10000314

00004d3c <serial_set_flow_control>:
    4d3c:	e92d 4ff0 	stmdb	sp!, {r4, r5, r6, r7, r8, r9, r10, r11, lr}
    4d40:	4604      	mov	r4, r0
    4d42:	4d45      	ldr	r5, [pc, #276]	; (4e58 <serial_set_flow_control+0x11c>)
    4d44:	6800      	ldr	r0, [r0, #0]
    4d46:	b083      	sub	sp, #12
    4d48:	42a8      	cmp	r0, r5
    4d4a:	460e      	mov	r6, r1
    4d4c:	4690      	mov	r8, r2
    4d4e:	4699      	mov	r9, r3
    4d50:	d043      	beq.n	4dda <serial_set_flow_control+0x9e>
    4d52:	6865      	ldr	r5, [r4, #4]
    4d54:	2300      	movs	r3, #0
    4d56:	9301      	str	r3, [sp, #4]
    4d58:	462a      	mov	r2, r5
    4d5a:	f8df a108 	ldr.w	r10, [pc, #264]	; 4e64 <serial_set_flow_control+0x128>
    4d5e:	00ef      	lsls	r7, r5, #3
    4d60:	ebc2 02c2 	rsb	r2, r2, r2, lsl #3
    4d64:	1b78      	subs	r0, r7, r5
    4d66:	f04f 0e00 	mov.w	lr, #0
    4d6a:	eb0a 00c0 	add.w	r0, r10, r0, lsl #3
    4d6e:	eb0a 0cc2 	add.w	r12, r10, r2, lsl #3
    4d72:	f04f 33ff 	mov.w	r3, #4294967295	; 0xffffffff
    4d76:	61c3      	str	r3, [r0, #28]
    4d78:	6043      	str	r3, [r0, #4]
    4d7a:	4671      	mov	r1, lr
    4d7c:	4672      	mov	r2, lr
    4d7e:	4620      	mov	r0, r4
    4d80:	f88c e035 	strb.w	lr, [r12, #53]	; 0x35
    4d84:	f7ff fd84 	bl	4890 <serial_irq_set_internal>
    4d88:	b916      	cbnz	r6, 4d90 <serial_set_flow_control+0x54>
    4d8a:	b003      	add	sp, #12
    4d8c:	e8bd 8ff0 	ldmia.w	sp!, {r4, r5, r6, r7, r8, r9, r10, r11, pc}
    4d90:	4932      	ldr	r1, [pc, #200]	; (4e5c <serial_set_flow_control+0x120>)
    4d92:	4640      	mov	r0, r8
    4d94:	f000 fa1a 	bl	51cc <pinmap_find_peripheral>
    4d98:	4931      	ldr	r1, [pc, #196]	; (4e60 <serial_set_flow_control+0x124>)
    4d9a:	4683      	mov	r11, r0
    4d9c:	4648      	mov	r0, r9
    4d9e:	f000 fa15 	bl	51cc <pinmap_find_peripheral>
    4da2:	1eb2      	subs	r2, r6, #2
    4da4:	2a01      	cmp	r2, #1
    4da6:	d938      	bls.n	4e1a <serial_set_flow_control+0xde>
    4da8:	2e01      	cmp	r6, #1
    4daa:	d1ee      	bne.n	4d8a <serial_set_flow_control+0x4e>
    4dac:	f1b8 3fff 	cmp.w	r8, #4294967295	; 0xffffffff
    4db0:	d0eb      	beq.n	4d8a <serial_set_flow_control+0x4e>
    4db2:	4929      	ldr	r1, [pc, #164]	; (4e58 <serial_set_flow_control+0x11c>)
    4db4:	6822      	ldr	r2, [r4, #0]
    4db6:	2007      	movs	r0, #7
    4db8:	458b      	cmp	r11, r1
    4dba:	7210      	strb	r0, [r2, #8]
    4dbc:	d115      	bne.n	4dea <serial_set_flow_control+0xae>
    4dbe:	9b01      	ldr	r3, [sp, #4]
    4dc0:	b19b      	cbz	r3, 4dea <serial_set_flow_control+0xae>
    4dc2:	7c1b      	ldrb	r3, [r3, #16]
    4dc4:	9a01      	ldr	r2, [sp, #4]
    4dc6:	4925      	ldr	r1, [pc, #148]	; (4e5c <serial_set_flow_control+0x120>)
    4dc8:	f043 0340 	orr.w	r3, r3, #64	; 0x40
    4dcc:	4640      	mov	r0, r8
    4dce:	7413      	strb	r3, [r2, #16]
    4dd0:	b003      	add	sp, #12
    4dd2:	e8bd 4ff0 	ldmia.w	sp!, {r4, r5, r6, r7, r8, r9, r10, r11, lr}
    4dd6:	f000 b9c7 	b.w	5168 <pinmap_pinout>
    4dda:	7c03      	ldrb	r3, [r0, #16]
    4ddc:	6865      	ldr	r5, [r4, #4]
    4dde:	f003 033f 	and.w	r3, r3, #63	; 0x3f
    4de2:	7403      	strb	r3, [r0, #16]
    4de4:	6862      	ldr	r2, [r4, #4]
    4de6:	9001      	str	r0, [sp, #4]
    4de8:	e7b7      	b.n	4d5a <serial_set_flow_control+0x1e>
    4dea:	1b7d      	subs	r5, r7, r5
    4dec:	eb0a 00c5 	add.w	r0, r10, r5, lsl #3
    4df0:	4641      	mov	r1, r8
    4df2:	3004      	adds	r0, #4
    4df4:	2200      	movs	r2, #0
    4df6:	f7ff fa15 	bl	4224 <gpio_init_out_ex>
    4dfa:	6862      	ldr	r2, [r4, #4]
    4dfc:	2501      	movs	r5, #1
    4dfe:	ebc2 02c2 	rsb	r2, r2, r2, lsl #3
    4e02:	eb0a 03c2 	add.w	r3, r10, r2, lsl #3
    4e06:	4620      	mov	r0, r4
    4e08:	462a      	mov	r2, r5
    4e0a:	2100      	movs	r1, #0
    4e0c:	f883 5035 	strb.w	r5, [r3, #53]	; 0x35
    4e10:	b003      	add	sp, #12
    4e12:	e8bd 4ff0 	ldmia.w	sp!, {r4, r5, r6, r7, r8, r9, r10, r11, lr}
    4e16:	f7ff bd3b 	b.w	4890 <serial_irq_set_internal>
    4e1a:	f1b9 3fff 	cmp.w	r9, #4294967295	; 0xffffffff
    4e1e:	d009      	beq.n	4e34 <serial_set_flow_control+0xf8>
    4e20:	4a0d      	ldr	r2, [pc, #52]	; (4e58 <serial_set_flow_control+0x11c>)
    4e22:	4290      	cmp	r0, r2
    4e24:	d00c      	beq.n	4e40 <serial_set_flow_control+0x104>
    4e26:	1b78      	subs	r0, r7, r5
    4e28:	eb0a 00c0 	add.w	r0, r10, r0, lsl #3
    4e2c:	4649      	mov	r1, r9
    4e2e:	301c      	adds	r0, #28
    4e30:	f7ff f9d0 	bl	41d4 <gpio_init_in>
    4e34:	2e03      	cmp	r6, #3
    4e36:	d1a8      	bne.n	4d8a <serial_set_flow_control+0x4e>
    4e38:	f1b8 3fff 	cmp.w	r8, #4294967295	; 0xffffffff
    4e3c:	d1b9      	bne.n	4db2 <serial_set_flow_control+0x76>
    4e3e:	e7a4      	b.n	4d8a <serial_set_flow_control+0x4e>
    4e40:	9b01      	ldr	r3, [sp, #4]
    4e42:	2b00      	cmp	r3, #0
    4e44:	d0ef      	beq.n	4e26 <serial_set_flow_control+0xea>
    4e46:	7c1a      	ldrb	r2, [r3, #16]
    4e48:	4648      	mov	r0, r9
    4e4a:	f042 0280 	orr.w	r2, r2, #128	; 0x80
    4e4e:	741a      	strb	r2, [r3, #16]
    4e50:	4903      	ldr	r1, [pc, #12]	; (4e60 <serial_set_flow_control+0x124>)
    4e52:	f000 f989 	bl	5168 <pinmap_pinout>
    4e56:	e7ed      	b.n	4e34 <serial_set_flow_control+0xf8>
    4e58:	40010000 	.word	0x40010000
    4e5c:	0000869c 	.word	0x0000869c
    4e60:	00008798 	.word	0x00008798
    4e64:	10000314 	.word	0x10000314

00004e68 <serial_init>:
    4e68:	e92d 41f0 	stmdb	sp!, {r4, r5, r6, r7, r8, lr}
    4e6c:	4605      	mov	r5, r0
    4e6e:	460f      	mov	r7, r1
    4e70:	4608      	mov	r0, r1
    4e72:	4959      	ldr	r1, [pc, #356]	; (4fd8 <serial_init+0x170>)
    4e74:	4616      	mov	r6, r2
    4e76:	f000 f9b7 	bl	51e8 <pinmap_peripheral>
    4e7a:	4958      	ldr	r1, [pc, #352]	; (4fdc <serial_init+0x174>)
    4e7c:	4604      	mov	r4, r0
    4e7e:	4630      	mov	r0, r6
    4e80:	f000 f9b2 	bl	51e8 <pinmap_peripheral>
    4e84:	4601      	mov	r1, r0
    4e86:	4620      	mov	r0, r4
    4e88:	f000 f98e 	bl	51a8 <pinmap_merge>
    4e8c:	4b54      	ldr	r3, [pc, #336]	; (4fe0 <serial_init+0x178>)
    4e8e:	4604      	mov	r4, r0
    4e90:	4298      	cmp	r0, r3
    4e92:	6028      	str	r0, [r5, #0]
    4e94:	d07f      	beq.n	4f96 <serial_init+0x12e>
    4e96:	d96f      	bls.n	4f78 <serial_init+0x110>
    4e98:	4b52      	ldr	r3, [pc, #328]	; (4fe4 <serial_init+0x17c>)
    4e9a:	4298      	cmp	r0, r3
    4e9c:	d04b      	beq.n	4f36 <serial_init+0xce>
    4e9e:	f503 4380 	add.w	r3, r3, #16384	; 0x4000
    4ea2:	4298      	cmp	r0, r3
    4ea4:	d106      	bne.n	4eb4 <serial_init+0x4c>
    4ea6:	4b50      	ldr	r3, [pc, #320]	; (4fe8 <serial_init+0x180>)
    4ea8:	f8d3 20c4 	ldr.w	r2, [r3, #196]	; 0xc4
    4eac:	f042 7200 	orr.w	r2, r2, #33554432	; 0x2000000
    4eb0:	f8c3 20c4 	str.w	r2, [r3, #196]	; 0xc4
    4eb4:	2301      	movs	r3, #1
    4eb6:	7223      	strb	r3, [r4, #8]
    4eb8:	682b      	ldr	r3, [r5, #0]
    4eba:	f04f 0800 	mov.w	r8, #0
    4ebe:	f8c3 8004 	str.w	r8, [r3, #4]
    4ec2:	4628      	mov	r0, r5
    4ec4:	f44f 5116 	mov.w	r1, #9600	; 0x2580
    4ec8:	f7ff fde2 	bl	4a90 <serial_baud>
    4ecc:	682b      	ldr	r3, [r5, #0]
    4ece:	2203      	movs	r2, #3
    4ed0:	731a      	strb	r2, [r3, #12]
    4ed2:	4638      	mov	r0, r7
    4ed4:	4940      	ldr	r1, [pc, #256]	; (4fd8 <serial_init+0x170>)
    4ed6:	f000 f947 	bl	5168 <pinmap_pinout>
    4eda:	4630      	mov	r0, r6
    4edc:	493f      	ldr	r1, [pc, #252]	; (4fdc <serial_init+0x174>)
    4ede:	f000 f943 	bl	5168 <pinmap_pinout>
    4ee2:	1c7a      	adds	r2, r7, #1
    4ee4:	d003      	beq.n	4eee <serial_init+0x86>
    4ee6:	4638      	mov	r0, r7
    4ee8:	4641      	mov	r1, r8
    4eea:	f7ff fc6f 	bl	47cc <pin_mode>
    4eee:	1c73      	adds	r3, r6, #1
    4ef0:	d003      	beq.n	4efa <serial_init+0x92>
    4ef2:	4630      	mov	r0, r6
    4ef4:	2100      	movs	r1, #0
    4ef6:	f7ff fc69 	bl	47cc <pin_mode>
    4efa:	4b39      	ldr	r3, [pc, #228]	; (4fe0 <serial_init+0x178>)
    4efc:	429c      	cmp	r4, r3
    4efe:	d047      	beq.n	4f90 <serial_init+0x128>
    4f00:	d921      	bls.n	4f46 <serial_init+0xde>
    4f02:	4b38      	ldr	r3, [pc, #224]	; (4fe4 <serial_init+0x17c>)
    4f04:	429c      	cmp	r4, r3
    4f06:	d063      	beq.n	4fd0 <serial_init+0x168>
    4f08:	f503 4380 	add.w	r3, r3, #16384	; 0x4000
    4f0c:	429c      	cmp	r4, r3
    4f0e:	d14a      	bne.n	4fa6 <serial_init+0x13e>
    4f10:	2303      	movs	r3, #3
    4f12:	606b      	str	r3, [r5, #4]
    4f14:	4935      	ldr	r1, [pc, #212]	; (4fec <serial_init+0x184>)
    4f16:	ebc3 03c3 	rsb	r3, r3, r3, lsl #3
    4f1a:	f04f 34ff 	mov.w	r4, #4294967295	; 0xffffffff
    4f1e:	4628      	mov	r0, r5
    4f20:	eb01 05c3 	add.w	r5, r1, r3, lsl #3
    4f24:	4622      	mov	r2, r4
    4f26:	4623      	mov	r3, r4
    4f28:	606c      	str	r4, [r5, #4]
    4f2a:	61ec      	str	r4, [r5, #28]
    4f2c:	2100      	movs	r1, #0
    4f2e:	e8bd 41f0 	ldmia.w	sp!, {r4, r5, r6, r7, r8, lr}
    4f32:	f7ff bf03 	b.w	4d3c <serial_set_flow_control>
    4f36:	4b2c      	ldr	r3, [pc, #176]	; (4fe8 <serial_init+0x180>)
    4f38:	f8d3 20c4 	ldr.w	r2, [r3, #196]	; 0xc4
    4f3c:	f042 7280 	orr.w	r2, r2, #16777216	; 0x1000000
    4f40:	f8c3 20c4 	str.w	r2, [r3, #196]	; 0xc4
    4f44:	e7b6      	b.n	4eb4 <serial_init+0x4c>
    4f46:	f5a3 4380 	sub.w	r3, r3, #16384	; 0x4000
    4f4a:	429c      	cmp	r4, r3
    4f4c:	d12b      	bne.n	4fa6 <serial_init+0x13e>
    4f4e:	4e27      	ldr	r6, [pc, #156]	; (4fec <serial_init+0x184>)
    4f50:	f04f 34ff 	mov.w	r4, #4294967295	; 0xffffffff
    4f54:	2100      	movs	r1, #0
    4f56:	6069      	str	r1, [r5, #4]
    4f58:	4622      	mov	r2, r4
    4f5a:	4623      	mov	r3, r4
    4f5c:	4628      	mov	r0, r5
    4f5e:	6074      	str	r4, [r6, #4]
    4f60:	61f4      	str	r4, [r6, #28]
    4f62:	f7ff feeb 	bl	4d3c <serial_set_flow_control>
    4f66:	4b22      	ldr	r3, [pc, #136]	; (4ff0 <serial_init+0x188>)
    4f68:	2201      	movs	r2, #1
    4f6a:	601a      	str	r2, [r3, #0]
    4f6c:	6828      	ldr	r0, [r5, #0]
    4f6e:	6869      	ldr	r1, [r5, #4]
    4f70:	4b20      	ldr	r3, [pc, #128]	; (4ff4 <serial_init+0x18c>)
    4f72:	c303      	stmia	r3!, {r0, r1}
    4f74:	e8bd 81f0 	ldmia.w	sp!, {r4, r5, r6, r7, r8, pc}
    4f78:	f5a3 4380 	sub.w	r3, r3, #16384	; 0x4000
    4f7c:	4298      	cmp	r0, r3
    4f7e:	d199      	bne.n	4eb4 <serial_init+0x4c>
    4f80:	4b19      	ldr	r3, [pc, #100]	; (4fe8 <serial_init+0x180>)
    4f82:	f8d3 20c4 	ldr.w	r2, [r3, #196]	; 0xc4
    4f86:	f042 0208 	orr.w	r2, r2, #8
    4f8a:	f8c3 20c4 	str.w	r2, [r3, #196]	; 0xc4
    4f8e:	e791      	b.n	4eb4 <serial_init+0x4c>
    4f90:	2301      	movs	r3, #1
    4f92:	606b      	str	r3, [r5, #4]
    4f94:	e7be      	b.n	4f14 <serial_init+0xac>
    4f96:	4b14      	ldr	r3, [pc, #80]	; (4fe8 <serial_init+0x180>)
    4f98:	f8d3 20c4 	ldr.w	r2, [r3, #196]	; 0xc4
    4f9c:	f042 0210 	orr.w	r2, r2, #16
    4fa0:	f8c3 20c4 	str.w	r2, [r3, #196]	; 0xc4
    4fa4:	e786      	b.n	4eb4 <serial_init+0x4c>
    4fa6:	686b      	ldr	r3, [r5, #4]
    4fa8:	4910      	ldr	r1, [pc, #64]	; (4fec <serial_init+0x184>)
    4faa:	ebc3 03c3 	rsb	r3, r3, r3, lsl #3
    4fae:	f04f 36ff 	mov.w	r6, #4294967295	; 0xffffffff
    4fb2:	eb01 07c3 	add.w	r7, r1, r3, lsl #3
    4fb6:	4632      	mov	r2, r6
    4fb8:	4633      	mov	r3, r6
    4fba:	4628      	mov	r0, r5
    4fbc:	2100      	movs	r1, #0
    4fbe:	607e      	str	r6, [r7, #4]
    4fc0:	61fe      	str	r6, [r7, #28]
    4fc2:	f7ff febb 	bl	4d3c <serial_set_flow_control>
    4fc6:	4b0c      	ldr	r3, [pc, #48]	; (4ff8 <serial_init+0x190>)
    4fc8:	429c      	cmp	r4, r3
    4fca:	d0cc      	beq.n	4f66 <serial_init+0xfe>
    4fcc:	e8bd 81f0 	ldmia.w	sp!, {r4, r5, r6, r7, r8, pc}
    4fd0:	2302      	movs	r3, #2
    4fd2:	606b      	str	r3, [r5, #4]
    4fd4:	e79e      	b.n	4f14 <serial_init+0xac>
    4fd6:	bf00      	nop
    4fd8:	0000872c 	.word	0x0000872c
    4fdc:	000086c0 	.word	0x000086c0
    4fe0:	40010000 	.word	0x40010000
    4fe4:	40098000 	.word	0x40098000
    4fe8:	400fc000 	.word	0x400fc000
    4fec:	10000314 	.word	0x10000314
    4ff0:	1000030c 	.word	0x1000030c
    4ff4:	10001008 	.word	0x10001008
    4ff8:	4000c000 	.word	0x4000c000

00004ffc <us_ticker_init>:
    4ffc:	4a13      	ldr	r2, [pc, #76]	; (504c <us_ticker_init+0x50>)
    4ffe:	b538      	push	{r3, r4, r5, lr}
    5000:	6813      	ldr	r3, [r2, #0]
    5002:	bb0b      	cbnz	r3, 5048 <us_ticker_init+0x4c>
    5004:	4912      	ldr	r1, [pc, #72]	; (5050 <us_ticker_init+0x54>)
    5006:	2401      	movs	r4, #1
    5008:	f8d1 50c4 	ldr.w	r5, [r1, #196]	; 0xc4
    500c:	6014      	str	r4, [r2, #0]
    500e:	4a11      	ldr	r2, [pc, #68]	; (5054 <us_ticker_init+0x58>)
    5010:	4811      	ldr	r0, [pc, #68]	; (5058 <us_ticker_init+0x5c>)
    5012:	f445 0500 	orr.w	r5, r5, #8388608	; 0x800000
    5016:	f8c1 50c4 	str.w	r5, [r1, #196]	; 0xc4
    501a:	6713      	str	r3, [r2, #112]	; 0x70
    501c:	6803      	ldr	r3, [r0, #0]
    501e:	f101 7143 	add.w	r1, r1, #51118080	; 0x30c0000
    5022:	f501 51f4 	add.w	r1, r1, #7808	; 0x1e80
    5026:	3103      	adds	r1, #3
    5028:	089b      	lsrs	r3, r3, #2
    502a:	fba1 0303 	umull	r0, r3, r1, r3
    502e:	0c9b      	lsrs	r3, r3, #18
    5030:	3b01      	subs	r3, #1
    5032:	2102      	movs	r1, #2
    5034:	6051      	str	r1, [r2, #4]
    5036:	2004      	movs	r0, #4
    5038:	60d3      	str	r3, [r2, #12]
    503a:	4908      	ldr	r1, [pc, #32]	; (505c <us_ticker_init+0x60>)
    503c:	6054      	str	r4, [r2, #4]
    503e:	f7ff f847 	bl	40d0 <NVIC_SetVector>
    5042:	4b07      	ldr	r3, [pc, #28]	; (5060 <us_ticker_init+0x64>)
    5044:	2210      	movs	r2, #16
    5046:	601a      	str	r2, [r3, #0]
    5048:	bd38      	pop	{r3, r4, r5, pc}
    504a:	bf00      	nop
    504c:	100003f4 	.word	0x100003f4
    5050:	400fc000 	.word	0x400fc000
    5054:	40094000 	.word	0x40094000
    5058:	10000154 	.word	0x10000154
    505c:	0000521d 	.word	0x0000521d
    5060:	e000e100 	.word	0xe000e100

00005064 <us_ticker_read>:
    5064:	b508      	push	{r3, lr}
    5066:	4b04      	ldr	r3, [pc, #16]	; (5078 <us_ticker_read+0x14>)
    5068:	681b      	ldr	r3, [r3, #0]
    506a:	b90b      	cbnz	r3, 5070 <us_ticker_read+0xc>
    506c:	f7ff ffc6 	bl	4ffc <us_ticker_init>
    5070:	4b02      	ldr	r3, [pc, #8]	; (507c <us_ticker_read+0x18>)
    5072:	6898      	ldr	r0, [r3, #8]
    5074:	bd08      	pop	{r3, pc}
    5076:	bf00      	nop
    5078:	100003f4 	.word	0x100003f4
    507c:	40094000 	.word	0x40094000

00005080 <us_ticker_set_interrupt>:
    5080:	4b03      	ldr	r3, [pc, #12]	; (5090 <us_ticker_set_interrupt+0x10>)
    5082:	6198      	str	r0, [r3, #24]
    5084:	695a      	ldr	r2, [r3, #20]
    5086:	f042 0201 	orr.w	r2, r2, #1
    508a:	615a      	str	r2, [r3, #20]
    508c:	4770      	bx	lr
    508e:	bf00      	nop
    5090:	40094000 	.word	0x40094000

00005094 <us_ticker_disable_interrupt>:
    5094:	4b02      	ldr	r3, [pc, #8]	; (50a0 <us_ticker_disable_interrupt+0xc>)
    5096:	695a      	ldr	r2, [r3, #20]
    5098:	f022 0201 	bic.w	r2, r2, #1
    509c:	615a      	str	r2, [r3, #20]
    509e:	4770      	bx	lr
    50a0:	40094000 	.word	0x40094000

000050a4 <us_ticker_clear_interrupt>:
    50a4:	4b01      	ldr	r3, [pc, #4]	; (50ac <us_ticker_clear_interrupt+0x8>)
    50a6:	2201      	movs	r2, #1
    50a8:	601a      	str	r2, [r3, #0]
    50aa:	4770      	bx	lr
    50ac:	40094000 	.word	0x40094000

000050b0 <SystemInit>:
    50b0:	4a2b      	ldr	r2, [pc, #172]	; (5160 <SystemInit+0xb0>)
    50b2:	2320      	movs	r3, #32
    50b4:	b470      	push	{r4, r5, r6}
    50b6:	f8c2 31a0 	str.w	r3, [r2, #416]	; 0x1a0
    50ba:	f8d2 31a0 	ldr.w	r3, [r2, #416]	; 0x1a0
    50be:	0698      	lsls	r0, r3, #26
    50c0:	d445      	bmi.n	514e <SystemInit+0x9e>
    50c2:	4b27      	ldr	r3, [pc, #156]	; (5160 <SystemInit+0xb0>)
    50c4:	2102      	movs	r1, #2
    50c6:	2500      	movs	r5, #0
    50c8:	2401      	movs	r4, #1
    50ca:	20aa      	movs	r0, #170	; 0xaa
    50cc:	2255      	movs	r2, #85	; 0x55
    50ce:	260b      	movs	r6, #11
    50d0:	f8c3 1104 	str.w	r1, [r3, #260]	; 0x104
    50d4:	f8c3 51a8 	str.w	r5, [r3, #424]	; 0x1a8
    50d8:	4619      	mov	r1, r3
    50da:	f8c3 51ac 	str.w	r5, [r3, #428]	; 0x1ac
    50de:	f8c3 410c 	str.w	r4, [r3, #268]	; 0x10c
    50e2:	f8c3 6084 	str.w	r6, [r3, #132]	; 0x84
    50e6:	f8c3 008c 	str.w	r0, [r3, #140]	; 0x8c
    50ea:	f8c3 208c 	str.w	r2, [r3, #140]	; 0x8c
    50ee:	f8c3 4080 	str.w	r4, [r3, #128]	; 0x80
    50f2:	f8c3 008c 	str.w	r0, [r3, #140]	; 0x8c
    50f6:	f8c3 208c 	str.w	r2, [r3, #140]	; 0x8c
    50fa:	f8d1 3088 	ldr.w	r3, [r1, #136]	; 0x88
    50fe:	4a18      	ldr	r2, [pc, #96]	; (5160 <SystemInit+0xb0>)
    5100:	015b      	lsls	r3, r3, #5
    5102:	d5fa      	bpl.n	50fa <SystemInit+0x4a>
    5104:	2103      	movs	r1, #3
    5106:	20aa      	movs	r0, #170	; 0xaa
    5108:	2355      	movs	r3, #85	; 0x55
    510a:	f8c2 1080 	str.w	r1, [r2, #128]	; 0x80
    510e:	f8c2 008c 	str.w	r0, [r2, #140]	; 0x8c
    5112:	4611      	mov	r1, r2
    5114:	f8c2 308c 	str.w	r3, [r2, #140]	; 0x8c
    5118:	f8d1 3088 	ldr.w	r3, [r1, #136]	; 0x88
    511c:	4a10      	ldr	r2, [pc, #64]	; (5160 <SystemInit+0xb0>)
    511e:	f013 7f40 	tst.w	r3, #50331648	; 0x3000000
    5122:	d0f9      	beq.n	5118 <SystemInit+0x68>
    5124:	490f      	ldr	r1, [pc, #60]	; (5164 <SystemInit+0xb4>)
    5126:	2300      	movs	r3, #0
    5128:	2005      	movs	r0, #5
    512a:	f8c2 0108 	str.w	r0, [r2, #264]	; 0x108
    512e:	f8c2 10c4 	str.w	r1, [r2, #196]	; 0xc4
    5132:	f8c2 31c8 	str.w	r3, [r2, #456]	; 0x1c8
    5136:	6813      	ldr	r3, [r2, #0]
    5138:	bc70      	pop	{r4, r5, r6}
    513a:	f423 4370 	bic.w	r3, r3, #61440	; 0xf000
    513e:	f023 033a 	bic.w	r3, r3, #58	; 0x3a
    5142:	f443 5340 	orr.w	r3, r3, #12288	; 0x3000
    5146:	f043 033a 	orr.w	r3, r3, #58	; 0x3a
    514a:	6013      	str	r3, [r2, #0]
    514c:	4770      	bx	lr
    514e:	f8d2 31a0 	ldr.w	r3, [r2, #416]	; 0x1a0
    5152:	0659      	lsls	r1, r3, #25
    5154:	d4b5      	bmi.n	50c2 <SystemInit+0x12>
    5156:	f8d2 31a0 	ldr.w	r3, [r2, #416]	; 0x1a0
    515a:	0659      	lsls	r1, r3, #25
    515c:	d5f7      	bpl.n	514e <SystemInit+0x9e>
    515e:	e7b0      	b.n	50c2 <SystemInit+0x12>
    5160:	400fc000 	.word	0x400fc000
    5164:	042887de 	.word	0x042887de

00005168 <pinmap_pinout>:
    5168:	1c43      	adds	r3, r0, #1
    516a:	b510      	push	{r4, lr}
    516c:	4604      	mov	r4, r0
    516e:	d018      	beq.n	51a2 <pinmap_pinout+0x3a>
    5170:	680b      	ldr	r3, [r1, #0]
    5172:	1c58      	adds	r0, r3, #1
    5174:	d104      	bne.n	5180 <pinmap_pinout+0x18>
    5176:	e00f      	b.n	5198 <pinmap_pinout+0x30>
    5178:	f851 3f0c 	ldr.w	r3, [r1, #12]!
    517c:	1c5a      	adds	r2, r3, #1
    517e:	d00b      	beq.n	5198 <pinmap_pinout+0x30>
    5180:	429c      	cmp	r4, r3
    5182:	d1f9      	bne.n	5178 <pinmap_pinout+0x10>
    5184:	4620      	mov	r0, r4
    5186:	6889      	ldr	r1, [r1, #8]
    5188:	f7ff fb08 	bl	479c <pin_function>
    518c:	4620      	mov	r0, r4
    518e:	2102      	movs	r1, #2
    5190:	e8bd 4010 	ldmia.w	sp!, {r4, lr}
    5194:	f7ff bb1a 	b.w	47cc <pin_mode>
    5198:	4802      	ldr	r0, [pc, #8]	; (51a4 <pinmap_pinout+0x3c>)
    519a:	e8bd 4010 	ldmia.w	sp!, {r4, lr}
    519e:	f7fe bfef 	b.w	4180 <error>
    51a2:	bd10      	pop	{r4, pc}
    51a4:	000087bc 	.word	0x000087bc

000051a8 <pinmap_merge>:
    51a8:	4288      	cmp	r0, r1
    51aa:	b508      	push	{r3, lr}
    51ac:	d00a      	beq.n	51c4 <pinmap_merge+0x1c>
    51ae:	1c43      	adds	r3, r0, #1
    51b0:	d007      	beq.n	51c2 <pinmap_merge+0x1a>
    51b2:	3101      	adds	r1, #1
    51b4:	d006      	beq.n	51c4 <pinmap_merge+0x1c>
    51b6:	4804      	ldr	r0, [pc, #16]	; (51c8 <pinmap_merge+0x20>)
    51b8:	f7fe ffe2 	bl	4180 <error>
    51bc:	f04f 30ff 	mov.w	r0, #4294967295	; 0xffffffff
    51c0:	bd08      	pop	{r3, pc}
    51c2:	4608      	mov	r0, r1
    51c4:	bd08      	pop	{r3, pc}
    51c6:	bf00      	nop
    51c8:	000087d0 	.word	0x000087d0

000051cc <pinmap_find_peripheral>:
    51cc:	680b      	ldr	r3, [r1, #0]
    51ce:	1c5a      	adds	r2, r3, #1
    51d0:	d104      	bne.n	51dc <pinmap_find_peripheral+0x10>
    51d2:	e007      	b.n	51e4 <pinmap_find_peripheral+0x18>
    51d4:	f851 3f0c 	ldr.w	r3, [r1, #12]!
    51d8:	1c5a      	adds	r2, r3, #1
    51da:	d003      	beq.n	51e4 <pinmap_find_peripheral+0x18>
    51dc:	4283      	cmp	r3, r0
    51de:	d1f9      	bne.n	51d4 <pinmap_find_peripheral+0x8>
    51e0:	6848      	ldr	r0, [r1, #4]
    51e2:	4770      	bx	lr
    51e4:	4618      	mov	r0, r3
    51e6:	4770      	bx	lr

000051e8 <pinmap_peripheral>:
    51e8:	b508      	push	{r3, lr}
    51ea:	1c43      	adds	r3, r0, #1
    51ec:	d00c      	beq.n	5208 <pinmap_peripheral+0x20>
    51ee:	680b      	ldr	r3, [r1, #0]
    51f0:	1c5a      	adds	r2, r3, #1
    51f2:	d104      	bne.n	51fe <pinmap_peripheral+0x16>
    51f4:	e009      	b.n	520a <pinmap_peripheral+0x22>
    51f6:	f851 3f0c 	ldr.w	r3, [r1, #12]!
    51fa:	1c5a      	adds	r2, r3, #1
    51fc:	d005      	beq.n	520a <pinmap_peripheral+0x22>
    51fe:	4298      	cmp	r0, r3
    5200:	d1f9      	bne.n	51f6 <pinmap_peripheral+0xe>
    5202:	6848      	ldr	r0, [r1, #4]
    5204:	1c41      	adds	r1, r0, #1
    5206:	d000      	beq.n	520a <pinmap_peripheral+0x22>
    5208:	bd08      	pop	{r3, pc}
    520a:	4803      	ldr	r0, [pc, #12]	; (5218 <pinmap_peripheral+0x30>)
    520c:	f7fe ffb8 	bl	4180 <error>
    5210:	f04f 30ff 	mov.w	r0, #4294967295	; 0xffffffff
    5214:	e7f8      	b.n	5208 <pinmap_peripheral+0x20>
    5216:	bf00      	nop
    5218:	000087e4 	.word	0x000087e4

0000521c <us_ticker_irq_handler>:
    521c:	b5f8      	push	{r3, r4, r5, r6, r7, lr}
    521e:	f7ff ff41 	bl	50a4 <us_ticker_clear_interrupt>
    5222:	4e12      	ldr	r6, [pc, #72]	; (526c <us_ticker_irq_handler+0x50>)
    5224:	4f12      	ldr	r7, [pc, #72]	; (5270 <us_ticker_irq_handler+0x54>)
    5226:	6833      	ldr	r3, [r6, #0]
    5228:	b1ab      	cbz	r3, 5256 <us_ticker_irq_handler+0x3a>
    522a:	e9d3 4500 	ldrd	r4, r5, [r3]
    522e:	f7ff ff19 	bl	5064 <us_ticker_read>
    5232:	1a22      	subs	r2, r4, r0
    5234:	f165 0300 	sbc.w	r3, r5, #0
    5238:	4610      	mov	r0, r2
    523a:	4619      	mov	r1, r3
    523c:	2801      	cmp	r0, #1
    523e:	f171 0300 	sbcs.w	r3, r1, #0
    5242:	da0c      	bge.n	525e <us_ticker_irq_handler+0x42>
    5244:	6831      	ldr	r1, [r6, #0]
    5246:	683a      	ldr	r2, [r7, #0]
    5248:	68cb      	ldr	r3, [r1, #12]
    524a:	6033      	str	r3, [r6, #0]
    524c:	2a00      	cmp	r2, #0
    524e:	d0eb      	beq.n	5228 <us_ticker_irq_handler+0xc>
    5250:	6888      	ldr	r0, [r1, #8]
    5252:	4790      	blx	r2
    5254:	e7e7      	b.n	5226 <us_ticker_irq_handler+0xa>
    5256:	e8bd 40f8 	ldmia.w	sp!, {r3, r4, r5, r6, r7, lr}
    525a:	f7ff bf1b 	b.w	5094 <us_ticker_disable_interrupt>
    525e:	6833      	ldr	r3, [r6, #0]
    5260:	e9d3 0100 	ldrd	r0, r1, [r3]
    5264:	e8bd 40f8 	ldmia.w	sp!, {r3, r4, r5, r6, r7, lr}
    5268:	f7ff bf0a 	b.w	5080 <us_ticker_set_interrupt>
    526c:	100003f8 	.word	0x100003f8
    5270:	100003fc 	.word	0x100003fc

00005274 <mbed::FileLike::~FileLike()>:
    5274:	b510      	push	{r4, lr}
    5276:	4b07      	ldr	r3, [pc, #28]	; (5294 <mbed::FileLike::~FileLike()+0x20>)
    5278:	4604      	mov	r4, r0
    527a:	f103 0208 	add.w	r2, r3, #8
    527e:	3334      	adds	r3, #52	; 0x34
    5280:	6022      	str	r2, [r4, #0]
    5282:	f840 3f04 	str.w	r3, [r0, #4]!
    5286:	f000 f891 	bl	53ac <mbed::FileBase::~FileBase()>
    528a:	4620      	mov	r0, r4
    528c:	f7ff f8c6 	bl	441c <mbed::FileHandle::~FileHandle()>
    5290:	4620      	mov	r0, r4
    5292:	bd10      	pop	{r4, pc}
    5294:	00008808 	.word	0x00008808

00005298 <non-virtual thunk to mbed::FileLike::~FileLike()>:
    5298:	f1a0 0004 	sub.w	r0, r0, #4
    529c:	f7ff bfea 	b.w	5274 <mbed::FileLike::~FileLike()>

000052a0 <mbed::FileLike::~FileLike()>:
    52a0:	4b09      	ldr	r3, [pc, #36]	; (52c8 <mbed::FileLike::~FileLike()+0x28>)
    52a2:	b510      	push	{r4, lr}
    52a4:	f103 0208 	add.w	r2, r3, #8
    52a8:	4604      	mov	r4, r0
    52aa:	3334      	adds	r3, #52	; 0x34
    52ac:	6022      	str	r2, [r4, #0]
    52ae:	f840 3f04 	str.w	r3, [r0, #4]!
    52b2:	f000 f87b 	bl	53ac <mbed::FileBase::~FileBase()>
    52b6:	4620      	mov	r0, r4
    52b8:	f7ff f8b0 	bl	441c <mbed::FileHandle::~FileHandle()>
    52bc:	4620      	mov	r0, r4
    52be:	f000 f8db 	bl	5478 <operator delete(void*)>
    52c2:	4620      	mov	r0, r4
    52c4:	bd10      	pop	{r4, pc}
    52c6:	bf00      	nop
    52c8:	00008808 	.word	0x00008808

000052cc <non-virtual thunk to mbed::FileLike::~FileLike()>:
    52cc:	f1a0 0004 	sub.w	r0, r0, #4
    52d0:	f7ff bfe6 	b.w	52a0 <mbed::FileLike::~FileLike()>

000052d4 <mbed::FileLike::FileLike(char const*)>:
    52d4:	4b07      	ldr	r3, [pc, #28]	; (52f4 <mbed::FileLike::FileLike(char const*)+0x20>)
    52d6:	b510      	push	{r4, lr}
    52d8:	2200      	movs	r2, #0
    52da:	4604      	mov	r4, r0
    52dc:	f840 3b04 	str.w	r3, [r0], #4
    52e0:	f000 f89a 	bl	5418 <mbed::FileBase::FileBase(char const*, mbed::PathType)>
    52e4:	4b04      	ldr	r3, [pc, #16]	; (52f8 <mbed::FileLike::FileLike(char const*)+0x24>)
    52e6:	4620      	mov	r0, r4
    52e8:	f103 0208 	add.w	r2, r3, #8
    52ec:	3334      	adds	r3, #52	; 0x34
    52ee:	e884 000c 	stmia.w	r4, {r2, r3}
    52f2:	bd10      	pop	{r4, pc}
    52f4:	00008668 	.word	0x00008668
    52f8:	00008808 	.word	0x00008808

000052fc <mbed::FilePath::FilePath(char const*)>:
    52fc:	b538      	push	{r3, r4, r5, lr}
    52fe:	2300      	movs	r3, #0
    5300:	6003      	str	r3, [r0, #0]
    5302:	6043      	str	r3, [r0, #4]
    5304:	780a      	ldrb	r2, [r1, #0]
    5306:	4604      	mov	r4, r0
    5308:	2a2f      	cmp	r2, #47	; 0x2f
    530a:	d001      	beq.n	5310 <mbed::FilePath::FilePath(char const*)+0x14>
    530c:	4620      	mov	r0, r4
    530e:	bd38      	pop	{r3, r4, r5, pc}
    5310:	784a      	ldrb	r2, [r1, #1]
    5312:	2a00      	cmp	r2, #0
    5314:	d0fa      	beq.n	530c <mbed::FilePath::FilePath(char const*)+0x10>
    5316:	1c48      	adds	r0, r1, #1
    5318:	6020      	str	r0, [r4, #0]
    531a:	784a      	ldrb	r2, [r1, #1]
    531c:	2a2f      	cmp	r2, #47	; 0x2f
    531e:	d014      	beq.n	534a <mbed::FilePath::FilePath(char const*)+0x4e>
    5320:	b1b2      	cbz	r2, 5350 <mbed::FilePath::FilePath(char const*)+0x54>
    5322:	1c8d      	adds	r5, r1, #2
    5324:	4619      	mov	r1, r3
    5326:	e000      	b.n	532a <mbed::FilePath::FilePath(char const*)+0x2e>
    5328:	b152      	cbz	r2, 5340 <mbed::FilePath::FilePath(char const*)+0x44>
    532a:	6025      	str	r5, [r4, #0]
    532c:	782a      	ldrb	r2, [r5, #0]
    532e:	462b      	mov	r3, r5
    5330:	2a2f      	cmp	r2, #47	; 0x2f
    5332:	f101 0101 	add.w	r1, r1, #1
    5336:	f105 0501 	add.w	r5, r5, #1
    533a:	d1f5      	bne.n	5328 <mbed::FilePath::FilePath(char const*)+0x2c>
    533c:	3301      	adds	r3, #1
    533e:	6023      	str	r3, [r4, #0]
    5340:	f000 f87e 	bl	5440 <mbed::FileBase::lookup(char const*, unsigned int)>
    5344:	6060      	str	r0, [r4, #4]
    5346:	4620      	mov	r0, r4
    5348:	bd38      	pop	{r3, r4, r5, pc}
    534a:	4619      	mov	r1, r3
    534c:	4603      	mov	r3, r0
    534e:	e7f5      	b.n	533c <mbed::FilePath::FilePath(char const*)+0x40>
    5350:	4611      	mov	r1, r2
    5352:	e7f5      	b.n	5340 <mbed::FilePath::FilePath(char const*)+0x44>

00005354 <mbed::FilePath::fileName()>:
    5354:	6800      	ldr	r0, [r0, #0]
    5356:	4770      	bx	lr

00005358 <mbed::FilePath::fileSystem()>:
    5358:	b510      	push	{r4, lr}
    535a:	4604      	mov	r4, r0
    535c:	6840      	ldr	r0, [r0, #4]
    535e:	b128      	cbz	r0, 536c <mbed::FilePath::fileSystem()+0x14>
    5360:	f000 f888 	bl	5474 <mbed::FileBase::getPathType()>
    5364:	2801      	cmp	r0, #1
    5366:	d101      	bne.n	536c <mbed::FilePath::fileSystem()+0x14>
    5368:	6860      	ldr	r0, [r4, #4]
    536a:	bd10      	pop	{r4, pc}
    536c:	2000      	movs	r0, #0
    536e:	bd10      	pop	{r4, pc}

00005370 <mbed::FilePath::isFile()>:
    5370:	6840      	ldr	r0, [r0, #4]
    5372:	b508      	push	{r3, lr}
    5374:	b128      	cbz	r0, 5382 <mbed::FilePath::isFile()+0x12>
    5376:	f000 f87d 	bl	5474 <mbed::FileBase::getPathType()>
    537a:	f1d0 0001 	rsbs	r0, r0, #1
    537e:	bf38      	it	cc
    5380:	2000      	movcc	r0, #0
    5382:	bd08      	pop	{r3, pc}

00005384 <mbed::FilePath::file()>:
    5384:	b510      	push	{r4, lr}
    5386:	4604      	mov	r4, r0
    5388:	6840      	ldr	r0, [r0, #4]
    538a:	b130      	cbz	r0, 539a <mbed::FilePath::file()+0x16>
    538c:	f000 f872 	bl	5474 <mbed::FileBase::getPathType()>
    5390:	b918      	cbnz	r0, 539a <mbed::FilePath::file()+0x16>
    5392:	6860      	ldr	r0, [r4, #4]
    5394:	b108      	cbz	r0, 539a <mbed::FilePath::file()+0x16>
    5396:	3804      	subs	r0, #4
    5398:	bd10      	pop	{r4, pc}
    539a:	2000      	movs	r0, #0
    539c:	bd10      	pop	{r4, pc}
    539e:	bf00      	nop

000053a0 <mbed::FilePath::exists()>:
    53a0:	6840      	ldr	r0, [r0, #4]
    53a2:	3000      	adds	r0, #0
    53a4:	bf18      	it	ne
    53a6:	2001      	movne	r0, #1
    53a8:	4770      	bx	lr
    53aa:	bf00      	nop

000053ac <mbed::FileBase::~FileBase()>:
    53ac:	4a09      	ldr	r2, [pc, #36]	; (53d4 <mbed::FileBase::~FileBase()+0x28>)
    53ae:	6883      	ldr	r3, [r0, #8]
    53b0:	6002      	str	r2, [r0, #0]
    53b2:	b153      	cbz	r3, 53ca <mbed::FileBase::~FileBase()+0x1e>
    53b4:	4b08      	ldr	r3, [pc, #32]	; (53d8 <mbed::FileBase::~FileBase()+0x2c>)
    53b6:	681a      	ldr	r2, [r3, #0]
    53b8:	4282      	cmp	r2, r0
    53ba:	d101      	bne.n	53c0 <mbed::FileBase::~FileBase()+0x14>
    53bc:	e006      	b.n	53cc <mbed::FileBase::~FileBase()+0x20>
    53be:	461a      	mov	r2, r3
    53c0:	6853      	ldr	r3, [r2, #4]
    53c2:	4283      	cmp	r3, r0
    53c4:	d1fb      	bne.n	53be <mbed::FileBase::~FileBase()+0x12>
    53c6:	6843      	ldr	r3, [r0, #4]
    53c8:	6053      	str	r3, [r2, #4]
    53ca:	4770      	bx	lr
    53cc:	6842      	ldr	r2, [r0, #4]
    53ce:	601a      	str	r2, [r3, #0]
    53d0:	4770      	bx	lr
    53d2:	bf00      	nop
    53d4:	00008850 	.word	0x00008850
    53d8:	10000400 	.word	0x10000400

000053dc <mbed::FileBase::~FileBase()>:
    53dc:	4a0c      	ldr	r2, [pc, #48]	; (5410 <mbed::FileBase::~FileBase()+0x34>)
    53de:	6883      	ldr	r3, [r0, #8]
    53e0:	b510      	push	{r4, lr}
    53e2:	4604      	mov	r4, r0
    53e4:	6002      	str	r2, [r0, #0]
    53e6:	b153      	cbz	r3, 53fe <mbed::FileBase::~FileBase()+0x22>
    53e8:	4b0a      	ldr	r3, [pc, #40]	; (5414 <mbed::FileBase::~FileBase()+0x38>)
    53ea:	681a      	ldr	r2, [r3, #0]
    53ec:	4290      	cmp	r0, r2
    53ee:	d101      	bne.n	53f4 <mbed::FileBase::~FileBase()+0x18>
    53f0:	e00a      	b.n	5408 <mbed::FileBase::~FileBase()+0x2c>
    53f2:	461a      	mov	r2, r3
    53f4:	6853      	ldr	r3, [r2, #4]
    53f6:	429c      	cmp	r4, r3
    53f8:	d1fb      	bne.n	53f2 <mbed::FileBase::~FileBase()+0x16>
    53fa:	6863      	ldr	r3, [r4, #4]
    53fc:	6053      	str	r3, [r2, #4]
    53fe:	4620      	mov	r0, r4
    5400:	f000 f83a 	bl	5478 <operator delete(void*)>
    5404:	4620      	mov	r0, r4
    5406:	bd10      	pop	{r4, pc}
    5408:	6842      	ldr	r2, [r0, #4]
    540a:	601a      	str	r2, [r3, #0]
    540c:	e7f7      	b.n	53fe <mbed::FileBase::~FileBase()+0x22>
    540e:	bf00      	nop
    5410:	00008850 	.word	0x00008850
    5414:	10000400 	.word	0x10000400

00005418 <mbed::FileBase::FileBase(char const*, mbed::PathType)>:
    5418:	4b07      	ldr	r3, [pc, #28]	; (5438 <mbed::FileBase::FileBase(char const*, mbed::PathType)+0x20>)
    541a:	b410      	push	{r4}
    541c:	2400      	movs	r4, #0
    541e:	7302      	strb	r2, [r0, #12]
    5420:	6081      	str	r1, [r0, #8]
    5422:	e880 0018 	stmia.w	r0, {r3, r4}
    5426:	b119      	cbz	r1, 5430 <mbed::FileBase::FileBase(char const*, mbed::PathType)+0x18>
    5428:	4b04      	ldr	r3, [pc, #16]	; (543c <mbed::FileBase::FileBase(char const*, mbed::PathType)+0x24>)
    542a:	681a      	ldr	r2, [r3, #0]
    542c:	6018      	str	r0, [r3, #0]
    542e:	6042      	str	r2, [r0, #4]
    5430:	f85d 4b04 	ldr.w	r4, [sp], #4
    5434:	4770      	bx	lr
    5436:	bf00      	nop
    5438:	00008850 	.word	0x00008850
    543c:	10000400 	.word	0x10000400

00005440 <mbed::FileBase::lookup(char const*, unsigned int)>:
    5440:	b5f8      	push	{r3, r4, r5, r6, r7, lr}
    5442:	4b0b      	ldr	r3, [pc, #44]	; (5470 <mbed::FileBase::lookup(char const*, unsigned int)+0x30>)
    5444:	4607      	mov	r7, r0
    5446:	681c      	ldr	r4, [r3, #0]
    5448:	460e      	mov	r6, r1
    544a:	b17c      	cbz	r4, 546c <mbed::FileBase::lookup(char const*, unsigned int)+0x2c>
    544c:	68a5      	ldr	r5, [r4, #8]
    544e:	4639      	mov	r1, r7
    5450:	4632      	mov	r2, r6
    5452:	4628      	mov	r0, r5
    5454:	b13d      	cbz	r5, 5466 <mbed::FileBase::lookup(char const*, unsigned int)+0x26>
    5456:	f001 f9ad 	bl	67b4 <strncmp>
    545a:	b920      	cbnz	r0, 5466 <mbed::FileBase::lookup(char const*, unsigned int)+0x26>
    545c:	4628      	mov	r0, r5
    545e:	f001 f9a1 	bl	67a4 <strlen>
    5462:	42b0      	cmp	r0, r6
    5464:	d002      	beq.n	546c <mbed::FileBase::lookup(char const*, unsigned int)+0x2c>
    5466:	6864      	ldr	r4, [r4, #4]
    5468:	2c00      	cmp	r4, #0
    546a:	d1ef      	bne.n	544c <mbed::FileBase::lookup(char const*, unsigned int)+0xc>
    546c:	4620      	mov	r0, r4
    546e:	bdf8      	pop	{r3, r4, r5, r6, r7, pc}
    5470:	10000400 	.word	0x10000400

00005474 <mbed::FileBase::getPathType()>:
    5474:	7b00      	ldrb	r0, [r0, #12]
    5476:	4770      	bx	lr

00005478 <operator delete(void*)>:
    5478:	b108      	cbz	r0, 547e <operator delete(void*)+0x6>
    547a:	f7fa bec5 	b.w	208 <__wrap_free>
    547e:	4770      	bx	lr

00005480 <operator delete[](void*)>:
    5480:	f7ff bffa 	b.w	5478 <operator delete(void*)>

00005484 <operator new(unsigned int)>:
    5484:	b510      	push	{r4, lr}
    5486:	2800      	cmp	r0, #0
    5488:	bf14      	ite	ne
    548a:	4604      	movne	r4, r0
    548c:	2401      	moveq	r4, #1
    548e:	4620      	mov	r0, r4
    5490:	f7fa feb4 	bl	1fc <__wrap_malloc>
    5494:	b930      	cbnz	r0, 54a4 <operator new(unsigned int)+0x20>
    5496:	4b04      	ldr	r3, [pc, #16]	; (54a8 <operator new(unsigned int)+0x24>)
    5498:	681b      	ldr	r3, [r3, #0]
    549a:	b90b      	cbnz	r3, 54a0 <operator new(unsigned int)+0x1c>
    549c:	f7fa feba 	bl	214 <abort>
    54a0:	4798      	blx	r3
    54a2:	e7f4      	b.n	548e <operator new(unsigned int)+0xa>
    54a4:	bd10      	pop	{r4, pc}
    54a6:	bf00      	nop
    54a8:	10000404 	.word	0x10000404

000054ac <operator new[](unsigned int)>:
    54ac:	f7ff bfea 	b.w	5484 <operator new(unsigned int)>

000054b0 <atexit>:
    54b0:	4601      	mov	r1, r0
    54b2:	2000      	movs	r0, #0
    54b4:	4602      	mov	r2, r0
    54b6:	4603      	mov	r3, r0
    54b8:	f002 b9a8 	b.w	780c <__register_exitproc>

000054bc <__errno>:
    54bc:	4b01      	ldr	r3, [pc, #4]	; (54c4 <__errno+0x8>)
    54be:	6818      	ldr	r0, [r3, #0]
    54c0:	4770      	bx	lr
    54c2:	bf00      	nop
    54c4:	100001b8 	.word	0x100001b8

000054c8 <_fclose_r>:
    54c8:	b570      	push	{r4, r5, r6, lr}
    54ca:	4605      	mov	r5, r0
    54cc:	460c      	mov	r4, r1
    54ce:	b909      	cbnz	r1, 54d4 <_fclose_r+0xc>
    54d0:	2000      	movs	r0, #0
    54d2:	bd70      	pop	{r4, r5, r6, pc}
    54d4:	b118      	cbz	r0, 54de <_fclose_r+0x16>
    54d6:	6983      	ldr	r3, [r0, #24]
    54d8:	b90b      	cbnz	r3, 54de <_fclose_r+0x16>
    54da:	f000 f997 	bl	580c <__sinit>
    54de:	4b20      	ldr	r3, [pc, #128]	; (5560 <_fclose_r+0x98>)
    54e0:	429c      	cmp	r4, r3
    54e2:	d101      	bne.n	54e8 <_fclose_r+0x20>
    54e4:	686c      	ldr	r4, [r5, #4]
    54e6:	e008      	b.n	54fa <_fclose_r+0x32>
    54e8:	4b1e      	ldr	r3, [pc, #120]	; (5564 <_fclose_r+0x9c>)
    54ea:	429c      	cmp	r4, r3
    54ec:	d101      	bne.n	54f2 <_fclose_r+0x2a>
    54ee:	68ac      	ldr	r4, [r5, #8]
    54f0:	e003      	b.n	54fa <_fclose_r+0x32>
    54f2:	4b1d      	ldr	r3, [pc, #116]	; (5568 <_fclose_r+0xa0>)
    54f4:	429c      	cmp	r4, r3
    54f6:	bf08      	it	eq
    54f8:	68ec      	ldreq	r4, [r5, #12]
    54fa:	f9b4 300c 	ldrsh.w	r3, [r4, #12]
    54fe:	2b00      	cmp	r3, #0
    5500:	d0e6      	beq.n	54d0 <_fclose_r+0x8>
    5502:	4628      	mov	r0, r5
    5504:	4621      	mov	r1, r4
    5506:	f000 f8bd 	bl	5684 <_fflush_r>
    550a:	6b23      	ldr	r3, [r4, #48]	; 0x30
    550c:	4606      	mov	r6, r0
    550e:	b133      	cbz	r3, 551e <_fclose_r+0x56>
    5510:	4628      	mov	r0, r5
    5512:	6a21      	ldr	r1, [r4, #32]
    5514:	4798      	blx	r3
    5516:	2800      	cmp	r0, #0
    5518:	bfb8      	it	lt
    551a:	f04f 36ff 	movlt.w	r6, #4294967295	; 0xffffffff
    551e:	89a3      	ldrh	r3, [r4, #12]
    5520:	061b      	lsls	r3, r3, #24
    5522:	d503      	bpl.n	552c <_fclose_r+0x64>
    5524:	4628      	mov	r0, r5
    5526:	6921      	ldr	r1, [r4, #16]
    5528:	f000 fc34 	bl	5d94 <_free_r>
    552c:	6b61      	ldr	r1, [r4, #52]	; 0x34
    552e:	b141      	cbz	r1, 5542 <_fclose_r+0x7a>
    5530:	f104 0344 	add.w	r3, r4, #68	; 0x44
    5534:	4299      	cmp	r1, r3
    5536:	d002      	beq.n	553e <_fclose_r+0x76>
    5538:	4628      	mov	r0, r5
    553a:	f000 fc2b 	bl	5d94 <_free_r>
    553e:	2300      	movs	r3, #0
    5540:	6363      	str	r3, [r4, #52]	; 0x34
    5542:	6ca1      	ldr	r1, [r4, #72]	; 0x48
    5544:	b121      	cbz	r1, 5550 <_fclose_r+0x88>
    5546:	4628      	mov	r0, r5
    5548:	f000 fc24 	bl	5d94 <_free_r>
    554c:	2300      	movs	r3, #0
    554e:	64a3      	str	r3, [r4, #72]	; 0x48
    5550:	f000 f9c6 	bl	58e0 <__sfp_lock_acquire>
    5554:	2300      	movs	r3, #0
    5556:	81a3      	strh	r3, [r4, #12]
    5558:	f000 f9c3 	bl	58e2 <__sfp_lock_release>
    555c:	4630      	mov	r0, r6
    555e:	bd70      	pop	{r4, r5, r6, pc}
    5560:	00008858 	.word	0x00008858
    5564:	00008878 	.word	0x00008878
    5568:	00008898 	.word	0x00008898

0000556c <fclose>:
    556c:	4b02      	ldr	r3, [pc, #8]	; (5578 <fclose+0xc>)
    556e:	4601      	mov	r1, r0
    5570:	6818      	ldr	r0, [r3, #0]
    5572:	f7ff bfa9 	b.w	54c8 <_fclose_r>
    5576:	bf00      	nop
    5578:	100001b8 	.word	0x100001b8

0000557c <__sflush_r>:
    557c:	898a      	ldrh	r2, [r1, #12]
    557e:	e92d 41f0 	stmdb	sp!, {r4, r5, r6, r7, r8, lr}
    5582:	4605      	mov	r5, r0
    5584:	0710      	lsls	r0, r2, #28
    5586:	460c      	mov	r4, r1
    5588:	d457      	bmi.n	563a <__sflush_r+0xbe>
    558a:	684b      	ldr	r3, [r1, #4]
    558c:	2b00      	cmp	r3, #0
    558e:	dc02      	bgt.n	5596 <__sflush_r+0x1a>
    5590:	6c0b      	ldr	r3, [r1, #64]	; 0x40
    5592:	2b00      	cmp	r3, #0
    5594:	dd18      	ble.n	55c8 <__sflush_r+0x4c>
    5596:	6ae6      	ldr	r6, [r4, #44]	; 0x2c
    5598:	b1b6      	cbz	r6, 55c8 <__sflush_r+0x4c>
    559a:	f402 5280 	and.w	r2, r2, #4096	; 0x1000
    559e:	2300      	movs	r3, #0
    55a0:	b292      	uxth	r2, r2
    55a2:	682f      	ldr	r7, [r5, #0]
    55a4:	602b      	str	r3, [r5, #0]
    55a6:	b10a      	cbz	r2, 55ac <__sflush_r+0x30>
    55a8:	6d62      	ldr	r2, [r4, #84]	; 0x54
    55aa:	e010      	b.n	55ce <__sflush_r+0x52>
    55ac:	6a21      	ldr	r1, [r4, #32]
    55ae:	4628      	mov	r0, r5
    55b0:	2301      	movs	r3, #1
    55b2:	47b0      	blx	r6
    55b4:	1c41      	adds	r1, r0, #1
    55b6:	4602      	mov	r2, r0
    55b8:	d109      	bne.n	55ce <__sflush_r+0x52>
    55ba:	682b      	ldr	r3, [r5, #0]
    55bc:	b13b      	cbz	r3, 55ce <__sflush_r+0x52>
    55be:	2b1d      	cmp	r3, #29
    55c0:	d001      	beq.n	55c6 <__sflush_r+0x4a>
    55c2:	2b16      	cmp	r3, #22
    55c4:	d146      	bne.n	5654 <__sflush_r+0xd8>
    55c6:	602f      	str	r7, [r5, #0]
    55c8:	2000      	movs	r0, #0
    55ca:	e8bd 81f0 	ldmia.w	sp!, {r4, r5, r6, r7, r8, pc}
    55ce:	89a3      	ldrh	r3, [r4, #12]
    55d0:	075b      	lsls	r3, r3, #29
    55d2:	d505      	bpl.n	55e0 <__sflush_r+0x64>
    55d4:	6863      	ldr	r3, [r4, #4]
    55d6:	1ad2      	subs	r2, r2, r3
    55d8:	6b63      	ldr	r3, [r4, #52]	; 0x34
    55da:	b10b      	cbz	r3, 55e0 <__sflush_r+0x64>
    55dc:	6c23      	ldr	r3, [r4, #64]	; 0x40
    55de:	1ad2      	subs	r2, r2, r3
    55e0:	6ae6      	ldr	r6, [r4, #44]	; 0x2c
    55e2:	4628      	mov	r0, r5
    55e4:	6a21      	ldr	r1, [r4, #32]
    55e6:	2300      	movs	r3, #0
    55e8:	47b0      	blx	r6
    55ea:	1c46      	adds	r6, r0, #1
    55ec:	89a2      	ldrh	r2, [r4, #12]
    55ee:	d105      	bne.n	55fc <__sflush_r+0x80>
    55f0:	682b      	ldr	r3, [r5, #0]
    55f2:	b11b      	cbz	r3, 55fc <__sflush_r+0x80>
    55f4:	2b1d      	cmp	r3, #29
    55f6:	d001      	beq.n	55fc <__sflush_r+0x80>
    55f8:	2b16      	cmp	r3, #22
    55fa:	d119      	bne.n	5630 <__sflush_r+0xb4>
    55fc:	2300      	movs	r3, #0
    55fe:	6063      	str	r3, [r4, #4]
    5600:	6923      	ldr	r3, [r4, #16]
    5602:	04d1      	lsls	r1, r2, #19
    5604:	6023      	str	r3, [r4, #0]
    5606:	d504      	bpl.n	5612 <__sflush_r+0x96>
    5608:	1c42      	adds	r2, r0, #1
    560a:	d101      	bne.n	5610 <__sflush_r+0x94>
    560c:	682b      	ldr	r3, [r5, #0]
    560e:	b903      	cbnz	r3, 5612 <__sflush_r+0x96>
    5610:	6560      	str	r0, [r4, #84]	; 0x54
    5612:	6b61      	ldr	r1, [r4, #52]	; 0x34
    5614:	602f      	str	r7, [r5, #0]
    5616:	2900      	cmp	r1, #0
    5618:	d0d6      	beq.n	55c8 <__sflush_r+0x4c>
    561a:	f104 0344 	add.w	r3, r4, #68	; 0x44
    561e:	4299      	cmp	r1, r3
    5620:	d002      	beq.n	5628 <__sflush_r+0xac>
    5622:	4628      	mov	r0, r5
    5624:	f000 fbb6 	bl	5d94 <_free_r>
    5628:	2000      	movs	r0, #0
    562a:	6360      	str	r0, [r4, #52]	; 0x34
    562c:	e8bd 81f0 	ldmia.w	sp!, {r4, r5, r6, r7, r8, pc}
    5630:	f042 0240 	orr.w	r2, r2, #64	; 0x40
    5634:	81a2      	strh	r2, [r4, #12]
    5636:	e8bd 81f0 	ldmia.w	sp!, {r4, r5, r6, r7, r8, pc}
    563a:	690e      	ldr	r6, [r1, #16]
    563c:	2e00      	cmp	r6, #0
    563e:	d0c3      	beq.n	55c8 <__sflush_r+0x4c>
    5640:	680b      	ldr	r3, [r1, #0]
    5642:	600e      	str	r6, [r1, #0]
    5644:	ebc6 0803 	rsb	r8, r6, r3
    5648:	0793      	lsls	r3, r2, #30
    564a:	bf0c      	ite	eq
    564c:	694b      	ldreq	r3, [r1, #20]
    564e:	2300      	movne	r3, #0
    5650:	608b      	str	r3, [r1, #8]
    5652:	e012      	b.n	567a <__sflush_r+0xfe>
    5654:	89a3      	ldrh	r3, [r4, #12]
    5656:	f04f 30ff 	mov.w	r0, #4294967295	; 0xffffffff
    565a:	f043 0340 	orr.w	r3, r3, #64	; 0x40
    565e:	81a3      	strh	r3, [r4, #12]
    5660:	e8bd 81f0 	ldmia.w	sp!, {r4, r5, r6, r7, r8, pc}
    5664:	6aa7      	ldr	r7, [r4, #40]	; 0x28
    5666:	4628      	mov	r0, r5
    5668:	6a21      	ldr	r1, [r4, #32]
    566a:	4632      	mov	r2, r6
    566c:	4643      	mov	r3, r8
    566e:	47b8      	blx	r7
    5670:	2800      	cmp	r0, #0
    5672:	ddef      	ble.n	5654 <__sflush_r+0xd8>
    5674:	4406      	add	r6, r0
    5676:	ebc0 0808 	rsb	r8, r0, r8
    567a:	f1b8 0f00 	cmp.w	r8, #0
    567e:	dcf1      	bgt.n	5664 <__sflush_r+0xe8>
    5680:	e7a2      	b.n	55c8 <__sflush_r+0x4c>
	...

00005684 <_fflush_r>:
    5684:	b538      	push	{r3, r4, r5, lr}
    5686:	690b      	ldr	r3, [r1, #16]
    5688:	4605      	mov	r5, r0
    568a:	460c      	mov	r4, r1
    568c:	b1db      	cbz	r3, 56c6 <_fflush_r+0x42>
    568e:	b118      	cbz	r0, 5698 <_fflush_r+0x14>
    5690:	6983      	ldr	r3, [r0, #24]
    5692:	b90b      	cbnz	r3, 5698 <_fflush_r+0x14>
    5694:	f000 f8ba 	bl	580c <__sinit>
    5698:	4b0c      	ldr	r3, [pc, #48]	; (56cc <_fflush_r+0x48>)
    569a:	429c      	cmp	r4, r3
    569c:	d101      	bne.n	56a2 <_fflush_r+0x1e>
    569e:	686c      	ldr	r4, [r5, #4]
    56a0:	e008      	b.n	56b4 <_fflush_r+0x30>
    56a2:	4b0b      	ldr	r3, [pc, #44]	; (56d0 <_fflush_r+0x4c>)
    56a4:	429c      	cmp	r4, r3
    56a6:	d101      	bne.n	56ac <_fflush_r+0x28>
    56a8:	68ac      	ldr	r4, [r5, #8]
    56aa:	e003      	b.n	56b4 <_fflush_r+0x30>
    56ac:	4b09      	ldr	r3, [pc, #36]	; (56d4 <_fflush_r+0x50>)
    56ae:	429c      	cmp	r4, r3
    56b0:	bf08      	it	eq
    56b2:	68ec      	ldreq	r4, [r5, #12]
    56b4:	f9b4 300c 	ldrsh.w	r3, [r4, #12]
    56b8:	b12b      	cbz	r3, 56c6 <_fflush_r+0x42>
    56ba:	4628      	mov	r0, r5
    56bc:	4621      	mov	r1, r4
    56be:	e8bd 4038 	ldmia.w	sp!, {r3, r4, r5, lr}
    56c2:	f7ff bf5b 	b.w	557c <__sflush_r>
    56c6:	2000      	movs	r0, #0
    56c8:	bd38      	pop	{r3, r4, r5, pc}
    56ca:	bf00      	nop
    56cc:	00008858 	.word	0x00008858
    56d0:	00008878 	.word	0x00008878
    56d4:	00008898 	.word	0x00008898

000056d8 <fflush>:
    56d8:	4601      	mov	r1, r0
    56da:	b920      	cbnz	r0, 56e6 <fflush+0xe>
    56dc:	4b04      	ldr	r3, [pc, #16]	; (56f0 <fflush+0x18>)
    56de:	4905      	ldr	r1, [pc, #20]	; (56f4 <fflush+0x1c>)
    56e0:	6818      	ldr	r0, [r3, #0]
    56e2:	f000 ba97 	b.w	5c14 <_fwalk_reent>
    56e6:	4b04      	ldr	r3, [pc, #16]	; (56f8 <fflush+0x20>)
    56e8:	6818      	ldr	r0, [r3, #0]
    56ea:	f7ff bfcb 	b.w	5684 <_fflush_r>
    56ee:	bf00      	nop
    56f0:	000088bc 	.word	0x000088bc
    56f4:	00005685 	.word	0x00005685
    56f8:	100001b8 	.word	0x100001b8

000056fc <_fgetc_r>:
    56fc:	b538      	push	{r3, r4, r5, lr}
    56fe:	460c      	mov	r4, r1
    5700:	4605      	mov	r5, r0
    5702:	b118      	cbz	r0, 570c <_fgetc_r+0x10>
    5704:	6983      	ldr	r3, [r0, #24]
    5706:	b90b      	cbnz	r3, 570c <_fgetc_r+0x10>
    5708:	f000 f880 	bl	580c <__sinit>
    570c:	4b0e      	ldr	r3, [pc, #56]	; (5748 <_fgetc_r+0x4c>)
    570e:	429c      	cmp	r4, r3
    5710:	d101      	bne.n	5716 <_fgetc_r+0x1a>
    5712:	686c      	ldr	r4, [r5, #4]
    5714:	e008      	b.n	5728 <_fgetc_r+0x2c>
    5716:	4b0d      	ldr	r3, [pc, #52]	; (574c <_fgetc_r+0x50>)
    5718:	429c      	cmp	r4, r3
    571a:	d101      	bne.n	5720 <_fgetc_r+0x24>
    571c:	68ac      	ldr	r4, [r5, #8]
    571e:	e003      	b.n	5728 <_fgetc_r+0x2c>
    5720:	4b0b      	ldr	r3, [pc, #44]	; (5750 <_fgetc_r+0x54>)
    5722:	429c      	cmp	r4, r3
    5724:	bf08      	it	eq
    5726:	68ec      	ldreq	r4, [r5, #12]
    5728:	6863      	ldr	r3, [r4, #4]
    572a:	3b01      	subs	r3, #1
    572c:	2b00      	cmp	r3, #0
    572e:	6063      	str	r3, [r4, #4]
    5730:	da05      	bge.n	573e <_fgetc_r+0x42>
    5732:	4628      	mov	r0, r5
    5734:	4621      	mov	r1, r4
    5736:	e8bd 4038 	ldmia.w	sp!, {r3, r4, r5, lr}
    573a:	f000 bcfb 	b.w	6134 <__srget_r>
    573e:	6823      	ldr	r3, [r4, #0]
    5740:	1c5a      	adds	r2, r3, #1
    5742:	6022      	str	r2, [r4, #0]
    5744:	7818      	ldrb	r0, [r3, #0]
    5746:	bd38      	pop	{r3, r4, r5, pc}
    5748:	00008858 	.word	0x00008858
    574c:	00008878 	.word	0x00008878
    5750:	00008898 	.word	0x00008898

00005754 <fgetc>:
    5754:	4b02      	ldr	r3, [pc, #8]	; (5760 <fgetc+0xc>)
    5756:	4601      	mov	r1, r0
    5758:	6818      	ldr	r0, [r3, #0]
    575a:	f7ff bfcf 	b.w	56fc <_fgetc_r>
    575e:	bf00      	nop
    5760:	100001b8 	.word	0x100001b8

00005764 <_cleanup_r>:
    5764:	b5f8      	push	{r3, r4, r5, r6, r7, lr}
    5766:	4607      	mov	r7, r0
    5768:	f100 0448 	add.w	r4, r0, #72	; 0x48
    576c:	b194      	cbz	r4, 5794 <_cleanup_r+0x30>
    576e:	68a5      	ldr	r5, [r4, #8]
    5770:	6866      	ldr	r6, [r4, #4]
    5772:	3e01      	subs	r6, #1
    5774:	d40c      	bmi.n	5790 <_cleanup_r+0x2c>
    5776:	89ab      	ldrh	r3, [r5, #12]
    5778:	2b01      	cmp	r3, #1
    577a:	d907      	bls.n	578c <_cleanup_r+0x28>
    577c:	f9b5 300e 	ldrsh.w	r3, [r5, #14]
    5780:	3301      	adds	r3, #1
    5782:	d003      	beq.n	578c <_cleanup_r+0x28>
    5784:	4638      	mov	r0, r7
    5786:	4629      	mov	r1, r5
    5788:	f7ff ff7c 	bl	5684 <_fflush_r>
    578c:	3568      	adds	r5, #104	; 0x68
    578e:	e7f0      	b.n	5772 <_cleanup_r+0xe>
    5790:	6824      	ldr	r4, [r4, #0]
    5792:	e7eb      	b.n	576c <_cleanup_r+0x8>
    5794:	bdf8      	pop	{r3, r4, r5, r6, r7, pc}
	...

00005798 <std.isra.0>:
    5798:	2300      	movs	r3, #0
    579a:	b510      	push	{r4, lr}
    579c:	4604      	mov	r4, r0
    579e:	6003      	str	r3, [r0, #0]
    57a0:	6043      	str	r3, [r0, #4]
    57a2:	6083      	str	r3, [r0, #8]
    57a4:	8181      	strh	r1, [r0, #12]
    57a6:	6643      	str	r3, [r0, #100]	; 0x64
    57a8:	81c2      	strh	r2, [r0, #14]
    57aa:	6103      	str	r3, [r0, #16]
    57ac:	6143      	str	r3, [r0, #20]
    57ae:	6183      	str	r3, [r0, #24]
    57b0:	4619      	mov	r1, r3
    57b2:	305c      	adds	r0, #92	; 0x5c
    57b4:	2208      	movs	r2, #8
    57b6:	f000 fae4 	bl	5d82 <memset>
    57ba:	4b05      	ldr	r3, [pc, #20]	; (57d0 <std.isra.0+0x38>)
    57bc:	6224      	str	r4, [r4, #32]
    57be:	6263      	str	r3, [r4, #36]	; 0x24
    57c0:	4b04      	ldr	r3, [pc, #16]	; (57d4 <std.isra.0+0x3c>)
    57c2:	62a3      	str	r3, [r4, #40]	; 0x28
    57c4:	4b04      	ldr	r3, [pc, #16]	; (57d8 <std.isra.0+0x40>)
    57c6:	62e3      	str	r3, [r4, #44]	; 0x2c
    57c8:	4b04      	ldr	r3, [pc, #16]	; (57dc <std.isra.0+0x44>)
    57ca:	6323      	str	r3, [r4, #48]	; 0x30
    57cc:	bd10      	pop	{r4, pc}
    57ce:	bf00      	nop
    57d0:	00006369 	.word	0x00006369
    57d4:	0000638f 	.word	0x0000638f
    57d8:	000063c7 	.word	0x000063c7
    57dc:	000063eb 	.word	0x000063eb

000057e0 <__sfmoreglue>:
    57e0:	b570      	push	{r4, r5, r6, lr}
    57e2:	1e4b      	subs	r3, r1, #1
    57e4:	2568      	movs	r5, #104	; 0x68
    57e6:	435d      	muls	r5, r3
    57e8:	460e      	mov	r6, r1
    57ea:	f105 0174 	add.w	r1, r5, #116	; 0x74
    57ee:	f000 fb15 	bl	5e1c <_malloc_r>
    57f2:	4604      	mov	r4, r0
    57f4:	b140      	cbz	r0, 5808 <__sfmoreglue+0x28>
    57f6:	2100      	movs	r1, #0
    57f8:	e880 0042 	stmia.w	r0, {r1, r6}
    57fc:	300c      	adds	r0, #12
    57fe:	60a0      	str	r0, [r4, #8]
    5800:	f105 0268 	add.w	r2, r5, #104	; 0x68
    5804:	f000 fabd 	bl	5d82 <memset>
    5808:	4620      	mov	r0, r4
    580a:	bd70      	pop	{r4, r5, r6, pc}

0000580c <__sinit>:
    580c:	6983      	ldr	r3, [r0, #24]
    580e:	b510      	push	{r4, lr}
    5810:	4604      	mov	r4, r0
    5812:	bb33      	cbnz	r3, 5862 <__sinit+0x56>
    5814:	6483      	str	r3, [r0, #72]	; 0x48
    5816:	64c3      	str	r3, [r0, #76]	; 0x4c
    5818:	6503      	str	r3, [r0, #80]	; 0x50
    581a:	4b12      	ldr	r3, [pc, #72]	; (5864 <__sinit+0x58>)
    581c:	4a12      	ldr	r2, [pc, #72]	; (5868 <__sinit+0x5c>)
    581e:	681b      	ldr	r3, [r3, #0]
    5820:	6282      	str	r2, [r0, #40]	; 0x28
    5822:	4298      	cmp	r0, r3
    5824:	bf04      	itt	eq
    5826:	2301      	moveq	r3, #1
    5828:	6183      	streq	r3, [r0, #24]
    582a:	f000 f81f 	bl	586c <__sfp>
    582e:	6060      	str	r0, [r4, #4]
    5830:	4620      	mov	r0, r4
    5832:	f000 f81b 	bl	586c <__sfp>
    5836:	60a0      	str	r0, [r4, #8]
    5838:	4620      	mov	r0, r4
    583a:	f000 f817 	bl	586c <__sfp>
    583e:	2104      	movs	r1, #4
    5840:	60e0      	str	r0, [r4, #12]
    5842:	2200      	movs	r2, #0
    5844:	6860      	ldr	r0, [r4, #4]
    5846:	f7ff ffa7 	bl	5798 <std.isra.0>
    584a:	68a0      	ldr	r0, [r4, #8]
    584c:	2109      	movs	r1, #9
    584e:	2201      	movs	r2, #1
    5850:	f7ff ffa2 	bl	5798 <std.isra.0>
    5854:	68e0      	ldr	r0, [r4, #12]
    5856:	2112      	movs	r1, #18
    5858:	2202      	movs	r2, #2
    585a:	f7ff ff9d 	bl	5798 <std.isra.0>
    585e:	2301      	movs	r3, #1
    5860:	61a3      	str	r3, [r4, #24]
    5862:	bd10      	pop	{r4, pc}
    5864:	000088bc 	.word	0x000088bc
    5868:	00005765 	.word	0x00005765

0000586c <__sfp>:
    586c:	b5f8      	push	{r3, r4, r5, r6, r7, lr}
    586e:	4b1b      	ldr	r3, [pc, #108]	; (58dc <__sfp+0x70>)
    5870:	4607      	mov	r7, r0
    5872:	681e      	ldr	r6, [r3, #0]
    5874:	69b3      	ldr	r3, [r6, #24]
    5876:	b913      	cbnz	r3, 587e <__sfp+0x12>
    5878:	4630      	mov	r0, r6
    587a:	f7ff ffc7 	bl	580c <__sinit>
    587e:	3648      	adds	r6, #72	; 0x48
    5880:	68b4      	ldr	r4, [r6, #8]
    5882:	6873      	ldr	r3, [r6, #4]
    5884:	3b01      	subs	r3, #1
    5886:	d404      	bmi.n	5892 <__sfp+0x26>
    5888:	f9b4 500c 	ldrsh.w	r5, [r4, #12]
    588c:	b175      	cbz	r5, 58ac <__sfp+0x40>
    588e:	3468      	adds	r4, #104	; 0x68
    5890:	e7f8      	b.n	5884 <__sfp+0x18>
    5892:	6833      	ldr	r3, [r6, #0]
    5894:	b92b      	cbnz	r3, 58a2 <__sfp+0x36>
    5896:	4638      	mov	r0, r7
    5898:	2104      	movs	r1, #4
    589a:	f7ff ffa1 	bl	57e0 <__sfmoreglue>
    589e:	6030      	str	r0, [r6, #0]
    58a0:	b108      	cbz	r0, 58a6 <__sfp+0x3a>
    58a2:	6836      	ldr	r6, [r6, #0]
    58a4:	e7ec      	b.n	5880 <__sfp+0x14>
    58a6:	230c      	movs	r3, #12
    58a8:	603b      	str	r3, [r7, #0]
    58aa:	bdf8      	pop	{r3, r4, r5, r6, r7, pc}
    58ac:	f64f 73ff 	movw	r3, #65535	; 0xffff
    58b0:	81e3      	strh	r3, [r4, #14]
    58b2:	2301      	movs	r3, #1
    58b4:	81a3      	strh	r3, [r4, #12]
    58b6:	6665      	str	r5, [r4, #100]	; 0x64
    58b8:	6025      	str	r5, [r4, #0]
    58ba:	60a5      	str	r5, [r4, #8]
    58bc:	6065      	str	r5, [r4, #4]
    58be:	6125      	str	r5, [r4, #16]
    58c0:	6165      	str	r5, [r4, #20]
    58c2:	61a5      	str	r5, [r4, #24]
    58c4:	f104 005c 	add.w	r0, r4, #92	; 0x5c
    58c8:	4629      	mov	r1, r5
    58ca:	2208      	movs	r2, #8
    58cc:	f000 fa59 	bl	5d82 <memset>
    58d0:	6365      	str	r5, [r4, #52]	; 0x34
    58d2:	63a5      	str	r5, [r4, #56]	; 0x38
    58d4:	64a5      	str	r5, [r4, #72]	; 0x48
    58d6:	64e5      	str	r5, [r4, #76]	; 0x4c
    58d8:	4620      	mov	r0, r4
    58da:	bdf8      	pop	{r3, r4, r5, r6, r7, pc}
    58dc:	000088bc 	.word	0x000088bc

000058e0 <__sfp_lock_acquire>:
    58e0:	4770      	bx	lr

000058e2 <__sfp_lock_release>:
    58e2:	4770      	bx	lr

000058e4 <__libc_fini_array>:
    58e4:	b538      	push	{r3, r4, r5, lr}
    58e6:	4d08      	ldr	r5, [pc, #32]	; (5908 <__libc_fini_array+0x24>)
    58e8:	4c08      	ldr	r4, [pc, #32]	; (590c <__libc_fini_array+0x28>)
    58ea:	1b64      	subs	r4, r4, r5
    58ec:	10a4      	asrs	r4, r4, #2
    58ee:	eb05 0584 	add.w	r5, r5, r4, lsl #2
    58f2:	b124      	cbz	r4, 58fe <__libc_fini_array+0x1a>
    58f4:	f855 3d04 	ldr.w	r3, [r5, #-4]!
    58f8:	3c01      	subs	r4, #1
    58fa:	4798      	blx	r3
    58fc:	e7f9      	b.n	58f2 <__libc_fini_array+0xe>
    58fe:	e8bd 4038 	ldmia.w	sp!, {r3, r4, r5, lr}
    5902:	f002 b9eb 	b.w	7cdc <_fini>
    5906:	bf00      	nop
    5908:	100001c8 	.word	0x100001c8
    590c:	100001cc 	.word	0x100001cc

00005910 <_fopen_r>:
    5910:	b5f7      	push	{r0, r1, r2, r4, r5, r6, r7, lr}
    5912:	460f      	mov	r7, r1
    5914:	4611      	mov	r1, r2
    5916:	aa01      	add	r2, sp, #4
    5918:	4605      	mov	r5, r0
    591a:	f001 ffe3 	bl	78e4 <__sflags>
    591e:	4606      	mov	r6, r0
    5920:	b908      	cbnz	r0, 5926 <_fopen_r+0x16>
    5922:	2000      	movs	r0, #0
    5924:	e029      	b.n	597a <_fopen_r+0x6a>
    5926:	4628      	mov	r0, r5
    5928:	f7ff ffa0 	bl	586c <__sfp>
    592c:	4604      	mov	r4, r0
    592e:	2800      	cmp	r0, #0
    5930:	d0f7      	beq.n	5922 <_fopen_r+0x12>
    5932:	4628      	mov	r0, r5
    5934:	4639      	mov	r1, r7
    5936:	9a01      	ldr	r2, [sp, #4]
    5938:	f44f 73db 	mov.w	r3, #438	; 0x1b6
    593c:	f000 fac2 	bl	5ec4 <_open_r>
    5940:	2800      	cmp	r0, #0
    5942:	da06      	bge.n	5952 <_fopen_r+0x42>
    5944:	2500      	movs	r5, #0
    5946:	f7ff ffcb 	bl	58e0 <__sfp_lock_acquire>
    594a:	81a5      	strh	r5, [r4, #12]
    594c:	f7ff ffc9 	bl	58e2 <__sfp_lock_release>
    5950:	e7e7      	b.n	5922 <_fopen_r+0x12>
    5952:	4b0b      	ldr	r3, [pc, #44]	; (5980 <_fopen_r+0x70>)
    5954:	81e0      	strh	r0, [r4, #14]
    5956:	6263      	str	r3, [r4, #36]	; 0x24
    5958:	4b0a      	ldr	r3, [pc, #40]	; (5984 <_fopen_r+0x74>)
    595a:	81a6      	strh	r6, [r4, #12]
    595c:	62a3      	str	r3, [r4, #40]	; 0x28
    595e:	4b0a      	ldr	r3, [pc, #40]	; (5988 <_fopen_r+0x78>)
    5960:	6224      	str	r4, [r4, #32]
    5962:	62e3      	str	r3, [r4, #44]	; 0x2c
    5964:	4b09      	ldr	r3, [pc, #36]	; (598c <_fopen_r+0x7c>)
    5966:	6323      	str	r3, [r4, #48]	; 0x30
    5968:	05f3      	lsls	r3, r6, #23
    596a:	d505      	bpl.n	5978 <_fopen_r+0x68>
    596c:	4628      	mov	r0, r5
    596e:	4621      	mov	r1, r4
    5970:	2200      	movs	r2, #0
    5972:	2302      	movs	r3, #2
    5974:	f000 f8a2 	bl	5abc <_fseek_r>
    5978:	4620      	mov	r0, r4
    597a:	b003      	add	sp, #12
    597c:	bdf0      	pop	{r4, r5, r6, r7, pc}
    597e:	bf00      	nop
    5980:	00006369 	.word	0x00006369
    5984:	0000638f 	.word	0x0000638f
    5988:	000063c7 	.word	0x000063c7
    598c:	000063eb 	.word	0x000063eb

00005990 <fopen>:
    5990:	460a      	mov	r2, r1
    5992:	4903      	ldr	r1, [pc, #12]	; (59a0 <fopen+0x10>)
    5994:	4603      	mov	r3, r0
    5996:	6808      	ldr	r0, [r1, #0]
    5998:	4619      	mov	r1, r3
    599a:	f7ff bfb9 	b.w	5910 <_fopen_r>
    599e:	bf00      	nop
    59a0:	100001b8 	.word	0x100001b8

000059a4 <_fputc_r>:
    59a4:	b570      	push	{r4, r5, r6, lr}
    59a6:	460e      	mov	r6, r1
    59a8:	4614      	mov	r4, r2
    59aa:	4605      	mov	r5, r0
    59ac:	b118      	cbz	r0, 59b6 <_fputc_r+0x12>
    59ae:	6983      	ldr	r3, [r0, #24]
    59b0:	b90b      	cbnz	r3, 59b6 <_fputc_r+0x12>
    59b2:	f7ff ff2b 	bl	580c <__sinit>
    59b6:	4b0a      	ldr	r3, [pc, #40]	; (59e0 <_fputc_r+0x3c>)
    59b8:	429c      	cmp	r4, r3
    59ba:	bf08      	it	eq
    59bc:	686c      	ldreq	r4, [r5, #4]
    59be:	d008      	beq.n	59d2 <_fputc_r+0x2e>
    59c0:	4b08      	ldr	r3, [pc, #32]	; (59e4 <_fputc_r+0x40>)
    59c2:	429c      	cmp	r4, r3
    59c4:	bf08      	it	eq
    59c6:	68ac      	ldreq	r4, [r5, #8]
    59c8:	d003      	beq.n	59d2 <_fputc_r+0x2e>
    59ca:	4b07      	ldr	r3, [pc, #28]	; (59e8 <_fputc_r+0x44>)
    59cc:	429c      	cmp	r4, r3
    59ce:	bf08      	it	eq
    59d0:	68ec      	ldreq	r4, [r5, #12]
    59d2:	4628      	mov	r0, r5
    59d4:	4631      	mov	r1, r6
    59d6:	4622      	mov	r2, r4
    59d8:	e8bd 4070 	ldmia.w	sp!, {r4, r5, r6, lr}
    59dc:	f000 baca 	b.w	5f74 <_putc_r>
    59e0:	00008858 	.word	0x00008858
    59e4:	00008878 	.word	0x00008878
    59e8:	00008898 	.word	0x00008898

000059ec <fputc>:
    59ec:	460a      	mov	r2, r1
    59ee:	4903      	ldr	r1, [pc, #12]	; (59fc <fputc+0x10>)
    59f0:	4603      	mov	r3, r0
    59f2:	6808      	ldr	r0, [r1, #0]
    59f4:	4619      	mov	r1, r3
    59f6:	f7ff bfd5 	b.w	59a4 <_fputc_r>
    59fa:	bf00      	nop
    59fc:	100001b8 	.word	0x100001b8

00005a00 <_fputs_r>:
    5a00:	b570      	push	{r4, r5, r6, lr}
    5a02:	460e      	mov	r6, r1
    5a04:	4614      	mov	r4, r2
    5a06:	4605      	mov	r5, r0
    5a08:	b118      	cbz	r0, 5a12 <_fputs_r+0x12>
    5a0a:	6983      	ldr	r3, [r0, #24]
    5a0c:	b90b      	cbnz	r3, 5a12 <_fputs_r+0x12>
    5a0e:	f7ff fefd 	bl	580c <__sinit>
    5a12:	4b22      	ldr	r3, [pc, #136]	; (5a9c <_fputs_r+0x9c>)
    5a14:	429c      	cmp	r4, r3
    5a16:	d101      	bne.n	5a1c <_fputs_r+0x1c>
    5a18:	686c      	ldr	r4, [r5, #4]
    5a1a:	e008      	b.n	5a2e <_fputs_r+0x2e>
    5a1c:	4b20      	ldr	r3, [pc, #128]	; (5aa0 <_fputs_r+0xa0>)
    5a1e:	429c      	cmp	r4, r3
    5a20:	d101      	bne.n	5a26 <_fputs_r+0x26>
    5a22:	68ac      	ldr	r4, [r5, #8]
    5a24:	e003      	b.n	5a2e <_fputs_r+0x2e>
    5a26:	4b1f      	ldr	r3, [pc, #124]	; (5aa4 <_fputs_r+0xa4>)
    5a28:	429c      	cmp	r4, r3
    5a2a:	bf08      	it	eq
    5a2c:	68ec      	ldreq	r4, [r5, #12]
    5a2e:	89a3      	ldrh	r3, [r4, #12]
    5a30:	071a      	lsls	r2, r3, #28
    5a32:	d501      	bpl.n	5a38 <_fputs_r+0x38>
    5a34:	6923      	ldr	r3, [r4, #16]
    5a36:	b99b      	cbnz	r3, 5a60 <_fputs_r+0x60>
    5a38:	4628      	mov	r0, r5
    5a3a:	4621      	mov	r1, r4
    5a3c:	f001 fe78 	bl	7730 <__swsetup_r>
    5a40:	b170      	cbz	r0, 5a60 <_fputs_r+0x60>
    5a42:	f04f 30ff 	mov.w	r0, #4294967295	; 0xffffffff
    5a46:	bd70      	pop	{r4, r5, r6, pc}
    5a48:	68a3      	ldr	r3, [r4, #8]
    5a4a:	3b01      	subs	r3, #1
    5a4c:	2b00      	cmp	r3, #0
    5a4e:	60a3      	str	r3, [r4, #8]
    5a50:	db0b      	blt.n	5a6a <_fputs_r+0x6a>
    5a52:	6823      	ldr	r3, [r4, #0]
    5a54:	f816 2c01 	ldrb.w	r2, [r6, #-1]
    5a58:	701a      	strb	r2, [r3, #0]
    5a5a:	6823      	ldr	r3, [r4, #0]
    5a5c:	3301      	adds	r3, #1
    5a5e:	6023      	str	r3, [r4, #0]
    5a60:	f816 0b01 	ldrb.w	r0, [r6], #1
    5a64:	2800      	cmp	r0, #0
    5a66:	d1ef      	bne.n	5a48 <_fputs_r+0x48>
    5a68:	e017      	b.n	5a9a <_fputs_r+0x9a>
    5a6a:	69a2      	ldr	r2, [r4, #24]
    5a6c:	4293      	cmp	r3, r2
    5a6e:	db09      	blt.n	5a84 <_fputs_r+0x84>
    5a70:	6823      	ldr	r3, [r4, #0]
    5a72:	f816 2c01 	ldrb.w	r2, [r6, #-1]
    5a76:	701a      	strb	r2, [r3, #0]
    5a78:	6823      	ldr	r3, [r4, #0]
    5a7a:	7819      	ldrb	r1, [r3, #0]
    5a7c:	290a      	cmp	r1, #10
    5a7e:	d1ed      	bne.n	5a5c <_fputs_r+0x5c>
    5a80:	4628      	mov	r0, r5
    5a82:	e002      	b.n	5a8a <_fputs_r+0x8a>
    5a84:	f816 1c01 	ldrb.w	r1, [r6, #-1]
    5a88:	4628      	mov	r0, r5
    5a8a:	4622      	mov	r2, r4
    5a8c:	f001 fdea 	bl	7664 <__swbuf_r>
    5a90:	f1b0 33ff 	subs.w	r3, r0, #4294967295	; 0xffffffff
    5a94:	4258      	negs	r0, r3
    5a96:	4158      	adcs	r0, r3
    5a98:	e7d2      	b.n	5a40 <_fputs_r+0x40>
    5a9a:	bd70      	pop	{r4, r5, r6, pc}
    5a9c:	00008858 	.word	0x00008858
    5aa0:	00008878 	.word	0x00008878
    5aa4:	00008898 	.word	0x00008898

00005aa8 <fputs>:
    5aa8:	460a      	mov	r2, r1
    5aaa:	4903      	ldr	r1, [pc, #12]	; (5ab8 <fputs+0x10>)
    5aac:	4603      	mov	r3, r0
    5aae:	6808      	ldr	r0, [r1, #0]
    5ab0:	4619      	mov	r1, r3
    5ab2:	f7ff bfa5 	b.w	5a00 <_fputs_r>
    5ab6:	bf00      	nop
    5ab8:	100001b8 	.word	0x100001b8

00005abc <_fseek_r>:
    5abc:	f000 b800 	b.w	5ac0 <_fseeko_r>

00005ac0 <_fseeko_r>:
    5ac0:	e92d 43f8 	stmdb	sp!, {r3, r4, r5, r6, r7, r8, r9, lr}
    5ac4:	460c      	mov	r4, r1
    5ac6:	4691      	mov	r9, r2
    5ac8:	461e      	mov	r6, r3
    5aca:	4605      	mov	r5, r0
    5acc:	b118      	cbz	r0, 5ad6 <_fseeko_r+0x16>
    5ace:	6983      	ldr	r3, [r0, #24]
    5ad0:	b90b      	cbnz	r3, 5ad6 <_fseeko_r+0x16>
    5ad2:	f7ff fe9b 	bl	580c <__sinit>
    5ad6:	4b3e      	ldr	r3, [pc, #248]	; (5bd0 <_fseeko_r+0x110>)
    5ad8:	429c      	cmp	r4, r3
    5ada:	d101      	bne.n	5ae0 <_fseeko_r+0x20>
    5adc:	686c      	ldr	r4, [r5, #4]
    5ade:	e008      	b.n	5af2 <_fseeko_r+0x32>
    5ae0:	4b3c      	ldr	r3, [pc, #240]	; (5bd4 <_fseeko_r+0x114>)
    5ae2:	429c      	cmp	r4, r3
    5ae4:	d101      	bne.n	5aea <_fseeko_r+0x2a>
    5ae6:	68ac      	ldr	r4, [r5, #8]
    5ae8:	e003      	b.n	5af2 <_fseeko_r+0x32>
    5aea:	4b3b      	ldr	r3, [pc, #236]	; (5bd8 <_fseeko_r+0x118>)
    5aec:	429c      	cmp	r4, r3
    5aee:	bf08      	it	eq
    5af0:	68ec      	ldreq	r4, [r5, #12]
    5af2:	89a3      	ldrh	r3, [r4, #12]
    5af4:	f403 7384 	and.w	r3, r3, #264	; 0x108
    5af8:	f5b3 7f84 	cmp.w	r3, #264	; 0x108
    5afc:	d103      	bne.n	5b06 <_fseeko_r+0x46>
    5afe:	4628      	mov	r0, r5
    5b00:	4621      	mov	r1, r4
    5b02:	f7ff fdbf 	bl	5684 <_fflush_r>
    5b06:	f8d4 802c 	ldr.w	r8, [r4, #44]	; 0x2c
    5b0a:	231d      	movs	r3, #29
    5b0c:	f1b8 0f00 	cmp.w	r8, #0
    5b10:	d02b      	beq.n	5b6a <_fseeko_r+0xaa>
    5b12:	2e01      	cmp	r6, #1
    5b14:	d004      	beq.n	5b20 <_fseeko_r+0x60>
    5b16:	2e02      	cmp	r6, #2
    5b18:	d02b      	beq.n	5b72 <_fseeko_r+0xb2>
    5b1a:	b356      	cbz	r6, 5b72 <_fseeko_r+0xb2>
    5b1c:	2316      	movs	r3, #22
    5b1e:	e024      	b.n	5b6a <_fseeko_r+0xaa>
    5b20:	4628      	mov	r0, r5
    5b22:	4621      	mov	r1, r4
    5b24:	f7ff fdae 	bl	5684 <_fflush_r>
    5b28:	89a2      	ldrh	r2, [r4, #12]
    5b2a:	f402 5280 	and.w	r2, r2, #4096	; 0x1000
    5b2e:	b292      	uxth	r2, r2
    5b30:	b10a      	cbz	r2, 5b36 <_fseeko_r+0x76>
    5b32:	6d60      	ldr	r0, [r4, #84]	; 0x54
    5b34:	e005      	b.n	5b42 <_fseeko_r+0x82>
    5b36:	6a21      	ldr	r1, [r4, #32]
    5b38:	4628      	mov	r0, r5
    5b3a:	4633      	mov	r3, r6
    5b3c:	47c0      	blx	r8
    5b3e:	1c41      	adds	r1, r0, #1
    5b40:	d014      	beq.n	5b6c <_fseeko_r+0xac>
    5b42:	89a3      	ldrh	r3, [r4, #12]
    5b44:	075a      	lsls	r2, r3, #29
    5b46:	d506      	bpl.n	5b56 <_fseeko_r+0x96>
    5b48:	6863      	ldr	r3, [r4, #4]
    5b4a:	1ac0      	subs	r0, r0, r3
    5b4c:	6b63      	ldr	r3, [r4, #52]	; 0x34
    5b4e:	b14b      	cbz	r3, 5b64 <_fseeko_r+0xa4>
    5b50:	6c23      	ldr	r3, [r4, #64]	; 0x40
    5b52:	1ac0      	subs	r0, r0, r3
    5b54:	e006      	b.n	5b64 <_fseeko_r+0xa4>
    5b56:	071b      	lsls	r3, r3, #28
    5b58:	d504      	bpl.n	5b64 <_fseeko_r+0xa4>
    5b5a:	6823      	ldr	r3, [r4, #0]
    5b5c:	b113      	cbz	r3, 5b64 <_fseeko_r+0xa4>
    5b5e:	6922      	ldr	r2, [r4, #16]
    5b60:	1a9b      	subs	r3, r3, r2
    5b62:	4418      	add	r0, r3
    5b64:	4481      	add	r9, r0
    5b66:	2600      	movs	r6, #0
    5b68:	e003      	b.n	5b72 <_fseeko_r+0xb2>
    5b6a:	602b      	str	r3, [r5, #0]
    5b6c:	f04f 37ff 	mov.w	r7, #4294967295	; 0xffffffff
    5b70:	e02b      	b.n	5bca <_fseeko_r+0x10a>
    5b72:	6923      	ldr	r3, [r4, #16]
    5b74:	b91b      	cbnz	r3, 5b7e <_fseeko_r+0xbe>
    5b76:	4628      	mov	r0, r5
    5b78:	4621      	mov	r1, r4
    5b7a:	f000 f88f 	bl	5c9c <__smakebuf_r>
    5b7e:	4628      	mov	r0, r5
    5b80:	4621      	mov	r1, r4
    5b82:	f7ff fd7f 	bl	5684 <_fflush_r>
    5b86:	4607      	mov	r7, r0
    5b88:	2800      	cmp	r0, #0
    5b8a:	d1ef      	bne.n	5b6c <_fseeko_r+0xac>
    5b8c:	4628      	mov	r0, r5
    5b8e:	6a21      	ldr	r1, [r4, #32]
    5b90:	464a      	mov	r2, r9
    5b92:	4633      	mov	r3, r6
    5b94:	47c0      	blx	r8
    5b96:	3001      	adds	r0, #1
    5b98:	d0e8      	beq.n	5b6c <_fseeko_r+0xac>
    5b9a:	6b61      	ldr	r1, [r4, #52]	; 0x34
    5b9c:	b141      	cbz	r1, 5bb0 <_fseeko_r+0xf0>
    5b9e:	f104 0344 	add.w	r3, r4, #68	; 0x44
    5ba2:	4299      	cmp	r1, r3
    5ba4:	d002      	beq.n	5bac <_fseeko_r+0xec>
    5ba6:	4628      	mov	r0, r5
    5ba8:	f000 f8f4 	bl	5d94 <_free_r>
    5bac:	2300      	movs	r3, #0
    5bae:	6363      	str	r3, [r4, #52]	; 0x34
    5bb0:	6923      	ldr	r3, [r4, #16]
    5bb2:	2100      	movs	r1, #0
    5bb4:	6023      	str	r3, [r4, #0]
    5bb6:	89a3      	ldrh	r3, [r4, #12]
    5bb8:	6061      	str	r1, [r4, #4]
    5bba:	f423 6302 	bic.w	r3, r3, #2080	; 0x820
    5bbe:	81a3      	strh	r3, [r4, #12]
    5bc0:	f104 005c 	add.w	r0, r4, #92	; 0x5c
    5bc4:	2208      	movs	r2, #8
    5bc6:	f000 f8dc 	bl	5d82 <memset>
    5bca:	4638      	mov	r0, r7
    5bcc:	e8bd 83f8 	ldmia.w	sp!, {r3, r4, r5, r6, r7, r8, r9, pc}
    5bd0:	00008858 	.word	0x00008858
    5bd4:	00008878 	.word	0x00008878
    5bd8:	00008898 	.word	0x00008898

00005bdc <_fwalk>:
    5bdc:	e92d 41f0 	stmdb	sp!, {r4, r5, r6, r7, r8, lr}
    5be0:	4688      	mov	r8, r1
    5be2:	f100 0448 	add.w	r4, r0, #72	; 0x48
    5be6:	2600      	movs	r6, #0
    5be8:	b18c      	cbz	r4, 5c0e <_fwalk+0x32>
    5bea:	68a5      	ldr	r5, [r4, #8]
    5bec:	6867      	ldr	r7, [r4, #4]
    5bee:	3f01      	subs	r7, #1
    5bf0:	d40b      	bmi.n	5c0a <_fwalk+0x2e>
    5bf2:	89ab      	ldrh	r3, [r5, #12]
    5bf4:	2b01      	cmp	r3, #1
    5bf6:	d906      	bls.n	5c06 <_fwalk+0x2a>
    5bf8:	f9b5 300e 	ldrsh.w	r3, [r5, #14]
    5bfc:	3301      	adds	r3, #1
    5bfe:	d002      	beq.n	5c06 <_fwalk+0x2a>
    5c00:	4628      	mov	r0, r5
    5c02:	47c0      	blx	r8
    5c04:	4306      	orrs	r6, r0
    5c06:	3568      	adds	r5, #104	; 0x68
    5c08:	e7f1      	b.n	5bee <_fwalk+0x12>
    5c0a:	6824      	ldr	r4, [r4, #0]
    5c0c:	e7ec      	b.n	5be8 <_fwalk+0xc>
    5c0e:	4630      	mov	r0, r6
    5c10:	e8bd 81f0 	ldmia.w	sp!, {r4, r5, r6, r7, r8, pc}

00005c14 <_fwalk_reent>:
    5c14:	e92d 43f8 	stmdb	sp!, {r3, r4, r5, r6, r7, r8, r9, lr}
    5c18:	4680      	mov	r8, r0
    5c1a:	4689      	mov	r9, r1
    5c1c:	f100 0448 	add.w	r4, r0, #72	; 0x48
    5c20:	2600      	movs	r6, #0
    5c22:	b194      	cbz	r4, 5c4a <_fwalk_reent+0x36>
    5c24:	68a5      	ldr	r5, [r4, #8]
    5c26:	6867      	ldr	r7, [r4, #4]
    5c28:	3f01      	subs	r7, #1
    5c2a:	d40c      	bmi.n	5c46 <_fwalk_reent+0x32>
    5c2c:	89ab      	ldrh	r3, [r5, #12]
    5c2e:	2b01      	cmp	r3, #1
    5c30:	d907      	bls.n	5c42 <_fwalk_reent+0x2e>
    5c32:	f9b5 300e 	ldrsh.w	r3, [r5, #14]
    5c36:	3301      	adds	r3, #1
    5c38:	d003      	beq.n	5c42 <_fwalk_reent+0x2e>
    5c3a:	4640      	mov	r0, r8
    5c3c:	4629      	mov	r1, r5
    5c3e:	47c8      	blx	r9
    5c40:	4306      	orrs	r6, r0
    5c42:	3568      	adds	r5, #104	; 0x68
    5c44:	e7f0      	b.n	5c28 <_fwalk_reent+0x14>
    5c46:	6824      	ldr	r4, [r4, #0]
    5c48:	e7eb      	b.n	5c22 <_fwalk_reent+0xe>
    5c4a:	4630      	mov	r0, r6
    5c4c:	e8bd 83f8 	ldmia.w	sp!, {r3, r4, r5, r6, r7, r8, r9, pc}

00005c50 <__libc_init_array>:
    5c50:	b570      	push	{r4, r5, r6, lr}
    5c52:	4b0e      	ldr	r3, [pc, #56]	; (5c8c <__libc_init_array+0x3c>)
    5c54:	4d0e      	ldr	r5, [pc, #56]	; (5c90 <__libc_init_array+0x40>)
    5c56:	2400      	movs	r4, #0
    5c58:	1aed      	subs	r5, r5, r3
    5c5a:	10ad      	asrs	r5, r5, #2
    5c5c:	461e      	mov	r6, r3
    5c5e:	42ac      	cmp	r4, r5
    5c60:	d004      	beq.n	5c6c <__libc_init_array+0x1c>
    5c62:	f856 2024 	ldr.w	r2, [r6, r4, lsl #2]
    5c66:	4790      	blx	r2
    5c68:	3401      	adds	r4, #1
    5c6a:	e7f8      	b.n	5c5e <__libc_init_array+0xe>
    5c6c:	f002 f830 	bl	7cd0 <_init>
    5c70:	4d08      	ldr	r5, [pc, #32]	; (5c94 <__libc_init_array+0x44>)
    5c72:	4b09      	ldr	r3, [pc, #36]	; (5c98 <__libc_init_array+0x48>)
    5c74:	2400      	movs	r4, #0
    5c76:	1aed      	subs	r5, r5, r3
    5c78:	10ad      	asrs	r5, r5, #2
    5c7a:	461e      	mov	r6, r3
    5c7c:	42ac      	cmp	r4, r5
    5c7e:	d004      	beq.n	5c8a <__libc_init_array+0x3a>
    5c80:	f856 2024 	ldr.w	r2, [r6, r4, lsl #2]
    5c84:	4790      	blx	r2
    5c86:	3401      	adds	r4, #1
    5c88:	e7f8      	b.n	5c7c <__libc_init_array+0x2c>
    5c8a:	bd70      	pop	{r4, r5, r6, pc}
    5c8c:	100001c0 	.word	0x100001c0
    5c90:	100001c0 	.word	0x100001c0
    5c94:	100001c8 	.word	0x100001c8
    5c98:	100001c0 	.word	0x100001c0

00005c9c <__smakebuf_r>:
    5c9c:	b5f0      	push	{r4, r5, r6, r7, lr}
    5c9e:	898b      	ldrh	r3, [r1, #12]
    5ca0:	b091      	sub	sp, #68	; 0x44
    5ca2:	079e      	lsls	r6, r3, #30
    5ca4:	4605      	mov	r5, r0
    5ca6:	460c      	mov	r4, r1
    5ca8:	d425      	bmi.n	5cf6 <__smakebuf_r+0x5a>
    5caa:	f9b1 100e 	ldrsh.w	r1, [r1, #14]
    5cae:	2900      	cmp	r1, #0
    5cb0:	da08      	bge.n	5cc4 <__smakebuf_r+0x28>
    5cb2:	89a3      	ldrh	r3, [r4, #12]
    5cb4:	2700      	movs	r7, #0
    5cb6:	f013 0f80 	tst.w	r3, #128	; 0x80
    5cba:	bf14      	ite	ne
    5cbc:	2640      	movne	r6, #64	; 0x40
    5cbe:	f44f 6680 	moveq.w	r6, #1024	; 0x400
    5cc2:	e00d      	b.n	5ce0 <__smakebuf_r+0x44>
    5cc4:	aa01      	add	r2, sp, #4
    5cc6:	f001 fe45 	bl	7954 <_fstat_r>
    5cca:	2800      	cmp	r0, #0
    5ccc:	dbf1      	blt.n	5cb2 <__smakebuf_r+0x16>
    5cce:	9f02      	ldr	r7, [sp, #8]
    5cd0:	f44f 6680 	mov.w	r6, #1024	; 0x400
    5cd4:	f407 4770 	and.w	r7, r7, #61440	; 0xf000
    5cd8:	f5b7 5100 	subs.w	r1, r7, #8192	; 0x2000
    5cdc:	424f      	negs	r7, r1
    5cde:	414f      	adcs	r7, r1
    5ce0:	4628      	mov	r0, r5
    5ce2:	4631      	mov	r1, r6
    5ce4:	f000 f89a 	bl	5e1c <_malloc_r>
    5ce8:	b960      	cbnz	r0, 5d04 <__smakebuf_r+0x68>
    5cea:	89a3      	ldrh	r3, [r4, #12]
    5cec:	059a      	lsls	r2, r3, #22
    5cee:	d41d      	bmi.n	5d2c <__smakebuf_r+0x90>
    5cf0:	f043 0302 	orr.w	r3, r3, #2
    5cf4:	81a3      	strh	r3, [r4, #12]
    5cf6:	f104 0347 	add.w	r3, r4, #71	; 0x47
    5cfa:	6023      	str	r3, [r4, #0]
    5cfc:	6123      	str	r3, [r4, #16]
    5cfe:	2301      	movs	r3, #1
    5d00:	6163      	str	r3, [r4, #20]
    5d02:	e013      	b.n	5d2c <__smakebuf_r+0x90>
    5d04:	4b0a      	ldr	r3, [pc, #40]	; (5d30 <__smakebuf_r+0x94>)
    5d06:	62ab      	str	r3, [r5, #40]	; 0x28
    5d08:	89a3      	ldrh	r3, [r4, #12]
    5d0a:	6020      	str	r0, [r4, #0]
    5d0c:	f043 0380 	orr.w	r3, r3, #128	; 0x80
    5d10:	81a3      	strh	r3, [r4, #12]
    5d12:	6120      	str	r0, [r4, #16]
    5d14:	6166      	str	r6, [r4, #20]
    5d16:	b14f      	cbz	r7, 5d2c <__smakebuf_r+0x90>
    5d18:	4628      	mov	r0, r5
    5d1a:	f9b4 100e 	ldrsh.w	r1, [r4, #14]
    5d1e:	f001 fe2b 	bl	7978 <_isatty_r>
    5d22:	b118      	cbz	r0, 5d2c <__smakebuf_r+0x90>
    5d24:	89a3      	ldrh	r3, [r4, #12]
    5d26:	f043 0301 	orr.w	r3, r3, #1
    5d2a:	81a3      	strh	r3, [r4, #12]
    5d2c:	b011      	add	sp, #68	; 0x44
    5d2e:	bdf0      	pop	{r4, r5, r6, r7, pc}
    5d30:	00005765 	.word	0x00005765

00005d34 <malloc>:
    5d34:	4b02      	ldr	r3, [pc, #8]	; (5d40 <malloc+0xc>)
    5d36:	4601      	mov	r1, r0
    5d38:	6818      	ldr	r0, [r3, #0]
    5d3a:	f000 b86f 	b.w	5e1c <_malloc_r>
    5d3e:	bf00      	nop
    5d40:	100001b8 	.word	0x100001b8

00005d44 <free>:
    5d44:	4b02      	ldr	r3, [pc, #8]	; (5d50 <free+0xc>)
    5d46:	4601      	mov	r1, r0
    5d48:	6818      	ldr	r0, [r3, #0]
    5d4a:	f000 b823 	b.w	5d94 <_free_r>
    5d4e:	bf00      	nop
    5d50:	100001b8 	.word	0x100001b8

00005d54 <memchr>:
    5d54:	b510      	push	{r4, lr}
    5d56:	b2c9      	uxtb	r1, r1
    5d58:	4402      	add	r2, r0
    5d5a:	4290      	cmp	r0, r2
    5d5c:	4603      	mov	r3, r0
    5d5e:	d005      	beq.n	5d6c <memchr+0x18>
    5d60:	781c      	ldrb	r4, [r3, #0]
    5d62:	3001      	adds	r0, #1
    5d64:	428c      	cmp	r4, r1
    5d66:	d1f8      	bne.n	5d5a <memchr+0x6>
    5d68:	4618      	mov	r0, r3
    5d6a:	bd10      	pop	{r4, pc}
    5d6c:	2000      	movs	r0, #0
    5d6e:	bd10      	pop	{r4, pc}

00005d70 <memcpy>:
    5d70:	b510      	push	{r4, lr}
    5d72:	2300      	movs	r3, #0
    5d74:	4293      	cmp	r3, r2
    5d76:	d003      	beq.n	5d80 <memcpy+0x10>
    5d78:	5ccc      	ldrb	r4, [r1, r3]
    5d7a:	54c4      	strb	r4, [r0, r3]
    5d7c:	3301      	adds	r3, #1
    5d7e:	e7f9      	b.n	5d74 <memcpy+0x4>
    5d80:	bd10      	pop	{r4, pc}

00005d82 <memset>:
    5d82:	4402      	add	r2, r0
    5d84:	4603      	mov	r3, r0
    5d86:	4293      	cmp	r3, r2
    5d88:	d002      	beq.n	5d90 <memset+0xe>
    5d8a:	f803 1b01 	strb.w	r1, [r3], #1
    5d8e:	e7fa      	b.n	5d86 <memset+0x4>
    5d90:	4770      	bx	lr
	...

00005d94 <_free_r>:
    5d94:	b530      	push	{r4, r5, lr}
    5d96:	2900      	cmp	r1, #0
    5d98:	d03c      	beq.n	5e14 <_free_r+0x80>
    5d9a:	f851 2c04 	ldr.w	r2, [r1, #-4]
    5d9e:	1f0b      	subs	r3, r1, #4
    5da0:	491d      	ldr	r1, [pc, #116]	; (5e18 <_free_r+0x84>)
    5da2:	2a00      	cmp	r2, #0
    5da4:	bfb8      	it	lt
    5da6:	189b      	addlt	r3, r3, r2
    5da8:	680a      	ldr	r2, [r1, #0]
    5daa:	460c      	mov	r4, r1
    5dac:	b912      	cbnz	r2, 5db4 <_free_r+0x20>
    5dae:	605a      	str	r2, [r3, #4]
    5db0:	600b      	str	r3, [r1, #0]
    5db2:	bd30      	pop	{r4, r5, pc}
    5db4:	4293      	cmp	r3, r2
    5db6:	d20d      	bcs.n	5dd4 <_free_r+0x40>
    5db8:	6819      	ldr	r1, [r3, #0]
    5dba:	1858      	adds	r0, r3, r1
    5dbc:	4290      	cmp	r0, r2
    5dbe:	d103      	bne.n	5dc8 <_free_r+0x34>
    5dc0:	585a      	ldr	r2, [r3, r1]
    5dc2:	4411      	add	r1, r2
    5dc4:	6842      	ldr	r2, [r0, #4]
    5dc6:	6019      	str	r1, [r3, #0]
    5dc8:	605a      	str	r2, [r3, #4]
    5dca:	6023      	str	r3, [r4, #0]
    5dcc:	bd30      	pop	{r4, r5, pc}
    5dce:	4299      	cmp	r1, r3
    5dd0:	d803      	bhi.n	5dda <_free_r+0x46>
    5dd2:	460a      	mov	r2, r1
    5dd4:	6851      	ldr	r1, [r2, #4]
    5dd6:	2900      	cmp	r1, #0
    5dd8:	d1f9      	bne.n	5dce <_free_r+0x3a>
    5dda:	6814      	ldr	r4, [r2, #0]
    5ddc:	1915      	adds	r5, r2, r4
    5dde:	429d      	cmp	r5, r3
    5de0:	d10a      	bne.n	5df8 <_free_r+0x64>
    5de2:	681b      	ldr	r3, [r3, #0]
    5de4:	4423      	add	r3, r4
    5de6:	18d0      	adds	r0, r2, r3
    5de8:	4288      	cmp	r0, r1
    5dea:	6013      	str	r3, [r2, #0]
    5dec:	d112      	bne.n	5e14 <_free_r+0x80>
    5dee:	6808      	ldr	r0, [r1, #0]
    5df0:	4403      	add	r3, r0
    5df2:	6013      	str	r3, [r2, #0]
    5df4:	684b      	ldr	r3, [r1, #4]
    5df6:	e00c      	b.n	5e12 <_free_r+0x7e>
    5df8:	d902      	bls.n	5e00 <_free_r+0x6c>
    5dfa:	230c      	movs	r3, #12
    5dfc:	6003      	str	r3, [r0, #0]
    5dfe:	bd30      	pop	{r4, r5, pc}
    5e00:	6818      	ldr	r0, [r3, #0]
    5e02:	181c      	adds	r4, r3, r0
    5e04:	428c      	cmp	r4, r1
    5e06:	d103      	bne.n	5e10 <_free_r+0x7c>
    5e08:	680c      	ldr	r4, [r1, #0]
    5e0a:	6849      	ldr	r1, [r1, #4]
    5e0c:	4420      	add	r0, r4
    5e0e:	6018      	str	r0, [r3, #0]
    5e10:	6059      	str	r1, [r3, #4]
    5e12:	6053      	str	r3, [r2, #4]
    5e14:	bd30      	pop	{r4, r5, pc}
    5e16:	bf00      	nop
    5e18:	1000040c 	.word	0x1000040c

00005e1c <_malloc_r>:
    5e1c:	b570      	push	{r4, r5, r6, lr}
    5e1e:	1ccd      	adds	r5, r1, #3
    5e20:	f025 0503 	bic.w	r5, r5, #3
    5e24:	3508      	adds	r5, #8
    5e26:	2d0c      	cmp	r5, #12
    5e28:	bf38      	it	cc
    5e2a:	250c      	movcc	r5, #12
    5e2c:	2d00      	cmp	r5, #0
    5e2e:	4606      	mov	r6, r0
    5e30:	db3f      	blt.n	5eb2 <_malloc_r+0x96>
    5e32:	428d      	cmp	r5, r1
    5e34:	d33d      	bcc.n	5eb2 <_malloc_r+0x96>
    5e36:	4b21      	ldr	r3, [pc, #132]	; (5ebc <_malloc_r+0xa0>)
    5e38:	681c      	ldr	r4, [r3, #0]
    5e3a:	4618      	mov	r0, r3
    5e3c:	4621      	mov	r1, r4
    5e3e:	b1a1      	cbz	r1, 5e6a <_malloc_r+0x4e>
    5e40:	680b      	ldr	r3, [r1, #0]
    5e42:	1b5b      	subs	r3, r3, r5
    5e44:	d40e      	bmi.n	5e64 <_malloc_r+0x48>
    5e46:	2b0b      	cmp	r3, #11
    5e48:	d903      	bls.n	5e52 <_malloc_r+0x36>
    5e4a:	600b      	str	r3, [r1, #0]
    5e4c:	18cc      	adds	r4, r1, r3
    5e4e:	50cd      	str	r5, [r1, r3]
    5e50:	e01f      	b.n	5e92 <_malloc_r+0x76>
    5e52:	428c      	cmp	r4, r1
    5e54:	d102      	bne.n	5e5c <_malloc_r+0x40>
    5e56:	6862      	ldr	r2, [r4, #4]
    5e58:	6002      	str	r2, [r0, #0]
    5e5a:	e01a      	b.n	5e92 <_malloc_r+0x76>
    5e5c:	684b      	ldr	r3, [r1, #4]
    5e5e:	6063      	str	r3, [r4, #4]
    5e60:	460c      	mov	r4, r1
    5e62:	e016      	b.n	5e92 <_malloc_r+0x76>
    5e64:	460c      	mov	r4, r1
    5e66:	6849      	ldr	r1, [r1, #4]
    5e68:	e7e9      	b.n	5e3e <_malloc_r+0x22>
    5e6a:	4c15      	ldr	r4, [pc, #84]	; (5ec0 <_malloc_r+0xa4>)
    5e6c:	6823      	ldr	r3, [r4, #0]
    5e6e:	b91b      	cbnz	r3, 5e78 <_malloc_r+0x5c>
    5e70:	4630      	mov	r0, r6
    5e72:	f000 f98b 	bl	618c <_sbrk_r>
    5e76:	6020      	str	r0, [r4, #0]
    5e78:	4629      	mov	r1, r5
    5e7a:	4630      	mov	r0, r6
    5e7c:	f000 f986 	bl	618c <_sbrk_r>
    5e80:	1c43      	adds	r3, r0, #1
    5e82:	4601      	mov	r1, r0
    5e84:	d015      	beq.n	5eb2 <_malloc_r+0x96>
    5e86:	1cc4      	adds	r4, r0, #3
    5e88:	f024 0403 	bic.w	r4, r4, #3
    5e8c:	4284      	cmp	r4, r0
    5e8e:	d10a      	bne.n	5ea6 <_malloc_r+0x8a>
    5e90:	6025      	str	r5, [r4, #0]
    5e92:	f104 000b 	add.w	r0, r4, #11
    5e96:	1d23      	adds	r3, r4, #4
    5e98:	f020 0007 	bic.w	r0, r0, #7
    5e9c:	1ac3      	subs	r3, r0, r3
    5e9e:	d00b      	beq.n	5eb8 <_malloc_r+0x9c>
    5ea0:	425a      	negs	r2, r3
    5ea2:	50e2      	str	r2, [r4, r3]
    5ea4:	bd70      	pop	{r4, r5, r6, pc}
    5ea6:	4630      	mov	r0, r6
    5ea8:	1a61      	subs	r1, r4, r1
    5eaa:	f000 f96f 	bl	618c <_sbrk_r>
    5eae:	3001      	adds	r0, #1
    5eb0:	d1ee      	bne.n	5e90 <_malloc_r+0x74>
    5eb2:	230c      	movs	r3, #12
    5eb4:	6033      	str	r3, [r6, #0]
    5eb6:	2000      	movs	r0, #0
    5eb8:	bd70      	pop	{r4, r5, r6, pc}
    5eba:	bf00      	nop
    5ebc:	1000040c 	.word	0x1000040c
    5ec0:	10000408 	.word	0x10000408

00005ec4 <_open_r>:
    5ec4:	b538      	push	{r3, r4, r5, lr}
    5ec6:	4c07      	ldr	r4, [pc, #28]	; (5ee4 <_open_r+0x20>)
    5ec8:	4605      	mov	r5, r0
    5eca:	2000      	movs	r0, #0
    5ecc:	6020      	str	r0, [r4, #0]
    5ece:	4608      	mov	r0, r1
    5ed0:	4611      	mov	r1, r2
    5ed2:	461a      	mov	r2, r3
    5ed4:	f7fe fade 	bl	4494 <_open>
    5ed8:	1c43      	adds	r3, r0, #1
    5eda:	d102      	bne.n	5ee2 <_open_r+0x1e>
    5edc:	6823      	ldr	r3, [r4, #0]
    5ede:	b103      	cbz	r3, 5ee2 <_open_r+0x1e>
    5ee0:	602b      	str	r3, [r5, #0]
    5ee2:	bd38      	pop	{r3, r4, r5, pc}
    5ee4:	10001010 	.word	0x10001010

00005ee8 <_perror_r>:
    5ee8:	b537      	push	{r0, r1, r2, r4, r5, lr}
    5eea:	460d      	mov	r5, r1
    5eec:	4604      	mov	r4, r0
    5eee:	b118      	cbz	r0, 5ef8 <_perror_r+0x10>
    5ef0:	6983      	ldr	r3, [r0, #24]
    5ef2:	b90b      	cbnz	r3, 5ef8 <_perror_r+0x10>
    5ef4:	f7ff fc8a 	bl	580c <__sinit>
    5ef8:	b14d      	cbz	r5, 5f0e <_perror_r+0x26>
    5efa:	782b      	ldrb	r3, [r5, #0]
    5efc:	b13b      	cbz	r3, 5f0e <_perror_r+0x26>
    5efe:	68e1      	ldr	r1, [r4, #12]
    5f00:	4628      	mov	r0, r5
    5f02:	f7ff fdd1 	bl	5aa8 <fputs>
    5f06:	480a      	ldr	r0, [pc, #40]	; (5f30 <_perror_r+0x48>)
    5f08:	68e1      	ldr	r1, [r4, #12]
    5f0a:	f7ff fdcd 	bl	5aa8 <fputs>
    5f0e:	4620      	mov	r0, r4
    5f10:	6821      	ldr	r1, [r4, #0]
    5f12:	2201      	movs	r2, #1
    5f14:	ab01      	add	r3, sp, #4
    5f16:	f000 fa77 	bl	6408 <_strerror_r>
    5f1a:	b110      	cbz	r0, 5f22 <_perror_r+0x3a>
    5f1c:	68e1      	ldr	r1, [r4, #12]
    5f1e:	f7ff fdc3 	bl	5aa8 <fputs>
    5f22:	68e1      	ldr	r1, [r4, #12]
    5f24:	200a      	movs	r0, #10
    5f26:	f7ff fd61 	bl	59ec <fputc>
    5f2a:	b003      	add	sp, #12
    5f2c:	bd30      	pop	{r4, r5, pc}
    5f2e:	bf00      	nop
    5f30:	000088c0 	.word	0x000088c0

00005f34 <perror>:
    5f34:	4b02      	ldr	r3, [pc, #8]	; (5f40 <perror+0xc>)
    5f36:	4601      	mov	r1, r0
    5f38:	6818      	ldr	r0, [r3, #0]
    5f3a:	f7ff bfd5 	b.w	5ee8 <_perror_r>
    5f3e:	bf00      	nop
    5f40:	100001b8 	.word	0x100001b8

00005f44 <iprintf>:
    5f44:	b40f      	push	{r0, r1, r2, r3}
    5f46:	4b0a      	ldr	r3, [pc, #40]	; (5f70 <iprintf+0x2c>)
    5f48:	b513      	push	{r0, r1, r4, lr}
    5f4a:	681c      	ldr	r4, [r3, #0]
    5f4c:	b124      	cbz	r4, 5f58 <iprintf+0x14>
    5f4e:	69a3      	ldr	r3, [r4, #24]
    5f50:	b913      	cbnz	r3, 5f58 <iprintf+0x14>
    5f52:	4620      	mov	r0, r4
    5f54:	f7ff fc5a 	bl	580c <__sinit>
    5f58:	ab05      	add	r3, sp, #20
    5f5a:	4620      	mov	r0, r4
    5f5c:	68a1      	ldr	r1, [r4, #8]
    5f5e:	9a04      	ldr	r2, [sp, #16]
    5f60:	9301      	str	r3, [sp, #4]
    5f62:	f000 ff91 	bl	6e88 <_vfiprintf_r>
    5f66:	b002      	add	sp, #8
    5f68:	e8bd 4010 	ldmia.w	sp!, {r4, lr}
    5f6c:	b004      	add	sp, #16
    5f6e:	4770      	bx	lr
    5f70:	100001b8 	.word	0x100001b8

00005f74 <_putc_r>:
    5f74:	b570      	push	{r4, r5, r6, lr}
    5f76:	460e      	mov	r6, r1
    5f78:	4614      	mov	r4, r2
    5f7a:	4605      	mov	r5, r0
    5f7c:	b118      	cbz	r0, 5f86 <_putc_r+0x12>
    5f7e:	6983      	ldr	r3, [r0, #24]
    5f80:	b90b      	cbnz	r3, 5f86 <_putc_r+0x12>
    5f82:	f7ff fc43 	bl	580c <__sinit>
    5f86:	4b16      	ldr	r3, [pc, #88]	; (5fe0 <_putc_r+0x6c>)
    5f88:	429c      	cmp	r4, r3
    5f8a:	d101      	bne.n	5f90 <_putc_r+0x1c>
    5f8c:	686c      	ldr	r4, [r5, #4]
    5f8e:	e008      	b.n	5fa2 <_putc_r+0x2e>
    5f90:	4b14      	ldr	r3, [pc, #80]	; (5fe4 <_putc_r+0x70>)
    5f92:	429c      	cmp	r4, r3
    5f94:	d101      	bne.n	5f9a <_putc_r+0x26>
    5f96:	68ac      	ldr	r4, [r5, #8]
    5f98:	e003      	b.n	5fa2 <_putc_r+0x2e>
    5f9a:	4b13      	ldr	r3, [pc, #76]	; (5fe8 <_putc_r+0x74>)
    5f9c:	429c      	cmp	r4, r3
    5f9e:	bf08      	it	eq
    5fa0:	68ec      	ldreq	r4, [r5, #12]
    5fa2:	68a3      	ldr	r3, [r4, #8]
    5fa4:	3b01      	subs	r3, #1
    5fa6:	2b00      	cmp	r3, #0
    5fa8:	60a3      	str	r3, [r4, #8]
    5faa:	da11      	bge.n	5fd0 <_putc_r+0x5c>
    5fac:	69a2      	ldr	r2, [r4, #24]
    5fae:	4293      	cmp	r3, r2
    5fb0:	db07      	blt.n	5fc2 <_putc_r+0x4e>
    5fb2:	6823      	ldr	r3, [r4, #0]
    5fb4:	701e      	strb	r6, [r3, #0]
    5fb6:	6823      	ldr	r3, [r4, #0]
    5fb8:	7819      	ldrb	r1, [r3, #0]
    5fba:	290a      	cmp	r1, #10
    5fbc:	d10b      	bne.n	5fd6 <_putc_r+0x62>
    5fbe:	4628      	mov	r0, r5
    5fc0:	e001      	b.n	5fc6 <_putc_r+0x52>
    5fc2:	4628      	mov	r0, r5
    5fc4:	4631      	mov	r1, r6
    5fc6:	4622      	mov	r2, r4
    5fc8:	e8bd 4070 	ldmia.w	sp!, {r4, r5, r6, lr}
    5fcc:	f001 bb4a 	b.w	7664 <__swbuf_r>
    5fd0:	6823      	ldr	r3, [r4, #0]
    5fd2:	701e      	strb	r6, [r3, #0]
    5fd4:	6823      	ldr	r3, [r4, #0]
    5fd6:	1c5a      	adds	r2, r3, #1
    5fd8:	6022      	str	r2, [r4, #0]
    5fda:	7818      	ldrb	r0, [r3, #0]
    5fdc:	bd70      	pop	{r4, r5, r6, pc}
    5fde:	bf00      	nop
    5fe0:	00008858 	.word	0x00008858
    5fe4:	00008878 	.word	0x00008878
    5fe8:	00008898 	.word	0x00008898

00005fec <putchar>:
    5fec:	b538      	push	{r3, r4, r5, lr}
    5fee:	4b08      	ldr	r3, [pc, #32]	; (6010 <putchar+0x24>)
    5ff0:	4605      	mov	r5, r0
    5ff2:	681c      	ldr	r4, [r3, #0]
    5ff4:	b124      	cbz	r4, 6000 <putchar+0x14>
    5ff6:	69a3      	ldr	r3, [r4, #24]
    5ff8:	b913      	cbnz	r3, 6000 <putchar+0x14>
    5ffa:	4620      	mov	r0, r4
    5ffc:	f7ff fc06 	bl	580c <__sinit>
    6000:	4620      	mov	r0, r4
    6002:	4629      	mov	r1, r5
    6004:	68a2      	ldr	r2, [r4, #8]
    6006:	e8bd 4038 	ldmia.w	sp!, {r3, r4, r5, lr}
    600a:	f7ff bfb3 	b.w	5f74 <_putc_r>
    600e:	bf00      	nop
    6010:	100001b8 	.word	0x100001b8

00006014 <lflush>:
    6014:	8983      	ldrh	r3, [r0, #12]
    6016:	f003 0309 	and.w	r3, r3, #9
    601a:	2b09      	cmp	r3, #9
    601c:	d101      	bne.n	6022 <lflush+0xe>
    601e:	f7ff bb5b 	b.w	56d8 <fflush>
    6022:	2000      	movs	r0, #0
    6024:	4770      	bx	lr
	...

00006028 <__srefill_r>:
    6028:	b5f8      	push	{r3, r4, r5, r6, r7, lr}
    602a:	460c      	mov	r4, r1
    602c:	4605      	mov	r5, r0
    602e:	b118      	cbz	r0, 6038 <__srefill_r+0x10>
    6030:	6983      	ldr	r3, [r0, #24]
    6032:	b90b      	cbnz	r3, 6038 <__srefill_r+0x10>
    6034:	f7ff fbea 	bl	580c <__sinit>
    6038:	4b39      	ldr	r3, [pc, #228]	; (6120 <__srefill_r+0xf8>)
    603a:	429c      	cmp	r4, r3
    603c:	d101      	bne.n	6042 <__srefill_r+0x1a>
    603e:	686c      	ldr	r4, [r5, #4]
    6040:	e008      	b.n	6054 <__srefill_r+0x2c>
    6042:	4b38      	ldr	r3, [pc, #224]	; (6124 <__srefill_r+0xfc>)
    6044:	429c      	cmp	r4, r3
    6046:	d101      	bne.n	604c <__srefill_r+0x24>
    6048:	68ac      	ldr	r4, [r5, #8]
    604a:	e003      	b.n	6054 <__srefill_r+0x2c>
    604c:	4b36      	ldr	r3, [pc, #216]	; (6128 <__srefill_r+0x100>)
    604e:	429c      	cmp	r4, r3
    6050:	bf08      	it	eq
    6052:	68ec      	ldreq	r4, [r5, #12]
    6054:	89a2      	ldrh	r2, [r4, #12]
    6056:	2300      	movs	r3, #0
    6058:	6063      	str	r3, [r4, #4]
    605a:	b293      	uxth	r3, r2
    605c:	069e      	lsls	r6, r3, #26
    605e:	d45a      	bmi.n	6116 <__srefill_r+0xee>
    6060:	0758      	lsls	r0, r3, #29
    6062:	d41a      	bmi.n	609a <__srefill_r+0x72>
    6064:	06d9      	lsls	r1, r3, #27
    6066:	d405      	bmi.n	6074 <__srefill_r+0x4c>
    6068:	2309      	movs	r3, #9
    606a:	f042 0240 	orr.w	r2, r2, #64	; 0x40
    606e:	602b      	str	r3, [r5, #0]
    6070:	81a2      	strh	r2, [r4, #12]
    6072:	e050      	b.n	6116 <__srefill_r+0xee>
    6074:	071a      	lsls	r2, r3, #28
    6076:	d50b      	bpl.n	6090 <__srefill_r+0x68>
    6078:	4628      	mov	r0, r5
    607a:	4621      	mov	r1, r4
    607c:	f7ff fb02 	bl	5684 <_fflush_r>
    6080:	2800      	cmp	r0, #0
    6082:	d148      	bne.n	6116 <__srefill_r+0xee>
    6084:	89a3      	ldrh	r3, [r4, #12]
    6086:	60a0      	str	r0, [r4, #8]
    6088:	f023 0308 	bic.w	r3, r3, #8
    608c:	81a3      	strh	r3, [r4, #12]
    608e:	61a0      	str	r0, [r4, #24]
    6090:	89a3      	ldrh	r3, [r4, #12]
    6092:	f043 0304 	orr.w	r3, r3, #4
    6096:	81a3      	strh	r3, [r4, #12]
    6098:	e010      	b.n	60bc <__srefill_r+0x94>
    609a:	6b61      	ldr	r1, [r4, #52]	; 0x34
    609c:	b171      	cbz	r1, 60bc <__srefill_r+0x94>
    609e:	f104 0344 	add.w	r3, r4, #68	; 0x44
    60a2:	4299      	cmp	r1, r3
    60a4:	d002      	beq.n	60ac <__srefill_r+0x84>
    60a6:	4628      	mov	r0, r5
    60a8:	f7ff fe74 	bl	5d94 <_free_r>
    60ac:	6c23      	ldr	r3, [r4, #64]	; 0x40
    60ae:	2000      	movs	r0, #0
    60b0:	6360      	str	r0, [r4, #52]	; 0x34
    60b2:	6063      	str	r3, [r4, #4]
    60b4:	b113      	cbz	r3, 60bc <__srefill_r+0x94>
    60b6:	6be3      	ldr	r3, [r4, #60]	; 0x3c
    60b8:	6023      	str	r3, [r4, #0]
    60ba:	bdf8      	pop	{r3, r4, r5, r6, r7, pc}
    60bc:	6923      	ldr	r3, [r4, #16]
    60be:	b91b      	cbnz	r3, 60c8 <__srefill_r+0xa0>
    60c0:	4628      	mov	r0, r5
    60c2:	4621      	mov	r1, r4
    60c4:	f7ff fdea 	bl	5c9c <__smakebuf_r>
    60c8:	89a7      	ldrh	r7, [r4, #12]
    60ca:	b2be      	uxth	r6, r7
    60cc:	07b3      	lsls	r3, r6, #30
    60ce:	d00f      	beq.n	60f0 <__srefill_r+0xc8>
    60d0:	2301      	movs	r3, #1
    60d2:	81a3      	strh	r3, [r4, #12]
    60d4:	4b15      	ldr	r3, [pc, #84]	; (612c <__srefill_r+0x104>)
    60d6:	4916      	ldr	r1, [pc, #88]	; (6130 <__srefill_r+0x108>)
    60d8:	6818      	ldr	r0, [r3, #0]
    60da:	f006 0609 	and.w	r6, r6, #9
    60de:	f7ff fd7d 	bl	5bdc <_fwalk>
    60e2:	2e09      	cmp	r6, #9
    60e4:	81a7      	strh	r7, [r4, #12]
    60e6:	d103      	bne.n	60f0 <__srefill_r+0xc8>
    60e8:	4628      	mov	r0, r5
    60ea:	4621      	mov	r1, r4
    60ec:	f7ff fa46 	bl	557c <__sflush_r>
    60f0:	6922      	ldr	r2, [r4, #16]
    60f2:	6a66      	ldr	r6, [r4, #36]	; 0x24
    60f4:	6022      	str	r2, [r4, #0]
    60f6:	4628      	mov	r0, r5
    60f8:	6a21      	ldr	r1, [r4, #32]
    60fa:	6963      	ldr	r3, [r4, #20]
    60fc:	47b0      	blx	r6
    60fe:	2800      	cmp	r0, #0
    6100:	6060      	str	r0, [r4, #4]
    6102:	dc0b      	bgt.n	611c <__srefill_r+0xf4>
    6104:	89a3      	ldrh	r3, [r4, #12]
    6106:	bf17      	itett	ne
    6108:	2200      	movne	r2, #0
    610a:	f043 0320 	orreq.w	r3, r3, #32
    610e:	f043 0340 	orrne.w	r3, r3, #64	; 0x40
    6112:	6062      	strne	r2, [r4, #4]
    6114:	81a3      	strh	r3, [r4, #12]
    6116:	f04f 30ff 	mov.w	r0, #4294967295	; 0xffffffff
    611a:	bdf8      	pop	{r3, r4, r5, r6, r7, pc}
    611c:	2000      	movs	r0, #0
    611e:	bdf8      	pop	{r3, r4, r5, r6, r7, pc}
    6120:	00008858 	.word	0x00008858
    6124:	00008878 	.word	0x00008878
    6128:	00008898 	.word	0x00008898
    612c:	000088bc 	.word	0x000088bc
    6130:	00006015 	.word	0x00006015

00006134 <__srget_r>:
    6134:	b538      	push	{r3, r4, r5, lr}
    6136:	460c      	mov	r4, r1
    6138:	4605      	mov	r5, r0
    613a:	b118      	cbz	r0, 6144 <__srget_r+0x10>
    613c:	6983      	ldr	r3, [r0, #24]
    613e:	b90b      	cbnz	r3, 6144 <__srget_r+0x10>
    6140:	f7ff fb64 	bl	580c <__sinit>
    6144:	4b0e      	ldr	r3, [pc, #56]	; (6180 <__srget_r+0x4c>)
    6146:	429c      	cmp	r4, r3
    6148:	d101      	bne.n	614e <__srget_r+0x1a>
    614a:	686c      	ldr	r4, [r5, #4]
    614c:	e008      	b.n	6160 <__srget_r+0x2c>
    614e:	4b0d      	ldr	r3, [pc, #52]	; (6184 <__srget_r+0x50>)
    6150:	429c      	cmp	r4, r3
    6152:	d101      	bne.n	6158 <__srget_r+0x24>
    6154:	68ac      	ldr	r4, [r5, #8]
    6156:	e003      	b.n	6160 <__srget_r+0x2c>
    6158:	4b0b      	ldr	r3, [pc, #44]	; (6188 <__srget_r+0x54>)
    615a:	429c      	cmp	r4, r3
    615c:	bf08      	it	eq
    615e:	68ec      	ldreq	r4, [r5, #12]
    6160:	4628      	mov	r0, r5
    6162:	4621      	mov	r1, r4
    6164:	f7ff ff60 	bl	6028 <__srefill_r>
    6168:	b938      	cbnz	r0, 617a <__srget_r+0x46>
    616a:	6863      	ldr	r3, [r4, #4]
    616c:	3b01      	subs	r3, #1
    616e:	6063      	str	r3, [r4, #4]
    6170:	6823      	ldr	r3, [r4, #0]
    6172:	1c5a      	adds	r2, r3, #1
    6174:	6022      	str	r2, [r4, #0]
    6176:	7818      	ldrb	r0, [r3, #0]
    6178:	bd38      	pop	{r3, r4, r5, pc}
    617a:	f04f 30ff 	mov.w	r0, #4294967295	; 0xffffffff
    617e:	bd38      	pop	{r3, r4, r5, pc}
    6180:	00008858 	.word	0x00008858
    6184:	00008878 	.word	0x00008878
    6188:	00008898 	.word	0x00008898

0000618c <_sbrk_r>:
    618c:	b538      	push	{r3, r4, r5, lr}
    618e:	4c06      	ldr	r4, [pc, #24]	; (61a8 <_sbrk_r+0x1c>)
    6190:	2300      	movs	r3, #0
    6192:	4605      	mov	r5, r0
    6194:	4608      	mov	r0, r1
    6196:	6023      	str	r3, [r4, #0]
    6198:	f7fe fa98 	bl	46cc <_sbrk>
    619c:	1c43      	adds	r3, r0, #1
    619e:	d102      	bne.n	61a6 <_sbrk_r+0x1a>
    61a0:	6823      	ldr	r3, [r4, #0]
    61a2:	b103      	cbz	r3, 61a6 <_sbrk_r+0x1a>
    61a4:	602b      	str	r3, [r5, #0]
    61a6:	bd38      	pop	{r3, r4, r5, pc}
    61a8:	10001010 	.word	0x10001010

000061ac <setbuf>:
    61ac:	2900      	cmp	r1, #0
    61ae:	bf0c      	ite	eq
    61b0:	2202      	moveq	r2, #2
    61b2:	2200      	movne	r2, #0
    61b4:	f44f 6380 	mov.w	r3, #1024	; 0x400
    61b8:	f000 b800 	b.w	61bc <setvbuf>

000061bc <setvbuf>:
    61bc:	e92d 41f0 	stmdb	sp!, {r4, r5, r6, r7, r8, lr}
    61c0:	461e      	mov	r6, r3
    61c2:	4b3d      	ldr	r3, [pc, #244]	; (62b8 <setvbuf+0xfc>)
    61c4:	4604      	mov	r4, r0
    61c6:	681d      	ldr	r5, [r3, #0]
    61c8:	460f      	mov	r7, r1
    61ca:	4690      	mov	r8, r2
    61cc:	b125      	cbz	r5, 61d8 <setvbuf+0x1c>
    61ce:	69ab      	ldr	r3, [r5, #24]
    61d0:	b913      	cbnz	r3, 61d8 <setvbuf+0x1c>
    61d2:	4628      	mov	r0, r5
    61d4:	f7ff fb1a 	bl	580c <__sinit>
    61d8:	4b38      	ldr	r3, [pc, #224]	; (62bc <setvbuf+0x100>)
    61da:	429c      	cmp	r4, r3
    61dc:	d101      	bne.n	61e2 <setvbuf+0x26>
    61de:	686c      	ldr	r4, [r5, #4]
    61e0:	e008      	b.n	61f4 <setvbuf+0x38>
    61e2:	4b37      	ldr	r3, [pc, #220]	; (62c0 <setvbuf+0x104>)
    61e4:	429c      	cmp	r4, r3
    61e6:	d101      	bne.n	61ec <setvbuf+0x30>
    61e8:	68ac      	ldr	r4, [r5, #8]
    61ea:	e003      	b.n	61f4 <setvbuf+0x38>
    61ec:	4b35      	ldr	r3, [pc, #212]	; (62c4 <setvbuf+0x108>)
    61ee:	429c      	cmp	r4, r3
    61f0:	bf08      	it	eq
    61f2:	68ec      	ldreq	r4, [r5, #12]
    61f4:	f1b8 0f02 	cmp.w	r8, #2
    61f8:	d859      	bhi.n	62ae <setvbuf+0xf2>
    61fa:	2e00      	cmp	r6, #0
    61fc:	db57      	blt.n	62ae <setvbuf+0xf2>
    61fe:	4628      	mov	r0, r5
    6200:	4621      	mov	r1, r4
    6202:	f7ff fa3f 	bl	5684 <_fflush_r>
    6206:	2300      	movs	r3, #0
    6208:	6063      	str	r3, [r4, #4]
    620a:	61a3      	str	r3, [r4, #24]
    620c:	89a3      	ldrh	r3, [r4, #12]
    620e:	061b      	lsls	r3, r3, #24
    6210:	d503      	bpl.n	621a <setvbuf+0x5e>
    6212:	4628      	mov	r0, r5
    6214:	6921      	ldr	r1, [r4, #16]
    6216:	f7ff fdbd 	bl	5d94 <_free_r>
    621a:	89a3      	ldrh	r3, [r4, #12]
    621c:	f1b8 0f02 	cmp.w	r8, #2
    6220:	f023 0383 	bic.w	r3, r3, #131	; 0x83
    6224:	81a3      	strh	r3, [r4, #12]
    6226:	d012      	beq.n	624e <setvbuf+0x92>
    6228:	bb37      	cbnz	r7, 6278 <setvbuf+0xbc>
    622a:	2e00      	cmp	r6, #0
    622c:	bf08      	it	eq
    622e:	f44f 6680 	moveq.w	r6, #1024	; 0x400
    6232:	4630      	mov	r0, r6
    6234:	f7f9 ffe2 	bl	1fc <__wrap_malloc>
    6238:	4607      	mov	r7, r0
    623a:	b9c8      	cbnz	r0, 6270 <setvbuf+0xb4>
    623c:	f44f 6080 	mov.w	r0, #1024	; 0x400
    6240:	f7f9 ffdc 	bl	1fc <__wrap_malloc>
    6244:	4607      	mov	r7, r0
    6246:	b988      	cbnz	r0, 626c <setvbuf+0xb0>
    6248:	f04f 30ff 	mov.w	r0, #4294967295	; 0xffffffff
    624c:	e000      	b.n	6250 <setvbuf+0x94>
    624e:	2000      	movs	r0, #0
    6250:	89a3      	ldrh	r3, [r4, #12]
    6252:	f043 0302 	orr.w	r3, r3, #2
    6256:	81a3      	strh	r3, [r4, #12]
    6258:	2300      	movs	r3, #0
    625a:	60a3      	str	r3, [r4, #8]
    625c:	f104 0347 	add.w	r3, r4, #71	; 0x47
    6260:	6023      	str	r3, [r4, #0]
    6262:	6123      	str	r3, [r4, #16]
    6264:	2301      	movs	r3, #1
    6266:	6163      	str	r3, [r4, #20]
    6268:	e8bd 81f0 	ldmia.w	sp!, {r4, r5, r6, r7, r8, pc}
    626c:	f44f 6680 	mov.w	r6, #1024	; 0x400
    6270:	89a3      	ldrh	r3, [r4, #12]
    6272:	f043 0380 	orr.w	r3, r3, #128	; 0x80
    6276:	81a3      	strh	r3, [r4, #12]
    6278:	f1b8 0f01 	cmp.w	r8, #1
    627c:	d105      	bne.n	628a <setvbuf+0xce>
    627e:	89a3      	ldrh	r3, [r4, #12]
    6280:	f043 0301 	orr.w	r3, r3, #1
    6284:	81a3      	strh	r3, [r4, #12]
    6286:	4273      	negs	r3, r6
    6288:	61a3      	str	r3, [r4, #24]
    628a:	4b0f      	ldr	r3, [pc, #60]	; (62c8 <setvbuf+0x10c>)
    628c:	62ab      	str	r3, [r5, #40]	; 0x28
    628e:	89a3      	ldrh	r3, [r4, #12]
    6290:	6027      	str	r7, [r4, #0]
    6292:	f003 0008 	and.w	r0, r3, #8
    6296:	b280      	uxth	r0, r0
    6298:	6127      	str	r7, [r4, #16]
    629a:	6166      	str	r6, [r4, #20]
    629c:	b148      	cbz	r0, 62b2 <setvbuf+0xf6>
    629e:	f013 0f03 	tst.w	r3, #3
    62a2:	bf18      	it	ne
    62a4:	2600      	movne	r6, #0
    62a6:	60a6      	str	r6, [r4, #8]
    62a8:	2000      	movs	r0, #0
    62aa:	e8bd 81f0 	ldmia.w	sp!, {r4, r5, r6, r7, r8, pc}
    62ae:	f04f 30ff 	mov.w	r0, #4294967295	; 0xffffffff
    62b2:	e8bd 81f0 	ldmia.w	sp!, {r4, r5, r6, r7, r8, pc}
    62b6:	bf00      	nop
    62b8:	100001b8 	.word	0x100001b8
    62bc:	00008858 	.word	0x00008858
    62c0:	00008878 	.word	0x00008878
    62c4:	00008898 	.word	0x00008898
    62c8:	00005765 	.word	0x00005765

000062cc <siprintf>:
    62cc:	b40e      	push	{r1, r2, r3}
    62ce:	b500      	push	{lr}
    62d0:	f44f 7102 	mov.w	r1, #520	; 0x208
    62d4:	b09c      	sub	sp, #112	; 0x70
    62d6:	f8ad 1014 	strh.w	r1, [sp, #20]
    62da:	f06f 4100 	mvn.w	r1, #2147483648	; 0x80000000
    62de:	9104      	str	r1, [sp, #16]
    62e0:	9107      	str	r1, [sp, #28]
    62e2:	f64f 71ff 	movw	r1, #65535	; 0xffff
    62e6:	ab1d      	add	r3, sp, #116	; 0x74
    62e8:	f8ad 1016 	strh.w	r1, [sp, #22]
    62ec:	4908      	ldr	r1, [pc, #32]	; (6310 <siprintf+0x44>)
    62ee:	f853 2b04 	ldr.w	r2, [r3], #4
    62f2:	9002      	str	r0, [sp, #8]
    62f4:	9006      	str	r0, [sp, #24]
    62f6:	6808      	ldr	r0, [r1, #0]
    62f8:	a902      	add	r1, sp, #8
    62fa:	9301      	str	r3, [sp, #4]
    62fc:	f000 facc 	bl	6898 <_svfiprintf_r>
    6300:	9b02      	ldr	r3, [sp, #8]
    6302:	2200      	movs	r2, #0
    6304:	701a      	strb	r2, [r3, #0]
    6306:	b01c      	add	sp, #112	; 0x70
    6308:	f85d eb04 	ldr.w	lr, [sp], #4
    630c:	b003      	add	sp, #12
    630e:	4770      	bx	lr
    6310:	100001b8 	.word	0x100001b8

00006314 <siscanf>:
    6314:	b40e      	push	{r1, r2, r3}
    6316:	b530      	push	{r4, r5, lr}
    6318:	b09c      	sub	sp, #112	; 0x70
    631a:	ac1f      	add	r4, sp, #124	; 0x7c
    631c:	f44f 7201 	mov.w	r2, #516	; 0x204
    6320:	f854 5b04 	ldr.w	r5, [r4], #4
    6324:	f8ad 2014 	strh.w	r2, [sp, #20]
    6328:	9002      	str	r0, [sp, #8]
    632a:	9006      	str	r0, [sp, #24]
    632c:	f000 fa3a 	bl	67a4 <strlen>
    6330:	4b0b      	ldr	r3, [pc, #44]	; (6360 <siscanf+0x4c>)
    6332:	9003      	str	r0, [sp, #12]
    6334:	930b      	str	r3, [sp, #44]	; 0x2c
    6336:	2300      	movs	r3, #0
    6338:	930f      	str	r3, [sp, #60]	; 0x3c
    633a:	9314      	str	r3, [sp, #80]	; 0x50
    633c:	f64f 73ff 	movw	r3, #65535	; 0xffff
    6340:	f8ad 3016 	strh.w	r3, [sp, #22]
    6344:	4b07      	ldr	r3, [pc, #28]	; (6364 <siscanf+0x50>)
    6346:	9007      	str	r0, [sp, #28]
    6348:	a902      	add	r1, sp, #8
    634a:	6818      	ldr	r0, [r3, #0]
    634c:	462a      	mov	r2, r5
    634e:	4623      	mov	r3, r4
    6350:	9401      	str	r4, [sp, #4]
    6352:	f000 fbe7 	bl	6b24 <__ssvfiscanf_r>
    6356:	b01c      	add	sp, #112	; 0x70
    6358:	e8bd 4030 	ldmia.w	sp!, {r4, r5, lr}
    635c:	b003      	add	sp, #12
    635e:	4770      	bx	lr
    6360:	0000638b 	.word	0x0000638b
    6364:	100001b8 	.word	0x100001b8

00006368 <__sread>:
    6368:	b510      	push	{r4, lr}
    636a:	460c      	mov	r4, r1
    636c:	f9b1 100e 	ldrsh.w	r1, [r1, #14]
    6370:	f001 fb66 	bl	7a40 <_read_r>
    6374:	2800      	cmp	r0, #0
    6376:	db03      	blt.n	6380 <__sread+0x18>
    6378:	6d63      	ldr	r3, [r4, #84]	; 0x54
    637a:	4403      	add	r3, r0
    637c:	6563      	str	r3, [r4, #84]	; 0x54
    637e:	bd10      	pop	{r4, pc}
    6380:	89a3      	ldrh	r3, [r4, #12]
    6382:	f423 5380 	bic.w	r3, r3, #4096	; 0x1000
    6386:	81a3      	strh	r3, [r4, #12]
    6388:	bd10      	pop	{r4, pc}

0000638a <__seofread>:
    638a:	2000      	movs	r0, #0
    638c:	4770      	bx	lr

0000638e <__swrite>:
    638e:	e92d 41f0 	stmdb	sp!, {r4, r5, r6, r7, r8, lr}
    6392:	461d      	mov	r5, r3
    6394:	898b      	ldrh	r3, [r1, #12]
    6396:	4607      	mov	r7, r0
    6398:	05db      	lsls	r3, r3, #23
    639a:	460c      	mov	r4, r1
    639c:	4616      	mov	r6, r2
    639e:	d505      	bpl.n	63ac <__swrite+0x1e>
    63a0:	f9b1 100e 	ldrsh.w	r1, [r1, #14]
    63a4:	2200      	movs	r2, #0
    63a6:	2302      	movs	r3, #2
    63a8:	f001 faf6 	bl	7998 <_lseek_r>
    63ac:	89a3      	ldrh	r3, [r4, #12]
    63ae:	4638      	mov	r0, r7
    63b0:	f423 5380 	bic.w	r3, r3, #4096	; 0x1000
    63b4:	81a3      	strh	r3, [r4, #12]
    63b6:	f9b4 100e 	ldrsh.w	r1, [r4, #14]
    63ba:	4632      	mov	r2, r6
    63bc:	462b      	mov	r3, r5
    63be:	e8bd 41f0 	ldmia.w	sp!, {r4, r5, r6, r7, r8, lr}
    63c2:	f001 b9a3 	b.w	770c <_write_r>

000063c6 <__sseek>:
    63c6:	b510      	push	{r4, lr}
    63c8:	460c      	mov	r4, r1
    63ca:	f9b1 100e 	ldrsh.w	r1, [r1, #14]
    63ce:	f001 fae3 	bl	7998 <_lseek_r>
    63d2:	1c43      	adds	r3, r0, #1
    63d4:	89a3      	ldrh	r3, [r4, #12]
    63d6:	d103      	bne.n	63e0 <__sseek+0x1a>
    63d8:	f423 5380 	bic.w	r3, r3, #4096	; 0x1000
    63dc:	81a3      	strh	r3, [r4, #12]
    63de:	bd10      	pop	{r4, pc}
    63e0:	f443 5380 	orr.w	r3, r3, #4096	; 0x1000
    63e4:	81a3      	strh	r3, [r4, #12]
    63e6:	6560      	str	r0, [r4, #84]	; 0x54
    63e8:	bd10      	pop	{r4, pc}

000063ea <__sclose>:
    63ea:	f9b1 100e 	ldrsh.w	r1, [r1, #14]
    63ee:	f001 ba69 	b.w	78c4 <_close_r>

000063f2 <strcmp>:
    63f2:	f810 2b01 	ldrb.w	r2, [r0], #1
    63f6:	f811 3b01 	ldrb.w	r3, [r1], #1
    63fa:	2a01      	cmp	r2, #1
    63fc:	bf28      	it	cs
    63fe:	429a      	cmpcs	r2, r3
    6400:	d0f7      	beq.n	63f2 <strcmp>
    6402:	1ad0      	subs	r0, r2, r3
    6404:	4770      	bx	lr
	...

00006408 <_strerror_r>:
    6408:	b510      	push	{r4, lr}
    640a:	4604      	mov	r4, r0
    640c:	298e      	cmp	r1, #142	; 0x8e
    640e:	f200 8123 	bhi.w	6658 <_strerror_r+0x250>
    6412:	e8df f011 	tbh	[pc, r1, lsl #1]
    6416:	008f      	.short	0x008f
    6418:	0091012e 	.word	0x0091012e
    641c:	00950093 	.word	0x00950093
    6420:	00990097 	.word	0x00990097
    6424:	009d009b 	.word	0x009d009b
    6428:	00a300a1 	.word	0x00a300a1
    642c:	00a900a7 	.word	0x00a900a7
    6430:	00ad00ab 	.word	0x00ad00ab
    6434:	00af0121 	.word	0x00af0121
    6438:	00b300b1 	.word	0x00b300b1
    643c:	00b700b5 	.word	0x00b700b5
    6440:	00bf00bd 	.word	0x00bf00bd
    6444:	00c500c3 	.word	0x00c500c3
    6448:	00c900c7 	.word	0x00c900c7
    644c:	00cf00cb 	.word	0x00cf00cb
    6450:	00d500d3 	.word	0x00d500d3
    6454:	00d900d7 	.word	0x00d900d7
    6458:	00dd00db 	.word	0x00dd00db
    645c:	00e100df 	.word	0x00e100df
    6460:	01210121 	.word	0x01210121
    6464:	01210121 	.word	0x01210121
    6468:	01210121 	.word	0x01210121
    646c:	01210121 	.word	0x01210121
    6470:	00e700e3 	.word	0x00e700e3
    6474:	01210121 	.word	0x01210121
    6478:	01210121 	.word	0x01210121
    647c:	01210121 	.word	0x01210121
    6480:	01210121 	.word	0x01210121
    6484:	01210121 	.word	0x01210121
    6488:	01210121 	.word	0x01210121
    648c:	00e90121 	.word	0x00e90121
    6490:	00eb0121 	.word	0x00eb0121
    6494:	012100ed 	.word	0x012100ed
    6498:	01210121 	.word	0x01210121
    649c:	012100ef 	.word	0x012100ef
    64a0:	01210121 	.word	0x01210121
    64a4:	012100f1 	.word	0x012100f1
    64a8:	00f50121 	.word	0x00f50121
    64ac:	01210121 	.word	0x01210121
    64b0:	012100f7 	.word	0x012100f7
    64b4:	01210121 	.word	0x01210121
    64b8:	01210121 	.word	0x01210121
    64bc:	01210121 	.word	0x01210121
    64c0:	01210121 	.word	0x01210121
    64c4:	00f90121 	.word	0x00f90121
    64c8:	00fb0121 	.word	0x00fb0121
    64cc:	00ff00fd 	.word	0x00ff00fd
    64d0:	01210121 	.word	0x01210121
    64d4:	0121011b 	.word	0x0121011b
    64d8:	01210121 	.word	0x01210121
    64dc:	01210121 	.word	0x01210121
    64e0:	01210121 	.word	0x01210121
    64e4:	01210121 	.word	0x01210121
    64e8:	01030101 	.word	0x01030101
    64ec:	01070105 	.word	0x01070105
    64f0:	01210109 	.word	0x01210109
    64f4:	010d010b 	.word	0x010d010b
    64f8:	00e5010f 	.word	0x00e5010f
    64fc:	011f00c1 	.word	0x011f00c1
    6500:	00cd00b9 	.word	0x00cd00b9
    6504:	009f00bb 	.word	0x009f00bb
    6508:	011d00a5 	.word	0x011d00a5
    650c:	012100f3 	.word	0x012100f3
    6510:	01210121 	.word	0x01210121
    6514:	01110113 	.word	0x01110113
    6518:	01210121 	.word	0x01210121
    651c:	01210121 	.word	0x01210121
    6520:	00d10121 	.word	0x00d10121
    6524:	01210121 	.word	0x01210121
    6528:	01210121 	.word	0x01210121
    652c:	01150121 	.word	0x01150121
    6530:	01190117 	.word	0x01190117
    6534:	4850      	ldr	r0, [pc, #320]	; (6678 <_strerror_r+0x270>)
    6536:	bd10      	pop	{r4, pc}
    6538:	4850      	ldr	r0, [pc, #320]	; (667c <_strerror_r+0x274>)
    653a:	bd10      	pop	{r4, pc}
    653c:	4850      	ldr	r0, [pc, #320]	; (6680 <_strerror_r+0x278>)
    653e:	bd10      	pop	{r4, pc}
    6540:	4850      	ldr	r0, [pc, #320]	; (6684 <_strerror_r+0x27c>)
    6542:	bd10      	pop	{r4, pc}
    6544:	4850      	ldr	r0, [pc, #320]	; (6688 <_strerror_r+0x280>)
    6546:	bd10      	pop	{r4, pc}
    6548:	4850      	ldr	r0, [pc, #320]	; (668c <_strerror_r+0x284>)
    654a:	bd10      	pop	{r4, pc}
    654c:	4850      	ldr	r0, [pc, #320]	; (6690 <_strerror_r+0x288>)
    654e:	bd10      	pop	{r4, pc}
    6550:	4850      	ldr	r0, [pc, #320]	; (6694 <_strerror_r+0x28c>)
    6552:	bd10      	pop	{r4, pc}
    6554:	4850      	ldr	r0, [pc, #320]	; (6698 <_strerror_r+0x290>)
    6556:	bd10      	pop	{r4, pc}
    6558:	4850      	ldr	r0, [pc, #320]	; (669c <_strerror_r+0x294>)
    655a:	bd10      	pop	{r4, pc}
    655c:	4850      	ldr	r0, [pc, #320]	; (66a0 <_strerror_r+0x298>)
    655e:	bd10      	pop	{r4, pc}
    6560:	4850      	ldr	r0, [pc, #320]	; (66a4 <_strerror_r+0x29c>)
    6562:	bd10      	pop	{r4, pc}
    6564:	4850      	ldr	r0, [pc, #320]	; (66a8 <_strerror_r+0x2a0>)
    6566:	bd10      	pop	{r4, pc}
    6568:	4850      	ldr	r0, [pc, #320]	; (66ac <_strerror_r+0x2a4>)
    656a:	bd10      	pop	{r4, pc}
    656c:	4850      	ldr	r0, [pc, #320]	; (66b0 <_strerror_r+0x2a8>)
    656e:	bd10      	pop	{r4, pc}
    6570:	4850      	ldr	r0, [pc, #320]	; (66b4 <_strerror_r+0x2ac>)
    6572:	bd10      	pop	{r4, pc}
    6574:	4850      	ldr	r0, [pc, #320]	; (66b8 <_strerror_r+0x2b0>)
    6576:	bd10      	pop	{r4, pc}
    6578:	4850      	ldr	r0, [pc, #320]	; (66bc <_strerror_r+0x2b4>)
    657a:	bd10      	pop	{r4, pc}
    657c:	4850      	ldr	r0, [pc, #320]	; (66c0 <_strerror_r+0x2b8>)
    657e:	bd10      	pop	{r4, pc}
    6580:	4850      	ldr	r0, [pc, #320]	; (66c4 <_strerror_r+0x2bc>)
    6582:	bd10      	pop	{r4, pc}
    6584:	4850      	ldr	r0, [pc, #320]	; (66c8 <_strerror_r+0x2c0>)
    6586:	bd10      	pop	{r4, pc}
    6588:	4850      	ldr	r0, [pc, #320]	; (66cc <_strerror_r+0x2c4>)
    658a:	bd10      	pop	{r4, pc}
    658c:	4850      	ldr	r0, [pc, #320]	; (66d0 <_strerror_r+0x2c8>)
    658e:	bd10      	pop	{r4, pc}
    6590:	4850      	ldr	r0, [pc, #320]	; (66d4 <_strerror_r+0x2cc>)
    6592:	bd10      	pop	{r4, pc}
    6594:	4850      	ldr	r0, [pc, #320]	; (66d8 <_strerror_r+0x2d0>)
    6596:	bd10      	pop	{r4, pc}
    6598:	4850      	ldr	r0, [pc, #320]	; (66dc <_strerror_r+0x2d4>)
    659a:	bd10      	pop	{r4, pc}
    659c:	4850      	ldr	r0, [pc, #320]	; (66e0 <_strerror_r+0x2d8>)
    659e:	bd10      	pop	{r4, pc}
    65a0:	4850      	ldr	r0, [pc, #320]	; (66e4 <_strerror_r+0x2dc>)
    65a2:	bd10      	pop	{r4, pc}
    65a4:	4850      	ldr	r0, [pc, #320]	; (66e8 <_strerror_r+0x2e0>)
    65a6:	bd10      	pop	{r4, pc}
    65a8:	4850      	ldr	r0, [pc, #320]	; (66ec <_strerror_r+0x2e4>)
    65aa:	bd10      	pop	{r4, pc}
    65ac:	4850      	ldr	r0, [pc, #320]	; (66f0 <_strerror_r+0x2e8>)
    65ae:	bd10      	pop	{r4, pc}
    65b0:	4850      	ldr	r0, [pc, #320]	; (66f4 <_strerror_r+0x2ec>)
    65b2:	bd10      	pop	{r4, pc}
    65b4:	4850      	ldr	r0, [pc, #320]	; (66f8 <_strerror_r+0x2f0>)
    65b6:	bd10      	pop	{r4, pc}
    65b8:	4850      	ldr	r0, [pc, #320]	; (66fc <_strerror_r+0x2f4>)
    65ba:	bd10      	pop	{r4, pc}
    65bc:	4850      	ldr	r0, [pc, #320]	; (6700 <_strerror_r+0x2f8>)
    65be:	bd10      	pop	{r4, pc}
    65c0:	4850      	ldr	r0, [pc, #320]	; (6704 <_strerror_r+0x2fc>)
    65c2:	bd10      	pop	{r4, pc}
    65c4:	4850      	ldr	r0, [pc, #320]	; (6708 <_strerror_r+0x300>)
    65c6:	bd10      	pop	{r4, pc}
    65c8:	4850      	ldr	r0, [pc, #320]	; (670c <_strerror_r+0x304>)
    65ca:	bd10      	pop	{r4, pc}
    65cc:	4850      	ldr	r0, [pc, #320]	; (6710 <_strerror_r+0x308>)
    65ce:	bd10      	pop	{r4, pc}
    65d0:	4850      	ldr	r0, [pc, #320]	; (6714 <_strerror_r+0x30c>)
    65d2:	bd10      	pop	{r4, pc}
    65d4:	4850      	ldr	r0, [pc, #320]	; (6718 <_strerror_r+0x310>)
    65d6:	bd10      	pop	{r4, pc}
    65d8:	4850      	ldr	r0, [pc, #320]	; (671c <_strerror_r+0x314>)
    65da:	bd10      	pop	{r4, pc}
    65dc:	4850      	ldr	r0, [pc, #320]	; (6720 <_strerror_r+0x318>)
    65de:	bd10      	pop	{r4, pc}
    65e0:	4850      	ldr	r0, [pc, #320]	; (6724 <_strerror_r+0x31c>)
    65e2:	bd10      	pop	{r4, pc}
    65e4:	4850      	ldr	r0, [pc, #320]	; (6728 <_strerror_r+0x320>)
    65e6:	bd10      	pop	{r4, pc}
    65e8:	4850      	ldr	r0, [pc, #320]	; (672c <_strerror_r+0x324>)
    65ea:	bd10      	pop	{r4, pc}
    65ec:	4850      	ldr	r0, [pc, #320]	; (6730 <_strerror_r+0x328>)
    65ee:	bd10      	pop	{r4, pc}
    65f0:	4850      	ldr	r0, [pc, #320]	; (6734 <_strerror_r+0x32c>)
    65f2:	bd10      	pop	{r4, pc}
    65f4:	4850      	ldr	r0, [pc, #320]	; (6738 <_strerror_r+0x330>)
    65f6:	bd10      	pop	{r4, pc}
    65f8:	4850      	ldr	r0, [pc, #320]	; (673c <_strerror_r+0x334>)
    65fa:	bd10      	pop	{r4, pc}
    65fc:	4850      	ldr	r0, [pc, #320]	; (6740 <_strerror_r+0x338>)
    65fe:	bd10      	pop	{r4, pc}
    6600:	4850      	ldr	r0, [pc, #320]	; (6744 <_strerror_r+0x33c>)
    6602:	bd10      	pop	{r4, pc}
    6604:	4850      	ldr	r0, [pc, #320]	; (6748 <_strerror_r+0x340>)
    6606:	bd10      	pop	{r4, pc}
    6608:	4850      	ldr	r0, [pc, #320]	; (674c <_strerror_r+0x344>)
    660a:	bd10      	pop	{r4, pc}
    660c:	4850      	ldr	r0, [pc, #320]	; (6750 <_strerror_r+0x348>)
    660e:	bd10      	pop	{r4, pc}
    6610:	4850      	ldr	r0, [pc, #320]	; (6754 <_strerror_r+0x34c>)
    6612:	bd10      	pop	{r4, pc}
    6614:	4850      	ldr	r0, [pc, #320]	; (6758 <_strerror_r+0x350>)
    6616:	bd10      	pop	{r4, pc}
    6618:	4850      	ldr	r0, [pc, #320]	; (675c <_strerror_r+0x354>)
    661a:	bd10      	pop	{r4, pc}
    661c:	4850      	ldr	r0, [pc, #320]	; (6760 <_strerror_r+0x358>)
    661e:	bd10      	pop	{r4, pc}
    6620:	4850      	ldr	r0, [pc, #320]	; (6764 <_strerror_r+0x35c>)
    6622:	bd10      	pop	{r4, pc}
    6624:	4850      	ldr	r0, [pc, #320]	; (6768 <_strerror_r+0x360>)
    6626:	bd10      	pop	{r4, pc}
    6628:	4850      	ldr	r0, [pc, #320]	; (676c <_strerror_r+0x364>)
    662a:	bd10      	pop	{r4, pc}
    662c:	4850      	ldr	r0, [pc, #320]	; (6770 <_strerror_r+0x368>)
    662e:	bd10      	pop	{r4, pc}
    6630:	4850      	ldr	r0, [pc, #320]	; (6774 <_strerror_r+0x36c>)
    6632:	bd10      	pop	{r4, pc}
    6634:	4850      	ldr	r0, [pc, #320]	; (6778 <_strerror_r+0x370>)
    6636:	bd10      	pop	{r4, pc}
    6638:	4850      	ldr	r0, [pc, #320]	; (677c <_strerror_r+0x374>)
    663a:	bd10      	pop	{r4, pc}
    663c:	4850      	ldr	r0, [pc, #320]	; (6780 <_strerror_r+0x378>)
    663e:	bd10      	pop	{r4, pc}
    6640:	4850      	ldr	r0, [pc, #320]	; (6784 <_strerror_r+0x37c>)
    6642:	bd10      	pop	{r4, pc}
    6644:	4850      	ldr	r0, [pc, #320]	; (6788 <_strerror_r+0x380>)
    6646:	bd10      	pop	{r4, pc}
    6648:	4850      	ldr	r0, [pc, #320]	; (678c <_strerror_r+0x384>)
    664a:	bd10      	pop	{r4, pc}
    664c:	4850      	ldr	r0, [pc, #320]	; (6790 <_strerror_r+0x388>)
    664e:	bd10      	pop	{r4, pc}
    6650:	4850      	ldr	r0, [pc, #320]	; (6794 <_strerror_r+0x38c>)
    6652:	bd10      	pop	{r4, pc}
    6654:	4850      	ldr	r0, [pc, #320]	; (6798 <_strerror_r+0x390>)
    6656:	bd10      	pop	{r4, pc}
    6658:	4608      	mov	r0, r1
    665a:	4611      	mov	r1, r2
    665c:	2b00      	cmp	r3, #0
    665e:	bf14      	ite	ne
    6660:	461a      	movne	r2, r3
    6662:	4622      	moveq	r2, r4
    6664:	f000 fbac 	bl	6dc0 <_user_strerror>
    6668:	4b4c      	ldr	r3, [pc, #304]	; (679c <_strerror_r+0x394>)
    666a:	2800      	cmp	r0, #0
    666c:	bf08      	it	eq
    666e:	4618      	moveq	r0, r3
    6670:	bd10      	pop	{r4, pc}
    6672:	484b      	ldr	r0, [pc, #300]	; (67a0 <_strerror_r+0x398>)
    6674:	bd10      	pop	{r4, pc}
    6676:	bf00      	nop
    6678:	000088c3 	.word	0x000088c3
    667c:	000088d5 	.word	0x000088d5
    6680:	000088ef 	.word	0x000088ef
    6684:	000088ff 	.word	0x000088ff
    6688:	00008917 	.word	0x00008917
    668c:	00008921 	.word	0x00008921
    6690:	0000893b 	.word	0x0000893b
    6694:	0000894d 	.word	0x0000894d
    6698:	0000895f 	.word	0x0000895f
    669c:	00008978 	.word	0x00008978
    66a0:	00008988 	.word	0x00008988
    66a4:	00008994 	.word	0x00008994
    66a8:	000089b1 	.word	0x000089b1
    66ac:	000089c3 	.word	0x000089c3
    66b0:	000089d4 	.word	0x000089d4
    66b4:	000089e6 	.word	0x000089e6
    66b8:	000089f2 	.word	0x000089f2
    66bc:	00008a0a 	.word	0x00008a0a
    66c0:	00008a16 	.word	0x00008a16
    66c4:	00008a28 	.word	0x00008a28
    66c8:	00008a37 	.word	0x00008a37
    66cc:	00008a47 	.word	0x00008a47
    66d0:	00008a54 	.word	0x00008a54
    66d4:	00008a73 	.word	0x00008a73
    66d8:	00008a82 	.word	0x00008a82
    66dc:	00008a93 	.word	0x00008a93
    66e0:	00008ab7 	.word	0x00008ab7
    66e4:	00008ad5 	.word	0x00008ad5
    66e8:	00008ae9 	.word	0x00008ae9
    66ec:	00008b00 	.word	0x00008b00
    66f0:	00008b0f 	.word	0x00008b0f
    66f4:	00008b1e 	.word	0x00008b1e
    66f8:	00008b32 	.word	0x00008b32
    66fc:	00008b4a 	.word	0x00008b4a
    6700:	00008b58 	.word	0x00008b58
    6704:	00008b65 	.word	0x00008b65
    6708:	00008b7b 	.word	0x00008b7b
    670c:	00008b8a 	.word	0x00008b8a
    6710:	00008b96 	.word	0x00008b96
    6714:	00008ba4 	.word	0x00008ba4
    6718:	00008bb5 	.word	0x00008bb5
    671c:	00008bd0 	.word	0x00008bd0
    6720:	00008be3 	.word	0x00008be3
    6724:	00008bec 	.word	0x00008bec
    6728:	00008c03 	.word	0x00008c03
    672c:	00008c0b 	.word	0x00008c0b
    6730:	00008c18 	.word	0x00008c18
    6734:	00008c2d 	.word	0x00008c2d
    6738:	00008c41 	.word	0x00008c41
    673c:	00008c59 	.word	0x00008c59
    6740:	00008c68 	.word	0x00008c68
    6744:	00008c79 	.word	0x00008c79
    6748:	00008c8c 	.word	0x00008c8c
    674c:	00008c98 	.word	0x00008c98
    6750:	00008cb1 	.word	0x00008cb1
    6754:	00008cc5 	.word	0x00008cc5
    6758:	00008ce0 	.word	0x00008ce0
    675c:	00008cf8 	.word	0x00008cf8
    6760:	00008d12 	.word	0x00008d12
    6764:	00008d42 	.word	0x00008d42
    6768:	00008d61 	.word	0x00008d61
    676c:	00008d80 	.word	0x00008d80
    6770:	00008d97 	.word	0x00008d97
    6774:	00008daa 	.word	0x00008daa
    6778:	00008dc1 	.word	0x00008dc1
    677c:	00008de2 	.word	0x00008de2
    6780:	00008dfa 	.word	0x00008dfa
    6784:	00008e16 	.word	0x00008e16
    6788:	00008e29 	.word	0x00008e29
    678c:	00008e3f 	.word	0x00008e3f
    6790:	00008e53 	.word	0x00008e53
    6794:	00008e75 	.word	0x00008e75
    6798:	00008e86 	.word	0x00008e86
    679c:	00008ea0 	.word	0x00008ea0
    67a0:	000088cb 	.word	0x000088cb

000067a4 <strlen>:
    67a4:	4603      	mov	r3, r0
    67a6:	f813 2b01 	ldrb.w	r2, [r3], #1
    67aa:	2a00      	cmp	r2, #0
    67ac:	d1fb      	bne.n	67a6 <strlen+0x2>
    67ae:	1a18      	subs	r0, r3, r0
    67b0:	3801      	subs	r0, #1
    67b2:	4770      	bx	lr

000067b4 <strncmp>:
    67b4:	b570      	push	{r4, r5, r6, lr}
    67b6:	b18a      	cbz	r2, 67dc <strncmp+0x28>
    67b8:	460b      	mov	r3, r1
    67ba:	4605      	mov	r5, r0
    67bc:	781c      	ldrb	r4, [r3, #0]
    67be:	f810 6b01 	ldrb.w	r6, [r0], #1
    67c2:	3101      	adds	r1, #1
    67c4:	42b4      	cmp	r4, r6
    67c6:	d101      	bne.n	67cc <strncmp+0x18>
    67c8:	2a01      	cmp	r2, #1
    67ca:	d103      	bne.n	67d4 <strncmp+0x20>
    67cc:	7828      	ldrb	r0, [r5, #0]
    67ce:	781b      	ldrb	r3, [r3, #0]
    67d0:	1ac0      	subs	r0, r0, r3
    67d2:	bd70      	pop	{r4, r5, r6, pc}
    67d4:	3a01      	subs	r2, #1
    67d6:	2c00      	cmp	r4, #0
    67d8:	d1ee      	bne.n	67b8 <strncmp+0x4>
    67da:	e7f7      	b.n	67cc <strncmp+0x18>
    67dc:	4610      	mov	r0, r2
    67de:	bd70      	pop	{r4, r5, r6, pc}

000067e0 <__ssputs_r>:
    67e0:	e92d 47f0 	stmdb	sp!, {r4, r5, r6, r7, r8, r9, r10, lr}
    67e4:	688d      	ldr	r5, [r1, #8]
    67e6:	4681      	mov	r9, r0
    67e8:	42ab      	cmp	r3, r5
    67ea:	460c      	mov	r4, r1
    67ec:	4692      	mov	r10, r2
    67ee:	461f      	mov	r7, r3
    67f0:	d343      	bcc.n	687a <__ssputs_r+0x9a>
    67f2:	898b      	ldrh	r3, [r1, #12]
    67f4:	f413 6f90 	tst.w	r3, #1152	; 0x480
    67f8:	d03d      	beq.n	6876 <__ssputs_r+0x96>
    67fa:	6826      	ldr	r6, [r4, #0]
    67fc:	6909      	ldr	r1, [r1, #16]
    67fe:	2202      	movs	r2, #2
    6800:	ebc1 0806 	rsb	r8, r1, r6
    6804:	6966      	ldr	r6, [r4, #20]
    6806:	eb06 0646 	add.w	r6, r6, r6, lsl #1
    680a:	fb96 f6f2 	sdiv	r6, r6, r2
    680e:	f108 0201 	add.w	r2, r8, #1
    6812:	443a      	add	r2, r7
    6814:	4296      	cmp	r6, r2
    6816:	bf38      	it	cc
    6818:	4616      	movcc	r6, r2
    681a:	055b      	lsls	r3, r3, #21
    681c:	d50f      	bpl.n	683e <__ssputs_r+0x5e>
    681e:	4631      	mov	r1, r6
    6820:	f7ff fafc 	bl	5e1c <_malloc_r>
    6824:	4605      	mov	r5, r0
    6826:	b198      	cbz	r0, 6850 <__ssputs_r+0x70>
    6828:	6921      	ldr	r1, [r4, #16]
    682a:	4642      	mov	r2, r8
    682c:	f7ff faa0 	bl	5d70 <memcpy>
    6830:	89a3      	ldrh	r3, [r4, #12]
    6832:	f423 6390 	bic.w	r3, r3, #1152	; 0x480
    6836:	f043 0380 	orr.w	r3, r3, #128	; 0x80
    683a:	81a3      	strh	r3, [r4, #12]
    683c:	e013      	b.n	6866 <__ssputs_r+0x86>
    683e:	4632      	mov	r2, r6
    6840:	f001 f8d7 	bl	79f2 <_realloc_r>
    6844:	4605      	mov	r5, r0
    6846:	b970      	cbnz	r0, 6866 <__ssputs_r+0x86>
    6848:	4648      	mov	r0, r9
    684a:	6921      	ldr	r1, [r4, #16]
    684c:	f7ff faa2 	bl	5d94 <_free_r>
    6850:	230c      	movs	r3, #12
    6852:	f8c9 3000 	str.w	r3, [r9]
    6856:	89a3      	ldrh	r3, [r4, #12]
    6858:	f04f 30ff 	mov.w	r0, #4294967295	; 0xffffffff
    685c:	f043 0340 	orr.w	r3, r3, #64	; 0x40
    6860:	81a3      	strh	r3, [r4, #12]
    6862:	e8bd 87f0 	ldmia.w	sp!, {r4, r5, r6, r7, r8, r9, r10, pc}
    6866:	6125      	str	r5, [r4, #16]
    6868:	6166      	str	r6, [r4, #20]
    686a:	4445      	add	r5, r8
    686c:	ebc8 0606 	rsb	r6, r8, r6
    6870:	6025      	str	r5, [r4, #0]
    6872:	60a6      	str	r6, [r4, #8]
    6874:	463d      	mov	r5, r7
    6876:	42af      	cmp	r7, r5
    6878:	d200      	bcs.n	687c <__ssputs_r+0x9c>
    687a:	463d      	mov	r5, r7
    687c:	462a      	mov	r2, r5
    687e:	6820      	ldr	r0, [r4, #0]
    6880:	4651      	mov	r1, r10
    6882:	f001 f89b 	bl	79bc <memmove>
    6886:	68a3      	ldr	r3, [r4, #8]
    6888:	2000      	movs	r0, #0
    688a:	1b5b      	subs	r3, r3, r5
    688c:	60a3      	str	r3, [r4, #8]
    688e:	6823      	ldr	r3, [r4, #0]
    6890:	441d      	add	r5, r3
    6892:	6025      	str	r5, [r4, #0]
    6894:	e8bd 87f0 	ldmia.w	sp!, {r4, r5, r6, r7, r8, r9, r10, pc}

00006898 <_svfiprintf_r>:
    6898:	e92d 43f0 	stmdb	sp!, {r4, r5, r6, r7, r8, r9, lr}
    689c:	b09d      	sub	sp, #116	; 0x74
    689e:	9303      	str	r3, [sp, #12]
    68a0:	898b      	ldrh	r3, [r1, #12]
    68a2:	4607      	mov	r7, r0
    68a4:	061c      	lsls	r4, r3, #24
    68a6:	460d      	mov	r5, r1
    68a8:	4616      	mov	r6, r2
    68aa:	d50c      	bpl.n	68c6 <_svfiprintf_r+0x2e>
    68ac:	690b      	ldr	r3, [r1, #16]
    68ae:	b953      	cbnz	r3, 68c6 <_svfiprintf_r+0x2e>
    68b0:	2140      	movs	r1, #64	; 0x40
    68b2:	f7ff fab3 	bl	5e1c <_malloc_r>
    68b6:	6028      	str	r0, [r5, #0]
    68b8:	6128      	str	r0, [r5, #16]
    68ba:	b910      	cbnz	r0, 68c2 <_svfiprintf_r+0x2a>
    68bc:	230c      	movs	r3, #12
    68be:	603b      	str	r3, [r7, #0]
    68c0:	e0c7      	b.n	6a52 <_svfiprintf_r+0x1ba>
    68c2:	2340      	movs	r3, #64	; 0x40
    68c4:	616b      	str	r3, [r5, #20]
    68c6:	2300      	movs	r3, #0
    68c8:	9309      	str	r3, [sp, #36]	; 0x24
    68ca:	2320      	movs	r3, #32
    68cc:	f88d 3029 	strb.w	r3, [sp, #41]	; 0x29
    68d0:	2330      	movs	r3, #48	; 0x30
    68d2:	f88d 302a 	strb.w	r3, [sp, #42]	; 0x2a
    68d6:	4633      	mov	r3, r6
    68d8:	461c      	mov	r4, r3
    68da:	f813 2b01 	ldrb.w	r2, [r3], #1
    68de:	b91a      	cbnz	r2, 68e8 <_svfiprintf_r+0x50>
    68e0:	ebb4 0906 	subs.w	r9, r4, r6
    68e4:	d00f      	beq.n	6906 <_svfiprintf_r+0x6e>
    68e6:	e002      	b.n	68ee <_svfiprintf_r+0x56>
    68e8:	2a25      	cmp	r2, #37	; 0x25
    68ea:	d1f5      	bne.n	68d8 <_svfiprintf_r+0x40>
    68ec:	e7f8      	b.n	68e0 <_svfiprintf_r+0x48>
    68ee:	4638      	mov	r0, r7
    68f0:	4629      	mov	r1, r5
    68f2:	4632      	mov	r2, r6
    68f4:	464b      	mov	r3, r9
    68f6:	f7ff ff73 	bl	67e0 <__ssputs_r>
    68fa:	3001      	adds	r0, #1
    68fc:	f000 80a4 	beq.w	6a48 <_svfiprintf_r+0x1b0>
    6900:	9b09      	ldr	r3, [sp, #36]	; 0x24
    6902:	444b      	add	r3, r9
    6904:	9309      	str	r3, [sp, #36]	; 0x24
    6906:	7823      	ldrb	r3, [r4, #0]
    6908:	2b00      	cmp	r3, #0
    690a:	f000 809d 	beq.w	6a48 <_svfiprintf_r+0x1b0>
    690e:	2300      	movs	r3, #0
    6910:	f04f 32ff 	mov.w	r2, #4294967295	; 0xffffffff
    6914:	9304      	str	r3, [sp, #16]
    6916:	9307      	str	r3, [sp, #28]
    6918:	9205      	str	r2, [sp, #20]
    691a:	9306      	str	r3, [sp, #24]
    691c:	f88d 3053 	strb.w	r3, [sp, #83]	; 0x53
    6920:	931a      	str	r3, [sp, #104]	; 0x68
    6922:	f104 0901 	add.w	r9, r4, #1
    6926:	4e4d      	ldr	r6, [pc, #308]	; (6a5c <_svfiprintf_r+0x1c4>)
    6928:	464c      	mov	r4, r9
    692a:	4630      	mov	r0, r6
    692c:	7821      	ldrb	r1, [r4, #0]
    692e:	2205      	movs	r2, #5
    6930:	f7ff fa10 	bl	5d54 <memchr>
    6934:	f109 0901 	add.w	r9, r9, #1
    6938:	9b04      	ldr	r3, [sp, #16]
    693a:	b128      	cbz	r0, 6948 <_svfiprintf_r+0xb0>
    693c:	1b86      	subs	r6, r0, r6
    693e:	2001      	movs	r0, #1
    6940:	40b0      	lsls	r0, r6
    6942:	4303      	orrs	r3, r0
    6944:	9304      	str	r3, [sp, #16]
    6946:	e7ee      	b.n	6926 <_svfiprintf_r+0x8e>
    6948:	06d9      	lsls	r1, r3, #27
    694a:	bf44      	itt	mi
    694c:	2220      	movmi	r2, #32
    694e:	f88d 2053 	strbmi.w	r2, [sp, #83]	; 0x53
    6952:	071a      	lsls	r2, r3, #28
    6954:	bf44      	itt	mi
    6956:	222b      	movmi	r2, #43	; 0x2b
    6958:	f88d 2053 	strbmi.w	r2, [sp, #83]	; 0x53
    695c:	7822      	ldrb	r2, [r4, #0]
    695e:	2a2a      	cmp	r2, #42	; 0x2a
    6960:	d002      	beq.n	6968 <_svfiprintf_r+0xd0>
    6962:	9b07      	ldr	r3, [sp, #28]
    6964:	4621      	mov	r1, r4
    6966:	e00e      	b.n	6986 <_svfiprintf_r+0xee>
    6968:	9a03      	ldr	r2, [sp, #12]
    696a:	1d11      	adds	r1, r2, #4
    696c:	6812      	ldr	r2, [r2, #0]
    696e:	9103      	str	r1, [sp, #12]
    6970:	2a00      	cmp	r2, #0
    6972:	db01      	blt.n	6978 <_svfiprintf_r+0xe0>
    6974:	9207      	str	r2, [sp, #28]
    6976:	e004      	b.n	6982 <_svfiprintf_r+0xea>
    6978:	4252      	negs	r2, r2
    697a:	f043 0302 	orr.w	r3, r3, #2
    697e:	9207      	str	r2, [sp, #28]
    6980:	9304      	str	r3, [sp, #16]
    6982:	3401      	adds	r4, #1
    6984:	e00a      	b.n	699c <_svfiprintf_r+0x104>
    6986:	460c      	mov	r4, r1
    6988:	7822      	ldrb	r2, [r4, #0]
    698a:	3101      	adds	r1, #1
    698c:	3a30      	subs	r2, #48	; 0x30
    698e:	2a09      	cmp	r2, #9
    6990:	d803      	bhi.n	699a <_svfiprintf_r+0x102>
    6992:	200a      	movs	r0, #10
    6994:	fb00 2303 	mla	r3, r0, r3, r2
    6998:	e7f5      	b.n	6986 <_svfiprintf_r+0xee>
    699a:	9307      	str	r3, [sp, #28]
    699c:	7823      	ldrb	r3, [r4, #0]
    699e:	2b2e      	cmp	r3, #46	; 0x2e
    69a0:	d119      	bne.n	69d6 <_svfiprintf_r+0x13e>
    69a2:	7863      	ldrb	r3, [r4, #1]
    69a4:	2b2a      	cmp	r3, #42	; 0x2a
    69a6:	d109      	bne.n	69bc <_svfiprintf_r+0x124>
    69a8:	9b03      	ldr	r3, [sp, #12]
    69aa:	3402      	adds	r4, #2
    69ac:	1d1a      	adds	r2, r3, #4
    69ae:	681b      	ldr	r3, [r3, #0]
    69b0:	9203      	str	r2, [sp, #12]
    69b2:	2b00      	cmp	r3, #0
    69b4:	bfb8      	it	lt
    69b6:	f04f 33ff 	movlt.w	r3, #4294967295	; 0xffffffff
    69ba:	e00b      	b.n	69d4 <_svfiprintf_r+0x13c>
    69bc:	1c61      	adds	r1, r4, #1
    69be:	2300      	movs	r3, #0
    69c0:	460c      	mov	r4, r1
    69c2:	7822      	ldrb	r2, [r4, #0]
    69c4:	3101      	adds	r1, #1
    69c6:	3a30      	subs	r2, #48	; 0x30
    69c8:	2a09      	cmp	r2, #9
    69ca:	d803      	bhi.n	69d4 <_svfiprintf_r+0x13c>
    69cc:	200a      	movs	r0, #10
    69ce:	fb00 2303 	mla	r3, r0, r3, r2
    69d2:	e7f5      	b.n	69c0 <_svfiprintf_r+0x128>
    69d4:	9305      	str	r3, [sp, #20]
    69d6:	4e22      	ldr	r6, [pc, #136]	; (6a60 <_svfiprintf_r+0x1c8>)
    69d8:	7821      	ldrb	r1, [r4, #0]
    69da:	4630      	mov	r0, r6
    69dc:	2203      	movs	r2, #3
    69de:	f7ff f9b9 	bl	5d54 <memchr>
    69e2:	b130      	cbz	r0, 69f2 <_svfiprintf_r+0x15a>
    69e4:	1b86      	subs	r6, r0, r6
    69e6:	2040      	movs	r0, #64	; 0x40
    69e8:	40b0      	lsls	r0, r6
    69ea:	9b04      	ldr	r3, [sp, #16]
    69ec:	3401      	adds	r4, #1
    69ee:	4303      	orrs	r3, r0
    69f0:	9304      	str	r3, [sp, #16]
    69f2:	7821      	ldrb	r1, [r4, #0]
    69f4:	481b      	ldr	r0, [pc, #108]	; (6a64 <_svfiprintf_r+0x1cc>)
    69f6:	2206      	movs	r2, #6
    69f8:	1c66      	adds	r6, r4, #1
    69fa:	f88d 1028 	strb.w	r1, [sp, #40]	; 0x28
    69fe:	f7ff f9a9 	bl	5d54 <memchr>
    6a02:	b188      	cbz	r0, 6a28 <_svfiprintf_r+0x190>
    6a04:	4b18      	ldr	r3, [pc, #96]	; (6a68 <_svfiprintf_r+0x1d0>)
    6a06:	b933      	cbnz	r3, 6a16 <_svfiprintf_r+0x17e>
    6a08:	9b03      	ldr	r3, [sp, #12]
    6a0a:	3307      	adds	r3, #7
    6a0c:	f023 0307 	bic.w	r3, r3, #7
    6a10:	3308      	adds	r3, #8
    6a12:	9303      	str	r3, [sp, #12]
    6a14:	e014      	b.n	6a40 <_svfiprintf_r+0x1a8>
    6a16:	ab03      	add	r3, sp, #12
    6a18:	9300      	str	r3, [sp, #0]
    6a1a:	4638      	mov	r0, r7
    6a1c:	a904      	add	r1, sp, #16
    6a1e:	462a      	mov	r2, r5
    6a20:	4b12      	ldr	r3, [pc, #72]	; (6a6c <_svfiprintf_r+0x1d4>)
    6a22:	f3af 8000 	nop.w
    6a26:	e007      	b.n	6a38 <_svfiprintf_r+0x1a0>
    6a28:	ab03      	add	r3, sp, #12
    6a2a:	9300      	str	r3, [sp, #0]
    6a2c:	4638      	mov	r0, r7
    6a2e:	a904      	add	r1, sp, #16
    6a30:	462a      	mov	r2, r5
    6a32:	4b0e      	ldr	r3, [pc, #56]	; (6a6c <_svfiprintf_r+0x1d4>)
    6a34:	f000 fbac 	bl	7190 <_printf_i>
    6a38:	f1b0 3fff 	cmp.w	r0, #4294967295	; 0xffffffff
    6a3c:	4680      	mov	r8, r0
    6a3e:	d003      	beq.n	6a48 <_svfiprintf_r+0x1b0>
    6a40:	9b09      	ldr	r3, [sp, #36]	; 0x24
    6a42:	4443      	add	r3, r8
    6a44:	9309      	str	r3, [sp, #36]	; 0x24
    6a46:	e746      	b.n	68d6 <_svfiprintf_r+0x3e>
    6a48:	89ab      	ldrh	r3, [r5, #12]
    6a4a:	065b      	lsls	r3, r3, #25
    6a4c:	d401      	bmi.n	6a52 <_svfiprintf_r+0x1ba>
    6a4e:	9809      	ldr	r0, [sp, #36]	; 0x24
    6a50:	e001      	b.n	6a56 <_svfiprintf_r+0x1be>
    6a52:	f04f 30ff 	mov.w	r0, #4294967295	; 0xffffffff
    6a56:	b01d      	add	sp, #116	; 0x74
    6a58:	e8bd 83f0 	ldmia.w	sp!, {r4, r5, r6, r7, r8, r9, pc}
    6a5c:	00008e9b 	.word	0x00008e9b
    6a60:	00008ea1 	.word	0x00008ea1
    6a64:	00008ea5 	.word	0x00008ea5
    6a68:	00000000 	.word	0x00000000
    6a6c:	000067e1 	.word	0x000067e1

00006a70 <_sungetc_r>:
    6a70:	b538      	push	{r3, r4, r5, lr}
    6a72:	1c4b      	adds	r3, r1, #1
    6a74:	4614      	mov	r4, r2
    6a76:	d102      	bne.n	6a7e <_sungetc_r+0xe>
    6a78:	f04f 30ff 	mov.w	r0, #4294967295	; 0xffffffff
    6a7c:	bd38      	pop	{r3, r4, r5, pc}
    6a7e:	8993      	ldrh	r3, [r2, #12]
    6a80:	b2cd      	uxtb	r5, r1
    6a82:	f023 0320 	bic.w	r3, r3, #32
    6a86:	8193      	strh	r3, [r2, #12]
    6a88:	6b53      	ldr	r3, [r2, #52]	; 0x34
    6a8a:	6852      	ldr	r2, [r2, #4]
    6a8c:	b183      	cbz	r3, 6ab0 <_sungetc_r+0x40>
    6a8e:	6ba3      	ldr	r3, [r4, #56]	; 0x38
    6a90:	429a      	cmp	r2, r3
    6a92:	da07      	bge.n	6aa4 <_sungetc_r+0x34>
    6a94:	6823      	ldr	r3, [r4, #0]
    6a96:	1e5a      	subs	r2, r3, #1
    6a98:	6022      	str	r2, [r4, #0]
    6a9a:	f803 5c01 	strb.w	r5, [r3, #-1]
    6a9e:	6863      	ldr	r3, [r4, #4]
    6aa0:	3301      	adds	r3, #1
    6aa2:	e01f      	b.n	6ae4 <_sungetc_r+0x74>
    6aa4:	4621      	mov	r1, r4
    6aa6:	f000 f98d 	bl	6dc4 <__submore>
    6aaa:	2800      	cmp	r0, #0
    6aac:	d0f2      	beq.n	6a94 <_sungetc_r+0x24>
    6aae:	e7e3      	b.n	6a78 <_sungetc_r+0x8>
    6ab0:	6921      	ldr	r1, [r4, #16]
    6ab2:	6823      	ldr	r3, [r4, #0]
    6ab4:	b151      	cbz	r1, 6acc <_sungetc_r+0x5c>
    6ab6:	428b      	cmp	r3, r1
    6ab8:	d908      	bls.n	6acc <_sungetc_r+0x5c>
    6aba:	f813 0c01 	ldrb.w	r0, [r3, #-1]
    6abe:	42a8      	cmp	r0, r5
    6ac0:	d104      	bne.n	6acc <_sungetc_r+0x5c>
    6ac2:	3b01      	subs	r3, #1
    6ac4:	3201      	adds	r2, #1
    6ac6:	6023      	str	r3, [r4, #0]
    6ac8:	6062      	str	r2, [r4, #4]
    6aca:	bd38      	pop	{r3, r4, r5, pc}
    6acc:	63e3      	str	r3, [r4, #60]	; 0x3c
    6ace:	f104 0344 	add.w	r3, r4, #68	; 0x44
    6ad2:	6363      	str	r3, [r4, #52]	; 0x34
    6ad4:	2303      	movs	r3, #3
    6ad6:	63a3      	str	r3, [r4, #56]	; 0x38
    6ad8:	4623      	mov	r3, r4
    6ada:	6422      	str	r2, [r4, #64]	; 0x40
    6adc:	f803 5f46 	strb.w	r5, [r3, #70]!
    6ae0:	6023      	str	r3, [r4, #0]
    6ae2:	2301      	movs	r3, #1
    6ae4:	6063      	str	r3, [r4, #4]
    6ae6:	4628      	mov	r0, r5
    6ae8:	bd38      	pop	{r3, r4, r5, pc}

00006aea <__ssrefill_r>:
    6aea:	b510      	push	{r4, lr}
    6aec:	460c      	mov	r4, r1
    6aee:	6b49      	ldr	r1, [r1, #52]	; 0x34
    6af0:	b169      	cbz	r1, 6b0e <__ssrefill_r+0x24>
    6af2:	f104 0344 	add.w	r3, r4, #68	; 0x44
    6af6:	4299      	cmp	r1, r3
    6af8:	d001      	beq.n	6afe <__ssrefill_r+0x14>
    6afa:	f7ff f94b 	bl	5d94 <_free_r>
    6afe:	6c23      	ldr	r3, [r4, #64]	; 0x40
    6b00:	2000      	movs	r0, #0
    6b02:	6360      	str	r0, [r4, #52]	; 0x34
    6b04:	6063      	str	r3, [r4, #4]
    6b06:	b113      	cbz	r3, 6b0e <__ssrefill_r+0x24>
    6b08:	6be3      	ldr	r3, [r4, #60]	; 0x3c
    6b0a:	6023      	str	r3, [r4, #0]
    6b0c:	bd10      	pop	{r4, pc}
    6b0e:	6923      	ldr	r3, [r4, #16]
    6b10:	f04f 30ff 	mov.w	r0, #4294967295	; 0xffffffff
    6b14:	6023      	str	r3, [r4, #0]
    6b16:	2300      	movs	r3, #0
    6b18:	6063      	str	r3, [r4, #4]
    6b1a:	89a3      	ldrh	r3, [r4, #12]
    6b1c:	f043 0320 	orr.w	r3, r3, #32
    6b20:	81a3      	strh	r3, [r4, #12]
    6b22:	bd10      	pop	{r4, pc}

00006b24 <__ssvfiscanf_r>:
    6b24:	e92d 47f0 	stmdb	sp!, {r4, r5, r6, r7, r8, r9, r10, lr}
    6b28:	f5ad 7d24 	sub.w	sp, sp, #656	; 0x290
    6b2c:	9301      	str	r3, [sp, #4]
    6b2e:	2300      	movs	r3, #0
    6b30:	9346      	str	r3, [sp, #280]	; 0x118
    6b32:	9347      	str	r3, [sp, #284]	; 0x11c
    6b34:	4b9d      	ldr	r3, [pc, #628]	; (6dac <__ssvfiscanf_r+0x288>)
    6b36:	f10d 090c 	add.w	r9, sp, #12
    6b3a:	93a2      	str	r3, [sp, #648]	; 0x288
    6b3c:	4b9c      	ldr	r3, [pc, #624]	; (6db0 <__ssvfiscanf_r+0x28c>)
    6b3e:	4607      	mov	r7, r0
    6b40:	460c      	mov	r4, r1
    6b42:	4690      	mov	r8, r2
    6b44:	f8cd 9120 	str.w	r9, [sp, #288]	; 0x120
    6b48:	93a3      	str	r3, [sp, #652]	; 0x28c
    6b4a:	f898 5000 	ldrb.w	r5, [r8]
    6b4e:	2d00      	cmp	r5, #0
    6b50:	f000 8124 	beq.w	6d9c <__ssvfiscanf_r+0x278>
    6b54:	4997      	ldr	r1, [pc, #604]	; (6db4 <__ssvfiscanf_r+0x290>)
    6b56:	680b      	ldr	r3, [r1, #0]
    6b58:	468a      	mov	r10, r1
    6b5a:	442b      	add	r3, r5
    6b5c:	785a      	ldrb	r2, [r3, #1]
    6b5e:	f002 0208 	and.w	r2, r2, #8
    6b62:	f002 03ff 	and.w	r3, r2, #255	; 0xff
    6b66:	b1ea      	cbz	r2, 6ba4 <__ssvfiscanf_r+0x80>
    6b68:	6863      	ldr	r3, [r4, #4]
    6b6a:	2b00      	cmp	r3, #0
    6b6c:	dd10      	ble.n	6b90 <__ssvfiscanf_r+0x6c>
    6b6e:	6823      	ldr	r3, [r4, #0]
    6b70:	f8da 2000 	ldr.w	r2, [r10]
    6b74:	7819      	ldrb	r1, [r3, #0]
    6b76:	440a      	add	r2, r1
    6b78:	7852      	ldrb	r2, [r2, #1]
    6b7a:	0715      	lsls	r5, r2, #28
    6b7c:	d50e      	bpl.n	6b9c <__ssvfiscanf_r+0x78>
    6b7e:	9a47      	ldr	r2, [sp, #284]	; 0x11c
    6b80:	3301      	adds	r3, #1
    6b82:	3201      	adds	r2, #1
    6b84:	9247      	str	r2, [sp, #284]	; 0x11c
    6b86:	6862      	ldr	r2, [r4, #4]
    6b88:	6023      	str	r3, [r4, #0]
    6b8a:	3a01      	subs	r2, #1
    6b8c:	6062      	str	r2, [r4, #4]
    6b8e:	e7eb      	b.n	6b68 <__ssvfiscanf_r+0x44>
    6b90:	9ba3      	ldr	r3, [sp, #652]	; 0x28c
    6b92:	4638      	mov	r0, r7
    6b94:	4621      	mov	r1, r4
    6b96:	4798      	blx	r3
    6b98:	2800      	cmp	r0, #0
    6b9a:	d0e8      	beq.n	6b6e <__ssvfiscanf_r+0x4a>
    6b9c:	f108 0601 	add.w	r6, r8, #1
    6ba0:	46b0      	mov	r8, r6
    6ba2:	e7d2      	b.n	6b4a <__ssvfiscanf_r+0x26>
    6ba4:	2d25      	cmp	r5, #37	; 0x25
    6ba6:	f108 0601 	add.w	r6, r8, #1
    6baa:	d14f      	bne.n	6c4c <__ssvfiscanf_r+0x128>
    6bac:	9345      	str	r3, [sp, #276]	; 0x114
    6bae:	9343      	str	r3, [sp, #268]	; 0x10c
    6bb0:	f898 3001 	ldrb.w	r3, [r8, #1]
    6bb4:	2b2a      	cmp	r3, #42	; 0x2a
    6bb6:	d103      	bne.n	6bc0 <__ssvfiscanf_r+0x9c>
    6bb8:	2310      	movs	r3, #16
    6bba:	9343      	str	r3, [sp, #268]	; 0x10c
    6bbc:	f108 0602 	add.w	r6, r8, #2
    6bc0:	7831      	ldrb	r1, [r6, #0]
    6bc2:	4635      	mov	r5, r6
    6bc4:	f1a1 0330 	sub.w	r3, r1, #48	; 0x30
    6bc8:	2b09      	cmp	r3, #9
    6bca:	f106 0601 	add.w	r6, r6, #1
    6bce:	d806      	bhi.n	6bde <__ssvfiscanf_r+0xba>
    6bd0:	9b45      	ldr	r3, [sp, #276]	; 0x114
    6bd2:	220a      	movs	r2, #10
    6bd4:	fb02 1303 	mla	r3, r2, r3, r1
    6bd8:	3b30      	subs	r3, #48	; 0x30
    6bda:	9345      	str	r3, [sp, #276]	; 0x114
    6bdc:	e7f0      	b.n	6bc0 <__ssvfiscanf_r+0x9c>
    6bde:	f8df 81dc 	ldr.w	r8, [pc, #476]	; 6dbc <__ssvfiscanf_r+0x298>
    6be2:	2203      	movs	r2, #3
    6be4:	4640      	mov	r0, r8
    6be6:	f7ff f8b5 	bl	5d54 <memchr>
    6bea:	b140      	cbz	r0, 6bfe <__ssvfiscanf_r+0xda>
    6bec:	ebc8 0800 	rsb	r8, r8, r0
    6bf0:	2001      	movs	r0, #1
    6bf2:	fa00 f008 	lsl.w	r0, r0, r8
    6bf6:	9b43      	ldr	r3, [sp, #268]	; 0x10c
    6bf8:	4635      	mov	r5, r6
    6bfa:	4303      	orrs	r3, r0
    6bfc:	9343      	str	r3, [sp, #268]	; 0x10c
    6bfe:	1c6e      	adds	r6, r5, #1
    6c00:	782d      	ldrb	r5, [r5, #0]
    6c02:	2d67      	cmp	r5, #103	; 0x67
    6c04:	d80f      	bhi.n	6c26 <__ssvfiscanf_r+0x102>
    6c06:	2d65      	cmp	r5, #101	; 0x65
    6c08:	d278      	bcs.n	6cfc <__ssvfiscanf_r+0x1d8>
    6c0a:	2d5b      	cmp	r5, #91	; 0x5b
    6c0c:	d054      	beq.n	6cb8 <__ssvfiscanf_r+0x194>
    6c0e:	d805      	bhi.n	6c1c <__ssvfiscanf_r+0xf8>
    6c10:	2d00      	cmp	r5, #0
    6c12:	f000 80c5 	beq.w	6da0 <__ssvfiscanf_r+0x27c>
    6c16:	2d25      	cmp	r5, #37	; 0x25
    6c18:	d018      	beq.n	6c4c <__ssvfiscanf_r+0x128>
    6c1a:	e071      	b.n	6d00 <__ssvfiscanf_r+0x1dc>
    6c1c:	2d63      	cmp	r5, #99	; 0x63
    6c1e:	d057      	beq.n	6cd0 <__ssvfiscanf_r+0x1ac>
    6c20:	2d64      	cmp	r5, #100	; 0x64
    6c22:	d03f      	beq.n	6ca4 <__ssvfiscanf_r+0x180>
    6c24:	e06c      	b.n	6d00 <__ssvfiscanf_r+0x1dc>
    6c26:	2d70      	cmp	r5, #112	; 0x70
    6c28:	d032      	beq.n	6c90 <__ssvfiscanf_r+0x16c>
    6c2a:	d807      	bhi.n	6c3c <__ssvfiscanf_r+0x118>
    6c2c:	2d6e      	cmp	r5, #110	; 0x6e
    6c2e:	d055      	beq.n	6cdc <__ssvfiscanf_r+0x1b8>
    6c30:	d83a      	bhi.n	6ca8 <__ssvfiscanf_r+0x184>
    6c32:	2d69      	cmp	r5, #105	; 0x69
    6c34:	d164      	bne.n	6d00 <__ssvfiscanf_r+0x1dc>
    6c36:	2300      	movs	r3, #0
    6c38:	9344      	str	r3, [sp, #272]	; 0x110
    6c3a:	e039      	b.n	6cb0 <__ssvfiscanf_r+0x18c>
    6c3c:	2d75      	cmp	r5, #117	; 0x75
    6c3e:	d031      	beq.n	6ca4 <__ssvfiscanf_r+0x180>
    6c40:	2d78      	cmp	r5, #120	; 0x78
    6c42:	d029      	beq.n	6c98 <__ssvfiscanf_r+0x174>
    6c44:	2d73      	cmp	r5, #115	; 0x73
    6c46:	d15b      	bne.n	6d00 <__ssvfiscanf_r+0x1dc>
    6c48:	2302      	movs	r3, #2
    6c4a:	e03f      	b.n	6ccc <__ssvfiscanf_r+0x1a8>
    6c4c:	6863      	ldr	r3, [r4, #4]
    6c4e:	2b00      	cmp	r3, #0
    6c50:	dd0d      	ble.n	6c6e <__ssvfiscanf_r+0x14a>
    6c52:	6823      	ldr	r3, [r4, #0]
    6c54:	781a      	ldrb	r2, [r3, #0]
    6c56:	42aa      	cmp	r2, r5
    6c58:	f040 80a0 	bne.w	6d9c <__ssvfiscanf_r+0x278>
    6c5c:	3301      	adds	r3, #1
    6c5e:	6862      	ldr	r2, [r4, #4]
    6c60:	6023      	str	r3, [r4, #0]
    6c62:	9b47      	ldr	r3, [sp, #284]	; 0x11c
    6c64:	3a01      	subs	r2, #1
    6c66:	3301      	adds	r3, #1
    6c68:	6062      	str	r2, [r4, #4]
    6c6a:	9347      	str	r3, [sp, #284]	; 0x11c
    6c6c:	e798      	b.n	6ba0 <__ssvfiscanf_r+0x7c>
    6c6e:	9ba3      	ldr	r3, [sp, #652]	; 0x28c
    6c70:	4638      	mov	r0, r7
    6c72:	4621      	mov	r1, r4
    6c74:	4798      	blx	r3
    6c76:	2800      	cmp	r0, #0
    6c78:	d0eb      	beq.n	6c52 <__ssvfiscanf_r+0x12e>
    6c7a:	9846      	ldr	r0, [sp, #280]	; 0x118
    6c7c:	2800      	cmp	r0, #0
    6c7e:	f000 808f 	beq.w	6da0 <__ssvfiscanf_r+0x27c>
    6c82:	89a3      	ldrh	r3, [r4, #12]
    6c84:	f013 0f40 	tst.w	r3, #64	; 0x40
    6c88:	bf18      	it	ne
    6c8a:	f04f 30ff 	movne.w	r0, #4294967295	; 0xffffffff
    6c8e:	e089      	b.n	6da4 <__ssvfiscanf_r+0x280>
    6c90:	9b43      	ldr	r3, [sp, #268]	; 0x10c
    6c92:	f043 0320 	orr.w	r3, r3, #32
    6c96:	9343      	str	r3, [sp, #268]	; 0x10c
    6c98:	9b43      	ldr	r3, [sp, #268]	; 0x10c
    6c9a:	f443 7300 	orr.w	r3, r3, #512	; 0x200
    6c9e:	9343      	str	r3, [sp, #268]	; 0x10c
    6ca0:	2310      	movs	r3, #16
    6ca2:	e002      	b.n	6caa <__ssvfiscanf_r+0x186>
    6ca4:	230a      	movs	r3, #10
    6ca6:	e000      	b.n	6caa <__ssvfiscanf_r+0x186>
    6ca8:	2308      	movs	r3, #8
    6caa:	2d6e      	cmp	r5, #110	; 0x6e
    6cac:	9344      	str	r3, [sp, #272]	; 0x110
    6cae:	dc01      	bgt.n	6cb4 <__ssvfiscanf_r+0x190>
    6cb0:	2303      	movs	r3, #3
    6cb2:	e00b      	b.n	6ccc <__ssvfiscanf_r+0x1a8>
    6cb4:	2304      	movs	r3, #4
    6cb6:	e009      	b.n	6ccc <__ssvfiscanf_r+0x1a8>
    6cb8:	4631      	mov	r1, r6
    6cba:	4648      	mov	r0, r9
    6cbc:	f000 fed2 	bl	7a64 <__sccl>
    6cc0:	9b43      	ldr	r3, [sp, #268]	; 0x10c
    6cc2:	4606      	mov	r6, r0
    6cc4:	f043 0340 	orr.w	r3, r3, #64	; 0x40
    6cc8:	9343      	str	r3, [sp, #268]	; 0x10c
    6cca:	2301      	movs	r3, #1
    6ccc:	9349      	str	r3, [sp, #292]	; 0x124
    6cce:	e01b      	b.n	6d08 <__ssvfiscanf_r+0x1e4>
    6cd0:	9b43      	ldr	r3, [sp, #268]	; 0x10c
    6cd2:	f043 0340 	orr.w	r3, r3, #64	; 0x40
    6cd6:	9343      	str	r3, [sp, #268]	; 0x10c
    6cd8:	2300      	movs	r3, #0
    6cda:	e7f7      	b.n	6ccc <__ssvfiscanf_r+0x1a8>
    6cdc:	9a43      	ldr	r2, [sp, #268]	; 0x10c
    6cde:	06d0      	lsls	r0, r2, #27
    6ce0:	f53f af5e 	bmi.w	6ba0 <__ssvfiscanf_r+0x7c>
    6ce4:	f012 0f01 	tst.w	r2, #1
    6ce8:	9a01      	ldr	r2, [sp, #4]
    6cea:	9b47      	ldr	r3, [sp, #284]	; 0x11c
    6cec:	f102 0104 	add.w	r1, r2, #4
    6cf0:	9101      	str	r1, [sp, #4]
    6cf2:	6812      	ldr	r2, [r2, #0]
    6cf4:	bf14      	ite	ne
    6cf6:	8013      	strhne	r3, [r2, #0]
    6cf8:	6013      	streq	r3, [r2, #0]
    6cfa:	e751      	b.n	6ba0 <__ssvfiscanf_r+0x7c>
    6cfc:	2305      	movs	r3, #5
    6cfe:	e7e5      	b.n	6ccc <__ssvfiscanf_r+0x1a8>
    6d00:	2303      	movs	r3, #3
    6d02:	9349      	str	r3, [sp, #292]	; 0x124
    6d04:	230a      	movs	r3, #10
    6d06:	9344      	str	r3, [sp, #272]	; 0x110
    6d08:	6863      	ldr	r3, [r4, #4]
    6d0a:	2b00      	cmp	r3, #0
    6d0c:	dd03      	ble.n	6d16 <__ssvfiscanf_r+0x1f2>
    6d0e:	9b43      	ldr	r3, [sp, #268]	; 0x10c
    6d10:	0659      	lsls	r1, r3, #25
    6d12:	d511      	bpl.n	6d38 <__ssvfiscanf_r+0x214>
    6d14:	e018      	b.n	6d48 <__ssvfiscanf_r+0x224>
    6d16:	9ba3      	ldr	r3, [sp, #652]	; 0x28c
    6d18:	4638      	mov	r0, r7
    6d1a:	4621      	mov	r1, r4
    6d1c:	4798      	blx	r3
    6d1e:	2800      	cmp	r0, #0
    6d20:	d0f5      	beq.n	6d0e <__ssvfiscanf_r+0x1ea>
    6d22:	e7aa      	b.n	6c7a <__ssvfiscanf_r+0x156>
    6d24:	9a47      	ldr	r2, [sp, #284]	; 0x11c
    6d26:	3201      	adds	r2, #1
    6d28:	9247      	str	r2, [sp, #284]	; 0x11c
    6d2a:	6862      	ldr	r2, [r4, #4]
    6d2c:	3a01      	subs	r2, #1
    6d2e:	2a00      	cmp	r2, #0
    6d30:	6062      	str	r2, [r4, #4]
    6d32:	dd13      	ble.n	6d5c <__ssvfiscanf_r+0x238>
    6d34:	3301      	adds	r3, #1
    6d36:	6023      	str	r3, [r4, #0]
    6d38:	6823      	ldr	r3, [r4, #0]
    6d3a:	f8da 2000 	ldr.w	r2, [r10]
    6d3e:	7819      	ldrb	r1, [r3, #0]
    6d40:	440a      	add	r2, r1
    6d42:	7852      	ldrb	r2, [r2, #1]
    6d44:	0712      	lsls	r2, r2, #28
    6d46:	d4ed      	bmi.n	6d24 <__ssvfiscanf_r+0x200>
    6d48:	9b49      	ldr	r3, [sp, #292]	; 0x124
    6d4a:	2b02      	cmp	r3, #2
    6d4c:	dc0d      	bgt.n	6d6a <__ssvfiscanf_r+0x246>
    6d4e:	4638      	mov	r0, r7
    6d50:	a943      	add	r1, sp, #268	; 0x10c
    6d52:	4622      	mov	r2, r4
    6d54:	ab01      	add	r3, sp, #4
    6d56:	f000 fb2f 	bl	73b8 <_scanf_chars>
    6d5a:	e019      	b.n	6d90 <__ssvfiscanf_r+0x26c>
    6d5c:	9ba3      	ldr	r3, [sp, #652]	; 0x28c
    6d5e:	4638      	mov	r0, r7
    6d60:	4621      	mov	r1, r4
    6d62:	4798      	blx	r3
    6d64:	2800      	cmp	r0, #0
    6d66:	d0e7      	beq.n	6d38 <__ssvfiscanf_r+0x214>
    6d68:	e787      	b.n	6c7a <__ssvfiscanf_r+0x156>
    6d6a:	2b04      	cmp	r3, #4
    6d6c:	dc06      	bgt.n	6d7c <__ssvfiscanf_r+0x258>
    6d6e:	4638      	mov	r0, r7
    6d70:	a943      	add	r1, sp, #268	; 0x10c
    6d72:	4622      	mov	r2, r4
    6d74:	ab01      	add	r3, sp, #4
    6d76:	f000 fb7f 	bl	7478 <_scanf_i>
    6d7a:	e009      	b.n	6d90 <__ssvfiscanf_r+0x26c>
    6d7c:	4b0e      	ldr	r3, [pc, #56]	; (6db8 <__ssvfiscanf_r+0x294>)
    6d7e:	2b00      	cmp	r3, #0
    6d80:	f43f af0e 	beq.w	6ba0 <__ssvfiscanf_r+0x7c>
    6d84:	4638      	mov	r0, r7
    6d86:	a943      	add	r1, sp, #268	; 0x10c
    6d88:	4622      	mov	r2, r4
    6d8a:	ab01      	add	r3, sp, #4
    6d8c:	f3af 8000 	nop.w
    6d90:	2801      	cmp	r0, #1
    6d92:	d003      	beq.n	6d9c <__ssvfiscanf_r+0x278>
    6d94:	2802      	cmp	r0, #2
    6d96:	f47f af03 	bne.w	6ba0 <__ssvfiscanf_r+0x7c>
    6d9a:	e76e      	b.n	6c7a <__ssvfiscanf_r+0x156>
    6d9c:	9846      	ldr	r0, [sp, #280]	; 0x118
    6d9e:	e001      	b.n	6da4 <__ssvfiscanf_r+0x280>
    6da0:	f04f 30ff 	mov.w	r0, #4294967295	; 0xffffffff
    6da4:	f50d 7d24 	add.w	sp, sp, #656	; 0x290
    6da8:	e8bd 87f0 	ldmia.w	sp!, {r4, r5, r6, r7, r8, r9, r10, pc}
    6dac:	00006a71 	.word	0x00006a71
    6db0:	00006aeb 	.word	0x00006aeb
    6db4:	100001bc 	.word	0x100001bc
    6db8:	00000000 	.word	0x00000000
    6dbc:	00008ea1 	.word	0x00008ea1

00006dc0 <_user_strerror>:
    6dc0:	2000      	movs	r0, #0
    6dc2:	4770      	bx	lr

00006dc4 <__submore>:
    6dc4:	e92d 41f0 	stmdb	sp!, {r4, r5, r6, r7, r8, lr}
    6dc8:	460c      	mov	r4, r1
    6dca:	6b49      	ldr	r1, [r1, #52]	; 0x34
    6dcc:	f104 0344 	add.w	r3, r4, #68	; 0x44
    6dd0:	4299      	cmp	r1, r3
    6dd2:	d11a      	bne.n	6e0a <__submore+0x46>
    6dd4:	f44f 6180 	mov.w	r1, #1024	; 0x400
    6dd8:	f7ff f820 	bl	5e1c <_malloc_r>
    6ddc:	b918      	cbnz	r0, 6de6 <__submore+0x22>
    6dde:	f04f 30ff 	mov.w	r0, #4294967295	; 0xffffffff
    6de2:	e8bd 81f0 	ldmia.w	sp!, {r4, r5, r6, r7, r8, pc}
    6de6:	f44f 6380 	mov.w	r3, #1024	; 0x400
    6dea:	63a3      	str	r3, [r4, #56]	; 0x38
    6dec:	f894 3046 	ldrb.w	r3, [r4, #70]	; 0x46
    6df0:	6360      	str	r0, [r4, #52]	; 0x34
    6df2:	f880 33ff 	strb.w	r3, [r0, #1023]	; 0x3ff
    6df6:	f894 3045 	ldrb.w	r3, [r4, #69]	; 0x45
    6dfa:	f200 30fd 	addw	r0, r0, #1021	; 0x3fd
    6dfe:	7043      	strb	r3, [r0, #1]
    6e00:	f894 3044 	ldrb.w	r3, [r4, #68]	; 0x44
    6e04:	7003      	strb	r3, [r0, #0]
    6e06:	6020      	str	r0, [r4, #0]
    6e08:	e012      	b.n	6e30 <__submore+0x6c>
    6e0a:	6ba6      	ldr	r6, [r4, #56]	; 0x38
    6e0c:	0077      	lsls	r7, r6, #1
    6e0e:	463a      	mov	r2, r7
    6e10:	f000 fdef 	bl	79f2 <_realloc_r>
    6e14:	4605      	mov	r5, r0
    6e16:	2800      	cmp	r0, #0
    6e18:	d0e1      	beq.n	6dde <__submore+0x1a>
    6e1a:	eb00 0806 	add.w	r8, r0, r6
    6e1e:	4640      	mov	r0, r8
    6e20:	4629      	mov	r1, r5
    6e22:	4632      	mov	r2, r6
    6e24:	f7fe ffa4 	bl	5d70 <memcpy>
    6e28:	f8c4 8000 	str.w	r8, [r4]
    6e2c:	6365      	str	r5, [r4, #52]	; 0x34
    6e2e:	63a7      	str	r7, [r4, #56]	; 0x38
    6e30:	2000      	movs	r0, #0
    6e32:	e8bd 81f0 	ldmia.w	sp!, {r4, r5, r6, r7, r8, pc}

00006e36 <__sfputc_r>:
    6e36:	6893      	ldr	r3, [r2, #8]
    6e38:	b510      	push	{r4, lr}
    6e3a:	3b01      	subs	r3, #1
    6e3c:	2b00      	cmp	r3, #0
    6e3e:	6093      	str	r3, [r2, #8]
    6e40:	da05      	bge.n	6e4e <__sfputc_r+0x18>
    6e42:	6994      	ldr	r4, [r2, #24]
    6e44:	42a3      	cmp	r3, r4
    6e46:	db08      	blt.n	6e5a <__sfputc_r+0x24>
    6e48:	b2cb      	uxtb	r3, r1
    6e4a:	2b0a      	cmp	r3, #10
    6e4c:	d005      	beq.n	6e5a <__sfputc_r+0x24>
    6e4e:	6813      	ldr	r3, [r2, #0]
    6e50:	1c58      	adds	r0, r3, #1
    6e52:	6010      	str	r0, [r2, #0]
    6e54:	7019      	strb	r1, [r3, #0]
    6e56:	b2c8      	uxtb	r0, r1
    6e58:	bd10      	pop	{r4, pc}
    6e5a:	e8bd 4010 	ldmia.w	sp!, {r4, lr}
    6e5e:	f000 bc01 	b.w	7664 <__swbuf_r>

00006e62 <__sfputs_r>:
    6e62:	b5f8      	push	{r3, r4, r5, r6, r7, lr}
    6e64:	4605      	mov	r5, r0
    6e66:	460e      	mov	r6, r1
    6e68:	4614      	mov	r4, r2
    6e6a:	18d7      	adds	r7, r2, r3
    6e6c:	42bc      	cmp	r4, r7
    6e6e:	d008      	beq.n	6e82 <__sfputs_r+0x20>
    6e70:	4628      	mov	r0, r5
    6e72:	f814 1b01 	ldrb.w	r1, [r4], #1
    6e76:	4632      	mov	r2, r6
    6e78:	f7ff ffdd 	bl	6e36 <__sfputc_r>
    6e7c:	1c43      	adds	r3, r0, #1
    6e7e:	d1f5      	bne.n	6e6c <__sfputs_r+0xa>
    6e80:	e000      	b.n	6e84 <__sfputs_r+0x22>
    6e82:	2000      	movs	r0, #0
    6e84:	bdf8      	pop	{r3, r4, r5, r6, r7, pc}
	...

00006e88 <_vfiprintf_r>:
    6e88:	e92d 43f0 	stmdb	sp!, {r4, r5, r6, r7, r8, r9, lr}
    6e8c:	b09d      	sub	sp, #116	; 0x74
    6e8e:	460d      	mov	r5, r1
    6e90:	4617      	mov	r7, r2
    6e92:	9303      	str	r3, [sp, #12]
    6e94:	4606      	mov	r6, r0
    6e96:	b118      	cbz	r0, 6ea0 <_vfiprintf_r+0x18>
    6e98:	6983      	ldr	r3, [r0, #24]
    6e9a:	b90b      	cbnz	r3, 6ea0 <_vfiprintf_r+0x18>
    6e9c:	f7fe fcb6 	bl	580c <__sinit>
    6ea0:	4b73      	ldr	r3, [pc, #460]	; (7070 <_vfiprintf_r+0x1e8>)
    6ea2:	429d      	cmp	r5, r3
    6ea4:	d101      	bne.n	6eaa <_vfiprintf_r+0x22>
    6ea6:	6875      	ldr	r5, [r6, #4]
    6ea8:	e008      	b.n	6ebc <_vfiprintf_r+0x34>
    6eaa:	4b72      	ldr	r3, [pc, #456]	; (7074 <_vfiprintf_r+0x1ec>)
    6eac:	429d      	cmp	r5, r3
    6eae:	d101      	bne.n	6eb4 <_vfiprintf_r+0x2c>
    6eb0:	68b5      	ldr	r5, [r6, #8]
    6eb2:	e003      	b.n	6ebc <_vfiprintf_r+0x34>
    6eb4:	4b70      	ldr	r3, [pc, #448]	; (7078 <_vfiprintf_r+0x1f0>)
    6eb6:	429d      	cmp	r5, r3
    6eb8:	bf08      	it	eq
    6eba:	68f5      	ldreq	r5, [r6, #12]
    6ebc:	89ab      	ldrh	r3, [r5, #12]
    6ebe:	0718      	lsls	r0, r3, #28
    6ec0:	d50a      	bpl.n	6ed8 <_vfiprintf_r+0x50>
    6ec2:	692b      	ldr	r3, [r5, #16]
    6ec4:	b143      	cbz	r3, 6ed8 <_vfiprintf_r+0x50>
    6ec6:	2300      	movs	r3, #0
    6ec8:	9309      	str	r3, [sp, #36]	; 0x24
    6eca:	2320      	movs	r3, #32
    6ecc:	f88d 3029 	strb.w	r3, [sp, #41]	; 0x29
    6ed0:	2330      	movs	r3, #48	; 0x30
    6ed2:	f88d 302a 	strb.w	r3, [sp, #42]	; 0x2a
    6ed6:	e038      	b.n	6f4a <_vfiprintf_r+0xc2>
    6ed8:	4630      	mov	r0, r6
    6eda:	4629      	mov	r1, r5
    6edc:	f000 fc28 	bl	7730 <__swsetup_r>
    6ee0:	2800      	cmp	r0, #0
    6ee2:	d0f0      	beq.n	6ec6 <_vfiprintf_r+0x3e>
    6ee4:	f04f 30ff 	mov.w	r0, #4294967295	; 0xffffffff
    6ee8:	e0be      	b.n	7068 <_vfiprintf_r+0x1e0>
    6eea:	9a03      	ldr	r2, [sp, #12]
    6eec:	1d11      	adds	r1, r2, #4
    6eee:	6812      	ldr	r2, [r2, #0]
    6ef0:	9103      	str	r1, [sp, #12]
    6ef2:	2a00      	cmp	r2, #0
    6ef4:	db70      	blt.n	6fd8 <_vfiprintf_r+0x150>
    6ef6:	9207      	str	r2, [sp, #28]
    6ef8:	3401      	adds	r4, #1
    6efa:	7823      	ldrb	r3, [r4, #0]
    6efc:	2b2e      	cmp	r3, #46	; 0x2e
    6efe:	d07d      	beq.n	6ffc <_vfiprintf_r+0x174>
    6f00:	4f5e      	ldr	r7, [pc, #376]	; (707c <_vfiprintf_r+0x1f4>)
    6f02:	7821      	ldrb	r1, [r4, #0]
    6f04:	4638      	mov	r0, r7
    6f06:	2203      	movs	r2, #3
    6f08:	f7fe ff24 	bl	5d54 <memchr>
    6f0c:	b130      	cbz	r0, 6f1c <_vfiprintf_r+0x94>
    6f0e:	1bc7      	subs	r7, r0, r7
    6f10:	2040      	movs	r0, #64	; 0x40
    6f12:	40b8      	lsls	r0, r7
    6f14:	9b04      	ldr	r3, [sp, #16]
    6f16:	3401      	adds	r4, #1
    6f18:	4303      	orrs	r3, r0
    6f1a:	9304      	str	r3, [sp, #16]
    6f1c:	7821      	ldrb	r1, [r4, #0]
    6f1e:	4858      	ldr	r0, [pc, #352]	; (7080 <_vfiprintf_r+0x1f8>)
    6f20:	2206      	movs	r2, #6
    6f22:	1c67      	adds	r7, r4, #1
    6f24:	f88d 1028 	strb.w	r1, [sp, #40]	; 0x28
    6f28:	f7fe ff14 	bl	5d54 <memchr>
    6f2c:	2800      	cmp	r0, #0
    6f2e:	f000 8089 	beq.w	7044 <_vfiprintf_r+0x1bc>
    6f32:	4b54      	ldr	r3, [pc, #336]	; (7084 <_vfiprintf_r+0x1fc>)
    6f34:	2b00      	cmp	r3, #0
    6f36:	d17c      	bne.n	7032 <_vfiprintf_r+0x1aa>
    6f38:	9b03      	ldr	r3, [sp, #12]
    6f3a:	3307      	adds	r3, #7
    6f3c:	f023 0307 	bic.w	r3, r3, #7
    6f40:	3308      	adds	r3, #8
    6f42:	9303      	str	r3, [sp, #12]
    6f44:	9b09      	ldr	r3, [sp, #36]	; 0x24
    6f46:	4443      	add	r3, r8
    6f48:	9309      	str	r3, [sp, #36]	; 0x24
    6f4a:	463b      	mov	r3, r7
    6f4c:	461c      	mov	r4, r3
    6f4e:	f813 2b01 	ldrb.w	r2, [r3], #1
    6f52:	b91a      	cbnz	r2, 6f5c <_vfiprintf_r+0xd4>
    6f54:	ebb4 0907 	subs.w	r9, r4, r7
    6f58:	d00e      	beq.n	6f78 <_vfiprintf_r+0xf0>
    6f5a:	e002      	b.n	6f62 <_vfiprintf_r+0xda>
    6f5c:	2a25      	cmp	r2, #37	; 0x25
    6f5e:	d1f5      	bne.n	6f4c <_vfiprintf_r+0xc4>
    6f60:	e7f8      	b.n	6f54 <_vfiprintf_r+0xcc>
    6f62:	4630      	mov	r0, r6
    6f64:	4629      	mov	r1, r5
    6f66:	463a      	mov	r2, r7
    6f68:	464b      	mov	r3, r9
    6f6a:	f7ff ff7a 	bl	6e62 <__sfputs_r>
    6f6e:	3001      	adds	r0, #1
    6f70:	d075      	beq.n	705e <_vfiprintf_r+0x1d6>
    6f72:	9b09      	ldr	r3, [sp, #36]	; 0x24
    6f74:	444b      	add	r3, r9
    6f76:	9309      	str	r3, [sp, #36]	; 0x24
    6f78:	7823      	ldrb	r3, [r4, #0]
    6f7a:	2b00      	cmp	r3, #0
    6f7c:	d06f      	beq.n	705e <_vfiprintf_r+0x1d6>
    6f7e:	2300      	movs	r3, #0
    6f80:	f04f 32ff 	mov.w	r2, #4294967295	; 0xffffffff
    6f84:	9304      	str	r3, [sp, #16]
    6f86:	9307      	str	r3, [sp, #28]
    6f88:	9205      	str	r2, [sp, #20]
    6f8a:	9306      	str	r3, [sp, #24]
    6f8c:	f88d 3053 	strb.w	r3, [sp, #83]	; 0x53
    6f90:	931a      	str	r3, [sp, #104]	; 0x68
    6f92:	f104 0901 	add.w	r9, r4, #1
    6f96:	4f3c      	ldr	r7, [pc, #240]	; (7088 <_vfiprintf_r+0x200>)
    6f98:	464c      	mov	r4, r9
    6f9a:	4638      	mov	r0, r7
    6f9c:	7821      	ldrb	r1, [r4, #0]
    6f9e:	2205      	movs	r2, #5
    6fa0:	f7fe fed8 	bl	5d54 <memchr>
    6fa4:	f109 0901 	add.w	r9, r9, #1
    6fa8:	9b04      	ldr	r3, [sp, #16]
    6faa:	b128      	cbz	r0, 6fb8 <_vfiprintf_r+0x130>
    6fac:	1bc7      	subs	r7, r0, r7
    6fae:	2001      	movs	r0, #1
    6fb0:	40b8      	lsls	r0, r7
    6fb2:	4303      	orrs	r3, r0
    6fb4:	9304      	str	r3, [sp, #16]
    6fb6:	e7ee      	b.n	6f96 <_vfiprintf_r+0x10e>
    6fb8:	06d9      	lsls	r1, r3, #27
    6fba:	bf44      	itt	mi
    6fbc:	2220      	movmi	r2, #32
    6fbe:	f88d 2053 	strbmi.w	r2, [sp, #83]	; 0x53
    6fc2:	071a      	lsls	r2, r3, #28
    6fc4:	bf44      	itt	mi
    6fc6:	222b      	movmi	r2, #43	; 0x2b
    6fc8:	f88d 2053 	strbmi.w	r2, [sp, #83]	; 0x53
    6fcc:	7822      	ldrb	r2, [r4, #0]
    6fce:	2a2a      	cmp	r2, #42	; 0x2a
    6fd0:	d08b      	beq.n	6eea <_vfiprintf_r+0x62>
    6fd2:	9b07      	ldr	r3, [sp, #28]
    6fd4:	4621      	mov	r1, r4
    6fd6:	e005      	b.n	6fe4 <_vfiprintf_r+0x15c>
    6fd8:	4252      	negs	r2, r2
    6fda:	f043 0302 	orr.w	r3, r3, #2
    6fde:	9207      	str	r2, [sp, #28]
    6fe0:	9304      	str	r3, [sp, #16]
    6fe2:	e789      	b.n	6ef8 <_vfiprintf_r+0x70>
    6fe4:	460c      	mov	r4, r1
    6fe6:	7822      	ldrb	r2, [r4, #0]
    6fe8:	3101      	adds	r1, #1
    6fea:	3a30      	subs	r2, #48	; 0x30
    6fec:	2a09      	cmp	r2, #9
    6fee:	d803      	bhi.n	6ff8 <_vfiprintf_r+0x170>
    6ff0:	200a      	movs	r0, #10
    6ff2:	fb00 2303 	mla	r3, r0, r3, r2
    6ff6:	e7f5      	b.n	6fe4 <_vfiprintf_r+0x15c>
    6ff8:	9307      	str	r3, [sp, #28]
    6ffa:	e77e      	b.n	6efa <_vfiprintf_r+0x72>
    6ffc:	7863      	ldrb	r3, [r4, #1]
    6ffe:	2b2a      	cmp	r3, #42	; 0x2a
    7000:	d109      	bne.n	7016 <_vfiprintf_r+0x18e>
    7002:	9b03      	ldr	r3, [sp, #12]
    7004:	3402      	adds	r4, #2
    7006:	1d1a      	adds	r2, r3, #4
    7008:	681b      	ldr	r3, [r3, #0]
    700a:	9203      	str	r2, [sp, #12]
    700c:	2b00      	cmp	r3, #0
    700e:	bfb8      	it	lt
    7010:	f04f 33ff 	movlt.w	r3, #4294967295	; 0xffffffff
    7014:	e00b      	b.n	702e <_vfiprintf_r+0x1a6>
    7016:	1c61      	adds	r1, r4, #1
    7018:	2300      	movs	r3, #0
    701a:	460c      	mov	r4, r1
    701c:	7822      	ldrb	r2, [r4, #0]
    701e:	3101      	adds	r1, #1
    7020:	3a30      	subs	r2, #48	; 0x30
    7022:	2a09      	cmp	r2, #9
    7024:	d803      	bhi.n	702e <_vfiprintf_r+0x1a6>
    7026:	200a      	movs	r0, #10
    7028:	fb00 2303 	mla	r3, r0, r3, r2
    702c:	e7f5      	b.n	701a <_vfiprintf_r+0x192>
    702e:	9305      	str	r3, [sp, #20]
    7030:	e766      	b.n	6f00 <_vfiprintf_r+0x78>
    7032:	ab03      	add	r3, sp, #12
    7034:	9300      	str	r3, [sp, #0]
    7036:	4630      	mov	r0, r6
    7038:	a904      	add	r1, sp, #16
    703a:	462a      	mov	r2, r5
    703c:	4b13      	ldr	r3, [pc, #76]	; (708c <_vfiprintf_r+0x204>)
    703e:	f3af 8000 	nop.w
    7042:	e007      	b.n	7054 <_vfiprintf_r+0x1cc>
    7044:	ab03      	add	r3, sp, #12
    7046:	9300      	str	r3, [sp, #0]
    7048:	4630      	mov	r0, r6
    704a:	a904      	add	r1, sp, #16
    704c:	462a      	mov	r2, r5
    704e:	4b0f      	ldr	r3, [pc, #60]	; (708c <_vfiprintf_r+0x204>)
    7050:	f000 f89e 	bl	7190 <_printf_i>
    7054:	f1b0 3fff 	cmp.w	r0, #4294967295	; 0xffffffff
    7058:	4680      	mov	r8, r0
    705a:	f47f af73 	bne.w	6f44 <_vfiprintf_r+0xbc>
    705e:	89ab      	ldrh	r3, [r5, #12]
    7060:	065b      	lsls	r3, r3, #25
    7062:	f53f af3f 	bmi.w	6ee4 <_vfiprintf_r+0x5c>
    7066:	9809      	ldr	r0, [sp, #36]	; 0x24
    7068:	b01d      	add	sp, #116	; 0x74
    706a:	e8bd 83f0 	ldmia.w	sp!, {r4, r5, r6, r7, r8, r9, pc}
    706e:	bf00      	nop
    7070:	00008858 	.word	0x00008858
    7074:	00008878 	.word	0x00008878
    7078:	00008898 	.word	0x00008898
    707c:	00008ea1 	.word	0x00008ea1
    7080:	00008ea5 	.word	0x00008ea5
    7084:	00000000 	.word	0x00000000
    7088:	00008e9b 	.word	0x00008e9b
    708c:	00006e63 	.word	0x00006e63

00007090 <vfiprintf>:
    7090:	b530      	push	{r4, r5, lr}
    7092:	4613      	mov	r3, r2
    7094:	4a04      	ldr	r2, [pc, #16]	; (70a8 <vfiprintf+0x18>)
    7096:	4605      	mov	r5, r0
    7098:	460c      	mov	r4, r1
    709a:	6810      	ldr	r0, [r2, #0]
    709c:	4629      	mov	r1, r5
    709e:	4622      	mov	r2, r4
    70a0:	e8bd 4030 	ldmia.w	sp!, {r4, r5, lr}
    70a4:	f7ff bef0 	b.w	6e88 <_vfiprintf_r>
    70a8:	100001b8 	.word	0x100001b8

000070ac <_printf_common>:
    70ac:	e92d 43f8 	stmdb	sp!, {r3, r4, r5, r6, r7, r8, r9, lr}
    70b0:	4615      	mov	r5, r2
    70b2:	461f      	mov	r7, r3
    70b4:	688a      	ldr	r2, [r1, #8]
    70b6:	690b      	ldr	r3, [r1, #16]
    70b8:	4606      	mov	r6, r0
    70ba:	429a      	cmp	r2, r3
    70bc:	bfa8      	it	ge
    70be:	4613      	movge	r3, r2
    70c0:	602b      	str	r3, [r5, #0]
    70c2:	f891 2043 	ldrb.w	r2, [r1, #67]	; 0x43
    70c6:	460c      	mov	r4, r1
    70c8:	f8dd 8020 	ldr.w	r8, [sp, #32]
    70cc:	b10a      	cbz	r2, 70d2 <_printf_common+0x26>
    70ce:	3301      	adds	r3, #1
    70d0:	602b      	str	r3, [r5, #0]
    70d2:	6823      	ldr	r3, [r4, #0]
    70d4:	0699      	lsls	r1, r3, #26
    70d6:	d502      	bpl.n	70de <_printf_common+0x32>
    70d8:	682b      	ldr	r3, [r5, #0]
    70da:	3302      	adds	r3, #2
    70dc:	602b      	str	r3, [r5, #0]
    70de:	6823      	ldr	r3, [r4, #0]
    70e0:	f013 0906 	ands.w	r9, r3, #6
    70e4:	d01d      	beq.n	7122 <_printf_common+0x76>
    70e6:	f894 3043 	ldrb.w	r3, [r4, #67]	; 0x43
    70ea:	6822      	ldr	r2, [r4, #0]
    70ec:	3300      	adds	r3, #0
    70ee:	bf18      	it	ne
    70f0:	2301      	movne	r3, #1
    70f2:	0692      	lsls	r2, r2, #26
    70f4:	d51f      	bpl.n	7136 <_printf_common+0x8a>
    70f6:	18e1      	adds	r1, r4, r3
    70f8:	2030      	movs	r0, #48	; 0x30
    70fa:	f881 0043 	strb.w	r0, [r1, #67]	; 0x43
    70fe:	1c5a      	adds	r2, r3, #1
    7100:	f894 1045 	ldrb.w	r1, [r4, #69]	; 0x45
    7104:	4422      	add	r2, r4
    7106:	3302      	adds	r3, #2
    7108:	f882 1043 	strb.w	r1, [r2, #67]	; 0x43
    710c:	e013      	b.n	7136 <_printf_common+0x8a>
    710e:	4630      	mov	r0, r6
    7110:	4639      	mov	r1, r7
    7112:	f104 0219 	add.w	r2, r4, #25
    7116:	2301      	movs	r3, #1
    7118:	47c0      	blx	r8
    711a:	3001      	adds	r0, #1
    711c:	d007      	beq.n	712e <_printf_common+0x82>
    711e:	f109 0901 	add.w	r9, r9, #1
    7122:	68e2      	ldr	r2, [r4, #12]
    7124:	682b      	ldr	r3, [r5, #0]
    7126:	1ad3      	subs	r3, r2, r3
    7128:	4599      	cmp	r9, r3
    712a:	dbf0      	blt.n	710e <_printf_common+0x62>
    712c:	e7db      	b.n	70e6 <_printf_common+0x3a>
    712e:	f04f 30ff 	mov.w	r0, #4294967295	; 0xffffffff
    7132:	e8bd 83f8 	ldmia.w	sp!, {r3, r4, r5, r6, r7, r8, r9, pc}
    7136:	4630      	mov	r0, r6
    7138:	4639      	mov	r1, r7
    713a:	f104 0243 	add.w	r2, r4, #67	; 0x43
    713e:	47c0      	blx	r8
    7140:	3001      	adds	r0, #1
    7142:	d0f4      	beq.n	712e <_printf_common+0x82>
    7144:	6823      	ldr	r3, [r4, #0]
    7146:	682a      	ldr	r2, [r5, #0]
    7148:	f003 0306 	and.w	r3, r3, #6
    714c:	68e1      	ldr	r1, [r4, #12]
    714e:	2b04      	cmp	r3, #4
    7150:	bf08      	it	eq
    7152:	ebc2 0501 	rsbeq	r5, r2, r1
    7156:	6923      	ldr	r3, [r4, #16]
    7158:	68a2      	ldr	r2, [r4, #8]
    715a:	bf0c      	ite	eq
    715c:	ea25 75e5 	biceq.w	r5, r5, r5, asr #31
    7160:	2500      	movne	r5, #0
    7162:	429a      	cmp	r2, r3
    7164:	bfc4      	itt	gt
    7166:	ebc3 0302 	rsbgt	r3, r3, r2
    716a:	18ed      	addgt	r5, r5, r3
    716c:	f04f 0900 	mov.w	r9, #0
    7170:	45a9      	cmp	r9, r5
    7172:	da0a      	bge.n	718a <_printf_common+0xde>
    7174:	4630      	mov	r0, r6
    7176:	4639      	mov	r1, r7
    7178:	f104 021a 	add.w	r2, r4, #26
    717c:	2301      	movs	r3, #1
    717e:	47c0      	blx	r8
    7180:	3001      	adds	r0, #1
    7182:	d0d4      	beq.n	712e <_printf_common+0x82>
    7184:	f109 0901 	add.w	r9, r9, #1
    7188:	e7f2      	b.n	7170 <_printf_common+0xc4>
    718a:	2000      	movs	r0, #0
    718c:	e8bd 83f8 	ldmia.w	sp!, {r3, r4, r5, r6, r7, r8, r9, pc}

00007190 <_printf_i>:
    7190:	e92d 47ff 	stmdb	sp!, {r0, r1, r2, r3, r4, r5, r6, r7, r8, r9, r10, lr}
    7194:	7e0e      	ldrb	r6, [r1, #24]
    7196:	4680      	mov	r8, r0
    7198:	2e6e      	cmp	r6, #110	; 0x6e
    719a:	460c      	mov	r4, r1
    719c:	4691      	mov	r9, r2
    719e:	469a      	mov	r10, r3
    71a0:	9d0c      	ldr	r5, [sp, #48]	; 0x30
    71a2:	f101 0043 	add.w	r0, r1, #67	; 0x43
    71a6:	f000 80a5 	beq.w	72f4 <_printf_i+0x164>
    71aa:	d811      	bhi.n	71d0 <_printf_i+0x40>
    71ac:	2e63      	cmp	r6, #99	; 0x63
    71ae:	d022      	beq.n	71f6 <_printf_i+0x66>
    71b0:	d809      	bhi.n	71c6 <_printf_i+0x36>
    71b2:	2e00      	cmp	r6, #0
    71b4:	f000 80af 	beq.w	7316 <_printf_i+0x186>
    71b8:	2e58      	cmp	r6, #88	; 0x58
    71ba:	f040 80bf 	bne.w	733c <_printf_i+0x1ac>
    71be:	f881 6045 	strb.w	r6, [r1, #69]	; 0x45
    71c2:	4a7b      	ldr	r2, [pc, #492]	; (73b0 <_printf_i+0x220>)
    71c4:	e04f      	b.n	7266 <_printf_i+0xd6>
    71c6:	2e64      	cmp	r6, #100	; 0x64
    71c8:	d01e      	beq.n	7208 <_printf_i+0x78>
    71ca:	2e69      	cmp	r6, #105	; 0x69
    71cc:	d01c      	beq.n	7208 <_printf_i+0x78>
    71ce:	e0b5      	b.n	733c <_printf_i+0x1ac>
    71d0:	2e73      	cmp	r6, #115	; 0x73
    71d2:	f000 80a4 	beq.w	731e <_printf_i+0x18e>
    71d6:	d809      	bhi.n	71ec <_printf_i+0x5c>
    71d8:	2e6f      	cmp	r6, #111	; 0x6f
    71da:	d02b      	beq.n	7234 <_printf_i+0xa4>
    71dc:	2e70      	cmp	r6, #112	; 0x70
    71de:	f040 80ad 	bne.w	733c <_printf_i+0x1ac>
    71e2:	680b      	ldr	r3, [r1, #0]
    71e4:	f043 0320 	orr.w	r3, r3, #32
    71e8:	600b      	str	r3, [r1, #0]
    71ea:	e038      	b.n	725e <_printf_i+0xce>
    71ec:	2e75      	cmp	r6, #117	; 0x75
    71ee:	d021      	beq.n	7234 <_printf_i+0xa4>
    71f0:	2e78      	cmp	r6, #120	; 0x78
    71f2:	d034      	beq.n	725e <_printf_i+0xce>
    71f4:	e0a2      	b.n	733c <_printf_i+0x1ac>
    71f6:	682b      	ldr	r3, [r5, #0]
    71f8:	f101 0742 	add.w	r7, r1, #66	; 0x42
    71fc:	1d1a      	adds	r2, r3, #4
    71fe:	681b      	ldr	r3, [r3, #0]
    7200:	602a      	str	r2, [r5, #0]
    7202:	f881 3042 	strb.w	r3, [r1, #66]	; 0x42
    7206:	e09d      	b.n	7344 <_printf_i+0x1b4>
    7208:	6822      	ldr	r2, [r4, #0]
    720a:	682b      	ldr	r3, [r5, #0]
    720c:	f012 0f80 	tst.w	r2, #128	; 0x80
    7210:	d003      	beq.n	721a <_printf_i+0x8a>
    7212:	1d1a      	adds	r2, r3, #4
    7214:	602a      	str	r2, [r5, #0]
    7216:	681d      	ldr	r5, [r3, #0]
    7218:	e005      	b.n	7226 <_printf_i+0x96>
    721a:	0651      	lsls	r1, r2, #25
    721c:	d5f9      	bpl.n	7212 <_printf_i+0x82>
    721e:	1d1a      	adds	r2, r3, #4
    7220:	602a      	str	r2, [r5, #0]
    7222:	f9b3 5000 	ldrsh.w	r5, [r3]
    7226:	2d00      	cmp	r5, #0
    7228:	da39      	bge.n	729e <_printf_i+0x10e>
    722a:	232d      	movs	r3, #45	; 0x2d
    722c:	426d      	negs	r5, r5
    722e:	f884 3043 	strb.w	r3, [r4, #67]	; 0x43
    7232:	e034      	b.n	729e <_printf_i+0x10e>
    7234:	6822      	ldr	r2, [r4, #0]
    7236:	682b      	ldr	r3, [r5, #0]
    7238:	f012 0f80 	tst.w	r2, #128	; 0x80
    723c:	d003      	beq.n	7246 <_printf_i+0xb6>
    723e:	1d1a      	adds	r2, r3, #4
    7240:	602a      	str	r2, [r5, #0]
    7242:	681d      	ldr	r5, [r3, #0]
    7244:	e004      	b.n	7250 <_printf_i+0xc0>
    7246:	0652      	lsls	r2, r2, #25
    7248:	d5f9      	bpl.n	723e <_printf_i+0xae>
    724a:	1d1a      	adds	r2, r3, #4
    724c:	602a      	str	r2, [r5, #0]
    724e:	881d      	ldrh	r5, [r3, #0]
    7250:	7e23      	ldrb	r3, [r4, #24]
    7252:	4a57      	ldr	r2, [pc, #348]	; (73b0 <_printf_i+0x220>)
    7254:	2b6f      	cmp	r3, #111	; 0x6f
    7256:	bf14      	ite	ne
    7258:	230a      	movne	r3, #10
    725a:	2308      	moveq	r3, #8
    725c:	e01b      	b.n	7296 <_printf_i+0x106>
    725e:	2378      	movs	r3, #120	; 0x78
    7260:	4a54      	ldr	r2, [pc, #336]	; (73b4 <_printf_i+0x224>)
    7262:	f884 3045 	strb.w	r3, [r4, #69]	; 0x45
    7266:	6823      	ldr	r3, [r4, #0]
    7268:	6829      	ldr	r1, [r5, #0]
    726a:	f013 0f80 	tst.w	r3, #128	; 0x80
    726e:	f101 0604 	add.w	r6, r1, #4
    7272:	602e      	str	r6, [r5, #0]
    7274:	d001      	beq.n	727a <_printf_i+0xea>
    7276:	680d      	ldr	r5, [r1, #0]
    7278:	e002      	b.n	7280 <_printf_i+0xf0>
    727a:	065f      	lsls	r7, r3, #25
    727c:	d5fb      	bpl.n	7276 <_printf_i+0xe6>
    727e:	880d      	ldrh	r5, [r1, #0]
    7280:	07de      	lsls	r6, r3, #31
    7282:	bf44      	itt	mi
    7284:	f043 0320 	orrmi.w	r3, r3, #32
    7288:	6023      	strmi	r3, [r4, #0]
    728a:	b91d      	cbnz	r5, 7294 <_printf_i+0x104>
    728c:	6823      	ldr	r3, [r4, #0]
    728e:	f023 0320 	bic.w	r3, r3, #32
    7292:	6023      	str	r3, [r4, #0]
    7294:	2310      	movs	r3, #16
    7296:	2100      	movs	r1, #0
    7298:	f884 1043 	strb.w	r1, [r4, #67]	; 0x43
    729c:	e001      	b.n	72a2 <_printf_i+0x112>
    729e:	4a44      	ldr	r2, [pc, #272]	; (73b0 <_printf_i+0x220>)
    72a0:	230a      	movs	r3, #10
    72a2:	6866      	ldr	r6, [r4, #4]
    72a4:	2e00      	cmp	r6, #0
    72a6:	60a6      	str	r6, [r4, #8]
    72a8:	db03      	blt.n	72b2 <_printf_i+0x122>
    72aa:	6821      	ldr	r1, [r4, #0]
    72ac:	f021 0104 	bic.w	r1, r1, #4
    72b0:	6021      	str	r1, [r4, #0]
    72b2:	b905      	cbnz	r5, 72b6 <_printf_i+0x126>
    72b4:	b16e      	cbz	r6, 72d2 <_printf_i+0x142>
    72b6:	f104 0142 	add.w	r1, r4, #66	; 0x42
    72ba:	fbb5 f6f3 	udiv	r6, r5, r3
    72be:	fb03 5516 	mls	r5, r3, r6, r5
    72c2:	5d55      	ldrb	r5, [r2, r5]
    72c4:	460f      	mov	r7, r1
    72c6:	f801 5901 	strb.w	r5, [r1], #-1
    72ca:	4635      	mov	r5, r6
    72cc:	2e00      	cmp	r6, #0
    72ce:	d1f4      	bne.n	72ba <_printf_i+0x12a>
    72d0:	e000      	b.n	72d4 <_printf_i+0x144>
    72d2:	4607      	mov	r7, r0
    72d4:	2b08      	cmp	r3, #8
    72d6:	d10a      	bne.n	72ee <_printf_i+0x15e>
    72d8:	6823      	ldr	r3, [r4, #0]
    72da:	07dd      	lsls	r5, r3, #31
    72dc:	d507      	bpl.n	72ee <_printf_i+0x15e>
    72de:	6862      	ldr	r2, [r4, #4]
    72e0:	6923      	ldr	r3, [r4, #16]
    72e2:	429a      	cmp	r2, r3
    72e4:	dc03      	bgt.n	72ee <_printf_i+0x15e>
    72e6:	2330      	movs	r3, #48	; 0x30
    72e8:	f807 3c01 	strb.w	r3, [r7, #-1]
    72ec:	3f01      	subs	r7, #1
    72ee:	1bc0      	subs	r0, r0, r7
    72f0:	6120      	str	r0, [r4, #16]
    72f2:	e02c      	b.n	734e <_printf_i+0x1be>
    72f4:	6809      	ldr	r1, [r1, #0]
    72f6:	682b      	ldr	r3, [r5, #0]
    72f8:	f011 0f80 	tst.w	r1, #128	; 0x80
    72fc:	6962      	ldr	r2, [r4, #20]
    72fe:	d004      	beq.n	730a <_printf_i+0x17a>
    7300:	1d19      	adds	r1, r3, #4
    7302:	6029      	str	r1, [r5, #0]
    7304:	681b      	ldr	r3, [r3, #0]
    7306:	601a      	str	r2, [r3, #0]
    7308:	e005      	b.n	7316 <_printf_i+0x186>
    730a:	0649      	lsls	r1, r1, #25
    730c:	d5f8      	bpl.n	7300 <_printf_i+0x170>
    730e:	1d19      	adds	r1, r3, #4
    7310:	6029      	str	r1, [r5, #0]
    7312:	681b      	ldr	r3, [r3, #0]
    7314:	801a      	strh	r2, [r3, #0]
    7316:	2300      	movs	r3, #0
    7318:	6123      	str	r3, [r4, #16]
    731a:	4607      	mov	r7, r0
    731c:	e017      	b.n	734e <_printf_i+0x1be>
    731e:	682b      	ldr	r3, [r5, #0]
    7320:	1d1a      	adds	r2, r3, #4
    7322:	602a      	str	r2, [r5, #0]
    7324:	681f      	ldr	r7, [r3, #0]
    7326:	4638      	mov	r0, r7
    7328:	f7ff fa3c 	bl	67a4 <strlen>
    732c:	6863      	ldr	r3, [r4, #4]
    732e:	6120      	str	r0, [r4, #16]
    7330:	4298      	cmp	r0, r3
    7332:	bf88      	it	hi
    7334:	6123      	strhi	r3, [r4, #16]
    7336:	6923      	ldr	r3, [r4, #16]
    7338:	6063      	str	r3, [r4, #4]
    733a:	e005      	b.n	7348 <_printf_i+0x1b8>
    733c:	f104 0742 	add.w	r7, r4, #66	; 0x42
    7340:	f884 6042 	strb.w	r6, [r4, #66]	; 0x42
    7344:	2301      	movs	r3, #1
    7346:	6123      	str	r3, [r4, #16]
    7348:	2300      	movs	r3, #0
    734a:	f884 3043 	strb.w	r3, [r4, #67]	; 0x43
    734e:	f8cd a000 	str.w	r10, [sp]
    7352:	4640      	mov	r0, r8
    7354:	4621      	mov	r1, r4
    7356:	aa03      	add	r2, sp, #12
    7358:	464b      	mov	r3, r9
    735a:	f7ff fea7 	bl	70ac <_printf_common>
    735e:	3001      	adds	r0, #1
    7360:	d102      	bne.n	7368 <_printf_i+0x1d8>
    7362:	f04f 30ff 	mov.w	r0, #4294967295	; 0xffffffff
    7366:	e01f      	b.n	73a8 <_printf_i+0x218>
    7368:	4640      	mov	r0, r8
    736a:	4649      	mov	r1, r9
    736c:	463a      	mov	r2, r7
    736e:	6923      	ldr	r3, [r4, #16]
    7370:	47d0      	blx	r10
    7372:	3001      	adds	r0, #1
    7374:	d0f5      	beq.n	7362 <_printf_i+0x1d2>
    7376:	6823      	ldr	r3, [r4, #0]
    7378:	079b      	lsls	r3, r3, #30
    737a:	d405      	bmi.n	7388 <_printf_i+0x1f8>
    737c:	68e0      	ldr	r0, [r4, #12]
    737e:	9b03      	ldr	r3, [sp, #12]
    7380:	4298      	cmp	r0, r3
    7382:	bfb8      	it	lt
    7384:	4618      	movlt	r0, r3
    7386:	e00f      	b.n	73a8 <_printf_i+0x218>
    7388:	2500      	movs	r5, #0
    738a:	68e2      	ldr	r2, [r4, #12]
    738c:	9b03      	ldr	r3, [sp, #12]
    738e:	1ad3      	subs	r3, r2, r3
    7390:	429d      	cmp	r5, r3
    7392:	daf3      	bge.n	737c <_printf_i+0x1ec>
    7394:	4640      	mov	r0, r8
    7396:	4649      	mov	r1, r9
    7398:	f104 0219 	add.w	r2, r4, #25
    739c:	2301      	movs	r3, #1
    739e:	47d0      	blx	r10
    73a0:	3001      	adds	r0, #1
    73a2:	d0de      	beq.n	7362 <_printf_i+0x1d2>
    73a4:	3501      	adds	r5, #1
    73a6:	e7f0      	b.n	738a <_printf_i+0x1fa>
    73a8:	b004      	add	sp, #16
    73aa:	e8bd 87f0 	ldmia.w	sp!, {r4, r5, r6, r7, r8, r9, r10, pc}
    73ae:	bf00      	nop
    73b0:	00008eac 	.word	0x00008eac
    73b4:	00008ebd 	.word	0x00008ebd

000073b8 <_scanf_chars>:
    73b8:	e92d 41f0 	stmdb	sp!, {r4, r5, r6, r7, r8, lr}
    73bc:	4615      	mov	r5, r2
    73be:	688a      	ldr	r2, [r1, #8]
    73c0:	4680      	mov	r8, r0
    73c2:	460c      	mov	r4, r1
    73c4:	b932      	cbnz	r2, 73d4 <_scanf_chars+0x1c>
    73c6:	698a      	ldr	r2, [r1, #24]
    73c8:	2a00      	cmp	r2, #0
    73ca:	bf14      	ite	ne
    73cc:	f04f 32ff 	movne.w	r2, #4294967295	; 0xffffffff
    73d0:	2201      	moveq	r2, #1
    73d2:	608a      	str	r2, [r1, #8]
    73d4:	6822      	ldr	r2, [r4, #0]
    73d6:	06d1      	lsls	r1, r2, #27
    73d8:	d403      	bmi.n	73e2 <_scanf_chars+0x2a>
    73da:	681a      	ldr	r2, [r3, #0]
    73dc:	1d11      	adds	r1, r2, #4
    73de:	6019      	str	r1, [r3, #0]
    73e0:	6817      	ldr	r7, [r2, #0]
    73e2:	2600      	movs	r6, #0
    73e4:	69a0      	ldr	r0, [r4, #24]
    73e6:	b9e0      	cbnz	r0, 7422 <_scanf_chars+0x6a>
    73e8:	6823      	ldr	r3, [r4, #0]
    73ea:	3601      	adds	r6, #1
    73ec:	06da      	lsls	r2, r3, #27
    73ee:	d404      	bmi.n	73fa <_scanf_chars+0x42>
    73f0:	682b      	ldr	r3, [r5, #0]
    73f2:	3701      	adds	r7, #1
    73f4:	781b      	ldrb	r3, [r3, #0]
    73f6:	f807 3c01 	strb.w	r3, [r7, #-1]
    73fa:	682a      	ldr	r2, [r5, #0]
    73fc:	686b      	ldr	r3, [r5, #4]
    73fe:	3201      	adds	r2, #1
    7400:	602a      	str	r2, [r5, #0]
    7402:	68a2      	ldr	r2, [r4, #8]
    7404:	3b01      	subs	r3, #1
    7406:	3a01      	subs	r2, #1
    7408:	606b      	str	r3, [r5, #4]
    740a:	60a2      	str	r2, [r4, #8]
    740c:	b312      	cbz	r2, 7454 <_scanf_chars+0x9c>
    740e:	2b00      	cmp	r3, #0
    7410:	dce8      	bgt.n	73e4 <_scanf_chars+0x2c>
    7412:	f8d4 3180 	ldr.w	r3, [r4, #384]	; 0x180
    7416:	4640      	mov	r0, r8
    7418:	4629      	mov	r1, r5
    741a:	4798      	blx	r3
    741c:	2800      	cmp	r0, #0
    741e:	d0e1      	beq.n	73e4 <_scanf_chars+0x2c>
    7420:	e018      	b.n	7454 <_scanf_chars+0x9c>
    7422:	2801      	cmp	r0, #1
    7424:	d107      	bne.n	7436 <_scanf_chars+0x7e>
    7426:	682a      	ldr	r2, [r5, #0]
    7428:	7811      	ldrb	r1, [r2, #0]
    742a:	6962      	ldr	r2, [r4, #20]
    742c:	5c52      	ldrb	r2, [r2, r1]
    742e:	2a00      	cmp	r2, #0
    7430:	d1da      	bne.n	73e8 <_scanf_chars+0x30>
    7432:	b1ee      	cbz	r6, 7470 <_scanf_chars+0xb8>
    7434:	e00e      	b.n	7454 <_scanf_chars+0x9c>
    7436:	2802      	cmp	r0, #2
    7438:	d001      	beq.n	743e <_scanf_chars+0x86>
    743a:	b14e      	cbz	r6, 7450 <_scanf_chars+0x98>
    743c:	e00a      	b.n	7454 <_scanf_chars+0x9c>
    743e:	682a      	ldr	r2, [r5, #0]
    7440:	490c      	ldr	r1, [pc, #48]	; (7474 <_scanf_chars+0xbc>)
    7442:	7812      	ldrb	r2, [r2, #0]
    7444:	6809      	ldr	r1, [r1, #0]
    7446:	440a      	add	r2, r1
    7448:	7852      	ldrb	r2, [r2, #1]
    744a:	0713      	lsls	r3, r2, #28
    744c:	d5cc      	bpl.n	73e8 <_scanf_chars+0x30>
    744e:	e7f4      	b.n	743a <_scanf_chars+0x82>
    7450:	2801      	cmp	r0, #1
    7452:	d00d      	beq.n	7470 <_scanf_chars+0xb8>
    7454:	6823      	ldr	r3, [r4, #0]
    7456:	f013 0310 	ands.w	r3, r3, #16
    745a:	d105      	bne.n	7468 <_scanf_chars+0xb0>
    745c:	68e2      	ldr	r2, [r4, #12]
    745e:	3201      	adds	r2, #1
    7460:	60e2      	str	r2, [r4, #12]
    7462:	69a2      	ldr	r2, [r4, #24]
    7464:	b102      	cbz	r2, 7468 <_scanf_chars+0xb0>
    7466:	703b      	strb	r3, [r7, #0]
    7468:	6923      	ldr	r3, [r4, #16]
    746a:	2000      	movs	r0, #0
    746c:	441e      	add	r6, r3
    746e:	6126      	str	r6, [r4, #16]
    7470:	e8bd 81f0 	ldmia.w	sp!, {r4, r5, r6, r7, r8, pc}
    7474:	100001bc 	.word	0x100001bc

00007478 <_scanf_i>:
    7478:	e92d 4ff0 	stmdb	sp!, {r4, r5, r6, r7, r8, r9, r10, r11, lr}
    747c:	b089      	sub	sp, #36	; 0x24
    747e:	460c      	mov	r4, r1
    7480:	4698      	mov	r8, r3
    7482:	a905      	add	r1, sp, #20
    7484:	4b73      	ldr	r3, [pc, #460]	; (7654 <_scanf_i+0x1dc>)
    7486:	9102      	str	r1, [sp, #8]
    7488:	4681      	mov	r9, r0
    748a:	4616      	mov	r6, r2
    748c:	e893 0007 	ldmia.w	r3, {r0, r1, r2}
    7490:	9b02      	ldr	r3, [sp, #8]
    7492:	e883 0007 	stmia.w	r3, {r0, r1, r2}
    7496:	69a3      	ldr	r3, [r4, #24]
    7498:	4a6f      	ldr	r2, [pc, #444]	; (7658 <_scanf_i+0x1e0>)
    749a:	4970      	ldr	r1, [pc, #448]	; (765c <_scanf_i+0x1e4>)
    749c:	2b03      	cmp	r3, #3
    749e:	bf08      	it	eq
    74a0:	4611      	moveq	r1, r2
    74a2:	68a3      	ldr	r3, [r4, #8]
    74a4:	9103      	str	r1, [sp, #12]
    74a6:	1e5a      	subs	r2, r3, #1
    74a8:	f5b2 7fae 	cmp.w	r2, #348	; 0x15c
    74ac:	d907      	bls.n	74be <_scanf_i+0x46>
    74ae:	f46f 75ae 	mvn.w	r5, #348	; 0x15c
    74b2:	eb03 0a05 	add.w	r10, r3, r5
    74b6:	f240 135d 	movw	r3, #349	; 0x15d
    74ba:	60a3      	str	r3, [r4, #8]
    74bc:	e001      	b.n	74c2 <_scanf_i+0x4a>
    74be:	f04f 0a00 	mov.w	r10, #0
    74c2:	6823      	ldr	r3, [r4, #0]
    74c4:	f104 071c 	add.w	r7, r4, #28
    74c8:	f443 6350 	orr.w	r3, r3, #3328	; 0xd00
    74cc:	6023      	str	r3, [r4, #0]
    74ce:	46bb      	mov	r11, r7
    74d0:	2300      	movs	r3, #0
    74d2:	6832      	ldr	r2, [r6, #0]
    74d4:	a905      	add	r1, sp, #20
    74d6:	f851 0023 	ldr.w	r0, [r1, r3, lsl #2]
    74da:	7811      	ldrb	r1, [r2, #0]
    74dc:	2202      	movs	r2, #2
    74de:	9301      	str	r3, [sp, #4]
    74e0:	f7fe fc38 	bl	5d54 <memchr>
    74e4:	9b01      	ldr	r3, [sp, #4]
    74e6:	2800      	cmp	r0, #0
    74e8:	d035      	beq.n	7556 <_scanf_i+0xde>
    74ea:	2b01      	cmp	r3, #1
    74ec:	d10b      	bne.n	7506 <_scanf_i+0x8e>
    74ee:	6862      	ldr	r2, [r4, #4]
    74f0:	b92a      	cbnz	r2, 74fe <_scanf_i+0x86>
    74f2:	2208      	movs	r2, #8
    74f4:	6062      	str	r2, [r4, #4]
    74f6:	6822      	ldr	r2, [r4, #0]
    74f8:	f442 7200 	orr.w	r2, r2, #512	; 0x200
    74fc:	6022      	str	r2, [r4, #0]
    74fe:	6822      	ldr	r2, [r4, #0]
    7500:	f422 62a0 	bic.w	r2, r2, #1280	; 0x500
    7504:	e00b      	b.n	751e <_scanf_i+0xa6>
    7506:	2b02      	cmp	r3, #2
    7508:	d10a      	bne.n	7520 <_scanf_i+0xa8>
    750a:	6822      	ldr	r2, [r4, #0]
    750c:	f402 61c0 	and.w	r1, r2, #1536	; 0x600
    7510:	f5b1 7f00 	cmp.w	r1, #512	; 0x200
    7514:	d11f      	bne.n	7556 <_scanf_i+0xde>
    7516:	2110      	movs	r1, #16
    7518:	6061      	str	r1, [r4, #4]
    751a:	f442 7280 	orr.w	r2, r2, #256	; 0x100
    751e:	6022      	str	r2, [r4, #0]
    7520:	68a2      	ldr	r2, [r4, #8]
    7522:	1e51      	subs	r1, r2, #1
    7524:	60a1      	str	r1, [r4, #8]
    7526:	b1b2      	cbz	r2, 7556 <_scanf_i+0xde>
    7528:	6832      	ldr	r2, [r6, #0]
    752a:	f10b 0501 	add.w	r5, r11, #1
    752e:	1c51      	adds	r1, r2, #1
    7530:	6031      	str	r1, [r6, #0]
    7532:	7812      	ldrb	r2, [r2, #0]
    7534:	f88b 2000 	strb.w	r2, [r11]
    7538:	6872      	ldr	r2, [r6, #4]
    753a:	3a01      	subs	r2, #1
    753c:	2a00      	cmp	r2, #0
    753e:	6072      	str	r2, [r6, #4]
    7540:	dc08      	bgt.n	7554 <_scanf_i+0xdc>
    7542:	9301      	str	r3, [sp, #4]
    7544:	f8d4 2180 	ldr.w	r2, [r4, #384]	; 0x180
    7548:	4648      	mov	r0, r9
    754a:	4631      	mov	r1, r6
    754c:	4790      	blx	r2
    754e:	9b01      	ldr	r3, [sp, #4]
    7550:	2800      	cmp	r0, #0
    7552:	d141      	bne.n	75d8 <_scanf_i+0x160>
    7554:	46ab      	mov	r11, r5
    7556:	3301      	adds	r3, #1
    7558:	2b03      	cmp	r3, #3
    755a:	d1ba      	bne.n	74d2 <_scanf_i+0x5a>
    755c:	6863      	ldr	r3, [r4, #4]
    755e:	b90b      	cbnz	r3, 7564 <_scanf_i+0xec>
    7560:	230a      	movs	r3, #10
    7562:	6063      	str	r3, [r4, #4]
    7564:	6863      	ldr	r3, [r4, #4]
    7566:	493e      	ldr	r1, [pc, #248]	; (7660 <_scanf_i+0x1e8>)
    7568:	6960      	ldr	r0, [r4, #20]
    756a:	1ac9      	subs	r1, r1, r3
    756c:	f000 fa7a 	bl	7a64 <__sccl>
    7570:	465d      	mov	r5, r11
    7572:	f04f 0b00 	mov.w	r11, #0
    7576:	68a3      	ldr	r3, [r4, #8]
    7578:	2b00      	cmp	r3, #0
    757a:	d02f      	beq.n	75dc <_scanf_i+0x164>
    757c:	6832      	ldr	r2, [r6, #0]
    757e:	6960      	ldr	r0, [r4, #20]
    7580:	7811      	ldrb	r1, [r2, #0]
    7582:	5c40      	ldrb	r0, [r0, r1]
    7584:	b350      	cbz	r0, 75dc <_scanf_i+0x164>
    7586:	2930      	cmp	r1, #48	; 0x30
    7588:	6821      	ldr	r1, [r4, #0]
    758a:	d10b      	bne.n	75a4 <_scanf_i+0x12c>
    758c:	0508      	lsls	r0, r1, #20
    758e:	d509      	bpl.n	75a4 <_scanf_i+0x12c>
    7590:	f10b 0b01 	add.w	r11, r11, #1
    7594:	f1ba 0f00 	cmp.w	r10, #0
    7598:	d00b      	beq.n	75b2 <_scanf_i+0x13a>
    759a:	3301      	adds	r3, #1
    759c:	f10a 3aff 	add.w	r10, r10, #4294967295	; 0xffffffff
    75a0:	60a3      	str	r3, [r4, #8]
    75a2:	e006      	b.n	75b2 <_scanf_i+0x13a>
    75a4:	f421 6110 	bic.w	r1, r1, #2304	; 0x900
    75a8:	6021      	str	r1, [r4, #0]
    75aa:	7813      	ldrb	r3, [r2, #0]
    75ac:	3501      	adds	r5, #1
    75ae:	f805 3c01 	strb.w	r3, [r5, #-1]
    75b2:	6873      	ldr	r3, [r6, #4]
    75b4:	3b01      	subs	r3, #1
    75b6:	2b00      	cmp	r3, #0
    75b8:	6073      	str	r3, [r6, #4]
    75ba:	dd03      	ble.n	75c4 <_scanf_i+0x14c>
    75bc:	6833      	ldr	r3, [r6, #0]
    75be:	3301      	adds	r3, #1
    75c0:	6033      	str	r3, [r6, #0]
    75c2:	e005      	b.n	75d0 <_scanf_i+0x158>
    75c4:	f8d4 3180 	ldr.w	r3, [r4, #384]	; 0x180
    75c8:	4648      	mov	r0, r9
    75ca:	4631      	mov	r1, r6
    75cc:	4798      	blx	r3
    75ce:	b928      	cbnz	r0, 75dc <_scanf_i+0x164>
    75d0:	68a3      	ldr	r3, [r4, #8]
    75d2:	3b01      	subs	r3, #1
    75d4:	60a3      	str	r3, [r4, #8]
    75d6:	e7ce      	b.n	7576 <_scanf_i+0xfe>
    75d8:	f04f 0b00 	mov.w	r11, #0
    75dc:	6823      	ldr	r3, [r4, #0]
    75de:	05d9      	lsls	r1, r3, #23
    75e0:	d50d      	bpl.n	75fe <_scanf_i+0x186>
    75e2:	42bd      	cmp	r5, r7
    75e4:	d909      	bls.n	75fa <_scanf_i+0x182>
    75e6:	f815 1c01 	ldrb.w	r1, [r5, #-1]
    75ea:	f8d4 317c 	ldr.w	r3, [r4, #380]	; 0x17c
    75ee:	4648      	mov	r0, r9
    75f0:	4632      	mov	r2, r6
    75f2:	4798      	blx	r3
    75f4:	f105 3aff 	add.w	r10, r5, #4294967295	; 0xffffffff
    75f8:	4655      	mov	r5, r10
    75fa:	42bd      	cmp	r5, r7
    75fc:	d026      	beq.n	764c <_scanf_i+0x1d4>
    75fe:	6822      	ldr	r2, [r4, #0]
    7600:	f012 0210 	ands.w	r2, r2, #16
    7604:	d11b      	bne.n	763e <_scanf_i+0x1c6>
    7606:	702a      	strb	r2, [r5, #0]
    7608:	6863      	ldr	r3, [r4, #4]
    760a:	4648      	mov	r0, r9
    760c:	4639      	mov	r1, r7
    760e:	9e03      	ldr	r6, [sp, #12]
    7610:	47b0      	blx	r6
    7612:	6822      	ldr	r2, [r4, #0]
    7614:	f8d8 3000 	ldr.w	r3, [r8]
    7618:	f012 0f20 	tst.w	r2, #32
    761c:	d107      	bne.n	762e <_scanf_i+0x1b6>
    761e:	07d2      	lsls	r2, r2, #31
    7620:	d505      	bpl.n	762e <_scanf_i+0x1b6>
    7622:	1d1a      	adds	r2, r3, #4
    7624:	f8c8 2000 	str.w	r2, [r8]
    7628:	681b      	ldr	r3, [r3, #0]
    762a:	8018      	strh	r0, [r3, #0]
    762c:	e004      	b.n	7638 <_scanf_i+0x1c0>
    762e:	1d1a      	adds	r2, r3, #4
    7630:	f8c8 2000 	str.w	r2, [r8]
    7634:	681b      	ldr	r3, [r3, #0]
    7636:	6018      	str	r0, [r3, #0]
    7638:	68e3      	ldr	r3, [r4, #12]
    763a:	3301      	adds	r3, #1
    763c:	60e3      	str	r3, [r4, #12]
    763e:	6923      	ldr	r3, [r4, #16]
    7640:	1bed      	subs	r5, r5, r7
    7642:	44ab      	add	r11, r5
    7644:	445b      	add	r3, r11
    7646:	6123      	str	r3, [r4, #16]
    7648:	2000      	movs	r0, #0
    764a:	e000      	b.n	764e <_scanf_i+0x1d6>
    764c:	2001      	movs	r0, #1
    764e:	b009      	add	sp, #36	; 0x24
    7650:	e8bd 8ff0 	ldmia.w	sp!, {r4, r5, r6, r7, r8, r9, r10, r11, pc}
    7654:	00008ed0 	.word	0x00008ed0
    7658:	00007ac9 	.word	0x00007ac9
    765c:	00007bcd 	.word	0x00007bcd
    7660:	00008eec 	.word	0x00008eec

00007664 <__swbuf_r>:
    7664:	b570      	push	{r4, r5, r6, lr}
    7666:	460e      	mov	r6, r1
    7668:	4614      	mov	r4, r2
    766a:	4605      	mov	r5, r0
    766c:	b118      	cbz	r0, 7676 <__swbuf_r+0x12>
    766e:	6983      	ldr	r3, [r0, #24]
    7670:	b90b      	cbnz	r3, 7676 <__swbuf_r+0x12>
    7672:	f7fe f8cb 	bl	580c <__sinit>
    7676:	4b22      	ldr	r3, [pc, #136]	; (7700 <__swbuf_r+0x9c>)
    7678:	429c      	cmp	r4, r3
    767a:	d101      	bne.n	7680 <__swbuf_r+0x1c>
    767c:	686c      	ldr	r4, [r5, #4]
    767e:	e008      	b.n	7692 <__swbuf_r+0x2e>
    7680:	4b20      	ldr	r3, [pc, #128]	; (7704 <__swbuf_r+0xa0>)
    7682:	429c      	cmp	r4, r3
    7684:	d101      	bne.n	768a <__swbuf_r+0x26>
    7686:	68ac      	ldr	r4, [r5, #8]
    7688:	e003      	b.n	7692 <__swbuf_r+0x2e>
    768a:	4b1f      	ldr	r3, [pc, #124]	; (7708 <__swbuf_r+0xa4>)
    768c:	429c      	cmp	r4, r3
    768e:	bf08      	it	eq
    7690:	68ec      	ldreq	r4, [r5, #12]
    7692:	69a3      	ldr	r3, [r4, #24]
    7694:	60a3      	str	r3, [r4, #8]
    7696:	89a3      	ldrh	r3, [r4, #12]
    7698:	071a      	lsls	r2, r3, #28
    769a:	d509      	bpl.n	76b0 <__swbuf_r+0x4c>
    769c:	6923      	ldr	r3, [r4, #16]
    769e:	b13b      	cbz	r3, 76b0 <__swbuf_r+0x4c>
    76a0:	6923      	ldr	r3, [r4, #16]
    76a2:	6820      	ldr	r0, [r4, #0]
    76a4:	b2f6      	uxtb	r6, r6
    76a6:	1ac0      	subs	r0, r0, r3
    76a8:	6963      	ldr	r3, [r4, #20]
    76aa:	4298      	cmp	r0, r3
    76ac:	db0f      	blt.n	76ce <__swbuf_r+0x6a>
    76ae:	e008      	b.n	76c2 <__swbuf_r+0x5e>
    76b0:	4628      	mov	r0, r5
    76b2:	4621      	mov	r1, r4
    76b4:	f000 f83c 	bl	7730 <__swsetup_r>
    76b8:	2800      	cmp	r0, #0
    76ba:	d0f1      	beq.n	76a0 <__swbuf_r+0x3c>
    76bc:	f04f 30ff 	mov.w	r0, #4294967295	; 0xffffffff
    76c0:	bd70      	pop	{r4, r5, r6, pc}
    76c2:	4628      	mov	r0, r5
    76c4:	4621      	mov	r1, r4
    76c6:	f7fd ffdd 	bl	5684 <_fflush_r>
    76ca:	2800      	cmp	r0, #0
    76cc:	d1f6      	bne.n	76bc <__swbuf_r+0x58>
    76ce:	68a3      	ldr	r3, [r4, #8]
    76d0:	3001      	adds	r0, #1
    76d2:	3b01      	subs	r3, #1
    76d4:	60a3      	str	r3, [r4, #8]
    76d6:	6823      	ldr	r3, [r4, #0]
    76d8:	1c5a      	adds	r2, r3, #1
    76da:	6022      	str	r2, [r4, #0]
    76dc:	701e      	strb	r6, [r3, #0]
    76de:	6963      	ldr	r3, [r4, #20]
    76e0:	4298      	cmp	r0, r3
    76e2:	d004      	beq.n	76ee <__swbuf_r+0x8a>
    76e4:	89a3      	ldrh	r3, [r4, #12]
    76e6:	07db      	lsls	r3, r3, #31
    76e8:	d507      	bpl.n	76fa <__swbuf_r+0x96>
    76ea:	2e0a      	cmp	r6, #10
    76ec:	d105      	bne.n	76fa <__swbuf_r+0x96>
    76ee:	4628      	mov	r0, r5
    76f0:	4621      	mov	r1, r4
    76f2:	f7fd ffc7 	bl	5684 <_fflush_r>
    76f6:	2800      	cmp	r0, #0
    76f8:	d1e0      	bne.n	76bc <__swbuf_r+0x58>
    76fa:	4630      	mov	r0, r6
    76fc:	bd70      	pop	{r4, r5, r6, pc}
    76fe:	bf00      	nop
    7700:	00008858 	.word	0x00008858
    7704:	00008878 	.word	0x00008878
    7708:	00008898 	.word	0x00008898

0000770c <_write_r>:
    770c:	b538      	push	{r3, r4, r5, lr}
    770e:	4c07      	ldr	r4, [pc, #28]	; (772c <_write_r+0x20>)
    7710:	4605      	mov	r5, r0
    7712:	2000      	movs	r0, #0
    7714:	6020      	str	r0, [r4, #0]
    7716:	4608      	mov	r0, r1
    7718:	4611      	mov	r1, r2
    771a:	461a      	mov	r2, r3
    771c:	f7fc ff50 	bl	45c0 <_write>
    7720:	1c43      	adds	r3, r0, #1
    7722:	d102      	bne.n	772a <_write_r+0x1e>
    7724:	6823      	ldr	r3, [r4, #0]
    7726:	b103      	cbz	r3, 772a <_write_r+0x1e>
    7728:	602b      	str	r3, [r5, #0]
    772a:	bd38      	pop	{r3, r4, r5, pc}
    772c:	10001010 	.word	0x10001010

00007730 <__swsetup_r>:
    7730:	4b32      	ldr	r3, [pc, #200]	; (77fc <__swsetup_r+0xcc>)
    7732:	b570      	push	{r4, r5, r6, lr}
    7734:	681d      	ldr	r5, [r3, #0]
    7736:	4606      	mov	r6, r0
    7738:	460c      	mov	r4, r1
    773a:	b125      	cbz	r5, 7746 <__swsetup_r+0x16>
    773c:	69ab      	ldr	r3, [r5, #24]
    773e:	b913      	cbnz	r3, 7746 <__swsetup_r+0x16>
    7740:	4628      	mov	r0, r5
    7742:	f7fe f863 	bl	580c <__sinit>
    7746:	4b2e      	ldr	r3, [pc, #184]	; (7800 <__swsetup_r+0xd0>)
    7748:	429c      	cmp	r4, r3
    774a:	d101      	bne.n	7750 <__swsetup_r+0x20>
    774c:	686c      	ldr	r4, [r5, #4]
    774e:	e008      	b.n	7762 <__swsetup_r+0x32>
    7750:	4b2c      	ldr	r3, [pc, #176]	; (7804 <__swsetup_r+0xd4>)
    7752:	429c      	cmp	r4, r3
    7754:	d101      	bne.n	775a <__swsetup_r+0x2a>
    7756:	68ac      	ldr	r4, [r5, #8]
    7758:	e003      	b.n	7762 <__swsetup_r+0x32>
    775a:	4b2b      	ldr	r3, [pc, #172]	; (7808 <__swsetup_r+0xd8>)
    775c:	429c      	cmp	r4, r3
    775e:	bf08      	it	eq
    7760:	68ec      	ldreq	r4, [r5, #12]
    7762:	89a2      	ldrh	r2, [r4, #12]
    7764:	b293      	uxth	r3, r2
    7766:	0719      	lsls	r1, r3, #28
    7768:	d420      	bmi.n	77ac <__swsetup_r+0x7c>
    776a:	06dd      	lsls	r5, r3, #27
    776c:	d405      	bmi.n	777a <__swsetup_r+0x4a>
    776e:	2309      	movs	r3, #9
    7770:	f042 0240 	orr.w	r2, r2, #64	; 0x40
    7774:	6033      	str	r3, [r6, #0]
    7776:	81a2      	strh	r2, [r4, #12]
    7778:	e03b      	b.n	77f2 <__swsetup_r+0xc2>
    777a:	0758      	lsls	r0, r3, #29
    777c:	d512      	bpl.n	77a4 <__swsetup_r+0x74>
    777e:	6b61      	ldr	r1, [r4, #52]	; 0x34
    7780:	b141      	cbz	r1, 7794 <__swsetup_r+0x64>
    7782:	f104 0344 	add.w	r3, r4, #68	; 0x44
    7786:	4299      	cmp	r1, r3
    7788:	d002      	beq.n	7790 <__swsetup_r+0x60>
    778a:	4630      	mov	r0, r6
    778c:	f7fe fb02 	bl	5d94 <_free_r>
    7790:	2300      	movs	r3, #0
    7792:	6363      	str	r3, [r4, #52]	; 0x34
    7794:	89a3      	ldrh	r3, [r4, #12]
    7796:	f023 0324 	bic.w	r3, r3, #36	; 0x24
    779a:	81a3      	strh	r3, [r4, #12]
    779c:	2300      	movs	r3, #0
    779e:	6063      	str	r3, [r4, #4]
    77a0:	6923      	ldr	r3, [r4, #16]
    77a2:	6023      	str	r3, [r4, #0]
    77a4:	89a3      	ldrh	r3, [r4, #12]
    77a6:	f043 0308 	orr.w	r3, r3, #8
    77aa:	81a3      	strh	r3, [r4, #12]
    77ac:	6923      	ldr	r3, [r4, #16]
    77ae:	b94b      	cbnz	r3, 77c4 <__swsetup_r+0x94>
    77b0:	89a3      	ldrh	r3, [r4, #12]
    77b2:	f403 7320 	and.w	r3, r3, #640	; 0x280
    77b6:	f5b3 7f00 	cmp.w	r3, #512	; 0x200
    77ba:	d003      	beq.n	77c4 <__swsetup_r+0x94>
    77bc:	4630      	mov	r0, r6
    77be:	4621      	mov	r1, r4
    77c0:	f7fe fa6c 	bl	5c9c <__smakebuf_r>
    77c4:	89a3      	ldrh	r3, [r4, #12]
    77c6:	f013 0201 	ands.w	r2, r3, #1
    77ca:	d005      	beq.n	77d8 <__swsetup_r+0xa8>
    77cc:	2200      	movs	r2, #0
    77ce:	60a2      	str	r2, [r4, #8]
    77d0:	6962      	ldr	r2, [r4, #20]
    77d2:	4252      	negs	r2, r2
    77d4:	61a2      	str	r2, [r4, #24]
    77d6:	e003      	b.n	77e0 <__swsetup_r+0xb0>
    77d8:	0799      	lsls	r1, r3, #30
    77da:	bf58      	it	pl
    77dc:	6962      	ldrpl	r2, [r4, #20]
    77de:	60a2      	str	r2, [r4, #8]
    77e0:	6922      	ldr	r2, [r4, #16]
    77e2:	b94a      	cbnz	r2, 77f8 <__swsetup_r+0xc8>
    77e4:	f003 0080 	and.w	r0, r3, #128	; 0x80
    77e8:	b280      	uxth	r0, r0
    77ea:	b130      	cbz	r0, 77fa <__swsetup_r+0xca>
    77ec:	f043 0340 	orr.w	r3, r3, #64	; 0x40
    77f0:	81a3      	strh	r3, [r4, #12]
    77f2:	f04f 30ff 	mov.w	r0, #4294967295	; 0xffffffff
    77f6:	bd70      	pop	{r4, r5, r6, pc}
    77f8:	2000      	movs	r0, #0
    77fa:	bd70      	pop	{r4, r5, r6, pc}
    77fc:	100001b8 	.word	0x100001b8
    7800:	00008858 	.word	0x00008858
    7804:	00008878 	.word	0x00008878
    7808:	00008898 	.word	0x00008898

0000780c <__register_exitproc>:
    780c:	e92d 43f8 	stmdb	sp!, {r3, r4, r5, r6, r7, r8, r9, lr}
    7810:	4d29      	ldr	r5, [pc, #164]	; (78b8 <__register_exitproc+0xac>)
    7812:	4606      	mov	r6, r0
    7814:	682c      	ldr	r4, [r5, #0]
    7816:	460f      	mov	r7, r1
    7818:	4691      	mov	r9, r2
    781a:	4698      	mov	r8, r3
    781c:	b90c      	cbnz	r4, 7822 <__register_exitproc+0x16>
    781e:	4c27      	ldr	r4, [pc, #156]	; (78bc <__register_exitproc+0xb0>)
    7820:	602c      	str	r4, [r5, #0]
    7822:	6863      	ldr	r3, [r4, #4]
    7824:	2b1f      	cmp	r3, #31
    7826:	dd12      	ble.n	784e <__register_exitproc+0x42>
    7828:	4b25      	ldr	r3, [pc, #148]	; (78c0 <__register_exitproc+0xb4>)
    782a:	b91b      	cbnz	r3, 7834 <__register_exitproc+0x28>
    782c:	f04f 30ff 	mov.w	r0, #4294967295	; 0xffffffff
    7830:	e8bd 83f8 	ldmia.w	sp!, {r3, r4, r5, r6, r7, r8, r9, pc}
    7834:	208c      	movs	r0, #140	; 0x8c
    7836:	f7f8 fce1 	bl	1fc <__wrap_malloc>
    783a:	4604      	mov	r4, r0
    783c:	2800      	cmp	r0, #0
    783e:	d0f5      	beq.n	782c <__register_exitproc+0x20>
    7840:	682a      	ldr	r2, [r5, #0]
    7842:	2300      	movs	r3, #0
    7844:	6002      	str	r2, [r0, #0]
    7846:	6043      	str	r3, [r0, #4]
    7848:	6028      	str	r0, [r5, #0]
    784a:	f8c0 3088 	str.w	r3, [r0, #136]	; 0x88
    784e:	b34e      	cbz	r6, 78a4 <__register_exitproc+0x98>
    7850:	f8d4 0088 	ldr.w	r0, [r4, #136]	; 0x88
    7854:	b978      	cbnz	r0, 7876 <__register_exitproc+0x6a>
    7856:	4b1a      	ldr	r3, [pc, #104]	; (78c0 <__register_exitproc+0xb4>)
    7858:	2b00      	cmp	r3, #0
    785a:	d0e7      	beq.n	782c <__register_exitproc+0x20>
    785c:	f44f 7084 	mov.w	r0, #264	; 0x108
    7860:	f7f8 fccc 	bl	1fc <__wrap_malloc>
    7864:	2800      	cmp	r0, #0
    7866:	d0e1      	beq.n	782c <__register_exitproc+0x20>
    7868:	2300      	movs	r3, #0
    786a:	f8c0 3100 	str.w	r3, [r0, #256]	; 0x100
    786e:	f8c0 3104 	str.w	r3, [r0, #260]	; 0x104
    7872:	f8c4 0088 	str.w	r0, [r4, #136]	; 0x88
    7876:	6865      	ldr	r5, [r4, #4]
    7878:	2301      	movs	r3, #1
    787a:	f840 9025 	str.w	r9, [r0, r5, lsl #2]
    787e:	eb00 0285 	add.w	r2, r0, r5, lsl #2
    7882:	fa03 f505 	lsl.w	r5, r3, r5
    7886:	f8d0 3100 	ldr.w	r3, [r0, #256]	; 0x100
    788a:	2e02      	cmp	r6, #2
    788c:	ea43 0305 	orr.w	r3, r3, r5
    7890:	f8c0 3100 	str.w	r3, [r0, #256]	; 0x100
    7894:	f8c2 8080 	str.w	r8, [r2, #128]	; 0x80
    7898:	d104      	bne.n	78a4 <__register_exitproc+0x98>
    789a:	f8d0 3104 	ldr.w	r3, [r0, #260]	; 0x104
    789e:	431d      	orrs	r5, r3
    78a0:	f8c0 5104 	str.w	r5, [r0, #260]	; 0x104
    78a4:	6863      	ldr	r3, [r4, #4]
    78a6:	2000      	movs	r0, #0
    78a8:	1c5a      	adds	r2, r3, #1
    78aa:	3302      	adds	r3, #2
    78ac:	6062      	str	r2, [r4, #4]
    78ae:	f844 7023 	str.w	r7, [r4, r3, lsl #2]
    78b2:	e8bd 83f8 	ldmia.w	sp!, {r3, r4, r5, r6, r7, r8, r9, pc}
    78b6:	bf00      	nop
    78b8:	1000049c 	.word	0x1000049c
    78bc:	10000410 	.word	0x10000410
    78c0:	000001fd 	.word	0x000001fd

000078c4 <_close_r>:
    78c4:	b538      	push	{r3, r4, r5, lr}
    78c6:	4c06      	ldr	r4, [pc, #24]	; (78e0 <_close_r+0x1c>)
    78c8:	2300      	movs	r3, #0
    78ca:	4605      	mov	r5, r0
    78cc:	4608      	mov	r0, r1
    78ce:	6023      	str	r3, [r4, #0]
    78d0:	f7fc fe60 	bl	4594 <_close>
    78d4:	1c43      	adds	r3, r0, #1
    78d6:	d102      	bne.n	78de <_close_r+0x1a>
    78d8:	6823      	ldr	r3, [r4, #0]
    78da:	b103      	cbz	r3, 78de <_close_r+0x1a>
    78dc:	602b      	str	r3, [r5, #0]
    78de:	bd38      	pop	{r3, r4, r5, pc}
    78e0:	10001010 	.word	0x10001010

000078e4 <__sflags>:
    78e4:	780b      	ldrb	r3, [r1, #0]
    78e6:	b530      	push	{r4, r5, lr}
    78e8:	2b72      	cmp	r3, #114	; 0x72
    78ea:	d009      	beq.n	7900 <__sflags+0x1c>
    78ec:	2b77      	cmp	r3, #119	; 0x77
    78ee:	d00b      	beq.n	7908 <__sflags+0x24>
    78f0:	2b61      	cmp	r3, #97	; 0x61
    78f2:	d10e      	bne.n	7912 <__sflags+0x2e>
    78f4:	f44f 7402 	mov.w	r4, #520	; 0x208
    78f8:	2301      	movs	r3, #1
    78fa:	f44f 7084 	mov.w	r0, #264	; 0x108
    78fe:	e01b      	b.n	7938 <__sflags+0x54>
    7900:	2400      	movs	r4, #0
    7902:	4623      	mov	r3, r4
    7904:	2004      	movs	r0, #4
    7906:	e017      	b.n	7938 <__sflags+0x54>
    7908:	f44f 64c0 	mov.w	r4, #1536	; 0x600
    790c:	2301      	movs	r3, #1
    790e:	2008      	movs	r0, #8
    7910:	e012      	b.n	7938 <__sflags+0x54>
    7912:	2316      	movs	r3, #22
    7914:	6003      	str	r3, [r0, #0]
    7916:	2000      	movs	r0, #0
    7918:	bd30      	pop	{r4, r5, pc}
    791a:	2d62      	cmp	r5, #98	; 0x62
    791c:	d010      	beq.n	7940 <__sflags+0x5c>
    791e:	2d78      	cmp	r5, #120	; 0x78
    7920:	d011      	beq.n	7946 <__sflags+0x62>
    7922:	2d2b      	cmp	r5, #43	; 0x2b
    7924:	d107      	bne.n	7936 <__sflags+0x52>
    7926:	f020 001c 	bic.w	r0, r0, #28
    792a:	f023 0303 	bic.w	r3, r3, #3
    792e:	f040 0010 	orr.w	r0, r0, #16
    7932:	f043 0302 	orr.w	r3, r3, #2
    7936:	3101      	adds	r1, #1
    7938:	784d      	ldrb	r5, [r1, #1]
    793a:	2d00      	cmp	r5, #0
    793c:	d1ed      	bne.n	791a <__sflags+0x36>
    793e:	e005      	b.n	794c <__sflags+0x68>
    7940:	f443 3380 	orr.w	r3, r3, #65536	; 0x10000
    7944:	e7f7      	b.n	7936 <__sflags+0x52>
    7946:	f443 6300 	orr.w	r3, r3, #2048	; 0x800
    794a:	e7f4      	b.n	7936 <__sflags+0x52>
    794c:	4323      	orrs	r3, r4
    794e:	6013      	str	r3, [r2, #0]
    7950:	bd30      	pop	{r4, r5, pc}
	...

00007954 <_fstat_r>:
    7954:	b538      	push	{r3, r4, r5, lr}
    7956:	4c07      	ldr	r4, [pc, #28]	; (7974 <_fstat_r+0x20>)
    7958:	2300      	movs	r3, #0
    795a:	4605      	mov	r5, r0
    795c:	4608      	mov	r0, r1
    795e:	4611      	mov	r1, r2
    7960:	6023      	str	r3, [r4, #0]
    7962:	f7fc fea3 	bl	46ac <_fstat>
    7966:	1c43      	adds	r3, r0, #1
    7968:	d102      	bne.n	7970 <_fstat_r+0x1c>
    796a:	6823      	ldr	r3, [r4, #0]
    796c:	b103      	cbz	r3, 7970 <_fstat_r+0x1c>
    796e:	602b      	str	r3, [r5, #0]
    7970:	bd38      	pop	{r3, r4, r5, pc}
    7972:	bf00      	nop
    7974:	10001010 	.word	0x10001010

00007978 <_isatty_r>:
    7978:	b538      	push	{r3, r4, r5, lr}
    797a:	4c06      	ldr	r4, [pc, #24]	; (7994 <_isatty_r+0x1c>)
    797c:	2300      	movs	r3, #0
    797e:	4605      	mov	r5, r0
    7980:	4608      	mov	r0, r1
    7982:	6023      	str	r3, [r4, #0]
    7984:	f7f8 fc34 	bl	1f0 <__wrap__isatty>
    7988:	1c43      	adds	r3, r0, #1
    798a:	d102      	bne.n	7992 <_isatty_r+0x1a>
    798c:	6823      	ldr	r3, [r4, #0]
    798e:	b103      	cbz	r3, 7992 <_isatty_r+0x1a>
    7990:	602b      	str	r3, [r5, #0]
    7992:	bd38      	pop	{r3, r4, r5, pc}
    7994:	10001010 	.word	0x10001010

00007998 <_lseek_r>:
    7998:	b538      	push	{r3, r4, r5, lr}
    799a:	4c07      	ldr	r4, [pc, #28]	; (79b8 <_lseek_r+0x20>)
    799c:	4605      	mov	r5, r0
    799e:	2000      	movs	r0, #0
    79a0:	6020      	str	r0, [r4, #0]
    79a2:	4608      	mov	r0, r1
    79a4:	4611      	mov	r1, r2
    79a6:	461a      	mov	r2, r3
    79a8:	f7fc fe6c 	bl	4684 <_lseek>
    79ac:	1c43      	adds	r3, r0, #1
    79ae:	d102      	bne.n	79b6 <_lseek_r+0x1e>
    79b0:	6823      	ldr	r3, [r4, #0]
    79b2:	b103      	cbz	r3, 79b6 <_lseek_r+0x1e>
    79b4:	602b      	str	r3, [r5, #0]
    79b6:	bd38      	pop	{r3, r4, r5, pc}
    79b8:	10001010 	.word	0x10001010

000079bc <memmove>:
    79bc:	4281      	cmp	r1, r0
    79be:	b570      	push	{r4, r5, r6, lr}
    79c0:	d301      	bcc.n	79c6 <memmove+0xa>
    79c2:	2300      	movs	r3, #0
    79c4:	e00e      	b.n	79e4 <memmove+0x28>
    79c6:	188c      	adds	r4, r1, r2
    79c8:	42a0      	cmp	r0, r4
    79ca:	d2fa      	bcs.n	79c2 <memmove+0x6>
    79cc:	1885      	adds	r5, r0, r2
    79ce:	4613      	mov	r3, r2
    79d0:	f113 33ff 	adds.w	r3, r3, #4294967295	; 0xffffffff
    79d4:	d305      	bcc.n	79e2 <memmove+0x26>
    79d6:	4251      	negs	r1, r2
    79d8:	1866      	adds	r6, r4, r1
    79da:	5cf6      	ldrb	r6, [r6, r3]
    79dc:	4429      	add	r1, r5
    79de:	54ce      	strb	r6, [r1, r3]
    79e0:	e7f6      	b.n	79d0 <memmove+0x14>
    79e2:	bd70      	pop	{r4, r5, r6, pc}
    79e4:	4293      	cmp	r3, r2
    79e6:	d003      	beq.n	79f0 <memmove+0x34>
    79e8:	5ccc      	ldrb	r4, [r1, r3]
    79ea:	54c4      	strb	r4, [r0, r3]
    79ec:	3301      	adds	r3, #1
    79ee:	e7f9      	b.n	79e4 <memmove+0x28>
    79f0:	bd70      	pop	{r4, r5, r6, pc}

000079f2 <_realloc_r>:
    79f2:	b5f8      	push	{r3, r4, r5, r6, r7, lr}
    79f4:	4606      	mov	r6, r0
    79f6:	4614      	mov	r4, r2
    79f8:	460d      	mov	r5, r1
    79fa:	b921      	cbnz	r1, 7a06 <_realloc_r+0x14>
    79fc:	4611      	mov	r1, r2
    79fe:	e8bd 40f8 	ldmia.w	sp!, {r3, r4, r5, r6, r7, lr}
    7a02:	f7fe ba0b 	b.w	5e1c <_malloc_r>
    7a06:	b91a      	cbnz	r2, 7a10 <_realloc_r+0x1e>
    7a08:	f7fe f9c4 	bl	5d94 <_free_r>
    7a0c:	4620      	mov	r0, r4
    7a0e:	bdf8      	pop	{r3, r4, r5, r6, r7, pc}
    7a10:	f000 f954 	bl	7cbc <_malloc_usable_size_r>
    7a14:	42a0      	cmp	r0, r4
    7a16:	d20e      	bcs.n	7a36 <_realloc_r+0x44>
    7a18:	4630      	mov	r0, r6
    7a1a:	4621      	mov	r1, r4
    7a1c:	f7fe f9fe 	bl	5e1c <_malloc_r>
    7a20:	4607      	mov	r7, r0
    7a22:	b150      	cbz	r0, 7a3a <_realloc_r+0x48>
    7a24:	4629      	mov	r1, r5
    7a26:	4622      	mov	r2, r4
    7a28:	f7fe f9a2 	bl	5d70 <memcpy>
    7a2c:	4630      	mov	r0, r6
    7a2e:	4629      	mov	r1, r5
    7a30:	f7fe f9b0 	bl	5d94 <_free_r>
    7a34:	e001      	b.n	7a3a <_realloc_r+0x48>
    7a36:	4628      	mov	r0, r5
    7a38:	bdf8      	pop	{r3, r4, r5, r6, r7, pc}
    7a3a:	4638      	mov	r0, r7
    7a3c:	bdf8      	pop	{r3, r4, r5, r6, r7, pc}
	...

00007a40 <_read_r>:
    7a40:	b538      	push	{r3, r4, r5, lr}
    7a42:	4c07      	ldr	r4, [pc, #28]	; (7a60 <_read_r+0x20>)
    7a44:	4605      	mov	r5, r0
    7a46:	2000      	movs	r0, #0
    7a48:	6020      	str	r0, [r4, #0]
    7a4a:	4608      	mov	r0, r1
    7a4c:	4611      	mov	r1, r2
    7a4e:	461a      	mov	r2, r3
    7a50:	f7fc fdde 	bl	4610 <_read>
    7a54:	1c43      	adds	r3, r0, #1
    7a56:	d102      	bne.n	7a5e <_read_r+0x1e>
    7a58:	6823      	ldr	r3, [r4, #0]
    7a5a:	b103      	cbz	r3, 7a5e <_read_r+0x1e>
    7a5c:	602b      	str	r3, [r5, #0]
    7a5e:	bd38      	pop	{r3, r4, r5, pc}
    7a60:	10001010 	.word	0x10001010

00007a64 <__sccl>:
    7a64:	b5f0      	push	{r4, r5, r6, r7, lr}
    7a66:	780b      	ldrb	r3, [r1, #0]
    7a68:	2b5e      	cmp	r3, #94	; 0x5e
    7a6a:	d002      	beq.n	7a72 <__sccl+0xe>
    7a6c:	1c4c      	adds	r4, r1, #1
    7a6e:	2100      	movs	r1, #0
    7a70:	e002      	b.n	7a78 <__sccl+0x14>
    7a72:	1c8c      	adds	r4, r1, #2
    7a74:	784b      	ldrb	r3, [r1, #1]
    7a76:	2101      	movs	r1, #1
    7a78:	2200      	movs	r2, #0
    7a7a:	5481      	strb	r1, [r0, r2]
    7a7c:	3201      	adds	r2, #1
    7a7e:	f5b2 7f80 	cmp.w	r2, #256	; 0x100
    7a82:	d1fa      	bne.n	7a7a <__sccl+0x16>
    7a84:	b90b      	cbnz	r3, 7a8a <__sccl+0x26>
    7a86:	1e65      	subs	r5, r4, #1
    7a88:	e01b      	b.n	7ac2 <__sccl+0x5e>
    7a8a:	f1c1 0701 	rsb	r7, r1, #1
    7a8e:	b2fe      	uxtb	r6, r7
    7a90:	54c6      	strb	r6, [r0, r3]
    7a92:	1c62      	adds	r2, r4, #1
    7a94:	f812 1c01 	ldrb.w	r1, [r2, #-1]
    7a98:	1e55      	subs	r5, r2, #1
    7a9a:	292d      	cmp	r1, #45	; 0x2d
    7a9c:	4614      	mov	r4, r2
    7a9e:	d004      	beq.n	7aaa <__sccl+0x46>
    7aa0:	295d      	cmp	r1, #93	; 0x5d
    7aa2:	d00d      	beq.n	7ac0 <__sccl+0x5c>
    7aa4:	b169      	cbz	r1, 7ac2 <__sccl+0x5e>
    7aa6:	460b      	mov	r3, r1
    7aa8:	e7f1      	b.n	7a8e <__sccl+0x2a>
    7aaa:	7815      	ldrb	r5, [r2, #0]
    7aac:	2d5d      	cmp	r5, #93	; 0x5d
    7aae:	d0fa      	beq.n	7aa6 <__sccl+0x42>
    7ab0:	429d      	cmp	r5, r3
    7ab2:	dbf8      	blt.n	7aa6 <__sccl+0x42>
    7ab4:	3301      	adds	r3, #1
    7ab6:	42ab      	cmp	r3, r5
    7ab8:	54c6      	strb	r6, [r0, r3]
    7aba:	dbfb      	blt.n	7ab4 <__sccl+0x50>
    7abc:	3202      	adds	r2, #2
    7abe:	e7e9      	b.n	7a94 <__sccl+0x30>
    7ac0:	4615      	mov	r5, r2
    7ac2:	4628      	mov	r0, r5
    7ac4:	bdf0      	pop	{r4, r5, r6, r7, pc}
	...

00007ac8 <_strtol_r>:
    7ac8:	4684      	mov	r12, r0
    7aca:	483f      	ldr	r0, [pc, #252]	; (7bc8 <_strtol_r+0x100>)
    7acc:	e92d 4ff0 	stmdb	sp!, {r4, r5, r6, r7, r8, r9, r10, r11, lr}
    7ad0:	f8d0 8000 	ldr.w	r8, [r0]
    7ad4:	460e      	mov	r6, r1
    7ad6:	4634      	mov	r4, r6
    7ad8:	f814 5b01 	ldrb.w	r5, [r4], #1
    7adc:	eb08 0005 	add.w	r0, r8, r5
    7ae0:	7840      	ldrb	r0, [r0, #1]
    7ae2:	f000 0008 	and.w	r0, r0, #8
    7ae6:	f000 07ff 	and.w	r7, r0, #255	; 0xff
    7aea:	b108      	cbz	r0, 7af0 <_strtol_r+0x28>
    7aec:	4626      	mov	r6, r4
    7aee:	e7f2      	b.n	7ad6 <_strtol_r+0xe>
    7af0:	2d2d      	cmp	r5, #45	; 0x2d
    7af2:	d103      	bne.n	7afc <_strtol_r+0x34>
    7af4:	1cb4      	adds	r4, r6, #2
    7af6:	7875      	ldrb	r5, [r6, #1]
    7af8:	2701      	movs	r7, #1
    7afa:	e003      	b.n	7b04 <_strtol_r+0x3c>
    7afc:	2d2b      	cmp	r5, #43	; 0x2b
    7afe:	bf04      	itt	eq
    7b00:	7875      	ldrbeq	r5, [r6, #1]
    7b02:	1cb4      	addeq	r4, r6, #2
    7b04:	f033 0010 	bics.w	r0, r3, #16
    7b08:	d10d      	bne.n	7b26 <_strtol_r+0x5e>
    7b0a:	2d30      	cmp	r5, #48	; 0x30
    7b0c:	d108      	bne.n	7b20 <_strtol_r+0x58>
    7b0e:	7820      	ldrb	r0, [r4, #0]
    7b10:	f000 00df 	and.w	r0, r0, #223	; 0xdf
    7b14:	2858      	cmp	r0, #88	; 0x58
    7b16:	d151      	bne.n	7bbc <_strtol_r+0xf4>
    7b18:	7865      	ldrb	r5, [r4, #1]
    7b1a:	2310      	movs	r3, #16
    7b1c:	3402      	adds	r4, #2
    7b1e:	e002      	b.n	7b26 <_strtol_r+0x5e>
    7b20:	2b00      	cmp	r3, #0
    7b22:	bf08      	it	eq
    7b24:	230a      	moveq	r3, #10
    7b26:	2f00      	cmp	r7, #0
    7b28:	bf0c      	ite	eq
    7b2a:	f06f 4a00 	mvneq.w	r10, #2147483648	; 0x80000000
    7b2e:	f04f 4a00 	movne.w	r10, #2147483648	; 0x80000000
    7b32:	fbba f9f3 	udiv	r9, r10, r3
    7b36:	fb03 aa19 	mls	r10, r3, r9, r10
    7b3a:	2600      	movs	r6, #0
    7b3c:	4630      	mov	r0, r6
    7b3e:	eb08 0b05 	add.w	r11, r8, r5
    7b42:	f89b b001 	ldrb.w	r11, [r11, #1]
    7b46:	f01b 0f04 	tst.w	r11, #4
    7b4a:	d001      	beq.n	7b50 <_strtol_r+0x88>
    7b4c:	3d30      	subs	r5, #48	; 0x30
    7b4e:	e00b      	b.n	7b68 <_strtol_r+0xa0>
    7b50:	f01b 0b03 	ands.w	r11, r11, #3
    7b54:	d01b      	beq.n	7b8e <_strtol_r+0xc6>
    7b56:	f1bb 0f01 	cmp.w	r11, #1
    7b5a:	bf14      	ite	ne
    7b5c:	f04f 0b57 	movne.w	r11, #87	; 0x57
    7b60:	f04f 0b37 	moveq.w	r11, #55	; 0x37
    7b64:	ebcb 0505 	rsb	r5, r11, r5
    7b68:	429d      	cmp	r5, r3
    7b6a:	da10      	bge.n	7b8e <_strtol_r+0xc6>
    7b6c:	f1b6 3fff 	cmp.w	r6, #4294967295	; 0xffffffff
    7b70:	d00a      	beq.n	7b88 <_strtol_r+0xc0>
    7b72:	4548      	cmp	r0, r9
    7b74:	d806      	bhi.n	7b84 <_strtol_r+0xbc>
    7b76:	d101      	bne.n	7b7c <_strtol_r+0xb4>
    7b78:	4555      	cmp	r5, r10
    7b7a:	dc03      	bgt.n	7b84 <_strtol_r+0xbc>
    7b7c:	fb03 5000 	mla	r0, r3, r0, r5
    7b80:	2601      	movs	r6, #1
    7b82:	e001      	b.n	7b88 <_strtol_r+0xc0>
    7b84:	f04f 36ff 	mov.w	r6, #4294967295	; 0xffffffff
    7b88:	f814 5b01 	ldrb.w	r5, [r4], #1
    7b8c:	e7d7      	b.n	7b3e <_strtol_r+0x76>
    7b8e:	1c73      	adds	r3, r6, #1
    7b90:	d10c      	bne.n	7bac <_strtol_r+0xe4>
    7b92:	2f00      	cmp	r7, #0
    7b94:	f04f 0322 	mov.w	r3, #34	; 0x22
    7b98:	bf0c      	ite	eq
    7b9a:	f06f 4000 	mvneq.w	r0, #2147483648	; 0x80000000
    7b9e:	f04f 4000 	movne.w	r0, #2147483648	; 0x80000000
    7ba2:	f8cc 3000 	str.w	r3, [r12]
    7ba6:	b92a      	cbnz	r2, 7bb4 <_strtol_r+0xec>
    7ba8:	e8bd 8ff0 	ldmia.w	sp!, {r4, r5, r6, r7, r8, r9, r10, r11, pc}
    7bac:	b107      	cbz	r7, 7bb0 <_strtol_r+0xe8>
    7bae:	4240      	negs	r0, r0
    7bb0:	b142      	cbz	r2, 7bc4 <_strtol_r+0xfc>
    7bb2:	b106      	cbz	r6, 7bb6 <_strtol_r+0xee>
    7bb4:	1e61      	subs	r1, r4, #1
    7bb6:	6011      	str	r1, [r2, #0]
    7bb8:	e8bd 8ff0 	ldmia.w	sp!, {r4, r5, r6, r7, r8, r9, r10, r11, pc}
    7bbc:	2b00      	cmp	r3, #0
    7bbe:	bf08      	it	eq
    7bc0:	2308      	moveq	r3, #8
    7bc2:	e7b0      	b.n	7b26 <_strtol_r+0x5e>
    7bc4:	e8bd 8ff0 	ldmia.w	sp!, {r4, r5, r6, r7, r8, r9, r10, r11, pc}
    7bc8:	100001bc 	.word	0x100001bc

00007bcc <_strtoul_r>:
    7bcc:	4684      	mov	r12, r0
    7bce:	483a      	ldr	r0, [pc, #232]	; (7cb8 <_strtoul_r+0xec>)
    7bd0:	e92d 4ff0 	stmdb	sp!, {r4, r5, r6, r7, r8, r9, r10, r11, lr}
    7bd4:	f8d0 8000 	ldr.w	r8, [r0]
    7bd8:	460e      	mov	r6, r1
    7bda:	4634      	mov	r4, r6
    7bdc:	f814 5b01 	ldrb.w	r5, [r4], #1
    7be0:	eb08 0005 	add.w	r0, r8, r5
    7be4:	7840      	ldrb	r0, [r0, #1]
    7be6:	f000 0008 	and.w	r0, r0, #8
    7bea:	f000 07ff 	and.w	r7, r0, #255	; 0xff
    7bee:	b108      	cbz	r0, 7bf4 <_strtoul_r+0x28>
    7bf0:	4626      	mov	r6, r4
    7bf2:	e7f2      	b.n	7bda <_strtoul_r+0xe>
    7bf4:	2d2d      	cmp	r5, #45	; 0x2d
    7bf6:	d103      	bne.n	7c00 <_strtoul_r+0x34>
    7bf8:	1cb4      	adds	r4, r6, #2
    7bfa:	7875      	ldrb	r5, [r6, #1]
    7bfc:	2701      	movs	r7, #1
    7bfe:	e003      	b.n	7c08 <_strtoul_r+0x3c>
    7c00:	2d2b      	cmp	r5, #43	; 0x2b
    7c02:	bf04      	itt	eq
    7c04:	7875      	ldrbeq	r5, [r6, #1]
    7c06:	1cb4      	addeq	r4, r6, #2
    7c08:	f033 0010 	bics.w	r0, r3, #16
    7c0c:	d10d      	bne.n	7c2a <_strtoul_r+0x5e>
    7c0e:	2d30      	cmp	r5, #48	; 0x30
    7c10:	d108      	bne.n	7c24 <_strtoul_r+0x58>
    7c12:	7820      	ldrb	r0, [r4, #0]
    7c14:	f000 00df 	and.w	r0, r0, #223	; 0xdf
    7c18:	2858      	cmp	r0, #88	; 0x58
    7c1a:	d147      	bne.n	7cac <_strtoul_r+0xe0>
    7c1c:	7865      	ldrb	r5, [r4, #1]
    7c1e:	2310      	movs	r3, #16
    7c20:	3402      	adds	r4, #2
    7c22:	e002      	b.n	7c2a <_strtoul_r+0x5e>
    7c24:	2b00      	cmp	r3, #0
    7c26:	bf08      	it	eq
    7c28:	230a      	moveq	r3, #10
    7c2a:	f04f 39ff 	mov.w	r9, #4294967295	; 0xffffffff
    7c2e:	fbb9 f9f3 	udiv	r9, r9, r3
    7c32:	fb03 fa09 	mul.w	r10, r3, r9
    7c36:	2600      	movs	r6, #0
    7c38:	ea6f 0a0a 	mvn.w	r10, r10
    7c3c:	4630      	mov	r0, r6
    7c3e:	eb08 0b05 	add.w	r11, r8, r5
    7c42:	f89b b001 	ldrb.w	r11, [r11, #1]
    7c46:	f01b 0f04 	tst.w	r11, #4
    7c4a:	d001      	beq.n	7c50 <_strtoul_r+0x84>
    7c4c:	3d30      	subs	r5, #48	; 0x30
    7c4e:	e00b      	b.n	7c68 <_strtoul_r+0x9c>
    7c50:	f01b 0b03 	ands.w	r11, r11, #3
    7c54:	d01a      	beq.n	7c8c <_strtoul_r+0xc0>
    7c56:	f1bb 0f01 	cmp.w	r11, #1
    7c5a:	bf14      	ite	ne
    7c5c:	f04f 0b57 	movne.w	r11, #87	; 0x57
    7c60:	f04f 0b37 	moveq.w	r11, #55	; 0x37
    7c64:	ebcb 0505 	rsb	r5, r11, r5
    7c68:	429d      	cmp	r5, r3
    7c6a:	da0f      	bge.n	7c8c <_strtoul_r+0xc0>
    7c6c:	2e00      	cmp	r6, #0
    7c6e:	db08      	blt.n	7c82 <_strtoul_r+0xb6>
    7c70:	4548      	cmp	r0, r9
    7c72:	d806      	bhi.n	7c82 <_strtoul_r+0xb6>
    7c74:	d101      	bne.n	7c7a <_strtoul_r+0xae>
    7c76:	4555      	cmp	r5, r10
    7c78:	dc03      	bgt.n	7c82 <_strtoul_r+0xb6>
    7c7a:	fb03 5000 	mla	r0, r3, r0, r5
    7c7e:	2601      	movs	r6, #1
    7c80:	e001      	b.n	7c86 <_strtoul_r+0xba>
    7c82:	f04f 36ff 	mov.w	r6, #4294967295	; 0xffffffff
    7c86:	f814 5b01 	ldrb.w	r5, [r4], #1
    7c8a:	e7d8      	b.n	7c3e <_strtoul_r+0x72>
    7c8c:	2e00      	cmp	r6, #0
    7c8e:	da05      	bge.n	7c9c <_strtoul_r+0xd0>
    7c90:	2322      	movs	r3, #34	; 0x22
    7c92:	f8cc 3000 	str.w	r3, [r12]
    7c96:	f04f 30ff 	mov.w	r0, #4294967295	; 0xffffffff
    7c9a:	e001      	b.n	7ca0 <_strtoul_r+0xd4>
    7c9c:	b107      	cbz	r7, 7ca0 <_strtoul_r+0xd4>
    7c9e:	4240      	negs	r0, r0
    7ca0:	b142      	cbz	r2, 7cb4 <_strtoul_r+0xe8>
    7ca2:	b106      	cbz	r6, 7ca6 <_strtoul_r+0xda>
    7ca4:	1e61      	subs	r1, r4, #1
    7ca6:	6011      	str	r1, [r2, #0]
    7ca8:	e8bd 8ff0 	ldmia.w	sp!, {r4, r5, r6, r7, r8, r9, r10, r11, pc}
    7cac:	2b00      	cmp	r3, #0
    7cae:	bf08      	it	eq
    7cb0:	2308      	moveq	r3, #8
    7cb2:	e7ba      	b.n	7c2a <_strtoul_r+0x5e>
    7cb4:	e8bd 8ff0 	ldmia.w	sp!, {r4, r5, r6, r7, r8, r9, r10, r11, pc}
    7cb8:	100001bc 	.word	0x100001bc

00007cbc <_malloc_usable_size_r>:
    7cbc:	f851 0c04 	ldr.w	r0, [r1, #-4]
    7cc0:	2800      	cmp	r0, #0
    7cc2:	da02      	bge.n	7cca <_malloc_usable_size_r+0xe>
    7cc4:	3904      	subs	r1, #4
    7cc6:	580b      	ldr	r3, [r1, r0]
    7cc8:	4418      	add	r0, r3
    7cca:	3804      	subs	r0, #4
    7ccc:	4770      	bx	lr
	...

00007cd0 <_init>:
    7cd0:	b5f8      	push	{r3, r4, r5, r6, r7, lr}
    7cd2:	bf00      	nop
    7cd4:	bcf8      	pop	{r3, r4, r5, r6, r7}
    7cd6:	bc08      	pop	{r3}
    7cd8:	469e      	mov	lr, r3
    7cda:	4770      	bx	lr

00007cdc <_fini>:
    7cdc:	b5f8      	push	{r3, r4, r5, r6, r7, lr}
    7cde:	bf00      	nop
    7ce0:	bcf8      	pop	{r3, r4, r5, r6, r7}
    7ce2:	bc08      	pop	{r3}
    7ce4:	469e      	mov	lr, r3
    7ce6:	4770      	bx	lr

00007ce8 <vtable for IUSBEnumerator>:
	...
    7cf0:	021d 0000 021d 0000 021d 0000 0000 0000     ................

00007d00 <vtable for USBHostSerial>:
	...
    7d08:	0225 0000 0415 0000 0229 0000 02e1 0000     %.......).......
    7d18:	058d 0000 fffc ffff 0000 0000 42d5 0000     .............B..
    7d28:	42d1 0000 4305 0000 4339 0000 4335 0000     .B...C..9C..5C..
    7d38:	433d 0000 4341 0000 0315 0000 05c9 0000     =C..AC..........
    7d48:	0369 0000 04f9 0000 0399 0000 03e5 0000     i...............
    7d58:	fff8 ffff 0000 0000 030d 0000 05c1 0000     ................
    7d68:	555b 4253 495f 464e 3a4f 2520 3a73 6425     [USB_INFO: %s:%d
    7d78:	4e5d 7765 5320 7265 6169 206c 6564 6976     ]New Serial devi
    7d88:	6563 203a 4956 3a44 3025 7834 5020 4449     ce: VID:%04x PID
    7d98:	253a 3430 2078 645b 7665 203a 7025 2d20     :%04x [dev: %p -
    7da8:	6920 746e 3a66 2520 5d64 0a0d 0000 0000      intf: %d]......
    7db8:	2e2e 2e2f 2f2e 7865 6574 6e72 6c61 6d2f     ../../external/m
    7dc8:	6562 2f64 696c 7262 7261 6569 2f73 5355     bed/libraries/US
    7dd8:	4842 736f 2f74 5355 4842 736f 5374 7265     BHost/USBHostSer
    7de8:	6169 2f6c 5355 4842 736f 5374 7265 6169     ial/USBHostSeria
    7df8:	2e6c 7063 0070 0000 6553 6972 6c61 0000     l.cpp...Serial..

00007e08 <vtable for USBHostSerialPort>:
	...
    7e10:	42d5 0000 42d1 0000 4305 0000 4339 0000     .B...B...C..9C..
    7e20:	4335 0000 433d 0000 4341 0000 0281 0000     5C..=C..AC......
    7e30:	02ad 0000 0369 0000 04f9 0000 0399 0000     ....i...........
    7e40:	03e5 0000 fffc ffff 0000 0000 02a5 0000     ................
    7e50:	02d9 0000 0000 0000 6e55 6e6b 776f 006e     ........Unknown.

00007e60 <vtable for USBHost>:
	...
    7e68:	0ab5 0000 0b35 0000 0bb1 0000 0000 0000     ....5...........
    7e78:	7245 6f72 2072 6e69 7469 6169 696c 6973     Error initialisi
    7e88:	676e 7420 6568 7120 6575 6575 6f20 6a62     ng the queue obj
    7e98:	6365 0a74 0000 0000 555b 4253 455f 5252     ect.....[USB_ERR
    7ea8:	203a 7325 253a 5d64 5548 2042 554e 4c4c     : %s:%d]HUB NULL
    7eb8:	2121 2121 0d21 0d0a 000a 0000 2e2e 2e2f     !!!!!........./.
    7ec8:	2f2e 7865 6574 6e72 6c61 6d2f 6562 2f64     ./external/mbed/
    7ed8:	696c 7262 7261 6569 2f73 5355 4842 736f     libraries/USBHos
    7ee8:	2f74 5355 4842 736f 2f74 5355 4842 736f     t/USBHost/USBHos
    7ef8:	2e74 7063 0070 0000 555b 4253 495f 464e     t.cpp...[USB_INF
    7f08:	3a4f 2520 3a73 6425 445d 7665 6369 2065     O: %s:%d]Device 
    7f18:	6964 6373 6e6f 656e 7463 6465 5b20 7025     disconnected [%p
    7f28:	2d20 2520 2073 202d 7568 3a62 2520 2064      - %s - hub: %d 
    7f38:	202d 6f70 7472 203a 6425 0d5d 000a 0000     - port: %d].....
    7f48:	555b 4253 455f 5252 203a 7325 253a 5d64     [USB_ERR: %s:%d]
    7f58:	6f63 6c75 2064 6f6e 2074 6c61 6f6c 6163     could not alloca
    7f68:	6574 6d20 726f 2065 6e65 7064 696f 746e     te more endpoint
    7f78:	2173 2121 0d21 000a 555b 4253 455f 5252     s!!!!...[USB_ERR
    7f88:	203a 7325 253a 5d64 6564 2076 554e 4c4c     : %s:%d]dev NULL
    7f98:	0a0d 0000 555b 4253 455f 5252 203a 7325     ....[USB_ERR: %s
    7fa8:	253a 5d64 7065 4e20 4c55 0d4c 000a 0000     :%d]ep NULL.....
    7fb8:	555b 4253 575f 5241 494e 474e 203a 7325     [USB_WARNING: %s
    7fc8:	253a 5d64 655b 3a70 2520 2070 202d 6564     :%d][ep: %p - de
    7fd8:	3a76 2520 2070 202d 7325 205d 4f4e 2054     v: %p - %s] NOT 
    7fe8:	4449 454c 203a 7325 0a0d 0000 555b 4253     IDLE: %s....[USB
    7ff8:	455f 5252 203a 7325 253a 5d64 655b 3a70     _ERR: %s:%d][ep:
    8008:	2520 2070 202d 6564 3a76 2520 5d70 5520      %p - dev: %p] U
    8018:	4253 6e45 7064 696f 746e 6120 6464 2072     SBEndpoint addr 
    8028:	6e61 2064 6564 6976 6563 6120 6464 2072     and device addr 
    8038:	6f64 276e 2074 616d 6374 0d68 000a 0000     don't match.....
    8048:	555b 4253 455f 5252 203a 7325 253a 5d64     [USB_ERR: %s:%d]
    8058:	655b 3a70 2520 2070 202d 6564 3a76 2520     [ep: %p - dev: %
    8068:	5d70 7720 6f72 676e 6420 7269 6f20 2072     p] wrong dir or 
    8078:	6162 2064 5355 4542 646e 6f70 6e69 2074     bad USBEndpoint 
    8088:	7974 6570 0a0d 0000 555b 4253 455f 5252     type....[USB_ERR
    8098:	203a 7325 253a 5d64 4547 2054 4f43 464e     : %s:%d]GET CONF
    80a8:	3120 4420 5345 5243 4620 4941 454c 0d44      1 DESCR FAILED.
    80b8:	000a 0000 555b 4253 455f 5252 203a 7325     ....[USB_ERR: %s
    80c8:	253a 5d64 7375 5f62 6874 6572 6461 6320     :%d]usb_thread c
    80d8:	756f 646c 6e20 746f 7220 6165 2064 6564     ould not read de
    80e8:	2076 6564 6373 0d72 000a 0000 555b 4253     v descr.....[USB
    80f8:	455f 5252 203a 7325 253a 5d64 4553 2054     _ERR: %s:%d]SET 
    8108:	4441 5244 4620 4941 454c 0d44 000a 0000     ADDR FAILED.....
    8118:	555b 4253 495f 464e 3a4f 2520 3a73 6425     [USB_INFO: %s:%d
    8128:	4e5d 7765 6420 7665 6369 2065 6f63 6e6e     ]New device conn
    8138:	6365 6574 3a64 2520 2070 685b 6275 203a     ected: %p [hub: 
    8148:	6425 2d20 7020 726f 3a74 2520 5d64 0a0d     %d - port: %d]..
    8158:	0000 0000 555b 4253 575f 5241 494e 474e     ....[USB_WARNING
    8168:	203a 7325 253a 5d64 6474 2520 2070 7270     : %s:%d]td %p pr
    8178:	636f 7365 6573 2064 7562 2074 6f6e 2074     ocessed but not 
    8188:	6e69 6920 6c64 2065 7473 7461 3a65 2520     in idle state: %
    8198:	2073 655b 3a70 2520 2070 202d 6564 3a76     s [ep: %p - dev:
    81a8:	2520 2070 202d 7325 0d5d 000a 555b 4253      %p - %s]...[USB
    81b8:	455f 5252 203a 7325 253a 5d64 6f54 206f     _ERR: %s:%d]Too 
    81c8:	616d 796e 6420 7665 6369 2065 6f63 6e6e     many device conn
    81d8:	6365 6574 2164 0d21 0d0a 000a 555b 4253     ected!!.....[USB
    81e8:	455f 5252 203a 7325 253a 5d64 6f54 206f     _ERR: %s:%d]Too 
    81f8:	616d 796e 6820 6275 2073 6f63 6e6e 6365     many hubs connec
    8208:	6574 2164 0d21 0d0a 000a 0000 0000 0000     ted!!...........

00008218 <vtable for USBHostHub>:
	...
    8220:	1e6d 0000 1e71 0000 1e99 0000 0000 0000     m...q...........
    8230:	555b 4253 495f 464e 3a4f 2520 3a73 6425     [USB_INFO: %s:%d
    8240:	4e5d 7765 4820 4255 203a 4956 3a44 3025     ]New HUB: VID:%0
    8250:	7834 5020 4449 253a 3430 2078 645b 7665     4x PID:%04x [dev
    8260:	203a 7025 2d20 6920 746e 3a66 2520 5d64     : %p - intf: %d]
    8270:	0a0d 0000 2e2e 2e2f 2f2e 7865 6574 6e72     ....../../extern
    8280:	6c61 6d2f 6562 2f64 696c 7262 7261 6569     al/mbed/librarie
    8290:	2f73 5355 4842 736f 2f74 5355 4842 736f     s/USBHost/USBHos
    82a0:	4874 6275 552f 4253 6f48 7473 7548 2e62     tHub/USBHostHub.
    82b0:	7063 0070 7548 0062 555b 4253 455f 5252     cpp.Hub.[USB_ERR
    82c0:	203a 7325 253a 5d64 564f 5245 4320 5255     : %s:%d]OVER CUR
    82d0:	4552 544e 4420 5445 4345 4554 0d44 0d0a     RENT DETECTED...
    82e0:	000a 0000 5355 5f42 5954 4550 4f5f 004b     ....USB_TYPE_OK.
    82f0:	5355 5f42 5954 4550 435f 4352 455f 5252     USB_TYPE_CRC_ERR
    8300:	524f 0000 5355 5f42 5954 4550 425f 5449     OR..USB_TYPE_BIT
    8310:	535f 5554 4646 4e49 5f47 5245 4f52 0052     _STUFFING_ERROR.
    8320:	5355 5f42 5954 4550 445f 5441 5f41 4f54     USB_TYPE_DATA_TO
    8330:	4747 454c 4d5f 5349 414d 4354 5f48 5245     GGLE_MISMATCH_ER
    8340:	4f52 0052 5355 5f42 5954 4550 535f 4154     ROR.USB_TYPE_STA
    8350:	4c4c 455f 5252 524f 0000 0000 5355 5f42     LL_ERROR....USB_
    8360:	5954 4550 445f 5645 4349 5f45 4f4e 5f54     TYPE_DEVICE_NOT_
    8370:	4552 5053 4e4f 4944 474e 455f 5252 524f     RESPONDING_ERROR
    8380:	0000 0000 5355 5f42 5954 4550 505f 4449     ....USB_TYPE_PID
    8390:	435f 4548 4b43 465f 4941 554c 4552 455f     _CHECK_FAILURE_E
    83a0:	5252 524f 0000 0000 5355 5f42 5954 4550     RROR....USB_TYPE
    83b0:	555f 454e 5058 4345 4554 5f44 4950 5f44     _UNEXPECTED_PID_
    83c0:	5245 4f52 0052 0000 5355 5f42 5954 4550     ERROR...USB_TYPE
    83d0:	445f 5441 5f41 564f 5245 5552 5f4e 5245     _DATA_OVERRUN_ER
    83e0:	4f52 0052 5355 5f42 5954 4550 445f 5441     ROR.USB_TYPE_DAT
    83f0:	5f41 4e55 4544 5252 4e55 455f 5252 524f     A_UNDERRUN_ERROR
    8400:	0000 0000 5355 5f42 5954 4550 455f 5252     ....USB_TYPE_ERR
    8410:	524f 0000 5355 5f42 5954 4550 425f 4655     OR..USB_TYPE_BUF
    8420:	4546 5f52 564f 5245 5552 5f4e 5245 4f52     FER_OVERRUN_ERRO
    8430:	0052 0000 5355 5f42 5954 4550 425f 4655     R...USB_TYPE_BUF
    8440:	4546 5f52 4e55 4544 5252 4e55 455f 5252     FER_UNDERRUN_ERR
    8450:	524f 0000 5355 5f42 5954 4550 445f 5349     OR..USB_TYPE_DIS
    8460:	4f43 4e4e 4345 4554 0044 0000 5355 5f42     CONNECTED...USB_
    8470:	5954 4550 465f 4552 0045 0000 5355 5f42     TYPE_FREE...USB_
    8480:	5954 4550 495f 4c44 0045 0000 5355 5f42     TYPE_IDLE...USB_
    8490:	5954 4550 505f 4f52 4543 5353 4e49 0047     TYPE_PROCESSING.

000084a0 <type_string>:
    84a0:	0000 0000 82e4 0000 0001 0000 82f0 0000     ................
    84b0:	0002 0000 8304 0000 0003 0000 8320 0000     ............ ...
    84c0:	0004 0000 8344 0000 0005 0000 835c 0000     ....D.......\...
    84d0:	0006 0000 8384 0000 0007 0000 83a8 0000     ................
    84e0:	0008 0000 83c8 0000 0009 0000 83e4 0000     ................
    84f0:	0012 0000 8404 0000 0012 0000 8404 0000     ................
    8500:	000c 0000 8414 0000 000d 0000 8434 0000     ............4...
    8510:	000e 0000 8454 0000 000f 0000 846c 0000     ....T.......l...
    8520:	0010 0000 847c 0000 0011 0000 848c 0000     ....|...........
    8530:	0012 0000 8404 0000                         ........

00008538 <vtable for USBHALHost>:
	...
    8540:	021d 0000 021d 0000 021d 0000 0000 0000     ................
    8550:	6f43 6c75 2064 6f6e 2074 6c61 6f6c 6163     Could not alloca
    8560:	6574 4520 0d44 000a 6f43 6c75 2064 6f6e     te ED...Could no
    8570:	2074 6c61 6f6c 6163 6574 5420 0d44 000a     t allocate TD...
    8580:	7245 6f72 2072 6e69 7469 6169 696c 697a     Error initializi
    8590:	676e 7420 6568 6d20 7475 7865 6f20 6a62     ng the mutex obj
    85a0:	6365 0a74 0000 0000 7245 6f72 2072 6c61     ect.....Error al
    85b0:	6f6c 6163 6974 676e 7420 6568 7320 6174     locating the sta
    85c0:	6b63 6d20 6d65 726f 0a79 0000 0000 0000     ck memory.......

000085d0 <vtable for rtos::Thread>:
	...
    85d8:	3de1 0000 3e05 0000                         .=...>..

000085e0 <os_maxtaskrun>:
    85e0:	000f 0000                                   ....

000085e4 <os_clockrate>:
    85e4:	03e8 0000                                   ....

000085e8 <os_rrobin>:
    85e8:	0005 0001                                   ....

000085ec <os_flags>:
    85ec:	0001                                        ..

000085ee <idle_task_stack_size>:
    85ee:	0080                                        ..

000085f0 <os_fifo_size>:
    85f0:	0010 0000                                   ....

000085f4 <os_trv>:
    85f4:	76ff 0001                                   .v..

000085f8 <vtable for mbed::Stream>:
	...
    8600:	42d5 0000 42d1 0000 4305 0000 4339 0000     .B...B...C..9C..
    8610:	4335 0000 433d 0000 4341 0000 4345 0000     5C..=C..AC..EC..
    8620:	4371 0000 021d 0000 021d 0000 fffc ffff     qC..............
    8630:	0000 0000 4369 0000 4385 0000 0000 0000     ....iC...C......
    8640:	253a 0070 2b77 0000                         :%p.w+..

00008648 <__stdin_name>:
    8648:	732f 6474 6e69 0000                         /stdin..

00008650 <__stderr_name>:
    8650:	732f 6474 7265 0072                         /stderr.

00008658 <__stdout_name>:
    8658:	732f 6474 756f 0074                         /stdout.

00008660 <vtable for mbed::FileHandle>:
	...
    8668:	021d 0000 021d 0000 021d 0000 021d 0000     ................
    8678:	021d 0000 021d 0000 43e9 0000 441d 0000     .........C...D..
    8688:	4449 0000 0000 0000 7845 6563 7470 6f69     ID......Exceptio
    8698:	006e 0000                                   n...

0000869c <PinMap_UART_RTS>:
    869c:	c016 2009 0000 4001 0001 0000 c047 2009     ... ...@....G.. 
    86ac:	0000 4001 0002 0000 ffff ffff ffff ffff     ...@............
    86bc:	0000 0000                                   ....

000086c0 <PinMap_UART_RX>:
    86c0:	c001 2009 c000 4009 0002 0000 c003 2009     ... ...@....... 
    86d0:	c000 4000 0001 0000 c00b 2009 8000 4009     ...@....... ...@
    86e0:	0001 0000 c010 2009 0000 4001 0001 0000     ....... ...@....
    86f0:	c01a 2009 c000 4009 0003 0000 c041 2009     ... ...@....A.. 
    8700:	0000 4001 0002 0000 c049 2009 8000 4009     ...@....I.. ...@
    8710:	0002 0000 c09d 2009 c000 4009 0003 0000     ....... ...@....
    8720:	ffff ffff ffff ffff 0000 0000               ............

0000872c <PinMap_UART_TX>:
    872c:	c000 2009 c000 4009 0002 0000 c002 2009     ... ...@....... 
    873c:	c000 4000 0001 0000 c00a 2009 8000 4009     ...@....... ...@
    874c:	0001 0000 c00f 2009 0000 4001 0001 0000     ....... ...@....
    875c:	c019 2009 c000 4009 0003 0000 c040 2009     ... ...@....@.. 
    876c:	0000 4001 0002 0000 c048 2009 8000 4009     ...@....H.. ...@
    877c:	0002 0000 c09c 2009 c000 4009 0003 0000     ....... ...@....
    878c:	ffff ffff ffff ffff 0000 0000               ............

00008798 <PinMap_UART_CTS>:
    8798:	c011 2009 0000 4001 0001 0000 c042 2009     ... ...@....B.. 
    87a8:	0000 4001 0002 0000 ffff ffff ffff ffff     ...@............
    87b8:	0000 0000 6f63 6c75 2064 6f6e 2074 6970     ....could not pi
    87c8:	6f6e 7475 0000 0000 6970 6d6e 7061 6d20     nout....pinmap m
    87d8:	7369 6d2d 7461 6863 0000 0000 6970 6d6e     is-match....pinm
    87e8:	7061 6e20 746f 6620 756f 646e 6620 726f     ap not found for
    87f8:	7020 7265 7069 6568 6172 006c 0000 0000      peripheral.....

00008808 <vtable for mbed::FileLike>:
	...
    8810:	021d 0000 021d 0000 021d 0000 021d 0000     ................
    8820:	021d 0000 021d 0000 43e9 0000 5275 0000     .........C..uR..
    8830:	52a1 0000 fffc ffff 0000 0000 5299 0000     .R...........R..
    8840:	52cd 0000 0000 0000                         .R......

00008848 <vtable for mbed::FileBase>:
	...
    8850:	53ad 0000 53dd 0000                         .S...S..

00008858 <__sf_fake_stdin>:
	...

00008878 <__sf_fake_stdout>:
	...

00008898 <__sf_fake_stderr>:
	...
    88b8:	0043 0000                                   C...

000088bc <_global_impure_ptr>:
    88bc:	0158 1000 203a 5300 6375 6563 7373 4e00     X...: .Success.N
    88cc:	746f 6f20 6e77 7265 4e00 206f 7573 6863     ot owner.No such
    88dc:	6620 6c69 2065 726f 6420 7269 6365 6f74      file or directo
    88ec:	7972 4e00 206f 7573 6863 7020 6f72 6563     ry.No such proce
    88fc:	7373 4900 746e 7265 7572 7470 6465 7320     ss.Interrupted s
    890c:	7379 6574 206d 6163 6c6c 4900 4f2f 6520     ystem call.I/O e
    891c:	7272 726f 4e00 206f 7573 6863 6420 7665     rror.No such dev
    892c:	6369 2065 726f 6120 6464 6572 7373 4100     ice or address.A
    893c:	6772 6c20 7369 2074 6f74 206f 6f6c 676e     rg list too long
    894c:	4500 6578 2063 6f66 6d72 7461 6520 7272     .Exec format err
    895c:	726f 5300 636f 656b 2074 6c61 6572 6461     or.Socket alread
    896c:	2079 6f63 6e6e 6365 6574 0064 6142 2064     y connected.Bad 
    897c:	6966 656c 6e20 6d75 6562 0072 6f4e 6320     file number.No c
    898c:	6968 646c 6572 006e 6544 7473 6e69 7461     hildren.Destinat
    899c:	6f69 206e 6461 7264 7365 2073 6572 7571     ion address requ
    89ac:	7269 6465 4e00 206f 6f6d 6572 7020 6f72     ired.No more pro
    89bc:	6563 7373 7365 4e00 746f 6520 6f6e 6775     cesses.Not enoug
    89cc:	2068 7073 6361 0065 6550 6d72 7369 6973     h space.Permissi
    89dc:	6e6f 6420 6e65 6569 0064 6142 2064 6461     on denied.Bad ad
    89ec:	7264 7365 0073 6544 6976 6563 6f20 2072     dress.Device or 
    89fc:	6572 6f73 7275 6563 6220 7375 0079 6946     resource busy.Fi
    8a0c:	656c 6520 6978 7473 0073 7243 736f 2d73     le exists.Cross-
    8a1c:	6564 6976 6563 6c20 6e69 006b 6f4e 7320     device link.No s
    8a2c:	6375 2068 6564 6976 6563 4e00 746f 6120     uch device.Not a
    8a3c:	6420 7269 6365 6f74 7972 4800 736f 2074      directory.Host 
    8a4c:	7369 6420 776f 006e 6f43 6e6e 6365 6974     is down.Connecti
    8a5c:	6e6f 6120 726c 6165 7964 6920 206e 7270     on already in pr
    8a6c:	676f 6572 7373 4900 2073 2061 6964 6572     ogress.Is a dire
    8a7c:	7463 726f 0079 6e49 6176 696c 2064 7261     ctory.Invalid ar
    8a8c:	7567 656d 746e 4e00 7465 6f77 6b72 6920     gument.Network i
    8a9c:	746e 7265 6166 6563 6920 2073 6f6e 2074     nterface is not 
    8aac:	6f63 666e 6769 7275 6465 5400 6f6f 6d20     configured.Too m
    8abc:	6e61 2079 706f 6e65 6620 6c69 7365 6920     any open files i
    8acc:	206e 7973 7473 6d65 5400 6f6f 6d20 6e61     n system.Too man
    8adc:	2079 706f 6e65 6620 6c69 7365 4e00 746f     y open files.Not
    8aec:	6120 6320 6168 6172 7463 7265 6420 7665      a character dev
    8afc:	6369 0065 6554 7478 6620 6c69 2065 7562     ice.Text file bu
    8b0c:	7973 4600 6c69 2065 6f74 206f 616c 6772     sy.File too larg
    8b1c:	0065 6f48 7473 6920 2073 6e75 6572 6361     e.Host is unreac
    8b2c:	6168 6c62 0065 6f4e 7320 6170 6563 6c20     hable.No space l
    8b3c:	6665 2074 6e6f 6420 7665 6369 0065 6f4e     eft on device.No
    8b4c:	2074 7573 7070 726f 6574 0064 6c49 656c     t supported.Ille
    8b5c:	6167 206c 6573 6b65 5200 6165 2d64 6e6f     gal seek.Read-on
    8b6c:	796c 6620 6c69 2065 7973 7473 6d65 5400     ly file system.T
    8b7c:	6f6f 6d20 6e61 2079 696c 6b6e 0073 7242     oo many links.Br
    8b8c:	6b6f 6e65 7020 7069 0065 614d 6874 6120     oken pipe.Math a
    8b9c:	6772 6d75 6e65 0074 6552 7573 746c 7420     rgument.Result t
    8bac:	6f6f 6c20 7261 6567 4e00 206f 656d 7373     oo large.No mess
    8bbc:	6761 2065 666f 6420 7365 7269 6465 7420     age of desired t
    8bcc:	7079 0065 6449 6e65 6974 6966 7265 7220     ype.Identifier r
    8bdc:	6d65 766f 6465 4400 6165 6c64 636f 006b     emoved.Deadlock.
    8bec:	654e 7774 726f 206b 7369 7520 726e 6165     Network is unrea
    8bfc:	6863 6261 656c 4e00 206f 6f6c 6b63 4e00     chable.No lock.N
    8c0c:	746f 6120 7320 7274 6165 006d 7453 6572     ot a stream.Stre
    8c1c:	6d61 6920 636f 6c74 7420 6d69 6f65 7475     am ioctl timeout
    8c2c:	4e00 206f 7473 6572 6d61 7220 7365 756f     .No stream resou
    8c3c:	6372 7365 5600 7269 7574 6c61 6320 7269     rces.Virtual cir
    8c4c:	7563 7469 6920 2073 6f67 656e 5000 6f72     cuit is gone.Pro
    8c5c:	6f74 6f63 206c 7265 6f72 0072 6e55 6e6b     tocol error.Unkn
    8c6c:	776f 206e 7270 746f 636f 6c6f 4d00 6c75     own protocol.Mul
    8c7c:	6974 6f68 2070 7461 6574 706d 6574 0064     tihop attempted.
    8c8c:	6142 2064 656d 7373 6761 0065 7546 636e     Bad message.Func
    8c9c:	6974 6e6f 6e20 746f 6920 706d 656c 656d     tion not impleme
    8cac:	746e 6465 4400 7269 6365 6f74 7972 6e20     nted.Directory n
    8cbc:	746f 6520 706d 7974 4600 6c69 2065 726f     ot empty.File or
    8ccc:	7020 7461 2068 616e 656d 7420 6f6f 6c20      path name too l
    8cdc:	6e6f 0067 6f54 206f 616d 796e 7320 6d79     ong.Too many sym
    8cec:	6f62 696c 2063 696c 6b6e 0073 6f4e 6220     bolic links.No b
    8cfc:	6675 6566 2072 7073 6361 2065 7661 6961     uffer space avai
    8d0c:	616c 6c62 0065 6441 7264 7365 2073 6166     lable.Address fa
    8d1c:	696d 796c 6e20 746f 7320 7075 6f70 7472     mily not support
    8d2c:	6465 6220 2079 7270 746f 636f 6c6f 6620     ed by protocol f
    8d3c:	6d61 6c69 0079 7250 746f 636f 6c6f 7720     amily.Protocol w
    8d4c:	6f72 676e 7420 7079 2065 6f66 2072 6f73     rong type for so
    8d5c:	6b63 7465 5300 636f 656b 2074 706f 7265     cket.Socket oper
    8d6c:	7461 6f69 206e 6e6f 6e20 6e6f 732d 636f     ation on non-soc
    8d7c:	656b 0074 7250 746f 636f 6c6f 6e20 746f     ket.Protocol not
    8d8c:	6120 6176 6c69 6261 656c 4300 6e6f 656e      available.Conne
    8d9c:	7463 6f69 206e 6572 7566 6573 0064 6441     ction refused.Ad
    8dac:	7264 7365 2073 6c61 6572 6461 2079 6e69     dress already in
    8dbc:	7520 6573 5300 666f 7774 7261 2065 6163      use.Software ca
    8dcc:	7375 6465 6320 6e6f 656e 7463 6f69 206e     used connection 
    8ddc:	6261 726f 0074 6f53 6b63 7465 6920 2073     abort.Socket is 
    8dec:	6f6e 2074 6f63 6e6e 6365 6574 0064 6f53     not connected.So
    8dfc:	6b63 7465 6920 2073 6c61 6572 6461 2079     cket is already 
    8e0c:	6f63 6e6e 6365 6574 0064 704f 7265 7461     connected.Operat
    8e1c:	6f69 206e 6163 636e 6c65 6465 5300 6174     ion canceled.Sta
    8e2c:	6574 6e20 746f 7220 6365 766f 7265 6261     te not recoverab
    8e3c:	656c 5000 6572 6976 756f 2073 776f 656e     le.Previous owne
    8e4c:	2072 6964 6465 4f00 6570 6172 6974 6e6f     r died.Operation
    8e5c:	6e20 746f 7320 7075 6f70 7472 6465 6f20      not supported o
    8e6c:	206e 6f73 6b63 7465 4d00 7365 6173 6567     n socket.Message
    8e7c:	7420 6f6f 6c20 6e6f 0067 6f43 6e6e 6365      too long.Connec
    8e8c:	6974 6e6f 7420 6d69 6465 6f20 7475 2300     tion timed out.#
    8e9c:	302d 202b 6800 4c6c 6500 6766 4645 0047     -0+ .hlL.efgEFG.
    8eac:	3130 3332 3534 3736 3938 4241 4443 4645     0123456789ABCDEF
    8ebc:	3000 3231 3433 3635 3837 6139 6362 6564     .0123456789abcde
    8ecc:	0066 0000 8eee 0000 8ef1 0000 8ef4 0000     f...............
    8edc:	2d41 6146 662d 3938 3130 3332 3534 3736     A-Fa-f8901234567
    8eec:	005d 2d2b 3000 0030 5878 0000                    ].+-.00.xX.

00008ef7 <_ctype_>:
    8ef7:	2000 2020 2020 2020 2020 2828 2828 2028     .         ((((( 
    8f07:	2020 2020 2020 2020 2020 2020 2020 2020                     
    8f17:	8820 1010 1010 1010 1010 1010 1010 1010      ...............
    8f27:	0410 0404 0404 0404 0404 1004 1010 1010     ................
    8f37:	1010 4141 4141 4141 0101 0101 0101 0101     ..AAAAAA........
    8f47:	0101 0101 0101 0101 0101 0101 1010 1010     ................
    8f57:	1010 4242 4242 4242 0202 0202 0202 0202     ..BBBBBB........
    8f67:	0202 0202 0202 0202 0202 0202 1010 1010     ................
    8f77:	0020 0000 0000 0000 0000 0000 0000 0000      ...............
	...

00008ff8 <__EH_FRAME_BEGIN__>:
    8ff8:	0000 0000                                   ....
