
LPC1768/USBHostMSD.elf:     file format elf32-littlearm
architecture: arm, flags 0x00000112:
EXEC_P, HAS_SYMS, D_PAGED
start address 0x000072b9


Disassembly of section .text:

00000000 <__isr_vector>:
       0:	10008000 	.word	0x10008000
       4:	000072b9 	.word	0x000072b9
       8:	000072e9 	.word	0x000072e9
       c:	000072eb 	.word	0x000072eb
      10:	000072ed 	.word	0x000072ed
      14:	000072ef 	.word	0x000072ef
      18:	000072f1 	.word	0x000072f1
	...
      2c:	00006b25 	.word	0x00006b25
      30:	000072f5 	.word	0x000072f5
      34:	00000000 	.word	0x00000000
      38:	00006b93 	.word	0x00006b93
      3c:	00006bcb 	.word	0x00006bcb
      40:	000072fb 	.word	0x000072fb
      44:	000072fb 	.word	0x000072fb
      48:	000072fb 	.word	0x000072fb
      4c:	000072fb 	.word	0x000072fb
      50:	000072fb 	.word	0x000072fb
      54:	000072fb 	.word	0x000072fb
      58:	000072fb 	.word	0x000072fb
      5c:	000072fb 	.word	0x000072fb
      60:	000072fb 	.word	0x000072fb
      64:	000072fb 	.word	0x000072fb
      68:	000072fb 	.word	0x000072fb
      6c:	000072fb 	.word	0x000072fb
      70:	000072fb 	.word	0x000072fb
      74:	000072fb 	.word	0x000072fb
      78:	000072fb 	.word	0x000072fb
      7c:	000072fb 	.word	0x000072fb
      80:	000072fb 	.word	0x000072fb
      84:	000072fb 	.word	0x000072fb
      88:	000072fb 	.word	0x000072fb
      8c:	000072fb 	.word	0x000072fb
      90:	000072fb 	.word	0x000072fb
      94:	000072fb 	.word	0x000072fb
      98:	000072fb 	.word	0x000072fb
      9c:	000072fb 	.word	0x000072fb
      a0:	000072fb 	.word	0x000072fb
      a4:	000072fb 	.word	0x000072fb
      a8:	000072fb 	.word	0x000072fb
      ac:	000072fb 	.word	0x000072fb
      b0:	000072fb 	.word	0x000072fb
      b4:	000072fb 	.word	0x000072fb
      b8:	000072fb 	.word	0x000072fb
      bc:	000072fb 	.word	0x000072fb
      c0:	000072fb 	.word	0x000072fb
      c4:	000072fb 	.word	0x000072fb
      c8:	000072fb 	.word	0x000072fb

000000cc <__do_global_dtors_aux>:
      cc:	b510      	push	{r4, lr}
      ce:	4c05      	ldr	r4, [pc, #20]	; (e4 <__do_global_dtors_aux+0x18>)
      d0:	7823      	ldrb	r3, [r4, #0]
      d2:	b933      	cbnz	r3, e2 <__do_global_dtors_aux+0x16>
      d4:	4b04      	ldr	r3, [pc, #16]	; (e8 <__do_global_dtors_aux+0x1c>)
      d6:	b113      	cbz	r3, de <__do_global_dtors_aux+0x12>
      d8:	4804      	ldr	r0, [pc, #16]	; (ec <__do_global_dtors_aux+0x20>)
      da:	f3af 8000 	nop.w
      de:	2301      	movs	r3, #1
      e0:	7023      	strb	r3, [r4, #0]
      e2:	bd10      	pop	{r4, pc}
      e4:	1000020c 	.word	0x1000020c
      e8:	00000000 	.word	0x00000000
      ec:	0000ca98 	.word	0x0000ca98

000000f0 <frame_dummy>:
      f0:	b508      	push	{r3, lr}
      f2:	4b06      	ldr	r3, [pc, #24]	; (10c <frame_dummy+0x1c>)
      f4:	b11b      	cbz	r3, fe <frame_dummy+0xe>
      f6:	4806      	ldr	r0, [pc, #24]	; (110 <frame_dummy+0x20>)
      f8:	4906      	ldr	r1, [pc, #24]	; (114 <frame_dummy+0x24>)
      fa:	f3af 8000 	nop.w
      fe:	4806      	ldr	r0, [pc, #24]	; (118 <frame_dummy+0x28>)
     100:	6803      	ldr	r3, [r0, #0]
     102:	b113      	cbz	r3, 10a <frame_dummy+0x1a>
     104:	4b05      	ldr	r3, [pc, #20]	; (11c <frame_dummy+0x2c>)
     106:	b103      	cbz	r3, 10a <frame_dummy+0x1a>
     108:	4798      	blx	r3
     10a:	bd08      	pop	{r3, pc}
     10c:	00000000 	.word	0x00000000
     110:	0000ca98 	.word	0x0000ca98
     114:	10000210 	.word	0x10000210
     118:	1000020c 	.word	0x1000020c
     11c:	00000000 	.word	0x00000000

00000120 <msd_task(void const*)>:
     120:	b570      	push	{r4, r5, r6, lr}
     122:	f5ad 7d28 	sub.w	sp, sp, #672	; 0x2a0
     126:	4668      	mov	r0, sp
     128:	4916      	ldr	r1, [pc, #88]	; (184 <msd_task(void const*)+0x64>)
     12a:	f000 f94b 	bl	3c4 <USBHostMSD::USBHostMSD(char const*)>
     12e:	2400      	movs	r4, #0
     130:	4668      	mov	r0, sp
     132:	f000 f97d 	bl	430 <USBHostMSD::connect()>
     136:	b990      	cbnz	r0, 15e <msd_task(void const*)+0x3e>
     138:	e01f      	b.n	17a <msd_task(void const*)+0x5a>
     13a:	f008 fa05 	bl	8548 <fiprintf>
     13e:	4812      	ldr	r0, [pc, #72]	; (188 <msd_task(void const*)+0x68>)
     140:	f009 f8ea 	bl	9318 <puts>
     144:	4630      	mov	r0, r6
     146:	462c      	mov	r4, r5
     148:	f008 f816 	bl	8178 <fclose>
     14c:	f44f 70fa 	mov.w	r0, #500	; 0x1f4
     150:	f006 fcb8 	bl	6ac4 <rtos::Thread::wait(unsigned long)>
     154:	4668      	mov	r0, sp
     156:	f000 f967 	bl	428 <USBHostMSD::connected()>
     15a:	2800      	cmp	r0, #0
     15c:	d0e8      	beq.n	130 <msd_task(void const*)+0x10>
     15e:	490b      	ldr	r1, [pc, #44]	; (18c <msd_task(void const*)+0x6c>)
     160:	480b      	ldr	r0, [pc, #44]	; (190 <msd_task(void const*)+0x70>)
     162:	f008 f9e7 	bl	8534 <fopen>
     166:	1c65      	adds	r5, r4, #1
     168:	4606      	mov	r6, r0
     16a:	4622      	mov	r2, r4
     16c:	4909      	ldr	r1, [pc, #36]	; (194 <msd_task(void const*)+0x74>)
     16e:	2800      	cmp	r0, #0
     170:	d1e3      	bne.n	13a <msd_task(void const*)+0x1a>
     172:	4809      	ldr	r0, [pc, #36]	; (198 <msd_task(void const*)+0x78>)
     174:	f009 f8d0 	bl	9318 <puts>
     178:	e7e8      	b.n	14c <msd_task(void const*)+0x2c>
     17a:	f44f 70fa 	mov.w	r0, #500	; 0x1f4
     17e:	f006 fca1 	bl	6ac4 <rtos::Thread::wait(unsigned long)>
     182:	e7d5      	b.n	130 <msd_task(void const*)+0x10>
     184:	0000af44 	.word	0x0000af44
     188:	0000af7c 	.word	0x0000af7c
     18c:	0000af58 	.word	0x0000af58
     190:	0000af48 	.word	0x0000af48
     194:	0000af5c 	.word	0x0000af5c
     198:	0000af8c 	.word	0x0000af8c

0000019c <main>:
     19c:	b530      	push	{r4, r5, lr}
     19e:	2300      	movs	r3, #0
     1a0:	b097      	sub	sp, #92	; 0x5c
     1a2:	f44f 5180 	mov.w	r1, #4096	; 0x1000
     1a6:	4c0c      	ldr	r4, [pc, #48]	; (1d8 <main+0x3c>)
     1a8:	e88d 000a 	stmia.w	sp, {r1, r3}
     1ac:	461a      	mov	r2, r3
     1ae:	a803      	add	r0, sp, #12
     1b0:	490a      	ldr	r1, [pc, #40]	; (1dc <main+0x40>)
     1b2:	f006 fc5b 	bl	6a6c <rtos::Thread::Thread(void (*)(void const*), void*, osPriority, unsigned long, unsigned char*)>
     1b6:	4625      	mov	r5, r4
     1b8:	e005      	b.n	1c6 <main+0x2a>
     1ba:	692a      	ldr	r2, [r5, #16]
     1bc:	6013      	str	r3, [r2, #0]
     1be:	f44f 70fa 	mov.w	r0, #500	; 0x1f4
     1c2:	f006 fc7f 	bl	6ac4 <rtos::Thread::wait(unsigned long)>
     1c6:	6962      	ldr	r2, [r4, #20]
     1c8:	6863      	ldr	r3, [r4, #4]
     1ca:	6812      	ldr	r2, [r2, #0]
     1cc:	421a      	tst	r2, r3
     1ce:	d1f4      	bne.n	1ba <main+0x1e>
     1d0:	68ea      	ldr	r2, [r5, #12]
     1d2:	6013      	str	r3, [r2, #0]
     1d4:	e7f3      	b.n	1be <main+0x22>
     1d6:	bf00      	nop
     1d8:	10000228 	.word	0x10000228
     1dc:	00000121 	.word	0x00000121

000001e0 <_GLOBAL__sub_I_led>:
     1e0:	4b05      	ldr	r3, [pc, #20]	; (1f8 <_GLOBAL__sub_I_led+0x18>)
     1e2:	2200      	movs	r2, #0
     1e4:	4618      	mov	r0, r3
     1e6:	4905      	ldr	r1, [pc, #20]	; (1fc <_GLOBAL__sub_I_led+0x1c>)
     1e8:	601a      	str	r2, [r3, #0]
     1ea:	605a      	str	r2, [r3, #4]
     1ec:	609a      	str	r2, [r3, #8]
     1ee:	60da      	str	r2, [r3, #12]
     1f0:	611a      	str	r2, [r3, #16]
     1f2:	615a      	str	r2, [r3, #20]
     1f4:	f006 be2a 	b.w	6e4c <gpio_init_out>
     1f8:	10000228 	.word	0x10000228
     1fc:	2009c032 	.word	0x2009c032

00000200 <_start>:
     200:	4807      	ldr	r0, [pc, #28]	; (220 <_start+0x20>)
     202:	4a08      	ldr	r2, [pc, #32]	; (224 <_start+0x24>)
     204:	b508      	push	{r3, lr}
     206:	1a12      	subs	r2, r2, r0
     208:	2100      	movs	r1, #0
     20a:	f008 fafe 	bl	880a <memset>
     20e:	f006 fd39 	bl	6c84 <software_init_hook>
     212:	f008 fa59 	bl	86c8 <__libc_init_array>
     216:	f7ff ffc1 	bl	19c <main>
     21a:	f006 fded 	bl	6df8 <exit>
     21e:	bf00      	nop
     220:	1000020c 	.word	0x1000020c
     224:	10001264 	.word	0x10001264

00000228 <__wrap__isatty>:
     228:	2802      	cmp	r0, #2
     22a:	dc01      	bgt.n	230 <__wrap__isatty+0x8>
     22c:	2001      	movs	r0, #1
     22e:	4770      	bx	lr
     230:	f006 bff6 	b.w	7220 <_isatty>

00000234 <__wrap_malloc>:
     234:	f3ef 8305 	mrs	r3, IPSR
     238:	b103      	cbz	r3, 23c <__wrap_malloc+0x8>
     23a:	be00      	bkpt	0x0000
     23c:	f008 bacc 	b.w	87d8 <malloc>

00000240 <__wrap_free>:
     240:	f3ef 8305 	mrs	r3, IPSR
     244:	b103      	cbz	r3, 248 <__wrap_free+0x8>
     246:	be00      	bkpt	0x0000
     248:	f008 bace 	b.w	87e8 <free>

0000024c <abort>:
     24c:	b508      	push	{r3, lr}
     24e:	2001      	movs	r0, #1
     250:	f006 fdd2 	bl	6df8 <exit>

00000254 <__cxa_pure_virtual>:
     254:	b508      	push	{r3, lr}
     256:	f7ff fff9 	bl	24c <abort>
     25a:	bf00      	nop

0000025c <USBHostMSD::disk_status()>:
     25c:	2000      	movs	r0, #0
     25e:	4770      	bx	lr

00000260 <non-virtual thunk to USBHostMSD::disk_status()>:
     260:	f1a0 0004 	sub.w	r0, r0, #4
     264:	e7fa      	b.n	25c <USBHostMSD::disk_status()>
     266:	bf00      	nop

00000268 <USBHostMSD::disk_sync()>:
     268:	2000      	movs	r0, #0
     26a:	4770      	bx	lr

0000026c <non-virtual thunk to USBHostMSD::disk_sync()>:
     26c:	f1a0 0004 	sub.w	r0, r0, #4
     270:	e7fa      	b.n	268 <USBHostMSD::disk_sync()>
     272:	bf00      	nop

00000274 <USBHostMSD::init()>:
     274:	b430      	push	{r4, r5}
     276:	2100      	movs	r1, #0
     278:	f500 7524 	add.w	r5, r0, #656	; 0x290
     27c:	f04f 34ff 	mov.w	r4, #4294967295	; 0xffffffff
     280:	2200      	movs	r2, #0
     282:	2300      	movs	r3, #0
     284:	f880 1250 	strb.w	r1, [r0, #592]	; 0x250
     288:	f8c0 124c 	str.w	r1, [r0, #588]	; 0x24c
     28c:	f8c0 1254 	str.w	r1, [r0, #596]	; 0x254
     290:	f8c0 1258 	str.w	r1, [r0, #600]	; 0x258
     294:	f8c0 128c 	str.w	r1, [r0, #652]	; 0x28c
     298:	e9c5 2300 	strd	r2, r3, [r5]
     29c:	f8c0 4298 	str.w	r4, [r0, #664]	; 0x298
     2a0:	f880 129c 	strb.w	r1, [r0, #668]	; 0x29c
     2a4:	f880 129d 	strb.w	r1, [r0, #669]	; 0x29d
     2a8:	f880 125c 	strb.w	r1, [r0, #604]	; 0x25c
     2ac:	bc30      	pop	{r4, r5}
     2ae:	4770      	bx	lr

000002b0 <USBHostMSD::setVidPid(unsigned short, unsigned short)>:
     2b0:	4770      	bx	lr
     2b2:	bf00      	nop

000002b4 <USBHostMSD::parseInterface(unsigned char, unsigned char, unsigned char, unsigned char)>:
     2b4:	b430      	push	{r4, r5}
     2b6:	f8d0 4298 	ldr.w	r4, [r0, #664]	; 0x298
     2ba:	f89d 5008 	ldrb.w	r5, [sp, #8]
     2be:	3401      	adds	r4, #1
     2c0:	d002      	beq.n	2c8 <USBHostMSD::parseInterface(unsigned char, unsigned char, unsigned char, unsigned char)+0x14>
     2c2:	2000      	movs	r0, #0
     2c4:	bc30      	pop	{r4, r5}
     2c6:	4770      	bx	lr
     2c8:	2a08      	cmp	r2, #8
     2ca:	d1fa      	bne.n	2c2 <USBHostMSD::parseInterface(unsigned char, unsigned char, unsigned char, unsigned char)+0xe>
     2cc:	2b06      	cmp	r3, #6
     2ce:	d1f8      	bne.n	2c2 <USBHostMSD::parseInterface(unsigned char, unsigned char, unsigned char, unsigned char)+0xe>
     2d0:	2d50      	cmp	r5, #80	; 0x50
     2d2:	d1f6      	bne.n	2c2 <USBHostMSD::parseInterface(unsigned char, unsigned char, unsigned char, unsigned char)+0xe>
     2d4:	f8c0 1298 	str.w	r1, [r0, #664]	; 0x298
     2d8:	2001      	movs	r0, #1
     2da:	e7f3      	b.n	2c4 <USBHostMSD::parseInterface(unsigned char, unsigned char, unsigned char, unsigned char)+0x10>

000002dc <USBHostMSD::disk_sectors()>:
     2dc:	f890 329d 	ldrb.w	r3, [r0, #669]	; 0x29d
     2e0:	b510      	push	{r4, lr}
     2e2:	4604      	mov	r4, r0
     2e4:	b123      	cbz	r3, 2f0 <USBHostMSD::disk_sectors()+0x14>
     2e6:	f504 7424 	add.w	r4, r4, #656	; 0x290
     2ea:	e9d4 0100 	ldrd	r0, r1, [r4]
     2ee:	bd10      	pop	{r4, pc}
     2f0:	6803      	ldr	r3, [r0, #0]
     2f2:	68db      	ldr	r3, [r3, #12]
     2f4:	4798      	blx	r3
     2f6:	f894 329d 	ldrb.w	r3, [r4, #669]	; 0x29d
     2fa:	2b00      	cmp	r3, #0
     2fc:	d1f3      	bne.n	2e6 <USBHostMSD::disk_sectors()+0xa>
     2fe:	2000      	movs	r0, #0
     300:	2100      	movs	r1, #0
     302:	bd10      	pop	{r4, pc}

00000304 <non-virtual thunk to USBHostMSD::disk_sectors()>:
     304:	f1a0 0004 	sub.w	r0, r0, #4
     308:	f7ff bfe8 	b.w	2dc <USBHostMSD::disk_sectors()>

0000030c <void mbed::FunctionPointer::membercaller<USBHostMSD>(void*, char*)>:
     30c:	b510      	push	{r4, lr}
     30e:	460b      	mov	r3, r1
     310:	b082      	sub	sp, #8
     312:	6849      	ldr	r1, [r1, #4]
     314:	4602      	mov	r2, r0
     316:	6818      	ldr	r0, [r3, #0]
     318:	466b      	mov	r3, sp
     31a:	c303      	stmia	r3!, {r0, r1}
     31c:	460b      	mov	r3, r1
     31e:	07d9      	lsls	r1, r3, #31
     320:	d507      	bpl.n	332 <void mbed::FunctionPointer::membercaller<USBHostMSD>(void*, char*)+0x26>
     322:	105b      	asrs	r3, r3, #1
     324:	58d4      	ldr	r4, [r2, r3]
     326:	9900      	ldr	r1, [sp, #0]
     328:	18d0      	adds	r0, r2, r3
     32a:	5861      	ldr	r1, [r4, r1]
     32c:	4788      	blx	r1
     32e:	b002      	add	sp, #8
     330:	bd10      	pop	{r4, pc}
     332:	eb02 0063 	add.w	r0, r2, r3, asr #1
     336:	9900      	ldr	r1, [sp, #0]
     338:	4788      	blx	r1
     33a:	b002      	add	sp, #8
     33c:	bd10      	pop	{r4, pc}
     33e:	bf00      	nop

00000340 <USBHostMSD::~USBHostMSD()>:
     340:	b510      	push	{r4, lr}
     342:	4b06      	ldr	r3, [pc, #24]	; (35c <USBHostMSD::~USBHostMSD()+0x1c>)
     344:	4604      	mov	r4, r0
     346:	f103 0208 	add.w	r2, r3, #8
     34a:	333c      	adds	r3, #60	; 0x3c
     34c:	6022      	str	r2, [r4, #0]
     34e:	f840 3f04 	str.w	r3, [r0, #4]!
     352:	f002 fbe9 	bl	2b28 <FATFileSystem::~FATFileSystem()>
     356:	4620      	mov	r0, r4
     358:	bd10      	pop	{r4, pc}
     35a:	bf00      	nop
     35c:	0000afc0 	.word	0x0000afc0

00000360 <non-virtual thunk to USBHostMSD::~USBHostMSD()>:
     360:	f1a0 0004 	sub.w	r0, r0, #4
     364:	f7ff bfec 	b.w	340 <USBHostMSD::~USBHostMSD()>

00000368 <USBHostMSD::~USBHostMSD()>:
     368:	b510      	push	{r4, lr}
     36a:	4b07      	ldr	r3, [pc, #28]	; (388 <USBHostMSD::~USBHostMSD()+0x20>)
     36c:	4604      	mov	r4, r0
     36e:	f103 0208 	add.w	r2, r3, #8
     372:	333c      	adds	r3, #60	; 0x3c
     374:	6022      	str	r2, [r4, #0]
     376:	f840 3f04 	str.w	r3, [r0, #4]!
     37a:	f002 fbd5 	bl	2b28 <FATFileSystem::~FATFileSystem()>
     37e:	4620      	mov	r0, r4
     380:	f007 fe80 	bl	8084 <operator delete(void*)>
     384:	4620      	mov	r0, r4
     386:	bd10      	pop	{r4, pc}
     388:	0000afc0 	.word	0x0000afc0

0000038c <non-virtual thunk to USBHostMSD::~USBHostMSD()>:
     38c:	f1a0 0004 	sub.w	r0, r0, #4
     390:	e7ea      	b.n	368 <USBHostMSD::~USBHostMSD()>
     392:	bf00      	nop

00000394 <USBHostMSD::useEndpoint(unsigned char, ENDPOINT_TYPE, ENDPOINT_DIRECTION)>:
     394:	f8d0 3298 	ldr.w	r3, [r0, #664]	; 0x298
     398:	4299      	cmp	r1, r3
     39a:	d001      	beq.n	3a0 <USBHostMSD::useEndpoint(unsigned char, ENDPOINT_TYPE, ENDPOINT_DIRECTION)+0xc>
     39c:	2000      	movs	r0, #0
     39e:	4770      	bx	lr
     3a0:	2a02      	cmp	r2, #2
     3a2:	d1fb      	bne.n	39c <USBHostMSD::useEndpoint(unsigned char, ENDPOINT_TYPE, ENDPOINT_DIRECTION)+0x8>
     3a4:	f890 325c 	ldrb.w	r3, [r0, #604]	; 0x25c
     3a8:	3301      	adds	r3, #1
     3aa:	b2db      	uxtb	r3, r3
     3ac:	2b02      	cmp	r3, #2
     3ae:	f880 325c 	strb.w	r3, [r0, #604]	; 0x25c
     3b2:	d001      	beq.n	3b8 <USBHostMSD::useEndpoint(unsigned char, ENDPOINT_TYPE, ENDPOINT_DIRECTION)+0x24>
     3b4:	2001      	movs	r0, #1
     3b6:	4770      	bx	lr
     3b8:	2301      	movs	r3, #1
     3ba:	f880 329c 	strb.w	r3, [r0, #668]	; 0x29c
     3be:	4618      	mov	r0, r3
     3c0:	4770      	bx	lr
     3c2:	bf00      	nop

000003c4 <USBHostMSD::USBHostMSD(char const*)>:
     3c4:	4b16      	ldr	r3, [pc, #88]	; (420 <USBHostMSD::USBHostMSD(char const*)+0x5c>)
     3c6:	b570      	push	{r4, r5, r6, lr}
     3c8:	4604      	mov	r4, r0
     3ca:	f840 3b04 	str.w	r3, [r0], #4
     3ce:	f002 fc77 	bl	2cc0 <FATFileSystem::FATFileSystem(char const*)>
     3d2:	4b14      	ldr	r3, [pc, #80]	; (424 <USBHostMSD::USBHostMSD(char const*)+0x60>)
     3d4:	f504 7624 	add.w	r6, r4, #656	; 0x290
     3d8:	f103 0208 	add.w	r2, r3, #8
     3dc:	333c      	adds	r3, #60	; 0x3c
     3de:	e884 000c 	stmia.w	r4, {r2, r3}
     3e2:	f000 fe5b 	bl	109c <USBHost::getHostInst()>
     3e6:	2100      	movs	r1, #0
     3e8:	2200      	movs	r2, #0
     3ea:	2300      	movs	r3, #0
     3ec:	f8c4 0248 	str.w	r0, [r4, #584]	; 0x248
     3f0:	f04f 35ff 	mov.w	r5, #4294967295	; 0xffffffff
     3f4:	f884 1250 	strb.w	r1, [r4, #592]	; 0x250
     3f8:	f8c4 124c 	str.w	r1, [r4, #588]	; 0x24c
     3fc:	f8c4 1254 	str.w	r1, [r4, #596]	; 0x254
     400:	f8c4 1258 	str.w	r1, [r4, #600]	; 0x258
     404:	f8c4 128c 	str.w	r1, [r4, #652]	; 0x28c
     408:	e9c6 2300 	strd	r2, r3, [r6]
     40c:	f884 125c 	strb.w	r1, [r4, #604]	; 0x25c
     410:	4620      	mov	r0, r4
     412:	f884 129c 	strb.w	r1, [r4, #668]	; 0x29c
     416:	f884 129d 	strb.w	r1, [r4, #669]	; 0x29d
     41a:	f8c4 5298 	str.w	r5, [r4, #664]	; 0x298
     41e:	bd70      	pop	{r4, r5, r6, pc}
     420:	0000afa8 	.word	0x0000afa8
     424:	0000afc0 	.word	0x0000afc0

00000428 <USBHostMSD::connected()>:
     428:	f890 0250 	ldrb.w	r0, [r0, #592]	; 0x250
     42c:	4770      	bx	lr
     42e:	bf00      	nop

00000430 <USBHostMSD::connect()>:
     430:	e92d 43f0 	stmdb	sp!, {r4, r5, r6, r7, r8, r9, lr}
     434:	f890 7250 	ldrb.w	r7, [r0, #592]	; 0x250
     438:	b087      	sub	sp, #28
     43a:	4606      	mov	r6, r0
     43c:	bb9f      	cbnz	r7, 4a6 <USBHostMSD::connect()+0x76>
     43e:	463c      	mov	r4, r7
     440:	b2e1      	uxtb	r1, r4
     442:	f8d6 0248 	ldr.w	r0, [r6, #584]	; 0x248
     446:	f000 ff5d 	bl	1304 <USBHost::getDevice(unsigned char)>
     44a:	3401      	adds	r4, #1
     44c:	4601      	mov	r1, r0
     44e:	4632      	mov	r2, r6
     450:	f8c6 024c 	str.w	r0, [r6, #588]	; 0x24c
     454:	b150      	cbz	r0, 46c <USBHostMSD::connect()+0x3c>
     456:	f8d6 0248 	ldr.w	r0, [r6, #584]	; 0x248
     45a:	f001 fd77 	bl	1f4c <USBHost::enumerate(USBDeviceConnected*, IUSBEnumerator*)>
     45e:	4605      	mov	r5, r0
     460:	b930      	cbnz	r0, 470 <USBHostMSD::connect()+0x40>
     462:	f896 829c 	ldrb.w	r8, [r6, #668]	; 0x29c
     466:	f1b8 0f00 	cmp.w	r8, #0
     46a:	d120      	bne.n	4ae <USBHostMSD::connect()+0x7e>
     46c:	2c05      	cmp	r4, #5
     46e:	d1e7      	bne.n	440 <USBHostMSD::connect()+0x10>
     470:	2300      	movs	r3, #0
     472:	f506 7124 	add.w	r1, r6, #656	; 0x290
     476:	2400      	movs	r4, #0
     478:	2500      	movs	r5, #0
     47a:	f04f 32ff 	mov.w	r2, #4294967295	; 0xffffffff
     47e:	f886 3250 	strb.w	r3, [r6, #592]	; 0x250
     482:	f8c6 324c 	str.w	r3, [r6, #588]	; 0x24c
     486:	f8c6 3254 	str.w	r3, [r6, #596]	; 0x254
     48a:	f8c6 3258 	str.w	r3, [r6, #600]	; 0x258
     48e:	f8c6 328c 	str.w	r3, [r6, #652]	; 0x28c
     492:	e9c1 4500 	strd	r4, r5, [r1]
     496:	f886 329c 	strb.w	r3, [r6, #668]	; 0x29c
     49a:	f886 329d 	strb.w	r3, [r6, #669]	; 0x29d
     49e:	f886 325c 	strb.w	r3, [r6, #604]	; 0x25c
     4a2:	f8c6 2298 	str.w	r2, [r6, #664]	; 0x298
     4a6:	4638      	mov	r0, r7
     4a8:	b007      	add	sp, #28
     4aa:	e8bd 83f0 	ldmia.w	sp!, {r4, r5, r6, r7, r8, r9, pc}
     4ae:	2202      	movs	r2, #2
     4b0:	f896 1298 	ldrb.w	r1, [r6, #664]	; 0x298
     4b4:	4613      	mov	r3, r2
     4b6:	f8d6 024c 	ldr.w	r0, [r6, #588]	; 0x24c
     4ba:	9500      	str	r5, [sp, #0]
     4bc:	f000 fbfe 	bl	cbc <USBDeviceConnected::getEndpoint(unsigned char, ENDPOINT_TYPE, ENDPOINT_DIRECTION, unsigned char)>
     4c0:	f8d6 324c 	ldr.w	r3, [r6, #588]	; 0x24c
     4c4:	f8c6 0254 	str.w	r0, [r6, #596]	; 0x254
     4c8:	f896 1298 	ldrb.w	r1, [r6, #664]	; 0x298
     4cc:	4618      	mov	r0, r3
     4ce:	9500      	str	r5, [sp, #0]
     4d0:	2301      	movs	r3, #1
     4d2:	2202      	movs	r2, #2
     4d4:	f000 fbf2 	bl	cbc <USBDeviceConnected::getEndpoint(unsigned char, ENDPOINT_TYPE, ENDPOINT_DIRECTION, unsigned char)>
     4d8:	f8d6 3254 	ldr.w	r3, [r6, #596]	; 0x254
     4dc:	f8c6 0258 	str.w	r0, [r6, #600]	; 0x258
     4e0:	2b00      	cmp	r3, #0
     4e2:	d0c3      	beq.n	46c <USBHostMSD::connect()+0x3c>
     4e4:	2800      	cmp	r0, #0
     4e6:	d0c1      	beq.n	46c <USBHostMSD::connect()+0x3c>
     4e8:	f8d6 224c 	ldr.w	r2, [r6, #588]	; 0x24c
     4ec:	f8d6 1298 	ldr.w	r1, [r6, #664]	; 0x298
     4f0:	f8b2 0100 	ldrh.w	r0, [r2, #256]	; 0x100
     4f4:	f8b2 30fe 	ldrh.w	r3, [r2, #254]	; 0xfe
     4f8:	e88d 0005 	stmia.w	sp, {r0, r2}
     4fc:	9102      	str	r1, [sp, #8]
     4fe:	2251      	movs	r2, #81	; 0x51
     500:	491d      	ldr	r1, [pc, #116]	; (578 <USBHostMSD::connect()+0x148>)
     502:	481e      	ldr	r0, [pc, #120]	; (57c <USBHostMSD::connect()+0x14c>)
     504:	f008 fe90 	bl	9228 <iprintf>
     508:	f896 3298 	ldrb.w	r3, [r6, #664]	; 0x298
     50c:	491c      	ldr	r1, [pc, #112]	; (580 <USBHostMSD::connect()+0x150>)
     50e:	ebc3 1303 	rsb	r3, r3, r3, lsl #4
     512:	6808      	ldr	r0, [r1, #0]
     514:	009a      	lsls	r2, r3, #2
     516:	f8d6 324c 	ldr.w	r3, [r6, #588]	; 0x24c
     51a:	3238      	adds	r2, #56	; 0x38
     51c:	5098      	str	r0, [r3, r2]
     51e:	f8d6 7248 	ldr.w	r7, [r6, #584]	; 0x248
     522:	f8d6 424c 	ldr.w	r4, [r6, #588]	; 0x24c
     526:	4638      	mov	r0, r7
     528:	4621      	mov	r1, r4
     52a:	f8d6 9298 	ldr.w	r9, [r6, #664]	; 0x298
     52e:	f000 fff1 	bl	1514 <USBHost::findDevice(USBDeviceConnected*)>
     532:	1c43      	adds	r3, r0, #1
     534:	d01b      	beq.n	56e <USBHostMSD::connect()+0x13e>
     536:	b1d6      	cbz	r6, 56e <USBHostMSD::connect()+0x13e>
     538:	fa5f f389 	uxtb.w	r3, r9
     53c:	ebc3 1203 	rsb	r2, r3, r3, lsl #4
     540:	eb04 0482 	add.w	r4, r4, r2, lsl #2
     544:	eb07 0080 	add.w	r0, r7, r0, lsl #2
     548:	4a0e      	ldr	r2, [pc, #56]	; (584 <USBHostMSD::connect()+0x154>)
     54a:	4403      	add	r3, r0
     54c:	4f0e      	ldr	r7, [pc, #56]	; (588 <USBHostMSD::connect()+0x158>)
     54e:	f503 5101 	add.w	r1, r3, #8256	; 0x2040
     552:	2001      	movs	r0, #1
     554:	f104 0318 	add.w	r3, r4, #24
     558:	9204      	str	r2, [sp, #16]
     55a:	9505      	str	r5, [sp, #20]
     55c:	aa04      	add	r2, sp, #16
     55e:	f881 0029 	strb.w	r0, [r1, #41]	; 0x29
     562:	ca03      	ldmia	r2!, {r0, r1}
     564:	609e      	str	r6, [r3, #8]
     566:	60d8      	str	r0, [r3, #12]
     568:	6119      	str	r1, [r3, #16]
     56a:	61df      	str	r7, [r3, #28]
     56c:	605d      	str	r5, [r3, #4]
     56e:	2301      	movs	r3, #1
     570:	4647      	mov	r7, r8
     572:	f886 3250 	strb.w	r3, [r6, #592]	; 0x250
     576:	e796      	b.n	4a6 <USBHostMSD::connect()+0x76>
     578:	0000b08c 	.word	0x0000b08c
     57c:	0000b040 	.word	0x0000b040
     580:	0000b0cc 	.word	0x0000b0cc
     584:	00000275 	.word	0x00000275
     588:	0000030d 	.word	0x0000030d

0000058c <USBHostMSD::checkResult(unsigned char, USBEndpoint*)>:
     58c:	b530      	push	{r4, r5, lr}
     58e:	2904      	cmp	r1, #4
     590:	b085      	sub	sp, #20
     592:	4614      	mov	r4, r2
     594:	d003      	beq.n	59e <USBHostMSD::checkResult(unsigned char, USBEndpoint*)+0x12>
     596:	b999      	cbnz	r1, 5c0 <USBHostMSD::checkResult(unsigned char, USBEndpoint*)+0x34>
     598:	2000      	movs	r0, #0
     59a:	b005      	add	sp, #20
     59c:	bd30      	pop	{r4, r5, pc}
     59e:	f8d0 5248 	ldr.w	r5, [r0, #584]	; 0x248
     5a2:	f892 2028 	ldrb.w	r2, [r2, #40]	; 0x28
     5a6:	2300      	movs	r3, #0
     5a8:	f8d0 124c 	ldr.w	r1, [r0, #588]	; 0x24c
     5ac:	9201      	str	r2, [sp, #4]
     5ae:	9300      	str	r3, [sp, #0]
     5b0:	9302      	str	r3, [sp, #8]
     5b2:	9303      	str	r3, [sp, #12]
     5b4:	4628      	mov	r0, r5
     5b6:	2202      	movs	r2, #2
     5b8:	2301      	movs	r3, #1
     5ba:	f001 fabd 	bl	1b38 <USBHost::controlWrite(USBDeviceConnected*, unsigned char, unsigned char, unsigned long, unsigned long, unsigned char*, unsigned long)>
     5be:	b110      	cbz	r0, 5c6 <USBHostMSD::checkResult(unsigned char, USBEndpoint*)+0x3a>
     5c0:	f04f 30ff 	mov.w	r0, #4294967295	; 0xffffffff
     5c4:	e7e9      	b.n	59a <USBHostMSD::checkResult(unsigned char, USBEndpoint*)+0xe>
     5c6:	2310      	movs	r3, #16
     5c8:	f884 3025 	strb.w	r3, [r4, #37]	; 0x25
     5cc:	e7e4      	b.n	598 <USBHostMSD::checkResult(unsigned char, USBEndpoint*)+0xc>
     5ce:	bf00      	nop

000005d0 <USBHostMSD::SCSITransfer(unsigned char*, unsigned char, int, unsigned char*, unsigned long)>:
     5d0:	e92d 4ff0 	stmdb	sp!, {r4, r5, r6, r7, r8, r9, r10, r11, lr}
     5d4:	4604      	mov	r4, r0
     5d6:	b085      	sub	sp, #20
     5d8:	f894 625c 	ldrb.w	r6, [r4, #604]	; 0x25c
     5dc:	4d6d      	ldr	r5, [pc, #436]	; (794 <USBHostMSD::SCSITransfer(unsigned char*, unsigned char, int, unsigned char*, unsigned long)+0x1c4>)
     5de:	f8dd b03c 	ldr.w	r11, [sp, #60]	; 0x3c
     5e2:	2043      	movs	r0, #67	; 0x43
     5e4:	b2c0      	uxtb	r0, r0
     5e6:	4335      	orrs	r5, r6
     5e8:	f504 7a1b 	add.w	r10, r4, #620	; 0x26c
     5ec:	2600      	movs	r6, #0
     5ee:	4688      	mov	r8, r1
     5f0:	f8c4 0260 	str.w	r0, [r4, #608]	; 0x260
     5f4:	4691      	mov	r9, r2
     5f6:	f884 226b 	strb.w	r2, [r4, #619]	; 0x26b
     5fa:	f8c4 525c 	str.w	r5, [r4, #604]	; 0x25c
     5fe:	f884 6264 	strb.w	r6, [r4, #612]	; 0x264
     602:	f884 626a 	strb.w	r6, [r4, #618]	; 0x26a
     606:	4631      	mov	r1, r6
     608:	f884 3269 	strb.w	r3, [r4, #617]	; 0x269
     60c:	4650      	mov	r0, r10
     60e:	f8c4 b265 	str.w	r11, [r4, #613]	; 0x265
     612:	2210      	movs	r2, #16
     614:	461f      	mov	r7, r3
     616:	9e0e      	ldr	r6, [sp, #56]	; 0x38
     618:	f008 f8f7 	bl	880a <memset>
     61c:	f1b8 0f00 	cmp.w	r8, #0
     620:	d004      	beq.n	62c <USBHostMSD::SCSITransfer(unsigned char*, unsigned char, int, unsigned char*, unsigned long)+0x5c>
     622:	4650      	mov	r0, r10
     624:	464a      	mov	r2, r9
     626:	4641      	mov	r1, r8
     628:	f008 f8e6 	bl	87f8 <memcpy>
     62c:	231f      	movs	r3, #31
     62e:	2501      	movs	r5, #1
     630:	f8d4 124c 	ldr.w	r1, [r4, #588]	; 0x24c
     634:	f8d4 2258 	ldr.w	r2, [r4, #600]	; 0x258
     638:	f8d4 0248 	ldr.w	r0, [r4, #584]	; 0x248
     63c:	e88d 0028 	stmia.w	sp, {r3, r5}
     640:	f204 235d 	addw	r3, r4, #605	; 0x25d
     644:	f001 f914 	bl	1870 <USBHost::bulkWrite(USBDeviceConnected*, USBEndpoint*, unsigned char*, unsigned long, bool)>
     648:	f8d4 2258 	ldr.w	r2, [r4, #600]	; 0x258
     64c:	4601      	mov	r1, r0
     64e:	4620      	mov	r0, r4
     650:	f7ff ff9c 	bl	58c <USBHostMSD::checkResult(unsigned char, USBEndpoint*)>
     654:	2800      	cmp	r0, #0
     656:	d178      	bne.n	74a <USBHostMSD::SCSITransfer(unsigned char*, unsigned char, int, unsigned char*, unsigned long)+0x17a>
     658:	b126      	cbz	r6, 664 <USBHostMSD::SCSITransfer(unsigned char*, unsigned char, int, unsigned char*, unsigned long)+0x94>
     65a:	2f00      	cmp	r7, #0
     65c:	d061      	beq.n	722 <USBHostMSD::SCSITransfer(unsigned char*, unsigned char, int, unsigned char*, unsigned long)+0x152>
     65e:	2f80      	cmp	r7, #128	; 0x80
     660:	f000 8082 	beq.w	768 <USBHostMSD::SCSITransfer(unsigned char*, unsigned char, int, unsigned char*, unsigned long)+0x198>
     664:	230d      	movs	r3, #13
     666:	2500      	movs	r5, #0
     668:	2701      	movs	r7, #1
     66a:	f8d4 124c 	ldr.w	r1, [r4, #588]	; 0x24c
     66e:	f8d4 2254 	ldr.w	r2, [r4, #596]	; 0x254
     672:	f8d4 0248 	ldr.w	r0, [r4, #584]	; 0x248
     676:	f8c4 527c 	str.w	r5, [r4, #636]	; 0x27c
     67a:	e88d 0088 	stmia.w	sp, {r3, r7}
     67e:	f504 731f 	add.w	r3, r4, #636	; 0x27c
     682:	f001 f905 	bl	1890 <USBHost::bulkRead(USBDeviceConnected*, USBEndpoint*, unsigned char*, unsigned long, bool)>
     686:	f8d4 2254 	ldr.w	r2, [r4, #596]	; 0x254
     68a:	4601      	mov	r1, r0
     68c:	4620      	mov	r0, r4
     68e:	f7ff ff7d 	bl	58c <USBHostMSD::checkResult(unsigned char, USBEndpoint*)>
     692:	4606      	mov	r6, r0
     694:	2800      	cmp	r0, #0
     696:	d158      	bne.n	74a <USBHostMSD::SCSITransfer(unsigned char*, unsigned char, int, unsigned char*, unsigned long)+0x17a>
     698:	4a3f      	ldr	r2, [pc, #252]	; (798 <USBHostMSD::SCSITransfer(unsigned char*, unsigned char, int, unsigned char*, unsigned long)+0x1c8>)
     69a:	f8d4 327c 	ldr.w	r3, [r4, #636]	; 0x27c
     69e:	4293      	cmp	r3, r2
     6a0:	d153      	bne.n	74a <USBHostMSD::SCSITransfer(unsigned char*, unsigned char, int, unsigned char*, unsigned long)+0x17a>
     6a2:	f894 5288 	ldrb.w	r5, [r4, #648]	; 0x288
     6a6:	2d01      	cmp	r5, #1
     6a8:	d054      	beq.n	754 <USBHostMSD::SCSITransfer(unsigned char*, unsigned char, int, unsigned char*, unsigned long)+0x184>
     6aa:	2d02      	cmp	r5, #2
     6ac:	d003      	beq.n	6b6 <USBHostMSD::SCSITransfer(unsigned char*, unsigned char, int, unsigned char*, unsigned long)+0xe6>
     6ae:	4628      	mov	r0, r5
     6b0:	b005      	add	sp, #20
     6b2:	e8bd 8ff0 	ldmia.w	sp!, {r4, r5, r6, r7, r8, r9, r10, r11, pc}
     6b6:	f898 3000 	ldrb.w	r3, [r8]
     6ba:	2b03      	cmp	r3, #3
     6bc:	d0f7      	beq.n	6ae <USBHostMSD::SCSITransfer(unsigned char*, unsigned char, int, unsigned char*, unsigned long)+0xde>
     6be:	f8d4 3298 	ldr.w	r3, [r4, #664]	; 0x298
     6c2:	f8d4 124c 	ldr.w	r1, [r4, #588]	; 0x24c
     6c6:	f8d4 0248 	ldr.w	r0, [r4, #584]	; 0x248
     6ca:	2221      	movs	r2, #33	; 0x21
     6cc:	9301      	str	r3, [sp, #4]
     6ce:	9600      	str	r6, [sp, #0]
     6d0:	23ff      	movs	r3, #255	; 0xff
     6d2:	9602      	str	r6, [sp, #8]
     6d4:	9603      	str	r6, [sp, #12]
     6d6:	f001 fa2f 	bl	1b38 <USBHost::controlWrite(USBDeviceConnected*, unsigned char, unsigned char, unsigned long, unsigned long, unsigned char*, unsigned long)>
     6da:	f8d4 3254 	ldr.w	r3, [r4, #596]	; 0x254
     6de:	9600      	str	r6, [sp, #0]
     6e0:	f893 3028 	ldrb.w	r3, [r3, #40]	; 0x28
     6e4:	f8d4 124c 	ldr.w	r1, [r4, #588]	; 0x24c
     6e8:	f8d4 0248 	ldr.w	r0, [r4, #584]	; 0x248
     6ec:	462a      	mov	r2, r5
     6ee:	9301      	str	r3, [sp, #4]
     6f0:	9602      	str	r6, [sp, #8]
     6f2:	463b      	mov	r3, r7
     6f4:	9603      	str	r6, [sp, #12]
     6f6:	f001 fa1f 	bl	1b38 <USBHost::controlWrite(USBDeviceConnected*, unsigned char, unsigned char, unsigned long, unsigned long, unsigned char*, unsigned long)>
     6fa:	f8d4 3258 	ldr.w	r3, [r4, #600]	; 0x258
     6fe:	9600      	str	r6, [sp, #0]
     700:	f893 e028 	ldrb.w	lr, [r3, #40]	; 0x28
     704:	f8d4 0248 	ldr.w	r0, [r4, #584]	; 0x248
     708:	f8d4 124c 	ldr.w	r1, [r4, #588]	; 0x24c
     70c:	462a      	mov	r2, r5
     70e:	463b      	mov	r3, r7
     710:	f8cd e004 	str.w	lr, [sp, #4]
     714:	9602      	str	r6, [sp, #8]
     716:	9603      	str	r6, [sp, #12]
     718:	f001 fa0e 	bl	1b38 <USBHost::controlWrite(USBDeviceConnected*, unsigned char, unsigned char, unsigned long, unsigned long, unsigned char*, unsigned long)>
     71c:	f894 5288 	ldrb.w	r5, [r4, #648]	; 0x288
     720:	e7c5      	b.n	6ae <USBHostMSD::SCSITransfer(unsigned char*, unsigned char, int, unsigned char*, unsigned long)+0xde>
     722:	f8d4 124c 	ldr.w	r1, [r4, #588]	; 0x24c
     726:	f8d4 2258 	ldr.w	r2, [r4, #600]	; 0x258
     72a:	f8d4 0248 	ldr.w	r0, [r4, #584]	; 0x248
     72e:	4633      	mov	r3, r6
     730:	f8cd b000 	str.w	r11, [sp]
     734:	9501      	str	r5, [sp, #4]
     736:	f001 f89b 	bl	1870 <USBHost::bulkWrite(USBDeviceConnected*, USBEndpoint*, unsigned char*, unsigned long, bool)>
     73a:	f8d4 2258 	ldr.w	r2, [r4, #600]	; 0x258
     73e:	4601      	mov	r1, r0
     740:	4620      	mov	r0, r4
     742:	f7ff ff23 	bl	58c <USBHostMSD::checkResult(unsigned char, USBEndpoint*)>
     746:	2800      	cmp	r0, #0
     748:	d08c      	beq.n	664 <USBHostMSD::SCSITransfer(unsigned char*, unsigned char, int, unsigned char*, unsigned long)+0x94>
     74a:	f04f 30ff 	mov.w	r0, #4294967295	; 0xffffffff
     74e:	b005      	add	sp, #20
     750:	e8bd 8ff0 	ldmia.w	sp!, {r4, r5, r6, r7, r8, r9, r10, r11, pc}
     754:	f898 3000 	ldrb.w	r3, [r8]
     758:	2b03      	cmp	r3, #3
     75a:	d0a8      	beq.n	6ae <USBHostMSD::SCSITransfer(unsigned char*, unsigned char, int, unsigned char*, unsigned long)+0xde>
     75c:	4620      	mov	r0, r4
     75e:	b005      	add	sp, #20
     760:	e8bd 4ff0 	ldmia.w	sp!, {r4, r5, r6, r7, r8, r9, r10, r11, lr}
     764:	f000 b878 	b.w	858 <USBHostMSD::SCSIRequestSense()>
     768:	f8d4 124c 	ldr.w	r1, [r4, #588]	; 0x24c
     76c:	f8d4 2254 	ldr.w	r2, [r4, #596]	; 0x254
     770:	f8d4 0248 	ldr.w	r0, [r4, #584]	; 0x248
     774:	4633      	mov	r3, r6
     776:	f8cd b000 	str.w	r11, [sp]
     77a:	9501      	str	r5, [sp, #4]
     77c:	f001 f888 	bl	1890 <USBHost::bulkRead(USBDeviceConnected*, USBEndpoint*, unsigned char*, unsigned long, bool)>
     780:	f8d4 2254 	ldr.w	r2, [r4, #596]	; 0x254
     784:	4601      	mov	r1, r0
     786:	4620      	mov	r0, r4
     788:	f7ff ff00 	bl	58c <USBHostMSD::checkResult(unsigned char, USBEndpoint*)>
     78c:	2800      	cmp	r0, #0
     78e:	f43f af69 	beq.w	664 <USBHostMSD::SCSITransfer(unsigned char*, unsigned char, int, unsigned char*, unsigned long)+0x94>
     792:	e7da      	b.n	74a <USBHostMSD::SCSITransfer(unsigned char*, unsigned char, int, unsigned char*, unsigned long)+0x17a>
     794:	42535500 	.word	0x42535500
     798:	53425355 	.word	0x53425355

0000079c <USBHostMSD::readCapacity()>:
     79c:	b5f0      	push	{r4, r5, r6, r7, lr}
     79e:	b08d      	sub	sp, #52	; 0x34
     7a0:	aa07      	add	r2, sp, #28
     7a2:	2308      	movs	r3, #8
     7a4:	2400      	movs	r4, #0
     7a6:	e88d 000c 	stmia.w	sp, {r2, r3}
     7aa:	2525      	movs	r5, #37	; 0x25
     7ac:	a909      	add	r1, sp, #36	; 0x24
     7ae:	220a      	movs	r2, #10
     7b0:	2380      	movs	r3, #128	; 0x80
     7b2:	f88d 5024 	strb.w	r5, [sp, #36]	; 0x24
     7b6:	f88d 4025 	strb.w	r4, [sp, #37]	; 0x25
     7ba:	f88d 4026 	strb.w	r4, [sp, #38]	; 0x26
     7be:	f88d 4027 	strb.w	r4, [sp, #39]	; 0x27
     7c2:	f88d 4028 	strb.w	r4, [sp, #40]	; 0x28
     7c6:	f88d 4029 	strb.w	r4, [sp, #41]	; 0x29
     7ca:	f88d 402a 	strb.w	r4, [sp, #42]	; 0x2a
     7ce:	f88d 402b 	strb.w	r4, [sp, #43]	; 0x2b
     7d2:	f88d 402c 	strb.w	r4, [sp, #44]	; 0x2c
     7d6:	f88d 402d 	strb.w	r4, [sp, #45]	; 0x2d
     7da:	4607      	mov	r7, r0
     7dc:	f7ff fef8 	bl	5d0 <USBHostMSD::SCSITransfer(unsigned char*, unsigned char, int, unsigned char*, unsigned long)>
     7e0:	4606      	mov	r6, r0
     7e2:	bb88      	cbnz	r0, 848 <Heap_Size+0x48>
     7e4:	f89d 201d 	ldrb.w	r2, [sp, #29]
     7e8:	f89d 1021 	ldrb.w	r1, [sp, #33]	; 0x21
     7ec:	f89d 001c 	ldrb.w	r0, [sp, #28]
     7f0:	f89d 3020 	ldrb.w	r3, [sp, #32]
     7f4:	f89d 501f 	ldrb.w	r5, [sp, #31]
     7f8:	f89d 4023 	ldrb.w	r4, [sp, #35]	; 0x23
     7fc:	0412      	lsls	r2, r2, #16
     7fe:	0409      	lsls	r1, r1, #16
     800:	ea42 6200 	orr.w	r2, r2, r0, lsl #24
     804:	ea41 6103 	orr.w	r1, r1, r3, lsl #24
     808:	f89d 001e 	ldrb.w	r0, [sp, #30]
     80c:	f89d 3022 	ldrb.w	r3, [sp, #34]	; 0x22
     810:	432a      	orrs	r2, r5
     812:	4321      	orrs	r1, r4
     814:	ea42 2200 	orr.w	r2, r2, r0, lsl #8
     818:	ea41 2103 	orr.w	r1, r1, r3, lsl #8
     81c:	fb81 4502 	smull	r4, r5, r1, r2
     820:	f8d7 024c 	ldr.w	r0, [r7, #588]	; 0x24c
     824:	17d3      	asrs	r3, r2, #31
     826:	f507 7e24 	add.w	lr, r7, #656	; 0x290
     82a:	e9cd 2300 	strd	r2, r3, [sp]
     82e:	e9ce 2300 	strd	r2, r3, [lr]
     832:	9102      	str	r1, [sp, #8]
     834:	4603      	mov	r3, r0
     836:	f8c7 128c 	str.w	r1, [r7, #652]	; 0x28c
     83a:	4805      	ldr	r0, [pc, #20]	; (850 <Heap_Size+0x50>)
     83c:	e9cd 4504 	strd	r4, r5, [sp, #16]
     840:	4904      	ldr	r1, [pc, #16]	; (854 <Heap_Size+0x54>)
     842:	228b      	movs	r2, #139	; 0x8b
     844:	f008 fcf0 	bl	9228 <iprintf>
     848:	4630      	mov	r0, r6
     84a:	b00d      	add	sp, #52	; 0x34
     84c:	bdf0      	pop	{r4, r5, r6, r7, pc}
     84e:	bf00      	nop
     850:	0000b0d0 	.word	0x0000b0d0
     854:	0000b08c 	.word	0x0000b08c

00000858 <USBHostMSD::SCSIRequestSense()>:
     858:	b530      	push	{r4, r5, lr}
     85a:	4b0a      	ldr	r3, [pc, #40]	; (884 <USBHostMSD::SCSIRequestSense()+0x2c>)
     85c:	b08b      	sub	sp, #44	; 0x2c
     85e:	4605      	mov	r5, r0
     860:	6818      	ldr	r0, [r3, #0]
     862:	889c      	ldrh	r4, [r3, #4]
     864:	aa05      	add	r2, sp, #20
     866:	2312      	movs	r3, #18
     868:	e88d 000c 	stmia.w	sp, {r2, r3}
     86c:	9003      	str	r0, [sp, #12]
     86e:	a903      	add	r1, sp, #12
     870:	4628      	mov	r0, r5
     872:	2206      	movs	r2, #6
     874:	2380      	movs	r3, #128	; 0x80
     876:	f8ad 4010 	strh.w	r4, [sp, #16]
     87a:	f7ff fea9 	bl	5d0 <USBHostMSD::SCSITransfer(unsigned char*, unsigned char, int, unsigned char*, unsigned long)>
     87e:	b00b      	add	sp, #44	; 0x2c
     880:	bd30      	pop	{r4, r5, pc}
     882:	bf00      	nop
     884:	0000afb8 	.word	0x0000afb8

00000888 <USBHostMSD::inquiry(unsigned char, unsigned char)>:
     888:	b5f0      	push	{r4, r5, r6, r7, lr}
     88a:	2424      	movs	r4, #36	; 0x24
     88c:	b093      	sub	sp, #76	; 0x4c
     88e:	2500      	movs	r5, #0
     890:	eb0d 0304 	add.w	r3, sp, r4
     894:	0149      	lsls	r1, r1, #5
     896:	9502      	str	r5, [sp, #8]
     898:	42aa      	cmp	r2, r5
     89a:	bf0c      	ite	eq
     89c:	460f      	moveq	r7, r1
     89e:	f041 0701 	orrne.w	r7, r1, #1
     8a2:	9401      	str	r4, [sp, #4]
     8a4:	f88d 200a 	strb.w	r2, [sp, #10]
     8a8:	9300      	str	r3, [sp, #0]
     8aa:	2612      	movs	r6, #18
     8ac:	a902      	add	r1, sp, #8
     8ae:	2206      	movs	r2, #6
     8b0:	2380      	movs	r3, #128	; 0x80
     8b2:	f8ad 500c 	strh.w	r5, [sp, #12]
     8b6:	f88d 6008 	strb.w	r6, [sp, #8]
     8ba:	f88d 400c 	strb.w	r4, [sp, #12]
     8be:	f88d 7009 	strb.w	r7, [sp, #9]
     8c2:	4606      	mov	r6, r0
     8c4:	f7ff fe84 	bl	5d0 <USBHostMSD::SCSITransfer(unsigned char*, unsigned char, int, unsigned char*, unsigned long)>
     8c8:	4604      	mov	r4, r0
     8ca:	bb50      	cbnz	r0, 922 <USBHostMSD::inquiry(unsigned char, unsigned char)+0x9a>
     8cc:	ad04      	add	r5, sp, #16
     8ce:	aa0b      	add	r2, sp, #44	; 0x2c
     8d0:	e892 0003 	ldmia.w	r2, {r0, r1}
     8d4:	f8d6 324c 	ldr.w	r3, [r6, #588]	; 0x24c
     8d8:	22a4      	movs	r2, #164	; 0xa4
     8da:	9500      	str	r5, [sp, #0]
     8dc:	e885 0003 	stmia.w	r5, {r0, r1}
     8e0:	4911      	ldr	r1, [pc, #68]	; (928 <USBHostMSD::inquiry(unsigned char, unsigned char)+0xa0>)
     8e2:	4812      	ldr	r0, [pc, #72]	; (92c <USBHostMSD::inquiry(unsigned char, unsigned char)+0xa4>)
     8e4:	f88d 4018 	strb.w	r4, [sp, #24]
     8e8:	f008 fc9e 	bl	9228 <iprintf>
     8ec:	f8d6 724c 	ldr.w	r7, [r6, #588]	; 0x24c
     8f0:	aa0d      	add	r2, sp, #52	; 0x34
     8f2:	9500      	str	r5, [sp, #0]
     8f4:	ca0f      	ldmia	r2, {r0, r1, r2, r3}
     8f6:	e885 000f 	stmia.w	r5, {r0, r1, r2, r3}
     8fa:	463b      	mov	r3, r7
     8fc:	490a      	ldr	r1, [pc, #40]	; (928 <USBHostMSD::inquiry(unsigned char, unsigned char)+0xa0>)
     8fe:	22a8      	movs	r2, #168	; 0xa8
     900:	480b      	ldr	r0, [pc, #44]	; (930 <USBHostMSD::inquiry(unsigned char, unsigned char)+0xa8>)
     902:	f88d 4020 	strb.w	r4, [sp, #32]
     906:	f008 fc8f 	bl	9228 <iprintf>
     90a:	f8d6 324c 	ldr.w	r3, [r6, #588]	; 0x24c
     90e:	9e11      	ldr	r6, [sp, #68]	; 0x44
     910:	9500      	str	r5, [sp, #0]
     912:	4808      	ldr	r0, [pc, #32]	; (934 <USBHostMSD::inquiry(unsigned char, unsigned char)+0xac>)
     914:	4904      	ldr	r1, [pc, #16]	; (928 <USBHostMSD::inquiry(unsigned char, unsigned char)+0xa0>)
     916:	22ac      	movs	r2, #172	; 0xac
     918:	f88d 4014 	strb.w	r4, [sp, #20]
     91c:	9604      	str	r6, [sp, #16]
     91e:	f008 fc83 	bl	9228 <iprintf>
     922:	4620      	mov	r0, r4
     924:	b013      	add	sp, #76	; 0x4c
     926:	bdf0      	pop	{r4, r5, r6, r7, pc}
     928:	0000b08c 	.word	0x0000b08c
     92c:	0000b128 	.word	0x0000b128
     930:	0000b15c 	.word	0x0000b15c
     934:	0000b190 	.word	0x0000b190

00000938 <USBHostMSD::dataTransfer(unsigned char*, unsigned long, unsigned char, int)>:
     938:	e92d 41f0 	stmdb	sp!, {r4, r5, r6, r7, r8, lr}
     93c:	b086      	sub	sp, #24
     93e:	9100      	str	r1, [sp, #0]
     940:	f8d0 128c 	ldr.w	r1, [r0, #652]	; 0x28c
     944:	461e      	mov	r6, r3
     946:	fb01 f103 	mul.w	r1, r1, r3
     94a:	9b0c      	ldr	r3, [sp, #48]	; 0x30
     94c:	2500      	movs	r5, #0
     94e:	2b80      	cmp	r3, #128	; 0x80
     950:	ea4f 6c12 	mov.w	r12, r2, lsr #24
     954:	ea4f 4e12 	mov.w	lr, r2, lsr #16
     958:	4614      	mov	r4, r2
     95a:	9101      	str	r1, [sp, #4]
     95c:	bf14      	ite	ne
     95e:	f04f 082a 	movne.w	r8, #42	; 0x2a
     962:	f04f 0828 	moveq.w	r8, #40	; 0x28
     966:	0a17      	lsrs	r7, r2, #8
     968:	a903      	add	r1, sp, #12
     96a:	220a      	movs	r2, #10
     96c:	9503      	str	r5, [sp, #12]
     96e:	9504      	str	r5, [sp, #16]
     970:	f8ad 5014 	strh.w	r5, [sp, #20]
     974:	f88d 800c 	strb.w	r8, [sp, #12]
     978:	f88d 6014 	strb.w	r6, [sp, #20]
     97c:	f88d 4011 	strb.w	r4, [sp, #17]
     980:	f88d c00e 	strb.w	r12, [sp, #14]
     984:	f88d e00f 	strb.w	lr, [sp, #15]
     988:	f88d 7010 	strb.w	r7, [sp, #16]
     98c:	f7ff fe20 	bl	5d0 <USBHostMSD::SCSITransfer(unsigned char*, unsigned char, int, unsigned char*, unsigned long)>
     990:	b006      	add	sp, #24
     992:	e8bd 81f0 	ldmia.w	sp!, {r4, r5, r6, r7, r8, pc}
     996:	bf00      	nop

00000998 <USBHostMSD::disk_write(unsigned char const*, unsigned long long, unsigned char)>:
     998:	e92d 47f0 	stmdb	sp!, {r4, r5, r6, r7, r8, r9, r10, lr}
     99c:	f890 729d 	ldrb.w	r7, [r0, #669]	; 0x29d
     9a0:	b082      	sub	sp, #8
     9a2:	4681      	mov	r9, r0
     9a4:	4688      	mov	r8, r1
     9a6:	4614      	mov	r4, r2
     9a8:	461d      	mov	r5, r3
     9aa:	f89d 6028 	ldrb.w	r6, [sp, #40]	; 0x28
     9ae:	b357      	cbz	r7, a06 <USBHostMSD::disk_write(unsigned char const*, unsigned long long, unsigned char)+0x6e>
     9b0:	b2f6      	uxtb	r6, r6
     9b2:	1936      	adds	r6, r6, r4
     9b4:	f04f 0700 	mov.w	r7, #0
     9b8:	eb47 0705 	adc.w	r7, r7, r5
     9bc:	42bd      	cmp	r5, r7
     9be:	bf08      	it	eq
     9c0:	42b4      	cmpeq	r4, r6
     9c2:	bf38      	it	cc
     9c4:	f04f 0a00 	movcc.w	r10, #0
     9c8:	d304      	bcc.n	9d4 <USBHostMSD::disk_write(unsigned char const*, unsigned long long, unsigned char)+0x3c>
     9ca:	e018      	b.n	9fe <USBHostMSD::disk_write(unsigned char const*, unsigned long long, unsigned char)+0x66>
     9cc:	42bd      	cmp	r5, r7
     9ce:	bf08      	it	eq
     9d0:	42b4      	cmpeq	r4, r6
     9d2:	d214      	bcs.n	9fe <USBHostMSD::disk_write(unsigned char const*, unsigned long long, unsigned char)+0x66>
     9d4:	4641      	mov	r1, r8
     9d6:	4622      	mov	r2, r4
     9d8:	f8cd a000 	str.w	r10, [sp]
     9dc:	3401      	adds	r4, #1
     9de:	4648      	mov	r0, r9
     9e0:	f04f 0301 	mov.w	r3, #1
     9e4:	f145 0500 	adc.w	r5, r5, #0
     9e8:	f7ff ffa6 	bl	938 <USBHostMSD::dataTransfer(unsigned char*, unsigned long, unsigned char, int)>
     9ec:	f508 7800 	add.w	r8, r8, #512	; 0x200
     9f0:	2800      	cmp	r0, #0
     9f2:	d0eb      	beq.n	9cc <USBHostMSD::disk_write(unsigned char const*, unsigned long long, unsigned char)+0x34>
     9f4:	f04f 30ff 	mov.w	r0, #4294967295	; 0xffffffff
     9f8:	b002      	add	sp, #8
     9fa:	e8bd 87f0 	ldmia.w	sp!, {r4, r5, r6, r7, r8, r9, r10, pc}
     9fe:	2000      	movs	r0, #0
     a00:	b002      	add	sp, #8
     a02:	e8bd 87f0 	ldmia.w	sp!, {r4, r5, r6, r7, r8, r9, r10, pc}
     a06:	6803      	ldr	r3, [r0, #0]
     a08:	68db      	ldr	r3, [r3, #12]
     a0a:	4798      	blx	r3
     a0c:	f899 329d 	ldrb.w	r3, [r9, #669]	; 0x29d
     a10:	2b00      	cmp	r3, #0
     a12:	d1cd      	bne.n	9b0 <USBHostMSD::disk_write(unsigned char const*, unsigned long long, unsigned char)+0x18>
     a14:	e7ee      	b.n	9f4 <USBHostMSD::disk_write(unsigned char const*, unsigned long long, unsigned char)+0x5c>
     a16:	bf00      	nop

00000a18 <non-virtual thunk to USBHostMSD::disk_write(unsigned char const*, unsigned long long, unsigned char)>:
     a18:	f1a0 0004 	sub.w	r0, r0, #4
     a1c:	f7ff bfbc 	b.w	998 <USBHostMSD::disk_write(unsigned char const*, unsigned long long, unsigned char)>

00000a20 <USBHostMSD::disk_read(unsigned char*, unsigned long long, unsigned char)>:
     a20:	e92d 47f0 	stmdb	sp!, {r4, r5, r6, r7, r8, r9, r10, lr}
     a24:	f890 729d 	ldrb.w	r7, [r0, #669]	; 0x29d
     a28:	b082      	sub	sp, #8
     a2a:	4681      	mov	r9, r0
     a2c:	4688      	mov	r8, r1
     a2e:	4614      	mov	r4, r2
     a30:	461d      	mov	r5, r3
     a32:	f89d 6028 	ldrb.w	r6, [sp, #40]	; 0x28
     a36:	b357      	cbz	r7, a8e <USBHostMSD::disk_read(unsigned char*, unsigned long long, unsigned char)+0x6e>
     a38:	b2f6      	uxtb	r6, r6
     a3a:	1936      	adds	r6, r6, r4
     a3c:	f04f 0700 	mov.w	r7, #0
     a40:	eb47 0705 	adc.w	r7, r7, r5
     a44:	42bd      	cmp	r5, r7
     a46:	bf08      	it	eq
     a48:	42b4      	cmpeq	r4, r6
     a4a:	bf38      	it	cc
     a4c:	f04f 0a80 	movcc.w	r10, #128	; 0x80
     a50:	d304      	bcc.n	a5c <USBHostMSD::disk_read(unsigned char*, unsigned long long, unsigned char)+0x3c>
     a52:	e018      	b.n	a86 <USBHostMSD::disk_read(unsigned char*, unsigned long long, unsigned char)+0x66>
     a54:	42bd      	cmp	r5, r7
     a56:	bf08      	it	eq
     a58:	42b4      	cmpeq	r4, r6
     a5a:	d214      	bcs.n	a86 <USBHostMSD::disk_read(unsigned char*, unsigned long long, unsigned char)+0x66>
     a5c:	4641      	mov	r1, r8
     a5e:	4622      	mov	r2, r4
     a60:	f8cd a000 	str.w	r10, [sp]
     a64:	3401      	adds	r4, #1
     a66:	4648      	mov	r0, r9
     a68:	f04f 0301 	mov.w	r3, #1
     a6c:	f145 0500 	adc.w	r5, r5, #0
     a70:	f7ff ff62 	bl	938 <USBHostMSD::dataTransfer(unsigned char*, unsigned long, unsigned char, int)>
     a74:	f508 7800 	add.w	r8, r8, #512	; 0x200
     a78:	2800      	cmp	r0, #0
     a7a:	d0eb      	beq.n	a54 <USBHostMSD::disk_read(unsigned char*, unsigned long long, unsigned char)+0x34>
     a7c:	f04f 30ff 	mov.w	r0, #4294967295	; 0xffffffff
     a80:	b002      	add	sp, #8
     a82:	e8bd 87f0 	ldmia.w	sp!, {r4, r5, r6, r7, r8, r9, r10, pc}
     a86:	2000      	movs	r0, #0
     a88:	b002      	add	sp, #8
     a8a:	e8bd 87f0 	ldmia.w	sp!, {r4, r5, r6, r7, r8, r9, r10, pc}
     a8e:	6803      	ldr	r3, [r0, #0]
     a90:	68db      	ldr	r3, [r3, #12]
     a92:	4798      	blx	r3
     a94:	f899 329d 	ldrb.w	r3, [r9, #669]	; 0x29d
     a98:	2b00      	cmp	r3, #0
     a9a:	d1cd      	bne.n	a38 <USBHostMSD::disk_read(unsigned char*, unsigned long long, unsigned char)+0x18>
     a9c:	e7ee      	b.n	a7c <USBHostMSD::disk_read(unsigned char*, unsigned long long, unsigned char)+0x5c>
     a9e:	bf00      	nop

00000aa0 <non-virtual thunk to USBHostMSD::disk_read(unsigned char*, unsigned long long, unsigned char)>:
     aa0:	f1a0 0004 	sub.w	r0, r0, #4
     aa4:	f7ff bfbc 	b.w	a20 <USBHostMSD::disk_read(unsigned char*, unsigned long long, unsigned char)>

00000aa8 <USBHostMSD::getMaxLun()>:
     aa8:	b530      	push	{r4, r5, lr}
     aaa:	4603      	mov	r3, r0
     aac:	b087      	sub	sp, #28
     aae:	f8d3 124c 	ldr.w	r1, [r3, #588]	; 0x24c
     ab2:	f8d3 3298 	ldr.w	r3, [r3, #664]	; 0x298
     ab6:	2500      	movs	r5, #0
     ab8:	ac05      	add	r4, sp, #20
     aba:	2201      	movs	r2, #1
     abc:	f8d0 0248 	ldr.w	r0, [r0, #584]	; 0x248
     ac0:	9301      	str	r3, [sp, #4]
     ac2:	9203      	str	r2, [sp, #12]
     ac4:	9500      	str	r5, [sp, #0]
     ac6:	9402      	str	r4, [sp, #8]
     ac8:	22a1      	movs	r2, #161	; 0xa1
     aca:	23fe      	movs	r3, #254	; 0xfe
     acc:	f000 ffc6 	bl	1a5c <USBHost::controlRead(USBDeviceConnected*, unsigned char, unsigned char, unsigned long, unsigned long, unsigned char*, unsigned long)>
     ad0:	b007      	add	sp, #28
     ad2:	bd30      	pop	{r4, r5, pc}

00000ad4 <USBHostMSD::disk_initialize()>:
     ad4:	b570      	push	{r4, r5, r6, lr}
     ad6:	b082      	sub	sp, #8
     ad8:	4606      	mov	r6, r0
     ada:	f7ff ffe5 	bl	aa8 <USBHostMSD::getMaxLun()>
     ade:	240a      	movs	r4, #10
     ae0:	2500      	movs	r5, #0
     ae2:	2064      	movs	r0, #100	; 0x64
     ae4:	f005 ffee 	bl	6ac4 <rtos::Thread::wait(unsigned long)>
     ae8:	9500      	str	r5, [sp, #0]
     aea:	9501      	str	r5, [sp, #4]
     aec:	4630      	mov	r0, r6
     aee:	2100      	movs	r1, #0
     af0:	2206      	movs	r2, #6
     af2:	2380      	movs	r3, #128	; 0x80
     af4:	f7ff fd6c 	bl	5d0 <USBHostMSD::SCSITransfer(unsigned char*, unsigned char, int, unsigned char*, unsigned long)>
     af8:	3c01      	subs	r4, #1
     afa:	b2a4      	uxth	r4, r4
     afc:	b138      	cbz	r0, b0e <USBHostMSD::disk_initialize()+0x3a>
     afe:	2c00      	cmp	r4, #0
     b00:	d1ef      	bne.n	ae2 <USBHostMSD::disk_initialize()+0xe>
     b02:	f04f 30ff 	mov.w	r0, #4294967295	; 0xffffffff
     b06:	f886 429d 	strb.w	r4, [r6, #669]	; 0x29d
     b0a:	b002      	add	sp, #8
     b0c:	bd70      	pop	{r4, r5, r6, pc}
     b0e:	4601      	mov	r1, r0
     b10:	4602      	mov	r2, r0
     b12:	4630      	mov	r0, r6
     b14:	f7ff feb8 	bl	888 <USBHostMSD::inquiry(unsigned char, unsigned char)>
     b18:	2301      	movs	r3, #1
     b1a:	4630      	mov	r0, r6
     b1c:	f886 329d 	strb.w	r3, [r6, #669]	; 0x29d
     b20:	b002      	add	sp, #8
     b22:	e8bd 4070 	ldmia.w	sp!, {r4, r5, r6, lr}
     b26:	f7ff be39 	b.w	79c <USBHostMSD::readCapacity()>
     b2a:	bf00      	nop

00000b2c <non-virtual thunk to USBHostMSD::disk_initialize()>:
     b2c:	f1a0 0004 	sub.w	r0, r0, #4
     b30:	f7ff bfd0 	b.w	ad4 <USBHostMSD::disk_initialize()>

00000b34 <USBDeviceConnected::init()>:
     b34:	e92d 41f0 	stmdb	sp!, {r4, r5, r6, r7, r8, lr}
     b38:	2308      	movs	r3, #8
     b3a:	2700      	movs	r7, #0
     b3c:	f880 7108 	strb.w	r7, [r0, #264]	; 0x108
     b40:	4606      	mov	r6, r0
     b42:	f8c0 30f8 	str.w	r3, [r0, #248]	; 0xf8
     b46:	f880 70fc 	strb.w	r7, [r0, #252]	; 0xfc
     b4a:	f880 70fd 	strb.w	r7, [r0, #253]	; 0xfd
     b4e:	f8a0 70fe 	strh.w	r7, [r0, #254]	; 0xfe
     b52:	f8a0 7100 	strh.w	r7, [r0, #256]	; 0x100
     b56:	f880 7109 	strb.w	r7, [r0, #265]	; 0x109
     b5a:	f880 7107 	strb.w	r7, [r0, #263]	; 0x107
     b5e:	f880 7103 	strb.w	r7, [r0, #259]	; 0x103
     b62:	f880 7104 	strb.w	r7, [r0, #260]	; 0x104
     b66:	f880 7105 	strb.w	r7, [r0, #261]	; 0x105
     b6a:	f880 7106 	strb.w	r7, [r0, #262]	; 0x106
     b6e:	f100 040c 	add.w	r4, r0, #12
     b72:	f100 08fc 	add.w	r8, r0, #252	; 0xfc
     b76:	223c      	movs	r2, #60	; 0x3c
     b78:	1f20      	subs	r0, r4, #4
     b7a:	2100      	movs	r1, #0
     b7c:	f007 fe45 	bl	880a <memset>
     b80:	f104 052c 	add.w	r5, r4, #44	; 0x2c
     b84:	f804 7c04 	strb.w	r7, [r4, #-4]
     b88:	f104 0c0c 	add.w	r12, r4, #12
     b8c:	4622      	mov	r2, r4
     b8e:	f842 7f04 	str.w	r7, [r2, #4]!
     b92:	4b08      	ldr	r3, [pc, #32]	; (bb4 <USBDeviceConnected::init()+0x80>)
     b94:	4562      	cmp	r2, r12
     b96:	cb03      	ldmia	r3!, {r0, r1}
     b98:	f04f 0300 	mov.w	r3, #0
     b9c:	6028      	str	r0, [r5, #0]
     b9e:	6069      	str	r1, [r5, #4]
     ba0:	d1f5      	bne.n	b8e <USBDeviceConnected::init()+0x5a>
     ba2:	343c      	adds	r4, #60	; 0x3c
     ba4:	4544      	cmp	r4, r8
     ba6:	d1e6      	bne.n	b76 <USBDeviceConnected::init()+0x42>
     ba8:	f886 3109 	strb.w	r3, [r6, #265]	; 0x109
     bac:	6073      	str	r3, [r6, #4]
     bae:	6033      	str	r3, [r6, #0]
     bb0:	e8bd 81f0 	ldmia.w	sp!, {r4, r5, r6, r7, r8, pc}
     bb4:	0000b1c4 	.word	0x0000b1c4

00000bb8 <USBDeviceConnected::USBDeviceConnected()>:
     bb8:	b570      	push	{r4, r5, r6, lr}
     bba:	4605      	mov	r5, r0
     bbc:	f100 041c 	add.w	r4, r0, #28
     bc0:	f500 7686 	add.w	r6, r0, #268	; 0x10c
     bc4:	4620      	mov	r0, r4
     bc6:	2100      	movs	r1, #0
     bc8:	343c      	adds	r4, #60	; 0x3c
     bca:	f006 f9dd 	bl	6f88 <mbed::FunctionPointer::FunctionPointer(void (*)())>
     bce:	42b4      	cmp	r4, r6
     bd0:	d1f8      	bne.n	bc4 <USBDeviceConnected::USBDeviceConnected()+0xc>
     bd2:	4628      	mov	r0, r5
     bd4:	f7ff ffae 	bl	b34 <USBDeviceConnected::init()>
     bd8:	4628      	mov	r0, r5
     bda:	bd70      	pop	{r4, r5, r6, pc}

00000bdc <USBDeviceConnected::getInterface(unsigned char)>:
     bdc:	2903      	cmp	r1, #3
     bde:	d808      	bhi.n	bf2 <USBDeviceConnected::getInterface(unsigned char)+0x16>
     be0:	ebc1 1101 	rsb	r1, r1, r1, lsl #4
     be4:	0089      	lsls	r1, r1, #2
     be6:	1843      	adds	r3, r0, r1
     be8:	7a1b      	ldrb	r3, [r3, #8]
     bea:	b123      	cbz	r3, bf6 <USBDeviceConnected::getInterface(unsigned char)+0x1a>
     bec:	3108      	adds	r1, #8
     bee:	4408      	add	r0, r1
     bf0:	4770      	bx	lr
     bf2:	2000      	movs	r0, #0
     bf4:	4770      	bx	lr
     bf6:	4618      	mov	r0, r3
     bf8:	4770      	bx	lr
     bfa:	bf00      	nop

00000bfc <USBDeviceConnected::addInterface(unsigned char, unsigned char, unsigned char, unsigned char)>:
     bfc:	b470      	push	{r4, r5, r6}
     bfe:	2903      	cmp	r1, #3
     c00:	f89d 600c 	ldrb.w	r6, [sp, #12]
     c04:	d80d      	bhi.n	c22 <Stack_Size+0x22>
     c06:	ebc1 1101 	rsb	r1, r1, r1, lsl #4
     c0a:	eb00 0181 	add.w	r1, r0, r1, lsl #2
     c0e:	7a0d      	ldrb	r5, [r1, #8]
     c10:	b93d      	cbnz	r5, c22 <Stack_Size+0x22>
     c12:	2001      	movs	r0, #1
     c14:	728a      	strb	r2, [r1, #10]
     c16:	72cb      	strb	r3, [r1, #11]
     c18:	730e      	strb	r6, [r1, #12]
     c1a:	724d      	strb	r5, [r1, #9]
     c1c:	7208      	strb	r0, [r1, #8]
     c1e:	bc70      	pop	{r4, r5, r6}
     c20:	4770      	bx	lr
     c22:	2000      	movs	r0, #0
     c24:	bc70      	pop	{r4, r5, r6}
     c26:	4770      	bx	lr

00000c28 <USBDeviceConnected::addEndpoint(unsigned char, USBEndpoint*)>:
     c28:	2903      	cmp	r1, #3
     c2a:	b4f0      	push	{r4, r5, r6, r7}
     c2c:	d815      	bhi.n	c5a <USBDeviceConnected::addEndpoint(unsigned char, USBEndpoint*)+0x32>
     c2e:	010d      	lsls	r5, r1, #4
     c30:	1a6c      	subs	r4, r5, r1
     c32:	eb00 0484 	add.w	r4, r0, r4, lsl #2
     c36:	7a23      	ldrb	r3, [r4, #8]
     c38:	b17b      	cbz	r3, c5a <USBDeviceConnected::addEndpoint(unsigned char, USBEndpoint*)+0x32>
     c3a:	7a67      	ldrb	r7, [r4, #9]
     c3c:	2f02      	cmp	r7, #2
     c3e:	d80c      	bhi.n	c5a <USBDeviceConnected::addEndpoint(unsigned char, USBEndpoint*)+0x32>
     c40:	f8d4 c010 	ldr.w	r12, [r4, #16]
     c44:	3701      	adds	r7, #1
     c46:	7267      	strb	r7, [r4, #9]
     c48:	f1bc 0f00 	cmp.w	r12, #0
     c4c:	d00b      	beq.n	c66 <USBDeviceConnected::addEndpoint(unsigned char, USBEndpoint*)+0x3e>
     c4e:	6966      	ldr	r6, [r4, #20]
     c50:	b13e      	cbz	r6, c62 <USBDeviceConnected::addEndpoint(unsigned char, USBEndpoint*)+0x3a>
     c52:	69a4      	ldr	r4, [r4, #24]
     c54:	f04f 0c02 	mov.w	r12, #2
     c58:	b12c      	cbz	r4, c66 <USBDeviceConnected::addEndpoint(unsigned char, USBEndpoint*)+0x3e>
     c5a:	2300      	movs	r3, #0
     c5c:	4618      	mov	r0, r3
     c5e:	bcf0      	pop	{r4, r5, r6, r7}
     c60:	4770      	bx	lr
     c62:	f04f 0c01 	mov.w	r12, #1
     c66:	1a69      	subs	r1, r5, r1
     c68:	448c      	add	r12, r1
     c6a:	f10c 0c04 	add.w	r12, r12, #4
     c6e:	f840 202c 	str.w	r2, [r0, r12, lsl #2]
     c72:	e7f3      	b.n	c5c <USBDeviceConnected::addEndpoint(unsigned char, USBEndpoint*)+0x34>

00000c74 <USBDeviceConnected::init(unsigned char, unsigned char, bool)>:
     c74:	b5f8      	push	{r3, r4, r5, r6, r7, lr}
     c76:	4604      	mov	r4, r0
     c78:	460d      	mov	r5, r1
     c7a:	4616      	mov	r6, r2
     c7c:	461f      	mov	r7, r3
     c7e:	f7ff ff59 	bl	b34 <USBDeviceConnected::init()>
     c82:	f884 50fc 	strb.w	r5, [r4, #252]	; 0xfc
     c86:	f884 60fd 	strb.w	r6, [r4, #253]	; 0xfd
     c8a:	f884 7106 	strb.w	r7, [r4, #262]	; 0x106
     c8e:	bdf8      	pop	{r3, r4, r5, r6, r7, pc}

00000c90 <USBDeviceConnected::disconnect()>:
     c90:	b510      	push	{r4, lr}
     c92:	4604      	mov	r4, r0
     c94:	301c      	adds	r0, #28
     c96:	f006 f97d 	bl	6f94 <mbed::FunctionPointer::call()>
     c9a:	f104 0058 	add.w	r0, r4, #88	; 0x58
     c9e:	f006 f979 	bl	6f94 <mbed::FunctionPointer::call()>
     ca2:	f104 0094 	add.w	r0, r4, #148	; 0x94
     ca6:	f006 f975 	bl	6f94 <mbed::FunctionPointer::call()>
     caa:	f104 00d0 	add.w	r0, r4, #208	; 0xd0
     cae:	f006 f971 	bl	6f94 <mbed::FunctionPointer::call()>
     cb2:	4620      	mov	r0, r4
     cb4:	e8bd 4010 	ldmia.w	sp!, {r4, lr}
     cb8:	f7ff bf3c 	b.w	b34 <USBDeviceConnected::init()>

00000cbc <USBDeviceConnected::getEndpoint(unsigned char, ENDPOINT_TYPE, ENDPOINT_DIRECTION, unsigned char)>:
     cbc:	b470      	push	{r4, r5, r6}
     cbe:	2903      	cmp	r1, #3
     cc0:	f89d 600c 	ldrb.w	r6, [sp, #12]
     cc4:	d810      	bhi.n	ce8 <USBDeviceConnected::getEndpoint(unsigned char, ENDPOINT_TYPE, ENDPOINT_DIRECTION, unsigned char)+0x2c>
     cc6:	ebc1 1101 	rsb	r1, r1, r1, lsl #4
     cca:	0089      	lsls	r1, r1, #2
     ccc:	f101 040c 	add.w	r4, r1, #12
     cd0:	f100 0518 	add.w	r5, r0, #24
     cd4:	4404      	add	r4, r0
     cd6:	4429      	add	r1, r5
     cd8:	f854 0f04 	ldr.w	r0, [r4, #4]!
     cdc:	f890 5024 	ldrb.w	r5, [r0, #36]	; 0x24
     ce0:	4295      	cmp	r5, r2
     ce2:	d004      	beq.n	cee <USBDeviceConnected::getEndpoint(unsigned char, ENDPOINT_TYPE, ENDPOINT_DIRECTION, unsigned char)+0x32>
     ce4:	428c      	cmp	r4, r1
     ce6:	d1f7      	bne.n	cd8 <USBDeviceConnected::getEndpoint(unsigned char, ENDPOINT_TYPE, ENDPOINT_DIRECTION, unsigned char)+0x1c>
     ce8:	2000      	movs	r0, #0
     cea:	bc70      	pop	{r4, r5, r6}
     cec:	4770      	bx	lr
     cee:	f890 5026 	ldrb.w	r5, [r0, #38]	; 0x26
     cf2:	429d      	cmp	r5, r3
     cf4:	d1f6      	bne.n	ce4 <USBDeviceConnected::getEndpoint(unsigned char, ENDPOINT_TYPE, ENDPOINT_DIRECTION, unsigned char)+0x28>
     cf6:	1e75      	subs	r5, r6, #1
     cf8:	2e00      	cmp	r6, #0
     cfa:	d0f6      	beq.n	cea <USBDeviceConnected::getEndpoint(unsigned char, ENDPOINT_TYPE, ENDPOINT_DIRECTION, unsigned char)+0x2e>
     cfc:	b2ee      	uxtb	r6, r5
     cfe:	e7f1      	b.n	ce4 <USBDeviceConnected::getEndpoint(unsigned char, ENDPOINT_TYPE, ENDPOINT_DIRECTION, unsigned char)+0x28>

00000d00 <USBDeviceConnected::getEndpoint(unsigned char, unsigned char)>:
     d00:	2903      	cmp	r1, #3
     d02:	d808      	bhi.n	d16 <USBDeviceConnected::getEndpoint(unsigned char, unsigned char)+0x16>
     d04:	2a02      	cmp	r2, #2
     d06:	d806      	bhi.n	d16 <USBDeviceConnected::getEndpoint(unsigned char, unsigned char)+0x16>
     d08:	ebc1 1101 	rsb	r1, r1, r1, lsl #4
     d0c:	440a      	add	r2, r1
     d0e:	3204      	adds	r2, #4
     d10:	f850 0022 	ldr.w	r0, [r0, r2, lsl #2]
     d14:	4770      	bx	lr
     d16:	2000      	movs	r0, #0
     d18:	4770      	bx	lr
     d1a:	bf00      	nop

00000d1c <USBHost::deviceConnected(int, int, bool, USBHostHub*)>:
     d1c:	e92d 4ff8 	stmdb	sp!, {r3, r4, r5, r6, r7, r8, r9, r10, r11, lr}
     d20:	f8dd 8028 	ldr.w	r8, [sp, #40]	; 0x28
     d24:	f500 54d9 	add.w	r4, r0, #6944	; 0x1b20
     d28:	4681      	mov	r9, r0
     d2a:	469b      	mov	r11, r3
     d2c:	b2cf      	uxtb	r7, r1
     d2e:	fa5f fa82 	uxtb.w	r10, r2
     d32:	340c      	adds	r4, #12
     d34:	2500      	movs	r5, #0
     d36:	f894 60f8 	ldrb.w	r6, [r4, #248]	; 0xf8
     d3a:	42be      	cmp	r6, r7
     d3c:	d01b      	beq.n	d76 <USBHost::deviceConnected(int, int, bool, USBHostHub*)+0x5a>
     d3e:	3501      	adds	r5, #1
     d40:	2d05      	cmp	r5, #5
     d42:	f504 7486 	add.w	r4, r4, #268	; 0x10c
     d46:	d1f6      	bne.n	d36 <USBHost::deviceConnected(int, int, bool, USBHostHub*)+0x1a>
     d48:	f242 1450 	movw	r4, #8528	; 0x2150
     d4c:	f859 0004 	ldr.w	r0, [r9, r4]
     d50:	2100      	movs	r1, #0
     d52:	f005 f821 	bl	5d98 <osMailAlloc>
     d56:	2301      	movs	r3, #1
     d58:	7207      	strb	r7, [r0, #8]
     d5a:	f880 a009 	strb.w	r10, [r0, #9]
     d5e:	f880 b00a 	strb.w	r11, [r0, #10]
     d62:	f8c0 800c 	str.w	r8, [r0, #12]
     d66:	7003      	strb	r3, [r0, #0]
     d68:	4601      	mov	r1, r0
     d6a:	f859 0004 	ldr.w	r0, [r9, r4]
     d6e:	e8bd 4ff8 	ldmia.w	sp!, {r3, r4, r5, r6, r7, r8, r9, r10, r11, lr}
     d72:	f005 b833 	b.w	5ddc <osMailPut>
     d76:	f894 30f9 	ldrb.w	r3, [r4, #249]	; 0xf9
     d7a:	4553      	cmp	r3, r10
     d7c:	d1df      	bne.n	d3e <USBHost::deviceConnected(int, int, bool, USBHostHub*)+0x22>
     d7e:	f1b8 0f00 	cmp.w	r8, #0
     d82:	d002      	beq.n	d8a <USBHost::deviceConnected(int, int, bool, USBHostHub*)+0x6e>
     d84:	6821      	ldr	r1, [r4, #0]
     d86:	4588      	cmp	r8, r1
     d88:	d1d9      	bne.n	d3e <USBHost::deviceConnected(int, int, bool, USBHostHub*)+0x22>
     d8a:	eb09 0305 	add.w	r3, r9, r5
     d8e:	f503 5302 	add.w	r3, r3, #8320	; 0x2080
     d92:	789b      	ldrb	r3, [r3, #2]
     d94:	2b00      	cmp	r3, #0
     d96:	d0d7      	beq.n	d48 <USBHost::deviceConnected(int, int, bool, USBHostHub*)+0x2c>
     d98:	e8bd 8ff8 	ldmia.w	sp!, {r3, r4, r5, r6, r7, r8, r9, r10, r11, pc}

00000d9c <USBHost::deviceDisconnected(int, int, USBHostHub*, unsigned long)>:
     d9c:	e92d 47f0 	stmdb	sp!, {r4, r5, r6, r7, r8, r9, r10, lr}
     da0:	f500 54d9 	add.w	r4, r0, #6944	; 0x1b20
     da4:	4681      	mov	r9, r0
     da6:	4698      	mov	r8, r3
     da8:	b2cf      	uxtb	r7, r1
     daa:	fa5f fa82 	uxtb.w	r10, r2
     dae:	340c      	adds	r4, #12
     db0:	2500      	movs	r5, #0
     db2:	f894 60f8 	ldrb.w	r6, [r4, #248]	; 0xf8
     db6:	42be      	cmp	r6, r7
     db8:	d006      	beq.n	dc8 <USBHost::deviceDisconnected(int, int, USBHostHub*, unsigned long)+0x2c>
     dba:	3501      	adds	r5, #1
     dbc:	2d05      	cmp	r5, #5
     dbe:	f504 7486 	add.w	r4, r4, #268	; 0x10c
     dc2:	d1f6      	bne.n	db2 <USBHost::deviceDisconnected(int, int, USBHostHub*, unsigned long)+0x16>
     dc4:	e8bd 87f0 	ldmia.w	sp!, {r4, r5, r6, r7, r8, r9, r10, pc}
     dc8:	f894 30f9 	ldrb.w	r3, [r4, #249]	; 0xf9
     dcc:	4553      	cmp	r3, r10
     dce:	d1f4      	bne.n	dba <USBHost::deviceDisconnected(int, int, USBHostHub*, unsigned long)+0x1e>
     dd0:	f1b8 0f00 	cmp.w	r8, #0
     dd4:	d002      	beq.n	ddc <USBHost::deviceDisconnected(int, int, USBHostHub*, unsigned long)+0x40>
     dd6:	6821      	ldr	r1, [r4, #0]
     dd8:	4588      	cmp	r8, r1
     dda:	d1ee      	bne.n	dba <USBHost::deviceDisconnected(int, int, USBHostHub*, unsigned long)+0x1e>
     ddc:	eb09 0305 	add.w	r3, r9, r5
     de0:	f503 5301 	add.w	r3, r3, #8256	; 0x2040
     de4:	3320      	adds	r3, #32
     de6:	791b      	ldrb	r3, [r3, #4]
     de8:	b90b      	cbnz	r3, dee <USBHost::deviceDisconnected(int, int, USBHostHub*, unsigned long)+0x52>
     dea:	e8bd 87f0 	ldmia.w	sp!, {r4, r5, r6, r7, r8, r9, r10, pc}
     dee:	f242 1450 	movw	r4, #8528	; 0x2150
     df2:	f859 0004 	ldr.w	r0, [r9, r4]
     df6:	2100      	movs	r1, #0
     df8:	f004 ffce 	bl	5d98 <osMailAlloc>
     dfc:	2302      	movs	r3, #2
     dfe:	7207      	strb	r7, [r0, #8]
     e00:	f880 a009 	strb.w	r10, [r0, #9]
     e04:	f8c0 800c 	str.w	r8, [r0, #12]
     e08:	7003      	strb	r3, [r0, #0]
     e0a:	4601      	mov	r1, r0
     e0c:	f859 0004 	ldr.w	r0, [r9, r4]
     e10:	e8bd 47f0 	ldmia.w	sp!, {r4, r5, r6, r7, r8, r9, r10, lr}
     e14:	f004 bfe2 	b.w	5ddc <osMailPut>

00000e18 <USBHost::transferCompleted(unsigned long)>:
     e18:	e92d 41f0 	stmdb	sp!, {r4, r5, r6, r7, r8, lr}
     e1c:	b082      	sub	sp, #8
     e1e:	9101      	str	r1, [sp, #4]
     e20:	9b01      	ldr	r3, [sp, #4]
     e22:	2b00      	cmp	r3, #0
     e24:	d042      	beq.n	eac <USBHost::transferCompleted(unsigned long)+0x94>
     e26:	2300      	movs	r3, #0
     e28:	9c01      	ldr	r4, [sp, #4]
     e2a:	68a2      	ldr	r2, [r4, #8]
     e2c:	9201      	str	r2, [sp, #4]
     e2e:	68a2      	ldr	r2, [r4, #8]
     e30:	60a3      	str	r3, [r4, #8]
     e32:	9a01      	ldr	r2, [sp, #4]
     e34:	4623      	mov	r3, r4
     e36:	2a00      	cmp	r2, #0
     e38:	d1f6      	bne.n	e28 <USBHost::transferCompleted(unsigned long)+0x10>
     e3a:	2c00      	cmp	r4, #0
     e3c:	d036      	beq.n	eac <USBHost::transferCompleted(unsigned long)+0x94>
     e3e:	f500 5805 	add.w	r8, r0, #8512	; 0x2140
     e42:	f108 0810 	add.w	r8, r8, #16
     e46:	68a6      	ldr	r6, [r4, #8]
     e48:	6923      	ldr	r3, [r4, #16]
     e4a:	b1ab      	cbz	r3, e78 <USBHost::transferCompleted(unsigned long)+0x60>
     e4c:	6925      	ldr	r5, [r4, #16]
     e4e:	6823      	ldr	r3, [r4, #0]
     e50:	0f1b      	lsrs	r3, r3, #28
     e52:	d014      	beq.n	e7e <USBHost::transferCompleted(unsigned long)+0x66>
     e54:	6827      	ldr	r7, [r4, #0]
     e56:	0f3f      	lsrs	r7, r7, #28
     e58:	4628      	mov	r0, r5
     e5a:	4621      	mov	r1, r4
     e5c:	f001 fc24 	bl	26a8 <USBEndpoint::unqueueTransfer(HCTD volatile*)>
     e60:	f895 3024 	ldrb.w	r3, [r5, #36]	; 0x24
     e64:	b99b      	cbnz	r3, e8e <USBHost::transferCompleted(unsigned long)+0x76>
     e66:	4639      	mov	r1, r7
     e68:	4628      	mov	r0, r5
     e6a:	f001 fbf3 	bl	2654 <USBEndpoint::setState(unsigned char)>
     e6e:	6868      	ldr	r0, [r5, #4]
     e70:	2101      	movs	r1, #1
     e72:	2200      	movs	r2, #0
     e74:	f004 fe62 	bl	5b3c <osMessagePut>
     e78:	b1c6      	cbz	r6, eac <USBHost::transferCompleted(unsigned long)+0x94>
     e7a:	4634      	mov	r4, r6
     e7c:	e7e3      	b.n	e46 <USBHost::transferCompleted(unsigned long)+0x2e>
     e7e:	6863      	ldr	r3, [r4, #4]
     e80:	b1bb      	cbz	r3, eb2 <USBHost::transferCompleted(unsigned long)+0x9a>
     e82:	6862      	ldr	r2, [r4, #4]
     e84:	6b6b      	ldr	r3, [r5, #52]	; 0x34
     e86:	2710      	movs	r7, #16
     e88:	1ad3      	subs	r3, r2, r3
     e8a:	632b      	str	r3, [r5, #48]	; 0x30
     e8c:	e7e4      	b.n	e58 <USBHost::transferCompleted(unsigned long)+0x40>
     e8e:	f8d8 0000 	ldr.w	r0, [r8]
     e92:	2100      	movs	r1, #0
     e94:	f004 ff80 	bl	5d98 <osMailAlloc>
     e98:	2304      	movs	r3, #4
     e9a:	6044      	str	r4, [r0, #4]
     e9c:	72c7      	strb	r7, [r0, #11]
     e9e:	7003      	strb	r3, [r0, #0]
     ea0:	4601      	mov	r1, r0
     ea2:	f8d8 0000 	ldr.w	r0, [r8]
     ea6:	f004 ff99 	bl	5ddc <osMailPut>
     eaa:	e7dc      	b.n	e66 <USBHost::transferCompleted(unsigned long)+0x4e>
     eac:	b002      	add	sp, #8
     eae:	e8bd 81f0 	ldmia.w	sp!, {r4, r5, r6, r7, r8, pc}
     eb2:	2710      	movs	r7, #16
     eb4:	e7d0      	b.n	e58 <USBHost::transferCompleted(unsigned long)+0x40>
     eb6:	bf00      	nop

00000eb8 <USBHost::USBHost()>:
     eb8:	e92d 4ff0 	stmdb	sp!, {r4, r5, r6, r7, r8, r9, r10, r11, lr}
     ebc:	b083      	sub	sp, #12
     ebe:	4683      	mov	r11, r0
     ec0:	f001 fc12 	bl	26e8 <USBHALHost::USBHALHost()>
     ec4:	4b72      	ldr	r3, [pc, #456]	; (1090 <USBHost::USBHost()+0x1d8>)
     ec6:	46d8      	mov	r8, r11
     ec8:	f848 3bc8 	str.w	r3, [r8], #200
     ecc:	f50b 59d8 	add.w	r9, r11, #6912	; 0x1b00
     ed0:	4644      	mov	r4, r8
     ed2:	f109 0908 	add.w	r9, r9, #8
     ed6:	f10b 07cc 	add.w	r7, r11, #204	; 0xcc
     eda:	f04f 0a00 	mov.w	r10, #0
     ede:	e00c      	b.n	efa <USBHost::USBHost()+0x42>
     ee0:	f104 0038 	add.w	r0, r4, #56	; 0x38
     ee4:	2100      	movs	r1, #0
     ee6:	f006 f84f 	bl	6f88 <mbed::FunctionPointer::FunctionPointer(void (*)())>
     eea:	230f      	movs	r3, #15
     eec:	f8c4 a054 	str.w	r10, [r4, #84]	; 0x54
     ef0:	f884 3025 	strb.w	r3, [r4, #37]	; 0x25
     ef4:	3470      	adds	r4, #112	; 0x70
     ef6:	454c      	cmp	r4, r9
     ef8:	d018      	beq.n	f2c <USBHost::USBHost()+0x74>
     efa:	f104 0510 	add.w	r5, r4, #16
     efe:	2100      	movs	r1, #0
     f00:	2214      	movs	r2, #20
     f02:	ebc8 0604 	rsb	r6, r8, r4
     f06:	4628      	mov	r0, r5
     f08:	f007 fc7f 	bl	880a <memset>
     f0c:	19f3      	adds	r3, r6, r7
     f0e:	2201      	movs	r2, #1
     f10:	609d      	str	r5, [r3, #8]
     f12:	605a      	str	r2, [r3, #4]
     f14:	f104 0008 	add.w	r0, r4, #8
     f18:	2100      	movs	r1, #0
     f1a:	f004 fdf5 	bl	5b08 <osMessageCreate>
     f1e:	51f0      	str	r0, [r6, r7]
     f20:	2800      	cmp	r0, #0
     f22:	d1dd      	bne.n	ee0 <USBHost::USBHost()+0x28>
     f24:	485b      	ldr	r0, [pc, #364]	; (1094 <USBHost::USBHost()+0x1dc>)
     f26:	f005 ff55 	bl	6dd4 <error>
     f2a:	e7d9      	b.n	ee0 <USBHost::USBHost()+0x28>
     f2c:	f50b 56d9 	add.w	r6, r11, #6944	; 0x1b20
     f30:	3608      	adds	r6, #8
     f32:	4634      	mov	r4, r6
     f34:	f206 553c 	addw	r5, r6, #1340	; 0x53c
     f38:	4620      	mov	r0, r4
     f3a:	f504 7486 	add.w	r4, r4, #268	; 0x10c
     f3e:	f7ff fe3b 	bl	bb8 <USBDeviceConnected::USBDeviceConnected()>
     f42:	42ac      	cmp	r4, r5
     f44:	d1f8      	bne.n	f38 <USBHost::USBHost()+0x80>
     f46:	f50b 5802 	add.w	r8, r11, #8320	; 0x2080
     f4a:	f108 0808 	add.w	r8, r8, #8
     f4e:	4640      	mov	r0, r8
     f50:	f50b 5703 	add.w	r7, r11, #8384	; 0x20c0
     f54:	f001 f900 	bl	2158 <USBHostHub::USBHostHub()>
     f58:	4638      	mov	r0, r7
     f5a:	f04f 0a00 	mov.w	r10, #0
     f5e:	f50b 5405 	add.w	r4, r11, #8512	; 0x2140
     f62:	f001 f8f9 	bl	2158 <USBHostHub::USBHostHub()>
     f66:	f44f 6340 	mov.w	r3, #3072	; 0xc00
     f6a:	f50b 5004 	add.w	r0, r11, #8448	; 0x2100
     f6e:	f104 0920 	add.w	r9, r4, #32
     f72:	e88d 0408 	stmia.w	sp, {r3, r10}
     f76:	4948      	ldr	r1, [pc, #288]	; (1098 <USBHost::USBHost()+0x1e0>)
     f78:	4653      	mov	r3, r10
     f7a:	465a      	mov	r2, r11
     f7c:	3004      	adds	r0, #4
     f7e:	f005 fd75 	bl	6a6c <rtos::Thread::Thread(void (*)(void const*), void*, osPriority, unsigned long, unsigned char*)>
     f82:	f104 0558 	add.w	r5, r4, #88	; 0x58
     f86:	4648      	mov	r0, r9
     f88:	4651      	mov	r1, r10
     f8a:	2238      	movs	r2, #56	; 0x38
     f8c:	f007 fc3d 	bl	880a <memset>
     f90:	f8c4 9104 	str.w	r9, [r4, #260]	; 0x104
     f94:	4628      	mov	r0, r5
     f96:	4651      	mov	r1, r10
     f98:	22ac      	movs	r2, #172	; 0xac
     f9a:	f007 fc36 	bl	880a <memset>
     f9e:	220a      	movs	r2, #10
     fa0:	f504 7182 	add.w	r1, r4, #260	; 0x104
     fa4:	2310      	movs	r3, #16
     fa6:	6162      	str	r2, [r4, #20]
     fa8:	f8c4 5108 	str.w	r5, [r4, #264]	; 0x108
     fac:	61e1      	str	r1, [r4, #28]
     fae:	61a3      	str	r3, [r4, #24]
     fb0:	4651      	mov	r1, r10
     fb2:	f104 0014 	add.w	r0, r4, #20
     fb6:	f004 fed5 	bl	5d64 <osMailCreate>
     fba:	f242 1350 	movw	r3, #8528	; 0x2150
     fbe:	f84b 0003 	str.w	r0, [r11, r3]
     fc2:	f50b 5009 	add.w	r0, r11, #8768	; 0x2240
     fc6:	300c      	adds	r0, #12
     fc8:	f005 fd0c 	bl	69e4 <rtos::Mutex::Mutex()>
     fcc:	f50b 5009 	add.w	r0, r11, #8768	; 0x2240
     fd0:	3020      	adds	r0, #32
     fd2:	f005 fd07 	bl	69e4 <rtos::Mutex::Mutex()>
     fd6:	f641 3414 	movw	r4, #6932	; 0x1b14
     fda:	f641 3210 	movw	r2, #6928	; 0x1b10
     fde:	f641 3c0c 	movw	r12, #6924	; 0x1b0c
     fe2:	f641 3e18 	movw	lr, #6936	; 0x1b18
     fe6:	f641 301c 	movw	r0, #6940	; 0x1b1c
     fea:	f50b 51d9 	add.w	r1, r11, #6944	; 0x1b20
     fee:	f641 3324 	movw	r3, #6948	; 0x1b24
     ff2:	f50b 59e1 	add.w	r9, r11, #7200	; 0x1c20
     ff6:	f84b a00c 	str.w	r10, [r11, r12]
     ffa:	4655      	mov	r5, r10
     ffc:	f84b a002 	str.w	r10, [r11, r2]
    1000:	f109 0914 	add.w	r9, r9, #20
    1004:	f84b a004 	str.w	r10, [r11, r4]
    1008:	4652      	mov	r2, r10
    100a:	f84b a00e 	str.w	r10, [r11, lr]
    100e:	465c      	mov	r4, r11
    1010:	f84b a000 	str.w	r10, [r11, r0]
    1014:	f8c1 a000 	str.w	r10, [r1]
    1018:	f8ab a0c4 	strh.w	r10, [r11, #196]	; 0xc4
    101c:	f80b a003 	strb.w	r10, [r11, r3]
    1020:	eb0b 0c05 	add.w	r12, r11, r5
    1024:	f50c 5301 	add.w	r3, r12, #8256	; 0x2040
    1028:	3501      	adds	r5, #1
    102a:	f504 5e01 	add.w	lr, r4, #8256	; 0x2040
    102e:	469a      	mov	r10, r3
    1030:	f50c 5c02 	add.w	r12, r12, #8320	; 0x2080
    1034:	2d05      	cmp	r5, #5
    1036:	f883 2024 	strb.w	r2, [r3, #36]	; 0x24
    103a:	f104 0404 	add.w	r4, r4, #4
    103e:	f886 5102 	strb.w	r5, [r6, #258]	; 0x102
    1042:	f88a 203d 	strb.w	r2, [r10, #61]	; 0x3d
    1046:	f04f 0600 	mov.w	r6, #0
    104a:	f88c 2002 	strb.w	r2, [r12, #2]
    104e:	f88e 2029 	strb.w	r2, [lr, #41]	; 0x29
    1052:	f88e 202a 	strb.w	r2, [lr, #42]	; 0x2a
    1056:	f88e 202b 	strb.w	r2, [lr, #43]	; 0x2b
    105a:	f88e 202c 	strb.w	r2, [lr, #44]	; 0x2c
    105e:	d003      	beq.n	1068 <USBHost::USBHost()+0x1b0>
    1060:	464e      	mov	r6, r9
    1062:	f509 7986 	add.w	r9, r9, #268	; 0x10c
    1066:	e7db      	b.n	1020 <USBHost::USBHost()+0x168>
    1068:	4640      	mov	r0, r8
    106a:	4659      	mov	r1, r11
    106c:	f001 f88c 	bl	2188 <USBHostHub::setHost(USBHost*)>
    1070:	f242 03f8 	movw	r3, #8440	; 0x20f8
    1074:	4638      	mov	r0, r7
    1076:	f80b 6003 	strb.w	r6, [r11, r3]
    107a:	4659      	mov	r1, r11
    107c:	f001 f884 	bl	2188 <USBHostHub::setHost(USBHost*)>
    1080:	f242 03f9 	movw	r3, #8441	; 0x20f9
    1084:	4658      	mov	r0, r11
    1086:	f80b 6003 	strb.w	r6, [r11, r3]
    108a:	b003      	add	sp, #12
    108c:	e8bd 8ff0 	ldmia.w	sp!, {r4, r5, r6, r7, r8, r9, r10, r11, pc}
    1090:	0000b1d8 	.word	0x0000b1d8
    1094:	0000b1e8 	.word	0x0000b1e8
    1098:	00001f25 	.word	0x00001f25

0000109c <USBHost::getHostInst()>:
    109c:	b538      	push	{r3, r4, r5, lr}
    109e:	4c08      	ldr	r4, [pc, #32]	; (10c0 <USBHost::getHostInst()+0x24>)
    10a0:	6820      	ldr	r0, [r4, #0]
    10a2:	b100      	cbz	r0, 10a6 <USBHost::getHostInst()+0xa>
    10a4:	bd38      	pop	{r3, r4, r5, pc}
    10a6:	f242 4014 	movw	r0, #9236	; 0x2414
    10aa:	f006 fff1 	bl	8090 <operator new(unsigned int)>
    10ae:	4605      	mov	r5, r0
    10b0:	f7ff ff02 	bl	eb8 <USBHost::USBHost()>
    10b4:	4628      	mov	r0, r5
    10b6:	6025      	str	r5, [r4, #0]
    10b8:	f001 fb42 	bl	2740 <USBHALHost::init()>
    10bc:	6820      	ldr	r0, [r4, #0]
    10be:	bd38      	pop	{r3, r4, r5, pc}
    10c0:	10000240 	.word	0x10000240

000010c4 <USBHost::unqueueEndpoint(USBEndpoint*)>:
    10c4:	f641 3310 	movw	r3, #6928	; 0x1b10
    10c8:	e92d 41f0 	stmdb	sp!, {r4, r5, r6, r7, r8, lr}
    10cc:	58c5      	ldr	r5, [r0, r3]
    10ce:	4606      	mov	r6, r0
    10d0:	b145      	cbz	r5, 10e4 <USBHost::unqueueEndpoint(USBEndpoint*)+0x20>
    10d2:	42a9      	cmp	r1, r5
    10d4:	d103      	bne.n	10de <USBHost::unqueueEndpoint(USBEndpoint*)+0x1a>
    10d6:	e014      	b.n	1102 <USBHost::unqueueEndpoint(USBEndpoint*)+0x3e>
    10d8:	42a1      	cmp	r1, r4
    10da:	d013      	beq.n	1104 <USBHost::unqueueEndpoint(USBEndpoint*)+0x40>
    10dc:	4625      	mov	r5, r4
    10de:	6d6c      	ldr	r4, [r5, #84]	; 0x54
    10e0:	2c00      	cmp	r4, #0
    10e2:	d1f9      	bne.n	10d8 <USBHost::unqueueEndpoint(USBEndpoint*)+0x14>
    10e4:	f641 3314 	movw	r3, #6932	; 0x1b14
    10e8:	58f5      	ldr	r5, [r6, r3]
    10ea:	b1f5      	cbz	r5, 112a <USBHost::unqueueEndpoint(USBEndpoint*)+0x66>
    10ec:	42a9      	cmp	r1, r5
    10ee:	d103      	bne.n	10f8 <USBHost::unqueueEndpoint(USBEndpoint*)+0x34>
    10f0:	e007      	b.n	1102 <USBHost::unqueueEndpoint(USBEndpoint*)+0x3e>
    10f2:	42a1      	cmp	r1, r4
    10f4:	d006      	beq.n	1104 <USBHost::unqueueEndpoint(USBEndpoint*)+0x40>
    10f6:	4625      	mov	r5, r4
    10f8:	6d6c      	ldr	r4, [r5, #84]	; 0x54
    10fa:	2c00      	cmp	r4, #0
    10fc:	d1f9      	bne.n	10f2 <USBHost::unqueueEndpoint(USBEndpoint*)+0x2e>
    10fe:	e8bd 81f0 	ldmia.w	sp!, {r4, r5, r6, r7, r8, pc}
    1102:	462c      	mov	r4, r5
    1104:	6d67      	ldr	r7, [r4, #84]	; 0x54
    1106:	4628      	mov	r0, r5
    1108:	4639      	mov	r1, r7
    110a:	b187      	cbz	r7, 112e <USBHost::unqueueEndpoint(USBEndpoint*)+0x6a>
    110c:	f641 3510 	movw	r5, #6928	; 0x1b10
    1110:	f001 fae2 	bl	26d8 <USBEndpoint::queueEndpoint(USBEndpoint*)>
    1114:	5973      	ldr	r3, [r6, r5]
    1116:	429c      	cmp	r4, r3
    1118:	d029      	beq.n	116e <USBHost::unqueueEndpoint(USBEndpoint*)+0xaa>
    111a:	f641 3514 	movw	r5, #6932	; 0x1b14
    111e:	5973      	ldr	r3, [r6, r5]
    1120:	429c      	cmp	r4, r3
    1122:	d01c      	beq.n	115e <USBHost::unqueueEndpoint(USBEndpoint*)+0x9a>
    1124:	230f      	movs	r3, #15
    1126:	f884 3025 	strb.w	r3, [r4, #37]	; 0x25
    112a:	e8bd 81f0 	ldmia.w	sp!, {r4, r5, r6, r7, r8, pc}
    112e:	f641 3810 	movw	r8, #6928	; 0x1b10
    1132:	f001 fad1 	bl	26d8 <USBEndpoint::queueEndpoint(USBEndpoint*)>
    1136:	f856 3008 	ldr.w	r3, [r6, r8]
    113a:	429c      	cmp	r4, r3
    113c:	d02b      	beq.n	1196 <USBHost::unqueueEndpoint(USBEndpoint*)+0xd2>
    113e:	f641 3814 	movw	r8, #6932	; 0x1b14
    1142:	f856 3008 	ldr.w	r3, [r6, r8]
    1146:	429c      	cmp	r4, r3
    1148:	d01d      	beq.n	1186 <USBHost::unqueueEndpoint(USBEndpoint*)+0xc2>
    114a:	f894 3024 	ldrb.w	r3, [r4, #36]	; 0x24
    114e:	2b02      	cmp	r3, #2
    1150:	d015      	beq.n	117e <USBHost::unqueueEndpoint(USBEndpoint*)+0xba>
    1152:	2b03      	cmp	r3, #3
    1154:	d1e6      	bne.n	1124 <USBHost::unqueueEndpoint(USBEndpoint*)+0x60>
    1156:	f506 56d9 	add.w	r6, r6, #6944	; 0x1b20
    115a:	6035      	str	r5, [r6, #0]
    115c:	e7e2      	b.n	1124 <USBHost::unqueueEndpoint(USBEndpoint*)+0x60>
    115e:	6d63      	ldr	r3, [r4, #84]	; 0x54
    1160:	4630      	mov	r0, r6
    1162:	6d99      	ldr	r1, [r3, #88]	; 0x58
    1164:	f001 fb94 	bl	2890 <USBHALHost::updateInterruptHeadED(unsigned long)>
    1168:	6d63      	ldr	r3, [r4, #84]	; 0x54
    116a:	5173      	str	r3, [r6, r5]
    116c:	e7da      	b.n	1124 <USBHost::unqueueEndpoint(USBEndpoint*)+0x60>
    116e:	6d63      	ldr	r3, [r4, #84]	; 0x54
    1170:	4630      	mov	r0, r6
    1172:	6d99      	ldr	r1, [r3, #88]	; 0x58
    1174:	f001 fb80 	bl	2878 <USBHALHost::updateBulkHeadED(unsigned long)>
    1178:	6d63      	ldr	r3, [r4, #84]	; 0x54
    117a:	5173      	str	r3, [r6, r5]
    117c:	e7d2      	b.n	1124 <USBHost::unqueueEndpoint(USBEndpoint*)+0x60>
    117e:	f641 331c 	movw	r3, #6940	; 0x1b1c
    1182:	50f5      	str	r5, [r6, r3]
    1184:	e7ce      	b.n	1124 <USBHost::unqueueEndpoint(USBEndpoint*)+0x60>
    1186:	4639      	mov	r1, r7
    1188:	4630      	mov	r0, r6
    118a:	f001 fb81 	bl	2890 <USBHALHost::updateInterruptHeadED(unsigned long)>
    118e:	6d63      	ldr	r3, [r4, #84]	; 0x54
    1190:	f846 3008 	str.w	r3, [r6, r8]
    1194:	e7d9      	b.n	114a <USBHost::unqueueEndpoint(USBEndpoint*)+0x86>
    1196:	4639      	mov	r1, r7
    1198:	4630      	mov	r0, r6
    119a:	f001 fb6d 	bl	2878 <USBHALHost::updateBulkHeadED(unsigned long)>
    119e:	6d63      	ldr	r3, [r4, #84]	; 0x54
    11a0:	f846 3008 	str.w	r3, [r6, r8]
    11a4:	e7d1      	b.n	114a <USBHost::unqueueEndpoint(USBEndpoint*)+0x86>
    11a6:	bf00      	nop

000011a8 <USBHost::freeDevice(USBDeviceConnected*)>:
    11a8:	e92d 4ff0 	stmdb	sp!, {r4, r5, r6, r7, r8, r9, r10, r11, lr}
    11ac:	f891 3103 	ldrb.w	r3, [r1, #259]	; 0x103
    11b0:	b085      	sub	sp, #20
    11b2:	2b09      	cmp	r3, #9
    11b4:	460e      	mov	r6, r1
    11b6:	4605      	mov	r5, r0
    11b8:	d015      	beq.n	11e6 <USBHost::freeDevice(USBDeviceConnected*)+0x3e>
    11ba:	6870      	ldr	r0, [r6, #4]
    11bc:	b110      	cbz	r0, 11c4 <USBHost::freeDevice(USBDeviceConnected*)+0x1c>
    11be:	4631      	mov	r1, r6
    11c0:	f000 ffea 	bl	2198 <USBHostHub::deviceDisconnected(USBDeviceConnected*)>
    11c4:	f505 53d9 	add.w	r3, r5, #6944	; 0x1b20
    11c8:	3308      	adds	r3, #8
    11ca:	f04f 0b00 	mov.w	r11, #0
    11ce:	429e      	cmp	r6, r3
    11d0:	f503 7386 	add.w	r3, r3, #268	; 0x10c
    11d4:	d01e      	beq.n	1214 <USBHost::freeDevice(USBDeviceConnected*)+0x6c>
    11d6:	f10b 0b01 	add.w	r11, r11, #1
    11da:	f1bb 0f05 	cmp.w	r11, #5
    11de:	d1f6      	bne.n	11ce <USBHost::freeDevice(USBDeviceConnected*)+0x26>
    11e0:	b005      	add	sp, #20
    11e2:	e8bd 8ff0 	ldmia.w	sp!, {r4, r5, r6, r7, r8, r9, r10, r11, pc}
    11e6:	6808      	ldr	r0, [r1, #0]
    11e8:	2800      	cmp	r0, #0
    11ea:	d07c      	beq.n	12e6 <USBHost::freeDevice(USBDeviceConnected*)+0x13e>
    11ec:	f000 ffdc 	bl	21a8 <USBHostHub::hubDisconnected()>
    11f0:	f505 5302 	add.w	r3, r5, #8320	; 0x2080
    11f4:	6832      	ldr	r2, [r6, #0]
    11f6:	3308      	adds	r3, #8
    11f8:	429a      	cmp	r2, r3
    11fa:	d07b      	beq.n	12f4 <USBHost::freeDevice(USBDeviceConnected*)+0x14c>
    11fc:	f505 5303 	add.w	r3, r5, #8384	; 0x20c0
    1200:	429a      	cmp	r2, r3
    1202:	bf08      	it	eq
    1204:	2301      	moveq	r3, #1
    1206:	d1d8      	bne.n	11ba <USBHost::freeDevice(USBDeviceConnected*)+0x12>
    1208:	442b      	add	r3, r5
    120a:	f242 02f8 	movw	r2, #8440	; 0x20f8
    120e:	2100      	movs	r1, #0
    1210:	5499      	strb	r1, [r3, r2]
    1212:	e7d2      	b.n	11ba <USBHost::freeDevice(USBDeviceConnected*)+0x12>
    1214:	eb05 030b 	add.w	r3, r5, r11
    1218:	f503 5101 	add.w	r1, r3, #8256	; 0x2040
    121c:	2200      	movs	r2, #0
    121e:	460b      	mov	r3, r1
    1220:	f881 2024 	strb.w	r2, [r1, #36]	; 0x24
    1224:	4690      	mov	r8, r2
    1226:	eb05 0b8b 	add.w	r11, r5, r11, lsl #2
    122a:	f883 203d 	strb.w	r2, [r3, #61]	; 0x3d
    122e:	f106 0938 	add.w	r9, r6, #56	; 0x38
    1232:	eb0b 0308 	add.w	r3, r11, r8
    1236:	f503 5301 	add.w	r3, r3, #8256	; 0x2040
    123a:	fa5f f788 	uxtb.w	r7, r8
    123e:	f04f 0200 	mov.w	r2, #0
    1242:	f883 2029 	strb.w	r2, [r3, #41]	; 0x29
    1246:	4639      	mov	r1, r7
    1248:	4630      	mov	r0, r6
    124a:	f7ff fcc7 	bl	bdc <USBDeviceConnected::getInterface(unsigned char)>
    124e:	2800      	cmp	r0, #0
    1250:	d03c      	beq.n	12cc <USBHost::freeDevice(USBDeviceConnected*)+0x124>
    1252:	2400      	movs	r4, #0
    1254:	e023      	b.n	129e <USBHost::freeDevice(USBDeviceConnected*)+0xf6>
    1256:	4639      	mov	r1, r7
    1258:	4630      	mov	r0, r6
    125a:	f7ff fd51 	bl	d00 <USBDeviceConnected::getEndpoint(unsigned char, unsigned char)>
    125e:	4682      	mov	r10, r0
    1260:	4601      	mov	r1, r0
    1262:	4628      	mov	r0, r5
    1264:	f1ba 0f00 	cmp.w	r10, #0
    1268:	d018      	beq.n	129c <USBHost::freeDevice(USBDeviceConnected*)+0xf4>
    126a:	f8da 2058 	ldr.w	r2, [r10, #88]	; 0x58
    126e:	6813      	ldr	r3, [r2, #0]
    1270:	f8d2 c000 	ldr.w	r12, [r2]
    1274:	f443 4380 	orr.w	r3, r3, #16384	; 0x4000
    1278:	6013      	str	r3, [r2, #0]
    127a:	f7ff ff23 	bl	10c4 <USBHost::unqueueEndpoint(USBEndpoint*)>
    127e:	4628      	mov	r0, r5
    1280:	f8da 105c 	ldr.w	r1, [r10, #92]	; 0x5c
    1284:	f001 fb8a 	bl	299c <USBHALHost::freeTD(unsigned char volatile*)>
    1288:	4628      	mov	r0, r5
    128a:	f8da 1060 	ldr.w	r1, [r10, #96]	; 0x60
    128e:	f001 fb85 	bl	299c <USBHALHost::freeTD(unsigned char volatile*)>
    1292:	4628      	mov	r0, r5
    1294:	f8da 1058 	ldr.w	r1, [r10, #88]	; 0x58
    1298:	f001 fb78 	bl	298c <USBHALHost::freeED(unsigned char volatile*)>
    129c:	3401      	adds	r4, #1
    129e:	4630      	mov	r0, r6
    12a0:	4639      	mov	r1, r7
    12a2:	f7ff fc9b 	bl	bdc <USBDeviceConnected::getInterface(unsigned char)>
    12a6:	7843      	ldrb	r3, [r0, #1]
    12a8:	b2e2      	uxtb	r2, r4
    12aa:	429c      	cmp	r4, r3
    12ac:	dbd3      	blt.n	1256 <USBHost::freeDevice(USBDeviceConnected*)+0xae>
    12ae:	f896 20fc 	ldrb.w	r2, [r6, #252]	; 0xfc
    12b2:	f896 30fd 	ldrb.w	r3, [r6, #253]	; 0xfd
    12b6:	4810      	ldr	r0, [pc, #64]	; (12f8 <USBHost::freeDevice(USBDeviceConnected*)+0x150>)
    12b8:	9201      	str	r2, [sp, #4]
    12ba:	9302      	str	r3, [sp, #8]
    12bc:	f8cd 9000 	str.w	r9, [sp]
    12c0:	490e      	ldr	r1, [pc, #56]	; (12fc <USBHost::freeDevice(USBDeviceConnected*)+0x154>)
    12c2:	f240 12bd 	movw	r2, #445	; 0x1bd
    12c6:	4633      	mov	r3, r6
    12c8:	f007 ffae 	bl	9228 <iprintf>
    12cc:	f108 0801 	add.w	r8, r8, #1
    12d0:	f1b8 0f04 	cmp.w	r8, #4
    12d4:	f109 093c 	add.w	r9, r9, #60	; 0x3c
    12d8:	d1ab      	bne.n	1232 <USBHost::freeDevice(USBDeviceConnected*)+0x8a>
    12da:	4630      	mov	r0, r6
    12dc:	b005      	add	sp, #20
    12de:	e8bd 4ff0 	ldmia.w	sp!, {r4, r5, r6, r7, r8, r9, r10, r11, lr}
    12e2:	f7ff bcd5 	b.w	c90 <USBDeviceConnected::disconnect()>
    12e6:	4905      	ldr	r1, [pc, #20]	; (12fc <USBHost::freeDevice(USBDeviceConnected*)+0x154>)
    12e8:	f44f 72ca 	mov.w	r2, #404	; 0x194
    12ec:	4804      	ldr	r0, [pc, #16]	; (1300 <USBHost::freeDevice(USBDeviceConnected*)+0x158>)
    12ee:	f007 ff9b 	bl	9228 <iprintf>
    12f2:	e762      	b.n	11ba <USBHost::freeDevice(USBDeviceConnected*)+0x12>
    12f4:	2300      	movs	r3, #0
    12f6:	e787      	b.n	1208 <USBHost::freeDevice(USBDeviceConnected*)+0x60>
    12f8:	0000b270 	.word	0x0000b270
    12fc:	0000b234 	.word	0x0000b234
    1300:	0000b210 	.word	0x0000b210

00001304 <USBHost::getDevice(unsigned char)>:
    1304:	2904      	cmp	r1, #4
    1306:	d80d      	bhi.n	1324 <USBHost::getDevice(unsigned char)+0x20>
    1308:	1843      	adds	r3, r0, r1
    130a:	f503 5301 	add.w	r3, r3, #8256	; 0x2040
    130e:	3320      	adds	r3, #32
    1310:	791b      	ldrb	r3, [r3, #4]
    1312:	b14b      	cbz	r3, 1328 <USBHost::getDevice(unsigned char)+0x24>
    1314:	f44f 7386 	mov.w	r3, #268	; 0x10c
    1318:	fb03 0001 	mla	r0, r3, r1, r0
    131c:	f500 50d9 	add.w	r0, r0, #6944	; 0x1b20
    1320:	3008      	adds	r0, #8
    1322:	4770      	bx	lr
    1324:	2000      	movs	r0, #0
    1326:	4770      	bx	lr
    1328:	4618      	mov	r0, r3
    132a:	4770      	bx	lr

0000132c <USBHost::newEndpoint(ENDPOINT_TYPE, ENDPOINT_DIRECTION, unsigned long, unsigned char)>:
    132c:	e92d 4ff0 	stmdb	sp!, {r4, r5, r6, r7, r8, r9, r10, r11, lr}
    1330:	b089      	sub	sp, #36	; 0x24
    1332:	9305      	str	r3, [sp, #20]
    1334:	4607      	mov	r7, r0
    1336:	4689      	mov	r9, r1
    1338:	4690      	mov	r8, r2
    133a:	f89d b048 	ldrb.w	r11, [sp, #72]	; 0x48
    133e:	f001 faf3 	bl	2928 <USBHALHost::getED()>
    1342:	4682      	mov	r10, r0
    1344:	4638      	mov	r0, r7
    1346:	f001 fb07 	bl	2958 <USBHALHost::getTD()>
    134a:	9006      	str	r0, [sp, #24]
    134c:	4638      	mov	r0, r7
    134e:	f001 fb03 	bl	2958 <USBHALHost::getTD()>
    1352:	2100      	movs	r1, #0
    1354:	9007      	str	r0, [sp, #28]
    1356:	2220      	movs	r2, #32
    1358:	9806      	ldr	r0, [sp, #24]
    135a:	f007 fa56 	bl	880a <memset>
    135e:	9807      	ldr	r0, [sp, #28]
    1360:	2100      	movs	r1, #0
    1362:	2220      	movs	r2, #32
    1364:	f007 fa51 	bl	880a <memset>
    1368:	37c8      	adds	r7, #200	; 0xc8
    136a:	2400      	movs	r4, #0
    136c:	9b05      	ldr	r3, [sp, #20]
    136e:	e002      	b.n	1376 <USBHost::newEndpoint(ENDPOINT_TYPE, ENDPOINT_DIRECTION, unsigned long, unsigned char)+0x4a>
    1370:	f5b4 5fd2 	cmp.w	r4, #6720	; 0x1a40
    1374:	d013      	beq.n	139e <USBHost::newEndpoint(ENDPOINT_TYPE, ENDPOINT_DIRECTION, unsigned long, unsigned char)+0x72>
    1376:	193d      	adds	r5, r7, r4
    1378:	f895 6025 	ldrb.w	r6, [r5, #37]	; 0x25
    137c:	3470      	adds	r4, #112	; 0x70
    137e:	2e0f      	cmp	r6, #15
    1380:	d1f6      	bne.n	1370 <USBHost::newEndpoint(ENDPOINT_TYPE, ENDPOINT_DIRECTION, unsigned long, unsigned char)+0x44>
    1382:	a806      	add	r0, sp, #24
    1384:	e88d 0808 	stmia.w	sp, {r3, r11}
    1388:	9002      	str	r0, [sp, #8]
    138a:	4651      	mov	r1, r10
    138c:	4628      	mov	r0, r5
    138e:	464a      	mov	r2, r9
    1390:	4643      	mov	r3, r8
    1392:	f001 f8bf 	bl	2514 <USBEndpoint::init(hcEd*, ENDPOINT_TYPE, ENDPOINT_DIRECTION, unsigned long, unsigned char, HCTD**)>
    1396:	4628      	mov	r0, r5
    1398:	b009      	add	sp, #36	; 0x24
    139a:	e8bd 8ff0 	ldmia.w	sp!, {r4, r5, r6, r7, r8, r9, r10, r11, pc}
    139e:	4905      	ldr	r1, [pc, #20]	; (13b4 <USBHost::newEndpoint(ENDPOINT_TYPE, ENDPOINT_DIRECTION, unsigned long, unsigned char)+0x88>)
    13a0:	f240 2215 	movw	r2, #533	; 0x215
    13a4:	4804      	ldr	r0, [pc, #16]	; (13b8 <USBHost::newEndpoint(ENDPOINT_TYPE, ENDPOINT_DIRECTION, unsigned long, unsigned char)+0x8c>)
    13a6:	f007 ff3f 	bl	9228 <iprintf>
    13aa:	2500      	movs	r5, #0
    13ac:	4628      	mov	r0, r5
    13ae:	b009      	add	sp, #36	; 0x24
    13b0:	e8bd 8ff0 	ldmia.w	sp!, {r4, r5, r6, r7, r8, r9, r10, r11, pc}
    13b4:	0000b234 	.word	0x0000b234
    13b8:	0000b2b8 	.word	0x0000b2b8

000013bc <USBHost::resetDevice(USBDeviceConnected*)>:
    13bc:	b530      	push	{r4, r5, lr}
    13be:	f500 53d9 	add.w	r3, r0, #6944	; 0x1b20
    13c2:	b083      	sub	sp, #12
    13c4:	4605      	mov	r5, r0
    13c6:	3308      	adds	r3, #8
    13c8:	2400      	movs	r4, #0
    13ca:	4299      	cmp	r1, r3
    13cc:	f503 7386 	add.w	r3, r3, #268	; 0x10c
    13d0:	d005      	beq.n	13de <USBHost::resetDevice(USBDeviceConnected*)+0x22>
    13d2:	3401      	adds	r4, #1
    13d4:	2c05      	cmp	r4, #5
    13d6:	d1f8      	bne.n	13ca <USBHost::resetDevice(USBDeviceConnected*)+0xe>
    13d8:	2012      	movs	r0, #18
    13da:	b003      	add	sp, #12
    13dc:	bd30      	pop	{r4, r5, pc}
    13de:	2064      	movs	r0, #100	; 0x64
    13e0:	9101      	str	r1, [sp, #4]
    13e2:	f005 fb6f 	bl	6ac4 <rtos::Thread::wait(unsigned long)>
    13e6:	9901      	ldr	r1, [sp, #4]
    13e8:	f891 30fc 	ldrb.w	r3, [r1, #252]	; 0xfc
    13ec:	b973      	cbnz	r3, 140c <USBHost::resetDevice(USBDeviceConnected*)+0x50>
    13ee:	4628      	mov	r0, r5
    13f0:	f001 fadc 	bl	29ac <USBHALHost::resetRootHub()>
    13f4:	2064      	movs	r0, #100	; 0x64
    13f6:	f005 fb65 	bl	6ac4 <rtos::Thread::wait(unsigned long)>
    13fa:	442c      	add	r4, r5
    13fc:	f504 5401 	add.w	r4, r4, #8256	; 0x2040
    1400:	2301      	movs	r3, #1
    1402:	2000      	movs	r0, #0
    1404:	f884 303d 	strb.w	r3, [r4, #61]	; 0x3d
    1408:	b003      	add	sp, #12
    140a:	bd30      	pop	{r4, r5, pc}
    140c:	6848      	ldr	r0, [r1, #4]
    140e:	f891 10fd 	ldrb.w	r1, [r1, #253]	; 0xfd
    1412:	f001 f84d 	bl	24b0 <USBHostHub::portReset(unsigned char)>
    1416:	e7ed      	b.n	13f4 <USBHost::resetDevice(USBDeviceConnected*)+0x38>

00001418 <USBHost::addEndpoint(USBDeviceConnected*, unsigned char, USBEndpoint*)>:
    1418:	e92d 41f0 	stmdb	sp!, {r4, r5, r6, r7, r8, lr}
    141c:	461c      	mov	r4, r3
    141e:	4606      	mov	r6, r0
    1420:	4617      	mov	r7, r2
    1422:	460d      	mov	r5, r1
    1424:	b193      	cbz	r3, 144c <USBHost::addEndpoint(USBDeviceConnected*, unsigned char, USBEndpoint*)+0x34>
    1426:	4618      	mov	r0, r3
    1428:	2900      	cmp	r1, #0
    142a:	d04c      	beq.n	14c6 <USBHost::addEndpoint(USBDeviceConnected*, unsigned char, USBEndpoint*)+0xae>
    142c:	f891 1102 	ldrb.w	r1, [r1, #258]	; 0x102
    1430:	f001 f8da 	bl	25e8 <USBEndpoint::setDeviceAddress(unsigned char)>
    1434:	f895 3106 	ldrb.w	r3, [r5, #262]	; 0x106
    1438:	b95b      	cbnz	r3, 1452 <USBHost::addEndpoint(USBDeviceConnected*, unsigned char, USBEndpoint*)+0x3a>
    143a:	f894 3024 	ldrb.w	r3, [r4, #36]	; 0x24
    143e:	f884 706c 	strb.w	r7, [r4, #108]	; 0x6c
    1442:	2b02      	cmp	r3, #2
    1444:	d00f      	beq.n	1466 <USBHost::addEndpoint(USBDeviceConnected*, unsigned char, USBEndpoint*)+0x4e>
    1446:	2b03      	cmp	r3, #3
    1448:	d023      	beq.n	1492 <USBHost::addEndpoint(USBDeviceConnected*, unsigned char, USBEndpoint*)+0x7a>
    144a:	b373      	cbz	r3, 14aa <USBHost::addEndpoint(USBDeviceConnected*, unsigned char, USBEndpoint*)+0x92>
    144c:	2000      	movs	r0, #0
    144e:	e8bd 81f0 	ldmia.w	sp!, {r4, r5, r6, r7, r8, pc}
    1452:	4620      	mov	r0, r4
    1454:	2101      	movs	r1, #1
    1456:	f001 f8d5 	bl	2604 <USBEndpoint::setSpeed(unsigned char)>
    145a:	f894 3024 	ldrb.w	r3, [r4, #36]	; 0x24
    145e:	f884 706c 	strb.w	r7, [r4, #108]	; 0x6c
    1462:	2b02      	cmp	r3, #2
    1464:	d1ef      	bne.n	1446 <USBHost::addEndpoint(USBDeviceConnected*, unsigned char, USBEndpoint*)+0x2e>
    1466:	4630      	mov	r0, r6
    1468:	f001 f9fc 	bl	2864 <USBHALHost::bulkHeadED()>
    146c:	b370      	cbz	r0, 14cc <USBHost::addEndpoint(USBDeviceConnected*, unsigned char, USBEndpoint*)+0xb4>
    146e:	f641 381c 	movw	r8, #6940	; 0x1b1c
    1472:	f856 0008 	ldr.w	r0, [r6, r8]
    1476:	4621      	mov	r1, r4
    1478:	f001 f92e 	bl	26d8 <USBEndpoint::queueEndpoint(USBEndpoint*)>
    147c:	f846 4008 	str.w	r4, [r6, r8]
    1480:	6025      	str	r5, [r4, #0]
    1482:	4628      	mov	r0, r5
    1484:	4639      	mov	r1, r7
    1486:	4622      	mov	r2, r4
    1488:	f7ff fbce 	bl	c28 <USBDeviceConnected::addEndpoint(unsigned char, USBEndpoint*)>
    148c:	2001      	movs	r0, #1
    148e:	e8bd 81f0 	ldmia.w	sp!, {r4, r5, r6, r7, r8, pc}
    1492:	4630      	mov	r0, r6
    1494:	f001 f9ec 	bl	2870 <USBHALHost::interruptHeadED()>
    1498:	b318      	cbz	r0, 14e2 <USBHost::addEndpoint(USBDeviceConnected*, unsigned char, USBEndpoint*)+0xca>
    149a:	f506 56d9 	add.w	r6, r6, #6944	; 0x1b20
    149e:	6830      	ldr	r0, [r6, #0]
    14a0:	4621      	mov	r1, r4
    14a2:	f001 f919 	bl	26d8 <USBEndpoint::queueEndpoint(USBEndpoint*)>
    14a6:	6034      	str	r4, [r6, #0]
    14a8:	e7ea      	b.n	1480 <USBHost::addEndpoint(USBDeviceConnected*, unsigned char, USBEndpoint*)+0x68>
    14aa:	4630      	mov	r0, r6
    14ac:	f001 f9d4 	bl	2858 <USBHALHost::controlHeadED()>
    14b0:	b310      	cbz	r0, 14f8 <USBHost::addEndpoint(USBDeviceConnected*, unsigned char, USBEndpoint*)+0xe0>
    14b2:	f641 3518 	movw	r5, #6936	; 0x1b18
    14b6:	5970      	ldr	r0, [r6, r5]
    14b8:	4621      	mov	r1, r4
    14ba:	f001 f90d 	bl	26d8 <USBEndpoint::queueEndpoint(USBEndpoint*)>
    14be:	5174      	str	r4, [r6, r5]
    14c0:	2001      	movs	r0, #1
    14c2:	e8bd 81f0 	ldmia.w	sp!, {r4, r5, r6, r7, r8, pc}
    14c6:	f001 f88f 	bl	25e8 <USBEndpoint::setDeviceAddress(unsigned char)>
    14ca:	e7b6      	b.n	143a <USBHost::addEndpoint(USBDeviceConnected*, unsigned char, USBEndpoint*)+0x22>
    14cc:	4630      	mov	r0, r6
    14ce:	6da1      	ldr	r1, [r4, #88]	; 0x58
    14d0:	f001 f9d2 	bl	2878 <USBHALHost::updateBulkHeadED(unsigned long)>
    14d4:	f641 3210 	movw	r2, #6928	; 0x1b10
    14d8:	f641 331c 	movw	r3, #6940	; 0x1b1c
    14dc:	50b4      	str	r4, [r6, r2]
    14de:	50f4      	str	r4, [r6, r3]
    14e0:	e7ce      	b.n	1480 <USBHost::addEndpoint(USBDeviceConnected*, unsigned char, USBEndpoint*)+0x68>
    14e2:	4630      	mov	r0, r6
    14e4:	6da1      	ldr	r1, [r4, #88]	; 0x58
    14e6:	f001 f9d3 	bl	2890 <USBHALHost::updateInterruptHeadED(unsigned long)>
    14ea:	f641 3214 	movw	r2, #6932	; 0x1b14
    14ee:	f506 53d9 	add.w	r3, r6, #6944	; 0x1b20
    14f2:	50b4      	str	r4, [r6, r2]
    14f4:	601c      	str	r4, [r3, #0]
    14f6:	e7c3      	b.n	1480 <USBHost::addEndpoint(USBDeviceConnected*, unsigned char, USBEndpoint*)+0x68>
    14f8:	4630      	mov	r0, r6
    14fa:	6da1      	ldr	r1, [r4, #88]	; 0x58
    14fc:	f001 f9c2 	bl	2884 <USBHALHost::updateControlHeadED(unsigned long)>
    1500:	f641 320c 	movw	r2, #6924	; 0x1b0c
    1504:	f641 3318 	movw	r3, #6936	; 0x1b18
    1508:	50b4      	str	r4, [r6, r2]
    150a:	2001      	movs	r0, #1
    150c:	50f4      	str	r4, [r6, r3]
    150e:	e8bd 81f0 	ldmia.w	sp!, {r4, r5, r6, r7, r8, pc}
    1512:	bf00      	nop

00001514 <USBHost::findDevice(USBDeviceConnected*)>:
    1514:	f500 50d9 	add.w	r0, r0, #6944	; 0x1b20
    1518:	3008      	adds	r0, #8
    151a:	2300      	movs	r3, #0
    151c:	4281      	cmp	r1, r0
    151e:	f500 7086 	add.w	r0, r0, #268	; 0x10c
    1522:	d005      	beq.n	1530 <USBHost::findDevice(USBDeviceConnected*)+0x1c>
    1524:	3301      	adds	r3, #1
    1526:	2b05      	cmp	r3, #5
    1528:	d1f8      	bne.n	151c <USBHost::findDevice(USBDeviceConnected*)+0x8>
    152a:	f04f 30ff 	mov.w	r0, #4294967295	; 0xffffffff
    152e:	4770      	bx	lr
    1530:	4618      	mov	r0, r3
    1532:	4770      	bx	lr

00001534 <USBHost::addTransfer(USBEndpoint*, unsigned char*, unsigned long)>:
    1534:	e92d 47f0 	stmdb	sp!, {r4, r5, r6, r7, r8, r9, r10, lr}
    1538:	f500 5609 	add.w	r6, r0, #8768	; 0x2240
    153c:	3620      	adds	r6, #32
    153e:	460d      	mov	r5, r1
    1540:	4680      	mov	r8, r0
    1542:	f04f 31ff 	mov.w	r1, #4294967295	; 0xffffffff
    1546:	4630      	mov	r0, r6
    1548:	4691      	mov	r9, r2
    154a:	469a      	mov	r10, r3
    154c:	f005 fa6a 	bl	6a24 <rtos::Mutex::lock(unsigned long)>
    1550:	6e6c      	ldr	r4, [r5, #100]	; 0x64
    1552:	2c00      	cmp	r4, #0
    1554:	d035      	beq.n	15c2 <USBHost::addTransfer(USBEndpoint*, unsigned char*, unsigned long)+0x8e>
    1556:	f895 3027 	ldrb.w	r3, [r5, #39]	; 0x27
    155a:	b313      	cbz	r3, 15a2 <USBHost::addTransfer(USBEndpoint*, unsigned char*, unsigned long)+0x6e>
    155c:	f895 7024 	ldrb.w	r7, [r5, #36]	; 0x24
    1560:	4a1c      	ldr	r2, [pc, #112]	; (15d4 <USBHost::addTransfer(USBEndpoint*, unsigned char*, unsigned long)+0xa0>)
    1562:	4b1d      	ldr	r3, [pc, #116]	; (15d8 <USBHost::addTransfer(USBEndpoint*, unsigned char*, unsigned long)+0xa4>)
    1564:	2f00      	cmp	r7, #0
    1566:	bf08      	it	eq
    1568:	4613      	moveq	r3, r2
    156a:	6822      	ldr	r2, [r4, #0]
    156c:	f10a 3aff 	add.w	r10, r10, #4294967295	; 0xffffffff
    1570:	6023      	str	r3, [r4, #0]
    1572:	6863      	ldr	r3, [r4, #4]
    1574:	eb09 030a 	add.w	r3, r9, r10
    1578:	f8c4 9004 	str.w	r9, [r4, #4]
    157c:	68e2      	ldr	r2, [r4, #12]
    157e:	4639      	mov	r1, r7
    1580:	60e3      	str	r3, [r4, #12]
    1582:	4640      	mov	r0, r8
    1584:	f001 f9a6 	bl	28d4 <USBHALHost::disableList(ENDPOINT_TYPE)>
    1588:	4628      	mov	r0, r5
    158a:	f001 f877 	bl	267c <USBEndpoint::queueTransfer()>
    158e:	4640      	mov	r0, r8
    1590:	4639      	mov	r1, r7
    1592:	f001 f981 	bl	2898 <USBHALHost::enableList(ENDPOINT_TYPE)>
    1596:	4630      	mov	r0, r6
    1598:	f005 fa48 	bl	6a2c <rtos::Mutex::unlock()>
    159c:	2011      	movs	r0, #17
    159e:	e8bd 87f0 	ldmia.w	sp!, {r4, r5, r6, r7, r8, r9, r10, pc}
    15a2:	f895 3026 	ldrb.w	r3, [r5, #38]	; 0x26
    15a6:	f895 7024 	ldrb.w	r7, [r5, #36]	; 0x24
    15aa:	2b02      	cmp	r3, #2
    15ac:	bf0c      	ite	eq
    15ae:	f44f 1380 	moveq.w	r3, #1048576	; 0x100000
    15b2:	f44f 2300 	movne.w	r3, #524288	; 0x80000
    15b6:	b93f      	cbnz	r7, 15c8 <USBHost::addTransfer(USBEndpoint*, unsigned char*, unsigned long)+0x94>
    15b8:	f043 4373 	orr.w	r3, r3, #4076863488	; 0xf3000000
    15bc:	f443 2380 	orr.w	r3, r3, #262144	; 0x40000
    15c0:	e7d3      	b.n	156a <USBHost::addTransfer(USBEndpoint*, unsigned char*, unsigned long)+0x36>
    15c2:	2012      	movs	r0, #18
    15c4:	e8bd 87f0 	ldmia.w	sp!, {r4, r5, r6, r7, r8, r9, r10, pc}
    15c8:	f043 4370 	orr.w	r3, r3, #4026531840	; 0xf0000000
    15cc:	f443 2380 	orr.w	r3, r3, #262144	; 0x40000
    15d0:	e7cb      	b.n	156a <USBHost::addTransfer(USBEndpoint*, unsigned char*, unsigned long)+0x36>
    15d2:	bf00      	nop
    15d4:	f2040000 	.word	0xf2040000
    15d8:	f0040000 	.word	0xf0040000

000015dc <USBHost::parseConfDescr(USBDeviceConnected*, unsigned char*, unsigned long, IUSBEnumerator*)>:
    15dc:	e92d 4ff0 	stmdb	sp!, {r4, r5, r6, r7, r8, r9, r10, r11, lr}
    15e0:	b089      	sub	sp, #36	; 0x24
    15e2:	4698      	mov	r8, r3
    15e4:	9005      	str	r0, [sp, #20]
    15e6:	9104      	str	r1, [sp, #16]
    15e8:	4615      	mov	r5, r2
    15ea:	b34b      	cbz	r3, 1640 <USBHost::parseConfDescr(USBDeviceConnected*, unsigned char*, unsigned long, IUSBEnumerator*)+0x64>
    15ec:	f04f 0b00 	mov.w	r11, #0
    15f0:	46d9      	mov	r9, r11
    15f2:	f8cd b018 	str.w	r11, [sp, #24]
    15f6:	465c      	mov	r4, r11
    15f8:	f8cd b01c 	str.w	r11, [sp, #28]
    15fc:	192f      	adds	r7, r5, r4
    15fe:	787b      	ldrb	r3, [r7, #1]
    1600:	5d2e      	ldrb	r6, [r5, r4]
    1602:	3b02      	subs	r3, #2
    1604:	2b1f      	cmp	r3, #31
    1606:	d818      	bhi.n	163a <USBHost::parseConfDescr(USBDeviceConnected*, unsigned char*, unsigned long, IUSBEnumerator*)+0x5e>
    1608:	e8df f003 	tbb	[pc, r3]
    160c:	451d1740 	.word	0x451d1740
    1610:	17171717 	.word	0x17171717
    1614:	17171717 	.word	0x17171717
    1618:	17171717 	.word	0x17171717
    161c:	17171717 	.word	0x17171717
    1620:	17171717 	.word	0x17171717
    1624:	17171717 	.word	0x17171717
    1628:	10171717 	.word	0x10171717
    162c:	7a3a      	ldrb	r2, [r7, #8]
    162e:	79fb      	ldrb	r3, [r7, #7]
    1630:	ea43 2302 	orr.w	r3, r3, r2, lsl #8
    1634:	9a05      	ldr	r2, [sp, #20]
    1636:	f8a2 30c4 	strh.w	r3, [r2, #196]	; 0xc4
    163a:	4434      	add	r4, r6
    163c:	45a0      	cmp	r8, r4
    163e:	d8dd      	bhi.n	15fc <USBHost::parseConfDescr(USBDeviceConnected*, unsigned char*, unsigned long, IUSBEnumerator*)+0x20>
    1640:	b009      	add	sp, #36	; 0x24
    1642:	e8bd 8ff0 	ldmia.w	sp!, {r4, r5, r6, r7, r8, r9, r10, r11, pc}
    1646:	9a12      	ldr	r2, [sp, #72]	; 0x48
    1648:	1de7      	adds	r7, r4, #7
    164a:	f815 e007 	ldrb.w	lr, [r5, r7]
    164e:	6810      	ldr	r0, [r2, #0]
    1650:	1d63      	adds	r3, r4, #5
    1652:	f104 0902 	add.w	r9, r4, #2
    1656:	f104 0a06 	add.w	r10, r4, #6
    165a:	5cea      	ldrb	r2, [r5, r3]
    165c:	9303      	str	r3, [sp, #12]
    165e:	f815 1009 	ldrb.w	r1, [r5, r9]
    1662:	f815 300a 	ldrb.w	r3, [r5, r10]
    1666:	f8cd e000 	str.w	lr, [sp]
    166a:	f8d0 c004 	ldr.w	r12, [r0, #4]
    166e:	9812      	ldr	r0, [sp, #72]	; 0x48
    1670:	47e0      	blx	r12
    1672:	2800      	cmp	r0, #0
    1674:	d04c      	beq.n	1710 <USBHost::parseConfDescr(USBDeviceConnected*, unsigned char*, unsigned long, IUSBEnumerator*)+0x134>
    1676:	f10b 0c01 	add.w	r12, r11, #1
    167a:	f1bb 0f04 	cmp.w	r11, #4
    167e:	fa5f fc8c 	uxtb.w	r12, r12
    1682:	d947      	bls.n	1714 <USBHost::parseConfDescr(USBDeviceConnected*, unsigned char*, unsigned long, IUSBEnumerator*)+0x138>
    1684:	46e3      	mov	r11, r12
    1686:	f04f 0901 	mov.w	r9, #1
    168a:	e7d6      	b.n	163a <USBHost::parseConfDescr(USBDeviceConnected*, unsigned char*, unsigned long, IUSBEnumerator*)+0x5e>
    168c:	792b      	ldrb	r3, [r5, #4]
    168e:	9a04      	ldr	r2, [sp, #16]
    1690:	f882 3109 	strb.w	r3, [r2, #265]	; 0x109
    1694:	e7d1      	b.n	163a <USBHost::parseConfDescr(USBDeviceConnected*, unsigned char*, unsigned long, IUSBEnumerator*)+0x5e>
    1696:	f1b9 0f00 	cmp.w	r9, #0
    169a:	d0ce      	beq.n	163a <USBHost::parseConfDescr(USBDeviceConnected*, unsigned char*, unsigned long, IUSBEnumerator*)+0x5e>
    169c:	f1bb 0f04 	cmp.w	r11, #4
    16a0:	d8cb      	bhi.n	163a <USBHost::parseConfDescr(USBDeviceConnected*, unsigned char*, unsigned long, IUSBEnumerator*)+0x5e>
    16a2:	9a06      	ldr	r2, [sp, #24]
    16a4:	2a02      	cmp	r2, #2
    16a6:	dcc8      	bgt.n	163a <USBHost::parseConfDescr(USBDeviceConnected*, unsigned char*, unsigned long, IUSBEnumerator*)+0x5e>
    16a8:	1ca3      	adds	r3, r4, #2
    16aa:	9812      	ldr	r0, [sp, #72]	; 0x48
    16ac:	9303      	str	r3, [sp, #12]
    16ae:	f104 0a03 	add.w	r10, r4, #3
    16b2:	5ceb      	ldrb	r3, [r5, r3]
    16b4:	6801      	ldr	r1, [r0, #0]
    16b6:	f815 200a 	ldrb.w	r2, [r5, r10]
    16ba:	11db      	asrs	r3, r3, #7
    16bc:	f8d1 c008 	ldr.w	r12, [r1, #8]
    16c0:	3301      	adds	r3, #1
    16c2:	f002 0203 	and.w	r2, r2, #3
    16c6:	9907      	ldr	r1, [sp, #28]
    16c8:	47e0      	blx	r12
    16ca:	2800      	cmp	r0, #0
    16cc:	d0b5      	beq.n	163a <USBHost::parseConfDescr(USBDeviceConnected*, unsigned char*, unsigned long, IUSBEnumerator*)+0x5e>
    16ce:	f815 100a 	ldrb.w	r1, [r5, r10]
    16d2:	f001 0103 	and.w	r1, r1, #3
    16d6:	2901      	cmp	r1, #1
    16d8:	d0af      	beq.n	163a <USBHost::parseConfDescr(USBDeviceConnected*, unsigned char*, unsigned long, IUSBEnumerator*)+0x5e>
    16da:	9a03      	ldr	r2, [sp, #12]
    16dc:	797b      	ldrb	r3, [r7, #5]
    16de:	5ca8      	ldrb	r0, [r5, r2]
    16e0:	793f      	ldrb	r7, [r7, #4]
    16e2:	11c2      	asrs	r2, r0, #7
    16e4:	f000 000f 	and.w	r0, r0, #15
    16e8:	9000      	str	r0, [sp, #0]
    16ea:	3201      	adds	r2, #1
    16ec:	ea47 2303 	orr.w	r3, r7, r3, lsl #8
    16f0:	9805      	ldr	r0, [sp, #20]
    16f2:	f7ff fe1b 	bl	132c <USBHost::newEndpoint(ENDPOINT_TYPE, ENDPOINT_DIRECTION, unsigned long, unsigned char)>
    16f6:	b138      	cbz	r0, 1708 <USBHost::parseConfDescr(USBDeviceConnected*, unsigned char*, unsigned long, IUSBEnumerator*)+0x12c>
    16f8:	9b04      	ldr	r3, [sp, #16]
    16fa:	b12b      	cbz	r3, 1708 <USBHost::parseConfDescr(USBDeviceConnected*, unsigned char*, unsigned long, IUSBEnumerator*)+0x12c>
    16fc:	4603      	mov	r3, r0
    16fe:	9904      	ldr	r1, [sp, #16]
    1700:	9805      	ldr	r0, [sp, #20]
    1702:	9a07      	ldr	r2, [sp, #28]
    1704:	f7ff fe88 	bl	1418 <USBHost::addEndpoint(USBDeviceConnected*, unsigned char, USBEndpoint*)>
    1708:	9806      	ldr	r0, [sp, #24]
    170a:	3001      	adds	r0, #1
    170c:	9006      	str	r0, [sp, #24]
    170e:	e794      	b.n	163a <USBHost::parseConfDescr(USBDeviceConnected*, unsigned char*, unsigned long, IUSBEnumerator*)+0x5e>
    1710:	4681      	mov	r9, r0
    1712:	e792      	b.n	163a <USBHost::parseConfDescr(USBDeviceConnected*, unsigned char*, unsigned long, IUSBEnumerator*)+0x5e>
    1714:	f815 9009 	ldrb.w	r9, [r5, r9]
    1718:	9b03      	ldr	r3, [sp, #12]
    171a:	5de9      	ldrb	r1, [r5, r7]
    171c:	5cea      	ldrb	r2, [r5, r3]
    171e:	9804      	ldr	r0, [sp, #16]
    1720:	f815 300a 	ldrb.w	r3, [r5, r10]
    1724:	9100      	str	r1, [sp, #0]
    1726:	4649      	mov	r1, r9
    1728:	f8cd 901c 	str.w	r9, [sp, #28]
    172c:	46e3      	mov	r11, r12
    172e:	f7ff fa65 	bl	bfc <USBDeviceConnected::addInterface(unsigned char, unsigned char, unsigned char, unsigned char)>
    1732:	2000      	movs	r0, #0
    1734:	f04f 0901 	mov.w	r9, #1
    1738:	9006      	str	r0, [sp, #24]
    173a:	e77e      	b.n	163a <USBHost::parseConfDescr(USBDeviceConnected*, unsigned char*, unsigned long, IUSBEnumerator*)+0x5e>

0000173c <USBHost::generalTransfer(USBDeviceConnected*, USBEndpoint*, unsigned char*, unsigned long, bool, ENDPOINT_TYPE, bool)>:
    173c:	e92d 4ff0 	stmdb	sp!, {r4, r5, r6, r7, r8, r9, r10, r11, lr}
    1740:	f500 5509 	add.w	r5, r0, #8768	; 0x2240
    1744:	b089      	sub	sp, #36	; 0x24
    1746:	f89d 8054 	ldrb.w	r8, [sp, #84]	; 0x54
    174a:	350c      	adds	r5, #12
    174c:	4606      	mov	r6, r0
    174e:	460f      	mov	r7, r1
    1750:	4628      	mov	r0, r5
    1752:	f04f 31ff 	mov.w	r1, #4294967295	; 0xffffffff
    1756:	4614      	mov	r4, r2
    1758:	469a      	mov	r10, r3
    175a:	f89d b04c 	ldrb.w	r11, [sp, #76]	; 0x4c
    175e:	f89d 9050 	ldrb.w	r9, [sp, #80]	; 0x50
    1762:	f005 f95f 	bl	6a24 <rtos::Mutex::lock(unsigned long)>
    1766:	f1b8 0f00 	cmp.w	r8, #0
    176a:	bf0c      	ite	eq
    176c:	2202      	moveq	r2, #2
    176e:	2201      	movne	r2, #1
    1770:	2f00      	cmp	r7, #0
    1772:	d033      	beq.n	17dc <USBHost::generalTransfer(USBDeviceConnected*, USBEndpoint*, unsigned char*, unsigned long, bool, ENDPOINT_TYPE, bool)+0xa0>
    1774:	2c00      	cmp	r4, #0
    1776:	d050      	beq.n	181a <USBHost::generalTransfer(USBDeviceConnected*, USBEndpoint*, unsigned char*, unsigned long, bool, ENDPOINT_TYPE, bool)+0xde>
    1778:	f894 3025 	ldrb.w	r3, [r4, #37]	; 0x25
    177c:	2b10      	cmp	r3, #16
    177e:	d114      	bne.n	17aa <USBHost::generalTransfer(USBDeviceConnected*, USBEndpoint*, unsigned char*, unsigned long, bool, ENDPOINT_TYPE, bool)+0x6e>
    1780:	f894 3026 	ldrb.w	r3, [r4, #38]	; 0x26
    1784:	4293      	cmp	r3, r2
    1786:	d031      	beq.n	17ec <USBHost::generalTransfer(USBDeviceConnected*, USBEndpoint*, unsigned char*, unsigned long, bool, ENDPOINT_TYPE, bool)+0xb0>
    1788:	6822      	ldr	r2, [r4, #0]
    178a:	4623      	mov	r3, r4
    178c:	9200      	str	r2, [sp, #0]
    178e:	4832      	ldr	r0, [pc, #200]	; (1858 <USBHost::generalTransfer(USBDeviceConnected*, USBEndpoint*, unsigned char*, unsigned long, bool, ENDPOINT_TYPE, bool)+0x11c>)
    1790:	4932      	ldr	r1, [pc, #200]	; (185c <USBHost::generalTransfer(USBDeviceConnected*, USBEndpoint*, unsigned char*, unsigned long, bool, ENDPOINT_TYPE, bool)+0x120>)
    1792:	f240 32fd 	movw	r2, #1021	; 0x3fd
    1796:	f007 fd47 	bl	9228 <iprintf>
    179a:	2412      	movs	r4, #18
    179c:	4628      	mov	r0, r5
    179e:	f005 f945 	bl	6a2c <rtos::Mutex::unlock()>
    17a2:	4620      	mov	r0, r4
    17a4:	b009      	add	sp, #36	; 0x24
    17a6:	e8bd 8ff0 	ldmia.w	sp!, {r4, r5, r6, r7, r8, r9, r10, r11, pc}
    17aa:	f894 306c 	ldrb.w	r3, [r4, #108]	; 0x6c
    17ae:	6826      	ldr	r6, [r4, #0]
    17b0:	ebc3 1303 	rsb	r3, r3, r3, lsl #4
    17b4:	4620      	mov	r0, r4
    17b6:	eb06 0783 	add.w	r7, r6, r3, lsl #2
    17ba:	f000 ff55 	bl	2668 <USBEndpoint::getStateString()>
    17be:	3738      	adds	r7, #56	; 0x38
    17c0:	9002      	str	r0, [sp, #8]
    17c2:	4623      	mov	r3, r4
    17c4:	9701      	str	r7, [sp, #4]
    17c6:	9600      	str	r6, [sp, #0]
    17c8:	4825      	ldr	r0, [pc, #148]	; (1860 <USBHost::generalTransfer(USBDeviceConnected*, USBEndpoint*, unsigned char*, unsigned long, bool, ENDPOINT_TYPE, bool)+0x124>)
    17ca:	4924      	ldr	r1, [pc, #144]	; (185c <USBHost::generalTransfer(USBDeviceConnected*, USBEndpoint*, unsigned char*, unsigned long, bool, ENDPOINT_TYPE, bool)+0x120>)
    17cc:	f44f 727e 	mov.w	r2, #1016	; 0x3f8
    17d0:	f007 fd2a 	bl	9228 <iprintf>
    17d4:	f894 4025 	ldrb.w	r4, [r4, #37]	; 0x25
    17d8:	b2e4      	uxtb	r4, r4
    17da:	e7df      	b.n	179c <USBHost::generalTransfer(USBDeviceConnected*, USBEndpoint*, unsigned char*, unsigned long, bool, ENDPOINT_TYPE, bool)+0x60>
    17dc:	4821      	ldr	r0, [pc, #132]	; (1864 <USBHost::generalTransfer(USBDeviceConnected*, USBEndpoint*, unsigned char*, unsigned long, bool, ENDPOINT_TYPE, bool)+0x128>)
    17de:	491f      	ldr	r1, [pc, #124]	; (185c <USBHost::generalTransfer(USBDeviceConnected*, USBEndpoint*, unsigned char*, unsigned long, bool, ENDPOINT_TYPE, bool)+0x120>)
    17e0:	f240 32ee 	movw	r2, #1006	; 0x3ee
    17e4:	f007 fd20 	bl	9228 <iprintf>
    17e8:	2412      	movs	r4, #18
    17ea:	e7d7      	b.n	179c <USBHost::generalTransfer(USBDeviceConnected*, USBEndpoint*, unsigned char*, unsigned long, bool, ENDPOINT_TYPE, bool)+0x60>
    17ec:	f894 3024 	ldrb.w	r3, [r4, #36]	; 0x24
    17f0:	454b      	cmp	r3, r9
    17f2:	d1c9      	bne.n	1788 <USBHost::generalTransfer(USBDeviceConnected*, USBEndpoint*, unsigned char*, unsigned long, bool, ENDPOINT_TYPE, bool)+0x4c>
    17f4:	6da3      	ldr	r3, [r4, #88]	; 0x58
    17f6:	f897 2102 	ldrb.w	r2, [r7, #258]	; 0x102
    17fa:	681b      	ldr	r3, [r3, #0]
    17fc:	f003 037f 	and.w	r3, r3, #127	; 0x7f
    1800:	429a      	cmp	r2, r3
    1802:	d012      	beq.n	182a <USBHost::generalTransfer(USBDeviceConnected*, USBEndpoint*, unsigned char*, unsigned long, bool, ENDPOINT_TYPE, bool)+0xee>
    1804:	6822      	ldr	r2, [r4, #0]
    1806:	4623      	mov	r3, r4
    1808:	9200      	str	r2, [sp, #0]
    180a:	4817      	ldr	r0, [pc, #92]	; (1868 <USBHost::generalTransfer(USBDeviceConnected*, USBEndpoint*, unsigned char*, unsigned long, bool, ENDPOINT_TYPE, bool)+0x12c>)
    180c:	4913      	ldr	r1, [pc, #76]	; (185c <USBHost::generalTransfer(USBDeviceConnected*, USBEndpoint*, unsigned char*, unsigned long, bool, ENDPOINT_TYPE, bool)+0x120>)
    180e:	f240 4202 	movw	r2, #1026	; 0x402
    1812:	f007 fd09 	bl	9228 <iprintf>
    1816:	2412      	movs	r4, #18
    1818:	e7c0      	b.n	179c <USBHost::generalTransfer(USBDeviceConnected*, USBEndpoint*, unsigned char*, unsigned long, bool, ENDPOINT_TYPE, bool)+0x60>
    181a:	4814      	ldr	r0, [pc, #80]	; (186c <USBHost::generalTransfer(USBDeviceConnected*, USBEndpoint*, unsigned char*, unsigned long, bool, ENDPOINT_TYPE, bool)+0x130>)
    181c:	490f      	ldr	r1, [pc, #60]	; (185c <USBHost::generalTransfer(USBDeviceConnected*, USBEndpoint*, unsigned char*, unsigned long, bool, ENDPOINT_TYPE, bool)+0x120>)
    181e:	f240 32f3 	movw	r2, #1011	; 0x3f3
    1822:	f007 fd01 	bl	9228 <iprintf>
    1826:	2412      	movs	r4, #18
    1828:	e7b8      	b.n	179c <USBHost::generalTransfer(USBDeviceConnected*, USBEndpoint*, unsigned char*, unsigned long, bool, ENDPOINT_TYPE, bool)+0x60>
    182a:	4630      	mov	r0, r6
    182c:	4652      	mov	r2, r10
    182e:	4621      	mov	r1, r4
    1830:	9b12      	ldr	r3, [sp, #72]	; 0x48
    1832:	f7ff fe7f 	bl	1534 <USBHost::addTransfer(USBEndpoint*, unsigned char*, unsigned long)>
    1836:	f1bb 0f00 	cmp.w	r11, #0
    183a:	d101      	bne.n	1840 <USBHost::generalTransfer(USBDeviceConnected*, USBEndpoint*, unsigned char*, unsigned long, bool, ENDPOINT_TYPE, bool)+0x104>
    183c:	2411      	movs	r4, #17
    183e:	e7ad      	b.n	179c <USBHost::generalTransfer(USBDeviceConnected*, USBEndpoint*, unsigned char*, unsigned long, bool, ENDPOINT_TYPE, bool)+0x60>
    1840:	6861      	ldr	r1, [r4, #4]
    1842:	a805      	add	r0, sp, #20
    1844:	f04f 32ff 	mov.w	r2, #4294967295	; 0xffffffff
    1848:	f004 f99e 	bl	5b88 <osMessageGet>
    184c:	f894 4025 	ldrb.w	r4, [r4, #37]	; 0x25
    1850:	2c10      	cmp	r4, #16
    1852:	bf08      	it	eq
    1854:	2400      	moveq	r4, #0
    1856:	e7a1      	b.n	179c <USBHost::generalTransfer(USBDeviceConnected*, USBEndpoint*, unsigned char*, unsigned long, bool, ENDPOINT_TYPE, bool)+0x60>
    1858:	0000b3b8 	.word	0x0000b3b8
    185c:	0000b234 	.word	0x0000b234
    1860:	0000b328 	.word	0x0000b328
    1864:	0000b2f0 	.word	0x0000b2f0
    1868:	0000b364 	.word	0x0000b364
    186c:	0000b30c 	.word	0x0000b30c

00001870 <USBHost::bulkWrite(USBDeviceConnected*, USBEndpoint*, unsigned char*, unsigned long, bool)>:
    1870:	b5f0      	push	{r4, r5, r6, r7, lr}
    1872:	b085      	sub	sp, #20
    1874:	9c0a      	ldr	r4, [sp, #40]	; 0x28
    1876:	f89d 702c 	ldrb.w	r7, [sp, #44]	; 0x2c
    187a:	2602      	movs	r6, #2
    187c:	2501      	movs	r5, #1
    187e:	e88d 0090 	stmia.w	sp, {r4, r7}
    1882:	9602      	str	r6, [sp, #8]
    1884:	9503      	str	r5, [sp, #12]
    1886:	f7ff ff59 	bl	173c <USBHost::generalTransfer(USBDeviceConnected*, USBEndpoint*, unsigned char*, unsigned long, bool, ENDPOINT_TYPE, bool)>
    188a:	b005      	add	sp, #20
    188c:	bdf0      	pop	{r4, r5, r6, r7, pc}
    188e:	bf00      	nop

00001890 <USBHost::bulkRead(USBDeviceConnected*, USBEndpoint*, unsigned char*, unsigned long, bool)>:
    1890:	b5f0      	push	{r4, r5, r6, r7, lr}
    1892:	b085      	sub	sp, #20
    1894:	9c0a      	ldr	r4, [sp, #40]	; 0x28
    1896:	f89d 702c 	ldrb.w	r7, [sp, #44]	; 0x2c
    189a:	2602      	movs	r6, #2
    189c:	2500      	movs	r5, #0
    189e:	e88d 0090 	stmia.w	sp, {r4, r7}
    18a2:	9602      	str	r6, [sp, #8]
    18a4:	9503      	str	r5, [sp, #12]
    18a6:	f7ff ff49 	bl	173c <USBHost::generalTransfer(USBDeviceConnected*, USBEndpoint*, unsigned char*, unsigned long, bool, ENDPOINT_TYPE, bool)>
    18aa:	b005      	add	sp, #20
    18ac:	bdf0      	pop	{r4, r5, r6, r7, pc}
    18ae:	bf00      	nop

000018b0 <USBHost::interruptRead(USBDeviceConnected*, USBEndpoint*, unsigned char*, unsigned long, bool)>:
    18b0:	b5f0      	push	{r4, r5, r6, r7, lr}
    18b2:	b085      	sub	sp, #20
    18b4:	9c0a      	ldr	r4, [sp, #40]	; 0x28
    18b6:	f89d 702c 	ldrb.w	r7, [sp, #44]	; 0x2c
    18ba:	2603      	movs	r6, #3
    18bc:	2500      	movs	r5, #0
    18be:	e88d 0090 	stmia.w	sp, {r4, r7}
    18c2:	9602      	str	r6, [sp, #8]
    18c4:	9503      	str	r5, [sp, #12]
    18c6:	f7ff ff39 	bl	173c <USBHost::generalTransfer(USBDeviceConnected*, USBEndpoint*, unsigned char*, unsigned long, bool, ENDPOINT_TYPE, bool)>
    18ca:	b005      	add	sp, #20
    18cc:	bdf0      	pop	{r4, r5, r6, r7, pc}
    18ce:	bf00      	nop

000018d0 <USBHost::controlTransfer(USBDeviceConnected*, unsigned char, unsigned char, unsigned long, unsigned long, unsigned char*, unsigned long, bool)>:
    18d0:	e92d 4ff0 	stmdb	sp!, {r4, r5, r6, r7, r8, r9, r10, r11, lr}
    18d4:	f500 5409 	add.w	r4, r0, #8768	; 0x2240
    18d8:	b087      	sub	sp, #28
    18da:	340c      	adds	r4, #12
    18dc:	4692      	mov	r10, r2
    18de:	f89d 2050 	ldrb.w	r2, [sp, #80]	; 0x50
    18e2:	4683      	mov	r11, r0
    18e4:	460d      	mov	r5, r1
    18e6:	f641 3608 	movw	r6, #6920	; 0x1b08
    18ea:	f04f 31ff 	mov.w	r1, #4294967295	; 0xffffffff
    18ee:	4620      	mov	r0, r4
    18f0:	4699      	mov	r9, r3
    18f2:	9201      	str	r2, [sp, #4]
    18f4:	f8dd 8040 	ldr.w	r8, [sp, #64]	; 0x40
    18f8:	9f13      	ldr	r7, [sp, #76]	; 0x4c
    18fa:	f005 f893 	bl	6a24 <rtos::Mutex::lock(unsigned long)>
    18fe:	f85b 0006 	ldr.w	r0, [r11, r6]
    1902:	f895 1106 	ldrb.w	r1, [r5, #262]	; 0x106
    1906:	f000 fe7d 	bl	2604 <USBEndpoint::setSpeed(unsigned char)>
    190a:	f85b 0006 	ldr.w	r0, [r11, r6]
    190e:	f8d5 10f8 	ldr.w	r1, [r5, #248]	; 0xf8
    1912:	f000 fe5b 	bl	25cc <USBEndpoint::setSize(unsigned long)>
    1916:	f895 3107 	ldrb.w	r3, [r5, #263]	; 0x107
    191a:	f85b 0006 	ldr.w	r0, [r11, r6]
    191e:	f003 01ff 	and.w	r1, r3, #255	; 0xff
    1922:	2b00      	cmp	r3, #0
    1924:	d051      	beq.n	19ca <USBHost::controlTransfer(USBDeviceConnected*, unsigned char, unsigned char, unsigned long, unsigned long, unsigned char*, unsigned long, bool)+0xfa>
    1926:	f895 1102 	ldrb.w	r1, [r5, #258]	; 0x102
    192a:	f000 fe5d 	bl	25e8 <USBEndpoint::setDeviceAddress(unsigned char)>
    192e:	f641 3508 	movw	r5, #6920	; 0x1b08
    1932:	f242 01fa 	movw	r1, #8442	; 0x20fa
    1936:	f242 02fb 	movw	r2, #8443	; 0x20fb
    193a:	f85b 0005 	ldr.w	r0, [r11, r5]
    193e:	f3c8 2e07 	ubfx	lr, r8, #8, #8
    1942:	f80b a001 	strb.w	r10, [r11, r1]
    1946:	f242 03fc 	movw	r3, #8444	; 0x20fc
    194a:	f80b 9002 	strb.w	r9, [r11, r2]
    194e:	f242 06fd 	movw	r6, #8445	; 0x20fd
    1952:	9a11      	ldr	r2, [sp, #68]	; 0x44
    1954:	f80b 8003 	strb.w	r8, [r11, r3]
    1958:	f80b e006 	strb.w	lr, [r11, r6]
    195c:	f8dd e044 	ldr.w	lr, [sp, #68]	; 0x44
    1960:	f242 1301 	movw	r3, #8449	; 0x2101
    1964:	f242 01fe 	movw	r1, #8446	; 0x20fe
    1968:	f3c2 2907 	ubfx	r9, r2, #8, #8
    196c:	123e      	asrs	r6, r7, #8
    196e:	f242 02ff 	movw	r2, #8447	; 0x20ff
    1972:	f50b 5804 	add.w	r8, r11, #8448	; 0x2100
    1976:	f80b e001 	strb.w	lr, [r11, r1]
    197a:	f80b 9002 	strb.w	r9, [r11, r2]
    197e:	2100      	movs	r1, #0
    1980:	f888 7000 	strb.w	r7, [r8]
    1984:	f80b 6003 	strb.w	r6, [r11, r3]
    1988:	f000 fe48 	bl	261c <USBEndpoint::setNextToken(unsigned long)>
    198c:	f50b 5203 	add.w	r2, r11, #8384	; 0x20c0
    1990:	f85b 1005 	ldr.w	r1, [r11, r5]
    1994:	323a      	adds	r2, #58	; 0x3a
    1996:	2308      	movs	r3, #8
    1998:	4658      	mov	r0, r11
    199a:	f7ff fdcb 	bl	1534 <USBHost::addTransfer(USBEndpoint*, unsigned char*, unsigned long)>
    199e:	f85b 3005 	ldr.w	r3, [r11, r5]
    19a2:	a803      	add	r0, sp, #12
    19a4:	6859      	ldr	r1, [r3, #4]
    19a6:	f04f 32ff 	mov.w	r2, #4294967295	; 0xffffffff
    19aa:	f004 f8ed 	bl	5b88 <osMessageGet>
    19ae:	f85b 3005 	ldr.w	r3, [r11, r5]
    19b2:	f893 6025 	ldrb.w	r6, [r3, #37]	; 0x25
    19b6:	b2f6      	uxtb	r6, r6
    19b8:	2e10      	cmp	r6, #16
    19ba:	d009      	beq.n	19d0 <USBHost::controlTransfer(USBDeviceConnected*, unsigned char, unsigned char, unsigned long, unsigned long, unsigned char*, unsigned long, bool)+0x100>
    19bc:	4620      	mov	r0, r4
    19be:	f005 f835 	bl	6a2c <rtos::Mutex::unlock()>
    19c2:	4630      	mov	r0, r6
    19c4:	b007      	add	sp, #28
    19c6:	e8bd 8ff0 	ldmia.w	sp!, {r4, r5, r6, r7, r8, r9, r10, r11, pc}
    19ca:	f000 fe0d 	bl	25e8 <USBEndpoint::setDeviceAddress(unsigned char)>
    19ce:	e7ae      	b.n	192e <USBHost::controlTransfer(USBDeviceConnected*, unsigned char, unsigned char, unsigned long, unsigned long, unsigned char*, unsigned long, bool)+0x5e>
    19d0:	b307      	cbz	r7, 1a14 <USBHost::controlTransfer(USBDeviceConnected*, unsigned char, unsigned char, unsigned long, unsigned long, unsigned char*, unsigned long, bool)+0x144>
    19d2:	9b01      	ldr	r3, [sp, #4]
    19d4:	f85b 0005 	ldr.w	r0, [r11, r5]
    19d8:	2b00      	cmp	r3, #0
    19da:	bf0c      	ite	eq
    19dc:	f44f 1180 	moveq.w	r1, #1048576	; 0x100000
    19e0:	f44f 2100 	movne.w	r1, #524288	; 0x80000
    19e4:	f000 fe1a 	bl	261c <USBEndpoint::setNextToken(unsigned long)>
    19e8:	f85b 1005 	ldr.w	r1, [r11, r5]
    19ec:	463b      	mov	r3, r7
    19ee:	9a12      	ldr	r2, [sp, #72]	; 0x48
    19f0:	4658      	mov	r0, r11
    19f2:	f7ff fd9f 	bl	1534 <USBHost::addTransfer(USBEndpoint*, unsigned char*, unsigned long)>
    19f6:	f85b 3005 	ldr.w	r3, [r11, r5]
    19fa:	a803      	add	r0, sp, #12
    19fc:	6859      	ldr	r1, [r3, #4]
    19fe:	f04f 32ff 	mov.w	r2, #4294967295	; 0xffffffff
    1a02:	f004 f8c1 	bl	5b88 <osMessageGet>
    1a06:	f85b 3005 	ldr.w	r3, [r11, r5]
    1a0a:	f893 6025 	ldrb.w	r6, [r3, #37]	; 0x25
    1a0e:	b2f6      	uxtb	r6, r6
    1a10:	2e10      	cmp	r6, #16
    1a12:	d1d3      	bne.n	19bc <USBHost::controlTransfer(USBDeviceConnected*, unsigned char, unsigned char, unsigned long, unsigned long, unsigned char*, unsigned long, bool)+0xec>
    1a14:	9a01      	ldr	r2, [sp, #4]
    1a16:	f641 3508 	movw	r5, #6920	; 0x1b08
    1a1a:	2a00      	cmp	r2, #0
    1a1c:	bf14      	ite	ne
    1a1e:	f44f 1180 	movne.w	r1, #1048576	; 0x100000
    1a22:	f44f 2100 	moveq.w	r1, #524288	; 0x80000
    1a26:	f85b 0005 	ldr.w	r0, [r11, r5]
    1a2a:	f000 fdf7 	bl	261c <USBEndpoint::setNextToken(unsigned long)>
    1a2e:	2200      	movs	r2, #0
    1a30:	4613      	mov	r3, r2
    1a32:	f85b 1005 	ldr.w	r1, [r11, r5]
    1a36:	4658      	mov	r0, r11
    1a38:	f7ff fd7c 	bl	1534 <USBHost::addTransfer(USBEndpoint*, unsigned char*, unsigned long)>
    1a3c:	f85b 3005 	ldr.w	r3, [r11, r5]
    1a40:	a803      	add	r0, sp, #12
    1a42:	6859      	ldr	r1, [r3, #4]
    1a44:	f04f 32ff 	mov.w	r2, #4294967295	; 0xffffffff
    1a48:	f004 f89e 	bl	5b88 <osMessageGet>
    1a4c:	f85b 3005 	ldr.w	r3, [r11, r5]
    1a50:	f893 6025 	ldrb.w	r6, [r3, #37]	; 0x25
    1a54:	2e10      	cmp	r6, #16
    1a56:	bf08      	it	eq
    1a58:	2600      	moveq	r6, #0
    1a5a:	e7af      	b.n	19bc <USBHost::controlTransfer(USBDeviceConnected*, unsigned char, unsigned char, unsigned long, unsigned long, unsigned char*, unsigned long, bool)+0xec>

00001a5c <USBHost::controlRead(USBDeviceConnected*, unsigned char, unsigned char, unsigned long, unsigned long, unsigned char*, unsigned long)>:
    1a5c:	b5f0      	push	{r4, r5, r6, r7, lr}
    1a5e:	b087      	sub	sp, #28
    1a60:	9d0e      	ldr	r5, [sp, #56]	; 0x38
    1a62:	9f0c      	ldr	r7, [sp, #48]	; 0x30
    1a64:	9e0d      	ldr	r6, [sp, #52]	; 0x34
    1a66:	9502      	str	r5, [sp, #8]
    1a68:	9d0f      	ldr	r5, [sp, #60]	; 0x3c
    1a6a:	2400      	movs	r4, #0
    1a6c:	9700      	str	r7, [sp, #0]
    1a6e:	9601      	str	r6, [sp, #4]
    1a70:	9503      	str	r5, [sp, #12]
    1a72:	9404      	str	r4, [sp, #16]
    1a74:	f7ff ff2c 	bl	18d0 <USBHost::controlTransfer(USBDeviceConnected*, unsigned char, unsigned char, unsigned long, unsigned long, unsigned char*, unsigned long, bool)>
    1a78:	b007      	add	sp, #28
    1a7a:	bdf0      	pop	{r4, r5, r6, r7, pc}

00001a7c <USBHost::getDeviceDescriptor(USBDeviceConnected*, unsigned char*, unsigned short, unsigned short*)>:
    1a7c:	b5f0      	push	{r4, r5, r6, r7, lr}
    1a7e:	2b11      	cmp	r3, #17
    1a80:	b087      	sub	sp, #28
    1a82:	bf94      	ite	ls
    1a84:	461f      	movls	r7, r3
    1a86:	2712      	movhi	r7, #18
    1a88:	461c      	mov	r4, r3
    1a8a:	f44f 7680 	mov.w	r6, #256	; 0x100
    1a8e:	2300      	movs	r3, #0
    1a90:	9d0c      	ldr	r5, [sp, #48]	; 0x30
    1a92:	9202      	str	r2, [sp, #8]
    1a94:	9301      	str	r3, [sp, #4]
    1a96:	9304      	str	r3, [sp, #16]
    1a98:	9703      	str	r7, [sp, #12]
    1a9a:	9600      	str	r6, [sp, #0]
    1a9c:	2280      	movs	r2, #128	; 0x80
    1a9e:	2306      	movs	r3, #6
    1aa0:	f7ff ff16 	bl	18d0 <USBHost::controlTransfer(USBDeviceConnected*, unsigned char, unsigned char, unsigned long, unsigned long, unsigned char*, unsigned long, bool)>
    1aa4:	b11d      	cbz	r5, 1aae <USBHost::getDeviceDescriptor(USBDeviceConnected*, unsigned char*, unsigned short, unsigned short*)+0x32>
    1aa6:	2c12      	cmp	r4, #18
    1aa8:	bf28      	it	cs
    1aaa:	2412      	movcs	r4, #18
    1aac:	802c      	strh	r4, [r5, #0]
    1aae:	b007      	add	sp, #28
    1ab0:	bdf0      	pop	{r4, r5, r6, r7, pc}
    1ab2:	bf00      	nop

00001ab4 <USBHost::getConfigurationDescriptor(USBDeviceConnected*, unsigned char*, unsigned short, unsigned short*)>:
    1ab4:	e92d 43f0 	stmdb	sp!, {r4, r5, r6, r7, r8, r9, lr}
    1ab8:	4614      	mov	r4, r2
    1aba:	b087      	sub	sp, #28
    1abc:	2200      	movs	r2, #0
    1abe:	f44f 7600 	mov.w	r6, #512	; 0x200
    1ac2:	2509      	movs	r5, #9
    1ac4:	9600      	str	r6, [sp, #0]
    1ac6:	9201      	str	r2, [sp, #4]
    1ac8:	9204      	str	r2, [sp, #16]
    1aca:	9503      	str	r5, [sp, #12]
    1acc:	9402      	str	r4, [sp, #8]
    1ace:	4698      	mov	r8, r3
    1ad0:	2280      	movs	r2, #128	; 0x80
    1ad2:	2306      	movs	r3, #6
    1ad4:	4681      	mov	r9, r0
    1ad6:	460f      	mov	r7, r1
    1ad8:	9e0e      	ldr	r6, [sp, #56]	; 0x38
    1ada:	f7ff fef9 	bl	18d0 <USBHost::controlTransfer(USBDeviceConnected*, unsigned char, unsigned char, unsigned long, unsigned long, unsigned char*, unsigned long, bool)>
    1ade:	4605      	mov	r5, r0
    1ae0:	b9d8      	cbnz	r0, 1b1a <USBHost::getConfigurationDescriptor(USBDeviceConnected*, unsigned char*, unsigned short, unsigned short*)+0x66>
    1ae2:	78e2      	ldrb	r2, [r4, #3]
    1ae4:	78a3      	ldrb	r3, [r4, #2]
    1ae6:	ea43 2302 	orr.w	r3, r3, r2, lsl #8
    1aea:	4543      	cmp	r3, r8
    1aec:	bf28      	it	cs
    1aee:	4643      	movcs	r3, r8
    1af0:	b106      	cbz	r6, 1af4 <USBHost::getConfigurationDescriptor(USBDeviceConnected*, unsigned char*, unsigned short, unsigned short*)+0x40>
    1af2:	8033      	strh	r3, [r6, #0]
    1af4:	2200      	movs	r2, #0
    1af6:	f44f 7500 	mov.w	r5, #512	; 0x200
    1afa:	9303      	str	r3, [sp, #12]
    1afc:	9500      	str	r5, [sp, #0]
    1afe:	9201      	str	r2, [sp, #4]
    1b00:	9204      	str	r2, [sp, #16]
    1b02:	9402      	str	r4, [sp, #8]
    1b04:	4648      	mov	r0, r9
    1b06:	4639      	mov	r1, r7
    1b08:	2280      	movs	r2, #128	; 0x80
    1b0a:	2306      	movs	r3, #6
    1b0c:	f7ff fee0 	bl	18d0 <USBHost::controlTransfer(USBDeviceConnected*, unsigned char, unsigned char, unsigned long, unsigned long, unsigned char*, unsigned long, bool)>
    1b10:	4605      	mov	r5, r0
    1b12:	4628      	mov	r0, r5
    1b14:	b007      	add	sp, #28
    1b16:	e8bd 83f0 	ldmia.w	sp!, {r4, r5, r6, r7, r8, r9, pc}
    1b1a:	4905      	ldr	r1, [pc, #20]	; (1b30 <USBHost::getConfigurationDescriptor(USBDeviceConnected*, unsigned char*, unsigned short, unsigned short*)+0x7c>)
    1b1c:	f240 3202 	movw	r2, #770	; 0x302
    1b20:	4804      	ldr	r0, [pc, #16]	; (1b34 <USBHost::getConfigurationDescriptor(USBDeviceConnected*, unsigned char*, unsigned short, unsigned short*)+0x80>)
    1b22:	f007 fb81 	bl	9228 <iprintf>
    1b26:	4628      	mov	r0, r5
    1b28:	b007      	add	sp, #28
    1b2a:	e8bd 83f0 	ldmia.w	sp!, {r4, r5, r6, r7, r8, r9, pc}
    1b2e:	bf00      	nop
    1b30:	0000b234 	.word	0x0000b234
    1b34:	0000b400 	.word	0x0000b400

00001b38 <USBHost::controlWrite(USBDeviceConnected*, unsigned char, unsigned char, unsigned long, unsigned long, unsigned char*, unsigned long)>:
    1b38:	b5f0      	push	{r4, r5, r6, r7, lr}
    1b3a:	b087      	sub	sp, #28
    1b3c:	9d0e      	ldr	r5, [sp, #56]	; 0x38
    1b3e:	9f0c      	ldr	r7, [sp, #48]	; 0x30
    1b40:	9e0d      	ldr	r6, [sp, #52]	; 0x34
    1b42:	9502      	str	r5, [sp, #8]
    1b44:	9d0f      	ldr	r5, [sp, #60]	; 0x3c
    1b46:	2401      	movs	r4, #1
    1b48:	9700      	str	r7, [sp, #0]
    1b4a:	9601      	str	r6, [sp, #4]
    1b4c:	9503      	str	r5, [sp, #12]
    1b4e:	9404      	str	r4, [sp, #16]
    1b50:	f7ff febe 	bl	18d0 <USBHost::controlTransfer(USBDeviceConnected*, unsigned char, unsigned char, unsigned long, unsigned long, unsigned char*, unsigned long, bool)>
    1b54:	b007      	add	sp, #28
    1b56:	bdf0      	pop	{r4, r5, r6, r7, pc}

00001b58 <USBHost::setAddress(USBDeviceConnected*, unsigned char)>:
    1b58:	b510      	push	{r4, lr}
    1b5a:	2300      	movs	r3, #0
    1b5c:	b086      	sub	sp, #24
    1b5e:	2401      	movs	r4, #1
    1b60:	e88d 000c 	stmia.w	sp, {r2, r3}
    1b64:	9302      	str	r3, [sp, #8]
    1b66:	9303      	str	r3, [sp, #12]
    1b68:	461a      	mov	r2, r3
    1b6a:	9404      	str	r4, [sp, #16]
    1b6c:	2305      	movs	r3, #5
    1b6e:	f7ff feaf 	bl	18d0 <USBHost::controlTransfer(USBDeviceConnected*, unsigned char, unsigned char, unsigned long, unsigned long, unsigned char*, unsigned long, bool)>
    1b72:	b006      	add	sp, #24
    1b74:	bd10      	pop	{r4, pc}
    1b76:	bf00      	nop

00001b78 <USBHost::usb_process()>:
    1b78:	e92d 4ff0 	stmdb	sp!, {r4, r5, r6, r7, r8, r9, r10, r11, lr}
    1b7c:	f500 5209 	add.w	r2, r0, #8768	; 0x2240
    1b80:	b095      	sub	sp, #84	; 0x54
    1b82:	9206      	str	r2, [sp, #24]
    1b84:	f500 5302 	add.w	r3, r0, #8320	; 0x2080
    1b88:	930c      	str	r3, [sp, #48]	; 0x30
    1b8a:	9b06      	ldr	r3, [sp, #24]
    1b8c:	f500 52d8 	add.w	r2, r0, #6912	; 0x1b00
    1b90:	9208      	str	r2, [sp, #32]
    1b92:	330c      	adds	r3, #12
    1b94:	9306      	str	r3, [sp, #24]
    1b96:	9b08      	ldr	r3, [sp, #32]
    1b98:	f500 52d9 	add.w	r2, r0, #6944	; 0x1b20
    1b9c:	9207      	str	r2, [sp, #28]
    1b9e:	3308      	adds	r3, #8
    1ba0:	3204      	adds	r2, #4
    1ba2:	920b      	str	r2, [sp, #44]	; 0x2c
    1ba4:	9308      	str	r3, [sp, #32]
    1ba6:	9a0c      	ldr	r2, [sp, #48]	; 0x30
    1ba8:	9b07      	ldr	r3, [sp, #28]
    1baa:	f500 5805 	add.w	r8, r0, #8512	; 0x2140
    1bae:	3208      	adds	r2, #8
    1bb0:	3308      	adds	r3, #8
    1bb2:	4605      	mov	r5, r0
    1bb4:	f108 0810 	add.w	r8, r8, #16
    1bb8:	920c      	str	r2, [sp, #48]	; 0x30
    1bba:	9307      	str	r3, [sp, #28]
    1bbc:	a811      	add	r0, sp, #68	; 0x44
    1bbe:	f8d8 1000 	ldr.w	r1, [r8]
    1bc2:	f04f 32ff 	mov.w	r2, #4294967295	; 0xffffffff
    1bc6:	f004 f913 	bl	5df0 <osMailGet>
    1bca:	9b11      	ldr	r3, [sp, #68]	; 0x44
    1bcc:	2b20      	cmp	r3, #32
    1bce:	d1f5      	bne.n	1bbc <USBHost::usb_process()+0x44>
    1bd0:	9f12      	ldr	r7, [sp, #72]	; 0x48
    1bd2:	783c      	ldrb	r4, [r7, #0]
    1bd4:	2c02      	cmp	r4, #2
    1bd6:	d009      	beq.n	1bec <USBHost::usb_process()+0x74>
    1bd8:	2c04      	cmp	r4, #4
    1bda:	d070      	beq.n	1cbe <USBHost::usb_process()+0x146>
    1bdc:	2c01      	cmp	r4, #1
    1bde:	d052      	beq.n	1c86 <USBHost::usb_process()+0x10e>
    1be0:	4639      	mov	r1, r7
    1be2:	f8d8 0000 	ldr.w	r0, [r8]
    1be6:	f004 f8e9 	bl	5dbc <osMailFree>
    1bea:	e7e7      	b.n	1bbc <USBHost::usb_process()+0x44>
    1bec:	f04f 31ff 	mov.w	r1, #4294967295	; 0xffffffff
    1bf0:	9806      	ldr	r0, [sp, #24]
    1bf2:	f004 ff17 	bl	6a24 <rtos::Mutex::lock(unsigned long)>
    1bf6:	2100      	movs	r1, #0
    1bf8:	4628      	mov	r0, r5
    1bfa:	f000 fe6b 	bl	28d4 <USBHALHost::disableList(ENDPOINT_TYPE)>
    1bfe:	4621      	mov	r1, r4
    1c00:	4606      	mov	r6, r0
    1c02:	4628      	mov	r0, r5
    1c04:	f000 fe66 	bl	28d4 <USBHALHost::disableList(ENDPOINT_TYPE)>
    1c08:	2103      	movs	r1, #3
    1c0a:	4604      	mov	r4, r0
    1c0c:	4628      	mov	r0, r5
    1c0e:	f000 fe61 	bl	28d4 <USBHALHost::disableList(ENDPOINT_TYPE)>
    1c12:	f897 e008 	ldrb.w	lr, [r7, #8]
    1c16:	4681      	mov	r9, r0
    1c18:	f897 c009 	ldrb.w	r12, [r7, #9]
    1c1c:	68f8      	ldr	r0, [r7, #12]
    1c1e:	9907      	ldr	r1, [sp, #28]
    1c20:	2305      	movs	r3, #5
    1c22:	f891 20fc 	ldrb.w	r2, [r1, #252]	; 0xfc
    1c26:	4572      	cmp	r2, lr
    1c28:	d01f      	beq.n	1c6a <USBHost::usb_process()+0xf2>
    1c2a:	3b01      	subs	r3, #1
    1c2c:	f501 7186 	add.w	r1, r1, #268	; 0x10c
    1c30:	d1f7      	bne.n	1c22 <USBHost::usb_process()+0xaa>
    1c32:	b99e      	cbnz	r6, 1c5c <USBHost::usb_process()+0xe4>
    1c34:	b934      	cbnz	r4, 1c44 <USBHost::usb_process()+0xcc>
    1c36:	f1b9 0f00 	cmp.w	r9, #0
    1c3a:	d10a      	bne.n	1c52 <USBHost::usb_process()+0xda>
    1c3c:	9806      	ldr	r0, [sp, #24]
    1c3e:	f004 fef5 	bl	6a2c <rtos::Mutex::unlock()>
    1c42:	e7cd      	b.n	1be0 <USBHost::usb_process()+0x68>
    1c44:	4628      	mov	r0, r5
    1c46:	2102      	movs	r1, #2
    1c48:	f000 fe26 	bl	2898 <USBHALHost::enableList(ENDPOINT_TYPE)>
    1c4c:	f1b9 0f00 	cmp.w	r9, #0
    1c50:	d0f4      	beq.n	1c3c <USBHost::usb_process()+0xc4>
    1c52:	4628      	mov	r0, r5
    1c54:	2103      	movs	r1, #3
    1c56:	f000 fe1f 	bl	2898 <USBHALHost::enableList(ENDPOINT_TYPE)>
    1c5a:	e7ef      	b.n	1c3c <USBHost::usb_process()+0xc4>
    1c5c:	4628      	mov	r0, r5
    1c5e:	2100      	movs	r1, #0
    1c60:	f000 fe1a 	bl	2898 <USBHALHost::enableList(ENDPOINT_TYPE)>
    1c64:	2c00      	cmp	r4, #0
    1c66:	d0e6      	beq.n	1c36 <USBHost::usb_process()+0xbe>
    1c68:	e7ec      	b.n	1c44 <USBHost::usb_process()+0xcc>
    1c6a:	f891 20fd 	ldrb.w	r2, [r1, #253]	; 0xfd
    1c6e:	4562      	cmp	r2, r12
    1c70:	d1db      	bne.n	1c2a <USBHost::usb_process()+0xb2>
    1c72:	b110      	cbz	r0, 1c7a <USBHost::usb_process()+0x102>
    1c74:	684a      	ldr	r2, [r1, #4]
    1c76:	4290      	cmp	r0, r2
    1c78:	d1d7      	bne.n	1c2a <USBHost::usb_process()+0xb2>
    1c7a:	4628      	mov	r0, r5
    1c7c:	f7ff fa94 	bl	11a8 <USBHost::freeDevice(USBDeviceConnected*)>
    1c80:	2e00      	cmp	r6, #0
    1c82:	d0d7      	beq.n	1c34 <USBHost::usb_process()+0xbc>
    1c84:	e7ea      	b.n	1c5c <USBHost::usb_process()+0xe4>
    1c86:	f04f 0900 	mov.w	r9, #0
    1c8a:	9806      	ldr	r0, [sp, #24]
    1c8c:	f04f 31ff 	mov.w	r1, #4294967295	; 0xffffffff
    1c90:	f88d 9040 	strb.w	r9, [sp, #64]	; 0x40
    1c94:	f004 fec6 	bl	6a24 <rtos::Mutex::lock(unsigned long)>
    1c98:	eb05 0b09 	add.w	r11, r5, r9
    1c9c:	f50b 5301 	add.w	r3, r11, #8256	; 0x2040
    1ca0:	f893 6024 	ldrb.w	r6, [r3, #36]	; 0x24
    1ca4:	2e00      	cmp	r6, #0
    1ca6:	d042      	beq.n	1d2e <USBHost::usb_process()+0x1b6>
    1ca8:	f109 0901 	add.w	r9, r9, #1
    1cac:	f1b9 0f05 	cmp.w	r9, #5
    1cb0:	d1f2      	bne.n	1c98 <USBHost::usb_process()+0x120>
    1cb2:	4995      	ldr	r1, [pc, #596]	; (1f08 <USBHost::usb_process()+0x390>)
    1cb4:	2261      	movs	r2, #97	; 0x61
    1cb6:	4895      	ldr	r0, [pc, #596]	; (1f0c <USBHost::usb_process()+0x394>)
    1cb8:	f007 fab6 	bl	9228 <iprintf>
    1cbc:	e7be      	b.n	1c3c <USBHost::usb_process()+0xc4>
    1cbe:	7afb      	ldrb	r3, [r7, #11]
    1cc0:	f8d7 9004 	ldr.w	r9, [r7, #4]
    1cc4:	2b10      	cmp	r3, #16
    1cc6:	f8d9 6010 	ldr.w	r6, [r9, #16]
    1cca:	f000 80ff 	beq.w	1ecc <USBHost::usb_process()+0x354>
    1cce:	9a07      	ldr	r2, [sp, #28]
    1cd0:	6834      	ldr	r4, [r6, #0]
    1cd2:	2100      	movs	r1, #0
    1cd4:	4294      	cmp	r4, r2
    1cd6:	f502 7286 	add.w	r2, r2, #268	; 0x10c
    1cda:	d007      	beq.n	1cec <USBHost::usb_process()+0x174>
    1cdc:	3101      	adds	r1, #1
    1cde:	2905      	cmp	r1, #5
    1ce0:	f43f af7e 	beq.w	1be0 <USBHost::usb_process()+0x68>
    1ce4:	4294      	cmp	r4, r2
    1ce6:	f502 7286 	add.w	r2, r2, #268	; 0x10c
    1cea:	d1f7      	bne.n	1cdc <USBHost::usb_process()+0x164>
    1cec:	186b      	adds	r3, r5, r1
    1cee:	f503 5301 	add.w	r3, r3, #8256	; 0x2040
    1cf2:	3320      	adds	r3, #32
    1cf4:	791b      	ldrb	r3, [r3, #4]
    1cf6:	2b00      	cmp	r3, #0
    1cf8:	f43f af72 	beq.w	1be0 <USBHost::usb_process()+0x68>
    1cfc:	4630      	mov	r0, r6
    1cfe:	f000 fcb3 	bl	2668 <USBEndpoint::getStateString()>
    1d02:	6832      	ldr	r2, [r6, #0]
    1d04:	9000      	str	r0, [sp, #0]
    1d06:	9202      	str	r2, [sp, #8]
    1d08:	9601      	str	r6, [sp, #4]
    1d0a:	f896 106c 	ldrb.w	r1, [r6, #108]	; 0x6c
    1d0e:	464b      	mov	r3, r9
    1d10:	ebc1 1101 	rsb	r1, r1, r1, lsl #4
    1d14:	eb02 0281 	add.w	r2, r2, r1, lsl #2
    1d18:	3238      	adds	r2, #56	; 0x38
    1d1a:	9203      	str	r2, [sp, #12]
    1d1c:	487c      	ldr	r0, [pc, #496]	; (1f10 <USBHost::usb_process()+0x398>)
    1d1e:	497a      	ldr	r1, [pc, #488]	; (1f08 <USBHost::usb_process()+0x390>)
    1d20:	22ed      	movs	r2, #237	; 0xed
    1d22:	f007 fa81 	bl	9228 <iprintf>
    1d26:	2310      	movs	r3, #16
    1d28:	f886 3025 	strb.w	r3, [r6, #37]	; 0x25
    1d2c:	e758      	b.n	1be0 <USBHost::usb_process()+0x68>
    1d2e:	f44f 7486 	mov.w	r4, #268	; 0x10c
    1d32:	fb04 5409 	mla	r4, r4, r9, r5
    1d36:	7abb      	ldrb	r3, [r7, #10]
    1d38:	f504 54d9 	add.w	r4, r4, #6944	; 0x1b20
    1d3c:	3300      	adds	r3, #0
    1d3e:	f104 0408 	add.w	r4, r4, #8
    1d42:	bf18      	it	ne
    1d44:	2301      	movne	r3, #1
    1d46:	7a7a      	ldrb	r2, [r7, #9]
    1d48:	4620      	mov	r0, r4
    1d4a:	7a39      	ldrb	r1, [r7, #8]
    1d4c:	f7fe ff92 	bl	c74 <USBDeviceConnected::init(unsigned char, unsigned char, bool)>
    1d50:	9a0b      	ldr	r2, [sp, #44]	; 0x2c
    1d52:	f50b 5301 	add.w	r3, r11, #8256	; 0x2040
    1d56:	f892 a000 	ldrb.w	r10, [r2]
    1d5a:	f04f 0c01 	mov.w	r12, #1
    1d5e:	f50b 5202 	add.w	r2, r11, #8320	; 0x2080
    1d62:	f883 603d 	strb.w	r6, [r3, #61]	; 0x3d
    1d66:	f882 c002 	strb.w	r12, [r2, #2]
    1d6a:	f1ba 0f00 	cmp.w	r10, #0
    1d6e:	d116      	bne.n	1d9e <USBHost::usb_process()+0x226>
    1d70:	4662      	mov	r2, r12
    1d72:	4651      	mov	r1, r10
    1d74:	2308      	movs	r3, #8
    1d76:	f8cd a000 	str.w	r10, [sp]
    1d7a:	4628      	mov	r0, r5
    1d7c:	f8cd c014 	str.w	r12, [sp, #20]
    1d80:	f7ff fad4 	bl	132c <USBHost::newEndpoint(ENDPOINT_TYPE, ENDPOINT_DIRECTION, unsigned long, unsigned char)>
    1d84:	9b08      	ldr	r3, [sp, #32]
    1d86:	4651      	mov	r1, r10
    1d88:	6018      	str	r0, [r3, #0]
    1d8a:	681b      	ldr	r3, [r3, #0]
    1d8c:	4652      	mov	r2, r10
    1d8e:	4628      	mov	r0, r5
    1d90:	f7ff fb42 	bl	1418 <USBHost::addEndpoint(USBDeviceConnected*, unsigned char, USBEndpoint*)>
    1d94:	f8dd c014 	ldr.w	r12, [sp, #20]
    1d98:	9b0b      	ldr	r3, [sp, #44]	; 0x2c
    1d9a:	f883 c000 	strb.w	r12, [r3]
    1d9e:	68fb      	ldr	r3, [r7, #12]
    1da0:	b103      	cbz	r3, 1da4 <USBHost::usb_process()+0x22c>
    1da2:	6063      	str	r3, [r4, #4]
    1da4:	f04f 0a0a 	mov.w	r10, #10
    1da8:	e008      	b.n	1dbc <USBHost::usb_process()+0x244>
    1daa:	485a      	ldr	r0, [pc, #360]	; (1f14 <USBHost::usb_process()+0x39c>)
    1dac:	4956      	ldr	r1, [pc, #344]	; (1f08 <USBHost::usb_process()+0x390>)
    1dae:	f007 fa3b 	bl	9228 <iprintf>
    1db2:	f10a 3aff 	add.w	r10, r10, #4294967295	; 0xffffffff
    1db6:	f01a 0aff 	ands.w	r10, r10, #255	; 0xff
    1dba:	d031      	beq.n	1e20 <USBHost::usb_process()+0x2a8>
    1dbc:	4621      	mov	r1, r4
    1dbe:	4628      	mov	r0, r5
    1dc0:	f7ff fafc 	bl	13bc <USBHost::resetDevice(USBDeviceConnected*)>
    1dc4:	2608      	movs	r6, #8
    1dc6:	2200      	movs	r2, #0
    1dc8:	f884 2107 	strb.w	r2, [r4, #263]	; 0x107
    1dcc:	f8c4 60f8 	str.w	r6, [r4, #248]	; 0xf8
    1dd0:	4621      	mov	r1, r4
    1dd2:	9200      	str	r2, [sp, #0]
    1dd4:	4633      	mov	r3, r6
    1dd6:	aa0f      	add	r2, sp, #60	; 0x3c
    1dd8:	4628      	mov	r0, r5
    1dda:	f7ff fe4f 	bl	1a7c <USBHost::getDeviceDescriptor(USBDeviceConnected*, unsigned char*, unsigned short, unsigned short*)>
    1dde:	4621      	mov	r1, r4
    1de0:	227f      	movs	r2, #127	; 0x7f
    1de2:	2800      	cmp	r0, #0
    1de4:	d1e1      	bne.n	1daa <USBHost::usb_process()+0x232>
    1de6:	f89d 3043 	ldrb.w	r3, [sp, #67]	; 0x43
    1dea:	f894 2102 	ldrb.w	r2, [r4, #258]	; 0x102
    1dee:	f8c4 30f8 	str.w	r3, [r4, #248]	; 0xf8
    1df2:	4628      	mov	r0, r5
    1df4:	f7ff feb0 	bl	1b58 <USBHost::setAddress(USBDeviceConnected*, unsigned char)>
    1df8:	4686      	mov	lr, r0
    1dfa:	f04f 0c01 	mov.w	r12, #1
    1dfe:	4621      	mov	r1, r4
    1e00:	aa0f      	add	r2, sp, #60	; 0x3c
    1e02:	4633      	mov	r3, r6
    1e04:	4628      	mov	r0, r5
    1e06:	f1be 0f00 	cmp.w	lr, #0
    1e0a:	d026      	beq.n	1e5a <USBHost::usb_process()+0x2e2>
    1e0c:	4842      	ldr	r0, [pc, #264]	; (1f18 <USBHost::usb_process()+0x3a0>)
    1e0e:	493e      	ldr	r1, [pc, #248]	; (1f08 <USBHost::usb_process()+0x390>)
    1e10:	228a      	movs	r2, #138	; 0x8a
    1e12:	f10a 3aff 	add.w	r10, r10, #4294967295	; 0xffffffff
    1e16:	f007 fa07 	bl	9228 <iprintf>
    1e1a:	f01a 0aff 	ands.w	r10, r10, #255	; 0xff
    1e1e:	d1cd      	bne.n	1dbc <USBHost::usb_process()+0x244>
    1e20:	7a3b      	ldrb	r3, [r7, #8]
    1e22:	483e      	ldr	r0, [pc, #248]	; (1f1c <USBHost::usb_process()+0x3a4>)
    1e24:	9300      	str	r3, [sp, #0]
    1e26:	7a7b      	ldrb	r3, [r7, #9]
    1e28:	4937      	ldr	r1, [pc, #220]	; (1f08 <USBHost::usb_process()+0x390>)
    1e2a:	9301      	str	r3, [sp, #4]
    1e2c:	229b      	movs	r2, #155	; 0x9b
    1e2e:	4623      	mov	r3, r4
    1e30:	f007 f9fa 	bl	9228 <iprintf>
    1e34:	f89d 3040 	ldrb.w	r3, [sp, #64]	; 0x40
    1e38:	2b09      	cmp	r3, #9
    1e3a:	d01a      	beq.n	1e72 <USBHost::usb_process()+0x2fa>
    1e3c:	2600      	movs	r6, #0
    1e3e:	68f8      	ldr	r0, [r7, #12]
    1e40:	b110      	cbz	r0, 1e48 <USBHost::usb_process()+0x2d0>
    1e42:	4621      	mov	r1, r4
    1e44:	f000 f9a2 	bl	218c <USBHostHub::deviceConnected(USBDeviceConnected*)>
    1e48:	2e00      	cmp	r6, #0
    1e4a:	f47f aef7 	bne.w	1c3c <USBHost::usb_process()+0xc4>
    1e4e:	f50b 5b01 	add.w	r11, r11, #8256	; 0x2040
    1e52:	2301      	movs	r3, #1
    1e54:	f88b 3024 	strb.w	r3, [r11, #36]	; 0x24
    1e58:	e6f0      	b.n	1c3c <USBHost::usb_process()+0xc4>
    1e5a:	f884 c107 	strb.w	r12, [r4, #263]	; 0x107
    1e5e:	f8cd e000 	str.w	lr, [sp]
    1e62:	f7ff fe0b 	bl	1a7c <USBHost::getDeviceDescriptor(USBDeviceConnected*, unsigned char*, unsigned short, unsigned short*)>
    1e66:	2800      	cmp	r0, #0
    1e68:	d0da      	beq.n	1e20 <USBHost::usb_process()+0x2a8>
    1e6a:	2064      	movs	r0, #100	; 0x64
    1e6c:	f004 fe2a 	bl	6ac4 <rtos::Thread::wait(unsigned long)>
    1e70:	e79f      	b.n	1db2 <USBHost::usb_process()+0x23a>
    1e72:	2300      	movs	r3, #0
    1e74:	f8dd a030 	ldr.w	r10, [sp, #48]	; 0x30
    1e78:	9709      	str	r7, [sp, #36]	; 0x24
    1e7a:	f8cd 9034 	str.w	r9, [sp, #52]	; 0x34
    1e7e:	461f      	mov	r7, r3
    1e80:	f8cd 8028 	str.w	r8, [sp, #40]	; 0x28
    1e84:	eb05 0907 	add.w	r9, r5, r7
    1e88:	f509 5603 	add.w	r6, r9, #8384	; 0x20c0
    1e8c:	3638      	adds	r6, #56	; 0x38
    1e8e:	7832      	ldrb	r2, [r6, #0]
    1e90:	b96a      	cbnz	r2, 1eae <USBHost::usb_process()+0x336>
    1e92:	f04f 0803 	mov.w	r8, #3
    1e96:	4650      	mov	r0, r10
    1e98:	4621      	mov	r1, r4
    1e9a:	f000 f9a7 	bl	21ec <USBHostHub::connect(USBDeviceConnected*)>
    1e9e:	f108 38ff 	add.w	r8, r8, #4294967295	; 0xffffffff
    1ea2:	b9c0      	cbnz	r0, 1ed6 <USBHost::usb_process()+0x35e>
    1ea4:	f018 08ff 	ands.w	r8, r8, #255	; 0xff
    1ea8:	d1f5      	bne.n	1e96 <USBHost::usb_process()+0x31e>
    1eaa:	7832      	ldrb	r2, [r6, #0]
    1eac:	bb42      	cbnz	r2, 1f00 <USBHost::usb_process()+0x388>
    1eae:	3701      	adds	r7, #1
    1eb0:	2f02      	cmp	r7, #2
    1eb2:	f10a 0a38 	add.w	r10, r10, #56	; 0x38
    1eb6:	d1e5      	bne.n	1e84 <USBHost::usb_process()+0x30c>
    1eb8:	4819      	ldr	r0, [pc, #100]	; (1f20 <USBHost::usb_process()+0x3a8>)
    1eba:	4913      	ldr	r1, [pc, #76]	; (1f08 <USBHost::usb_process()+0x390>)
    1ebc:	22ae      	movs	r2, #174	; 0xae
    1ebe:	9f09      	ldr	r7, [sp, #36]	; 0x24
    1ec0:	f8dd 8028 	ldr.w	r8, [sp, #40]	; 0x28
    1ec4:	2601      	movs	r6, #1
    1ec6:	f007 f9af 	bl	9228 <iprintf>
    1eca:	e7b8      	b.n	1e3e <USBHost::usb_process()+0x2c6>
    1ecc:	f106 0038 	add.w	r0, r6, #56	; 0x38
    1ed0:	f005 f860 	bl	6f94 <mbed::FunctionPointer::call()>
    1ed4:	e684      	b.n	1be0 <USBHost::usb_process()+0x68>
    1ed6:	4649      	mov	r1, r9
    1ed8:	f8dd 9034 	ldr.w	r9, [sp, #52]	; 0x34
    1edc:	f44f 7386 	mov.w	r3, #268	; 0x10c
    1ee0:	fb03 5309 	mla	r3, r3, r9, r5
    1ee4:	f501 5103 	add.w	r1, r1, #8384	; 0x20c0
    1ee8:	f503 53d9 	add.w	r3, r3, #6944	; 0x1b20
    1eec:	2201      	movs	r2, #1
    1eee:	f8c3 a008 	str.w	r10, [r3, #8]
    1ef2:	9f09      	ldr	r7, [sp, #36]	; 0x24
    1ef4:	f8dd 8028 	ldr.w	r8, [sp, #40]	; 0x28
    1ef8:	2600      	movs	r6, #0
    1efa:	f881 2038 	strb.w	r2, [r1, #56]	; 0x38
    1efe:	e79e      	b.n	1e3e <USBHost::usb_process()+0x2c6>
    1f00:	9f09      	ldr	r7, [sp, #36]	; 0x24
    1f02:	f8dd 8028 	ldr.w	r8, [sp, #40]	; 0x28
    1f06:	e799      	b.n	1e3c <USBHost::usb_process()+0x2c4>
    1f08:	0000b234 	.word	0x0000b234
    1f0c:	0000b524 	.word	0x0000b524
    1f10:	0000b4cc 	.word	0x0000b4cc
    1f14:	0000b42c 	.word	0x0000b42c
    1f18:	0000b464 	.word	0x0000b464
    1f1c:	0000b488 	.word	0x0000b488
    1f20:	0000b554 	.word	0x0000b554

00001f24 <USBHost::usb_process_static(void const*)>:
    1f24:	b508      	push	{r3, lr}
    1f26:	f7ff fe27 	bl	1b78 <USBHost::usb_process()>
    1f2a:	bf00      	nop

00001f2c <USBHost::setConfiguration(USBDeviceConnected*, unsigned char)>:
    1f2c:	b510      	push	{r4, lr}
    1f2e:	2300      	movs	r3, #0
    1f30:	b086      	sub	sp, #24
    1f32:	2401      	movs	r4, #1
    1f34:	e88d 000c 	stmia.w	sp, {r2, r3}
    1f38:	9302      	str	r3, [sp, #8]
    1f3a:	9303      	str	r3, [sp, #12]
    1f3c:	461a      	mov	r2, r3
    1f3e:	9404      	str	r4, [sp, #16]
    1f40:	2309      	movs	r3, #9
    1f42:	f7ff fcc5 	bl	18d0 <USBHost::controlTransfer(USBDeviceConnected*, unsigned char, unsigned char, unsigned long, unsigned long, unsigned char*, unsigned long, bool)>
    1f46:	b006      	add	sp, #24
    1f48:	bd10      	pop	{r4, pc}
    1f4a:	bf00      	nop

00001f4c <USBHost::enumerate(USBDeviceConnected*, IUSBEnumerator*)>:
    1f4c:	e92d 43f0 	stmdb	sp!, {r4, r5, r6, r7, r8, r9, lr}
    1f50:	f500 5809 	add.w	r8, r0, #8768	; 0x2240
    1f54:	f108 080c 	add.w	r8, r8, #12
    1f58:	b085      	sub	sp, #20
    1f5a:	4606      	mov	r6, r0
    1f5c:	2400      	movs	r4, #0
    1f5e:	460d      	mov	r5, r1
    1f60:	4640      	mov	r0, r8
    1f62:	f04f 31ff 	mov.w	r1, #4294967295	; 0xffffffff
    1f66:	4617      	mov	r7, r2
    1f68:	f8ad 400e 	strh.w	r4, [sp, #14]
    1f6c:	f004 fd5a 	bl	6a24 <rtos::Mutex::lock(unsigned long)>
    1f70:	f506 52d9 	add.w	r2, r6, #6944	; 0x1b20
    1f74:	4623      	mov	r3, r4
    1f76:	3208      	adds	r2, #8
    1f78:	f240 503c 	movw	r0, #1340	; 0x53c
    1f7c:	18d1      	adds	r1, r2, r3
    1f7e:	428d      	cmp	r5, r1
    1f80:	f503 7386 	add.w	r3, r3, #268	; 0x10c
    1f84:	d009      	beq.n	1f9a <USBHost::enumerate(USBDeviceConnected*, IUSBEnumerator*)+0x4e>
    1f86:	4283      	cmp	r3, r0
    1f88:	d1f8      	bne.n	1f7c <USBHost::enumerate(USBDeviceConnected*, IUSBEnumerator*)+0x30>
    1f8a:	2412      	movs	r4, #18
    1f8c:	4640      	mov	r0, r8
    1f8e:	f004 fd4d 	bl	6a2c <rtos::Mutex::unlock()>
    1f92:	4620      	mov	r0, r4
    1f94:	b005      	add	sp, #20
    1f96:	e8bd 83f0 	ldmia.w	sp!, {r4, r5, r6, r7, r8, r9, pc}
    1f9a:	4613      	mov	r3, r2
    1f9c:	2400      	movs	r4, #0
    1f9e:	429d      	cmp	r5, r3
    1fa0:	f503 7386 	add.w	r3, r3, #268	; 0x10c
    1fa4:	d011      	beq.n	1fca <USBHost::enumerate(USBDeviceConnected*, IUSBEnumerator*)+0x7e>
    1fa6:	3401      	adds	r4, #1
    1fa8:	2c05      	cmp	r4, #5
    1faa:	d1f8      	bne.n	1f9e <USBHost::enumerate(USBDeviceConnected*, IUSBEnumerator*)+0x52>
    1fac:	f506 5909 	add.w	r9, r6, #8768	; 0x2240
    1fb0:	2300      	movs	r3, #0
    1fb2:	f109 0934 	add.w	r9, r9, #52	; 0x34
    1fb6:	9300      	str	r3, [sp, #0]
    1fb8:	464a      	mov	r2, r9
    1fba:	4630      	mov	r0, r6
    1fbc:	4629      	mov	r1, r5
    1fbe:	2312      	movs	r3, #18
    1fc0:	f7ff fd5c 	bl	1a7c <USBHost::getDeviceDescriptor(USBDeviceConnected*, unsigned char*, unsigned short, unsigned short*)>
    1fc4:	b1d0      	cbz	r0, 1ffc <USBHost::enumerate(USBDeviceConnected*, IUSBEnumerator*)+0xb0>
    1fc6:	4604      	mov	r4, r0
    1fc8:	e7e0      	b.n	1f8c <USBHost::enumerate(USBDeviceConnected*, IUSBEnumerator*)+0x40>
    1fca:	f506 5201 	add.w	r2, r6, #8256	; 0x2040
    1fce:	f604 031a 	addw	r3, r4, #2074	; 0x81a
    1fd2:	322c      	adds	r2, #44	; 0x2c
    1fd4:	eb02 0484 	add.w	r4, r2, r4, lsl #2
    1fd8:	eb06 0383 	add.w	r3, r6, r3, lsl #2
    1fdc:	2100      	movs	r1, #0
    1fde:	f813 2f01 	ldrb.w	r2, [r3, #1]!
    1fe2:	1c48      	adds	r0, r1, #1
    1fe4:	b102      	cbz	r2, 1fe8 <USBHost::enumerate(USBDeviceConnected*, IUSBEnumerator*)+0x9c>
    1fe6:	b2c1      	uxtb	r1, r0
    1fe8:	42a3      	cmp	r3, r4
    1fea:	d1f8      	bne.n	1fde <USBHost::enumerate(USBDeviceConnected*, IUSBEnumerator*)+0x92>
    1fec:	2900      	cmp	r1, #0
    1fee:	d0dd      	beq.n	1fac <USBHost::enumerate(USBDeviceConnected*, IUSBEnumerator*)+0x60>
    1ff0:	f895 3109 	ldrb.w	r3, [r5, #265]	; 0x109
    1ff4:	428b      	cmp	r3, r1
    1ff6:	d1d9      	bne.n	1fac <USBHost::enumerate(USBDeviceConnected*, IUSBEnumerator*)+0x60>
    1ff8:	2400      	movs	r4, #0
    1ffa:	e7c7      	b.n	1f8c <USBHost::enumerate(USBDeviceConnected*, IUSBEnumerator*)+0x40>
    1ffc:	f242 2378 	movw	r3, #8824	; 0x2278
    2000:	5cf2      	ldrb	r2, [r6, r3]
    2002:	f242 2379 	movw	r3, #8825	; 0x2279
    2006:	f885 2103 	strb.w	r2, [r5, #259]	; 0x103
    200a:	5cf2      	ldrb	r2, [r6, r3]
    200c:	f242 237a 	movw	r3, #8826	; 0x227a
    2010:	f885 2104 	strb.w	r2, [r5, #260]	; 0x104
    2014:	5cf3      	ldrb	r3, [r6, r3]
    2016:	f242 217d 	movw	r1, #8829	; 0x227d
    201a:	f885 3105 	strb.w	r3, [r5, #261]	; 0x105
    201e:	f242 207c 	movw	r0, #8828	; 0x227c
    2022:	5c74      	ldrb	r4, [r6, r1]
    2024:	5c33      	ldrb	r3, [r6, r0]
    2026:	f242 227f 	movw	r2, #8831	; 0x227f
    202a:	ea43 2304 	orr.w	r3, r3, r4, lsl #8
    202e:	f8a5 30fe 	strh.w	r3, [r5, #254]	; 0xfe
    2032:	f242 237e 	movw	r3, #8830	; 0x227e
    2036:	f816 c002 	ldrb.w	r12, [r6, r2]
    203a:	f816 e003 	ldrb.w	lr, [r6, r3]
    203e:	683c      	ldr	r4, [r7, #0]
    2040:	ea4e 2e0c 	orr.w	lr, lr, r12, lsl #8
    2044:	f8a5 e100 	strh.w	lr, [r5, #256]	; 0x100
    2048:	f816 e001 	ldrb.w	lr, [r6, r1]
    204c:	5cf3      	ldrb	r3, [r6, r3]
    204e:	5c31      	ldrb	r1, [r6, r0]
    2050:	5cb2      	ldrb	r2, [r6, r2]
    2052:	ea41 210e 	orr.w	r1, r1, lr, lsl #8
    2056:	ea43 2202 	orr.w	r2, r3, r2, lsl #8
    205a:	4638      	mov	r0, r7
    205c:	6823      	ldr	r3, [r4, #0]
    205e:	4798      	blx	r3
    2060:	f10d 030e 	add.w	r3, sp, #14
    2064:	9300      	str	r3, [sp, #0]
    2066:	4630      	mov	r0, r6
    2068:	4629      	mov	r1, r5
    206a:	464a      	mov	r2, r9
    206c:	f240 139f 	movw	r3, #415	; 0x19f
    2070:	f7ff fd20 	bl	1ab4 <USBHost::getConfigurationDescriptor(USBDeviceConnected*, unsigned char*, unsigned short, unsigned short*)>
    2074:	2800      	cmp	r0, #0
    2076:	d1a6      	bne.n	1fc6 <USBHost::enumerate(USBDeviceConnected*, IUSBEnumerator*)+0x7a>
    2078:	f8bd 300e 	ldrh.w	r3, [sp, #14]
    207c:	9700      	str	r7, [sp, #0]
    207e:	464a      	mov	r2, r9
    2080:	4630      	mov	r0, r6
    2082:	4629      	mov	r1, r5
    2084:	f7ff faaa 	bl	15dc <USBHost::parseConfDescr(USBDeviceConnected*, unsigned char*, unsigned long, IUSBEnumerator*)>
    2088:	f895 3108 	ldrb.w	r3, [r5, #264]	; 0x108
    208c:	b933      	cbnz	r3, 209c <USBHost::enumerate(USBDeviceConnected*, IUSBEnumerator*)+0x150>
    208e:	4630      	mov	r0, r6
    2090:	4629      	mov	r1, r5
    2092:	2201      	movs	r2, #1
    2094:	f7ff ff4a 	bl	1f2c <USBHost::setConfiguration(USBDeviceConnected*, unsigned char)>
    2098:	2800      	cmp	r0, #0
    209a:	d194      	bne.n	1fc6 <USBHost::enumerate(USBDeviceConnected*, IUSBEnumerator*)+0x7a>
    209c:	2301      	movs	r3, #1
    209e:	f885 3108 	strb.w	r3, [r5, #264]	; 0x108
    20a2:	4640      	mov	r0, r8
    20a4:	f004 fcc2 	bl	6a2c <rtos::Mutex::unlock()>
    20a8:	2064      	movs	r0, #100	; 0x64
    20aa:	f004 fd0b 	bl	6ac4 <rtos::Thread::wait(unsigned long)>
    20ae:	2400      	movs	r4, #0
    20b0:	e76f      	b.n	1f92 <USBHost::enumerate(USBDeviceConnected*, IUSBEnumerator*)+0x46>
    20b2:	bf00      	nop

000020b4 <USBHostHub::disconnect()>:
    20b4:	2300      	movs	r3, #0
    20b6:	f04f 32ff 	mov.w	r2, #4294967295	; 0xffffffff
    20ba:	6202      	str	r2, [r0, #32]
    20bc:	7303      	strb	r3, [r0, #12]
    20be:	6083      	str	r3, [r0, #8]
    20c0:	6103      	str	r3, [r0, #16]
    20c2:	f880 3024 	strb.w	r3, [r0, #36]	; 0x24
    20c6:	7503      	strb	r3, [r0, #20]
    20c8:	7543      	strb	r3, [r0, #21]
    20ca:	6283      	str	r3, [r0, #40]	; 0x28
    20cc:	62c3      	str	r3, [r0, #44]	; 0x2c
    20ce:	6303      	str	r3, [r0, #48]	; 0x30
    20d0:	6343      	str	r3, [r0, #52]	; 0x34
    20d2:	4770      	bx	lr

000020d4 <USBHostHub::setVidPid(unsigned short, unsigned short)>:
    20d4:	4770      	bx	lr
    20d6:	bf00      	nop

000020d8 <USBHostHub::parseInterface(unsigned char, unsigned char, unsigned char, unsigned char)>:
    20d8:	b430      	push	{r4, r5}
    20da:	6a04      	ldr	r4, [r0, #32]
    20dc:	f89d 5008 	ldrb.w	r5, [sp, #8]
    20e0:	3401      	adds	r4, #1
    20e2:	d002      	beq.n	20ea <USBHostHub::parseInterface(unsigned char, unsigned char, unsigned char, unsigned char)+0x12>
    20e4:	2000      	movs	r0, #0
    20e6:	bc30      	pop	{r4, r5}
    20e8:	4770      	bx	lr
    20ea:	2a09      	cmp	r2, #9
    20ec:	d1fa      	bne.n	20e4 <USBHostHub::parseInterface(unsigned char, unsigned char, unsigned char, unsigned char)+0xc>
    20ee:	2b00      	cmp	r3, #0
    20f0:	d1f8      	bne.n	20e4 <USBHostHub::parseInterface(unsigned char, unsigned char, unsigned char, unsigned char)+0xc>
    20f2:	b915      	cbnz	r5, 20fa <USBHostHub::parseInterface(unsigned char, unsigned char, unsigned char, unsigned char)+0x22>
    20f4:	6201      	str	r1, [r0, #32]
    20f6:	2001      	movs	r0, #1
    20f8:	e7f5      	b.n	20e6 <USBHostHub::parseInterface(unsigned char, unsigned char, unsigned char, unsigned char)+0xe>
    20fa:	4618      	mov	r0, r3
    20fc:	e7f3      	b.n	20e6 <USBHostHub::parseInterface(unsigned char, unsigned char, unsigned char, unsigned char)+0xe>
    20fe:	bf00      	nop

00002100 <USBHostHub::useEndpoint(unsigned char, ENDPOINT_TYPE, ENDPOINT_DIRECTION)>:
    2100:	b410      	push	{r4}
    2102:	6a04      	ldr	r4, [r0, #32]
    2104:	42a1      	cmp	r1, r4
    2106:	d003      	beq.n	2110 <USBHostHub::useEndpoint(unsigned char, ENDPOINT_TYPE, ENDPOINT_DIRECTION)+0x10>
    2108:	2000      	movs	r0, #0
    210a:	f85d 4b04 	ldr.w	r4, [sp], #4
    210e:	4770      	bx	lr
    2110:	2a03      	cmp	r2, #3
    2112:	d1f9      	bne.n	2108 <USBHostHub::useEndpoint(unsigned char, ENDPOINT_TYPE, ENDPOINT_DIRECTION)+0x8>
    2114:	2b02      	cmp	r3, #2
    2116:	d1f7      	bne.n	2108 <USBHostHub::useEndpoint(unsigned char, ENDPOINT_TYPE, ENDPOINT_DIRECTION)+0x8>
    2118:	2301      	movs	r3, #1
    211a:	f880 3024 	strb.w	r3, [r0, #36]	; 0x24
    211e:	4618      	mov	r0, r3
    2120:	e7f3      	b.n	210a <USBHostHub::useEndpoint(unsigned char, ENDPOINT_TYPE, ENDPOINT_DIRECTION)+0xa>
    2122:	bf00      	nop

00002124 <void mbed::FunctionPointer::membercaller<USBHostHub>(void*, char*)>:
    2124:	b510      	push	{r4, lr}
    2126:	460b      	mov	r3, r1
    2128:	b082      	sub	sp, #8
    212a:	6849      	ldr	r1, [r1, #4]
    212c:	4602      	mov	r2, r0
    212e:	6818      	ldr	r0, [r3, #0]
    2130:	466b      	mov	r3, sp
    2132:	c303      	stmia	r3!, {r0, r1}
    2134:	460b      	mov	r3, r1
    2136:	07d9      	lsls	r1, r3, #31
    2138:	d507      	bpl.n	214a <void mbed::FunctionPointer::membercaller<USBHostHub>(void*, char*)+0x26>
    213a:	105b      	asrs	r3, r3, #1
    213c:	58d4      	ldr	r4, [r2, r3]
    213e:	9900      	ldr	r1, [sp, #0]
    2140:	18d0      	adds	r0, r2, r3
    2142:	5861      	ldr	r1, [r4, r1]
    2144:	4788      	blx	r1
    2146:	b002      	add	sp, #8
    2148:	bd10      	pop	{r4, pc}
    214a:	eb02 0063 	add.w	r0, r2, r3, asr #1
    214e:	9900      	ldr	r1, [sp, #0]
    2150:	4788      	blx	r1
    2152:	b002      	add	sp, #8
    2154:	bd10      	pop	{r4, pc}
    2156:	bf00      	nop

00002158 <USBHostHub::USBHostHub()>:
    2158:	b410      	push	{r4}
    215a:	4c0a      	ldr	r4, [pc, #40]	; (2184 <USBHostHub::USBHostHub()+0x2c>)
    215c:	2200      	movs	r2, #0
    215e:	f04f 31ff 	mov.w	r1, #4294967295	; 0xffffffff
    2162:	6004      	str	r4, [r0, #0]
    2164:	6201      	str	r1, [r0, #32]
    2166:	6042      	str	r2, [r0, #4]
    2168:	7302      	strb	r2, [r0, #12]
    216a:	6082      	str	r2, [r0, #8]
    216c:	6102      	str	r2, [r0, #16]
    216e:	f880 2024 	strb.w	r2, [r0, #36]	; 0x24
    2172:	7502      	strb	r2, [r0, #20]
    2174:	7542      	strb	r2, [r0, #21]
    2176:	6282      	str	r2, [r0, #40]	; 0x28
    2178:	62c2      	str	r2, [r0, #44]	; 0x2c
    217a:	6302      	str	r2, [r0, #48]	; 0x30
    217c:	6342      	str	r2, [r0, #52]	; 0x34
    217e:	f85d 4b04 	ldr.w	r4, [sp], #4
    2182:	4770      	bx	lr
    2184:	0000b590 	.word	0x0000b590

00002188 <USBHostHub::setHost(USBHost*)>:
    2188:	6041      	str	r1, [r0, #4]
    218a:	4770      	bx	lr

0000218c <USBHostHub::deviceConnected(USBDeviceConnected*)>:
    218c:	f891 30fd 	ldrb.w	r3, [r1, #253]	; 0xfd
    2190:	3309      	adds	r3, #9
    2192:	f840 1023 	str.w	r1, [r0, r3, lsl #2]
    2196:	4770      	bx	lr

00002198 <USBHostHub::deviceDisconnected(USBDeviceConnected*)>:
    2198:	f891 30fd 	ldrb.w	r3, [r1, #253]	; 0xfd
    219c:	2200      	movs	r2, #0
    219e:	3309      	adds	r3, #9
    21a0:	f840 2023 	str.w	r2, [r0, r3, lsl #2]
    21a4:	4770      	bx	lr
    21a6:	bf00      	nop

000021a8 <USBHostHub::hubDisconnected()>:
    21a8:	b570      	push	{r4, r5, r6, lr}
    21aa:	4605      	mov	r5, r0
    21ac:	4604      	mov	r4, r0
    21ae:	f100 0610 	add.w	r6, r0, #16
    21b2:	6aa3      	ldr	r3, [r4, #40]	; 0x28
    21b4:	3404      	adds	r4, #4
    21b6:	4619      	mov	r1, r3
    21b8:	b113      	cbz	r3, 21c0 <USBHostHub::hubDisconnected()+0x18>
    21ba:	6868      	ldr	r0, [r5, #4]
    21bc:	f7fe fff4 	bl	11a8 <USBHost::freeDevice(USBDeviceConnected*)>
    21c0:	42b4      	cmp	r4, r6
    21c2:	d1f6      	bne.n	21b2 <USBHostHub::hubDisconnected()+0xa>
    21c4:	bd70      	pop	{r4, r5, r6, pc}
    21c6:	bf00      	nop

000021c8 <USBHostHub::setPortFeature(unsigned long, unsigned char)>:
    21c8:	b510      	push	{r4, lr}
    21ca:	4603      	mov	r3, r0
    21cc:	689c      	ldr	r4, [r3, #8]
    21ce:	b084      	sub	sp, #16
    21d0:	2300      	movs	r3, #0
    21d2:	6840      	ldr	r0, [r0, #4]
    21d4:	e88d 0006 	stmia.w	sp, {r1, r2}
    21d8:	9302      	str	r3, [sp, #8]
    21da:	9303      	str	r3, [sp, #12]
    21dc:	4621      	mov	r1, r4
    21de:	2223      	movs	r2, #35	; 0x23
    21e0:	2303      	movs	r3, #3
    21e2:	f7ff fca9 	bl	1b38 <USBHost::controlWrite(USBDeviceConnected*, unsigned char, unsigned char, unsigned long, unsigned long, unsigned char*, unsigned long)>
    21e6:	b004      	add	sp, #16
    21e8:	bd10      	pop	{r4, pc}
    21ea:	bf00      	nop

000021ec <USBHostHub::connect(USBDeviceConnected*)>:
    21ec:	e92d 43f0 	stmdb	sp!, {r4, r5, r6, r7, r8, r9, lr}
    21f0:	7b05      	ldrb	r5, [r0, #12]
    21f2:	b089      	sub	sp, #36	; 0x24
    21f4:	4604      	mov	r4, r0
    21f6:	460e      	mov	r6, r1
    21f8:	b11d      	cbz	r5, 2202 <USBHostHub::connect(USBDeviceConnected*)+0x16>
    21fa:	4628      	mov	r0, r5
    21fc:	b009      	add	sp, #36	; 0x24
    21fe:	e8bd 83f0 	ldmia.w	sp!, {r4, r5, r6, r7, r8, r9, pc}
    2202:	6840      	ldr	r0, [r0, #4]
    2204:	4622      	mov	r2, r4
    2206:	f7ff fea1 	bl	1f4c <USBHost::enumerate(USBDeviceConnected*, IUSBEnumerator*)>
    220a:	4607      	mov	r7, r0
    220c:	2800      	cmp	r0, #0
    220e:	f040 808a 	bne.w	2326 <USBHostHub::connect(USBDeviceConnected*)+0x13a>
    2212:	f894 8024 	ldrb.w	r8, [r4, #36]	; 0x24
    2216:	f1b8 0f00 	cmp.w	r8, #0
    221a:	d0ee      	beq.n	21fa <USBHostHub::connect(USBDeviceConnected*)+0xe>
    221c:	f894 1020 	ldrb.w	r1, [r4, #32]
    2220:	60a6      	str	r6, [r4, #8]
    2222:	4630      	mov	r0, r6
    2224:	9500      	str	r5, [sp, #0]
    2226:	2203      	movs	r2, #3
    2228:	2302      	movs	r3, #2
    222a:	f7fe fd47 	bl	cbc <USBDeviceConnected::getEndpoint(unsigned char, ENDPOINT_TYPE, ENDPOINT_DIRECTION, unsigned char)>
    222e:	6120      	str	r0, [r4, #16]
    2230:	2800      	cmp	r0, #0
    2232:	d078      	beq.n	2326 <USBHostHub::connect(USBDeviceConnected*)+0x13a>
    2234:	f8b6 1100 	ldrh.w	r1, [r6, #256]	; 0x100
    2238:	6a22      	ldr	r2, [r4, #32]
    223a:	f8b6 30fe 	ldrh.w	r3, [r6, #254]	; 0xfe
    223e:	4845      	ldr	r0, [pc, #276]	; (2354 <USBHostHub::connect(USBDeviceConnected*)+0x168>)
    2240:	e88d 0042 	stmia.w	sp, {r1, r6}
    2244:	9202      	str	r2, [sp, #8]
    2246:	4944      	ldr	r1, [pc, #272]	; (2358 <USBHostHub::connect(USBDeviceConnected*)+0x16c>)
    2248:	2267      	movs	r2, #103	; 0x67
    224a:	f006 ffed 	bl	9228 <iprintf>
    224e:	f894 3020 	ldrb.w	r3, [r4, #32]
    2252:	4a42      	ldr	r2, [pc, #264]	; (235c <USBHostHub::connect(USBDeviceConnected*)+0x170>)
    2254:	ebc3 1303 	rsb	r3, r3, r3, lsl #4
    2258:	6810      	ldr	r0, [r2, #0]
    225a:	eb06 0383 	add.w	r3, r6, r3, lsl #2
    225e:	6398      	str	r0, [r3, #56]	; 0x38
    2260:	6865      	ldr	r5, [r4, #4]
    2262:	4631      	mov	r1, r6
    2264:	4628      	mov	r0, r5
    2266:	f8d4 9020 	ldr.w	r9, [r4, #32]
    226a:	f7ff f953 	bl	1514 <USBHost::findDevice(USBDeviceConnected*)>
    226e:	1c43      	adds	r3, r0, #1
    2270:	d06b      	beq.n	234a <USBHostHub::connect(USBDeviceConnected*)+0x15e>
    2272:	b324      	cbz	r4, 22be <USBHostHub::connect(USBDeviceConnected*)+0xd2>
    2274:	eb05 0080 	add.w	r0, r5, r0, lsl #2
    2278:	fa5f f389 	uxtb.w	r3, r9
    227c:	4d38      	ldr	r5, [pc, #224]	; (2360 <USBHostHub::connect(USBDeviceConnected*)+0x174>)
    227e:	ebc3 1203 	rsb	r2, r3, r3, lsl #4
    2282:	4403      	add	r3, r0
    2284:	eb06 0282 	add.w	r2, r6, r2, lsl #2
    2288:	f503 5101 	add.w	r1, r3, #8256	; 0x2040
    228c:	2001      	movs	r0, #1
    228e:	9504      	str	r5, [sp, #16]
    2290:	9705      	str	r7, [sp, #20]
    2292:	ab04      	add	r3, sp, #16
    2294:	4d33      	ldr	r5, [pc, #204]	; (2364 <USBHostHub::connect(USBDeviceConnected*)+0x178>)
    2296:	f881 0029 	strb.w	r0, [r1, #41]	; 0x29
    229a:	cb03      	ldmia	r3!, {r0, r1}
    229c:	6250      	str	r0, [r2, #36]	; 0x24
    229e:	6291      	str	r1, [r2, #40]	; 0x28
    22a0:	6923      	ldr	r3, [r4, #16]
    22a2:	6214      	str	r4, [r2, #32]
    22a4:	6355      	str	r5, [r2, #52]	; 0x34
    22a6:	61d7      	str	r7, [r2, #28]
    22a8:	4a2f      	ldr	r2, [pc, #188]	; (2368 <USBHostHub::connect(USBDeviceConnected*)+0x17c>)
    22aa:	2100      	movs	r1, #0
    22ac:	9206      	str	r2, [sp, #24]
    22ae:	9107      	str	r1, [sp, #28]
    22b0:	aa06      	add	r2, sp, #24
    22b2:	6399      	str	r1, [r3, #56]	; 0x38
    22b4:	63dc      	str	r4, [r3, #60]	; 0x3c
    22b6:	ca03      	ldmia	r2!, {r0, r1}
    22b8:	651d      	str	r5, [r3, #80]	; 0x50
    22ba:	6418      	str	r0, [r3, #64]	; 0x40
    22bc:	6459      	str	r1, [r3, #68]	; 0x44
    22be:	f44f 5124 	mov.w	r1, #10496	; 0x2900
    22c2:	2200      	movs	r2, #0
    22c4:	230a      	movs	r3, #10
    22c6:	f104 0716 	add.w	r7, r4, #22
    22ca:	6860      	ldr	r0, [r4, #4]
    22cc:	e88d 0086 	stmia.w	sp, {r1, r2, r7}
    22d0:	9303      	str	r3, [sp, #12]
    22d2:	22a0      	movs	r2, #160	; 0xa0
    22d4:	2306      	movs	r3, #6
    22d6:	4631      	mov	r1, r6
    22d8:	f7ff fbc0 	bl	1a5c <USBHost::controlRead(USBDeviceConnected*, unsigned char, unsigned char, unsigned long, unsigned long, unsigned char*, unsigned long)>
    22dc:	7e23      	ldrb	r3, [r4, #24]
    22de:	7e62      	ldrb	r2, [r4, #25]
    22e0:	7523      	strb	r3, [r4, #20]
    22e2:	7562      	strb	r2, [r4, #21]
    22e4:	2501      	movs	r5, #1
    22e6:	b14b      	cbz	r3, 22fc <USBHostHub::connect(USBDeviceConnected*)+0x110>
    22e8:	462a      	mov	r2, r5
    22ea:	4620      	mov	r0, r4
    22ec:	2108      	movs	r1, #8
    22ee:	f7ff ff6b 	bl	21c8 <USBHostHub::setPortFeature(unsigned long, unsigned char)>
    22f2:	3501      	adds	r5, #1
    22f4:	7d22      	ldrb	r2, [r4, #20]
    22f6:	b2ed      	uxtb	r5, r5
    22f8:	42aa      	cmp	r2, r5
    22fa:	d2f5      	bcs.n	22e8 <USBHostHub::connect(USBDeviceConnected*)+0xfc>
    22fc:	7ee0      	ldrb	r0, [r4, #27]
    22fe:	f04f 0901 	mov.w	r9, #1
    2302:	fa00 f009 	lsl.w	r0, r0, r9
    2306:	2500      	movs	r5, #0
    2308:	f004 fe06 	bl	6f18 <wait_ms>
    230c:	6860      	ldr	r0, [r4, #4]
    230e:	6922      	ldr	r2, [r4, #16]
    2310:	4631      	mov	r1, r6
    2312:	9501      	str	r5, [sp, #4]
    2314:	463b      	mov	r3, r7
    2316:	f8cd 9000 	str.w	r9, [sp]
    231a:	f7ff fac9 	bl	18b0 <USBHost::interruptRead(USBDeviceConnected*, USBEndpoint*, unsigned char*, unsigned long, bool)>
    231e:	4645      	mov	r5, r8
    2320:	f884 900c 	strb.w	r9, [r4, #12]
    2324:	e769      	b.n	21fa <USBHostHub::connect(USBDeviceConnected*)+0xe>
    2326:	f04f 33ff 	mov.w	r3, #4294967295	; 0xffffffff
    232a:	4628      	mov	r0, r5
    232c:	7325      	strb	r5, [r4, #12]
    232e:	60a5      	str	r5, [r4, #8]
    2330:	6125      	str	r5, [r4, #16]
    2332:	f884 5024 	strb.w	r5, [r4, #36]	; 0x24
    2336:	7525      	strb	r5, [r4, #20]
    2338:	7565      	strb	r5, [r4, #21]
    233a:	62a5      	str	r5, [r4, #40]	; 0x28
    233c:	62e5      	str	r5, [r4, #44]	; 0x2c
    233e:	6325      	str	r5, [r4, #48]	; 0x30
    2340:	6365      	str	r5, [r4, #52]	; 0x34
    2342:	6223      	str	r3, [r4, #32]
    2344:	b009      	add	sp, #36	; 0x24
    2346:	e8bd 83f0 	ldmia.w	sp!, {r4, r5, r6, r7, r8, r9, pc}
    234a:	6923      	ldr	r3, [r4, #16]
    234c:	2c00      	cmp	r4, #0
    234e:	d0b6      	beq.n	22be <USBHostHub::connect(USBDeviceConnected*)+0xd2>
    2350:	4d04      	ldr	r5, [pc, #16]	; (2364 <USBHostHub::connect(USBDeviceConnected*)+0x178>)
    2352:	e7a9      	b.n	22a8 <USBHostHub::connect(USBDeviceConnected*)+0xbc>
    2354:	0000b5a0 	.word	0x0000b5a0
    2358:	0000b5e4 	.word	0x0000b5e4
    235c:	0000b624 	.word	0x0000b624
    2360:	000020b5 	.word	0x000020b5
    2364:	00002125 	.word	0x00002125
    2368:	000023b9 	.word	0x000023b9

0000236c <USBHostHub::clearPortFeature(unsigned long, unsigned char)>:
    236c:	b510      	push	{r4, lr}
    236e:	4603      	mov	r3, r0
    2370:	689c      	ldr	r4, [r3, #8]
    2372:	b084      	sub	sp, #16
    2374:	2300      	movs	r3, #0
    2376:	6840      	ldr	r0, [r0, #4]
    2378:	e88d 0006 	stmia.w	sp, {r1, r2}
    237c:	9302      	str	r3, [sp, #8]
    237e:	9303      	str	r3, [sp, #12]
    2380:	4621      	mov	r1, r4
    2382:	2223      	movs	r2, #35	; 0x23
    2384:	2301      	movs	r3, #1
    2386:	f7ff fbd7 	bl	1b38 <USBHost::controlWrite(USBDeviceConnected*, unsigned char, unsigned char, unsigned long, unsigned long, unsigned char*, unsigned long)>
    238a:	b004      	add	sp, #16
    238c:	bd10      	pop	{r4, pc}
    238e:	bf00      	nop

00002390 <USBHostHub::getPortStatus(unsigned char)>:
    2390:	b530      	push	{r4, r5, lr}
    2392:	4603      	mov	r3, r0
    2394:	b087      	sub	sp, #28
    2396:	689d      	ldr	r5, [r3, #8]
    2398:	ac05      	add	r4, sp, #20
    239a:	2300      	movs	r3, #0
    239c:	2204      	movs	r2, #4
    239e:	6840      	ldr	r0, [r0, #4]
    23a0:	9101      	str	r1, [sp, #4]
    23a2:	9203      	str	r2, [sp, #12]
    23a4:	4629      	mov	r1, r5
    23a6:	9300      	str	r3, [sp, #0]
    23a8:	9402      	str	r4, [sp, #8]
    23aa:	22a3      	movs	r2, #163	; 0xa3
    23ac:	f7ff fb56 	bl	1a5c <USBHost::controlRead(USBDeviceConnected*, unsigned char, unsigned char, unsigned long, unsigned long, unsigned char*, unsigned long)>
    23b0:	9805      	ldr	r0, [sp, #20]
    23b2:	b007      	add	sp, #28
    23b4:	bd30      	pop	{r4, r5, pc}
    23b6:	bf00      	nop

000023b8 <USBHostHub::rxHandler()>:
    23b8:	b5f0      	push	{r4, r5, r6, r7, lr}
    23ba:	6902      	ldr	r2, [r0, #16]
    23bc:	b083      	sub	sp, #12
    23be:	4604      	mov	r4, r0
    23c0:	b16a      	cbz	r2, 23de <USBHostHub::rxHandler()+0x26>
    23c2:	f892 3025 	ldrb.w	r3, [r2, #37]	; 0x25
    23c6:	2b10      	cmp	r3, #16
    23c8:	d00b      	beq.n	23e2 <USBHostHub::rxHandler()+0x2a>
    23ca:	2601      	movs	r6, #1
    23cc:	2500      	movs	r5, #0
    23ce:	6860      	ldr	r0, [r4, #4]
    23d0:	68a1      	ldr	r1, [r4, #8]
    23d2:	f104 0316 	add.w	r3, r4, #22
    23d6:	9600      	str	r6, [sp, #0]
    23d8:	9501      	str	r5, [sp, #4]
    23da:	f7ff fa69 	bl	18b0 <USBHost::interruptRead(USBDeviceConnected*, USBEndpoint*, unsigned char*, unsigned long, bool)>
    23de:	b003      	add	sp, #12
    23e0:	bdf0      	pop	{r4, r5, r6, r7, pc}
    23e2:	7d03      	ldrb	r3, [r0, #20]
    23e4:	2b00      	cmp	r3, #0
    23e6:	d0f0      	beq.n	23ca <USBHostHub::rxHandler()+0x12>
    23e8:	2601      	movs	r6, #1
    23ea:	e007      	b.n	23fc <USBHostHub::rxHandler()+0x44>
    23ec:	03aa      	lsls	r2, r5, #14
    23ee:	d42b      	bmi.n	2448 <USBHostHub::rxHandler()+0x90>
    23f0:	072b      	lsls	r3, r5, #28
    23f2:	d430      	bmi.n	2456 <USBHostHub::rxHandler()+0x9e>
    23f4:	7d23      	ldrb	r3, [r4, #20]
    23f6:	3601      	adds	r6, #1
    23f8:	42b3      	cmp	r3, r6
    23fa:	db46      	blt.n	248a <USBHostHub::rxHandler()+0xd2>
    23fc:	b2f7      	uxtb	r7, r6
    23fe:	4639      	mov	r1, r7
    2400:	4620      	mov	r0, r4
    2402:	f7ff ffc5 	bl	2390 <USBHostHub::getPortStatus(unsigned char)>
    2406:	4605      	mov	r5, r0
    2408:	03e8      	lsls	r0, r5, #15
    240a:	d514      	bpl.n	2436 <USBHostHub::rxHandler()+0x7e>
    240c:	f015 0301 	ands.w	r3, r5, #1
    2410:	6860      	ldr	r0, [r4, #4]
    2412:	d03c      	beq.n	248e <USBHostHub::rxHandler()+0xd6>
    2414:	68a3      	ldr	r3, [r4, #8]
    2416:	6802      	ldr	r2, [r0, #0]
    2418:	f893 10fc 	ldrb.w	r1, [r3, #252]	; 0xfc
    241c:	9400      	str	r4, [sp, #0]
    241e:	f8d2 c000 	ldr.w	r12, [r2]
    2422:	3101      	adds	r1, #1
    2424:	4632      	mov	r2, r6
    2426:	f3c5 2340 	ubfx	r3, r5, #9, #1
    242a:	47e0      	blx	r12
    242c:	4620      	mov	r0, r4
    242e:	2110      	movs	r1, #16
    2430:	463a      	mov	r2, r7
    2432:	f7ff ff9b 	bl	236c <USBHostHub::clearPortFeature(unsigned long, unsigned char)>
    2436:	02e9      	lsls	r1, r5, #11
    2438:	d5d8      	bpl.n	23ec <USBHostHub::rxHandler()+0x34>
    243a:	463a      	mov	r2, r7
    243c:	4620      	mov	r0, r4
    243e:	2114      	movs	r1, #20
    2440:	f7ff ff94 	bl	236c <USBHostHub::clearPortFeature(unsigned long, unsigned char)>
    2444:	03aa      	lsls	r2, r5, #14
    2446:	d5d3      	bpl.n	23f0 <USBHostHub::rxHandler()+0x38>
    2448:	4620      	mov	r0, r4
    244a:	2111      	movs	r1, #17
    244c:	463a      	mov	r2, r7
    244e:	f7ff ff8d 	bl	236c <USBHostHub::clearPortFeature(unsigned long, unsigned char)>
    2452:	072b      	lsls	r3, r5, #28
    2454:	d5ce      	bpl.n	23f4 <USBHostHub::rxHandler()+0x3c>
    2456:	4914      	ldr	r1, [pc, #80]	; (24a8 <USBHostHub::rxHandler()+0xf0>)
    2458:	22d2      	movs	r2, #210	; 0xd2
    245a:	4814      	ldr	r0, [pc, #80]	; (24ac <USBHostHub::rxHandler()+0xf4>)
    245c:	f006 fee4 	bl	9228 <iprintf>
    2460:	4620      	mov	r0, r4
    2462:	463a      	mov	r2, r7
    2464:	2108      	movs	r1, #8
    2466:	f7ff ff81 	bl	236c <USBHostHub::clearPortFeature(unsigned long, unsigned char)>
    246a:	68a3      	ldr	r3, [r4, #8]
    246c:	6860      	ldr	r0, [r4, #4]
    246e:	f893 10fc 	ldrb.w	r1, [r3, #252]	; 0xfc
    2472:	6802      	ldr	r2, [r0, #0]
    2474:	2300      	movs	r3, #0
    2476:	9300      	str	r3, [sp, #0]
    2478:	6855      	ldr	r5, [r2, #4]
    247a:	4623      	mov	r3, r4
    247c:	4632      	mov	r2, r6
    247e:	3101      	adds	r1, #1
    2480:	47a8      	blx	r5
    2482:	7d23      	ldrb	r3, [r4, #20]
    2484:	3601      	adds	r6, #1
    2486:	42b3      	cmp	r3, r6
    2488:	dab8      	bge.n	23fc <USBHostHub::rxHandler()+0x44>
    248a:	6922      	ldr	r2, [r4, #16]
    248c:	e79d      	b.n	23ca <USBHostHub::rxHandler()+0x12>
    248e:	68a1      	ldr	r1, [r4, #8]
    2490:	6802      	ldr	r2, [r0, #0]
    2492:	f891 10fc 	ldrb.w	r1, [r1, #252]	; 0xfc
    2496:	9300      	str	r3, [sp, #0]
    2498:	f8d2 c004 	ldr.w	r12, [r2, #4]
    249c:	3101      	adds	r1, #1
    249e:	4632      	mov	r2, r6
    24a0:	4623      	mov	r3, r4
    24a2:	47e0      	blx	r12
    24a4:	e7c2      	b.n	242c <USBHostHub::rxHandler()+0x74>
    24a6:	bf00      	nop
    24a8:	0000b5e4 	.word	0x0000b5e4
    24ac:	0000b628 	.word	0x0000b628

000024b0 <USBHostHub::portReset(unsigned char)>:
    24b0:	b5f0      	push	{r4, r5, r6, r7, lr}
    24b2:	460a      	mov	r2, r1
    24b4:	460c      	mov	r4, r1
    24b6:	b083      	sub	sp, #12
    24b8:	2104      	movs	r1, #4
    24ba:	4605      	mov	r5, r0
    24bc:	f7ff fe84 	bl	21c8 <USBHostHub::setPortFeature(unsigned long, unsigned char)>
    24c0:	e004      	b.n	24cc <USBHostHub::portReset(unsigned char)+0x1c>
    24c2:	0703      	lsls	r3, r0, #28
    24c4:	d40b      	bmi.n	24de <USBHostHub::portReset(unsigned char)+0x2e>
    24c6:	200a      	movs	r0, #10
    24c8:	f004 fafc 	bl	6ac4 <rtos::Thread::wait(unsigned long)>
    24cc:	4628      	mov	r0, r5
    24ce:	4621      	mov	r1, r4
    24d0:	f7ff ff5e 	bl	2390 <USBHostHub::getPortStatus(unsigned char)>
    24d4:	f010 0612 	ands.w	r6, r0, #18
    24d8:	d0f3      	beq.n	24c2 <USBHostHub::portReset(unsigned char)+0x12>
    24da:	b003      	add	sp, #12
    24dc:	bdf0      	pop	{r4, r5, r6, r7, pc}
    24de:	490b      	ldr	r1, [pc, #44]	; (250c <USBHostHub::portReset(unsigned char)+0x5c>)
    24e0:	22e6      	movs	r2, #230	; 0xe6
    24e2:	480b      	ldr	r0, [pc, #44]	; (2510 <USBHostHub::portReset(unsigned char)+0x60>)
    24e4:	f006 fea0 	bl	9228 <iprintf>
    24e8:	4628      	mov	r0, r5
    24ea:	4622      	mov	r2, r4
    24ec:	2108      	movs	r1, #8
    24ee:	f7ff ff3d 	bl	236c <USBHostHub::clearPortFeature(unsigned long, unsigned char)>
    24f2:	68ab      	ldr	r3, [r5, #8]
    24f4:	6868      	ldr	r0, [r5, #4]
    24f6:	f893 10fc 	ldrb.w	r1, [r3, #252]	; 0xfc
    24fa:	6807      	ldr	r7, [r0, #0]
    24fc:	9600      	str	r6, [sp, #0]
    24fe:	4622      	mov	r2, r4
    2500:	3101      	adds	r1, #1
    2502:	687c      	ldr	r4, [r7, #4]
    2504:	462b      	mov	r3, r5
    2506:	47a0      	blx	r4
    2508:	b003      	add	sp, #12
    250a:	bdf0      	pop	{r4, r5, r6, r7, pc}
    250c:	0000b5e4 	.word	0x0000b5e4
    2510:	0000b628 	.word	0x0000b628

00002514 <USBEndpoint::init(hcEd*, ENDPOINT_TYPE, ENDPOINT_DIRECTION, unsigned long, unsigned char, HCTD**)>:
    2514:	e92d 43f8 	stmdb	sp!, {r3, r4, r5, r6, r7, r8, r9, lr}
    2518:	4604      	mov	r4, r0
    251a:	f1d2 0001 	rsbs	r0, r2, #1
    251e:	9e0a      	ldr	r6, [sp, #40]	; 0x28
    2520:	bf38      	it	cc
    2522:	2000      	movcc	r0, #0
    2524:	65a1      	str	r1, [r4, #88]	; 0x58
    2526:	f884 0027 	strb.w	r0, [r4, #39]	; 0x27
    252a:	f884 2024 	strb.w	r2, [r4, #36]	; 0x24
    252e:	f884 3026 	strb.w	r3, [r4, #38]	; 0x26
    2532:	6873      	ldr	r3, [r6, #4]
    2534:	6832      	ldr	r2, [r6, #0]
    2536:	6623      	str	r3, [r4, #96]	; 0x60
    2538:	65e2      	str	r2, [r4, #92]	; 0x5c
    253a:	6830      	ldr	r0, [r6, #0]
    253c:	2100      	movs	r1, #0
    253e:	2220      	movs	r2, #32
    2540:	f89d 8024 	ldrb.w	r8, [sp, #36]	; 0x24
    2544:	f006 f961 	bl	880a <memset>
    2548:	6870      	ldr	r0, [r6, #4]
    254a:	2100      	movs	r1, #0
    254c:	2220      	movs	r2, #32
    254e:	f006 f95c 	bl	880a <memset>
    2552:	6de1      	ldr	r1, [r4, #92]	; 0x5c
    2554:	6e20      	ldr	r0, [r4, #96]	; 0x60
    2556:	690b      	ldr	r3, [r1, #16]
    2558:	6da3      	ldr	r3, [r4, #88]	; 0x58
    255a:	610c      	str	r4, [r1, #16]
    255c:	6902      	ldr	r2, [r0, #16]
    255e:	f894 7026 	ldrb.w	r7, [r4, #38]	; 0x26
    2562:	6104      	str	r4, [r0, #16]
    2564:	2200      	movs	r2, #0
    2566:	681e      	ldr	r6, [r3, #0]
    2568:	601a      	str	r2, [r3, #0]
    256a:	685d      	ldr	r5, [r3, #4]
    256c:	f008 067f 	and.w	r6, r8, #127	; 0x7f
    2570:	6059      	str	r1, [r3, #4]
    2572:	f894 5024 	ldrb.w	r5, [r4, #36]	; 0x24
    2576:	f107 38ff 	add.w	r8, r7, #4294967295	; 0xffffffff
    257a:	f8d3 9008 	ldr.w	r9, [r3, #8]
    257e:	ea46 18c8 	orr.w	r8, r6, r8, lsl #7
    2582:	6099      	str	r1, [r3, #8]
    2584:	f8d3 900c 	ldr.w	r9, [r3, #12]
    2588:	01f6      	lsls	r6, r6, #7
    258a:	60da      	str	r2, [r3, #12]
    258c:	f884 8028 	strb.w	r8, [r4, #40]	; 0x28
    2590:	b1cd      	cbz	r5, 25c6 <USBEndpoint::init(hcEd*, ENDPOINT_TYPE, ENDPOINT_DIRECTION, unsigned long, unsigned char, HCTD**)+0xb2>
    2592:	ea4f 2cc7 	mov.w	r12, r7, lsl #11
    2596:	9a08      	ldr	r2, [sp, #32]
    2598:	ea4c 0c06 	orr.w	r12, r12, r6
    259c:	f3c2 0509 	ubfx	r5, r2, #0, #10
    25a0:	ea4c 4505 	orr.w	r5, r12, r5, lsl #16
    25a4:	2200      	movs	r2, #0
    25a6:	681e      	ldr	r6, [r3, #0]
    25a8:	f04f 0810 	mov.w	r8, #16
    25ac:	601d      	str	r5, [r3, #0]
    25ae:	f884 206c 	strb.w	r2, [r4, #108]	; 0x6c
    25b2:	6661      	str	r1, [r4, #100]	; 0x64
    25b4:	66a0      	str	r0, [r4, #104]	; 0x68
    25b6:	62e2      	str	r2, [r4, #44]	; 0x2c
    25b8:	6322      	str	r2, [r4, #48]	; 0x30
    25ba:	6362      	str	r2, [r4, #52]	; 0x34
    25bc:	6562      	str	r2, [r4, #84]	; 0x54
    25be:	f884 8025 	strb.w	r8, [r4, #37]	; 0x25
    25c2:	e8bd 83f8 	ldmia.w	sp!, {r3, r4, r5, r6, r7, r8, r9, pc}
    25c6:	46ac      	mov	r12, r5
    25c8:	e7e5      	b.n	2596 <USBEndpoint::init(hcEd*, ENDPOINT_TYPE, ENDPOINT_DIRECTION, unsigned long, unsigned char, HCTD**)+0x82>
    25ca:	bf00      	nop

000025cc <USBEndpoint::setSize(unsigned long)>:
    25cc:	6d83      	ldr	r3, [r0, #88]	; 0x58
    25ce:	681a      	ldr	r2, [r3, #0]
    25d0:	6818      	ldr	r0, [r3, #0]
    25d2:	f022 727f 	bic.w	r2, r2, #66846720	; 0x3fc0000
    25d6:	f422 3240 	bic.w	r2, r2, #196608	; 0x30000
    25da:	601a      	str	r2, [r3, #0]
    25dc:	681a      	ldr	r2, [r3, #0]
    25de:	6818      	ldr	r0, [r3, #0]
    25e0:	ea42 4101 	orr.w	r1, r2, r1, lsl #16
    25e4:	6019      	str	r1, [r3, #0]
    25e6:	4770      	bx	lr

000025e8 <USBEndpoint::setDeviceAddress(unsigned char)>:
    25e8:	6d83      	ldr	r3, [r0, #88]	; 0x58
    25ea:	f001 017f 	and.w	r1, r1, #127	; 0x7f
    25ee:	681a      	ldr	r2, [r3, #0]
    25f0:	6818      	ldr	r0, [r3, #0]
    25f2:	f022 027f 	bic.w	r2, r2, #127	; 0x7f
    25f6:	601a      	str	r2, [r3, #0]
    25f8:	681a      	ldr	r2, [r3, #0]
    25fa:	6818      	ldr	r0, [r3, #0]
    25fc:	4311      	orrs	r1, r2
    25fe:	6019      	str	r1, [r3, #0]
    2600:	4770      	bx	lr
    2602:	bf00      	nop

00002604 <USBEndpoint::setSpeed(unsigned char)>:
    2604:	6d83      	ldr	r3, [r0, #88]	; 0x58
    2606:	681a      	ldr	r2, [r3, #0]
    2608:	6818      	ldr	r0, [r3, #0]
    260a:	f422 5200 	bic.w	r2, r2, #8192	; 0x2000
    260e:	601a      	str	r2, [r3, #0]
    2610:	681a      	ldr	r2, [r3, #0]
    2612:	6818      	ldr	r0, [r3, #0]
    2614:	ea42 3141 	orr.w	r1, r2, r1, lsl #13
    2618:	6019      	str	r1, [r3, #0]
    261a:	4770      	bx	lr

0000261c <USBEndpoint::setNextToken(unsigned long)>:
    261c:	f5b1 2f00 	cmp.w	r1, #524288	; 0x80000
    2620:	d011      	beq.n	2646 <USBEndpoint::setNextToken(unsigned long)+0x2a>
    2622:	f5b1 1f80 	cmp.w	r1, #1048576	; 0x100000
    2626:	d007      	beq.n	2638 <USBEndpoint::setNextToken(unsigned long)+0x1c>
    2628:	b101      	cbz	r1, 262c <USBEndpoint::setNextToken(unsigned long)+0x10>
    262a:	4770      	bx	lr
    262c:	2301      	movs	r3, #1
    262e:	f880 3026 	strb.w	r3, [r0, #38]	; 0x26
    2632:	f880 3027 	strb.w	r3, [r0, #39]	; 0x27
    2636:	4770      	bx	lr
    2638:	2202      	movs	r2, #2
    263a:	2300      	movs	r3, #0
    263c:	f880 2026 	strb.w	r2, [r0, #38]	; 0x26
    2640:	f880 3027 	strb.w	r3, [r0, #39]	; 0x27
    2644:	4770      	bx	lr
    2646:	2201      	movs	r2, #1
    2648:	2300      	movs	r3, #0
    264a:	f880 2026 	strb.w	r2, [r0, #38]	; 0x26
    264e:	f880 3027 	strb.w	r3, [r0, #39]	; 0x27
    2652:	4770      	bx	lr

00002654 <USBEndpoint::setState(unsigned char)>:
    2654:	2912      	cmp	r1, #18
    2656:	d804      	bhi.n	2662 <USBEndpoint::setState(unsigned char)+0xe>
    2658:	4b02      	ldr	r3, [pc, #8]	; (2664 <USBEndpoint::setState(unsigned char)+0x10>)
    265a:	f813 3031 	ldrb.w	r3, [r3, r1, lsl #3]
    265e:	f880 3025 	strb.w	r3, [r0, #37]	; 0x25
    2662:	4770      	bx	lr
    2664:	0000b810 	.word	0x0000b810

00002668 <USBEndpoint::getStateString()>:
    2668:	f890 2025 	ldrb.w	r2, [r0, #37]	; 0x25
    266c:	4b02      	ldr	r3, [pc, #8]	; (2678 <USBEndpoint::getStateString()+0x10>)
    266e:	eb03 03c2 	add.w	r3, r3, r2, lsl #3
    2672:	6858      	ldr	r0, [r3, #4]
    2674:	4770      	bx	lr
    2676:	bf00      	nop
    2678:	0000b810 	.word	0x0000b810

0000267c <USBEndpoint::queueTransfer()>:
    267c:	b430      	push	{r4, r5}
    267e:	6e43      	ldr	r3, [r0, #100]	; 0x64
    2680:	2511      	movs	r5, #17
    2682:	68da      	ldr	r2, [r3, #12]
    2684:	6859      	ldr	r1, [r3, #4]
    2686:	3201      	adds	r2, #1
    2688:	1a52      	subs	r2, r2, r1
    268a:	62c2      	str	r2, [r0, #44]	; 0x2c
    268c:	6302      	str	r2, [r0, #48]	; 0x30
    268e:	685c      	ldr	r4, [r3, #4]
    2690:	6e81      	ldr	r1, [r0, #104]	; 0x68
    2692:	f880 5025 	strb.w	r5, [r0, #37]	; 0x25
    2696:	6d82      	ldr	r2, [r0, #88]	; 0x58
    2698:	6344      	str	r4, [r0, #52]	; 0x34
    269a:	6898      	ldr	r0, [r3, #8]
    269c:	6099      	str	r1, [r3, #8]
    269e:	6853      	ldr	r3, [r2, #4]
    26a0:	bc30      	pop	{r4, r5}
    26a2:	6051      	str	r1, [r2, #4]
    26a4:	4770      	bx	lr
    26a6:	bf00      	nop

000026a8 <USBEndpoint::unqueueTransfer(HCTD volatile*)>:
    26a8:	b430      	push	{r4, r5}
    26aa:	2300      	movs	r3, #0
    26ac:	680a      	ldr	r2, [r1, #0]
    26ae:	600b      	str	r3, [r1, #0]
    26b0:	684a      	ldr	r2, [r1, #4]
    26b2:	604b      	str	r3, [r1, #4]
    26b4:	68ca      	ldr	r2, [r1, #12]
    26b6:	6d82      	ldr	r2, [r0, #88]	; 0x58
    26b8:	60cb      	str	r3, [r1, #12]
    26ba:	688c      	ldr	r4, [r1, #8]
    26bc:	608b      	str	r3, [r1, #8]
    26be:	6855      	ldr	r5, [r2, #4]
    26c0:	6894      	ldr	r4, [r2, #8]
    26c2:	6e83      	ldr	r3, [r0, #104]	; 0x68
    26c4:	f004 0402 	and.w	r4, r4, #2
    26c8:	432c      	orrs	r4, r5
    26ca:	6895      	ldr	r5, [r2, #8]
    26cc:	6094      	str	r4, [r2, #8]
    26ce:	6643      	str	r3, [r0, #100]	; 0x64
    26d0:	6681      	str	r1, [r0, #104]	; 0x68
    26d2:	bc30      	pop	{r4, r5}
    26d4:	4770      	bx	lr
    26d6:	bf00      	nop

000026d8 <USBEndpoint::queueEndpoint(USBEndpoint*)>:
    26d8:	6541      	str	r1, [r0, #84]	; 0x54
    26da:	6d83      	ldr	r3, [r0, #88]	; 0x58
    26dc:	b101      	cbz	r1, 26e0 <USBEndpoint::queueEndpoint(USBEndpoint*)+0x8>
    26de:	6d89      	ldr	r1, [r1, #88]	; 0x58
    26e0:	68da      	ldr	r2, [r3, #12]
    26e2:	60d9      	str	r1, [r3, #12]
    26e4:	4770      	bx	lr
    26e6:	bf00      	nop

000026e8 <USBHALHost::USBHALHost()>:
    26e8:	b538      	push	{r3, r4, r5, lr}
    26ea:	4b12      	ldr	r3, [pc, #72]	; (2734 <USBHALHost::USBHALHost()+0x4c>)
    26ec:	4a12      	ldr	r2, [pc, #72]	; (2738 <USBHALHost::USBHALHost()+0x50>)
    26ee:	4604      	mov	r4, r0
    26f0:	f503 6198 	add.w	r1, r3, #1216	; 0x4c0
    26f4:	f503 7080 	add.w	r0, r3, #256	; 0x100
    26f8:	4d10      	ldr	r5, [pc, #64]	; (273c <USBHALHost::USBHALHost()+0x54>)
    26fa:	e884 000c 	stmia.w	r4, {r2, r3}
    26fe:	60a0      	str	r0, [r4, #8]
    2700:	60e1      	str	r1, [r4, #12]
    2702:	4618      	mov	r0, r3
    2704:	2100      	movs	r1, #0
    2706:	f44f 7280 	mov.w	r2, #256	; 0x100
    270a:	602c      	str	r4, [r5, #0]
    270c:	f006 f87d 	bl	880a <memset>
    2710:	2300      	movs	r3, #0
    2712:	4619      	mov	r1, r3
    2714:	18e2      	adds	r2, r4, r3
    2716:	3301      	adds	r3, #1
    2718:	2b3c      	cmp	r3, #60	; 0x3c
    271a:	7411      	strb	r1, [r2, #16]
    271c:	d1fa      	bne.n	2714 <USBHALHost::USBHALHost()+0x2c>
    271e:	2300      	movs	r3, #0
    2720:	4619      	mov	r1, r3
    2722:	18e2      	adds	r2, r4, r3
    2724:	3301      	adds	r3, #1
    2726:	2b78      	cmp	r3, #120	; 0x78
    2728:	f882 104c 	strb.w	r1, [r2, #76]	; 0x4c
    272c:	d1f9      	bne.n	2722 <USBHALHost::USBHALHost()+0x3a>
    272e:	4620      	mov	r0, r4
    2730:	bd38      	pop	{r3, r4, r5, pc}
    2732:	bf00      	nop
    2734:	20080000 	.word	0x20080000
    2738:	0000b8b0 	.word	0x0000b8b0
    273c:	10000244 	.word	0x10000244

00002740 <USBHALHost::init()>:
    2740:	4b3e      	ldr	r3, [pc, #248]	; (283c <USBHALHost::init()+0xfc>)
    2742:	e92d 41f0 	stmdb	sp!, {r4, r5, r6, r7, r8, lr}
    2746:	f04f 7280 	mov.w	r2, #16777216	; 0x1000000
    274a:	4c3d      	ldr	r4, [pc, #244]	; (2840 <USBHALHost::init()+0x100>)
    274c:	f8c3 2080 	str.w	r2, [r3, #128]	; 0x80
    2750:	f8d4 30c4 	ldr.w	r3, [r4, #196]	; 0xc4
    2754:	b082      	sub	sp, #8
    2756:	f023 4300 	bic.w	r3, r3, #2147483648	; 0x80000000
    275a:	f8c4 30c4 	str.w	r3, [r4, #196]	; 0xc4
    275e:	4606      	mov	r6, r0
    2760:	2064      	movs	r0, #100	; 0x64
    2762:	f004 fbd9 	bl	6f18 <wait_ms>
    2766:	f8d4 20c4 	ldr.w	r2, [r4, #196]	; 0xc4
    276a:	4b36      	ldr	r3, [pc, #216]	; (2844 <USBHALHost::init()+0x104>)
    276c:	f042 4200 	orr.w	r2, r2, #2147483648	; 0x80000000
    2770:	f8c4 20c4 	str.w	r2, [r4, #196]	; 0xc4
    2774:	f8d3 1ff4 	ldr.w	r1, [r3, #4084]	; 0xff4
    2778:	461a      	mov	r2, r3
    277a:	f041 0119 	orr.w	r1, r1, #25
    277e:	f8c3 1ff4 	str.w	r1, [r3, #4084]	; 0xff4
    2782:	f8d2 3ff8 	ldr.w	r3, [r2, #4088]	; 0xff8
    2786:	4c2f      	ldr	r4, [pc, #188]	; (2844 <USBHALHost::init()+0x104>)
    2788:	f003 0319 	and.w	r3, r3, #25
    278c:	2b19      	cmp	r3, #25
    278e:	d1f8      	bne.n	2782 <USBHALHost::init()+0x42>
    2790:	f8d4 2110 	ldr.w	r2, [r4, #272]	; 0x110
    2794:	4b2c      	ldr	r3, [pc, #176]	; (2848 <USBHALHost::init()+0x108>)
    2796:	f042 0201 	orr.w	r2, r2, #1
    279a:	f8c4 2110 	str.w	r2, [r4, #272]	; 0x110
    279e:	f8d4 2ff4 	ldr.w	r2, [r4, #4084]	; 0xff4
    27a2:	2500      	movs	r5, #0
    27a4:	f022 0208 	bic.w	r2, r2, #8
    27a8:	f8c4 2ff4 	str.w	r2, [r4, #4084]	; 0xff4
    27ac:	685a      	ldr	r2, [r3, #4]
    27ae:	2064      	movs	r0, #100	; 0x64
    27b0:	f022 5270 	bic.w	r2, r2, #1006632960	; 0x3c000000
    27b4:	605a      	str	r2, [r3, #4]
    27b6:	685a      	ldr	r2, [r3, #4]
    27b8:	f04f 0801 	mov.w	r8, #1
    27bc:	f042 52a0 	orr.w	r2, r2, #335544320	; 0x14000000
    27c0:	605a      	str	r2, [r3, #4]
    27c2:	6065      	str	r5, [r4, #4]
    27c4:	6225      	str	r5, [r4, #32]
    27c6:	62a5      	str	r5, [r4, #40]	; 0x28
    27c8:	f004 fba6 	bl	6f18 <wait_ms>
    27cc:	4a1f      	ldr	r2, [pc, #124]	; (284c <USBHALHost::init()+0x10c>)
    27ce:	f642 232f 	movw	r3, #10799	; 0x2a2f
    27d2:	f8c4 8008 	str.w	r8, [r4, #8]
    27d6:	6362      	str	r2, [r4, #52]	; 0x34
    27d8:	6423      	str	r3, [r4, #64]	; 0x40
    27da:	6862      	ldr	r2, [r4, #4]
    27dc:	6873      	ldr	r3, [r6, #4]
    27de:	f022 02c0 	bic.w	r2, r2, #192	; 0xc0
    27e2:	f042 0280 	orr.w	r2, r2, #128	; 0x80
    27e6:	f44f 3780 	mov.w	r7, #65536	; 0x10000
    27ea:	6062      	str	r2, [r4, #4]
    27ec:	6527      	str	r7, [r4, #80]	; 0x50
    27ee:	61a3      	str	r3, [r4, #24]
    27f0:	68e2      	ldr	r2, [r4, #12]
    27f2:	68e1      	ldr	r1, [r4, #12]
    27f4:	4b16      	ldr	r3, [pc, #88]	; (2850 <USBHALHost::init()+0x110>)
    27f6:	430a      	orrs	r2, r1
    27f8:	60e2      	str	r2, [r4, #12]
    27fa:	4916      	ldr	r1, [pc, #88]	; (2854 <USBHALHost::init()+0x114>)
    27fc:	6123      	str	r3, [r4, #16]
    27fe:	2018      	movs	r0, #24
    2800:	f004 fa90 	bl	6d24 <NVIC_SetVector>
    2804:	4b0d      	ldr	r3, [pc, #52]	; (283c <USBHALHost::init()+0xfc>)
    2806:	f44f 1180 	mov.w	r1, #1048576	; 0x100000
    280a:	f04f 7280 	mov.w	r2, #16777216	; 0x1000000
    280e:	6567      	str	r7, [r4, #84]	; 0x54
    2810:	6561      	str	r1, [r4, #84]	; 0x54
    2812:	601a      	str	r2, [r3, #0]
    2814:	6d63      	ldr	r3, [r4, #84]	; 0x54
    2816:	07db      	lsls	r3, r3, #31
    2818:	d50c      	bpl.n	2834 <USBHALHost::init()+0xf4>
    281a:	2096      	movs	r0, #150	; 0x96
    281c:	f004 fb7c 	bl	6f18 <wait_ms>
    2820:	6d63      	ldr	r3, [r4, #84]	; 0x54
    2822:	6830      	ldr	r0, [r6, #0]
    2824:	9500      	str	r5, [sp, #0]
    2826:	6804      	ldr	r4, [r0, #0]
    2828:	f3c3 2340 	ubfx	r3, r3, #9, #1
    282c:	4629      	mov	r1, r5
    282e:	4642      	mov	r2, r8
    2830:	4630      	mov	r0, r6
    2832:	47a0      	blx	r4
    2834:	b002      	add	sp, #8
    2836:	e8bd 81f0 	ldmia.w	sp!, {r4, r5, r6, r7, r8, pc}
    283a:	bf00      	nop
    283c:	e000e100 	.word	0xe000e100
    2840:	400fc000 	.word	0x400fc000
    2844:	5000c000 	.word	0x5000c000
    2848:	4002c000 	.word	0x4002c000
    284c:	27782edf 	.word	0x27782edf
    2850:	80000042 	.word	0x80000042
    2854:	00002acd 	.word	0x00002acd

00002858 <USBHALHost::controlHeadED()>:
    2858:	4b01      	ldr	r3, [pc, #4]	; (2860 <USBHALHost::controlHeadED()+0x8>)
    285a:	6a18      	ldr	r0, [r3, #32]
    285c:	4770      	bx	lr
    285e:	bf00      	nop
    2860:	5000c000 	.word	0x5000c000

00002864 <USBHALHost::bulkHeadED()>:
    2864:	4b01      	ldr	r3, [pc, #4]	; (286c <USBHALHost::bulkHeadED()+0x8>)
    2866:	6a98      	ldr	r0, [r3, #40]	; 0x28
    2868:	4770      	bx	lr
    286a:	bf00      	nop
    286c:	5000c000 	.word	0x5000c000

00002870 <USBHALHost::interruptHeadED()>:
    2870:	6843      	ldr	r3, [r0, #4]
    2872:	6818      	ldr	r0, [r3, #0]
    2874:	4770      	bx	lr
    2876:	bf00      	nop

00002878 <USBHALHost::updateBulkHeadED(unsigned long)>:
    2878:	4b01      	ldr	r3, [pc, #4]	; (2880 <USBHALHost::updateBulkHeadED(unsigned long)+0x8>)
    287a:	6299      	str	r1, [r3, #40]	; 0x28
    287c:	4770      	bx	lr
    287e:	bf00      	nop
    2880:	5000c000 	.word	0x5000c000

00002884 <USBHALHost::updateControlHeadED(unsigned long)>:
    2884:	4b01      	ldr	r3, [pc, #4]	; (288c <USBHALHost::updateControlHeadED(unsigned long)+0x8>)
    2886:	6219      	str	r1, [r3, #32]
    2888:	4770      	bx	lr
    288a:	bf00      	nop
    288c:	5000c000 	.word	0x5000c000

00002890 <USBHALHost::updateInterruptHeadED(unsigned long)>:
    2890:	6843      	ldr	r3, [r0, #4]
    2892:	681a      	ldr	r2, [r3, #0]
    2894:	6019      	str	r1, [r3, #0]
    2896:	4770      	bx	lr

00002898 <USBHALHost::enableList(ENDPOINT_TYPE)>:
    2898:	2902      	cmp	r1, #2
    289a:	d011      	beq.n	28c0 <USBHALHost::enableList(ENDPOINT_TYPE)+0x28>
    289c:	2903      	cmp	r1, #3
    289e:	d009      	beq.n	28b4 <USBHALHost::enableList(ENDPOINT_TYPE)+0x1c>
    28a0:	b101      	cbz	r1, 28a4 <USBHALHost::enableList(ENDPOINT_TYPE)+0xc>
    28a2:	4770      	bx	lr
    28a4:	4b0a      	ldr	r3, [pc, #40]	; (28d0 <USBHALHost::enableList(ENDPOINT_TYPE)+0x38>)
    28a6:	2202      	movs	r2, #2
    28a8:	609a      	str	r2, [r3, #8]
    28aa:	685a      	ldr	r2, [r3, #4]
    28ac:	f042 0210 	orr.w	r2, r2, #16
    28b0:	605a      	str	r2, [r3, #4]
    28b2:	4770      	bx	lr
    28b4:	4b06      	ldr	r3, [pc, #24]	; (28d0 <USBHALHost::enableList(ENDPOINT_TYPE)+0x38>)
    28b6:	685a      	ldr	r2, [r3, #4]
    28b8:	f042 0204 	orr.w	r2, r2, #4
    28bc:	605a      	str	r2, [r3, #4]
    28be:	4770      	bx	lr
    28c0:	4b03      	ldr	r3, [pc, #12]	; (28d0 <USBHALHost::enableList(ENDPOINT_TYPE)+0x38>)
    28c2:	2204      	movs	r2, #4
    28c4:	609a      	str	r2, [r3, #8]
    28c6:	685a      	ldr	r2, [r3, #4]
    28c8:	f042 0220 	orr.w	r2, r2, #32
    28cc:	605a      	str	r2, [r3, #4]
    28ce:	4770      	bx	lr
    28d0:	5000c000 	.word	0x5000c000

000028d4 <USBHALHost::disableList(ENDPOINT_TYPE)>:
    28d4:	2902      	cmp	r1, #2
    28d6:	d01a      	beq.n	290e <USBHALHost::disableList(ENDPOINT_TYPE)+0x3a>
    28d8:	2903      	cmp	r1, #3
    28da:	d00d      	beq.n	28f8 <USBHALHost::disableList(ENDPOINT_TYPE)+0x24>
    28dc:	b109      	cbz	r1, 28e2 <USBHALHost::disableList(ENDPOINT_TYPE)+0xe>
    28de:	2000      	movs	r0, #0
    28e0:	4770      	bx	lr
    28e2:	4b10      	ldr	r3, [pc, #64]	; (2924 <USBHALHost::disableList(ENDPOINT_TYPE)+0x50>)
    28e4:	6858      	ldr	r0, [r3, #4]
    28e6:	f010 0010 	ands.w	r0, r0, #16
    28ea:	d0f9      	beq.n	28e0 <USBHALHost::disableList(ENDPOINT_TYPE)+0xc>
    28ec:	685a      	ldr	r2, [r3, #4]
    28ee:	2001      	movs	r0, #1
    28f0:	f022 0210 	bic.w	r2, r2, #16
    28f4:	605a      	str	r2, [r3, #4]
    28f6:	4770      	bx	lr
    28f8:	4b0a      	ldr	r3, [pc, #40]	; (2924 <USBHALHost::disableList(ENDPOINT_TYPE)+0x50>)
    28fa:	6858      	ldr	r0, [r3, #4]
    28fc:	f010 0004 	ands.w	r0, r0, #4
    2900:	d0ee      	beq.n	28e0 <USBHALHost::disableList(ENDPOINT_TYPE)+0xc>
    2902:	685a      	ldr	r2, [r3, #4]
    2904:	2001      	movs	r0, #1
    2906:	f022 0204 	bic.w	r2, r2, #4
    290a:	605a      	str	r2, [r3, #4]
    290c:	4770      	bx	lr
    290e:	4b05      	ldr	r3, [pc, #20]	; (2924 <USBHALHost::disableList(ENDPOINT_TYPE)+0x50>)
    2910:	6858      	ldr	r0, [r3, #4]
    2912:	f010 0020 	ands.w	r0, r0, #32
    2916:	d0e3      	beq.n	28e0 <USBHALHost::disableList(ENDPOINT_TYPE)+0xc>
    2918:	685a      	ldr	r2, [r3, #4]
    291a:	2001      	movs	r0, #1
    291c:	f022 0220 	bic.w	r2, r2, #32
    2920:	605a      	str	r2, [r3, #4]
    2922:	4770      	bx	lr
    2924:	5000c000 	.word	0x5000c000

00002928 <USBHALHost::getED()>:
    2928:	b508      	push	{r3, lr}
    292a:	2300      	movs	r3, #0
    292c:	e002      	b.n	2934 <USBHALHost::getED()+0xc>
    292e:	3301      	adds	r3, #1
    2930:	2b3c      	cmp	r3, #60	; 0x3c
    2932:	d009      	beq.n	2948 <USBHALHost::getED()+0x20>
    2934:	18c2      	adds	r2, r0, r3
    2936:	7c11      	ldrb	r1, [r2, #16]
    2938:	2900      	cmp	r1, #0
    293a:	d1f8      	bne.n	292e <USBHALHost::getED()+0x6>
    293c:	6880      	ldr	r0, [r0, #8]
    293e:	2101      	movs	r1, #1
    2940:	eb00 1003 	add.w	r0, r0, r3, lsl #4
    2944:	7411      	strb	r1, [r2, #16]
    2946:	bd08      	pop	{r3, pc}
    2948:	4802      	ldr	r0, [pc, #8]	; (2954 <USBHALHost::getED()+0x2c>)
    294a:	f006 fc65 	bl	9218 <perror>
    294e:	2000      	movs	r0, #0
    2950:	bd08      	pop	{r3, pc}
    2952:	bf00      	nop
    2954:	0000b8c0 	.word	0x0000b8c0

00002958 <USBHALHost::getTD()>:
    2958:	b508      	push	{r3, lr}
    295a:	2300      	movs	r3, #0
    295c:	e002      	b.n	2964 <USBHALHost::getTD()+0xc>
    295e:	3301      	adds	r3, #1
    2960:	2b78      	cmp	r3, #120	; 0x78
    2962:	d00b      	beq.n	297c <USBHALHost::getTD()+0x24>
    2964:	18c2      	adds	r2, r0, r3
    2966:	f892 104c 	ldrb.w	r1, [r2, #76]	; 0x4c
    296a:	2900      	cmp	r1, #0
    296c:	d1f7      	bne.n	295e <USBHALHost::getTD()+0x6>
    296e:	68c0      	ldr	r0, [r0, #12]
    2970:	2101      	movs	r1, #1
    2972:	eb00 1043 	add.w	r0, r0, r3, lsl #5
    2976:	f882 104c 	strb.w	r1, [r2, #76]	; 0x4c
    297a:	bd08      	pop	{r3, pc}
    297c:	4802      	ldr	r0, [pc, #8]	; (2988 <USBHALHost::getTD()+0x30>)
    297e:	f006 fc4b 	bl	9218 <perror>
    2982:	2000      	movs	r0, #0
    2984:	bd08      	pop	{r3, pc}
    2986:	bf00      	nop
    2988:	0000b8d8 	.word	0x0000b8d8

0000298c <USBHALHost::freeED(unsigned char volatile*)>:
    298c:	6883      	ldr	r3, [r0, #8]
    298e:	2200      	movs	r2, #0
    2990:	1ac9      	subs	r1, r1, r3
    2992:	eb00 1011 	add.w	r0, r0, r1, lsr #4
    2996:	7402      	strb	r2, [r0, #16]
    2998:	4770      	bx	lr
    299a:	bf00      	nop

0000299c <USBHALHost::freeTD(unsigned char volatile*)>:
    299c:	68c3      	ldr	r3, [r0, #12]
    299e:	2200      	movs	r2, #0
    29a0:	1ac9      	subs	r1, r1, r3
    29a2:	eb00 1051 	add.w	r0, r0, r1, lsr #5
    29a6:	f880 204c 	strb.w	r2, [r0, #76]	; 0x4c
    29aa:	4770      	bx	lr

000029ac <USBHALHost::resetRootHub()>:
    29ac:	4905      	ldr	r1, [pc, #20]	; (29c4 <USBHALHost::resetRootHub()+0x18>)
    29ae:	2310      	movs	r3, #16
    29b0:	654b      	str	r3, [r1, #84]	; 0x54
    29b2:	6d4b      	ldr	r3, [r1, #84]	; 0x54
    29b4:	4a03      	ldr	r2, [pc, #12]	; (29c4 <USBHALHost::resetRootHub()+0x18>)
    29b6:	06db      	lsls	r3, r3, #27
    29b8:	d4fb      	bmi.n	29b2 <USBHALHost::resetRootHub()+0x6>
    29ba:	f44f 1380 	mov.w	r3, #1048576	; 0x100000
    29be:	6553      	str	r3, [r2, #84]	; 0x54
    29c0:	4770      	bx	lr
    29c2:	bf00      	nop
    29c4:	5000c000 	.word	0x5000c000

000029c8 <USBHALHost::UsbIrqhandler()>:
    29c8:	e92d 41f0 	stmdb	sp!, {r4, r5, r6, r7, r8, lr}
    29cc:	4c3e      	ldr	r4, [pc, #248]	; (2ac8 <USBHALHost::UsbIrqhandler()+0x100>)
    29ce:	b082      	sub	sp, #8
    29d0:	68e3      	ldr	r3, [r4, #12]
    29d2:	6922      	ldr	r2, [r4, #16]
    29d4:	4605      	mov	r5, r0
    29d6:	421a      	tst	r2, r3
    29d8:	d02b      	beq.n	2a32 <USBHALHost::UsbIrqhandler()+0x6a>
    29da:	68e3      	ldr	r3, [r4, #12]
    29dc:	6926      	ldr	r6, [r4, #16]
    29de:	401e      	ands	r6, r3
    29e0:	0670      	lsls	r0, r6, #25
    29e2:	d529      	bpl.n	2a38 <USBHALHost::UsbIrqhandler()+0x70>
    29e4:	6d63      	ldr	r3, [r4, #84]	; 0x54
    29e6:	03d9      	lsls	r1, r3, #15
    29e8:	d50a      	bpl.n	2a00 <USBHALHost::UsbIrqhandler()+0x38>
    29ea:	6d21      	ldr	r1, [r4, #80]	; 0x50
    29ec:	f411 4700 	ands.w	r7, r1, #32768	; 0x8000
    29f0:	d025      	beq.n	2a3e <USBHALHost::UsbIrqhandler()+0x76>
    29f2:	f006 0602 	and.w	r6, r6, #2
    29f6:	4b34      	ldr	r3, [pc, #208]	; (2ac8 <USBHALHost::UsbIrqhandler()+0x100>)
    29f8:	f44f 3280 	mov.w	r2, #65536	; 0x10000
    29fc:	655a      	str	r2, [r3, #84]	; 0x54
    29fe:	e001      	b.n	2a04 <USBHALHost::UsbIrqhandler()+0x3c>
    2a00:	f006 0602 	and.w	r6, r6, #2
    2a04:	4b30      	ldr	r3, [pc, #192]	; (2ac8 <USBHALHost::UsbIrqhandler()+0x100>)
    2a06:	6d5a      	ldr	r2, [r3, #84]	; 0x54
    2a08:	02d2      	lsls	r2, r2, #11
    2a0a:	bf44      	itt	mi
    2a0c:	f44f 1280 	movmi.w	r2, #1048576	; 0x100000
    2a10:	655a      	strmi	r2, [r3, #84]	; 0x54
    2a12:	4b2d      	ldr	r3, [pc, #180]	; (2ac8 <USBHALHost::UsbIrqhandler()+0x100>)
    2a14:	2240      	movs	r2, #64	; 0x40
    2a16:	60da      	str	r2, [r3, #12]
    2a18:	b15e      	cbz	r6, 2a32 <USBHALHost::UsbIrqhandler()+0x6a>
    2a1a:	686a      	ldr	r2, [r5, #4]
    2a1c:	682b      	ldr	r3, [r5, #0]
    2a1e:	f8d2 1084 	ldr.w	r1, [r2, #132]	; 0x84
    2a22:	689b      	ldr	r3, [r3, #8]
    2a24:	f021 0101 	bic.w	r1, r1, #1
    2a28:	4628      	mov	r0, r5
    2a2a:	4798      	blx	r3
    2a2c:	4b26      	ldr	r3, [pc, #152]	; (2ac8 <USBHALHost::UsbIrqhandler()+0x100>)
    2a2e:	2202      	movs	r2, #2
    2a30:	60da      	str	r2, [r3, #12]
    2a32:	b002      	add	sp, #8
    2a34:	e8bd 81f0 	ldmia.w	sp!, {r4, r5, r6, r7, r8, pc}
    2a38:	f006 0602 	and.w	r6, r6, #2
    2a3c:	e7ec      	b.n	2a18 <USBHALHost::UsbIrqhandler()+0x50>
    2a3e:	6d63      	ldr	r3, [r4, #84]	; 0x54
    2a40:	f013 0801 	ands.w	r8, r3, #1
    2a44:	d130      	bne.n	2aa8 <USBHALHost::UsbIrqhandler()+0xe0>
    2a46:	f016 0602 	ands.w	r6, r6, #2
    2a4a:	d115      	bne.n	2a78 <USBHALHost::UsbIrqhandler()+0xb0>
    2a4c:	686b      	ldr	r3, [r5, #4]
    2a4e:	20c8      	movs	r0, #200	; 0xc8
    2a50:	f8d3 2084 	ldr.w	r2, [r3, #132]	; 0x84
    2a54:	f8c3 6084 	str.w	r6, [r3, #132]	; 0x84
    2a58:	f004 fa5e 	bl	6f18 <wait_ms>
    2a5c:	e895 000c 	ldmia.w	r5, {r2, r3}
    2a60:	f8d3 3084 	ldr.w	r3, [r3, #132]	; 0x84
    2a64:	4628      	mov	r0, r5
    2a66:	f023 0301 	bic.w	r3, r3, #1
    2a6a:	9300      	str	r3, [sp, #0]
    2a6c:	6854      	ldr	r4, [r2, #4]
    2a6e:	4631      	mov	r1, r6
    2a70:	2201      	movs	r2, #1
    2a72:	4633      	mov	r3, r6
    2a74:	47a0      	blx	r4
    2a76:	e7be      	b.n	29f6 <USBHALHost::UsbIrqhandler()+0x2e>
    2a78:	20c8      	movs	r0, #200	; 0xc8
    2a7a:	f004 fa4d 	bl	6f18 <wait_ms>
    2a7e:	e895 000c 	ldmia.w	r5, {r2, r3}
    2a82:	f8d3 3084 	ldr.w	r3, [r3, #132]	; 0x84
    2a86:	4641      	mov	r1, r8
    2a88:	f023 0301 	bic.w	r3, r3, #1
    2a8c:	9300      	str	r3, [sp, #0]
    2a8e:	6857      	ldr	r7, [r2, #4]
    2a90:	4643      	mov	r3, r8
    2a92:	2201      	movs	r2, #1
    2a94:	4628      	mov	r0, r5
    2a96:	47b8      	blx	r7
    2a98:	686b      	ldr	r3, [r5, #4]
    2a9a:	2202      	movs	r2, #2
    2a9c:	f8d3 1084 	ldr.w	r1, [r3, #132]	; 0x84
    2aa0:	f8c3 8084 	str.w	r8, [r3, #132]	; 0x84
    2aa4:	60e2      	str	r2, [r4, #12]
    2aa6:	e7a6      	b.n	29f6 <USBHALHost::UsbIrqhandler()+0x2e>
    2aa8:	2096      	movs	r0, #150	; 0x96
    2aaa:	f004 fa35 	bl	6f18 <wait_ms>
    2aae:	682a      	ldr	r2, [r5, #0]
    2ab0:	6d63      	ldr	r3, [r4, #84]	; 0x54
    2ab2:	9700      	str	r7, [sp, #0]
    2ab4:	6814      	ldr	r4, [r2, #0]
    2ab6:	f3c3 2340 	ubfx	r3, r3, #9, #1
    2aba:	4639      	mov	r1, r7
    2abc:	4628      	mov	r0, r5
    2abe:	2201      	movs	r2, #1
    2ac0:	f006 0602 	and.w	r6, r6, #2
    2ac4:	47a0      	blx	r4
    2ac6:	e796      	b.n	29f6 <USBHALHost::UsbIrqhandler()+0x2e>
    2ac8:	5000c000 	.word	0x5000c000

00002acc <USBHALHost::_usbisr()>:
    2acc:	4b02      	ldr	r3, [pc, #8]	; (2ad8 <USBHALHost::_usbisr()+0xc>)
    2ace:	6818      	ldr	r0, [r3, #0]
    2ad0:	b108      	cbz	r0, 2ad6 <USBHALHost::_usbisr()+0xa>
    2ad2:	f7ff bf79 	b.w	29c8 <USBHALHost::UsbIrqhandler()>
    2ad6:	4770      	bx	lr
    2ad8:	10000244 	.word	0x10000244

00002adc <FATFileSystem::disk_initialize()>:
    2adc:	2000      	movs	r0, #0
    2ade:	4770      	bx	lr

00002ae0 <FATFileSystem::disk_status()>:
    2ae0:	2000      	movs	r0, #0
    2ae2:	4770      	bx	lr

00002ae4 <FATFileSystem::disk_sync()>:
    2ae4:	2000      	movs	r0, #0
    2ae6:	4770      	bx	lr

00002ae8 <FATFileSystem::mount()>:
    2ae8:	4601      	mov	r1, r0
    2aea:	b508      	push	{r3, lr}
    2aec:	3110      	adds	r1, #16
    2aee:	f890 0240 	ldrb.w	r0, [r0, #576]	; 0x240
    2af2:	f001 fa91 	bl	4018 <f_mount>
    2af6:	3000      	adds	r0, #0
    2af8:	bf18      	it	ne
    2afa:	2001      	movne	r0, #1
    2afc:	4240      	negs	r0, r0
    2afe:	bd08      	pop	{r3, pc}

00002b00 <FATFileSystem::unmount()>:
    2b00:	6803      	ldr	r3, [r0, #0]
    2b02:	b510      	push	{r4, lr}
    2b04:	6b9b      	ldr	r3, [r3, #56]	; 0x38
    2b06:	4604      	mov	r4, r0
    2b08:	4798      	blx	r3
    2b0a:	4601      	mov	r1, r0
    2b0c:	b940      	cbnz	r0, 2b20 <FATFileSystem::unmount()+0x20>
    2b0e:	f894 0240 	ldrb.w	r0, [r4, #576]	; 0x240
    2b12:	f001 fa81 	bl	4018 <f_mount>
    2b16:	3000      	adds	r0, #0
    2b18:	bf18      	it	ne
    2b1a:	2001      	movne	r0, #1
    2b1c:	4240      	negs	r0, r0
    2b1e:	bd10      	pop	{r4, pc}
    2b20:	f04f 30ff 	mov.w	r0, #4294967295	; 0xffffffff
    2b24:	bd10      	pop	{r4, pc}
    2b26:	bf00      	nop

00002b28 <FATFileSystem::~FATFileSystem()>:
    2b28:	4b09      	ldr	r3, [pc, #36]	; (2b50 <FATFileSystem::~FATFileSystem()+0x28>)
    2b2a:	490a      	ldr	r1, [pc, #40]	; (2b54 <FATFileSystem::~FATFileSystem()+0x2c>)
    2b2c:	681a      	ldr	r2, [r3, #0]
    2b2e:	b510      	push	{r4, lr}
    2b30:	4282      	cmp	r2, r0
    2b32:	4604      	mov	r4, r0
    2b34:	6001      	str	r1, [r0, #0]
    2b36:	d004      	beq.n	2b42 <FATFileSystem::~FATFileSystem()+0x1a>
    2b38:	4620      	mov	r0, r4
    2b3a:	f004 fa01 	bl	6f40 <mbed::FileSystemLike::~FileSystemLike()>
    2b3e:	4620      	mov	r0, r4
    2b40:	bd10      	pop	{r4, pc}
    2b42:	2200      	movs	r2, #0
    2b44:	4610      	mov	r0, r2
    2b46:	4611      	mov	r1, r2
    2b48:	601a      	str	r2, [r3, #0]
    2b4a:	f001 fa65 	bl	4018 <f_mount>
    2b4e:	e7f3      	b.n	2b38 <FATFileSystem::~FATFileSystem()+0x10>
    2b50:	10000248 	.word	0x10000248
    2b54:	0000b8f8 	.word	0x0000b8f8

00002b58 <FATFileSystem::~FATFileSystem()>:
    2b58:	b510      	push	{r4, lr}
    2b5a:	4604      	mov	r4, r0
    2b5c:	f7ff ffe4 	bl	2b28 <FATFileSystem::~FATFileSystem()>
    2b60:	4620      	mov	r0, r4
    2b62:	f005 fa8f 	bl	8084 <operator delete(void*)>
    2b66:	4620      	mov	r0, r4
    2b68:	bd10      	pop	{r4, pc}
    2b6a:	bf00      	nop

00002b6c <FATFileSystem::opendir(char const*)>:
    2b6c:	b510      	push	{r4, lr}
    2b6e:	b08a      	sub	sp, #40	; 0x28
    2b70:	a801      	add	r0, sp, #4
    2b72:	f001 fe03 	bl	477c <f_opendir>
    2b76:	b950      	cbnz	r0, 2b8e <FATFileSystem::opendir(char const*)+0x22>
    2b78:	f44f 7094 	mov.w	r0, #296	; 0x128
    2b7c:	f005 fa88 	bl	8090 <operator new(unsigned int)>
    2b80:	a901      	add	r1, sp, #4
    2b82:	4604      	mov	r4, r0
    2b84:	f002 fbc8 	bl	5318 <FATDirHandle::FATDirHandle(FATFS_DIR const&)>
    2b88:	4620      	mov	r0, r4
    2b8a:	b00a      	add	sp, #40	; 0x28
    2b8c:	bd10      	pop	{r4, pc}
    2b8e:	2000      	movs	r0, #0
    2b90:	b00a      	add	sp, #40	; 0x28
    2b92:	bd10      	pop	{r4, pc}

00002b94 <FATFileSystem::mkdir(char const*, unsigned int)>:
    2b94:	b508      	push	{r3, lr}
    2b96:	4608      	mov	r0, r1
    2b98:	f001 feca 	bl	4930 <f_mkdir>
    2b9c:	3000      	adds	r0, #0
    2b9e:	bf18      	it	ne
    2ba0:	2001      	movne	r0, #1
    2ba2:	4240      	negs	r0, r0
    2ba4:	bd08      	pop	{r3, pc}
    2ba6:	bf00      	nop

00002ba8 <FATFileSystem::format()>:
    2ba8:	b508      	push	{r3, lr}
    2baa:	2100      	movs	r1, #0
    2bac:	f44f 7200 	mov.w	r2, #512	; 0x200
    2bb0:	f890 0240 	ldrb.w	r0, [r0, #576]	; 0x240
    2bb4:	f002 f86a 	bl	4c8c <f_mkfs>
    2bb8:	3000      	adds	r0, #0
    2bba:	bf18      	it	ne
    2bbc:	2001      	movne	r0, #1
    2bbe:	4240      	negs	r0, r0
    2bc0:	bd08      	pop	{r3, pc}
    2bc2:	bf00      	nop

00002bc4 <FATFileSystem::rename(char const*, char const*)>:
    2bc4:	b508      	push	{r3, lr}
    2bc6:	4608      	mov	r0, r1
    2bc8:	4611      	mov	r1, r2
    2bca:	f001 ffbb 	bl	4b44 <f_rename>
    2bce:	3000      	adds	r0, #0
    2bd0:	bf18      	it	ne
    2bd2:	2001      	movne	r0, #1
    2bd4:	4240      	negs	r0, r0
    2bd6:	bd08      	pop	{r3, pc}

00002bd8 <FATFileSystem::remove(char const*)>:
    2bd8:	b508      	push	{r3, lr}
    2bda:	4608      	mov	r0, r1
    2bdc:	f001 fe3c 	bl	4858 <f_unlink>
    2be0:	3000      	adds	r0, #0
    2be2:	bf18      	it	ne
    2be4:	2001      	movne	r0, #1
    2be6:	4240      	negs	r0, r0
    2be8:	bd08      	pop	{r3, pc}
    2bea:	bf00      	nop

00002bec <FATFileSystem::open(char const*, int)>:
    2bec:	b530      	push	{r4, r5, lr}
    2bee:	f8d0 5240 	ldr.w	r5, [r0, #576]	; 0x240
    2bf2:	f2ad 6da4 	subw	sp, sp, #1700	; 0x6a4
    2bf6:	460b      	mov	r3, r1
    2bf8:	4614      	mov	r4, r2
    2bfa:	a886      	add	r0, sp, #536	; 0x218
    2bfc:	462a      	mov	r2, r5
    2bfe:	491f      	ldr	r1, [pc, #124]	; (2c7c <FATFileSystem::open(char const*, int)+0x90>)
    2c00:	f006 fba2 	bl	9348 <siprintf>
    2c04:	07a5      	lsls	r5, r4, #30
    2c06:	d430      	bmi.n	2c6a <FATFileSystem::open(char const*, int)+0x7e>
    2c08:	f014 0f01 	tst.w	r4, #1
    2c0c:	bf0c      	ite	eq
    2c0e:	2201      	moveq	r2, #1
    2c10:	2202      	movne	r2, #2
    2c12:	05a0      	lsls	r0, r4, #22
    2c14:	d505      	bpl.n	2c22 <FATFileSystem::open(char const*, int)+0x36>
    2c16:	0561      	lsls	r1, r4, #21
    2c18:	bf4c      	ite	mi
    2c1a:	f042 0208 	orrmi.w	r2, r2, #8
    2c1e:	f042 0210 	orrpl.w	r2, r2, #16
    2c22:	a986      	add	r1, sp, #536	; 0x218
    2c24:	a896      	add	r0, sp, #600	; 0x258
    2c26:	f001 fa07 	bl	4038 <f_open>
    2c2a:	bb28      	cbnz	r0, 2c78 <FATFileSystem::open(char const*, int)+0x8c>
    2c2c:	0723      	lsls	r3, r4, #28
    2c2e:	d41e      	bmi.n	2c6e <FATFileSystem::open(char const*, int)+0x82>
    2c30:	f20d 447c 	addw	r4, sp, #1148	; 0x47c
    2c34:	a996      	add	r1, sp, #600	; 0x258
    2c36:	f44f 7209 	mov.w	r2, #548	; 0x224
    2c3a:	4620      	mov	r0, r4
    2c3c:	f005 fddc 	bl	87f8 <memcpy>
    2c40:	f44f 700a 	mov.w	r0, #552	; 0x228
    2c44:	f005 fa24 	bl	8090 <operator new(unsigned int)>
    2c48:	f50d 6191 	add.w	r1, sp, #1160	; 0x488
    2c4c:	4605      	mov	r5, r0
    2c4e:	f44f 7206 	mov.w	r2, #536	; 0x218
    2c52:	4668      	mov	r0, sp
    2c54:	f005 fdd0 	bl	87f8 <memcpy>
    2c58:	e894 000e 	ldmia.w	r4, {r1, r2, r3}
    2c5c:	4628      	mov	r0, r5
    2c5e:	f002 fbd1 	bl	5404 <FATFileHandle::FATFileHandle(FIL)>
    2c62:	4628      	mov	r0, r5
    2c64:	f20d 6da4 	addw	sp, sp, #1700	; 0x6a4
    2c68:	bd30      	pop	{r4, r5, pc}
    2c6a:	2203      	movs	r2, #3
    2c6c:	e7d1      	b.n	2c12 <FATFileSystem::open(char const*, int)+0x26>
    2c6e:	a896      	add	r0, sp, #600	; 0x258
    2c70:	9999      	ldr	r1, [sp, #612]	; 0x264
    2c72:	f001 fcbf 	bl	45f4 <f_lseek>
    2c76:	e7db      	b.n	2c30 <FATFileSystem::open(char const*, int)+0x44>
    2c78:	2000      	movs	r0, #0
    2c7a:	e7f3      	b.n	2c64 <FATFileSystem::open(char const*, int)+0x78>
    2c7c:	0000b938 	.word	0x0000b938

00002c80 <get_fattime>:
    2c80:	b510      	push	{r4, lr}
    2c82:	b082      	sub	sp, #8
    2c84:	a801      	add	r0, sp, #4
    2c86:	f004 f915 	bl	6eb4 <time>
    2c8a:	a801      	add	r0, sp, #4
    2c8c:	f005 fd42 	bl	8714 <localtime>
    2c90:	68c2      	ldr	r2, [r0, #12]
    2c92:	6881      	ldr	r1, [r0, #8]
    2c94:	0414      	lsls	r4, r2, #16
    2c96:	6803      	ldr	r3, [r0, #0]
    2c98:	6842      	ldr	r2, [r0, #4]
    2c9a:	ea44 21c1 	orr.w	r1, r4, r1, lsl #11
    2c9e:	6944      	ldr	r4, [r0, #20]
    2ca0:	ea41 1242 	orr.w	r2, r1, r2, lsl #5
    2ca4:	eb03 73d3 	add.w	r3, r3, r3, lsr #31
    2ca8:	6900      	ldr	r0, [r0, #16]
    2caa:	ea42 0263 	orr.w	r2, r2, r3, asr #1
    2cae:	f1a4 0350 	sub.w	r3, r4, #80	; 0x50
    2cb2:	ea42 6343 	orr.w	r3, r2, r3, lsl #25
    2cb6:	3001      	adds	r0, #1
    2cb8:	ea43 5040 	orr.w	r0, r3, r0, lsl #21
    2cbc:	b002      	add	sp, #8
    2cbe:	bd10      	pop	{r4, pc}

00002cc0 <FATFileSystem::FATFileSystem(char const*)>:
    2cc0:	b538      	push	{r3, r4, r5, lr}
    2cc2:	4604      	mov	r4, r0
    2cc4:	460d      	mov	r5, r1
    2cc6:	f004 f953 	bl	6f70 <mbed::FileSystemLike::FileSystemLike(char const*)>
    2cca:	4b09      	ldr	r3, [pc, #36]	; (2cf0 <FATFileSystem::FATFileSystem(char const*)+0x30>)
    2ccc:	4a09      	ldr	r2, [pc, #36]	; (2cf4 <FATFileSystem::FATFileSystem(char const*)+0x34>)
    2cce:	6818      	ldr	r0, [r3, #0]
    2cd0:	6022      	str	r2, [r4, #0]
    2cd2:	b128      	cbz	r0, 2ce0 <FATFileSystem::FATFileSystem(char const*)+0x20>
    2cd4:	4629      	mov	r1, r5
    2cd6:	4808      	ldr	r0, [pc, #32]	; (2cf8 <FATFileSystem::FATFileSystem(char const*)+0x38>)
    2cd8:	f004 f87c 	bl	6dd4 <error>
    2cdc:	4620      	mov	r0, r4
    2cde:	bd38      	pop	{r3, r4, r5, pc}
    2ce0:	f8c4 0240 	str.w	r0, [r4, #576]	; 0x240
    2ce4:	f104 0110 	add.w	r1, r4, #16
    2ce8:	601c      	str	r4, [r3, #0]
    2cea:	f001 f995 	bl	4018 <f_mount>
    2cee:	e7f5      	b.n	2cdc <FATFileSystem::FATFileSystem(char const*)+0x1c>
    2cf0:	10000248 	.word	0x10000248
    2cf4:	0000b8f8 	.word	0x0000b8f8
    2cf8:	0000b940 	.word	0x0000b940

00002cfc <move_window(FATFS*, unsigned long)>:
    2cfc:	e92d 41f0 	stmdb	sp!, {r4, r5, r6, r7, r8, lr}
    2d00:	6ac5      	ldr	r5, [r0, #44]	; 0x2c
    2d02:	4604      	mov	r4, r0
    2d04:	428d      	cmp	r5, r1
    2d06:	460e      	mov	r6, r1
    2d08:	d002      	beq.n	2d10 <move_window(FATFS*, unsigned long)+0x14>
    2d0a:	7903      	ldrb	r3, [r0, #4]
    2d0c:	b973      	cbnz	r3, 2d2c <move_window(FATFS*, unsigned long)+0x30>
    2d0e:	b916      	cbnz	r6, 2d16 <move_window(FATFS*, unsigned long)+0x1a>
    2d10:	2000      	movs	r0, #0
    2d12:	e8bd 81f0 	ldmia.w	sp!, {r4, r5, r6, r7, r8, pc}
    2d16:	7860      	ldrb	r0, [r4, #1]
    2d18:	f104 0130 	add.w	r1, r4, #48	; 0x30
    2d1c:	4632      	mov	r2, r6
    2d1e:	2301      	movs	r3, #1
    2d20:	f002 fbdc 	bl	54dc <disk_read(unsigned char, unsigned char*, unsigned long, unsigned char)>
    2d24:	bb20      	cbnz	r0, 2d70 <move_window(FATFS*, unsigned long)+0x74>
    2d26:	62e6      	str	r6, [r4, #44]	; 0x2c
    2d28:	e8bd 81f0 	ldmia.w	sp!, {r4, r5, r6, r7, r8, pc}
    2d2c:	f100 0830 	add.w	r8, r0, #48	; 0x30
    2d30:	4641      	mov	r1, r8
    2d32:	7840      	ldrb	r0, [r0, #1]
    2d34:	462a      	mov	r2, r5
    2d36:	2301      	movs	r3, #1
    2d38:	f002 fbe2 	bl	5500 <disk_write(unsigned char, unsigned char const*, unsigned long, unsigned char)>
    2d3c:	b9c0      	cbnz	r0, 2d70 <move_window(FATFS*, unsigned long)+0x74>
    2d3e:	69e3      	ldr	r3, [r4, #28]
    2d40:	6a22      	ldr	r2, [r4, #32]
    2d42:	7120      	strb	r0, [r4, #4]
    2d44:	441a      	add	r2, r3
    2d46:	4295      	cmp	r5, r2
    2d48:	d2e1      	bcs.n	2d0e <move_window(FATFS*, unsigned long)+0x12>
    2d4a:	78e7      	ldrb	r7, [r4, #3]
    2d4c:	2f01      	cmp	r7, #1
    2d4e:	d801      	bhi.n	2d54 <move_window(FATFS*, unsigned long)+0x58>
    2d50:	e7dd      	b.n	2d0e <move_window(FATFS*, unsigned long)+0x12>
    2d52:	69e3      	ldr	r3, [r4, #28]
    2d54:	441d      	add	r5, r3
    2d56:	3f01      	subs	r7, #1
    2d58:	462a      	mov	r2, r5
    2d5a:	7860      	ldrb	r0, [r4, #1]
    2d5c:	4641      	mov	r1, r8
    2d5e:	2301      	movs	r3, #1
    2d60:	b2ff      	uxtb	r7, r7
    2d62:	f002 fbcd 	bl	5500 <disk_write(unsigned char, unsigned char const*, unsigned long, unsigned char)>
    2d66:	2f01      	cmp	r7, #1
    2d68:	d1f3      	bne.n	2d52 <move_window(FATFS*, unsigned long)+0x56>
    2d6a:	2e00      	cmp	r6, #0
    2d6c:	d0d0      	beq.n	2d10 <move_window(FATFS*, unsigned long)+0x14>
    2d6e:	e7d2      	b.n	2d16 <move_window(FATFS*, unsigned long)+0x1a>
    2d70:	2001      	movs	r0, #1
    2d72:	e8bd 81f0 	ldmia.w	sp!, {r4, r5, r6, r7, r8, pc}
    2d76:	bf00      	nop

00002d78 <validate(void*)>:
    2d78:	b508      	push	{r3, lr}
    2d7a:	6803      	ldr	r3, [r0, #0]
    2d7c:	b10b      	cbz	r3, 2d82 <validate(void*)+0xa>
    2d7e:	781a      	ldrb	r2, [r3, #0]
    2d80:	b90a      	cbnz	r2, 2d86 <validate(void*)+0xe>
    2d82:	2009      	movs	r0, #9
    2d84:	bd08      	pop	{r3, pc}
    2d86:	8882      	ldrh	r2, [r0, #4]
    2d88:	88d9      	ldrh	r1, [r3, #6]
    2d8a:	4291      	cmp	r1, r2
    2d8c:	d1f9      	bne.n	2d82 <validate(void*)+0xa>
    2d8e:	7858      	ldrb	r0, [r3, #1]
    2d90:	f002 fb98 	bl	54c4 <disk_status(unsigned char)>
    2d94:	f010 0f01 	tst.w	r0, #1
    2d98:	bf0c      	ite	eq
    2d9a:	2000      	moveq	r0, #0
    2d9c:	2003      	movne	r0, #3
    2d9e:	bd08      	pop	{r3, pc}

00002da0 <get_fileinfo(FATFS_DIR*, FILINFO*)>:
    2da0:	b5f8      	push	{r3, r4, r5, r6, r7, lr}
    2da2:	6903      	ldr	r3, [r0, #16]
    2da4:	460e      	mov	r6, r1
    2da6:	f101 0509 	add.w	r5, r1, #9
    2daa:	2b00      	cmp	r3, #0
    2dac:	d04d      	beq.n	2e4a <get_fileinfo(FATFS_DIR*, FILINFO*)+0xaa>
    2dae:	6944      	ldr	r4, [r0, #20]
    2db0:	2200      	movs	r2, #0
    2db2:	f894 c00c 	ldrb.w	r12, [r4, #12]
    2db6:	f00c 0708 	and.w	r7, r12, #8
    2dba:	b2ff      	uxtb	r7, r7
    2dbc:	5ca3      	ldrb	r3, [r4, r2]
    2dbe:	3201      	adds	r2, #1
    2dc0:	2b20      	cmp	r3, #32
    2dc2:	d00d      	beq.n	2de0 <get_fileinfo(FATFS_DIR*, FILINFO*)+0x40>
    2dc4:	2b05      	cmp	r3, #5
    2dc6:	bf08      	it	eq
    2dc8:	23e5      	moveq	r3, #229	; 0xe5
    2dca:	f1a3 0141 	sub.w	r1, r3, #65	; 0x41
    2dce:	b11f      	cbz	r7, 2dd8 <get_fileinfo(FATFS_DIR*, FILINFO*)+0x38>
    2dd0:	2919      	cmp	r1, #25
    2dd2:	bf9c      	itt	ls
    2dd4:	3320      	addls	r3, #32
    2dd6:	b2db      	uxtbls	r3, r3
    2dd8:	2a08      	cmp	r2, #8
    2dda:	f805 3b01 	strb.w	r3, [r5], #1
    2dde:	d1ed      	bne.n	2dbc <get_fileinfo(FATFS_DIR*, FILINFO*)+0x1c>
    2de0:	7a23      	ldrb	r3, [r4, #8]
    2de2:	2b20      	cmp	r3, #32
    2de4:	d01a      	beq.n	2e1c <get_fileinfo(FATFS_DIR*, FILINFO*)+0x7c>
    2de6:	4629      	mov	r1, r5
    2de8:	f00c 0c10 	and.w	r12, r12, #16
    2dec:	232e      	movs	r3, #46	; 0x2e
    2dee:	fa5f fc8c 	uxtb.w	r12, r12
    2df2:	f801 3b04 	strb.w	r3, [r1], #4
    2df6:	3501      	adds	r5, #1
    2df8:	1de2      	adds	r2, r4, #7
    2dfa:	f812 3f01 	ldrb.w	r3, [r2, #1]!
    2dfe:	2b20      	cmp	r3, #32
    2e00:	f1a3 0741 	sub.w	r7, r3, #65	; 0x41
    2e04:	d00a      	beq.n	2e1c <get_fileinfo(FATFS_DIR*, FILINFO*)+0x7c>
    2e06:	f1bc 0f00 	cmp.w	r12, #0
    2e0a:	d003      	beq.n	2e14 <get_fileinfo(FATFS_DIR*, FILINFO*)+0x74>
    2e0c:	2f19      	cmp	r7, #25
    2e0e:	bf9c      	itt	ls
    2e10:	3320      	addls	r3, #32
    2e12:	b2db      	uxtbls	r3, r3
    2e14:	f805 3b01 	strb.w	r3, [r5], #1
    2e18:	428d      	cmp	r5, r1
    2e1a:	d1ee      	bne.n	2dfa <get_fileinfo(FATFS_DIR*, FILINFO*)+0x5a>
    2e1c:	7ae3      	ldrb	r3, [r4, #11]
    2e1e:	7233      	strb	r3, [r6, #8]
    2e20:	7fa3      	ldrb	r3, [r4, #30]
    2e22:	7fe2      	ldrb	r2, [r4, #31]
    2e24:	7f21      	ldrb	r1, [r4, #28]
    2e26:	041b      	lsls	r3, r3, #16
    2e28:	ea43 6302 	orr.w	r3, r3, r2, lsl #24
    2e2c:	7f62      	ldrb	r2, [r4, #29]
    2e2e:	430b      	orrs	r3, r1
    2e30:	ea43 2302 	orr.w	r3, r3, r2, lsl #8
    2e34:	6033      	str	r3, [r6, #0]
    2e36:	7e62      	ldrb	r2, [r4, #25]
    2e38:	7e23      	ldrb	r3, [r4, #24]
    2e3a:	ea43 2302 	orr.w	r3, r3, r2, lsl #8
    2e3e:	80b3      	strh	r3, [r6, #4]
    2e40:	7de2      	ldrb	r2, [r4, #23]
    2e42:	7da3      	ldrb	r3, [r4, #22]
    2e44:	ea43 2302 	orr.w	r3, r3, r2, lsl #8
    2e48:	80f3      	strh	r3, [r6, #6]
    2e4a:	2400      	movs	r4, #0
    2e4c:	702c      	strb	r4, [r5, #0]
    2e4e:	69b5      	ldr	r5, [r6, #24]
    2e50:	b135      	cbz	r5, 2e60 <get_fileinfo(FATFS_DIR*, FILINFO*)+0xc0>
    2e52:	69f3      	ldr	r3, [r6, #28]
    2e54:	b123      	cbz	r3, 2e60 <get_fileinfo(FATFS_DIR*, FILINFO*)+0xc0>
    2e56:	6903      	ldr	r3, [r0, #16]
    2e58:	b91b      	cbnz	r3, 2e62 <get_fileinfo(FATFS_DIR*, FILINFO*)+0xc2>
    2e5a:	2400      	movs	r4, #0
    2e5c:	2300      	movs	r3, #0
    2e5e:	552b      	strb	r3, [r5, r4]
    2e60:	bdf8      	pop	{r3, r4, r5, r6, r7, pc}
    2e62:	8c02      	ldrh	r2, [r0, #32]
    2e64:	f64f 73ff 	movw	r3, #65535	; 0xffff
    2e68:	429a      	cmp	r2, r3
    2e6a:	d0f6      	beq.n	2e5a <get_fileinfo(FATFS_DIR*, FILINFO*)+0xba>
    2e6c:	69c7      	ldr	r7, [r0, #28]
    2e6e:	8838      	ldrh	r0, [r7, #0]
    2e70:	b960      	cbnz	r0, 2e8c <get_fileinfo(FATFS_DIR*, FILINFO*)+0xec>
    2e72:	e7f2      	b.n	2e5a <get_fileinfo(FATFS_DIR*, FILINFO*)+0xba>
    2e74:	69f3      	ldr	r3, [r6, #28]
    2e76:	3b01      	subs	r3, #1
    2e78:	429c      	cmp	r4, r3
    2e7a:	d2ee      	bcs.n	2e5a <get_fileinfo(FATFS_DIR*, FILINFO*)+0xba>
    2e7c:	3401      	adds	r4, #1
    2e7e:	192b      	adds	r3, r5, r4
    2e80:	f803 0c01 	strb.w	r0, [r3, #-1]
    2e84:	f837 0014 	ldrh.w	r0, [r7, r4, lsl #1]
    2e88:	2800      	cmp	r0, #0
    2e8a:	d0e7      	beq.n	2e5c <get_fileinfo(FATFS_DIR*, FILINFO*)+0xbc>
    2e8c:	2100      	movs	r1, #0
    2e8e:	f002 fad1 	bl	5434 <ff_convert>
    2e92:	2800      	cmp	r0, #0
    2e94:	d1ee      	bne.n	2e74 <get_fileinfo(FATFS_DIR*, FILINFO*)+0xd4>
    2e96:	e7e0      	b.n	2e5a <get_fileinfo(FATFS_DIR*, FILINFO*)+0xba>

00002e98 <sync(FATFS*)>:
    2e98:	e92d 4ff8 	stmdb	sp!, {r3, r4, r5, r6, r7, r8, r9, r10, r11, lr}
    2e9c:	2100      	movs	r1, #0
    2e9e:	4605      	mov	r5, r0
    2ea0:	f7ff ff2c 	bl	2cfc <move_window(FATFS*, unsigned long)>
    2ea4:	4603      	mov	r3, r0
    2ea6:	b950      	cbnz	r0, 2ebe <sync(FATFS*)+0x26>
    2ea8:	782b      	ldrb	r3, [r5, #0]
    2eaa:	2b03      	cmp	r3, #3
    2eac:	d00a      	beq.n	2ec4 <sync(FATFS*)+0x2c>
    2eae:	2100      	movs	r1, #0
    2eb0:	7868      	ldrb	r0, [r5, #1]
    2eb2:	460a      	mov	r2, r1
    2eb4:	f002 fb36 	bl	5524 <disk_ioctl(unsigned char, unsigned char, void*)>
    2eb8:	1c03      	adds	r3, r0, #0
    2eba:	bf18      	it	ne
    2ebc:	2301      	movne	r3, #1
    2ebe:	4618      	mov	r0, r3
    2ec0:	e8bd 8ff8 	ldmia.w	sp!, {r3, r4, r5, r6, r7, r8, r9, r10, r11, pc}
    2ec4:	796b      	ldrb	r3, [r5, #5]
    2ec6:	2b00      	cmp	r3, #0
    2ec8:	d0f1      	beq.n	2eae <sync(FATFS*)+0x16>
    2eca:	f105 0130 	add.w	r1, r5, #48	; 0x30
    2ece:	62e8      	str	r0, [r5, #44]	; 0x2c
    2ed0:	460b      	mov	r3, r1
    2ed2:	f505 720c 	add.w	r2, r5, #560	; 0x230
    2ed6:	f803 0b01 	strb.w	r0, [r3], #1
    2eda:	4293      	cmp	r3, r2
    2edc:	f04f 0400 	mov.w	r4, #0
    2ee0:	d1f9      	bne.n	2ed6 <sync(FATFS*)+0x3e>
    2ee2:	692a      	ldr	r2, [r5, #16]
    2ee4:	68eb      	ldr	r3, [r5, #12]
    2ee6:	f3c2 2b07 	ubfx	r11, r2, #8, #8
    2eea:	ea4f 4a12 	mov.w	r10, r2, lsr #16
    2eee:	ea4f 4c13 	mov.w	r12, r3, lsr #16
    2ef2:	ea4f 6e13 	mov.w	lr, r3, lsr #24
    2ef6:	2052      	movs	r0, #82	; 0x52
    2ef8:	ea4f 6912 	mov.w	r9, r2, lsr #24
    2efc:	f3c3 2807 	ubfx	r8, r3, #8, #8
    2f00:	f885 2218 	strb.w	r2, [r5, #536]	; 0x218
    2f04:	f885 b219 	strb.w	r11, [r5, #537]	; 0x219
    2f08:	2261      	movs	r2, #97	; 0x61
    2f0a:	f04f 0b41 	mov.w	r11, #65	; 0x41
    2f0e:	f885 a21a 	strb.w	r10, [r5, #538]	; 0x21a
    2f12:	2755      	movs	r7, #85	; 0x55
    2f14:	f04f 0a72 	mov.w	r10, #114	; 0x72
    2f18:	26aa      	movs	r6, #170	; 0xaa
    2f1a:	f885 321c 	strb.w	r3, [r5, #540]	; 0x21c
    2f1e:	f885 0030 	strb.w	r0, [r5, #48]	; 0x30
    2f22:	f885 0031 	strb.w	r0, [r5, #49]	; 0x31
    2f26:	f885 2032 	strb.w	r2, [r5, #50]	; 0x32
    2f2a:	f885 2217 	strb.w	r2, [r5, #535]	; 0x217
    2f2e:	f885 921b 	strb.w	r9, [r5, #539]	; 0x21b
    2f32:	f885 821d 	strb.w	r8, [r5, #541]	; 0x21d
    2f36:	f885 c21e 	strb.w	r12, [r5, #542]	; 0x21e
    2f3a:	f885 e21f 	strb.w	lr, [r5, #543]	; 0x21f
    2f3e:	f885 722e 	strb.w	r7, [r5, #558]	; 0x22e
    2f42:	f885 622f 	strb.w	r6, [r5, #559]	; 0x22f
    2f46:	f885 b033 	strb.w	r11, [r5, #51]	; 0x33
    2f4a:	f885 b216 	strb.w	r11, [r5, #534]	; 0x216
    2f4e:	f885 a214 	strb.w	r10, [r5, #532]	; 0x214
    2f52:	f885 a215 	strb.w	r10, [r5, #533]	; 0x215
    2f56:	7868      	ldrb	r0, [r5, #1]
    2f58:	696a      	ldr	r2, [r5, #20]
    2f5a:	2301      	movs	r3, #1
    2f5c:	f002 fad0 	bl	5500 <disk_write(unsigned char, unsigned char const*, unsigned long, unsigned char)>
    2f60:	716c      	strb	r4, [r5, #5]
    2f62:	e7a4      	b.n	2eae <sync(FATFS*)+0x16>

00002f64 <check_fs(FATFS*, unsigned long)>:
    2f64:	b510      	push	{r4, lr}
    2f66:	4604      	mov	r4, r0
    2f68:	460a      	mov	r2, r1
    2f6a:	7840      	ldrb	r0, [r0, #1]
    2f6c:	f104 0130 	add.w	r1, r4, #48	; 0x30
    2f70:	2301      	movs	r3, #1
    2f72:	f002 fab3 	bl	54dc <disk_read(unsigned char, unsigned char*, unsigned long, unsigned char)>
    2f76:	b108      	cbz	r0, 2f7c <check_fs(FATFS*, unsigned long)+0x18>
    2f78:	2003      	movs	r0, #3
    2f7a:	bd10      	pop	{r4, pc}
    2f7c:	f894 122f 	ldrb.w	r1, [r4, #559]	; 0x22f
    2f80:	f894 222e 	ldrb.w	r2, [r4, #558]	; 0x22e
    2f84:	4b17      	ldr	r3, [pc, #92]	; (2fe4 <check_fs(FATFS*, unsigned long)+0x80>)
    2f86:	ea42 2201 	orr.w	r2, r2, r1, lsl #8
    2f8a:	b212      	sxth	r2, r2
    2f8c:	429a      	cmp	r2, r3
    2f8e:	d001      	beq.n	2f94 <check_fs(FATFS*, unsigned long)+0x30>
    2f90:	2002      	movs	r0, #2
    2f92:	bd10      	pop	{r4, pc}
    2f94:	f894 3068 	ldrb.w	r3, [r4, #104]	; 0x68
    2f98:	f894 2069 	ldrb.w	r2, [r4, #105]	; 0x69
    2f9c:	041b      	lsls	r3, r3, #16
    2f9e:	f894 1066 	ldrb.w	r1, [r4, #102]	; 0x66
    2fa2:	ea43 6302 	orr.w	r3, r3, r2, lsl #24
    2fa6:	f894 2067 	ldrb.w	r2, [r4, #103]	; 0x67
    2faa:	430b      	orrs	r3, r1
    2fac:	ea43 2202 	orr.w	r2, r3, r2, lsl #8
    2fb0:	4b0d      	ldr	r3, [pc, #52]	; (2fe8 <check_fs(FATFS*, unsigned long)+0x84>)
    2fb2:	f022 427f 	bic.w	r2, r2, #4278190080	; 0xff000000
    2fb6:	429a      	cmp	r2, r3
    2fb8:	d0eb      	beq.n	2f92 <check_fs(FATFS*, unsigned long)+0x2e>
    2fba:	f894 2084 	ldrb.w	r2, [r4, #132]	; 0x84
    2fbe:	f894 0085 	ldrb.w	r0, [r4, #133]	; 0x85
    2fc2:	f894 1082 	ldrb.w	r1, [r4, #130]	; 0x82
    2fc6:	0412      	lsls	r2, r2, #16
    2fc8:	ea42 6200 	orr.w	r2, r2, r0, lsl #24
    2fcc:	f894 0083 	ldrb.w	r0, [r4, #131]	; 0x83
    2fd0:	430a      	orrs	r2, r1
    2fd2:	ea42 2000 	orr.w	r0, r2, r0, lsl #8
    2fd6:	f020 407f 	bic.w	r0, r0, #4278190080	; 0xff000000
    2fda:	1ac0      	subs	r0, r0, r3
    2fdc:	bf18      	it	ne
    2fde:	2001      	movne	r0, #1
    2fe0:	bd10      	pop	{r4, pc}
    2fe2:	bf00      	nop
    2fe4:	ffffaa55 	.word	0xffffaa55
    2fe8:	00544146 	.word	0x00544146

00002fec <chk_mounted(char const**, FATFS**, unsigned char)>:
    2fec:	b5f8      	push	{r3, r4, r5, r6, r7, lr}
    2fee:	6803      	ldr	r3, [r0, #0]
    2ff0:	4615      	mov	r5, r2
    2ff2:	781c      	ldrb	r4, [r3, #0]
    2ff4:	3c30      	subs	r4, #48	; 0x30
    2ff6:	2c09      	cmp	r4, #9
    2ff8:	d802      	bhi.n	3000 <chk_mounted(char const**, FATFS**, unsigned char)+0x14>
    2ffa:	785a      	ldrb	r2, [r3, #1]
    2ffc:	2a3a      	cmp	r2, #58	; 0x3a
    2ffe:	d013      	beq.n	3028 <chk_mounted(char const**, FATFS**, unsigned char)+0x3c>
    3000:	2300      	movs	r3, #0
    3002:	600b      	str	r3, [r1, #0]
    3004:	4bb1      	ldr	r3, [pc, #708]	; (32cc <chk_mounted(char const**, FATFS**, unsigned char)+0x2e0>)
    3006:	681c      	ldr	r4, [r3, #0]
    3008:	b1fc      	cbz	r4, 304a <chk_mounted(char const**, FATFS**, unsigned char)+0x5e>
    300a:	600c      	str	r4, [r1, #0]
    300c:	7823      	ldrb	r3, [r4, #0]
    300e:	b19b      	cbz	r3, 3038 <chk_mounted(char const**, FATFS**, unsigned char)+0x4c>
    3010:	7860      	ldrb	r0, [r4, #1]
    3012:	f002 fa57 	bl	54c4 <disk_status(unsigned char)>
    3016:	07c2      	lsls	r2, r0, #31
    3018:	d40e      	bmi.n	3038 <chk_mounted(char const**, FATFS**, unsigned char)+0x4c>
    301a:	b1ed      	cbz	r5, 3058 <chk_mounted(char const**, FATFS**, unsigned char)+0x6c>
    301c:	f010 0f04 	tst.w	r0, #4
    3020:	bf0c      	ite	eq
    3022:	2000      	moveq	r0, #0
    3024:	200a      	movne	r0, #10
    3026:	bdf8      	pop	{r3, r4, r5, r6, r7, pc}
    3028:	3302      	adds	r3, #2
    302a:	2200      	movs	r2, #0
    302c:	6003      	str	r3, [r0, #0]
    302e:	600a      	str	r2, [r1, #0]
    3030:	2c00      	cmp	r4, #0
    3032:	d0e7      	beq.n	3004 <chk_mounted(char const**, FATFS**, unsigned char)+0x18>
    3034:	200b      	movs	r0, #11
    3036:	bdf8      	pop	{r3, r4, r5, r6, r7, pc}
    3038:	2000      	movs	r0, #0
    303a:	7020      	strb	r0, [r4, #0]
    303c:	7060      	strb	r0, [r4, #1]
    303e:	f002 fa35 	bl	54ac <disk_initialize(unsigned char)>
    3042:	07c3      	lsls	r3, r0, #31
    3044:	d503      	bpl.n	304e <chk_mounted(char const**, FATFS**, unsigned char)+0x62>
    3046:	2003      	movs	r0, #3
    3048:	bdf8      	pop	{r3, r4, r5, r6, r7, pc}
    304a:	200c      	movs	r0, #12
    304c:	bdf8      	pop	{r3, r4, r5, r6, r7, pc}
    304e:	b12d      	cbz	r5, 305c <chk_mounted(char const**, FATFS**, unsigned char)+0x70>
    3050:	0747      	lsls	r7, r0, #29
    3052:	d503      	bpl.n	305c <chk_mounted(char const**, FATFS**, unsigned char)+0x70>
    3054:	200a      	movs	r0, #10
    3056:	bdf8      	pop	{r3, r4, r5, r6, r7, pc}
    3058:	4628      	mov	r0, r5
    305a:	bdf8      	pop	{r3, r4, r5, r6, r7, pc}
    305c:	4620      	mov	r0, r4
    305e:	2100      	movs	r1, #0
    3060:	f7ff ff80 	bl	2f64 <check_fs(FATFS*, unsigned long)>
    3064:	2801      	cmp	r0, #1
    3066:	d006      	beq.n	3076 <chk_mounted(char const**, FATFS**, unsigned char)+0x8a>
    3068:	2500      	movs	r5, #0
    306a:	2803      	cmp	r0, #3
    306c:	f000 80b0 	beq.w	31d0 <chk_mounted(char const**, FATFS**, unsigned char)+0x1e4>
    3070:	b1c0      	cbz	r0, 30a4 <chk_mounted(char const**, FATFS**, unsigned char)+0xb8>
    3072:	200d      	movs	r0, #13
    3074:	bdf8      	pop	{r3, r4, r5, r6, r7, pc}
    3076:	f894 31f2 	ldrb.w	r3, [r4, #498]	; 0x1f2
    307a:	2b00      	cmp	r3, #0
    307c:	d0f9      	beq.n	3072 <chk_mounted(char const**, FATFS**, unsigned char)+0x86>
    307e:	f894 21f8 	ldrb.w	r2, [r4, #504]	; 0x1f8
    3082:	f894 11f9 	ldrb.w	r1, [r4, #505]	; 0x1f9
    3086:	f894 31f6 	ldrb.w	r3, [r4, #502]	; 0x1f6
    308a:	0412      	lsls	r2, r2, #16
    308c:	ea42 6201 	orr.w	r2, r2, r1, lsl #24
    3090:	f894 51f7 	ldrb.w	r5, [r4, #503]	; 0x1f7
    3094:	4313      	orrs	r3, r2
    3096:	ea43 2505 	orr.w	r5, r3, r5, lsl #8
    309a:	4629      	mov	r1, r5
    309c:	4620      	mov	r0, r4
    309e:	f7ff ff61 	bl	2f64 <check_fs(FATFS*, unsigned long)>
    30a2:	e7e2      	b.n	306a <chk_mounted(char const**, FATFS**, unsigned char)+0x7e>
    30a4:	f894 203c 	ldrb.w	r2, [r4, #60]	; 0x3c
    30a8:	f894 303b 	ldrb.w	r3, [r4, #59]	; 0x3b
    30ac:	ea43 2302 	orr.w	r3, r3, r2, lsl #8
    30b0:	f5b3 7f00 	cmp.w	r3, #512	; 0x200
    30b4:	d1dd      	bne.n	3072 <chk_mounted(char const**, FATFS**, unsigned char)+0x86>
    30b6:	f894 1047 	ldrb.w	r1, [r4, #71]	; 0x47
    30ba:	f894 3046 	ldrb.w	r3, [r4, #70]	; 0x46
    30be:	ea53 2101 	orrs.w	r1, r3, r1, lsl #8
    30c2:	d10d      	bne.n	30e0 <chk_mounted(char const**, FATFS**, unsigned char)+0xf4>
    30c4:	f894 2056 	ldrb.w	r2, [r4, #86]	; 0x56
    30c8:	f894 1057 	ldrb.w	r1, [r4, #87]	; 0x57
    30cc:	0412      	lsls	r2, r2, #16
    30ce:	f894 3054 	ldrb.w	r3, [r4, #84]	; 0x54
    30d2:	ea42 6201 	orr.w	r2, r2, r1, lsl #24
    30d6:	f894 1055 	ldrb.w	r1, [r4, #85]	; 0x55
    30da:	4313      	orrs	r3, r2
    30dc:	ea43 2101 	orr.w	r1, r3, r1, lsl #8
    30e0:	f894 0040 	ldrb.w	r0, [r4, #64]	; 0x40
    30e4:	61e1      	str	r1, [r4, #28]
    30e6:	1e43      	subs	r3, r0, #1
    30e8:	2b01      	cmp	r3, #1
    30ea:	70e0      	strb	r0, [r4, #3]
    30ec:	d8c1      	bhi.n	3072 <chk_mounted(char const**, FATFS**, unsigned char)+0x86>
    30ee:	f894 303d 	ldrb.w	r3, [r4, #61]	; 0x3d
    30f2:	70a3      	strb	r3, [r4, #2]
    30f4:	2b00      	cmp	r3, #0
    30f6:	d0bc      	beq.n	3072 <chk_mounted(char const**, FATFS**, unsigned char)+0x86>
    30f8:	1e5a      	subs	r2, r3, #1
    30fa:	421a      	tst	r2, r3
    30fc:	d1b9      	bne.n	3072 <chk_mounted(char const**, FATFS**, unsigned char)+0x86>
    30fe:	f894 6042 	ldrb.w	r6, [r4, #66]	; 0x42
    3102:	f894 2041 	ldrb.w	r2, [r4, #65]	; 0x41
    3106:	ea42 2206 	orr.w	r2, r2, r6, lsl #8
    310a:	0716      	lsls	r6, r2, #28
    310c:	8122      	strh	r2, [r4, #8]
    310e:	d1b0      	bne.n	3072 <chk_mounted(char const**, FATFS**, unsigned char)+0x86>
    3110:	f894 7044 	ldrb.w	r7, [r4, #68]	; 0x44
    3114:	f894 6043 	ldrb.w	r6, [r4, #67]	; 0x43
    3118:	ea56 2607 	orrs.w	r6, r6, r7, lsl #8
    311c:	d10e      	bne.n	313c <chk_mounted(char const**, FATFS**, unsigned char)+0x150>
    311e:	f894 7052 	ldrb.w	r7, [r4, #82]	; 0x52
    3122:	f894 c053 	ldrb.w	r12, [r4, #83]	; 0x53
    3126:	043f      	lsls	r7, r7, #16
    3128:	f894 6050 	ldrb.w	r6, [r4, #80]	; 0x50
    312c:	ea47 6c0c 	orr.w	r12, r7, r12, lsl #24
    3130:	f894 7051 	ldrb.w	r7, [r4, #81]	; 0x51
    3134:	ea4c 0606 	orr.w	r6, r12, r6
    3138:	ea46 2607 	orr.w	r6, r6, r7, lsl #8
    313c:	f894 c03f 	ldrb.w	r12, [r4, #63]	; 0x3f
    3140:	f894 703e 	ldrb.w	r7, [r4, #62]	; 0x3e
    3144:	ea57 270c 	orrs.w	r7, r7, r12, lsl #8
    3148:	d093      	beq.n	3072 <chk_mounted(char const**, FATFS**, unsigned char)+0x86>
    314a:	fb00 fc01 	mul.w	r12, r0, r1
    314e:	eb07 1012 	add.w	r0, r7, r2, lsr #4
    3152:	4460      	add	r0, r12
    3154:	4286      	cmp	r6, r0
    3156:	d38c      	bcc.n	3072 <chk_mounted(char const**, FATFS**, unsigned char)+0x86>
    3158:	1a36      	subs	r6, r6, r0
    315a:	fbb6 f3f3 	udiv	r3, r6, r3
    315e:	2b00      	cmp	r3, #0
    3160:	d087      	beq.n	3072 <chk_mounted(char const**, FATFS**, unsigned char)+0x86>
    3162:	f640 76f5 	movw	r6, #4085	; 0xff5
    3166:	42b3      	cmp	r3, r6
    3168:	f240 80ad 	bls.w	32c6 <chk_mounted(char const**, FATFS**, unsigned char)+0x2da>
    316c:	f64f 76f5 	movw	r6, #65525	; 0xfff5
    3170:	42b3      	cmp	r3, r6
    3172:	f200 808d 	bhi.w	3290 <chk_mounted(char const**, FATFS**, unsigned char)+0x2a4>
    3176:	2602      	movs	r6, #2
    3178:	3302      	adds	r3, #2
    317a:	4428      	add	r0, r5
    317c:	442f      	add	r7, r5
    317e:	61a3      	str	r3, [r4, #24]
    3180:	62a0      	str	r0, [r4, #40]	; 0x28
    3182:	6227      	str	r7, [r4, #32]
    3184:	2a00      	cmp	r2, #0
    3186:	f43f af74 	beq.w	3072 <chk_mounted(char const**, FATFS**, unsigned char)+0x86>
    318a:	4467      	add	r7, r12
    318c:	2e02      	cmp	r6, #2
    318e:	6267      	str	r7, [r4, #36]	; 0x24
    3190:	d07c      	beq.n	328c <chk_mounted(char const**, FATFS**, unsigned char)+0x2a0>
    3192:	eb03 0243 	add.w	r2, r3, r3, lsl #1
    3196:	f003 0301 	and.w	r3, r3, #1
    319a:	eb03 0352 	add.w	r3, r3, r2, lsr #1
    319e:	2601      	movs	r6, #1
    31a0:	f203 13ff 	addw	r3, r3, #511	; 0x1ff
    31a4:	ebb1 2f53 	cmp.w	r1, r3, lsr #9
    31a8:	f4ff af63 	bcc.w	3072 <chk_mounted(char const**, FATFS**, unsigned char)+0x86>
    31ac:	f04f 32ff 	mov.w	r2, #4294967295	; 0xffffffff
    31b0:	2300      	movs	r3, #0
    31b2:	2e03      	cmp	r6, #3
    31b4:	6122      	str	r2, [r4, #16]
    31b6:	60e3      	str	r3, [r4, #12]
    31b8:	d00c      	beq.n	31d4 <chk_mounted(char const**, FATFS**, unsigned char)+0x1e8>
    31ba:	4a45      	ldr	r2, [pc, #276]	; (32d0 <chk_mounted(char const**, FATFS**, unsigned char)+0x2e4>)
    31bc:	2000      	movs	r0, #0
    31be:	8813      	ldrh	r3, [r2, #0]
    31c0:	7026      	strb	r6, [r4, #0]
    31c2:	3301      	adds	r3, #1
    31c4:	b29b      	uxth	r3, r3
    31c6:	7120      	strb	r0, [r4, #4]
    31c8:	8013      	strh	r3, [r2, #0]
    31ca:	80e3      	strh	r3, [r4, #6]
    31cc:	62e0      	str	r0, [r4, #44]	; 0x2c
    31ce:	bdf8      	pop	{r3, r4, r5, r6, r7, pc}
    31d0:	2001      	movs	r0, #1
    31d2:	bdf8      	pop	{r3, r4, r5, r6, r7, pc}
    31d4:	f894 1061 	ldrb.w	r1, [r4, #97]	; 0x61
    31d8:	f894 2060 	ldrb.w	r2, [r4, #96]	; 0x60
    31dc:	7163      	strb	r3, [r4, #5]
    31de:	ea42 2201 	orr.w	r2, r2, r1, lsl #8
    31e2:	442a      	add	r2, r5
    31e4:	6162      	str	r2, [r4, #20]
    31e6:	7860      	ldrb	r0, [r4, #1]
    31e8:	f104 0130 	add.w	r1, r4, #48	; 0x30
    31ec:	2301      	movs	r3, #1
    31ee:	f002 f975 	bl	54dc <disk_read(unsigned char, unsigned char*, unsigned long, unsigned char)>
    31f2:	2800      	cmp	r0, #0
    31f4:	d1e1      	bne.n	31ba <chk_mounted(char const**, FATFS**, unsigned char)+0x1ce>
    31f6:	f894 122f 	ldrb.w	r1, [r4, #559]	; 0x22f
    31fa:	f894 222e 	ldrb.w	r2, [r4, #558]	; 0x22e
    31fe:	4b35      	ldr	r3, [pc, #212]	; (32d4 <chk_mounted(char const**, FATFS**, unsigned char)+0x2e8>)
    3200:	ea42 2201 	orr.w	r2, r2, r1, lsl #8
    3204:	b212      	sxth	r2, r2
    3206:	429a      	cmp	r2, r3
    3208:	d1d7      	bne.n	31ba <chk_mounted(char const**, FATFS**, unsigned char)+0x1ce>
    320a:	f894 2032 	ldrb.w	r2, [r4, #50]	; 0x32
    320e:	f894 1033 	ldrb.w	r1, [r4, #51]	; 0x33
    3212:	f894 3030 	ldrb.w	r3, [r4, #48]	; 0x30
    3216:	0412      	lsls	r2, r2, #16
    3218:	ea42 6201 	orr.w	r2, r2, r1, lsl #24
    321c:	f894 1031 	ldrb.w	r1, [r4, #49]	; 0x31
    3220:	431a      	orrs	r2, r3
    3222:	4b2d      	ldr	r3, [pc, #180]	; (32d8 <chk_mounted(char const**, FATFS**, unsigned char)+0x2ec>)
    3224:	ea42 2201 	orr.w	r2, r2, r1, lsl #8
    3228:	429a      	cmp	r2, r3
    322a:	d1c6      	bne.n	31ba <chk_mounted(char const**, FATFS**, unsigned char)+0x1ce>
    322c:	f894 2216 	ldrb.w	r2, [r4, #534]	; 0x216
    3230:	f894 1217 	ldrb.w	r1, [r4, #535]	; 0x217
    3234:	f894 3214 	ldrb.w	r3, [r4, #532]	; 0x214
    3238:	0412      	lsls	r2, r2, #16
    323a:	ea42 6201 	orr.w	r2, r2, r1, lsl #24
    323e:	f894 1215 	ldrb.w	r1, [r4, #533]	; 0x215
    3242:	431a      	orrs	r2, r3
    3244:	4b25      	ldr	r3, [pc, #148]	; (32dc <chk_mounted(char const**, FATFS**, unsigned char)+0x2f0>)
    3246:	ea42 2201 	orr.w	r2, r2, r1, lsl #8
    324a:	429a      	cmp	r2, r3
    324c:	d1b5      	bne.n	31ba <chk_mounted(char const**, FATFS**, unsigned char)+0x1ce>
    324e:	f894 021e 	ldrb.w	r0, [r4, #542]	; 0x21e
    3252:	f894 121a 	ldrb.w	r1, [r4, #538]	; 0x21a
    3256:	f894 721f 	ldrb.w	r7, [r4, #543]	; 0x21f
    325a:	f894 521b 	ldrb.w	r5, [r4, #539]	; 0x21b
    325e:	0400      	lsls	r0, r0, #16
    3260:	0409      	lsls	r1, r1, #16
    3262:	f894 221c 	ldrb.w	r2, [r4, #540]	; 0x21c
    3266:	f894 3218 	ldrb.w	r3, [r4, #536]	; 0x218
    326a:	ea40 6707 	orr.w	r7, r0, r7, lsl #24
    326e:	ea41 6505 	orr.w	r5, r1, r5, lsl #24
    3272:	f894 021d 	ldrb.w	r0, [r4, #541]	; 0x21d
    3276:	f894 1219 	ldrb.w	r1, [r4, #537]	; 0x219
    327a:	433a      	orrs	r2, r7
    327c:	432b      	orrs	r3, r5
    327e:	ea42 2200 	orr.w	r2, r2, r0, lsl #8
    3282:	ea43 2301 	orr.w	r3, r3, r1, lsl #8
    3286:	60e2      	str	r2, [r4, #12]
    3288:	6123      	str	r3, [r4, #16]
    328a:	e796      	b.n	31ba <chk_mounted(char const**, FATFS**, unsigned char)+0x1ce>
    328c:	005b      	lsls	r3, r3, #1
    328e:	e787      	b.n	31a0 <chk_mounted(char const**, FATFS**, unsigned char)+0x1b4>
    3290:	3302      	adds	r3, #2
    3292:	4428      	add	r0, r5
    3294:	442f      	add	r7, r5
    3296:	61a3      	str	r3, [r4, #24]
    3298:	62a0      	str	r0, [r4, #40]	; 0x28
    329a:	6227      	str	r7, [r4, #32]
    329c:	2a00      	cmp	r2, #0
    329e:	f47f aee8 	bne.w	3072 <chk_mounted(char const**, FATFS**, unsigned char)+0x86>
    32a2:	f894 005e 	ldrb.w	r0, [r4, #94]	; 0x5e
    32a6:	f894 605f 	ldrb.w	r6, [r4, #95]	; 0x5f
    32aa:	0400      	lsls	r0, r0, #16
    32ac:	f894 205c 	ldrb.w	r2, [r4, #92]	; 0x5c
    32b0:	ea40 6606 	orr.w	r6, r0, r6, lsl #24
    32b4:	f894 005d 	ldrb.w	r0, [r4, #93]	; 0x5d
    32b8:	4332      	orrs	r2, r6
    32ba:	ea42 2200 	orr.w	r2, r2, r0, lsl #8
    32be:	009b      	lsls	r3, r3, #2
    32c0:	6262      	str	r2, [r4, #36]	; 0x24
    32c2:	2603      	movs	r6, #3
    32c4:	e76c      	b.n	31a0 <chk_mounted(char const**, FATFS**, unsigned char)+0x1b4>
    32c6:	2601      	movs	r6, #1
    32c8:	e756      	b.n	3178 <chk_mounted(char const**, FATFS**, unsigned char)+0x18c>
    32ca:	bf00      	nop
    32cc:	10000250 	.word	0x10000250
    32d0:	1000024c 	.word	0x1000024c
    32d4:	ffffaa55 	.word	0xffffaa55
    32d8:	41615252 	.word	0x41615252
    32dc:	61417272 	.word	0x61417272

000032e0 <get_fat(FATFS*, unsigned long) [clone .part.3]>:
    32e0:	b5f8      	push	{r3, r4, r5, r6, r7, lr}
    32e2:	7803      	ldrb	r3, [r0, #0]
    32e4:	4604      	mov	r4, r0
    32e6:	2b02      	cmp	r3, #2
    32e8:	460d      	mov	r5, r1
    32ea:	d046      	beq.n	337a <get_fat(FATFS*, unsigned long) [clone .part.3]+0x9a>
    32ec:	2b03      	cmp	r3, #3
    32ee:	d028      	beq.n	3342 <get_fat(FATFS*, unsigned long) [clone .part.3]+0x62>
    32f0:	2b01      	cmp	r3, #1
    32f2:	d002      	beq.n	32fa <get_fat(FATFS*, unsigned long) [clone .part.3]+0x1a>
    32f4:	f04f 30ff 	mov.w	r0, #4294967295	; 0xffffffff
    32f8:	bdf8      	pop	{r3, r4, r5, r6, r7, pc}
    32fa:	6a01      	ldr	r1, [r0, #32]
    32fc:	eb05 0655 	add.w	r6, r5, r5, lsr #1
    3300:	eb01 2156 	add.w	r1, r1, r6, lsr #9
    3304:	f7ff fcfa 	bl	2cfc <move_window(FATFS*, unsigned long)>
    3308:	2800      	cmp	r0, #0
    330a:	d1f3      	bne.n	32f4 <get_fat(FATFS*, unsigned long) [clone .part.3]+0x14>
    330c:	6a21      	ldr	r1, [r4, #32]
    330e:	f3c6 0308 	ubfx	r3, r6, #0, #9
    3312:	3601      	adds	r6, #1
    3314:	4423      	add	r3, r4
    3316:	eb01 2156 	add.w	r1, r1, r6, lsr #9
    331a:	4620      	mov	r0, r4
    331c:	f893 7030 	ldrb.w	r7, [r3, #48]	; 0x30
    3320:	f7ff fcec 	bl	2cfc <move_window(FATFS*, unsigned long)>
    3324:	2800      	cmp	r0, #0
    3326:	d1e5      	bne.n	32f4 <get_fat(FATFS*, unsigned long) [clone .part.3]+0x14>
    3328:	f3c6 0608 	ubfx	r6, r6, #0, #9
    332c:	4434      	add	r4, r6
    332e:	f894 3030 	ldrb.w	r3, [r4, #48]	; 0x30
    3332:	ea47 2003 	orr.w	r0, r7, r3, lsl #8
    3336:	07eb      	lsls	r3, r5, #31
    3338:	bf4c      	ite	mi
    333a:	0900      	lsrmi	r0, r0, #4
    333c:	f3c0 000b 	ubfxpl	r0, r0, #0, #12
    3340:	bdf8      	pop	{r3, r4, r5, r6, r7, pc}
    3342:	6a01      	ldr	r1, [r0, #32]
    3344:	eb01 11d5 	add.w	r1, r1, r5, lsr #7
    3348:	f7ff fcd8 	bl	2cfc <move_window(FATFS*, unsigned long)>
    334c:	2800      	cmp	r0, #0
    334e:	d1d1      	bne.n	32f4 <get_fat(FATFS*, unsigned long) [clone .part.3]+0x14>
    3350:	00ad      	lsls	r5, r5, #2
    3352:	f405 75fe 	and.w	r5, r5, #508	; 0x1fc
    3356:	f105 0330 	add.w	r3, r5, #48	; 0x30
    335a:	4423      	add	r3, r4
    335c:	78d8      	ldrb	r0, [r3, #3]
    335e:	7899      	ldrb	r1, [r3, #2]
    3360:	785a      	ldrb	r2, [r3, #1]
    3362:	442c      	add	r4, r5
    3364:	0600      	lsls	r0, r0, #24
    3366:	f894 3030 	ldrb.w	r3, [r4, #48]	; 0x30
    336a:	ea40 4001 	orr.w	r0, r0, r1, lsl #16
    336e:	ea40 2002 	orr.w	r0, r0, r2, lsl #8
    3372:	4318      	orrs	r0, r3
    3374:	f020 4070 	bic.w	r0, r0, #4026531840	; 0xf0000000
    3378:	bdf8      	pop	{r3, r4, r5, r6, r7, pc}
    337a:	6a01      	ldr	r1, [r0, #32]
    337c:	eb01 2115 	add.w	r1, r1, r5, lsr #8
    3380:	f7ff fcbc 	bl	2cfc <move_window(FATFS*, unsigned long)>
    3384:	2800      	cmp	r0, #0
    3386:	d1b5      	bne.n	32f4 <get_fat(FATFS*, unsigned long) [clone .part.3]+0x14>
    3388:	006d      	lsls	r5, r5, #1
    338a:	f405 75ff 	and.w	r5, r5, #510	; 0x1fe
    338e:	1963      	adds	r3, r4, r5
    3390:	461c      	mov	r4, r3
    3392:	f894 0031 	ldrb.w	r0, [r4, #49]	; 0x31
    3396:	f893 3030 	ldrb.w	r3, [r3, #48]	; 0x30
    339a:	ea43 2000 	orr.w	r0, r3, r0, lsl #8
    339e:	bdf8      	pop	{r3, r4, r5, r6, r7, pc}

000033a0 <dir_sdi(FATFS_DIR*, unsigned short)>:
    33a0:	6883      	ldr	r3, [r0, #8]
    33a2:	b570      	push	{r4, r5, r6, lr}
    33a4:	2b01      	cmp	r3, #1
    33a6:	4604      	mov	r4, r0
    33a8:	460d      	mov	r5, r1
    33aa:	80e1      	strh	r1, [r4, #6]
    33ac:	d003      	beq.n	33b6 <dir_sdi(FATFS_DIR*, unsigned short)+0x16>
    33ae:	6800      	ldr	r0, [r0, #0]
    33b0:	6982      	ldr	r2, [r0, #24]
    33b2:	4293      	cmp	r3, r2
    33b4:	d301      	bcc.n	33ba <dir_sdi(FATFS_DIR*, unsigned short)+0x1a>
    33b6:	2002      	movs	r0, #2
    33b8:	bd70      	pop	{r4, r5, r6, pc}
    33ba:	b9b3      	cbnz	r3, 33ea <dir_sdi(FATFS_DIR*, unsigned short)+0x4a>
    33bc:	7803      	ldrb	r3, [r0, #0]
    33be:	2b03      	cmp	r3, #3
    33c0:	d010      	beq.n	33e4 <dir_sdi(FATFS_DIR*, unsigned short)+0x44>
    33c2:	8903      	ldrh	r3, [r0, #8]
    33c4:	2200      	movs	r2, #0
    33c6:	42ab      	cmp	r3, r5
    33c8:	60e2      	str	r2, [r4, #12]
    33ca:	d9f4      	bls.n	33b6 <dir_sdi(FATFS_DIR*, unsigned short)+0x16>
    33cc:	6a43      	ldr	r3, [r0, #36]	; 0x24
    33ce:	eb03 1315 	add.w	r3, r3, r5, lsr #4
    33d2:	6123      	str	r3, [r4, #16]
    33d4:	f005 050f 	and.w	r5, r5, #15
    33d8:	3030      	adds	r0, #48	; 0x30
    33da:	eb00 1045 	add.w	r0, r0, r5, lsl #5
    33de:	6160      	str	r0, [r4, #20]
    33e0:	2000      	movs	r0, #0
    33e2:	bd70      	pop	{r4, r5, r6, pc}
    33e4:	6a43      	ldr	r3, [r0, #36]	; 0x24
    33e6:	2b00      	cmp	r3, #0
    33e8:	d0eb      	beq.n	33c2 <dir_sdi(FATFS_DIR*, unsigned short)+0x22>
    33ea:	7886      	ldrb	r6, [r0, #2]
    33ec:	0136      	lsls	r6, r6, #4
    33ee:	42b5      	cmp	r5, r6
    33f0:	d319      	bcc.n	3426 <dir_sdi(FATFS_DIR*, unsigned short)+0x86>
    33f2:	2b01      	cmp	r3, #1
    33f4:	d9df      	bls.n	33b6 <dir_sdi(FATFS_DIR*, unsigned short)+0x16>
    33f6:	1bad      	subs	r5, r5, r6
    33f8:	429a      	cmp	r2, r3
    33fa:	b2ad      	uxth	r5, r5
    33fc:	d9db      	bls.n	33b6 <dir_sdi(FATFS_DIR*, unsigned short)+0x16>
    33fe:	e008      	b.n	3412 <dir_sdi(FATFS_DIR*, unsigned short)+0x72>
    3400:	2801      	cmp	r0, #1
    3402:	d9d8      	bls.n	33b6 <dir_sdi(FATFS_DIR*, unsigned short)+0x16>
    3404:	6820      	ldr	r0, [r4, #0]
    3406:	6982      	ldr	r2, [r0, #24]
    3408:	429a      	cmp	r2, r3
    340a:	d9d4      	bls.n	33b6 <dir_sdi(FATFS_DIR*, unsigned short)+0x16>
    340c:	42ae      	cmp	r6, r5
    340e:	d80a      	bhi.n	3426 <dir_sdi(FATFS_DIR*, unsigned short)+0x86>
    3410:	460d      	mov	r5, r1
    3412:	4619      	mov	r1, r3
    3414:	f7ff ff64 	bl	32e0 <get_fat(FATFS*, unsigned long) [clone .part.3]>
    3418:	1ba9      	subs	r1, r5, r6
    341a:	1c42      	adds	r2, r0, #1
    341c:	4603      	mov	r3, r0
    341e:	b289      	uxth	r1, r1
    3420:	d1ee      	bne.n	3400 <dir_sdi(FATFS_DIR*, unsigned short)+0x60>
    3422:	2001      	movs	r0, #1
    3424:	bd70      	pop	{r4, r5, r6, pc}
    3426:	1e99      	subs	r1, r3, #2
    3428:	3a02      	subs	r2, #2
    342a:	4291      	cmp	r1, r2
    342c:	60e3      	str	r3, [r4, #12]
    342e:	bf3b      	ittet	cc
    3430:	7882      	ldrbcc	r2, [r0, #2]
    3432:	6a83      	ldrcc	r3, [r0, #40]	; 0x28
    3434:	2100      	movcs	r1, #0
    3436:	fb02 3101 	mlacc	r1, r2, r1, r3
    343a:	eb01 1115 	add.w	r1, r1, r5, lsr #4
    343e:	6121      	str	r1, [r4, #16]
    3440:	e7c8      	b.n	33d4 <dir_sdi(FATFS_DIR*, unsigned short)+0x34>
    3442:	bf00      	nop

00003444 <put_fat(FATFS*, unsigned long, unsigned long) [clone .part.4]>:
    3444:	b5f8      	push	{r3, r4, r5, r6, r7, lr}
    3446:	7803      	ldrb	r3, [r0, #0]
    3448:	4604      	mov	r4, r0
    344a:	2b02      	cmp	r3, #2
    344c:	460d      	mov	r5, r1
    344e:	4616      	mov	r6, r2
    3450:	d059      	beq.n	3506 <put_fat(FATFS*, unsigned long, unsigned long) [clone .part.4]+0xc2>
    3452:	2b03      	cmp	r3, #3
    3454:	d038      	beq.n	34c8 <put_fat(FATFS*, unsigned long, unsigned long) [clone .part.4]+0x84>
    3456:	2b01      	cmp	r3, #1
    3458:	d003      	beq.n	3462 <put_fat(FATFS*, unsigned long, unsigned long) [clone .part.4]+0x1e>
    345a:	2002      	movs	r0, #2
    345c:	2301      	movs	r3, #1
    345e:	7123      	strb	r3, [r4, #4]
    3460:	bdf8      	pop	{r3, r4, r5, r6, r7, pc}
    3462:	6a01      	ldr	r1, [r0, #32]
    3464:	eb05 0755 	add.w	r7, r5, r5, lsr #1
    3468:	eb01 2157 	add.w	r1, r1, r7, lsr #9
    346c:	f7ff fc46 	bl	2cfc <move_window(FATFS*, unsigned long)>
    3470:	2800      	cmp	r0, #0
    3472:	d1f3      	bne.n	345c <put_fat(FATFS*, unsigned long, unsigned long) [clone .part.4]+0x18>
    3474:	f3c7 0308 	ubfx	r3, r7, #0, #9
    3478:	f015 0501 	ands.w	r5, r5, #1
    347c:	4423      	add	r3, r4
    347e:	d056      	beq.n	352e <put_fat(FATFS*, unsigned long, unsigned long) [clone .part.4]+0xea>
    3480:	f893 2030 	ldrb.w	r2, [r3, #48]	; 0x30
    3484:	b2f0      	uxtb	r0, r6
    3486:	f002 020f 	and.w	r2, r2, #15
    348a:	ea42 1000 	orr.w	r0, r2, r0, lsl #4
    348e:	b2c0      	uxtb	r0, r0
    3490:	6a21      	ldr	r1, [r4, #32]
    3492:	3701      	adds	r7, #1
    3494:	2201      	movs	r2, #1
    3496:	f883 0030 	strb.w	r0, [r3, #48]	; 0x30
    349a:	eb01 2157 	add.w	r1, r1, r7, lsr #9
    349e:	7122      	strb	r2, [r4, #4]
    34a0:	4620      	mov	r0, r4
    34a2:	f7ff fc2b 	bl	2cfc <move_window(FATFS*, unsigned long)>
    34a6:	2800      	cmp	r0, #0
    34a8:	d1d8      	bne.n	345c <put_fat(FATFS*, unsigned long, unsigned long) [clone .part.4]+0x18>
    34aa:	f3c7 0708 	ubfx	r7, r7, #0, #9
    34ae:	2d00      	cmp	r5, #0
    34b0:	d13f      	bne.n	3532 <put_fat(FATFS*, unsigned long, unsigned long) [clone .part.4]+0xee>
    34b2:	4427      	add	r7, r4
    34b4:	f897 3030 	ldrb.w	r3, [r7, #48]	; 0x30
    34b8:	f3c6 2603 	ubfx	r6, r6, #8, #4
    34bc:	f023 030f 	bic.w	r3, r3, #15
    34c0:	431e      	orrs	r6, r3
    34c2:	f887 6030 	strb.w	r6, [r7, #48]	; 0x30
    34c6:	e7c9      	b.n	345c <put_fat(FATFS*, unsigned long, unsigned long) [clone .part.4]+0x18>
    34c8:	6a01      	ldr	r1, [r0, #32]
    34ca:	eb01 11d5 	add.w	r1, r1, r5, lsr #7
    34ce:	f7ff fc15 	bl	2cfc <move_window(FATFS*, unsigned long)>
    34d2:	2800      	cmp	r0, #0
    34d4:	d1c2      	bne.n	345c <put_fat(FATFS*, unsigned long, unsigned long) [clone .part.4]+0x18>
    34d6:	00ad      	lsls	r5, r5, #2
    34d8:	f405 75fe 	and.w	r5, r5, #508	; 0x1fc
    34dc:	f105 0330 	add.w	r3, r5, #48	; 0x30
    34e0:	4423      	add	r3, r4
    34e2:	78da      	ldrb	r2, [r3, #3]
    34e4:	4425      	add	r5, r4
    34e6:	0612      	lsls	r2, r2, #24
    34e8:	f002 4270 	and.w	r2, r2, #4026531840	; 0xf0000000
    34ec:	4316      	orrs	r6, r2
    34ee:	f3c6 2707 	ubfx	r7, r6, #8, #8
    34f2:	0c31      	lsrs	r1, r6, #16
    34f4:	0e32      	lsrs	r2, r6, #24
    34f6:	f885 6030 	strb.w	r6, [r5, #48]	; 0x30
    34fa:	705f      	strb	r7, [r3, #1]
    34fc:	7099      	strb	r1, [r3, #2]
    34fe:	70da      	strb	r2, [r3, #3]
    3500:	2301      	movs	r3, #1
    3502:	7123      	strb	r3, [r4, #4]
    3504:	bdf8      	pop	{r3, r4, r5, r6, r7, pc}
    3506:	6a01      	ldr	r1, [r0, #32]
    3508:	eb01 2115 	add.w	r1, r1, r5, lsr #8
    350c:	f7ff fbf6 	bl	2cfc <move_window(FATFS*, unsigned long)>
    3510:	2800      	cmp	r0, #0
    3512:	d1a3      	bne.n	345c <put_fat(FATFS*, unsigned long, unsigned long) [clone .part.4]+0x18>
    3514:	006d      	lsls	r5, r5, #1
    3516:	f405 75ff 	and.w	r5, r5, #510	; 0x1fe
    351a:	1962      	adds	r2, r4, r5
    351c:	f3c6 2307 	ubfx	r3, r6, #8, #8
    3520:	f882 3031 	strb.w	r3, [r2, #49]	; 0x31
    3524:	2301      	movs	r3, #1
    3526:	f882 6030 	strb.w	r6, [r2, #48]	; 0x30
    352a:	7123      	strb	r3, [r4, #4]
    352c:	bdf8      	pop	{r3, r4, r5, r6, r7, pc}
    352e:	b2f0      	uxtb	r0, r6
    3530:	e7ae      	b.n	3490 <put_fat(FATFS*, unsigned long, unsigned long) [clone .part.4]+0x4c>
    3532:	f3c6 1607 	ubfx	r6, r6, #4, #8
    3536:	4427      	add	r7, r4
    3538:	e7c3      	b.n	34c2 <put_fat(FATFS*, unsigned long, unsigned long) [clone .part.4]+0x7e>
    353a:	bf00      	nop

0000353c <create_chain(FATFS*, unsigned long)>:
    353c:	b5f8      	push	{r3, r4, r5, r6, r7, lr}
    353e:	4605      	mov	r5, r0
    3540:	460f      	mov	r7, r1
    3542:	b9f9      	cbnz	r1, 3584 <create_chain(FATFS*, unsigned long)+0x48>
    3544:	68c6      	ldr	r6, [r0, #12]
    3546:	6983      	ldr	r3, [r0, #24]
    3548:	b356      	cbz	r6, 35a0 <create_chain(FATFS*, unsigned long)+0x64>
    354a:	429e      	cmp	r6, r3
    354c:	bf28      	it	cs
    354e:	2601      	movcs	r6, #1
