
LPC1768/USBHostMSD.elf:     file format elf32-littlearm
architecture: arm, flags 0x00000112:
EXEC_P, HAS_SYMS, D_PAGED
start address 0x000072b9


Disassembly of section .text:

00000000 <__isr_vector>:
       0:	10008000 	.word	0x10008000
       4:	000072b9 	.word	0x000072b9
       8:	000072e9 	.word	0x000072e9
       c:	000072eb 	.word	0x000072eb
      10:	000072ed 	.word	0x000072ed
      14:	000072ef 	.word	0x000072ef
      18:	000072f1 	.word	0x000072f1
	...
      2c:	00006b25 	.word	0x00006b25
      30:	000072f5 	.word	0x000072f5
      34:	00000000 	.word	0x00000000
      38:	00006b93 	.word	0x00006b93
      3c:	00006bcb 	.word	0x00006bcb
      40:	000072fb 	.word	0x000072fb
      44:	000072fb 	.word	0x000072fb
      48:	000072fb 	.word	0x000072fb
      4c:	000072fb 	.word	0x000072fb
      50:	000072fb 	.word	0x000072fb
      54:	000072fb 	.word	0x000072fb
      58:	000072fb 	.word	0x000072fb
      5c:	000072fb 	.word	0x000072fb
      60:	000072fb 	.word	0x000072fb
      64:	000072fb 	.word	0x000072fb
      68:	000072fb 	.word	0x000072fb
      6c:	000072fb 	.word	0x000072fb
      70:	000072fb 	.word	0x000072fb
      74:	000072fb 	.word	0x000072fb
      78:	000072fb 	.word	0x000072fb
      7c:	000072fb 	.word	0x000072fb
      80:	000072fb 	.word	0x000072fb
      84:	000072fb 	.word	0x000072fb
      88:	000072fb 	.word	0x000072fb
      8c:	000072fb 	.word	0x000072fb
      90:	000072fb 	.word	0x000072fb
      94:	000072fb 	.word	0x000072fb
      98:	000072fb 	.word	0x000072fb
      9c:	000072fb 	.word	0x000072fb
      a0:	000072fb 	.word	0x000072fb
      a4:	000072fb 	.word	0x000072fb
      a8:	000072fb 	.word	0x000072fb
      ac:	000072fb 	.word	0x000072fb
      b0:	000072fb 	.word	0x000072fb
      b4:	000072fb 	.word	0x000072fb
      b8:	000072fb 	.word	0x000072fb
      bc:	000072fb 	.word	0x000072fb
      c0:	000072fb 	.word	0x000072fb
      c4:	000072fb 	.word	0x000072fb
      c8:	000072fb 	.word	0x000072fb

000000cc <__do_global_dtors_aux>:
      cc:	b510      	push	{r4, lr}
      ce:	4c05      	ldr	r4, [pc, #20]	; (e4 <__do_global_dtors_aux+0x18>)
      d0:	7823      	ldrb	r3, [r4, #0]
      d2:	b933      	cbnz	r3, e2 <__do_global_dtors_aux+0x16>
      d4:	4b04      	ldr	r3, [pc, #16]	; (e8 <__do_global_dtors_aux+0x1c>)
      d6:	b113      	cbz	r3, de <__do_global_dtors_aux+0x12>
      d8:	4804      	ldr	r0, [pc, #16]	; (ec <__do_global_dtors_aux+0x20>)
      da:	f3af 8000 	nop.w
      de:	2301      	movs	r3, #1
      e0:	7023      	strb	r3, [r4, #0]
      e2:	bd10      	pop	{r4, pc}
      e4:	1000020c 	.word	0x1000020c
      e8:	00000000 	.word	0x00000000
      ec:	0000ca98 	.word	0x0000ca98

000000f0 <frame_dummy>:
      f0:	b508      	push	{r3, lr}
      f2:	4b06      	ldr	r3, [pc, #24]	; (10c <frame_dummy+0x1c>)
      f4:	b11b      	cbz	r3, fe <frame_dummy+0xe>
      f6:	4806      	ldr	r0, [pc, #24]	; (110 <frame_dummy+0x20>)
      f8:	4906      	ldr	r1, [pc, #24]	; (114 <frame_dummy+0x24>)
      fa:	f3af 8000 	nop.w
      fe:	4806      	ldr	r0, [pc, #24]	; (118 <frame_dummy+0x28>)
     100:	6803      	ldr	r3, [r0, #0]
     102:	b113      	cbz	r3, 10a <frame_dummy+0x1a>
     104:	4b05      	ldr	r3, [pc, #20]	; (11c <frame_dummy+0x2c>)
     106:	b103      	cbz	r3, 10a <frame_dummy+0x1a>
     108:	4798      	blx	r3
     10a:	bd08      	pop	{r3, pc}
     10c:	00000000 	.word	0x00000000
     110:	0000ca98 	.word	0x0000ca98
     114:	10000210 	.word	0x10000210
     118:	1000020c 	.word	0x1000020c
     11c:	00000000 	.word	0x00000000

00000120 <msd_task(void const*)>:
     120:	b570      	push	{r4, r5, r6, lr}
     122:	f5ad 7d28 	sub.w	sp, sp, #672	; 0x2a0
     126:	4668      	mov	r0, sp
     128:	4916      	ldr	r1, [pc, #88]	; (184 <msd_task(void const*)+0x64>)
     12a:	f000 f94b 	bl	3c4 <USBHostMSD::USBHostMSD(char const*)>
     12e:	2400      	movs	r4, #0
     130:	4668      	mov	r0, sp
     132:	f000 f97d 	bl	430 <USBHostMSD::connect()>
     136:	b990      	cbnz	r0, 15e <msd_task(void const*)+0x3e>
     138:	e01f      	b.n	17a <msd_task(void const*)+0x5a>
     13a:	f008 fa05 	bl	8548 <fiprintf>
     13e:	4812      	ldr	r0, [pc, #72]	; (188 <msd_task(void const*)+0x68>)
     140:	f009 f8ea 	bl	9318 <puts>
     144:	4630      	mov	r0, r6
     146:	462c      	mov	r4, r5
     148:	f008 f816 	bl	8178 <fclose>
     14c:	f44f 70fa 	mov.w	r0, #500	; 0x1f4
     150:	f006 fcb8 	bl	6ac4 <rtos::Thread::wait(unsigned long)>
     154:	4668      	mov	r0, sp
     156:	f000 f967 	bl	428 <USBHostMSD::connected()>
     15a:	2800      	cmp	r0, #0
     15c:	d0e8      	beq.n	130 <msd_task(void const*)+0x10>
     15e:	490b      	ldr	r1, [pc, #44]	; (18c <msd_task(void const*)+0x6c>)
     160:	480b      	ldr	r0, [pc, #44]	; (190 <msd_task(void const*)+0x70>)
     162:	f008 f9e7 	bl	8534 <fopen>
     166:	1c65      	adds	r5, r4, #1
     168:	4606      	mov	r6, r0
     16a:	4622      	mov	r2, r4
     16c:	4909      	ldr	r1, [pc, #36]	; (194 <msd_task(void const*)+0x74>)
     16e:	2800      	cmp	r0, #0
     170:	d1e3      	bne.n	13a <msd_task(void const*)+0x1a>
     172:	4809      	ldr	r0, [pc, #36]	; (198 <msd_task(void const*)+0x78>)
     174:	f009 f8d0 	bl	9318 <puts>
     178:	e7e8      	b.n	14c <msd_task(void const*)+0x2c>
     17a:	f44f 70fa 	mov.w	r0, #500	; 0x1f4
     17e:	f006 fca1 	bl	6ac4 <rtos::Thread::wait(unsigned long)>
     182:	e7d5      	b.n	130 <msd_task(void const*)+0x10>
     184:	0000af44 	.word	0x0000af44
     188:	0000af7c 	.word	0x0000af7c
     18c:	0000af58 	.word	0x0000af58
     190:	0000af48 	.word	0x0000af48
     194:	0000af5c 	.word	0x0000af5c
     198:	0000af8c 	.word	0x0000af8c

0000019c <main>:
     19c:	b530      	push	{r4, r5, lr}
     19e:	2300      	movs	r3, #0
     1a0:	b097      	sub	sp, #92	; 0x5c
     1a2:	f44f 5180 	mov.w	r1, #4096	; 0x1000
     1a6:	4c0c      	ldr	r4, [pc, #48]	; (1d8 <main+0x3c>)
     1a8:	e88d 000a 	stmia.w	sp, {r1, r3}
     1ac:	461a      	mov	r2, r3
     1ae:	a803      	add	r0, sp, #12
     1b0:	490a      	ldr	r1, [pc, #40]	; (1dc <main+0x40>)
     1b2:	f006 fc5b 	bl	6a6c <rtos::Thread::Thread(void (*)(void const*), void*, osPriority, unsigned long, unsigned char*)>
     1b6:	4625      	mov	r5, r4
     1b8:	e005      	b.n	1c6 <main+0x2a>
     1ba:	692a      	ldr	r2, [r5, #16]
     1bc:	6013      	str	r3, [r2, #0]
     1be:	f44f 70fa 	mov.w	r0, #500	; 0x1f4
     1c2:	f006 fc7f 	bl	6ac4 <rtos::Thread::wait(unsigned long)>
     1c6:	6962      	ldr	r2, [r4, #20]
     1c8:	6863      	ldr	r3, [r4, #4]
     1ca:	6812      	ldr	r2, [r2, #0]
     1cc:	421a      	tst	r2, r3
     1ce:	d1f4      	bne.n	1ba <main+0x1e>
     1d0:	68ea      	ldr	r2, [r5, #12]
     1d2:	6013      	str	r3, [r2, #0]
     1d4:	e7f3      	b.n	1be <main+0x22>
     1d6:	bf00      	nop
     1d8:	10000228 	.word	0x10000228
     1dc:	00000121 	.word	0x00000121

000001e0 <_GLOBAL__sub_I_led>:
     1e0:	4b05      	ldr	r3, [pc, #20]	; (1f8 <_GLOBAL__sub_I_led+0x18>)
     1e2:	2200      	movs	r2, #0
     1e4:	4618      	mov	r0, r3
     1e6:	4905      	ldr	r1, [pc, #20]	; (1fc <_GLOBAL__sub_I_led+0x1c>)
     1e8:	601a      	str	r2, [r3, #0]
     1ea:	605a      	str	r2, [r3, #4]
     1ec:	609a      	str	r2, [r3, #8]
     1ee:	60da      	str	r2, [r3, #12]
     1f0:	611a      	str	r2, [r3, #16]
     1f2:	615a      	str	r2, [r3, #20]
     1f4:	f006 be2a 	b.w	6e4c <gpio_init_out>
     1f8:	10000228 	.word	0x10000228
     1fc:	2009c032 	.word	0x2009c032

00000200 <_start>:
     200:	4807      	ldr	r0, [pc, #28]	; (220 <_start+0x20>)
     202:	4a08      	ldr	r2, [pc, #32]	; (224 <_start+0x24>)
     204:	b508      	push	{r3, lr}
     206:	1a12      	subs	r2, r2, r0
     208:	2100      	movs	r1, #0
     20a:	f008 fafe 	bl	880a <memset>
     20e:	f006 fd39 	bl	6c84 <software_init_hook>
     212:	f008 fa59 	bl	86c8 <__libc_init_array>
     216:	f7ff ffc1 	bl	19c <main>
     21a:	f006 fded 	bl	6df8 <exit>
     21e:	bf00      	nop
     220:	1000020c 	.word	0x1000020c
     224:	10001264 	.word	0x10001264

00000228 <__wrap__isatty>:
     228:	2802      	cmp	r0, #2
     22a:	dc01      	bgt.n	230 <__wrap__isatty+0x8>
     22c:	2001      	movs	r0, #1
     22e:	4770      	bx	lr
     230:	f006 bff6 	b.w	7220 <_isatty>

00000234 <__wrap_malloc>:
     234:	f3ef 8305 	mrs	r3, IPSR
     238:	b103      	cbz	r3, 23c <__wrap_malloc+0x8>
     23a:	be00      	bkpt	0x0000
     23c:	f008 bacc 	b.w	87d8 <malloc>

00000240 <__wrap_free>:
     240:	f3ef 8305 	mrs	r3, IPSR
     244:	b103      	cbz	r3, 248 <__wrap_free+0x8>
     246:	be00      	bkpt	0x0000
     248:	f008 bace 	b.w	87e8 <free>

0000024c <abort>:
     24c:	b508      	push	{r3, lr}
     24e:	2001      	movs	r0, #1
     250:	f006 fdd2 	bl	6df8 <exit>

00000254 <__cxa_pure_virtual>:
     254:	b508      	push	{r3, lr}
     256:	f7ff fff9 	bl	24c <abort>
     25a:	bf00      	nop

0000025c <USBHostMSD::disk_status()>:
     25c:	2000      	movs	r0, #0
     25e:	4770      	bx	lr

00000260 <non-virtual thunk to USBHostMSD::disk_status()>:
     260:	f1a0 0004 	sub.w	r0, r0, #4
     264:	e7fa      	b.n	25c <USBHostMSD::disk_status()>
     266:	bf00      	nop

00000268 <USBHostMSD::disk_sync()>:
     268:	2000      	movs	r0, #0
     26a:	4770      	bx	lr

0000026c <non-virtual thunk to USBHostMSD::disk_sync()>:
     26c:	f1a0 0004 	sub.w	r0, r0, #4
     270:	e7fa      	b.n	268 <USBHostMSD::disk_sync()>
     272:	bf00      	nop

00000274 <USBHostMSD::init()>:
     274:	b430      	push	{r4, r5}
     276:	2100      	movs	r1, #0
     278:	f500 7524 	add.w	r5, r0, #656	; 0x290
     27c:	f04f 34ff 	mov.w	r4, #4294967295	; 0xffffffff
     280:	2200      	movs	r2, #0
     282:	2300      	movs	r3, #0
     284:	f880 1250 	strb.w	r1, [r0, #592]	; 0x250
     288:	f8c0 124c 	str.w	r1, [r0, #588]	; 0x24c
     28c:	f8c0 1254 	str.w	r1, [r0, #596]	; 0x254
     290:	f8c0 1258 	str.w	r1, [r0, #600]	; 0x258
     294:	f8c0 128c 	str.w	r1, [r0, #652]	; 0x28c
     298:	e9c5 2300 	strd	r2, r3, [r5]
     29c:	f8c0 4298 	str.w	r4, [r0, #664]	; 0x298
     2a0:	f880 129c 	strb.w	r1, [r0, #668]	; 0x29c
     2a4:	f880 129d 	strb.w	r1, [r0, #669]	; 0x29d
     2a8:	f880 125c 	strb.w	r1, [r0, #604]	; 0x25c
     2ac:	bc30      	pop	{r4, r5}
     2ae:	4770      	bx	lr

000002b0 <USBHostMSD::setVidPid(unsigned short, unsigned short)>:
     2b0:	4770      	bx	lr
     2b2:	bf00      	nop

000002b4 <USBHostMSD::parseInterface(unsigned char, unsigned char, unsigned char, unsigned char)>:
     2b4:	b430      	push	{r4, r5}
     2b6:	f8d0 4298 	ldr.w	r4, [r0, #664]	; 0x298
     2ba:	f89d 5008 	ldrb.w	r5, [sp, #8]
     2be:	3401      	adds	r4, #1
     2c0:	d002      	beq.n	2c8 <USBHostMSD::parseInterface(unsigned char, unsigned char, unsigned char, unsigned char)+0x14>
     2c2:	2000      	movs	r0, #0
     2c4:	bc30      	pop	{r4, r5}
     2c6:	4770      	bx	lr
     2c8:	2a08      	cmp	r2, #8
     2ca:	d1fa      	bne.n	2c2 <USBHostMSD::parseInterface(unsigned char, unsigned char, unsigned char, unsigned char)+0xe>
     2cc:	2b06      	cmp	r3, #6
     2ce:	d1f8      	bne.n	2c2 <USBHostMSD::parseInterface(unsigned char, unsigned char, unsigned char, unsigned char)+0xe>
     2d0:	2d50      	cmp	r5, #80	; 0x50
     2d2:	d1f6      	bne.n	2c2 <USBHostMSD::parseInterface(unsigned char, unsigned char, unsigned char, unsigned char)+0xe>
     2d4:	f8c0 1298 	str.w	r1, [r0, #664]	; 0x298
     2d8:	2001      	movs	r0, #1
     2da:	e7f3      	b.n	2c4 <USBHostMSD::parseInterface(unsigned char, unsigned char, unsigned char, unsigned char)+0x10>

000002dc <USBHostMSD::disk_sectors()>:
     2dc:	f890 329d 	ldrb.w	r3, [r0, #669]	; 0x29d
     2e0:	b510      	push	{r4, lr}
     2e2:	4604      	mov	r4, r0
     2e4:	b123      	cbz	r3, 2f0 <USBHostMSD::disk_sectors()+0x14>
     2e6:	f504 7424 	add.w	r4, r4, #656	; 0x290
     2ea:	e9d4 0100 	ldrd	r0, r1, [r4]
     2ee:	bd10      	pop	{r4, pc}
     2f0:	6803      	ldr	r3, [r0, #0]
     2f2:	68db      	ldr	r3, [r3, #12]
     2f4:	4798      	blx	r3
     2f6:	f894 329d 	ldrb.w	r3, [r4, #669]	; 0x29d
     2fa:	2b00      	cmp	r3, #0
     2fc:	d1f3      	bne.n	2e6 <USBHostMSD::disk_sectors()+0xa>
     2fe:	2000      	movs	r0, #0
     300:	2100      	movs	r1, #0
     302:	bd10      	pop	{r4, pc}

00000304 <non-virtual thunk to USBHostMSD::disk_sectors()>:
     304:	f1a0 0004 	sub.w	r0, r0, #4
     308:	f7ff bfe8 	b.w	2dc <USBHostMSD::disk_sectors()>

0000030c <void mbed::FunctionPointer::membercaller<USBHostMSD>(void*, char*)>:
     30c:	b510      	push	{r4, lr}
     30e:	460b      	mov	r3, r1
     310:	b082      	sub	sp, #8
     312:	6849      	ldr	r1, [r1, #4]
     314:	4602      	mov	r2, r0
     316:	6818      	ldr	r0, [r3, #0]
     318:	466b      	mov	r3, sp
     31a:	c303      	stmia	r3!, {r0, r1}
     31c:	460b      	mov	r3, r1
     31e:	07d9      	lsls	r1, r3, #31
     320:	d507      	bpl.n	332 <void mbed::FunctionPointer::membercaller<USBHostMSD>(void*, char*)+0x26>
     322:	105b      	asrs	r3, r3, #1
     324:	58d4      	ldr	r4, [r2, r3]
     326:	9900      	ldr	r1, [sp, #0]
     328:	18d0      	adds	r0, r2, r3
     32a:	5861      	ldr	r1, [r4, r1]
     32c:	4788      	blx	r1
     32e:	b002      	add	sp, #8
     330:	bd10      	pop	{r4, pc}
     332:	eb02 0063 	add.w	r0, r2, r3, asr #1
     336:	9900      	ldr	r1, [sp, #0]
     338:	4788      	blx	r1
     33a:	b002      	add	sp, #8
     33c:	bd10      	pop	{r4, pc}
     33e:	bf00      	nop

00000340 <USBHostMSD::~USBHostMSD()>:
     340:	b510      	push	{r4, lr}
     342:	4b06      	ldr	r3, [pc, #24]	; (35c <USBHostMSD::~USBHostMSD()+0x1c>)
     344:	4604      	mov	r4, r0
     346:	f103 0208 	add.w	r2, r3, #8
     34a:	333c      	adds	r3, #60	; 0x3c
     34c:	6022      	str	r2, [r4, #0]
     34e:	f840 3f04 	str.w	r3, [r0, #4]!
     352:	f002 fbe9 	bl	2b28 <FATFileSystem::~FATFileSystem()>
     356:	4620      	mov	r0, r4
     358:	bd10      	pop	{r4, pc}
     35a:	bf00      	nop
     35c:	0000afc0 	.word	0x0000afc0

00000360 <non-virtual thunk to USBHostMSD::~USBHostMSD()>:
     360:	f1a0 0004 	sub.w	r0, r0, #4
     364:	f7ff bfec 	b.w	340 <USBHostMSD::~USBHostMSD()>

00000368 <USBHostMSD::~USBHostMSD()>:
     368:	b510      	push	{r4, lr}
     36a:	4b07      	ldr	r3, [pc, #28]	; (388 <USBHostMSD::~USBHostMSD()+0x20>)
     36c:	4604      	mov	r4, r0
     36e:	f103 0208 	add.w	r2, r3, #8
     372:	333c      	adds	r3, #60	; 0x3c
     374:	6022      	str	r2, [r4, #0]
     376:	f840 3f04 	str.w	r3, [r0, #4]!
     37a:	f002 fbd5 	bl	2b28 <FATFileSystem::~FATFileSystem()>
     37e:	4620      	mov	r0, r4
     380:	f007 fe80 	bl	8084 <operator delete(void*)>
     384:	4620      	mov	r0, r4
     386:	bd10      	pop	{r4, pc}
     388:	0000afc0 	.word	0x0000afc0

0000038c <non-virtual thunk to USBHostMSD::~USBHostMSD()>:
     38c:	f1a0 0004 	sub.w	r0, r0, #4
     390:	e7ea      	b.n	368 <USBHostMSD::~USBHostMSD()>
     392:	bf00      	nop

00000394 <USBHostMSD::useEndpoint(unsigned char, ENDPOINT_TYPE, ENDPOINT_DIRECTION)>:
     394:	f8d0 3298 	ldr.w	r3, [r0, #664]	; 0x298
     398:	4299      	cmp	r1, r3
     39a:	d001      	beq.n	3a0 <USBHostMSD::useEndpoint(unsigned char, ENDPOINT_TYPE, ENDPOINT_DIRECTION)+0xc>
     39c:	2000      	movs	r0, #0
     39e:	4770      	bx	lr
     3a0:	2a02      	cmp	r2, #2
     3a2:	d1fb      	bne.n	39c <USBHostMSD::useEndpoint(unsigned char, ENDPOINT_TYPE, ENDPOINT_DIRECTION)+0x8>
     3a4:	f890 325c 	ldrb.w	r3, [r0, #604]	; 0x25c
     3a8:	3301      	adds	r3, #1
     3aa:	b2db      	uxtb	r3, r3
     3ac:	2b02      	cmp	r3, #2
     3ae:	f880 325c 	strb.w	r3, [r0, #604]	; 0x25c
     3b2:	d001      	beq.n	3b8 <USBHostMSD::useEndpoint(unsigned char, ENDPOINT_TYPE, ENDPOINT_DIRECTION)+0x24>
     3b4:	2001      	movs	r0, #1
     3b6:	4770      	bx	lr
     3b8:	2301      	movs	r3, #1
     3ba:	f880 329c 	strb.w	r3, [r0, #668]	; 0x29c
     3be:	4618      	mov	r0, r3
     3c0:	4770      	bx	lr
     3c2:	bf00      	nop

000003c4 <USBHostMSD::USBHostMSD(char const*)>:
     3c4:	4b16      	ldr	r3, [pc, #88]	; (420 <USBHostMSD::USBHostMSD(char const*)+0x5c>)
     3c6:	b570      	push	{r4, r5, r6, lr}
     3c8:	4604      	mov	r4, r0
     3ca:	f840 3b04 	str.w	r3, [r0], #4
     3ce:	f002 fc77 	bl	2cc0 <FATFileSystem::FATFileSystem(char const*)>
     3d2:	4b14      	ldr	r3, [pc, #80]	; (424 <USBHostMSD::USBHostMSD(char const*)+0x60>)
     3d4:	f504 7624 	add.w	r6, r4, #656	; 0x290
     3d8:	f103 0208 	add.w	r2, r3, #8
     3dc:	333c      	adds	r3, #60	; 0x3c
     3de:	e884 000c 	stmia.w	r4, {r2, r3}
     3e2:	f000 fe5b 	bl	109c <USBHost::getHostInst()>
     3e6:	2100      	movs	r1, #0
     3e8:	2200      	movs	r2, #0
     3ea:	2300      	movs	r3, #0
     3ec:	f8c4 0248 	str.w	r0, [r4, #584]	; 0x248
     3f0:	f04f 35ff 	mov.w	r5, #4294967295	; 0xffffffff
     3f4:	f884 1250 	strb.w	r1, [r4, #592]	; 0x250
     3f8:	f8c4 124c 	str.w	r1, [r4, #588]	; 0x24c
     3fc:	f8c4 1254 	str.w	r1, [r4, #596]	; 0x254
     400:	f8c4 1258 	str.w	r1, [r4, #600]	; 0x258
     404:	f8c4 128c 	str.w	r1, [r4, #652]	; 0x28c
     408:	e9c6 2300 	strd	r2, r3, [r6]
     40c:	f884 125c 	strb.w	r1, [r4, #604]	; 0x25c
     410:	4620      	mov	r0, r4
     412:	f884 129c 	strb.w	r1, [r4, #668]	; 0x29c
     416:	f884 129d 	strb.w	r1, [r4, #669]	; 0x29d
     41a:	f8c4 5298 	str.w	r5, [r4, #664]	; 0x298
     41e:	bd70      	pop	{r4, r5, r6, pc}
     420:	0000afa8 	.word	0x0000afa8
     424:	0000afc0 	.word	0x0000afc0

00000428 <USBHostMSD::connected()>:
     428:	f890 0250 	ldrb.w	r0, [r0, #592]	; 0x250
     42c:	4770      	bx	lr
     42e:	bf00      	nop

00000430 <USBHostMSD::connect()>:
     430:	e92d 43f0 	stmdb	sp!, {r4, r5, r6, r7, r8, r9, lr}
     434:	f890 7250 	ldrb.w	r7, [r0, #592]	; 0x250
     438:	b087      	sub	sp, #28
     43a:	4606      	mov	r6, r0
     43c:	bb9f      	cbnz	r7, 4a6 <USBHostMSD::connect()+0x76>
     43e:	463c      	mov	r4, r7
     440:	b2e1      	uxtb	r1, r4
     442:	f8d6 0248 	ldr.w	r0, [r6, #584]	; 0x248
     446:	f000 ff5d 	bl	1304 <USBHost::getDevice(unsigned char)>
     44a:	3401      	adds	r4, #1
     44c:	4601      	mov	r1, r0
     44e:	4632      	mov	r2, r6
     450:	f8c6 024c 	str.w	r0, [r6, #588]	; 0x24c
     454:	b150      	cbz	r0, 46c <USBHostMSD::connect()+0x3c>
     456:	f8d6 0248 	ldr.w	r0, [r6, #584]	; 0x248
     45a:	f001 fd77 	bl	1f4c <USBHost::enumerate(USBDeviceConnected*, IUSBEnumerator*)>
     45e:	4605      	mov	r5, r0
     460:	b930      	cbnz	r0, 470 <USBHostMSD::connect()+0x40>
     462:	f896 829c 	ldrb.w	r8, [r6, #668]	; 0x29c
     466:	f1b8 0f00 	cmp.w	r8, #0
     46a:	d120      	bne.n	4ae <USBHostMSD::connect()+0x7e>
     46c:	2c05      	cmp	r4, #5
     46e:	d1e7      	bne.n	440 <USBHostMSD::connect()+0x10>
     470:	2300      	movs	r3, #0
     472:	f506 7124 	add.w	r1, r6, #656	; 0x290
     476:	2400      	movs	r4, #0
     478:	2500      	movs	r5, #0
     47a:	f04f 32ff 	mov.w	r2, #4294967295	; 0xffffffff
     47e:	f886 3250 	strb.w	r3, [r6, #592]	; 0x250
     482:	f8c6 324c 	str.w	r3, [r6, #588]	; 0x24c
     486:	f8c6 3254 	str.w	r3, [r6, #596]	; 0x254
     48a:	f8c6 3258 	str.w	r3, [r6, #600]	; 0x258
     48e:	f8c6 328c 	str.w	r3, [r6, #652]	; 0x28c
     492:	e9c1 4500 	strd	r4, r5, [r1]
     496:	f886 329c 	strb.w	r3, [r6, #668]	; 0x29c
     49a:	f886 329d 	strb.w	r3, [r6, #669]	; 0x29d
     49e:	f886 325c 	strb.w	r3, [r6, #604]	; 0x25c
     4a2:	f8c6 2298 	str.w	r2, [r6, #664]	; 0x298
     4a6:	4638      	mov	r0, r7
     4a8:	b007      	add	sp, #28
     4aa:	e8bd 83f0 	ldmia.w	sp!, {r4, r5, r6, r7, r8, r9, pc}
     4ae:	2202      	movs	r2, #2
     4b0:	f896 1298 	ldrb.w	r1, [r6, #664]	; 0x298
     4b4:	4613      	mov	r3, r2
     4b6:	f8d6 024c 	ldr.w	r0, [r6, #588]	; 0x24c
     4ba:	9500      	str	r5, [sp, #0]
     4bc:	f000 fbfe 	bl	cbc <USBDeviceConnected::getEndpoint(unsigned char, ENDPOINT_TYPE, ENDPOINT_DIRECTION, unsigned char)>
     4c0:	f8d6 324c 	ldr.w	r3, [r6, #588]	; 0x24c
     4c4:	f8c6 0254 	str.w	r0, [r6, #596]	; 0x254
     4c8:	f896 1298 	ldrb.w	r1, [r6, #664]	; 0x298
     4cc:	4618      	mov	r0, r3
     4ce:	9500      	str	r5, [sp, #0]
     4d0:	2301      	movs	r3, #1
     4d2:	2202      	movs	r2, #2
     4d4:	f000 fbf2 	bl	cbc <USBDeviceConnected::getEndpoint(unsigned char, ENDPOINT_TYPE, ENDPOINT_DIRECTION, unsigned char)>
     4d8:	f8d6 3254 	ldr.w	r3, [r6, #596]	; 0x254
     4dc:	f8c6 0258 	str.w	r0, [r6, #600]	; 0x258
     4e0:	2b00      	cmp	r3, #0
     4e2:	d0c3      	beq.n	46c <USBHostMSD::connect()+0x3c>
     4e4:	2800      	cmp	r0, #0
     4e6:	d0c1      	beq.n	46c <USBHostMSD::connect()+0x3c>
     4e8:	f8d6 224c 	ldr.w	r2, [r6, #588]	; 0x24c
     4ec:	f8d6 1298 	ldr.w	r1, [r6, #664]	; 0x298
     4f0:	f8b2 0100 	ldrh.w	r0, [r2, #256]	; 0x100
     4f4:	f8b2 30fe 	ldrh.w	r3, [r2, #254]	; 0xfe
     4f8:	e88d 0005 	stmia.w	sp, {r0, r2}
     4fc:	9102      	str	r1, [sp, #8]
     4fe:	2251      	movs	r2, #81	; 0x51
     500:	491d      	ldr	r1, [pc, #116]	; (578 <USBHostMSD::connect()+0x148>)
     502:	481e      	ldr	r0, [pc, #120]	; (57c <USBHostMSD::connect()+0x14c>)
     504:	f008 fe90 	bl	9228 <iprintf>
     508:	f896 3298 	ldrb.w	r3, [r6, #664]	; 0x298
     50c:	491c      	ldr	r1, [pc, #112]	; (580 <USBHostMSD::connect()+0x150>)
     50e:	ebc3 1303 	rsb	r3, r3, r3, lsl #4
     512:	6808      	ldr	r0, [r1, #0]
     514:	009a      	lsls	r2, r3, #2
     516:	f8d6 324c 	ldr.w	r3, [r6, #588]	; 0x24c
     51a:	3238      	adds	r2, #56	; 0x38
     51c:	5098      	str	r0, [r3, r2]
     51e:	f8d6 7248 	ldr.w	r7, [r6, #584]	; 0x248
     522:	f8d6 424c 	ldr.w	r4, [r6, #588]	; 0x24c
     526:	4638      	mov	r0, r7
     528:	4621      	mov	r1, r4
     52a:	f8d6 9298 	ldr.w	r9, [r6, #664]	; 0x298
     52e:	f000 fff1 	bl	1514 <USBHost::findDevice(USBDeviceConnected*)>
     532:	1c43      	adds	r3, r0, #1
     534:	d01b      	beq.n	56e <USBHostMSD::connect()+0x13e>
     536:	b1d6      	cbz	r6, 56e <USBHostMSD::connect()+0x13e>
     538:	fa5f f389 	uxtb.w	r3, r9
     53c:	ebc3 1203 	rsb	r2, r3, r3, lsl #4
     540:	eb04 0482 	add.w	r4, r4, r2, lsl #2
     544:	eb07 0080 	add.w	r0, r7, r0, lsl #2
     548:	4a0e      	ldr	r2, [pc, #56]	; (584 <USBHostMSD::connect()+0x154>)
     54a:	4403      	add	r3, r0
     54c:	4f0e      	ldr	r7, [pc, #56]	; (588 <USBHostMSD::connect()+0x158>)
     54e:	f503 5101 	add.w	r1, r3, #8256	; 0x2040
     552:	2001      	movs	r0, #1
     554:	f104 0318 	add.w	r3, r4, #24
     558:	9204      	str	r2, [sp, #16]
     55a:	9505      	str	r5, [sp, #20]
     55c:	aa04      	add	r2, sp, #16
     55e:	f881 0029 	strb.w	r0, [r1, #41]	; 0x29
     562:	ca03      	ldmia	r2!, {r0, r1}
     564:	609e      	str	r6, [r3, #8]
     566:	60d8      	str	r0, [r3, #12]
     568:	6119      	str	r1, [r3, #16]
     56a:	61df      	str	r7, [r3, #28]
     56c:	605d      	str	r5, [r3, #4]
     56e:	2301      	movs	r3, #1
     570:	4647      	mov	r7, r8
     572:	f886 3250 	strb.w	r3, [r6, #592]	; 0x250
     576:	e796      	b.n	4a6 <USBHostMSD::connect()+0x76>
     578:	0000b08c 	.word	0x0000b08c
     57c:	0000b040 	.word	0x0000b040
     580:	0000b0cc 	.word	0x0000b0cc
     584:	00000275 	.word	0x00000275
     588:	0000030d 	.word	0x0000030d

0000058c <USBHostMSD::checkResult(unsigned char, USBEndpoint*)>:
     58c:	b530      	push	{r4, r5, lr}
     58e:	2904      	cmp	r1, #4
     590:	b085      	sub	sp, #20
     592:	4614      	mov	r4, r2
     594:	d003      	beq.n	59e <USBHostMSD::checkResult(unsigned char, USBEndpoint*)+0x12>
     596:	b999      	cbnz	r1, 5c0 <USBHostMSD::checkResult(unsigned char, USBEndpoint*)+0x34>
     598:	2000      	movs	r0, #0
     59a:	b005      	add	sp, #20
     59c:	bd30      	pop	{r4, r5, pc}
     59e:	f8d0 5248 	ldr.w	r5, [r0, #584]	; 0x248
     5a2:	f892 2028 	ldrb.w	r2, [r2, #40]	; 0x28
     5a6:	2300      	movs	r3, #0
     5a8:	f8d0 124c 	ldr.w	r1, [r0, #588]	; 0x24c
     5ac:	9201      	str	r2, [sp, #4]
     5ae:	9300      	str	r3, [sp, #0]
     5b0:	9302      	str	r3, [sp, #8]
     5b2:	9303      	str	r3, [sp, #12]
     5b4:	4628      	mov	r0, r5
     5b6:	2202      	movs	r2, #2
     5b8:	2301      	movs	r3, #1
     5ba:	f001 fabd 	bl	1b38 <USBHost::controlWrite(USBDeviceConnected*, unsigned char, unsigned char, unsigned long, unsigned long, unsigned char*, unsigned long)>
     5be:	b110      	cbz	r0, 5c6 <USBHostMSD::checkResult(unsigned char, USBEndpoint*)+0x3a>
     5c0:	f04f 30ff 	mov.w	r0, #4294967295	; 0xffffffff
     5c4:	e7e9      	b.n	59a <USBHostMSD::checkResult(unsigned char, USBEndpoint*)+0xe>
     5c6:	2310      	movs	r3, #16
     5c8:	f884 3025 	strb.w	r3, [r4, #37]	; 0x25
     5cc:	e7e4      	b.n	598 <USBHostMSD::checkResult(unsigned char, USBEndpoint*)+0xc>
     5ce:	bf00      	nop

000005d0 <USBHostMSD::SCSITransfer(unsigned char*, unsigned char, int, unsigned char*, unsigned long)>:
     5d0:	e92d 4ff0 	stmdb	sp!, {r4, r5, r6, r7, r8, r9, r10, r11, lr}
     5d4:	4604      	mov	r4, r0
     5d6:	b085      	sub	sp, #20
     5d8:	f894 625c 	ldrb.w	r6, [r4, #604]	; 0x25c
     5dc:	4d6d      	ldr	r5, [pc, #436]	; (794 <USBHostMSD::SCSITransfer(unsigned char*, unsigned char, int, unsigned char*, unsigned long)+0x1c4>)
     5de:	f8dd b03c 	ldr.w	r11, [sp, #60]	; 0x3c
     5e2:	2043      	movs	r0, #67	; 0x43
     5e4:	b2c0      	uxtb	r0, r0
     5e6:	4335      	orrs	r5, r6
     5e8:	f504 7a1b 	add.w	r10, r4, #620	; 0x26c
     5ec:	2600      	movs	r6, #0
     5ee:	4688      	mov	r8, r1
     5f0:	f8c4 0260 	str.w	r0, [r4, #608]	; 0x260
     5f4:	4691      	mov	r9, r2
     5f6:	f884 226b 	strb.w	r2, [r4, #619]	; 0x26b
     5fa:	f8c4 525c 	str.w	r5, [r4, #604]	; 0x25c
     5fe:	f884 6264 	strb.w	r6, [r4, #612]	; 0x264
     602:	f884 626a 	strb.w	r6, [r4, #618]	; 0x26a
     606:	4631      	mov	r1, r6
     608:	f884 3269 	strb.w	r3, [r4, #617]	; 0x269
     60c:	4650      	mov	r0, r10
     60e:	f8c4 b265 	str.w	r11, [r4, #613]	; 0x265
     612:	2210      	movs	r2, #16
     614:	461f      	mov	r7, r3
     616:	9e0e      	ldr	r6, [sp, #56]	; 0x38
     618:	f008 f8f7 	bl	880a <memset>
     61c:	f1b8 0f00 	cmp.w	r8, #0
     620:	d004      	beq.n	62c <USBHostMSD::SCSITransfer(unsigned char*, unsigned char, int, unsigned char*, unsigned long)+0x5c>
     622:	4650      	mov	r0, r10
     624:	464a      	mov	r2, r9
     626:	4641      	mov	r1, r8
     628:	f008 f8e6 	bl	87f8 <memcpy>
     62c:	231f      	movs	r3, #31
     62e:	2501      	movs	r5, #1
     630:	f8d4 124c 	ldr.w	r1, [r4, #588]	; 0x24c
     634:	f8d4 2258 	ldr.w	r2, [r4, #600]	; 0x258
     638:	f8d4 0248 	ldr.w	r0, [r4, #584]	; 0x248
     63c:	e88d 0028 	stmia.w	sp, {r3, r5}
     640:	f204 235d 	addw	r3, r4, #605	; 0x25d
     644:	f001 f914 	bl	1870 <USBHost::bulkWrite(USBDeviceConnected*, USBEndpoint*, unsigned char*, unsigned long, bool)>
     648:	f8d4 2258 	ldr.w	r2, [r4, #600]	; 0x258
     64c:	4601      	mov	r1, r0
     64e:	4620      	mov	r0, r4
     650:	f7ff ff9c 	bl	58c <USBHostMSD::checkResult(unsigned char, USBEndpoint*)>
     654:	2800      	cmp	r0, #0
     656:	d178      	bne.n	74a <USBHostMSD::SCSITransfer(unsigned char*, unsigned char, int, unsigned char*, unsigned long)+0x17a>
     658:	b126      	cbz	r6, 664 <USBHostMSD::SCSITransfer(unsigned char*, unsigned char, int, unsigned char*, unsigned long)+0x94>
     65a:	2f00      	cmp	r7, #0
     65c:	d061      	beq.n	722 <USBHostMSD::SCSITransfer(unsigned char*, unsigned char, int, unsigned char*, unsigned long)+0x152>
     65e:	2f80      	cmp	r7, #128	; 0x80
     660:	f000 8082 	beq.w	768 <USBHostMSD::SCSITransfer(unsigned char*, unsigned char, int, unsigned char*, unsigned long)+0x198>
     664:	230d      	movs	r3, #13
     666:	2500      	movs	r5, #0
     668:	2701      	movs	r7, #1
     66a:	f8d4 124c 	ldr.w	r1, [r4, #588]	; 0x24c
     66e:	f8d4 2254 	ldr.w	r2, [r4, #596]	; 0x254
     672:	f8d4 0248 	ldr.w	r0, [r4, #584]	; 0x248
     676:	f8c4 527c 	str.w	r5, [r4, #636]	; 0x27c
     67a:	e88d 0088 	stmia.w	sp, {r3, r7}
     67e:	f504 731f 	add.w	r3, r4, #636	; 0x27c
     682:	f001 f905 	bl	1890 <USBHost::bulkRead(USBDeviceConnected*, USBEndpoint*, unsigned char*, unsigned long, bool)>
     686:	f8d4 2254 	ldr.w	r2, [r4, #596]	; 0x254
     68a:	4601      	mov	r1, r0
     68c:	4620      	mov	r0, r4
     68e:	f7ff ff7d 	bl	58c <USBHostMSD::checkResult(unsigned char, USBEndpoint*)>
     692:	4606      	mov	r6, r0
     694:	2800      	cmp	r0, #0
     696:	d158      	bne.n	74a <USBHostMSD::SCSITransfer(unsigned char*, unsigned char, int, unsigned char*, unsigned long)+0x17a>
     698:	4a3f      	ldr	r2, [pc, #252]	; (798 <USBHostMSD::SCSITransfer(unsigned char*, unsigned char, int, unsigned char*, unsigned long)+0x1c8>)
     69a:	f8d4 327c 	ldr.w	r3, [r4, #636]	; 0x27c
     69e:	4293      	cmp	r3, r2
     6a0:	d153      	bne.n	74a <USBHostMSD::SCSITransfer(unsigned char*, unsigned char, int, unsigned char*, unsigned long)+0x17a>
     6a2:	f894 5288 	ldrb.w	r5, [r4, #648]	; 0x288
     6a6:	2d01      	cmp	r5, #1
     6a8:	d054      	beq.n	754 <USBHostMSD::SCSITransfer(unsigned char*, unsigned char, int, unsigned char*, unsigned long)+0x184>
     6aa:	2d02      	cmp	r5, #2
     6ac:	d003      	beq.n	6b6 <USBHostMSD::SCSITransfer(unsigned char*, unsigned char, int, unsigned char*, unsigned long)+0xe6>
     6ae:	4628      	mov	r0, r5
     6b0:	b005      	add	sp, #20
     6b2:	e8bd 8ff0 	ldmia.w	sp!, {r4, r5, r6, r7, r8, r9, r10, r11, pc}
     6b6:	f898 3000 	ldrb.w	r3, [r8]
     6ba:	2b03      	cmp	r3, #3
     6bc:	d0f7      	beq.n	6ae <USBHostMSD::SCSITransfer(unsigned char*, unsigned char, int, unsigned char*, unsigned long)+0xde>
     6be:	f8d4 3298 	ldr.w	r3, [r4, #664]	; 0x298
     6c2:	f8d4 124c 	ldr.w	r1, [r4, #588]	; 0x24c
     6c6:	f8d4 0248 	ldr.w	r0, [r4, #584]	; 0x248
     6ca:	2221      	movs	r2, #33	; 0x21
     6cc:	9301      	str	r3, [sp, #4]
     6ce:	9600      	str	r6, [sp, #0]
     6d0:	23ff      	movs	r3, #255	; 0xff
     6d2:	9602      	str	r6, [sp, #8]
     6d4:	9603      	str	r6, [sp, #12]
     6d6:	f001 fa2f 	bl	1b38 <USBHost::controlWrite(USBDeviceConnected*, unsigned char, unsigned char, unsigned long, unsigned long, unsigned char*, unsigned long)>
     6da:	f8d4 3254 	ldr.w	r3, [r4, #596]	; 0x254
     6de:	9600      	str	r6, [sp, #0]
     6e0:	f893 3028 	ldrb.w	r3, [r3, #40]	; 0x28
     6e4:	f8d4 124c 	ldr.w	r1, [r4, #588]	; 0x24c
     6e8:	f8d4 0248 	ldr.w	r0, [r4, #584]	; 0x248
     6ec:	462a      	mov	r2, r5
     6ee:	9301      	str	r3, [sp, #4]
     6f0:	9602      	str	r6, [sp, #8]
     6f2:	463b      	mov	r3, r7
     6f4:	9603      	str	r6, [sp, #12]
     6f6:	f001 fa1f 	bl	1b38 <USBHost::controlWrite(USBDeviceConnected*, unsigned char, unsigned char, unsigned long, unsigned long, unsigned char*, unsigned long)>
     6fa:	f8d4 3258 	ldr.w	r3, [r4, #600]	; 0x258
     6fe:	9600      	str	r6, [sp, #0]
     700:	f893 e028 	ldrb.w	lr, [r3, #40]	; 0x28
     704:	f8d4 0248 	ldr.w	r0, [r4, #584]	; 0x248
     708:	f8d4 124c 	ldr.w	r1, [r4, #588]	; 0x24c
     70c:	462a      	mov	r2, r5
     70e:	463b      	mov	r3, r7
     710:	f8cd e004 	str.w	lr, [sp, #4]
     714:	9602      	str	r6, [sp, #8]
     716:	9603      	str	r6, [sp, #12]
     718:	f001 fa0e 	bl	1b38 <USBHost::controlWrite(USBDeviceConnected*, unsigned char, unsigned char, unsigned long, unsigned long, unsigned char*, unsigned long)>
     71c:	f894 5288 	ldrb.w	r5, [r4, #648]	; 0x288
     720:	e7c5      	b.n	6ae <USBHostMSD::SCSITransfer(unsigned char*, unsigned char, int, unsigned char*, unsigned long)+0xde>
     722:	f8d4 124c 	ldr.w	r1, [r4, #588]	; 0x24c
     726:	f8d4 2258 	ldr.w	r2, [r4, #600]	; 0x258
     72a:	f8d4 0248 	ldr.w	r0, [r4, #584]	; 0x248
     72e:	4633      	mov	r3, r6
     730:	f8cd b000 	str.w	r11, [sp]
     734:	9501      	str	r5, [sp, #4]
     736:	f001 f89b 	bl	1870 <USBHost::bulkWrite(USBDeviceConnected*, USBEndpoint*, unsigned char*, unsigned long, bool)>
     73a:	f8d4 2258 	ldr.w	r2, [r4, #600]	; 0x258
     73e:	4601      	mov	r1, r0
     740:	4620      	mov	r0, r4
     742:	f7ff ff23 	bl	58c <USBHostMSD::checkResult(unsigned char, USBEndpoint*)>
     746:	2800      	cmp	r0, #0
     748:	d08c      	beq.n	664 <USBHostMSD::SCSITransfer(unsigned char*, unsigned char, int, unsigned char*, unsigned long)+0x94>
     74a:	f04f 30ff 	mov.w	r0, #4294967295	; 0xffffffff
     74e:	b005      	add	sp, #20
     750:	e8bd 8ff0 	ldmia.w	sp!, {r4, r5, r6, r7, r8, r9, r10, r11, pc}
     754:	f898 3000 	ldrb.w	r3, [r8]
     758:	2b03      	cmp	r3, #3
     75a:	d0a8      	beq.n	6ae <USBHostMSD::SCSITransfer(unsigned char*, unsigned char, int, unsigned char*, unsigned long)+0xde>
     75c:	4620      	mov	r0, r4
     75e:	b005      	add	sp, #20
     760:	e8bd 4ff0 	ldmia.w	sp!, {r4, r5, r6, r7, r8, r9, r10, r11, lr}
     764:	f000 b878 	b.w	858 <USBHostMSD::SCSIRequestSense()>
     768:	f8d4 124c 	ldr.w	r1, [r4, #588]	; 0x24c
     76c:	f8d4 2254 	ldr.w	r2, [r4, #596]	; 0x254
     770:	f8d4 0248 	ldr.w	r0, [r4, #584]	; 0x248
     774:	4633      	mov	r3, r6
     776:	f8cd b000 	str.w	r11, [sp]
     77a:	9501      	str	r5, [sp, #4]
     77c:	f001 f888 	bl	1890 <USBHost::bulkRead(USBDeviceConnected*, USBEndpoint*, unsigned char*, unsigned long, bool)>
     780:	f8d4 2254 	ldr.w	r2, [r4, #596]	; 0x254
     784:	4601      	mov	r1, r0
     786:	4620      	mov	r0, r4
     788:	f7ff ff00 	bl	58c <USBHostMSD::checkResult(unsigned char, USBEndpoint*)>
     78c:	2800      	cmp	r0, #0
     78e:	f43f af69 	beq.w	664 <USBHostMSD::SCSITransfer(unsigned char*, unsigned char, int, unsigned char*, unsigned long)+0x94>
     792:	e7da      	b.n	74a <USBHostMSD::SCSITransfer(unsigned char*, unsigned char, int, unsigned char*, unsigned long)+0x17a>
     794:	42535500 	.word	0x42535500
     798:	53425355 	.word	0x53425355

0000079c <USBHostMSD::readCapacity()>:
     79c:	b5f0      	push	{r4, r5, r6, r7, lr}
     79e:	b08d      	sub	sp, #52	; 0x34
     7a0:	aa07      	add	r2, sp, #28
     7a2:	2308      	movs	r3, #8
     7a4:	2400      	movs	r4, #0
     7a6:	e88d 000c 	stmia.w	sp, {r2, r3}
     7aa:	2525      	movs	r5, #37	; 0x25
     7ac:	a909      	add	r1, sp, #36	; 0x24
     7ae:	220a      	movs	r2, #10
     7b0:	2380      	movs	r3, #128	; 0x80
     7b2:	f88d 5024 	strb.w	r5, [sp, #36]	; 0x24
     7b6:	f88d 4025 	strb.w	r4, [sp, #37]	; 0x25
     7ba:	f88d 4026 	strb.w	r4, [sp, #38]	; 0x26
     7be:	f88d 4027 	strb.w	r4, [sp, #39]	; 0x27
     7c2:	f88d 4028 	strb.w	r4, [sp, #40]	; 0x28
     7c6:	f88d 4029 	strb.w	r4, [sp, #41]	; 0x29
     7ca:	f88d 402a 	strb.w	r4, [sp, #42]	; 0x2a
     7ce:	f88d 402b 	strb.w	r4, [sp, #43]	; 0x2b
     7d2:	f88d 402c 	strb.w	r4, [sp, #44]	; 0x2c
     7d6:	f88d 402d 	strb.w	r4, [sp, #45]	; 0x2d
     7da:	4607      	mov	r7, r0
     7dc:	f7ff fef8 	bl	5d0 <USBHostMSD::SCSITransfer(unsigned char*, unsigned char, int, unsigned char*, unsigned long)>
     7e0:	4606      	mov	r6, r0
     7e2:	bb88      	cbnz	r0, 848 <Heap_Size+0x48>
     7e4:	f89d 201d 	ldrb.w	r2, [sp, #29]
     7e8:	f89d 1021 	ldrb.w	r1, [sp, #33]	; 0x21
     7ec:	f89d 001c 	ldrb.w	r0, [sp, #28]
     7f0:	f89d 3020 	ldrb.w	r3, [sp, #32]
     7f4:	f89d 501f 	ldrb.w	r5, [sp, #31]
     7f8:	f89d 4023 	ldrb.w	r4, [sp, #35]	; 0x23
     7fc:	0412      	lsls	r2, r2, #16
     7fe:	0409      	lsls	r1, r1, #16
     800:	ea42 6200 	orr.w	r2, r2, r0, lsl #24
     804:	ea41 6103 	orr.w	r1, r1, r3, lsl #24
     808:	f89d 001e 	ldrb.w	r0, [sp, #30]
     80c:	f89d 3022 	ldrb.w	r3, [sp, #34]	; 0x22
     810:	432a      	orrs	r2, r5
     812:	4321      	orrs	r1, r4
     814:	ea42 2200 	orr.w	r2, r2, r0, lsl #8
     818:	ea41 2103 	orr.w	r1, r1, r3, lsl #8
     81c:	fb81 4502 	smull	r4, r5, r1, r2
     820:	f8d7 024c 	ldr.w	r0, [r7, #588]	; 0x24c
     824:	17d3      	asrs	r3, r2, #31
     826:	f507 7e24 	add.w	lr, r7, #656	; 0x290
     82a:	e9cd 2300 	strd	r2, r3, [sp]
     82e:	e9ce 2300 	strd	r2, r3, [lr]
     832:	9102      	str	r1, [sp, #8]
     834:	4603      	mov	r3, r0
     836:	f8c7 128c 	str.w	r1, [r7, #652]	; 0x28c
     83a:	4805      	ldr	r0, [pc, #20]	; (850 <Heap_Size+0x50>)
     83c:	e9cd 4504 	strd	r4, r5, [sp, #16]
     840:	4904      	ldr	r1, [pc, #16]	; (854 <Heap_Size+0x54>)
     842:	228b      	movs	r2, #139	; 0x8b
     844:	f008 fcf0 	bl	9228 <iprintf>
     848:	4630      	mov	r0, r6
     84a:	b00d      	add	sp, #52	; 0x34
     84c:	bdf0      	pop	{r4, r5, r6, r7, pc}
     84e:	bf00      	nop
     850:	0000b0d0 	.word	0x0000b0d0
     854:	0000b08c 	.word	0x0000b08c

00000858 <USBHostMSD::SCSIRequestSense()>:
     858:	b530      	push	{r4, r5, lr}
     85a:	4b0a      	ldr	r3, [pc, #40]	; (884 <USBHostMSD::SCSIRequestSense()+0x2c>)
     85c:	b08b      	sub	sp, #44	; 0x2c
     85e:	4605      	mov	r5, r0
     860:	6818      	ldr	r0, [r3, #0]
     862:	889c      	ldrh	r4, [r3, #4]
     864:	aa05      	add	r2, sp, #20
     866:	2312      	movs	r3, #18
     868:	e88d 000c 	stmia.w	sp, {r2, r3}
     86c:	9003      	str	r0, [sp, #12]
     86e:	a903      	add	r1, sp, #12
     870:	4628      	mov	r0, r5
     872:	2206      	movs	r2, #6
     874:	2380      	movs	r3, #128	; 0x80
     876:	f8ad 4010 	strh.w	r4, [sp, #16]
     87a:	f7ff fea9 	bl	5d0 <USBHostMSD::SCSITransfer(unsigned char*, unsigned char, int, unsigned char*, unsigned long)>
     87e:	b00b      	add	sp, #44	; 0x2c
     880:	bd30      	pop	{r4, r5, pc}
     882:	bf00      	nop
     884:	0000afb8 	.word	0x0000afb8

00000888 <USBHostMSD::inquiry(unsigned char, unsigned char)>:
     888:	b5f0      	push	{r4, r5, r6, r7, lr}
     88a:	2424      	movs	r4, #36	; 0x24
     88c:	b093      	sub	sp, #76	; 0x4c
     88e:	2500      	movs	r5, #0
     890:	eb0d 0304 	add.w	r3, sp, r4
     894:	0149      	lsls	r1, r1, #5
     896:	9502      	str	r5, [sp, #8]
     898:	42aa      	cmp	r2, r5
     89a:	bf0c      	ite	eq
     89c:	460f      	moveq	r7, r1
     89e:	f041 0701 	orrne.w	r7, r1, #1
     8a2:	9401      	str	r4, [sp, #4]
     8a4:	f88d 200a 	strb.w	r2, [sp, #10]
     8a8:	9300      	str	r3, [sp, #0]
     8aa:	2612      	movs	r6, #18
     8ac:	a902      	add	r1, sp, #8
     8ae:	2206      	movs	r2, #6
     8b0:	2380      	movs	r3, #128	; 0x80
     8b2:	f8ad 500c 	strh.w	r5, [sp, #12]
     8b6:	f88d 6008 	strb.w	r6, [sp, #8]
     8ba:	f88d 400c 	strb.w	r4, [sp, #12]
     8be:	f88d 7009 	strb.w	r7, [sp, #9]
     8c2:	4606      	mov	r6, r0
     8c4:	f7ff fe84 	bl	5d0 <USBHostMSD::SCSITransfer(unsigned char*, unsigned char, int, unsigned char*, unsigned long)>
     8c8:	4604      	mov	r4, r0
     8ca:	bb50      	cbnz	r0, 922 <USBHostMSD::inquiry(unsigned char, unsigned char)+0x9a>
     8cc:	ad04      	add	r5, sp, #16
     8ce:	aa0b      	add	r2, sp, #44	; 0x2c
     8d0:	e892 0003 	ldmia.w	r2, {r0, r1}
     8d4:	f8d6 324c 	ldr.w	r3, [r6, #588]	; 0x24c
     8d8:	22a4      	movs	r2, #164	; 0xa4
     8da:	9500      	str	r5, [sp, #0]
     8dc:	e885 0003 	stmia.w	r5, {r0, r1}
     8e0:	4911      	ldr	r1, [pc, #68]	; (928 <USBHostMSD::inquiry(unsigned char, unsigned char)+0xa0>)
     8e2:	4812      	ldr	r0, [pc, #72]	; (92c <USBHostMSD::inquiry(unsigned char, unsigned char)+0xa4>)
     8e4:	f88d 4018 	strb.w	r4, [sp, #24]
     8e8:	f008 fc9e 	bl	9228 <iprintf>
     8ec:	f8d6 724c 	ldr.w	r7, [r6, #588]	; 0x24c
     8f0:	aa0d      	add	r2, sp, #52	; 0x34
     8f2:	9500      	str	r5, [sp, #0]
     8f4:	ca0f      	ldmia	r2, {r0, r1, r2, r3}
     8f6:	e885 000f 	stmia.w	r5, {r0, r1, r2, r3}
     8fa:	463b      	mov	r3, r7
     8fc:	490a      	ldr	r1, [pc, #40]	; (928 <USBHostMSD::inquiry(unsigned char, unsigned char)+0xa0>)
     8fe:	22a8      	movs	r2, #168	; 0xa8
     900:	480b      	ldr	r0, [pc, #44]	; (930 <USBHostMSD::inquiry(unsigned char, unsigned char)+0xa8>)
     902:	f88d 4020 	strb.w	r4, [sp, #32]
     906:	f008 fc8f 	bl	9228 <iprintf>
     90a:	f8d6 324c 	ldr.w	r3, [r6, #588]	; 0x24c
     90e:	9e11      	ldr	r6, [sp, #68]	; 0x44
     910:	9500      	str	r5, [sp, #0]
     912:	4808      	ldr	r0, [pc, #32]	; (934 <USBHostMSD::inquiry(unsigned char, unsigned char)+0xac>)
     914:	4904      	ldr	r1, [pc, #16]	; (928 <USBHostMSD::inquiry(unsigned char, unsigned char)+0xa0>)
     916:	22ac      	movs	r2, #172	; 0xac
     918:	f88d 4014 	strb.w	r4, [sp, #20]
     91c:	9604      	str	r6, [sp, #16]
     91e:	f008 fc83 	bl	9228 <iprintf>
     922:	4620      	mov	r0, r4
     924:	b013      	add	sp, #76	; 0x4c
     926:	bdf0      	pop	{r4, r5, r6, r7, pc}
     928:	0000b08c 	.word	0x0000b08c
     92c:	0000b128 	.word	0x0000b128
     930:	0000b15c 	.word	0x0000b15c
     934:	0000b190 	.word	0x0000b190

00000938 <USBHostMSD::dataTransfer(unsigned char*, unsigned long, unsigned char, int)>:
     938:	e92d 41f0 	stmdb	sp!, {r4, r5, r6, r7, r8, lr}
     93c:	b086      	sub	sp, #24
     93e:	9100      	str	r1, [sp, #0]
     940:	f8d0 128c 	ldr.w	r1, [r0, #652]	; 0x28c
     944:	461e      	mov	r6, r3
     946:	fb01 f103 	mul.w	r1, r1, r3
     94a:	9b0c      	ldr	r3, [sp, #48]	; 0x30
     94c:	2500      	movs	r5, #0
     94e:	2b80      	cmp	r3, #128	; 0x80
     950:	ea4f 6c12 	mov.w	r12, r2, lsr #24
     954:	ea4f 4e12 	mov.w	lr, r2, lsr #16
     958:	4614      	mov	r4, r2
     95a:	9101      	str	r1, [sp, #4]
     95c:	bf14      	ite	ne
     95e:	f04f 082a 	movne.w	r8, #42	; 0x2a
     962:	f04f 0828 	moveq.w	r8, #40	; 0x28
     966:	0a17      	lsrs	r7, r2, #8
     968:	a903      	add	r1, sp, #12
     96a:	220a      	movs	r2, #10
     96c:	9503      	str	r5, [sp, #12]
     96e:	9504      	str	r5, [sp, #16]
     970:	f8ad 5014 	strh.w	r5, [sp, #20]
     974:	f88d 800c 	strb.w	r8, [sp, #12]
     978:	f88d 6014 	strb.w	r6, [sp, #20]
     97c:	f88d 4011 	strb.w	r4, [sp, #17]
     980:	f88d c00e 	strb.w	r12, [sp, #14]
     984:	f88d e00f 	strb.w	lr, [sp, #15]
     988:	f88d 7010 	strb.w	r7, [sp, #16]
     98c:	f7ff fe20 	bl	5d0 <USBHostMSD::SCSITransfer(unsigned char*, unsigned char, int, unsigned char*, unsigned long)>
     990:	b006      	add	sp, #24
     992:	e8bd 81f0 	ldmia.w	sp!, {r4, r5, r6, r7, r8, pc}
     996:	bf00      	nop

00000998 <USBHostMSD::disk_write(unsigned char const*, unsigned long long, unsigned char)>:
     998:	e92d 47f0 	stmdb	sp!, {r4, r5, r6, r7, r8, r9, r10, lr}
     99c:	f890 729d 	ldrb.w	r7, [r0, #669]	; 0x29d
     9a0:	b082      	sub	sp, #8
     9a2:	4681      	mov	r9, r0
     9a4:	4688      	mov	r8, r1
     9a6:	4614      	mov	r4, r2
     9a8:	461d      	mov	r5, r3
     9aa:	f89d 6028 	ldrb.w	r6, [sp, #40]	; 0x28
     9ae:	b357      	cbz	r7, a06 <USBHostMSD::disk_write(unsigned char const*, unsigned long long, unsigned char)+0x6e>
     9b0:	b2f6      	uxtb	r6, r6
     9b2:	1936      	adds	r6, r6, r4
     9b4:	f04f 0700 	mov.w	r7, #0
     9b8:	eb47 0705 	adc.w	r7, r7, r5
     9bc:	42bd      	cmp	r5, r7
     9be:	bf08      	it	eq
     9c0:	42b4      	cmpeq	r4, r6
     9c2:	bf38      	it	cc
     9c4:	f04f 0a00 	movcc.w	r10, #0
     9c8:	d304      	bcc.n	9d4 <USBHostMSD::disk_write(unsigned char const*, unsigned long long, unsigned char)+0x3c>
     9ca:	e018      	b.n	9fe <USBHostMSD::disk_write(unsigned char const*, unsigned long long, unsigned char)+0x66>
     9cc:	42bd      	cmp	r5, r7
     9ce:	bf08      	it	eq
     9d0:	42b4      	cmpeq	r4, r6
     9d2:	d214      	bcs.n	9fe <USBHostMSD::disk_write(unsigned char const*, unsigned long long, unsigned char)+0x66>
     9d4:	4641      	mov	r1, r8
     9d6:	4622      	mov	r2, r4
     9d8:	f8cd a000 	str.w	r10, [sp]
     9dc:	3401      	adds	r4, #1
     9de:	4648      	mov	r0, r9
     9e0:	f04f 0301 	mov.w	r3, #1
     9e4:	f145 0500 	adc.w	r5, r5, #0
     9e8:	f7ff ffa6 	bl	938 <USBHostMSD::dataTransfer(unsigned char*, unsigned long, unsigned char, int)>
     9ec:	f508 7800 	add.w	r8, r8, #512	; 0x200
     9f0:	2800      	cmp	r0, #0
     9f2:	d0eb      	beq.n	9cc <USBHostMSD::disk_write(unsigned char const*, unsigned long long, unsigned char)+0x34>
     9f4:	f04f 30ff 	mov.w	r0, #4294967295	; 0xffffffff
     9f8:	b002      	add	sp, #8
     9fa:	e8bd 87f0 	ldmia.w	sp!, {r4, r5, r6, r7, r8, r9, r10, pc}
     9fe:	2000      	movs	r0, #0
     a00:	b002      	add	sp, #8
     a02:	e8bd 87f0 	ldmia.w	sp!, {r4, r5, r6, r7, r8, r9, r10, pc}
     a06:	6803      	ldr	r3, [r0, #0]
     a08:	68db      	ldr	r3, [r3, #12]
     a0a:	4798      	blx	r3
     a0c:	f899 329d 	ldrb.w	r3, [r9, #669]	; 0x29d
     a10:	2b00      	cmp	r3, #0
     a12:	d1cd      	bne.n	9b0 <USBHostMSD::disk_write(unsigned char const*, unsigned long long, unsigned char)+0x18>
     a14:	e7ee      	b.n	9f4 <USBHostMSD::disk_write(unsigned char const*, unsigned long long, unsigned char)+0x5c>
     a16:	bf00      	nop

00000a18 <non-virtual thunk to USBHostMSD::disk_write(unsigned char const*, unsigned long long, unsigned char)>:
     a18:	f1a0 0004 	sub.w	r0, r0, #4
     a1c:	f7ff bfbc 	b.w	998 <USBHostMSD::disk_write(unsigned char const*, unsigned long long, unsigned char)>

00000a20 <USBHostMSD::disk_read(unsigned char*, unsigned long long, unsigned char)>:
     a20:	e92d 47f0 	stmdb	sp!, {r4, r5, r6, r7, r8, r9, r10, lr}
     a24:	f890 729d 	ldrb.w	r7, [r0, #669]	; 0x29d
     a28:	b082      	sub	sp, #8
     a2a:	4681      	mov	r9, r0
     a2c:	4688      	mov	r8, r1
     a2e:	4614      	mov	r4, r2
     a30:	461d      	mov	r5, r3
     a32:	f89d 6028 	ldrb.w	r6, [sp, #40]	; 0x28
     a36:	b357      	cbz	r7, a8e <USBHostMSD::disk_read(unsigned char*, unsigned long long, unsigned char)+0x6e>
     a38:	b2f6      	uxtb	r6, r6
     a3a:	1936      	adds	r6, r6, r4
     a3c:	f04f 0700 	mov.w	r7, #0
     a40:	eb47 0705 	adc.w	r7, r7, r5
     a44:	42bd      	cmp	r5, r7
     a46:	bf08      	it	eq
     a48:	42b4      	cmpeq	r4, r6
     a4a:	bf38      	it	cc
     a4c:	f04f 0a80 	movcc.w	r10, #128	; 0x80
     a50:	d304      	bcc.n	a5c <USBHostMSD::disk_read(unsigned char*, unsigned long long, unsigned char)+0x3c>
     a52:	e018      	b.n	a86 <USBHostMSD::disk_read(unsigned char*, unsigned long long, unsigned char)+0x66>
     a54:	42bd      	cmp	r5, r7
     a56:	bf08      	it	eq
     a58:	42b4      	cmpeq	r4, r6
     a5a:	d214      	bcs.n	a86 <USBHostMSD::disk_read(unsigned char*, unsigned long long, unsigned char)+0x66>
     a5c:	4641      	mov	r1, r8
     a5e:	4622      	mov	r2, r4
     a60:	f8cd a000 	str.w	r10, [sp]
     a64:	3401      	adds	r4, #1
     a66:	4648      	mov	r0, r9
     a68:	f04f 0301 	mov.w	r3, #1
     a6c:	f145 0500 	adc.w	r5, r5, #0
     a70:	f7ff ff62 	bl	938 <USBHostMSD::dataTransfer(unsigned char*, unsigned long, unsigned char, int)>
     a74:	f508 7800 	add.w	r8, r8, #512	; 0x200
     a78:	2800      	cmp	r0, #0
     a7a:	d0eb      	beq.n	a54 <USBHostMSD::disk_read(unsigned char*, unsigned long long, unsigned char)+0x34>
     a7c:	f04f 30ff 	mov.w	r0, #4294967295	; 0xffffffff
     a80:	b002      	add	sp, #8
     a82:	e8bd 87f0 	ldmia.w	sp!, {r4, r5, r6, r7, r8, r9, r10, pc}
     a86:	2000      	movs	r0, #0
     a88:	b002      	add	sp, #8
     a8a:	e8bd 87f0 	ldmia.w	sp!, {r4, r5, r6, r7, r8, r9, r10, pc}
     a8e:	6803      	ldr	r3, [r0, #0]
     a90:	68db      	ldr	r3, [r3, #12]
     a92:	4798      	blx	r3
     a94:	f899 329d 	ldrb.w	r3, [r9, #669]	; 0x29d
     a98:	2b00      	cmp	r3, #0
     a9a:	d1cd      	bne.n	a38 <USBHostMSD::disk_read(unsigned char*, unsigned long long, unsigned char)+0x18>
     a9c:	e7ee      	b.n	a7c <USBHostMSD::disk_read(unsigned char*, unsigned long long, unsigned char)+0x5c>
     a9e:	bf00      	nop

00000aa0 <non-virtual thunk to USBHostMSD::disk_read(unsigned char*, unsigned long long, unsigned char)>:
     aa0:	f1a0 0004 	sub.w	r0, r0, #4
     aa4:	f7ff bfbc 	b.w	a20 <USBHostMSD::disk_read(unsigned char*, unsigned long long, unsigned char)>

00000aa8 <USBHostMSD::getMaxLun()>:
     aa8:	b530      	push	{r4, r5, lr}
     aaa:	4603      	mov	r3, r0
     aac:	b087      	sub	sp, #28
     aae:	f8d3 124c 	ldr.w	r1, [r3, #588]	; 0x24c
     ab2:	f8d3 3298 	ldr.w	r3, [r3, #664]	; 0x298
     ab6:	2500      	movs	r5, #0
     ab8:	ac05      	add	r4, sp, #20
     aba:	2201      	movs	r2, #1
     abc:	f8d0 0248 	ldr.w	r0, [r0, #584]	; 0x248
     ac0:	9301      	str	r3, [sp, #4]
     ac2:	9203      	str	r2, [sp, #12]
     ac4:	9500      	str	r5, [sp, #0]
     ac6:	9402      	str	r4, [sp, #8]
     ac8:	22a1      	movs	r2, #161	; 0xa1
     aca:	23fe      	movs	r3, #254	; 0xfe
     acc:	f000 ffc6 	bl	1a5c <USBHost::controlRead(USBDeviceConnected*, unsigned char, unsigned char, unsigned long, unsigned long, unsigned char*, unsigned long)>
     ad0:	b007      	add	sp, #28
     ad2:	bd30      	pop	{r4, r5, pc}

00000ad4 <USBHostMSD::disk_initialize()>:
     ad4:	b570      	push	{r4, r5, r6, lr}
     ad6:	b082      	sub	sp, #8
     ad8:	4606      	mov	r6, r0
     ada:	f7ff ffe5 	bl	aa8 <USBHostMSD::getMaxLun()>
     ade:	240a      	movs	r4, #10
     ae0:	2500      	movs	r5, #0
     ae2:	2064      	movs	r0, #100	; 0x64
     ae4:	f005 ffee 	bl	6ac4 <rtos::Thread::wait(unsigned long)>
     ae8:	9500      	str	r5, [sp, #0]
     aea:	9501      	str	r5, [sp, #4]
     aec:	4630      	mov	r0, r6
     aee:	2100      	movs	r1, #0
     af0:	2206      	movs	r2, #6
     af2:	2380      	movs	r3, #128	; 0x80
     af4:	f7ff fd6c 	bl	5d0 <USBHostMSD::SCSITransfer(unsigned char*, unsigned char, int, unsigned char*, unsigned long)>
     af8:	3c01      	subs	r4, #1
     afa:	b2a4      	uxth	r4, r4
     afc:	b138      	cbz	r0, b0e <USBHostMSD::disk_initialize()+0x3a>
     afe:	2c00      	cmp	r4, #0
     b00:	d1ef      	bne.n	ae2 <USBHostMSD::disk_initialize()+0xe>
     b02:	f04f 30ff 	mov.w	r0, #4294967295	; 0xffffffff
     b06:	f886 429d 	strb.w	r4, [r6, #669]	; 0x29d
     b0a:	b002      	add	sp, #8
     b0c:	bd70      	pop	{r4, r5, r6, pc}
     b0e:	4601      	mov	r1, r0
     b10:	4602      	mov	r2, r0
     b12:	4630      	mov	r0, r6
     b14:	f7ff feb8 	bl	888 <USBHostMSD::inquiry(unsigned char, unsigned char)>
     b18:	2301      	movs	r3, #1
     b1a:	4630      	mov	r0, r6
     b1c:	f886 329d 	strb.w	r3, [r6, #669]	; 0x29d
     b20:	b002      	add	sp, #8
     b22:	e8bd 4070 	ldmia.w	sp!, {r4, r5, r6, lr}
     b26:	f7ff be39 	b.w	79c <USBHostMSD::readCapacity()>
     b2a:	bf00      	nop

00000b2c <non-virtual thunk to USBHostMSD::disk_initialize()>:
     b2c:	f1a0 0004 	sub.w	r0, r0, #4
     b30:	f7ff bfd0 	b.w	ad4 <USBHostMSD::disk_initialize()>

00000b34 <USBDeviceConnected::init()>:
     b34:	e92d 41f0 	stmdb	sp!, {r4, r5, r6, r7, r8, lr}
     b38:	2308      	movs	r3, #8
     b3a:	2700      	movs	r7, #0
     b3c:	f880 7108 	strb.w	r7, [r0, #264]	; 0x108
     b40:	4606      	mov	r6, r0
     b42:	f8c0 30f8 	str.w	r3, [r0, #248]	; 0xf8
     b46:	f880 70fc 	strb.w	r7, [r0, #252]	; 0xfc
     b4a:	f880 70fd 	strb.w	r7, [r0, #253]	; 0xfd
     b4e:	f8a0 70fe 	strh.w	r7, [r0, #254]	; 0xfe
     b52:	f8a0 7100 	strh.w	r7, [r0, #256]	; 0x100
     b56:	f880 7109 	strb.w	r7, [r0, #265]	; 0x109
     b5a:	f880 7107 	strb.w	r7, [r0, #263]	; 0x107
     b5e:	f880 7103 	strb.w	r7, [r0, #259]	; 0x103
     b62:	f880 7104 	strb.w	r7, [r0, #260]	; 0x104
     b66:	f880 7105 	strb.w	r7, [r0, #261]	; 0x105
     b6a:	f880 7106 	strb.w	r7, [r0, #262]	; 0x106
     b6e:	f100 040c 	add.w	r4, r0, #12
     b72:	f100 08fc 	add.w	r8, r0, #252	; 0xfc
     b76:	223c      	movs	r2, #60	; 0x3c
     b78:	1f20      	subs	r0, r4, #4
     b7a:	2100      	movs	r1, #0
     b7c:	f007 fe45 	bl	880a <memset>
     b80:	f104 052c 	add.w	r5, r4, #44	; 0x2c
     b84:	f804 7c04 	strb.w	r7, [r4, #-4]
     b88:	f104 0c0c 	add.w	r12, r4, #12
     b8c:	4622      	mov	r2, r4
     b8e:	f842 7f04 	str.w	r7, [r2, #4]!
     b92:	4b08      	ldr	r3, [pc, #32]	; (bb4 <USBDeviceConnected::init()+0x80>)
     b94:	4562      	cmp	r2, r12
     b96:	cb03      	ldmia	r3!, {r0, r1}
     b98:	f04f 0300 	mov.w	r3, #0
     b9c:	6028      	str	r0, [r5, #0]
     b9e:	6069      	str	r1, [r5, #4]
     ba0:	d1f5      	bne.n	b8e <USBDeviceConnected::init()+0x5a>
     ba2:	343c      	adds	r4, #60	; 0x3c
     ba4:	4544      	cmp	r4, r8
     ba6:	d1e6      	bne.n	b76 <USBDeviceConnected::init()+0x42>
     ba8:	f886 3109 	strb.w	r3, [r6, #265]	; 0x109
     bac:	6073      	str	r3, [r6, #4]
     bae:	6033      	str	r3, [r6, #0]
     bb0:	e8bd 81f0 	ldmia.w	sp!, {r4, r5, r6, r7, r8, pc}
     bb4:	0000b1c4 	.word	0x0000b1c4

00000bb8 <USBDeviceConnected::USBDeviceConnected()>:
     bb8:	b570      	push	{r4, r5, r6, lr}
     bba:	4605      	mov	r5, r0
     bbc:	f100 041c 	add.w	r4, r0, #28
     bc0:	f500 7686 	add.w	r6, r0, #268	; 0x10c
     bc4:	4620      	mov	r0, r4
     bc6:	2100      	movs	r1, #0
     bc8:	343c      	adds	r4, #60	; 0x3c
     bca:	f006 f9dd 	bl	6f88 <mbed::FunctionPointer::FunctionPointer(void (*)())>
     bce:	42b4      	cmp	r4, r6
     bd0:	d1f8      	bne.n	bc4 <USBDeviceConnected::USBDeviceConnected()+0xc>
     bd2:	4628      	mov	r0, r5
     bd4:	f7ff ffae 	bl	b34 <USBDeviceConnected::init()>
     bd8:	4628      	mov	r0, r5
     bda:	bd70      	pop	{r4, r5, r6, pc}

00000bdc <USBDeviceConnected::getInterface(unsigned char)>:
     bdc:	2903      	cmp	r1, #3
     bde:	d808      	bhi.n	bf2 <USBDeviceConnected::getInterface(unsigned char)+0x16>
     be0:	ebc1 1101 	rsb	r1, r1, r1, lsl #4
     be4:	0089      	lsls	r1, r1, #2
     be6:	1843      	adds	r3, r0, r1
     be8:	7a1b      	ldrb	r3, [r3, #8]
     bea:	b123      	cbz	r3, bf6 <USBDeviceConnected::getInterface(unsigned char)+0x1a>
     bec:	3108      	adds	r1, #8
     bee:	4408      	add	r0, r1
     bf0:	4770      	bx	lr
     bf2:	2000      	movs	r0, #0
     bf4:	4770      	bx	lr
     bf6:	4618      	mov	r0, r3
     bf8:	4770      	bx	lr
     bfa:	bf00      	nop

00000bfc <USBDeviceConnected::addInterface(unsigned char, unsigned char, unsigned char, unsigned char)>:
     bfc:	b470      	push	{r4, r5, r6}
     bfe:	2903      	cmp	r1, #3
     c00:	f89d 600c 	ldrb.w	r6, [sp, #12]
     c04:	d80d      	bhi.n	c22 <Stack_Size+0x22>
     c06:	ebc1 1101 	rsb	r1, r1, r1, lsl #4
     c0a:	eb00 0181 	add.w	r1, r0, r1, lsl #2
     c0e:	7a0d      	ldrb	r5, [r1, #8]
     c10:	b93d      	cbnz	r5, c22 <Stack_Size+0x22>
     c12:	2001      	movs	r0, #1
     c14:	728a      	strb	r2, [r1, #10]
     c16:	72cb      	strb	r3, [r1, #11]
     c18:	730e      	strb	r6, [r1, #12]
     c1a:	724d      	strb	r5, [r1, #9]
     c1c:	7208      	strb	r0, [r1, #8]
     c1e:	bc70      	pop	{r4, r5, r6}
     c20:	4770      	bx	lr
     c22:	2000      	movs	r0, #0
     c24:	bc70      	pop	{r4, r5, r6}
     c26:	4770      	bx	lr

00000c28 <USBDeviceConnected::addEndpoint(unsigned char, USBEndpoint*)>:
     c28:	2903      	cmp	r1, #3
     c2a:	b4f0      	push	{r4, r5, r6, r7}
     c2c:	d815      	bhi.n	c5a <USBDeviceConnected::addEndpoint(unsigned char, USBEndpoint*)+0x32>
     c2e:	010d      	lsls	r5, r1, #4
     c30:	1a6c      	subs	r4, r5, r1
     c32:	eb00 0484 	add.w	r4, r0, r4, lsl #2
     c36:	7a23      	ldrb	r3, [r4, #8]
     c38:	b17b      	cbz	r3, c5a <USBDeviceConnected::addEndpoint(unsigned char, USBEndpoint*)+0x32>
     c3a:	7a67      	ldrb	r7, [r4, #9]
     c3c:	2f02      	cmp	r7, #2
     c3e:	d80c      	bhi.n	c5a <USBDeviceConnected::addEndpoint(unsigned char, USBEndpoint*)+0x32>
     c40:	f8d4 c010 	ldr.w	r12, [r4, #16]
     c44:	3701      	adds	r7, #1
     c46:	7267      	strb	r7, [r4, #9]
     c48:	f1bc 0f00 	cmp.w	r12, #0
     c4c:	d00b      	beq.n	c66 <USBDeviceConnected::addEndpoint(unsigned char, USBEndpoint*)+0x3e>
     c4e:	6966      	ldr	r6, [r4, #20]
     c50:	b13e      	cbz	r6, c62 <USBDeviceConnected::addEndpoint(unsigned char, USBEndpoint*)+0x3a>
     c52:	69a4      	ldr	r4, [r4, #24]
     c54:	f04f 0c02 	mov.w	r12, #2
     c58:	b12c      	cbz	r4, c66 <USBDeviceConnected::addEndpoint(unsigned char, USBEndpoint*)+0x3e>
     c5a:	2300      	movs	r3, #0
     c5c:	4618      	mov	r0, r3
     c5e:	bcf0      	pop	{r4, r5, r6, r7}
     c60:	4770      	bx	lr
     c62:	f04f 0c01 	mov.w	r12, #1
     c66:	1a69      	subs	r1, r5, r1
     c68:	448c      	add	r12, r1
     c6a:	f10c 0c04 	add.w	r12, r12, #4
     c6e:	f840 202c 	str.w	r2, [r0, r12, lsl #2]
     c72:	e7f3      	b.n	c5c <USBDeviceConnected::addEndpoint(unsigned char, USBEndpoint*)+0x34>

00000c74 <USBDeviceConnected::init(unsigned char, unsigned char, bool)>:
     c74:	b5f8      	push	{r3, r4, r5, r6, r7, lr}
     c76:	4604      	mov	r4, r0
     c78:	460d      	mov	r5, r1
     c7a:	4616      	mov	r6, r2
     c7c:	461f      	mov	r7, r3
     c7e:	f7ff ff59 	bl	b34 <USBDeviceConnected::init()>
     c82:	f884 50fc 	strb.w	r5, [r4, #252]	; 0xfc
     c86:	f884 60fd 	strb.w	r6, [r4, #253]	; 0xfd
     c8a:	f884 7106 	strb.w	r7, [r4, #262]	; 0x106
     c8e:	bdf8      	pop	{r3, r4, r5, r6, r7, pc}

00000c90 <USBDeviceConnected::disconnect()>:
     c90:	b510      	push	{r4, lr}
     c92:	4604      	mov	r4, r0
     c94:	301c      	adds	r0, #28
     c96:	f006 f97d 	bl	6f94 <mbed::FunctionPointer::call()>
     c9a:	f104 0058 	add.w	r0, r4, #88	; 0x58
     c9e:	f006 f979 	bl	6f94 <mbed::FunctionPointer::call()>
     ca2:	f104 0094 	add.w	r0, r4, #148	; 0x94
     ca6:	f006 f975 	bl	6f94 <mbed::FunctionPointer::call()>
     caa:	f104 00d0 	add.w	r0, r4, #208	; 0xd0
     cae:	f006 f971 	bl	6f94 <mbed::FunctionPointer::call()>
     cb2:	4620      	mov	r0, r4
     cb4:	e8bd 4010 	ldmia.w	sp!, {r4, lr}
     cb8:	f7ff bf3c 	b.w	b34 <USBDeviceConnected::init()>

00000cbc <USBDeviceConnected::getEndpoint(unsigned char, ENDPOINT_TYPE, ENDPOINT_DIRECTION, unsigned char)>:
     cbc:	b470      	push	{r4, r5, r6}
     cbe:	2903      	cmp	r1, #3
     cc0:	f89d 600c 	ldrb.w	r6, [sp, #12]
     cc4:	d810      	bhi.n	ce8 <USBDeviceConnected::getEndpoint(unsigned char, ENDPOINT_TYPE, ENDPOINT_DIRECTION, unsigned char)+0x2c>
     cc6:	ebc1 1101 	rsb	r1, r1, r1, lsl #4
     cca:	0089      	lsls	r1, r1, #2
     ccc:	f101 040c 	add.w	r4, r1, #12
     cd0:	f100 0518 	add.w	r5, r0, #24
     cd4:	4404      	add	r4, r0
     cd6:	4429      	add	r1, r5
     cd8:	f854 0f04 	ldr.w	r0, [r4, #4]!
     cdc:	f890 5024 	ldrb.w	r5, [r0, #36]	; 0x24
     ce0:	4295      	cmp	r5, r2
     ce2:	d004      	beq.n	cee <USBDeviceConnected::getEndpoint(unsigned char, ENDPOINT_TYPE, ENDPOINT_DIRECTION, unsigned char)+0x32>
     ce4:	428c      	cmp	r4, r1
     ce6:	d1f7      	bne.n	cd8 <USBDeviceConnected::getEndpoint(unsigned char, ENDPOINT_TYPE, ENDPOINT_DIRECTION, unsigned char)+0x1c>
     ce8:	2000      	movs	r0, #0
     cea:	bc70      	pop	{r4, r5, r6}
     cec:	4770      	bx	lr
     cee:	f890 5026 	ldrb.w	r5, [r0, #38]	; 0x26
     cf2:	429d      	cmp	r5, r3
     cf4:	d1f6      	bne.n	ce4 <USBDeviceConnected::getEndpoint(unsigned char, ENDPOINT_TYPE, ENDPOINT_DIRECTION, unsigned char)+0x28>
     cf6:	1e75      	subs	r5, r6, #1
     cf8:	2e00      	cmp	r6, #0
     cfa:	d0f6      	beq.n	cea <USBDeviceConnected::getEndpoint(unsigned char, ENDPOINT_TYPE, ENDPOINT_DIRECTION, unsigned char)+0x2e>
     cfc:	b2ee      	uxtb	r6, r5
     cfe:	e7f1      	b.n	ce4 <USBDeviceConnected::getEndpoint(unsigned char, ENDPOINT_TYPE, ENDPOINT_DIRECTION, unsigned char)+0x28>

00000d00 <USBDeviceConnected::getEndpoint(unsigned char, unsigned char)>:
     d00:	2903      	cmp	r1, #3
     d02:	d808      	bhi.n	d16 <USBDeviceConnected::getEndpoint(unsigned char, unsigned char)+0x16>
     d04:	2a02      	cmp	r2, #2
     d06:	d806      	bhi.n	d16 <USBDeviceConnected::getEndpoint(unsigned char, unsigned char)+0x16>
     d08:	ebc1 1101 	rsb	r1, r1, r1, lsl #4
     d0c:	440a      	add	r2, r1
     d0e:	3204      	adds	r2, #4
     d10:	f850 0022 	ldr.w	r0, [r0, r2, lsl #2]
     d14:	4770      	bx	lr
     d16:	2000      	movs	r0, #0
     d18:	4770      	bx	lr
     d1a:	bf00      	nop

00000d1c <USBHost::deviceConnected(int, int, bool, USBHostHub*)>:
     d1c:	e92d 4ff8 	stmdb	sp!, {r3, r4, r5, r6, r7, r8, r9, r10, r11, lr}
     d20:	f8dd 8028 	ldr.w	r8, [sp, #40]	; 0x28
     d24:	f500 54d9 	add.w	r4, r0, #6944	; 0x1b20
     d28:	4681      	mov	r9, r0
     d2a:	469b      	mov	r11, r3
     d2c:	b2cf      	uxtb	r7, r1
     d2e:	fa5f fa82 	uxtb.w	r10, r2
     d32:	340c      	adds	r4, #12
     d34:	2500      	movs	r5, #0
     d36:	f894 60f8 	ldrb.w	r6, [r4, #248]	; 0xf8
     d3a:	42be      	cmp	r6, r7
     d3c:	d01b      	beq.n	d76 <USBHost::deviceConnected(int, int, bool, USBHostHub*)+0x5a>
     d3e:	3501      	adds	r5, #1
     d40:	2d05      	cmp	r5, #5
     d42:	f504 7486 	add.w	r4, r4, #268	; 0x10c
     d46:	d1f6      	bne.n	d36 <USBHost::deviceConnected(int, int, bool, USBHostHub*)+0x1a>
     d48:	f242 1450 	movw	r4, #8528	; 0x2150
     d4c:	f859 0004 	ldr.w	r0, [r9, r4]
     d50:	2100      	movs	r1, #0
     d52:	f005 f821 	bl	5d98 <osMailAlloc>
     d56:	2301      	movs	r3, #1
     d58:	7207      	strb	r7, [r0, #8]
     d5a:	f880 a009 	strb.w	r10, [r0, #9]
     d5e:	f880 b00a 	strb.w	r11, [r0, #10]
     d62:	f8c0 800c 	str.w	r8, [r0, #12]
     d66:	7003      	strb	r3, [r0, #0]
     d68:	4601      	mov	r1, r0
     d6a:	f859 0004 	ldr.w	r0, [r9, r4]
     d6e:	e8bd 4ff8 	ldmia.w	sp!, {r3, r4, r5, r6, r7, r8, r9, r10, r11, lr}
     d72:	f005 b833 	b.w	5ddc <osMailPut>
     d76:	f894 30f9 	ldrb.w	r3, [r4, #249]	; 0xf9
     d7a:	4553      	cmp	r3, r10
     d7c:	d1df      	bne.n	d3e <USBHost::deviceConnected(int, int, bool, USBHostHub*)+0x22>
     d7e:	f1b8 0f00 	cmp.w	r8, #0
     d82:	d002      	beq.n	d8a <USBHost::deviceConnected(int, int, bool, USBHostHub*)+0x6e>
     d84:	6821      	ldr	r1, [r4, #0]
     d86:	4588      	cmp	r8, r1
     d88:	d1d9      	bne.n	d3e <USBHost::deviceConnected(int, int, bool, USBHostHub*)+0x22>
     d8a:	eb09 0305 	add.w	r3, r9, r5
     d8e:	f503 5302 	add.w	r3, r3, #8320	; 0x2080
     d92:	789b      	ldrb	r3, [r3, #2]
     d94:	2b00      	cmp	r3, #0
     d96:	d0d7      	beq.n	d48 <USBHost::deviceConnected(int, int, bool, USBHostHub*)+0x2c>
     d98:	e8bd 8ff8 	ldmia.w	sp!, {r3, r4, r5, r6, r7, r8, r9, r10, r11, pc}

00000d9c <USBHost::deviceDisconnected(int, int, USBHostHub*, unsigned long)>:
     d9c:	e92d 47f0 	stmdb	sp!, {r4, r5, r6, r7, r8, r9, r10, lr}
     da0:	f500 54d9 	add.w	r4, r0, #6944	; 0x1b20
     da4:	4681      	mov	r9, r0
     da6:	4698      	mov	r8, r3
     da8:	b2cf      	uxtb	r7, r1
     daa:	fa5f fa82 	uxtb.w	r10, r2
     dae:	340c      	adds	r4, #12
     db0:	2500      	movs	r5, #0
     db2:	f894 60f8 	ldrb.w	r6, [r4, #248]	; 0xf8
     db6:	42be      	cmp	r6, r7
     db8:	d006      	beq.n	dc8 <USBHost::deviceDisconnected(int, int, USBHostHub*, unsigned long)+0x2c>
     dba:	3501      	adds	r5, #1
     dbc:	2d05      	cmp	r5, #5
     dbe:	f504 7486 	add.w	r4, r4, #268	; 0x10c
     dc2:	d1f6      	bne.n	db2 <USBHost::deviceDisconnected(int, int, USBHostHub*, unsigned long)+0x16>
     dc4:	e8bd 87f0 	ldmia.w	sp!, {r4, r5, r6, r7, r8, r9, r10, pc}
     dc8:	f894 30f9 	ldrb.w	r3, [r4, #249]	; 0xf9
     dcc:	4553      	cmp	r3, r10
     dce:	d1f4      	bne.n	dba <USBHost::deviceDisconnected(int, int, USBHostHub*, unsigned long)+0x1e>
     dd0:	f1b8 0f00 	cmp.w	r8, #0
     dd4:	d002      	beq.n	ddc <USBHost::deviceDisconnected(int, int, USBHostHub*, unsigned long)+0x40>
     dd6:	6821      	ldr	r1, [r4, #0]
     dd8:	4588      	cmp	r8, r1
     dda:	d1ee      	bne.n	dba <USBHost::deviceDisconnected(int, int, USBHostHub*, unsigned long)+0x1e>
     ddc:	eb09 0305 	add.w	r3, r9, r5
     de0:	f503 5301 	add.w	r3, r3, #8256	; 0x2040
     de4:	3320      	adds	r3, #32
     de6:	791b      	ldrb	r3, [r3, #4]
     de8:	b90b      	cbnz	r3, dee <USBHost::deviceDisconnected(int, int, USBHostHub*, unsigned long)+0x52>
     dea:	e8bd 87f0 	ldmia.w	sp!, {r4, r5, r6, r7, r8, r9, r10, pc}
     dee:	f242 1450 	movw	r4, #8528	; 0x2150
     df2:	f859 0004 	ldr.w	r0, [r9, r4]
     df6:	2100      	movs	r1, #0
     df8:	f004 ffce 	bl	5d98 <osMailAlloc>
     dfc:	2302      	movs	r3, #2
     dfe:	7207      	strb	r7, [r0, #8]
     e00:	f880 a009 	strb.w	r10, [r0, #9]
     e04:	f8c0 800c 	str.w	r8, [r0, #12]
     e08:	7003      	strb	r3, [r0, #0]
     e0a:	4601      	mov	r1, r0
     e0c:	f859 0004 	ldr.w	r0, [r9, r4]
     e10:	e8bd 47f0 	ldmia.w	sp!, {r4, r5, r6, r7, r8, r9, r10, lr}
     e14:	f004 bfe2 	b.w	5ddc <osMailPut>

00000e18 <USBHost::transferCompleted(unsigned long)>:
     e18:	e92d 41f0 	stmdb	sp!, {r4, r5, r6, r7, r8, lr}
     e1c:	b082      	sub	sp, #8
     e1e:	9101      	str	r1, [sp, #4]
     e20:	9b01      	ldr	r3, [sp, #4]
     e22:	2b00      	cmp	r3, #0
     e24:	d042      	beq.n	eac <USBHost::transferCompleted(unsigned long)+0x94>
     e26:	2300      	movs	r3, #0
     e28:	9c01      	ldr	r4, [sp, #4]
     e2a:	68a2      	ldr	r2, [r4, #8]
     e2c:	9201      	str	r2, [sp, #4]
     e2e:	68a2      	ldr	r2, [r4, #8]
     e30:	60a3      	str	r3, [r4, #8]
     e32:	9a01      	ldr	r2, [sp, #4]
     e34:	4623      	mov	r3, r4
     e36:	2a00      	cmp	r2, #0
     e38:	d1f6      	bne.n	e28 <USBHost::transferCompleted(unsigned long)+0x10>
     e3a:	2c00      	cmp	r4, #0
     e3c:	d036      	beq.n	eac <USBHost::transferCompleted(unsigned long)+0x94>
     e3e:	f500 5805 	add.w	r8, r0, #8512	; 0x2140
     e42:	f108 0810 	add.w	r8, r8, #16
     e46:	68a6      	ldr	r6, [r4, #8]
     e48:	6923      	ldr	r3, [r4, #16]
     e4a:	b1ab      	cbz	r3, e78 <USBHost::transferCompleted(unsigned long)+0x60>
     e4c:	6925      	ldr	r5, [r4, #16]
     e4e:	6823      	ldr	r3, [r4, #0]
     e50:	0f1b      	lsrs	r3, r3, #28
     e52:	d014      	beq.n	e7e <USBHost::transferCompleted(unsigned long)+0x66>
     e54:	6827      	ldr	r7, [r4, #0]
     e56:	0f3f      	lsrs	r7, r7, #28
     e58:	4628      	mov	r0, r5
     e5a:	4621      	mov	r1, r4
     e5c:	f001 fc24 	bl	26a8 <USBEndpoint::unqueueTransfer(HCTD volatile*)>
     e60:	f895 3024 	ldrb.w	r3, [r5, #36]	; 0x24
     e64:	b99b      	cbnz	r3, e8e <USBHost::transferCompleted(unsigned long)+0x76>
     e66:	4639      	mov	r1, r7
     e68:	4628      	mov	r0, r5
     e6a:	f001 fbf3 	bl	2654 <USBEndpoint::setState(unsigned char)>
     e6e:	6868      	ldr	r0, [r5, #4]
     e70:	2101      	movs	r1, #1
     e72:	2200      	movs	r2, #0
     e74:	f004 fe62 	bl	5b3c <osMessagePut>
     e78:	b1c6      	cbz	r6, eac <USBHost::transferCompleted(unsigned long)+0x94>
     e7a:	4634      	mov	r4, r6
     e7c:	e7e3      	b.n	e46 <USBHost::transferCompleted(unsigned long)+0x2e>
     e7e:	6863      	ldr	r3, [r4, #4]
     e80:	b1bb      	cbz	r3, eb2 <USBHost::transferCompleted(unsigned long)+0x9a>
     e82:	6862      	ldr	r2, [r4, #4]
     e84:	6b6b      	ldr	r3, [r5, #52]	; 0x34
     e86:	2710      	movs	r7, #16
     e88:	1ad3      	subs	r3, r2, r3
     e8a:	632b      	str	r3, [r5, #48]	; 0x30
     e8c:	e7e4      	b.n	e58 <USBHost::transferCompleted(unsigned long)+0x40>
     e8e:	f8d8 0000 	ldr.w	r0, [r8]
     e92:	2100      	movs	r1, #0
     e94:	f004 ff80 	bl	5d98 <osMailAlloc>
     e98:	2304      	movs	r3, #4
     e9a:	6044      	str	r4, [r0, #4]
     e9c:	72c7      	strb	r7, [r0, #11]
     e9e:	7003      	strb	r3, [r0, #0]
     ea0:	4601      	mov	r1, r0
     ea2:	f8d8 0000 	ldr.w	r0, [r8]
     ea6:	f004 ff99 	bl	5ddc <osMailPut>
     eaa:	e7dc      	b.n	e66 <USBHost::transferCompleted(unsigned long)+0x4e>
     eac:	b002      	add	sp, #8
     eae:	e8bd 81f0 	ldmia.w	sp!, {r4, r5, r6, r7, r8, pc}
     eb2:	2710      	movs	r7, #16
     eb4:	e7d0      	b.n	e58 <USBHost::transferCompleted(unsigned long)+0x40>
     eb6:	bf00      	nop

00000eb8 <USBHost::USBHost()>:
     eb8:	e92d 4ff0 	stmdb	sp!, {r4, r5, r6, r7, r8, r9, r10, r11, lr}
     ebc:	b083      	sub	sp, #12
     ebe:	4683      	mov	r11, r0
     ec0:	f001 fc12 	bl	26e8 <USBHALHost::USBHALHost()>
     ec4:	4b72      	ldr	r3, [pc, #456]	; (1090 <USBHost::USBHost()+0x1d8>)
     ec6:	46d8      	mov	r8, r11
     ec8:	f848 3bc8 	str.w	r3, [r8], #200
     ecc:	f50b 59d8 	add.w	r9, r11, #6912	; 0x1b00
     ed0:	4644      	mov	r4, r8
     ed2:	f109 0908 	add.w	r9, r9, #8
     ed6:	f10b 07cc 	add.w	r7, r11, #204	; 0xcc
     eda:	f04f 0a00 	mov.w	r10, #0
     ede:	e00c      	b.n	efa <USBHost::USBHost()+0x42>
     ee0:	f104 0038 	add.w	r0, r4, #56	; 0x38
     ee4:	2100      	movs	r1, #0
     ee6:	f006 f84f 	bl	6f88 <mbed::FunctionPointer::FunctionPointer(void (*)())>
     eea:	230f      	movs	r3, #15
     eec:	f8c4 a054 	str.w	r10, [r4, #84]	; 0x54
     ef0:	f884 3025 	strb.w	r3, [r4, #37]	; 0x25
     ef4:	3470      	adds	r4, #112	; 0x70
     ef6:	454c      	cmp	r4, r9
     ef8:	d018      	beq.n	f2c <USBHost::USBHost()+0x74>
     efa:	f104 0510 	add.w	r5, r4, #16
     efe:	2100      	movs	r1, #0
     f00:	2214      	movs	r2, #20
     f02:	ebc8 0604 	rsb	r6, r8, r4
     f06:	4628      	mov	r0, r5
     f08:	f007 fc7f 	bl	880a <memset>
     f0c:	19f3      	adds	r3, r6, r7
     f0e:	2201      	movs	r2, #1
     f10:	609d      	str	r5, [r3, #8]
     f12:	605a      	str	r2, [r3, #4]
     f14:	f104 0008 	add.w	r0, r4, #8
     f18:	2100      	movs	r1, #0
     f1a:	f004 fdf5 	bl	5b08 <osMessageCreate>
     f1e:	51f0      	str	r0, [r6, r7]
     f20:	2800      	cmp	r0, #0
     f22:	d1dd      	bne.n	ee0 <USBHost::USBHost()+0x28>
     f24:	485b      	ldr	r0, [pc, #364]	; (1094 <USBHost::USBHost()+0x1dc>)
     f26:	f005 ff55 	bl	6dd4 <error>
     f2a:	e7d9      	b.n	ee0 <USBHost::USBHost()+0x28>
     f2c:	f50b 56d9 	add.w	r6, r11, #6944	; 0x1b20
     f30:	3608      	adds	r6, #8
     f32:	4634      	mov	r4, r6
     f34:	f206 553c 	addw	r5, r6, #1340	; 0x53c
     f38:	4620      	mov	r0, r4
     f3a:	f504 7486 	add.w	r4, r4, #268	; 0x10c
     f3e:	f7ff fe3b 	bl	bb8 <USBDeviceConnected::USBDeviceConnected()>
     f42:	42ac      	cmp	r4, r5
     f44:	d1f8      	bne.n	f38 <USBHost::USBHost()+0x80>
     f46:	f50b 5802 	add.w	r8, r11, #8320	; 0x2080
     f4a:	f108 0808 	add.w	r8, r8, #8
     f4e:	4640      	mov	r0, r8
     f50:	f50b 5703 	add.w	r7, r11, #8384	; 0x20c0
     f54:	f001 f900 	bl	2158 <USBHostHub::USBHostHub()>
     f58:	4638      	mov	r0, r7
     f5a:	f04f 0a00 	mov.w	r10, #0
     f5e:	f50b 5405 	add.w	r4, r11, #8512	; 0x2140
     f62:	f001 f8f9 	bl	2158 <USBHostHub::USBHostHub()>
     f66:	f44f 6340 	mov.w	r3, #3072	; 0xc00
     f6a:	f50b 5004 	add.w	r0, r11, #8448	; 0x2100
     f6e:	f104 0920 	add.w	r9, r4, #32
     f72:	e88d 0408 	stmia.w	sp, {r3, r10}
     f76:	4948      	ldr	r1, [pc, #288]	; (1098 <USBHost::USBHost()+0x1e0>)
     f78:	4653      	mov	r3, r10
     f7a:	465a      	mov	r2, r11
     f7c:	3004      	adds	r0, #4
     f7e:	f005 fd75 	bl	6a6c <rtos::Thread::Thread(void (*)(void const*), void*, osPriority, unsigned long, unsigned char*)>
     f82:	f104 0558 	add.w	r5, r4, #88	; 0x58
     f86:	4648      	mov	r0, r9
     f88:	4651      	mov	r1, r10
     f8a:	2238      	movs	r2, #56	; 0x38
     f8c:	f007 fc3d 	bl	880a <memset>
     f90:	f8c4 9104 	str.w	r9, [r4, #260]	; 0x104
     f94:	4628      	mov	r0, r5
     f96:	4651      	mov	r1, r10
     f98:	22ac      	movs	r2, #172	; 0xac
     f9a:	f007 fc36 	bl	880a <memset>
     f9e:	220a      	movs	r2, #10
     fa0:	f504 7182 	add.w	r1, r4, #260	; 0x104
     fa4:	2310      	movs	r3, #16
     fa6:	6162      	str	r2, [r4, #20]
     fa8:	f8c4 5108 	str.w	r5, [r4, #264]	; 0x108
     fac:	61e1      	str	r1, [r4, #28]
     fae:	61a3      	str	r3, [r4, #24]
     fb0:	4651      	mov	r1, r10
     fb2:	f104 0014 	add.w	r0, r4, #20
     fb6:	f004 fed5 	bl	5d64 <osMailCreate>
     fba:	f242 1350 	movw	r3, #8528	; 0x2150
     fbe:	f84b 0003 	str.w	r0, [r11, r3]
     fc2:	f50b 5009 	add.w	r0, r11, #8768	; 0x2240
     fc6:	300c      	adds	r0, #12
     fc8:	f005 fd0c 	bl	69e4 <rtos::Mutex::Mutex()>
     fcc:	f50b 5009 	add.w	r0, r11, #8768	; 0x2240
     fd0:	3020      	adds	r0, #32
     fd2:	f005 fd07 	bl	69e4 <rtos::Mutex::Mutex()>
     fd6:	f641 3414 	movw	r4, #6932	; 0x1b14
     fda:	f641 3210 	movw	r2, #6928	; 0x1b10
     fde:	f641 3c0c 	movw	r12, #6924	; 0x1b0c
     fe2:	f641 3e18 	movw	lr, #6936	; 0x1b18
     fe6:	f641 301c 	movw	r0, #6940	; 0x1b1c
     fea:	f50b 51d9 	add.w	r1, r11, #6944	; 0x1b20
     fee:	f641 3324 	movw	r3, #6948	; 0x1b24
     ff2:	f50b 59e1 	add.w	r9, r11, #7200	; 0x1c20
     ff6:	f84b a00c 	str.w	r10, [r11, r12]
     ffa:	4655      	mov	r5, r10
     ffc:	f84b a002 	str.w	r10, [r11, r2]
    1000:	f109 0914 	add.w	r9, r9, #20
    1004:	f84b a004 	str.w	r10, [r11, r4]
    1008:	4652      	mov	r2, r10
    100a:	f84b a00e 	str.w	r10, [r11, lr]
    100e:	465c      	mov	r4, r11
    1010:	f84b a000 	str.w	r10, [r11, r0]
    1014:	f8c1 a000 	str.w	r10, [r1]
    1018:	f8ab a0c4 	strh.w	r10, [r11, #196]	; 0xc4
    101c:	f80b a003 	strb.w	r10, [r11, r3]
    1020:	eb0b 0c05 	add.w	r12, r11, r5
    1024:	f50c 5301 	add.w	r3, r12, #8256	; 0x2040
    1028:	3501      	adds	r5, #1
    102a:	f504 5e01 	add.w	lr, r4, #8256	; 0x2040
    102e:	469a      	mov	r10, r3
    1030:	f50c 5c02 	add.w	r12, r12, #8320	; 0x2080
    1034:	2d05      	cmp	r5, #5
    1036:	f883 2024 	strb.w	r2, [r3, #36]	; 0x24
    103a:	f104 0404 	add.w	r4, r4, #4
    103e:	f886 5102 	strb.w	r5, [r6, #258]	; 0x102
    1042:	f88a 203d 	strb.w	r2, [r10, #61]	; 0x3d
    1046:	f04f 0600 	mov.w	r6, #0
    104a:	f88c 2002 	strb.w	r2, [r12, #2]
    104e:	f88e 2029 	strb.w	r2, [lr, #41]	; 0x29
    1052:	f88e 202a 	strb.w	r2, [lr, #42]	; 0x2a
    1056:	f88e 202b 	strb.w	r2, [lr, #43]	; 0x2b
    105a:	f88e 202c 	strb.w	r2, [lr, #44]	; 0x2c
    105e:	d003      	beq.n	1068 <USBHost::USBHost()+0x1b0>
    1060:	464e      	mov	r6, r9
    1062:	f509 7986 	add.w	r9, r9, #268	; 0x10c
    1066:	e7db      	b.n	1020 <USBHost::USBHost()+0x168>
    1068:	4640      	mov	r0, r8
    106a:	4659      	mov	r1, r11
    106c:	f001 f88c 	bl	2188 <USBHostHub::setHost(USBHost*)>
    1070:	f242 03f8 	movw	r3, #8440	; 0x20f8
    1074:	4638      	mov	r0, r7
    1076:	f80b 6003 	strb.w	r6, [r11, r3]
    107a:	4659      	mov	r1, r11
    107c:	f001 f884 	bl	2188 <USBHostHub::setHost(USBHost*)>
    1080:	f242 03f9 	movw	r3, #8441	; 0x20f9
    1084:	4658      	mov	r0, r11
    1086:	f80b 6003 	strb.w	r6, [r11, r3]
    108a:	b003      	add	sp, #12
    108c:	e8bd 8ff0 	ldmia.w	sp!, {r4, r5, r6, r7, r8, r9, r10, r11, pc}
    1090:	0000b1d8 	.word	0x0000b1d8
    1094:	0000b1e8 	.word	0x0000b1e8
    1098:	00001f25 	.word	0x00001f25

0000109c <USBHost::getHostInst()>:
    109c:	b538      	push	{r3, r4, r5, lr}
    109e:	4c08      	ldr	r4, [pc, #32]	; (10c0 <USBHost::getHostInst()+0x24>)
    10a0:	6820      	ldr	r0, [r4, #0]
    10a2:	b100      	cbz	r0, 10a6 <USBHost::getHostInst()+0xa>
    10a4:	bd38      	pop	{r3, r4, r5, pc}
    10a6:	f242 4014 	movw	r0, #9236	; 0x2414
    10aa:	f006 fff1 	bl	8090 <operator new(unsigned int)>
    10ae:	4605      	mov	r5, r0
    10b0:	f7ff ff02 	bl	eb8 <USBHost::USBHost()>
    10b4:	4628      	mov	r0, r5
    10b6:	6025      	str	r5, [r4, #0]
    10b8:	f001 fb42 	bl	2740 <USBHALHost::init()>
    10bc:	6820      	ldr	r0, [r4, #0]
    10be:	bd38      	pop	{r3, r4, r5, pc}
    10c0:	10000240 	.word	0x10000240

000010c4 <USBHost::unqueueEndpoint(USBEndpoint*)>:
    10c4:	f641 3310 	movw	r3, #6928	; 0x1b10
    10c8:	e92d 41f0 	stmdb	sp!, {r4, r5, r6, r7, r8, lr}
    10cc:	58c5      	ldr	r5, [r0, r3]
    10ce:	4606      	mov	r6, r0
    10d0:	b145      	cbz	r5, 10e4 <USBHost::unqueueEndpoint(USBEndpoint*)+0x20>
    10d2:	42a9      	cmp	r1, r5
    10d4:	d103      	bne.n	10de <USBHost::unqueueEndpoint(USBEndpoint*)+0x1a>
    10d6:	e014      	b.n	1102 <USBHost::unqueueEndpoint(USBEndpoint*)+0x3e>
    10d8:	42a1      	cmp	r1, r4
    10da:	d013      	beq.n	1104 <USBHost::unqueueEndpoint(USBEndpoint*)+0x40>
    10dc:	4625      	mov	r5, r4
    10de:	6d6c      	ldr	r4, [r5, #84]	; 0x54
    10e0:	2c00      	cmp	r4, #0
    10e2:	d1f9      	bne.n	10d8 <USBHost::unqueueEndpoint(USBEndpoint*)+0x14>
    10e4:	f641 3314 	movw	r3, #6932	; 0x1b14
    10e8:	58f5      	ldr	r5, [r6, r3]
    10ea:	b1f5      	cbz	r5, 112a <USBHost::unqueueEndpoint(USBEndpoint*)+0x66>
    10ec:	42a9      	cmp	r1, r5
    10ee:	d103      	bne.n	10f8 <USBHost::unqueueEndpoint(USBEndpoint*)+0x34>
    10f0:	e007      	b.n	1102 <USBHost::unqueueEndpoint(USBEndpoint*)+0x3e>
    10f2:	42a1      	cmp	r1, r4
    10f4:	d006      	beq.n	1104 <USBHost::unqueueEndpoint(USBEndpoint*)+0x40>
    10f6:	4625      	mov	r5, r4
    10f8:	6d6c      	ldr	r4, [r5, #84]	; 0x54
    10fa:	2c00      	cmp	r4, #0
    10fc:	d1f9      	bne.n	10f2 <USBHost::unqueueEndpoint(USBEndpoint*)+0x2e>
    10fe:	e8bd 81f0 	ldmia.w	sp!, {r4, r5, r6, r7, r8, pc}
    1102:	462c      	mov	r4, r5
    1104:	6d67      	ldr	r7, [r4, #84]	; 0x54
    1106:	4628      	mov	r0, r5
    1108:	4639      	mov	r1, r7
    110a:	b187      	cbz	r7, 112e <USBHost::unqueueEndpoint(USBEndpoint*)+0x6a>
    110c:	f641 3510 	movw	r5, #6928	; 0x1b10
    1110:	f001 fae2 	bl	26d8 <USBEndpoint::queueEndpoint(USBEndpoint*)>
    1114:	5973      	ldr	r3, [r6, r5]
    1116:	429c      	cmp	r4, r3
    1118:	d029      	beq.n	116e <USBHost::unqueueEndpoint(USBEndpoint*)+0xaa>
    111a:	f641 3514 	movw	r5, #6932	; 0x1b14
    111e:	5973      	ldr	r3, [r6, r5]
    1120:	429c      	cmp	r4, r3
    1122:	d01c      	beq.n	115e <USBHost::unqueueEndpoint(USBEndpoint*)+0x9a>
    1124:	230f      	movs	r3, #15
    1126:	f884 3025 	strb.w	r3, [r4, #37]	; 0x25
    112a:	e8bd 81f0 	ldmia.w	sp!, {r4, r5, r6, r7, r8, pc}
    112e:	f641 3810 	movw	r8, #6928	; 0x1b10
    1132:	f001 fad1 	bl	26d8 <USBEndpoint::queueEndpoint(USBEndpoint*)>
    1136:	f856 3008 	ldr.w	r3, [r6, r8]
    113a:	429c      	cmp	r4, r3
    113c:	d02b      	beq.n	1196 <USBHost::unqueueEndpoint(USBEndpoint*)+0xd2>
    113e:	f641 3814 	movw	r8, #6932	; 0x1b14
    1142:	f856 3008 	ldr.w	r3, [r6, r8]
    1146:	429c      	cmp	r4, r3
    1148:	d01d      	beq.n	1186 <USBHost::unqueueEndpoint(USBEndpoint*)+0xc2>
    114a:	f894 3024 	ldrb.w	r3, [r4, #36]	; 0x24
    114e:	2b02      	cmp	r3, #2
    1150:	d015      	beq.n	117e <USBHost::unqueueEndpoint(USBEndpoint*)+0xba>
    1152:	2b03      	cmp	r3, #3
    1154:	d1e6      	bne.n	1124 <USBHost::unqueueEndpoint(USBEndpoint*)+0x60>
    1156:	f506 56d9 	add.w	r6, r6, #6944	; 0x1b20
    115a:	6035      	str	r5, [r6, #0]
    115c:	e7e2      	b.n	1124 <USBHost::unqueueEndpoint(USBEndpoint*)+0x60>
    115e:	6d63      	ldr	r3, [r4, #84]	; 0x54
    1160:	4630      	mov	r0, r6
    1162:	6d99      	ldr	r1, [r3, #88]	; 0x58
    1164:	f001 fb94 	bl	2890 <USBHALHost::updateInterruptHeadED(unsigned long)>
    1168:	6d63      	ldr	r3, [r4, #84]	; 0x54
    116a:	5173      	str	r3, [r6, r5]
    116c:	e7da      	b.n	1124 <USBHost::unqueueEndpoint(USBEndpoint*)+0x60>
    116e:	6d63      	ldr	r3, [r4, #84]	; 0x54
    1170:	4630      	mov	r0, r6
    1172:	6d99      	ldr	r1, [r3, #88]	; 0x58
    1174:	f001 fb80 	bl	2878 <USBHALHost::updateBulkHeadED(unsigned long)>
    1178:	6d63      	ldr	r3, [r4, #84]	; 0x54
    117a:	5173      	str	r3, [r6, r5]
    117c:	e7d2      	b.n	1124 <USBHost::unqueueEndpoint(USBEndpoint*)+0x60>
    117e:	f641 331c 	movw	r3, #6940	; 0x1b1c
    1182:	50f5      	str	r5, [r6, r3]
    1184:	e7ce      	b.n	1124 <USBHost::unqueueEndpoint(USBEndpoint*)+0x60>
    1186:	4639      	mov	r1, r7
    1188:	4630      	mov	r0, r6
    118a:	f001 fb81 	bl	2890 <USBHALHost::updateInterruptHeadED(unsigned long)>
    118e:	6d63      	ldr	r3, [r4, #84]	; 0x54
    1190:	f846 3008 	str.w	r3, [r6, r8]
    1194:	e7d9      	b.n	114a <USBHost::unqueueEndpoint(USBEndpoint*)+0x86>
    1196:	4639      	mov	r1, r7
    1198:	4630      	mov	r0, r6
    119a:	f001 fb6d 	bl	2878 <USBHALHost::updateBulkHeadED(unsigned long)>
    119e:	6d63      	ldr	r3, [r4, #84]	; 0x54
    11a0:	f846 3008 	str.w	r3, [r6, r8]
    11a4:	e7d1      	b.n	114a <USBHost::unqueueEndpoint(USBEndpoint*)+0x86>
    11a6:	bf00      	nop

000011a8 <USBHost::freeDevice(USBDeviceConnected*)>:
    11a8:	e92d 4ff0 	stmdb	sp!, {r4, r5, r6, r7, r8, r9, r10, r11, lr}
    11ac:	f891 3103 	ldrb.w	r3, [r1, #259]	; 0x103
    11b0:	b085      	sub	sp, #20
    11b2:	2b09      	cmp	r3, #9
    11b4:	460e      	mov	r6, r1
    11b6:	4605      	mov	r5, r0
    11b8:	d015      	beq.n	11e6 <USBHost::freeDevice(USBDeviceConnected*)+0x3e>
    11ba:	6870      	ldr	r0, [r6, #4]
    11bc:	b110      	cbz	r0, 11c4 <USBHost::freeDevice(USBDeviceConnected*)+0x1c>
    11be:	4631      	mov	r1, r6
    11c0:	f000 ffea 	bl	2198 <USBHostHub::deviceDisconnected(USBDeviceConnected*)>
    11c4:	f505 53d9 	add.w	r3, r5, #6944	; 0x1b20
    11c8:	3308      	adds	r3, #8
    11ca:	f04f 0b00 	mov.w	r11, #0
    11ce:	429e      	cmp	r6, r3
    11d0:	f503 7386 	add.w	r3, r3, #268	; 0x10c
    11d4:	d01e      	beq.n	1214 <USBHost::freeDevice(USBDeviceConnected*)+0x6c>
    11d6:	f10b 0b01 	add.w	r11, r11, #1
    11da:	f1bb 0f05 	cmp.w	r11, #5
    11de:	d1f6      	bne.n	11ce <USBHost::freeDevice(USBDeviceConnected*)+0x26>
    11e0:	b005      	add	sp, #20
    11e2:	e8bd 8ff0 	ldmia.w	sp!, {r4, r5, r6, r7, r8, r9, r10, r11, pc}
    11e6:	6808      	ldr	r0, [r1, #0]
    11e8:	2800      	cmp	r0, #0
    11ea:	d07c      	beq.n	12e6 <USBHost::freeDevice(USBDeviceConnected*)+0x13e>
    11ec:	f000 ffdc 	bl	21a8 <USBHostHub::hubDisconnected()>
    11f0:	f505 5302 	add.w	r3, r5, #8320	; 0x2080
    11f4:	6832      	ldr	r2, [r6, #0]
    11f6:	3308      	adds	r3, #8
    11f8:	429a      	cmp	r2, r3
    11fa:	d07b      	beq.n	12f4 <USBHost::freeDevice(USBDeviceConnected*)+0x14c>
    11fc:	f505 5303 	add.w	r3, r5, #8384	; 0x20c0
    1200:	429a      	cmp	r2, r3
    1202:	bf08      	it	eq
    1204:	2301      	moveq	r3, #1
    1206:	d1d8      	bne.n	11ba <USBHost::freeDevice(USBDeviceConnected*)+0x12>
    1208:	442b      	add	r3, r5
    120a:	f242 02f8 	movw	r2, #8440	; 0x20f8
    120e:	2100      	movs	r1, #0
    1210:	5499      	strb	r1, [r3, r2]
    1212:	e7d2      	b.n	11ba <USBHost::freeDevice(USBDeviceConnected*)+0x12>
    1214:	eb05 030b 	add.w	r3, r5, r11
    1218:	f503 5101 	add.w	r1, r3, #8256	; 0x2040
    121c:	2200      	movs	r2, #0
    121e:	460b      	mov	r3, r1
    1220:	f881 2024 	strb.w	r2, [r1, #36]	; 0x24
    1224:	4690      	mov	r8, r2
    1226:	eb05 0b8b 	add.w	r11, r5, r11, lsl #2
    122a:	f883 203d 	strb.w	r2, [r3, #61]	; 0x3d
    122e:	f106 0938 	add.w	r9, r6, #56	; 0x38
    1232:	eb0b 0308 	add.w	r3, r11, r8
    1236:	f503 5301 	add.w	r3, r3, #8256	; 0x2040
    123a:	fa5f f788 	uxtb.w	r7, r8
    123e:	f04f 0200 	mov.w	r2, #0
    1242:	f883 2029 	strb.w	r2, [r3, #41]	; 0x29
    1246:	4639      	mov	r1, r7
    1248:	4630      	mov	r0, r6
    124a:	f7ff fcc7 	bl	bdc <USBDeviceConnected::getInterface(unsigned char)>
    124e:	2800      	cmp	r0, #0
    1250:	d03c      	beq.n	12cc <USBHost::freeDevice(USBDeviceConnected*)+0x124>
    1252:	2400      	movs	r4, #0
    1254:	e023      	b.n	129e <USBHost::freeDevice(USBDeviceConnected*)+0xf6>
    1256:	4639      	mov	r1, r7
    1258:	4630      	mov	r0, r6
    125a:	f7ff fd51 	bl	d00 <USBDeviceConnected::getEndpoint(unsigned char, unsigned char)>
    125e:	4682      	mov	r10, r0
    1260:	4601      	mov	r1, r0
    1262:	4628      	mov	r0, r5
    1264:	f1ba 0f00 	cmp.w	r10, #0
    1268:	d018      	beq.n	129c <USBHost::freeDevice(USBDeviceConnected*)+0xf4>
    126a:	f8da 2058 	ldr.w	r2, [r10, #88]	; 0x58
    126e:	6813      	ldr	r3, [r2, #0]
    1270:	f8d2 c000 	ldr.w	r12, [r2]
    1274:	f443 4380 	orr.w	r3, r3, #16384	; 0x4000
    1278:	6013      	str	r3, [r2, #0]
    127a:	f7ff ff23 	bl	10c4 <USBHost::unqueueEndpoint(USBEndpoint*)>
    127e:	4628      	mov	r0, r5
    1280:	f8da 105c 	ldr.w	r1, [r10, #92]	; 0x5c
    1284:	f001 fb8a 	bl	299c <USBHALHost::freeTD(unsigned char volatile*)>
    1288:	4628      	mov	r0, r5
    128a:	f8da 1060 	ldr.w	r1, [r10, #96]	; 0x60
    128e:	f001 fb85 	bl	299c <USBHALHost::freeTD(unsigned char volatile*)>
    1292:	4628      	mov	r0, r5
    1294:	f8da 1058 	ldr.w	r1, [r10, #88]	; 0x58
    1298:	f001 fb78 	bl	298c <USBHALHost::freeED(unsigned char volatile*)>
    129c:	3401      	adds	r4, #1
    129e:	4630      	mov	r0, r6
    12a0:	4639      	mov	r1, r7
    12a2:	f7ff fc9b 	bl	bdc <USBDeviceConnected::getInterface(unsigned char)>
    12a6:	7843      	ldrb	r3, [r0, #1]
    12a8:	b2e2      	uxtb	r2, r4
    12aa:	429c      	cmp	r4, r3
    12ac:	dbd3      	blt.n	1256 <USBHost::freeDevice(USBDeviceConnected*)+0xae>
    12ae:	f896 20fc 	ldrb.w	r2, [r6, #252]	; 0xfc
    12b2:	f896 30fd 	ldrb.w	r3, [r6, #253]	; 0xfd
    12b6:	4810      	ldr	r0, [pc, #64]	; (12f8 <USBHost::freeDevice(USBDeviceConnected*)+0x150>)
    12b8:	9201      	str	r2, [sp, #4]
    12ba:	9302      	str	r3, [sp, #8]
    12bc:	f8cd 9000 	str.w	r9, [sp]
    12c0:	490e      	ldr	r1, [pc, #56]	; (12fc <USBHost::freeDevice(USBDeviceConnected*)+0x154>)
    12c2:	f240 12bd 	movw	r2, #445	; 0x1bd
    12c6:	4633      	mov	r3, r6
    12c8:	f007 ffae 	bl	9228 <iprintf>
    12cc:	f108 0801 	add.w	r8, r8, #1
    12d0:	f1b8 0f04 	cmp.w	r8, #4
    12d4:	f109 093c 	add.w	r9, r9, #60	; 0x3c
    12d8:	d1ab      	bne.n	1232 <USBHost::freeDevice(USBDeviceConnected*)+0x8a>
    12da:	4630      	mov	r0, r6
    12dc:	b005      	add	sp, #20
    12de:	e8bd 4ff0 	ldmia.w	sp!, {r4, r5, r6, r7, r8, r9, r10, r11, lr}
    12e2:	f7ff bcd5 	b.w	c90 <USBDeviceConnected::disconnect()>
    12e6:	4905      	ldr	r1, [pc, #20]	; (12fc <USBHost::freeDevice(USBDeviceConnected*)+0x154>)
    12e8:	f44f 72ca 	mov.w	r2, #404	; 0x194
    12ec:	4804      	ldr	r0, [pc, #16]	; (1300 <USBHost::freeDevice(USBDeviceConnected*)+0x158>)
    12ee:	f007 ff9b 	bl	9228 <iprintf>
    12f2:	e762      	b.n	11ba <USBHost::freeDevice(USBDeviceConnected*)+0x12>
    12f4:	2300      	movs	r3, #0
    12f6:	e787      	b.n	1208 <USBHost::freeDevice(USBDeviceConnected*)+0x60>
    12f8:	0000b270 	.word	0x0000b270
    12fc:	0000b234 	.word	0x0000b234
    1300:	0000b210 	.word	0x0000b210

00001304 <USBHost::getDevice(unsigned char)>:
    1304:	2904      	cmp	r1, #4
    1306:	d80d      	bhi.n	1324 <USBHost::getDevice(unsigned char)+0x20>
    1308:	1843      	adds	r3, r0, r1
    130a:	f503 5301 	add.w	r3, r3, #8256	; 0x2040
    130e:	3320      	adds	r3, #32
    1310:	791b      	ldrb	r3, [r3, #4]
    1312:	b14b      	cbz	r3, 1328 <USBHost::getDevice(unsigned char)+0x24>
    1314:	f44f 7386 	mov.w	r3, #268	; 0x10c
    1318:	fb03 0001 	mla	r0, r3, r1, r0
    131c:	f500 50d9 	add.w	r0, r0, #6944	; 0x1b20
    1320:	3008      	adds	r0, #8
    1322:	4770      	bx	lr
    1324:	2000      	movs	r0, #0
    1326:	4770      	bx	lr
    1328:	4618      	mov	r0, r3
    132a:	4770      	bx	lr

0000132c <USBHost::newEndpoint(ENDPOINT_TYPE, ENDPOINT_DIRECTION, unsigned long, unsigned char)>:
    132c:	e92d 4ff0 	stmdb	sp!, {r4, r5, r6, r7, r8, r9, r10, r11, lr}
    1330:	b089      	sub	sp, #36	; 0x24
    1332:	9305      	str	r3, [sp, #20]
    1334:	4607      	mov	r7, r0
    1336:	4689      	mov	r9, r1
    1338:	4690      	mov	r8, r2
    133a:	f89d b048 	ldrb.w	r11, [sp, #72]	; 0x48
    133e:	f001 faf3 	bl	2928 <USBHALHost::getED()>
    1342:	4682      	mov	r10, r0
    1344:	4638      	mov	r0, r7
    1346:	f001 fb07 	bl	2958 <USBHALHost::getTD()>
    134a:	9006      	str	r0, [sp, #24]
    134c:	4638      	mov	r0, r7
    134e:	f001 fb03 	bl	2958 <USBHALHost::getTD()>
    1352:	2100      	movs	r1, #0
    1354:	9007      	str	r0, [sp, #28]
    1356:	2220      	movs	r2, #32
    1358:	9806      	ldr	r0, [sp, #24]
    135a:	f007 fa56 	bl	880a <memset>
    135e:	9807      	ldr	r0, [sp, #28]
    1360:	2100      	movs	r1, #0
    1362:	2220      	movs	r2, #32
    1364:	f007 fa51 	bl	880a <memset>
    1368:	37c8      	adds	r7, #200	; 0xc8
    136a:	2400      	movs	r4, #0
    136c:	9b05      	ldr	r3, [sp, #20]
    136e:	e002      	b.n	1376 <USBHost::newEndpoint(ENDPOINT_TYPE, ENDPOINT_DIRECTION, unsigned long, unsigned char)+0x4a>
    1370:	f5b4 5fd2 	cmp.w	r4, #6720	; 0x1a40
    1374:	d013      	beq.n	139e <USBHost::newEndpoint(ENDPOINT_TYPE, ENDPOINT_DIRECTION, unsigned long, unsigned char)+0x72>
    1376:	193d      	adds	r5, r7, r4
    1378:	f895 6025 	ldrb.w	r6, [r5, #37]	; 0x25
    137c:	3470      	adds	r4, #112	; 0x70
    137e:	2e0f      	cmp	r6, #15
    1380:	d1f6      	bne.n	1370 <USBHost::newEndpoint(ENDPOINT_TYPE, ENDPOINT_DIRECTION, unsigned long, unsigned char)+0x44>
    1382:	a806      	add	r0, sp, #24
    1384:	e88d 0808 	stmia.w	sp, {r3, r11}
    1388:	9002      	str	r0, [sp, #8]
    138a:	4651      	mov	r1, r10
    138c:	4628      	mov	r0, r5
    138e:	464a      	mov	r2, r9
    1390:	4643      	mov	r3, r8
    1392:	f001 f8bf 	bl	2514 <USBEndpoint::init(hcEd*, ENDPOINT_TYPE, ENDPOINT_DIRECTION, unsigned long, unsigned char, HCTD**)>
    1396:	4628      	mov	r0, r5
    1398:	b009      	add	sp, #36	; 0x24
    139a:	e8bd 8ff0 	ldmia.w	sp!, {r4, r5, r6, r7, r8, r9, r10, r11, pc}
    139e:	4905      	ldr	r1, [pc, #20]	; (13b4 <USBHost::newEndpoint(ENDPOINT_TYPE, ENDPOINT_DIRECTION, unsigned long, unsigned char)+0x88>)
    13a0:	f240 2215 	movw	r2, #533	; 0x215
    13a4:	4804      	ldr	r0, [pc, #16]	; (13b8 <USBHost::newEndpoint(ENDPOINT_TYPE, ENDPOINT_DIRECTION, unsigned long, unsigned char)+0x8c>)
    13a6:	f007 ff3f 	bl	9228 <iprintf>
    13aa:	2500      	movs	r5, #0
    13ac:	4628      	mov	r0, r5
    13ae:	b009      	add	sp, #36	; 0x24
    13b0:	e8bd 8ff0 	ldmia.w	sp!, {r4, r5, r6, r7, r8, r9, r10, r11, pc}
    13b4:	0000b234 	.word	0x0000b234
    13b8:	0000b2b8 	.word	0x0000b2b8

000013bc <USBHost::resetDevice(USBDeviceConnected*)>:
    13bc:	b530      	push	{r4, r5, lr}
    13be:	f500 53d9 	add.w	r3, r0, #6944	; 0x1b20
    13c2:	b083      	sub	sp, #12
    13c4:	4605      	mov	r5, r0
    13c6:	3308      	adds	r3, #8
    13c8:	2400      	movs	r4, #0
    13ca:	4299      	cmp	r1, r3
    13cc:	f503 7386 	add.w	r3, r3, #268	; 0x10c
    13d0:	d005      	beq.n	13de <USBHost::resetDevice(USBDeviceConnected*)+0x22>
    13d2:	3401      	adds	r4, #1
    13d4:	2c05      	cmp	r4, #5
    13d6:	d1f8      	bne.n	13ca <USBHost::resetDevice(USBDeviceConnected*)+0xe>
    13d8:	2012      	movs	r0, #18
    13da:	b003      	add	sp, #12
    13dc:	bd30      	pop	{r4, r5, pc}
    13de:	2064      	movs	r0, #100	; 0x64
    13e0:	9101      	str	r1, [sp, #4]
    13e2:	f005 fb6f 	bl	6ac4 <rtos::Thread::wait(unsigned long)>
    13e6:	9901      	ldr	r1, [sp, #4]
    13e8:	f891 30fc 	ldrb.w	r3, [r1, #252]	; 0xfc
    13ec:	b973      	cbnz	r3, 140c <USBHost::resetDevice(USBDeviceConnected*)+0x50>
    13ee:	4628      	mov	r0, r5
    13f0:	f001 fadc 	bl	29ac <USBHALHost::resetRootHub()>
    13f4:	2064      	movs	r0, #100	; 0x64
    13f6:	f005 fb65 	bl	6ac4 <rtos::Thread::wait(unsigned long)>
    13fa:	442c      	add	r4, r5
    13fc:	f504 5401 	add.w	r4, r4, #8256	; 0x2040
    1400:	2301      	movs	r3, #1
    1402:	2000      	movs	r0, #0
    1404:	f884 303d 	strb.w	r3, [r4, #61]	; 0x3d
    1408:	b003      	add	sp, #12
    140a:	bd30      	pop	{r4, r5, pc}
    140c:	6848      	ldr	r0, [r1, #4]
    140e:	f891 10fd 	ldrb.w	r1, [r1, #253]	; 0xfd
    1412:	f001 f84d 	bl	24b0 <USBHostHub::portReset(unsigned char)>
    1416:	e7ed      	b.n	13f4 <USBHost::resetDevice(USBDeviceConnected*)+0x38>

00001418 <USBHost::addEndpoint(USBDeviceConnected*, unsigned char, USBEndpoint*)>:
    1418:	e92d 41f0 	stmdb	sp!, {r4, r5, r6, r7, r8, lr}
    141c:	461c      	mov	r4, r3
    141e:	4606      	mov	r6, r0
    1420:	4617      	mov	r7, r2
    1422:	460d      	mov	r5, r1
    1424:	b193      	cbz	r3, 144c <USBHost::addEndpoint(USBDeviceConnected*, unsigned char, USBEndpoint*)+0x34>
    1426:	4618      	mov	r0, r3
    1428:	2900      	cmp	r1, #0
    142a:	d04c      	beq.n	14c6 <USBHost::addEndpoint(USBDeviceConnected*, unsigned char, USBEndpoint*)+0xae>
    142c:	f891 1102 	ldrb.w	r1, [r1, #258]	; 0x102
    1430:	f001 f8da 	bl	25e8 <USBEndpoint::setDeviceAddress(unsigned char)>
    1434:	f895 3106 	ldrb.w	r3, [r5, #262]	; 0x106
    1438:	b95b      	cbnz	r3, 1452 <USBHost::addEndpoint(USBDeviceConnected*, unsigned char, USBEndpoint*)+0x3a>
    143a:	f894 3024 	ldrb.w	r3, [r4, #36]	; 0x24
    143e:	f884 706c 	strb.w	r7, [r4, #108]	; 0x6c
    1442:	2b02      	cmp	r3, #2
    1444:	d00f      	beq.n	1466 <USBHost::addEndpoint(USBDeviceConnected*, unsigned char, USBEndpoint*)+0x4e>
    1446:	2b03      	cmp	r3, #3
    1448:	d023      	beq.n	1492 <USBHost::addEndpoint(USBDeviceConnected*, unsigned char, USBEndpoint*)+0x7a>
    144a:	b373      	cbz	r3, 14aa <USBHost::addEndpoint(USBDeviceConnected*, unsigned char, USBEndpoint*)+0x92>
    144c:	2000      	movs	r0, #0
    144e:	e8bd 81f0 	ldmia.w	sp!, {r4, r5, r6, r7, r8, pc}
    1452:	4620      	mov	r0, r4
    1454:	2101      	movs	r1, #1
    1456:	f001 f8d5 	bl	2604 <USBEndpoint::setSpeed(unsigned char)>
    145a:	f894 3024 	ldrb.w	r3, [r4, #36]	; 0x24
    145e:	f884 706c 	strb.w	r7, [r4, #108]	; 0x6c
    1462:	2b02      	cmp	r3, #2
    1464:	d1ef      	bne.n	1446 <USBHost::addEndpoint(USBDeviceConnected*, unsigned char, USBEndpoint*)+0x2e>
    1466:	4630      	mov	r0, r6
    1468:	f001 f9fc 	bl	2864 <USBHALHost::bulkHeadED()>
    146c:	b370      	cbz	r0, 14cc <USBHost::addEndpoint(USBDeviceConnected*, unsigned char, USBEndpoint*)+0xb4>
    146e:	f641 381c 	movw	r8, #6940	; 0x1b1c
    1472:	f856 0008 	ldr.w	r0, [r6, r8]
    1476:	4621      	mov	r1, r4
    1478:	f001 f92e 	bl	26d8 <USBEndpoint::queueEndpoint(USBEndpoint*)>
    147c:	f846 4008 	str.w	r4, [r6, r8]
    1480:	6025      	str	r5, [r4, #0]
    1482:	4628      	mov	r0, r5
    1484:	4639      	mov	r1, r7
    1486:	4622      	mov	r2, r4
    1488:	f7ff fbce 	bl	c28 <USBDeviceConnected::addEndpoint(unsigned char, USBEndpoint*)>
    148c:	2001      	movs	r0, #1
    148e:	e8bd 81f0 	ldmia.w	sp!, {r4, r5, r6, r7, r8, pc}
    1492:	4630      	mov	r0, r6
    1494:	f001 f9ec 	bl	2870 <USBHALHost::interruptHeadED()>
    1498:	b318      	cbz	r0, 14e2 <USBHost::addEndpoint(USBDeviceConnected*, unsigned char, USBEndpoint*)+0xca>
    149a:	f506 56d9 	add.w	r6, r6, #6944	; 0x1b20
    149e:	6830      	ldr	r0, [r6, #0]
    14a0:	4621      	mov	r1, r4
    14a2:	f001 f919 	bl	26d8 <USBEndpoint::queueEndpoint(USBEndpoint*)>
    14a6:	6034      	str	r4, [r6, #0]
    14a8:	e7ea      	b.n	1480 <USBHost::addEndpoint(USBDeviceConnected*, unsigned char, USBEndpoint*)+0x68>
    14aa:	4630      	mov	r0, r6
    14ac:	f001 f9d4 	bl	2858 <USBHALHost::controlHeadED()>
    14b0:	b310      	cbz	r0, 14f8 <USBHost::addEndpoint(USBDeviceConnected*, unsigned char, USBEndpoint*)+0xe0>
    14b2:	f641 3518 	movw	r5, #6936	; 0x1b18
    14b6:	5970      	ldr	r0, [r6, r5]
    14b8:	4621      	mov	r1, r4
    14ba:	f001 f90d 	bl	26d8 <USBEndpoint::queueEndpoint(USBEndpoint*)>
    14be:	5174      	str	r4, [r6, r5]
    14c0:	2001      	movs	r0, #1
    14c2:	e8bd 81f0 	ldmia.w	sp!, {r4, r5, r6, r7, r8, pc}
    14c6:	f001 f88f 	bl	25e8 <USBEndpoint::setDeviceAddress(unsigned char)>
    14ca:	e7b6      	b.n	143a <USBHost::addEndpoint(USBDeviceConnected*, unsigned char, USBEndpoint*)+0x22>
    14cc:	4630      	mov	r0, r6
    14ce:	6da1      	ldr	r1, [r4, #88]	; 0x58
    14d0:	f001 f9d2 	bl	2878 <USBHALHost::updateBulkHeadED(unsigned long)>
    14d4:	f641 3210 	movw	r2, #6928	; 0x1b10
    14d8:	f641 331c 	movw	r3, #6940	; 0x1b1c
    14dc:	50b4      	str	r4, [r6, r2]
    14de:	50f4      	str	r4, [r6, r3]
    14e0:	e7ce      	b.n	1480 <USBHost::addEndpoint(USBDeviceConnected*, unsigned char, USBEndpoint*)+0x68>
    14e2:	4630      	mov	r0, r6
    14e4:	6da1      	ldr	r1, [r4, #88]	; 0x58
    14e6:	f001 f9d3 	bl	2890 <USBHALHost::updateInterruptHeadED(unsigned long)>
    14ea:	f641 3214 	movw	r2, #6932	; 0x1b14
    14ee:	f506 53d9 	add.w	r3, r6, #6944	; 0x1b20
    14f2:	50b4      	str	r4, [r6, r2]
    14f4:	601c      	str	r4, [r3, #0]
    14f6:	e7c3      	b.n	1480 <USBHost::addEndpoint(USBDeviceConnected*, unsigned char, USBEndpoint*)+0x68>
    14f8:	4630      	mov	r0, r6
    14fa:	6da1      	ldr	r1, [r4, #88]	; 0x58
    14fc:	f001 f9c2 	bl	2884 <USBHALHost::updateControlHeadED(unsigned long)>
    1500:	f641 320c 	movw	r2, #6924	; 0x1b0c
    1504:	f641 3318 	movw	r3, #6936	; 0x1b18
    1508:	50b4      	str	r4, [r6, r2]
    150a:	2001      	movs	r0, #1
    150c:	50f4      	str	r4, [r6, r3]
    150e:	e8bd 81f0 	ldmia.w	sp!, {r4, r5, r6, r7, r8, pc}
    1512:	bf00      	nop

00001514 <USBHost::findDevice(USBDeviceConnected*)>:
    1514:	f500 50d9 	add.w	r0, r0, #6944	; 0x1b20
    1518:	3008      	adds	r0, #8
    151a:	2300      	movs	r3, #0
    151c:	4281      	cmp	r1, r0
    151e:	f500 7086 	add.w	r0, r0, #268	; 0x10c
    1522:	d005      	beq.n	1530 <USBHost::findDevice(USBDeviceConnected*)+0x1c>
    1524:	3301      	adds	r3, #1
    1526:	2b05      	cmp	r3, #5
    1528:	d1f8      	bne.n	151c <USBHost::findDevice(USBDeviceConnected*)+0x8>
    152a:	f04f 30ff 	mov.w	r0, #4294967295	; 0xffffffff
    152e:	4770      	bx	lr
    1530:	4618      	mov	r0, r3
    1532:	4770      	bx	lr

00001534 <USBHost::addTransfer(USBEndpoint*, unsigned char*, unsigned long)>:
    1534:	e92d 47f0 	stmdb	sp!, {r4, r5, r6, r7, r8, r9, r10, lr}
    1538:	f500 5609 	add.w	r6, r0, #8768	; 0x2240
    153c:	3620      	adds	r6, #32
    153e:	460d      	mov	r5, r1
    1540:	4680      	mov	r8, r0
    1542:	f04f 31ff 	mov.w	r1, #4294967295	; 0xffffffff
    1546:	4630      	mov	r0, r6
    1548:	4691      	mov	r9, r2
    154a:	469a      	mov	r10, r3
    154c:	f005 fa6a 	bl	6a24 <rtos::Mutex::lock(unsigned long)>
    1550:	6e6c      	ldr	r4, [r5, #100]	; 0x64
    1552:	2c00      	cmp	r4, #0
    1554:	d035      	beq.n	15c2 <USBHost::addTransfer(USBEndpoint*, unsigned char*, unsigned long)+0x8e>
    1556:	f895 3027 	ldrb.w	r3, [r5, #39]	; 0x27
    155a:	b313      	cbz	r3, 15a2 <USBHost::addTransfer(USBEndpoint*, unsigned char*, unsigned long)+0x6e>
    155c:	f895 7024 	ldrb.w	r7, [r5, #36]	; 0x24
    1560:	4a1c      	ldr	r2, [pc, #112]	; (15d4 <USBHost::addTransfer(USBEndpoint*, unsigned char*, unsigned long)+0xa0>)
    1562:	4b1d      	ldr	r3, [pc, #116]	; (15d8 <USBHost::addTransfer(USBEndpoint*, unsigned char*, unsigned long)+0xa4>)
    1564:	2f00      	cmp	r7, #0
    1566:	bf08      	it	eq
    1568:	4613      	moveq	r3, r2
    156a:	6822      	ldr	r2, [r4, #0]
    156c:	f10a 3aff 	add.w	r10, r10, #4294967295	; 0xffffffff
    1570:	6023      	str	r3, [r4, #0]
    1572:	6863      	ldr	r3, [r4, #4]
    1574:	eb09 030a 	add.w	r3, r9, r10
    1578:	f8c4 9004 	str.w	r9, [r4, #4]
    157c:	68e2      	ldr	r2, [r4, #12]
    157e:	4639      	mov	r1, r7
    1580:	60e3      	str	r3, [r4, #12]
    1582:	4640      	mov	r0, r8
    1584:	f001 f9a6 	bl	28d4 <USBHALHost::disableList(ENDPOINT_TYPE)>
    1588:	4628      	mov	r0, r5
    158a:	f001 f877 	bl	267c <USBEndpoint::queueTransfer()>
    158e:	4640      	mov	r0, r8
    1590:	4639      	mov	r1, r7
    1592:	f001 f981 	bl	2898 <USBHALHost::enableList(ENDPOINT_TYPE)>
    1596:	4630      	mov	r0, r6
    1598:	f005 fa48 	bl	6a2c <rtos::Mutex::unlock()>
    159c:	2011      	movs	r0, #17
    159e:	e8bd 87f0 	ldmia.w	sp!, {r4, r5, r6, r7, r8, r9, r10, pc}
    15a2:	f895 3026 	ldrb.w	r3, [r5, #38]	; 0x26
    15a6:	f895 7024 	ldrb.w	r7, [r5, #36]	; 0x24
    15aa:	2b02      	cmp	r3, #2
    15ac:	bf0c      	ite	eq
    15ae:	f44f 1380 	moveq.w	r3, #1048576	; 0x100000
    15b2:	f44f 2300 	movne.w	r3, #524288	; 0x80000
    15b6:	b93f      	cbnz	r7, 15c8 <USBHost::addTransfer(USBEndpoint*, unsigned char*, unsigned long)+0x94>
    15b8:	f043 4373 	orr.w	r3, r3, #4076863488	; 0xf3000000
    15bc:	f443 2380 	orr.w	r3, r3, #262144	; 0x40000
    15c0:	e7d3      	b.n	156a <USBHost::addTransfer(USBEndpoint*, unsigned char*, unsigned long)+0x36>
    15c2:	2012      	movs	r0, #18
    15c4:	e8bd 87f0 	ldmia.w	sp!, {r4, r5, r6, r7, r8, r9, r10, pc}
    15c8:	f043 4370 	orr.w	r3, r3, #4026531840	; 0xf0000000
    15cc:	f443 2380 	orr.w	r3, r3, #262144	; 0x40000
    15d0:	e7cb      	b.n	156a <USBHost::addTransfer(USBEndpoint*, unsigned char*, unsigned long)+0x36>
    15d2:	bf00      	nop
    15d4:	f2040000 	.word	0xf2040000
    15d8:	f0040000 	.word	0xf0040000

000015dc <USBHost::parseConfDescr(USBDeviceConnected*, unsigned char*, unsigned long, IUSBEnumerator*)>:
    15dc:	e92d 4ff0 	stmdb	sp!, {r4, r5, r6, r7, r8, r9, r10, r11, lr}
    15e0:	b089      	sub	sp, #36	; 0x24
    15e2:	4698      	mov	r8, r3
    15e4:	9005      	str	r0, [sp, #20]
    15e6:	9104      	str	r1, [sp, #16]
    15e8:	4615      	mov	r5, r2
    15ea:	b34b      	cbz	r3, 1640 <USBHost::parseConfDescr(USBDeviceConnected*, unsigned char*, unsigned long, IUSBEnumerator*)+0x64>
    15ec:	f04f 0b00 	mov.w	r11, #0
    15f0:	46d9      	mov	r9, r11
    15f2:	f8cd b018 	str.w	r11, [sp, #24]
    15f6:	465c      	mov	r4, r11
    15f8:	f8cd b01c 	str.w	r11, [sp, #28]
    15fc:	192f      	adds	r7, r5, r4
    15fe:	787b      	ldrb	r3, [r7, #1]
    1600:	5d2e      	ldrb	r6, [r5, r4]
    1602:	3b02      	subs	r3, #2
    1604:	2b1f      	cmp	r3, #31
    1606:	d818      	bhi.n	163a <USBHost::parseConfDescr(USBDeviceConnected*, unsigned char*, unsigned long, IUSBEnumerator*)+0x5e>
    1608:	e8df f003 	tbb	[pc, r3]
    160c:	451d1740 	.word	0x451d1740
    1610:	17171717 	.word	0x17171717
    1614:	17171717 	.word	0x17171717
    1618:	17171717 	.word	0x17171717
    161c:	17171717 	.word	0x17171717
    1620:	17171717 	.word	0x17171717
    1624:	17171717 	.word	0x17171717
    1628:	10171717 	.word	0x10171717
    162c:	7a3a      	ldrb	r2, [r7, #8]
    162e:	79fb      	ldrb	r3, [r7, #7]
    1630:	ea43 2302 	orr.w	r3, r3, r2, lsl #8
    1634:	9a05      	ldr	r2, [sp, #20]
    1636:	f8a2 30c4 	strh.w	r3, [r2, #196]	; 0xc4
    163a:	4434      	add	r4, r6
    163c:	45a0      	cmp	r8, r4
    163e:	d8dd      	bhi.n	15fc <USBHost::parseConfDescr(USBDeviceConnected*, unsigned char*, unsigned long, IUSBEnumerator*)+0x20>
    1640:	b009      	add	sp, #36	; 0x24
    1642:	e8bd 8ff0 	ldmia.w	sp!, {r4, r5, r6, r7, r8, r9, r10, r11, pc}
    1646:	9a12      	ldr	r2, [sp, #72]	; 0x48
    1648:	1de7      	adds	r7, r4, #7
    164a:	f815 e007 	ldrb.w	lr, [r5, r7]
    164e:	6810      	ldr	r0, [r2, #0]
    1650:	1d63      	adds	r3, r4, #5
    1652:	f104 0902 	add.w	r9, r4, #2
    1656:	f104 0a06 	add.w	r10, r4, #6
    165a:	5cea      	ldrb	r2, [r5, r3]
    165c:	9303      	str	r3, [sp, #12]
    165e:	f815 1009 	ldrb.w	r1, [r5, r9]
    1662:	f815 300a 	ldrb.w	r3, [r5, r10]
    1666:	f8cd e000 	str.w	lr, [sp]
    166a:	f8d0 c004 	ldr.w	r12, [r0, #4]
    166e:	9812      	ldr	r0, [sp, #72]	; 0x48
    1670:	47e0      	blx	r12
    1672:	2800      	cmp	r0, #0
    1674:	d04c      	beq.n	1710 <USBHost::parseConfDescr(USBDeviceConnected*, unsigned char*, unsigned long, IUSBEnumerator*)+0x134>
    1676:	f10b 0c01 	add.w	r12, r11, #1
    167a:	f1bb 0f04 	cmp.w	r11, #4
    167e:	fa5f fc8c 	uxtb.w	r12, r12
    1682:	d947      	bls.n	1714 <USBHost::parseConfDescr(USBDeviceConnected*, unsigned char*, unsigned long, IUSBEnumerator*)+0x138>
    1684:	46e3      	mov	r11, r12
    1686:	f04f 0901 	mov.w	r9, #1
    168a:	e7d6      	b.n	163a <USBHost::parseConfDescr(USBDeviceConnected*, unsigned char*, unsigned long, IUSBEnumerator*)+0x5e>
    168c:	792b      	ldrb	r3, [r5, #4]
    168e:	9a04      	ldr	r2, [sp, #16]
    1690:	f882 3109 	strb.w	r3, [r2, #265]	; 0x109
    1694:	e7d1      	b.n	163a <USBHost::parseConfDescr(USBDeviceConnected*, unsigned char*, unsigned long, IUSBEnumerator*)+0x5e>
    1696:	f1b9 0f00 	cmp.w	r9, #0
    169a:	d0ce      	beq.n	163a <USBHost::parseConfDescr(USBDeviceConnected*, unsigned char*, unsigned long, IUSBEnumerator*)+0x5e>
    169c:	f1bb 0f04 	cmp.w	r11, #4
    16a0:	d8cb      	bhi.n	163a <USBHost::parseConfDescr(USBDeviceConnected*, unsigned char*, unsigned long, IUSBEnumerator*)+0x5e>
    16a2:	9a06      	ldr	r2, [sp, #24]
    16a4:	2a02      	cmp	r2, #2
    16a6:	dcc8      	bgt.n	163a <USBHost::parseConfDescr(USBDeviceConnected*, unsigned char*, unsigned long, IUSBEnumerator*)+0x5e>
    16a8:	1ca3      	adds	r3, r4, #2
    16aa:	9812      	ldr	r0, [sp, #72]	; 0x48
    16ac:	9303      	str	r3, [sp, #12]
    16ae:	f104 0a03 	add.w	r10, r4, #3
    16b2:	5ceb      	ldrb	r3, [r5, r3]
    16b4:	6801      	ldr	r1, [r0, #0]
    16b6:	f815 200a 	ldrb.w	r2, [r5, r10]
    16ba:	11db      	asrs	r3, r3, #7
    16bc:	f8d1 c008 	ldr.w	r12, [r1, #8]
    16c0:	3301      	adds	r3, #1
    16c2:	f002 0203 	and.w	r2, r2, #3
    16c6:	9907      	ldr	r1, [sp, #28]
    16c8:	47e0      	blx	r12
    16ca:	2800      	cmp	r0, #0
    16cc:	d0b5      	beq.n	163a <USBHost::parseConfDescr(USBDeviceConnected*, unsigned char*, unsigned long, IUSBEnumerator*)+0x5e>
    16ce:	f815 100a 	ldrb.w	r1, [r5, r10]
    16d2:	f001 0103 	and.w	r1, r1, #3
    16d6:	2901      	cmp	r1, #1
    16d8:	d0af      	beq.n	163a <USBHost::parseConfDescr(USBDeviceConnected*, unsigned char*, unsigned long, IUSBEnumerator*)+0x5e>
    16da:	9a03      	ldr	r2, [sp, #12]
    16dc:	797b      	ldrb	r3, [r7, #5]
    16de:	5ca8      	ldrb	r0, [r5, r2]
    16e0:	793f      	ldrb	r7, [r7, #4]
    16e2:	11c2      	asrs	r2, r0, #7
    16e4:	f000 000f 	and.w	r0, r0, #15
    16e8:	9000      	str	r0, [sp, #0]
    16ea:	3201      	adds	r2, #1
    16ec:	ea47 2303 	orr.w	r3, r7, r3, lsl #8
    16f0:	9805      	ldr	r0, [sp, #20]
    16f2:	f7ff fe1b 	bl	132c <USBHost::newEndpoint(ENDPOINT_TYPE, ENDPOINT_DIRECTION, unsigned long, unsigned char)>
    16f6:	b138      	cbz	r0, 1708 <USBHost::parseConfDescr(USBDeviceConnected*, unsigned char*, unsigned long, IUSBEnumerator*)+0x12c>
    16f8:	9b04      	ldr	r3, [sp, #16]
    16fa:	b12b      	cbz	r3, 1708 <USBHost::parseConfDescr(USBDeviceConnected*, unsigned char*, unsigned long, IUSBEnumerator*)+0x12c>
    16fc:	4603      	mov	r3, r0
    16fe:	9904      	ldr	r1, [sp, #16]
    1700:	9805      	ldr	r0, [sp, #20]
    1702:	9a07      	ldr	r2, [sp, #28]
    1704:	f7ff fe88 	bl	1418 <USBHost::addEndpoint(USBDeviceConnected*, unsigned char, USBEndpoint*)>
    1708:	9806      	ldr	r0, [sp, #24]
    170a:	3001      	adds	r0, #1
    170c:	9006      	str	r0, [sp, #24]
    170e:	e794      	b.n	163a <USBHost::parseConfDescr(USBDeviceConnected*, unsigned char*, unsigned long, IUSBEnumerator*)+0x5e>
    1710:	4681      	mov	r9, r0
    1712:	e792      	b.n	163a <USBHost::parseConfDescr(USBDeviceConnected*, unsigned char*, unsigned long, IUSBEnumerator*)+0x5e>
    1714:	f815 9009 	ldrb.w	r9, [r5, r9]
    1718:	9b03      	ldr	r3, [sp, #12]
    171a:	5de9      	ldrb	r1, [r5, r7]
    171c:	5cea      	ldrb	r2, [r5, r3]
    171e:	9804      	ldr	r0, [sp, #16]
    1720:	f815 300a 	ldrb.w	r3, [r5, r10]
    1724:	9100      	str	r1, [sp, #0]
    1726:	4649      	mov	r1, r9
    1728:	f8cd 901c 	str.w	r9, [sp, #28]
    172c:	46e3      	mov	r11, r12
    172e:	f7ff fa65 	bl	bfc <USBDeviceConnected::addInterface(unsigned char, unsigned char, unsigned char, unsigned char)>
    1732:	2000      	movs	r0, #0
    1734:	f04f 0901 	mov.w	r9, #1
    1738:	9006      	str	r0, [sp, #24]
    173a:	e77e      	b.n	163a <USBHost::parseConfDescr(USBDeviceConnected*, unsigned char*, unsigned long, IUSBEnumerator*)+0x5e>

0000173c <USBHost::generalTransfer(USBDeviceConnected*, USBEndpoint*, unsigned char*, unsigned long, bool, ENDPOINT_TYPE, bool)>:
    173c:	e92d 4ff0 	stmdb	sp!, {r4, r5, r6, r7, r8, r9, r10, r11, lr}
    1740:	f500 5509 	add.w	r5, r0, #8768	; 0x2240
    1744:	b089      	sub	sp, #36	; 0x24
    1746:	f89d 8054 	ldrb.w	r8, [sp, #84]	; 0x54
    174a:	350c      	adds	r5, #12
    174c:	4606      	mov	r6, r0
    174e:	460f      	mov	r7, r1
    1750:	4628      	mov	r0, r5
    1752:	f04f 31ff 	mov.w	r1, #4294967295	; 0xffffffff
    1756:	4614      	mov	r4, r2
    1758:	469a      	mov	r10, r3
    175a:	f89d b04c 	ldrb.w	r11, [sp, #76]	; 0x4c
    175e:	f89d 9050 	ldrb.w	r9, [sp, #80]	; 0x50
    1762:	f005 f95f 	bl	6a24 <rtos::Mutex::lock(unsigned long)>
    1766:	f1b8 0f00 	cmp.w	r8, #0
    176a:	bf0c      	ite	eq
    176c:	2202      	moveq	r2, #2
    176e:	2201      	movne	r2, #1
    1770:	2f00      	cmp	r7, #0
    1772:	d033      	beq.n	17dc <USBHost::generalTransfer(USBDeviceConnected*, USBEndpoint*, unsigned char*, unsigned long, bool, ENDPOINT_TYPE, bool)+0xa0>
    1774:	2c00      	cmp	r4, #0
    1776:	d050      	beq.n	181a <USBHost::generalTransfer(USBDeviceConnected*, USBEndpoint*, unsigned char*, unsigned long, bool, ENDPOINT_TYPE, bool)+0xde>
    1778:	f894 3025 	ldrb.w	r3, [r4, #37]	; 0x25
    177c:	2b10      	cmp	r3, #16
    177e:	d114      	bne.n	17aa <USBHost::generalTransfer(USBDeviceConnected*, USBEndpoint*, unsigned char*, unsigned long, bool, ENDPOINT_TYPE, bool)+0x6e>
    1780:	f894 3026 	ldrb.w	r3, [r4, #38]	; 0x26
    1784:	4293      	cmp	r3, r2
    1786:	d031      	beq.n	17ec <USBHost::generalTransfer(USBDeviceConnected*, USBEndpoint*, unsigned char*, unsigned long, bool, ENDPOINT_TYPE, bool)+0xb0>
    1788:	6822      	ldr	r2, [r4, #0]
    178a:	4623      	mov	r3, r4
    178c:	9200      	str	r2, [sp, #0]
    178e:	4832      	ldr	r0, [pc, #200]	; (1858 <USBHost::generalTransfer(USBDeviceConnected*, USBEndpoint*, unsigned char*, unsigned long, bool, ENDPOINT_TYPE, bool)+0x11c>)
    1790:	4932      	ldr	r1, [pc, #200]	; (185c <USBHost::generalTransfer(USBDeviceConnected*, USBEndpoint*, unsigned char*, unsigned long, bool, ENDPOINT_TYPE, bool)+0x120>)
    1792:	f240 32fd 	movw	r2, #1021	; 0x3fd
    1796:	f007 fd47 	bl	9228 <iprintf>
    179a:	2412      	movs	r4, #18
    179c:	4628      	mov	r0, r5
    179e:	f005 f945 	bl	6a2c <rtos::Mutex::unlock()>
    17a2:	4620      	mov	r0, r4
    17a4:	b009      	add	sp, #36	; 0x24
    17a6:	e8bd 8ff0 	ldmia.w	sp!, {r4, r5, r6, r7, r8, r9, r10, r11, pc}
    17aa:	f894 306c 	ldrb.w	r3, [r4, #108]	; 0x6c
    17ae:	6826      	ldr	r6, [r4, #0]
    17b0:	ebc3 1303 	rsb	r3, r3, r3, lsl #4
    17b4:	4620      	mov	r0, r4
    17b6:	eb06 0783 	add.w	r7, r6, r3, lsl #2
    17ba:	f000 ff55 	bl	2668 <USBEndpoint::getStateString()>
    17be:	3738      	adds	r7, #56	; 0x38
    17c0:	9002      	str	r0, [sp, #8]
    17c2:	4623      	mov	r3, r4
    17c4:	9701      	str	r7, [sp, #4]
    17c6:	9600      	str	r6, [sp, #0]
    17c8:	4825      	ldr	r0, [pc, #148]	; (1860 <USBHost::generalTransfer(USBDeviceConnected*, USBEndpoint*, unsigned char*, unsigned long, bool, ENDPOINT_TYPE, bool)+0x124>)
    17ca:	4924      	ldr	r1, [pc, #144]	; (185c <USBHost::generalTransfer(USBDeviceConnected*, USBEndpoint*, unsigned char*, unsigned long, bool, ENDPOINT_TYPE, bool)+0x120>)
    17cc:	f44f 727e 	mov.w	r2, #1016	; 0x3f8
    17d0:	f007 fd2a 	bl	9228 <iprintf>
    17d4:	f894 4025 	ldrb.w	r4, [r4, #37]	; 0x25
    17d8:	b2e4      	uxtb	r4, r4
    17da:	e7df      	b.n	179c <USBHost::generalTransfer(USBDeviceConnected*, USBEndpoint*, unsigned char*, unsigned long, bool, ENDPOINT_TYPE, bool)+0x60>
    17dc:	4821      	ldr	r0, [pc, #132]	; (1864 <USBHost::generalTransfer(USBDeviceConnected*, USBEndpoint*, unsigned char*, unsigned long, bool, ENDPOINT_TYPE, bool)+0x128>)
    17de:	491f      	ldr	r1, [pc, #124]	; (185c <USBHost::generalTransfer(USBDeviceConnected*, USBEndpoint*, unsigned char*, unsigned long, bool, ENDPOINT_TYPE, bool)+0x120>)
    17e0:	f240 32ee 	movw	r2, #1006	; 0x3ee
    17e4:	f007 fd20 	bl	9228 <iprintf>
    17e8:	2412      	movs	r4, #18
    17ea:	e7d7      	b.n	179c <USBHost::generalTransfer(USBDeviceConnected*, USBEndpoint*, unsigned char*, unsigned long, bool, ENDPOINT_TYPE, bool)+0x60>
    17ec:	f894 3024 	ldrb.w	r3, [r4, #36]	; 0x24
    17f0:	454b      	cmp	r3, r9
    17f2:	d1c9      	bne.n	1788 <USBHost::generalTransfer(USBDeviceConnected*, USBEndpoint*, unsigned char*, unsigned long, bool, ENDPOINT_TYPE, bool)+0x4c>
    17f4:	6da3      	ldr	r3, [r4, #88]	; 0x58
    17f6:	f897 2102 	ldrb.w	r2, [r7, #258]	; 0x102
    17fa:	681b      	ldr	r3, [r3, #0]
    17fc:	f003 037f 	and.w	r3, r3, #127	; 0x7f
    1800:	429a      	cmp	r2, r3
    1802:	d012      	beq.n	182a <USBHost::generalTransfer(USBDeviceConnected*, USBEndpoint*, unsigned char*, unsigned long, bool, ENDPOINT_TYPE, bool)+0xee>
    1804:	6822      	ldr	r2, [r4, #0]
    1806:	4623      	mov	r3, r4
    1808:	9200      	str	r2, [sp, #0]
    180a:	4817      	ldr	r0, [pc, #92]	; (1868 <USBHost::generalTransfer(USBDeviceConnected*, USBEndpoint*, unsigned char*, unsigned long, bool, ENDPOINT_TYPE, bool)+0x12c>)
    180c:	4913      	ldr	r1, [pc, #76]	; (185c <USBHost::generalTransfer(USBDeviceConnected*, USBEndpoint*, unsigned char*, unsigned long, bool, ENDPOINT_TYPE, bool)+0x120>)
    180e:	f240 4202 	movw	r2, #1026	; 0x402
    1812:	f007 fd09 	bl	9228 <iprintf>
    1816:	2412      	movs	r4, #18
    1818:	e7c0      	b.n	179c <USBHost::generalTransfer(USBDeviceConnected*, USBEndpoint*, unsigned char*, unsigned long, bool, ENDPOINT_TYPE, bool)+0x60>
    181a:	4814      	ldr	r0, [pc, #80]	; (186c <USBHost::generalTransfer(USBDeviceConnected*, USBEndpoint*, unsigned char*, unsigned long, bool, ENDPOINT_TYPE, bool)+0x130>)
    181c:	490f      	ldr	r1, [pc, #60]	; (185c <USBHost::generalTransfer(USBDeviceConnected*, USBEndpoint*, unsigned char*, unsigned long, bool, ENDPOINT_TYPE, bool)+0x120>)
    181e:	f240 32f3 	movw	r2, #1011	; 0x3f3
    1822:	f007 fd01 	bl	9228 <iprintf>
    1826:	2412      	movs	r4, #18
    1828:	e7b8      	b.n	179c <USBHost::generalTransfer(USBDeviceConnected*, USBEndpoint*, unsigned char*, unsigned long, bool, ENDPOINT_TYPE, bool)+0x60>
    182a:	4630      	mov	r0, r6
    182c:	4652      	mov	r2, r10
    182e:	4621      	mov	r1, r4
    1830:	9b12      	ldr	r3, [sp, #72]	; 0x48
    1832:	f7ff fe7f 	bl	1534 <USBHost::addTransfer(USBEndpoint*, unsigned char*, unsigned long)>
    1836:	f1bb 0f00 	cmp.w	r11, #0
    183a:	d101      	bne.n	1840 <USBHost::generalTransfer(USBDeviceConnected*, USBEndpoint*, unsigned char*, unsigned long, bool, ENDPOINT_TYPE, bool)+0x104>
    183c:	2411      	movs	r4, #17
    183e:	e7ad      	b.n	179c <USBHost::generalTransfer(USBDeviceConnected*, USBEndpoint*, unsigned char*, unsigned long, bool, ENDPOINT_TYPE, bool)+0x60>
    1840:	6861      	ldr	r1, [r4, #4]
    1842:	a805      	add	r0, sp, #20
    1844:	f04f 32ff 	mov.w	r2, #4294967295	; 0xffffffff
    1848:	f004 f99e 	bl	5b88 <osMessageGet>
    184c:	f894 4025 	ldrb.w	r4, [r4, #37]	; 0x25
    1850:	2c10      	cmp	r4, #16
    1852:	bf08      	it	eq
    1854:	2400      	moveq	r4, #0
    1856:	e7a1      	b.n	179c <USBHost::generalTransfer(USBDeviceConnected*, USBEndpoint*, unsigned char*, unsigned long, bool, ENDPOINT_TYPE, bool)+0x60>
    1858:	0000b3b8 	.word	0x0000b3b8
    185c:	0000b234 	.word	0x0000b234
    1860:	0000b328 	.word	0x0000b328
    1864:	0000b2f0 	.word	0x0000b2f0
    1868:	0000b364 	.word	0x0000b364
    186c:	0000b30c 	.word	0x0000b30c

00001870 <USBHost::bulkWrite(USBDeviceConnected*, USBEndpoint*, unsigned char*, unsigned long, bool)>:
    1870:	b5f0      	push	{r4, r5, r6, r7, lr}
    1872:	b085      	sub	sp, #20
    1874:	9c0a      	ldr	r4, [sp, #40]	; 0x28
    1876:	f89d 702c 	ldrb.w	r7, [sp, #44]	; 0x2c
    187a:	2602      	movs	r6, #2
    187c:	2501      	movs	r5, #1
    187e:	e88d 0090 	stmia.w	sp, {r4, r7}
    1882:	9602      	str	r6, [sp, #8]
    1884:	9503      	str	r5, [sp, #12]
    1886:	f7ff ff59 	bl	173c <USBHost::generalTransfer(USBDeviceConnected*, USBEndpoint*, unsigned char*, unsigned long, bool, ENDPOINT_TYPE, bool)>
    188a:	b005      	add	sp, #20
    188c:	bdf0      	pop	{r4, r5, r6, r7, pc}
    188e:	bf00      	nop

00001890 <USBHost::bulkRead(USBDeviceConnected*, USBEndpoint*, unsigned char*, unsigned long, bool)>:
    1890:	b5f0      	push	{r4, r5, r6, r7, lr}
    1892:	b085      	sub	sp, #20
    1894:	9c0a      	ldr	r4, [sp, #40]	; 0x28
    1896:	f89d 702c 	ldrb.w	r7, [sp, #44]	; 0x2c
    189a:	2602      	movs	r6, #2
    189c:	2500      	movs	r5, #0
    189e:	e88d 0090 	stmia.w	sp, {r4, r7}
    18a2:	9602      	str	r6, [sp, #8]
    18a4:	9503      	str	r5, [sp, #12]
    18a6:	f7ff ff49 	bl	173c <USBHost::generalTransfer(USBDeviceConnected*, USBEndpoint*, unsigned char*, unsigned long, bool, ENDPOINT_TYPE, bool)>
    18aa:	b005      	add	sp, #20
    18ac:	bdf0      	pop	{r4, r5, r6, r7, pc}
    18ae:	bf00      	nop

000018b0 <USBHost::interruptRead(USBDeviceConnected*, USBEndpoint*, unsigned char*, unsigned long, bool)>:
    18b0:	b5f0      	push	{r4, r5, r6, r7, lr}
    18b2:	b085      	sub	sp, #20
    18b4:	9c0a      	ldr	r4, [sp, #40]	; 0x28
    18b6:	f89d 702c 	ldrb.w	r7, [sp, #44]	; 0x2c
    18ba:	2603      	movs	r6, #3
    18bc:	2500      	movs	r5, #0
    18be:	e88d 0090 	stmia.w	sp, {r4, r7}
    18c2:	9602      	str	r6, [sp, #8]
    18c4:	9503      	str	r5, [sp, #12]
    18c6:	f7ff ff39 	bl	173c <USBHost::generalTransfer(USBDeviceConnected*, USBEndpoint*, unsigned char*, unsigned long, bool, ENDPOINT_TYPE, bool)>
    18ca:	b005      	add	sp, #20
    18cc:	bdf0      	pop	{r4, r5, r6, r7, pc}
    18ce:	bf00      	nop

000018d0 <USBHost::controlTransfer(USBDeviceConnected*, unsigned char, unsigned char, unsigned long, unsigned long, unsigned char*, unsigned long, bool)>:
    18d0:	e92d 4ff0 	stmdb	sp!, {r4, r5, r6, r7, r8, r9, r10, r11, lr}
    18d4:	f500 5409 	add.w	r4, r0, #8768	; 0x2240
    18d8:	b087      	sub	sp, #28
    18da:	340c      	adds	r4, #12
    18dc:	4692      	mov	r10, r2
    18de:	f89d 2050 	ldrb.w	r2, [sp, #80]	; 0x50
    18e2:	4683      	mov	r11, r0
    18e4:	460d      	mov	r5, r1
    18e6:	f641 3608 	movw	r6, #6920	; 0x1b08
    18ea:	f04f 31ff 	mov.w	r1, #4294967295	; 0xffffffff
    18ee:	4620      	mov	r0, r4
    18f0:	4699      	mov	r9, r3
    18f2:	9201      	str	r2, [sp, #4]
    18f4:	f8dd 8040 	ldr.w	r8, [sp, #64]	; 0x40
    18f8:	9f13      	ldr	r7, [sp, #76]	; 0x4c
    18fa:	f005 f893 	bl	6a24 <rtos::Mutex::lock(unsigned long)>
    18fe:	f85b 0006 	ldr.w	r0, [r11, r6]
    1902:	f895 1106 	ldrb.w	r1, [r5, #262]	; 0x106
    1906:	f000 fe7d 	bl	2604 <USBEndpoint::setSpeed(unsigned char)>
    190a:	f85b 0006 	ldr.w	r0, [r11, r6]
    190e:	f8d5 10f8 	ldr.w	r1, [r5, #248]	; 0xf8
    1912:	f000 fe5b 	bl	25cc <USBEndpoint::setSize(unsigned long)>
    1916:	f895 3107 	ldrb.w	r3, [r5, #263]	; 0x107
    191a:	f85b 0006 	ldr.w	r0, [r11, r6]
    191e:	f003 01ff 	and.w	r1, r3, #255	; 0xff
    1922:	2b00      	cmp	r3, #0
    1924:	d051      	beq.n	19ca <USBHost::controlTransfer(USBDeviceConnected*, unsigned char, unsigned char, unsigned long, unsigned long, unsigned char*, unsigned long, bool)+0xfa>
    1926:	f895 1102 	ldrb.w	r1, [r5, #258]	; 0x102
    192a:	f000 fe5d 	bl	25e8 <USBEndpoint::setDeviceAddress(unsigned char)>
    192e:	f641 3508 	movw	r5, #6920	; 0x1b08
    1932:	f242 01fa 	movw	r1, #8442	; 0x20fa
    1936:	f242 02fb 	movw	r2, #8443	; 0x20fb
    193a:	f85b 0005 	ldr.w	r0, [r11, r5]
    193e:	f3c8 2e07 	ubfx	lr, r8, #8, #8
    1942:	f80b a001 	strb.w	r10, [r11, r1]
    1946:	f242 03fc 	movw	r3, #8444	; 0x20fc
    194a:	f80b 9002 	strb.w	r9, [r11, r2]
    194e:	f242 06fd 	movw	r6, #8445	; 0x20fd
    1952:	9a11      	ldr	r2, [sp, #68]	; 0x44
    1954:	f80b 8003 	strb.w	r8, [r11, r3]
    1958:	f80b e006 	strb.w	lr, [r11, r6]
    195c:	f8dd e044 	ldr.w	lr, [sp, #68]	; 0x44
    1960:	f242 1301 	movw	r3, #8449	; 0x2101
    1964:	f242 01fe 	movw	r1, #8446	; 0x20fe
    1968:	f3c2 2907 	ubfx	r9, r2, #8, #8
    196c:	123e      	asrs	r6, r7, #8
    196e:	f242 02ff 	movw	r2, #8447	; 0x20ff
    1972:	f50b 5804 	add.w	r8, r11, #8448	; 0x2100
    1976:	f80b e001 	strb.w	lr, [r11, r1]
    197a:	f80b 9002 	strb.w	r9, [r11, r2]
    197e:	2100      	movs	r1, #0
    1980:	f888 7000 	strb.w	r7, [r8]
    1984:	f80b 6003 	strb.w	r6, [r11, r3]
    1988:	f000 fe48 	bl	261c <USBEndpoint::setNextToken(unsigned long)>
    198c:	f50b 5203 	add.w	r2, r11, #8384	; 0x20c0
    1990:	f85b 1005 	ldr.w	r1, [r11, r5]
    1994:	323a      	adds	r2, #58	; 0x3a
    1996:	2308      	movs	r3, #8
    1998:	4658      	mov	r0, r11
    199a:	f7ff fdcb 	bl	1534 <USBHost::addTransfer(USBEndpoint*, unsigned char*, unsigned long)>
    199e:	f85b 3005 	ldr.w	r3, [r11, r5]
    19a2:	a803      	add	r0, sp, #12
    19a4:	6859      	ldr	r1, [r3, #4]
    19a6:	f04f 32ff 	mov.w	r2, #4294967295	; 0xffffffff
    19aa:	f004 f8ed 	bl	5b88 <osMessageGet>
    19ae:	f85b 3005 	ldr.w	r3, [r11, r5]
    19b2:	f893 6025 	ldrb.w	r6, [r3, #37]	; 0x25
    19b6:	b2f6      	uxtb	r6, r6
    19b8:	2e10      	cmp	r6, #16
    19ba:	d009      	beq.n	19d0 <USBHost::controlTransfer(USBDeviceConnected*, unsigned char, unsigned char, unsigned long, unsigned long, unsigned char*, unsigned long, bool)+0x100>
    19bc:	4620      	mov	r0, r4
    19be:	f005 f835 	bl	6a2c <rtos::Mutex::unlock()>
    19c2:	4630      	mov	r0, r6
    19c4:	b007      	add	sp, #28
    19c6:	e8bd 8ff0 	ldmia.w	sp!, {r4, r5, r6, r7, r8, r9, r10, r11, pc}
    19ca:	f000 fe0d 	bl	25e8 <USBEndpoint::setDeviceAddress(unsigned char)>
    19ce:	e7ae      	b.n	192e <USBHost::controlTransfer(USBDeviceConnected*, unsigned char, unsigned char, unsigned long, unsigned long, unsigned char*, unsigned long, bool)+0x5e>
    19d0:	b307      	cbz	r7, 1a14 <USBHost::controlTransfer(USBDeviceConnected*, unsigned char, unsigned char, unsigned long, unsigned long, unsigned char*, unsigned long, bool)+0x144>
    19d2:	9b01      	ldr	r3, [sp, #4]
    19d4:	f85b 0005 	ldr.w	r0, [r11, r5]
    19d8:	2b00      	cmp	r3, #0
    19da:	bf0c      	ite	eq
    19dc:	f44f 1180 	moveq.w	r1, #1048576	; 0x100000
    19e0:	f44f 2100 	movne.w	r1, #524288	; 0x80000
    19e4:	f000 fe1a 	bl	261c <USBEndpoint::setNextToken(unsigned long)>
    19e8:	f85b 1005 	ldr.w	r1, [r11, r5]
    19ec:	463b      	mov	r3, r7
    19ee:	9a12      	ldr	r2, [sp, #72]	; 0x48
    19f0:	4658      	mov	r0, r11
    19f2:	f7ff fd9f 	bl	1534 <USBHost::addTransfer(USBEndpoint*, unsigned char*, unsigned long)>
    19f6:	f85b 3005 	ldr.w	r3, [r11, r5]
    19fa:	a803      	add	r0, sp, #12
    19fc:	6859      	ldr	r1, [r3, #4]
    19fe:	f04f 32ff 	mov.w	r2, #4294967295	; 0xffffffff
    1a02:	f004 f8c1 	bl	5b88 <osMessageGet>
    1a06:	f85b 3005 	ldr.w	r3, [r11, r5]
    1a0a:	f893 6025 	ldrb.w	r6, [r3, #37]	; 0x25
    1a0e:	b2f6      	uxtb	r6, r6
    1a10:	2e10      	cmp	r6, #16
    1a12:	d1d3      	bne.n	19bc <USBHost::controlTransfer(USBDeviceConnected*, unsigned char, unsigned char, unsigned long, unsigned long, unsigned char*, unsigned long, bool)+0xec>
    1a14:	9a01      	ldr	r2, [sp, #4]
    1a16:	f641 3508 	movw	r5, #6920	; 0x1b08
    1a1a:	2a00      	cmp	r2, #0
    1a1c:	bf14      	ite	ne
    1a1e:	f44f 1180 	movne.w	r1, #1048576	; 0x100000
    1a22:	f44f 2100 	moveq.w	r1, #524288	; 0x80000
    1a26:	f85b 0005 	ldr.w	r0, [r11, r5]
    1a2a:	f000 fdf7 	bl	261c <USBEndpoint::setNextToken(unsigned long)>
    1a2e:	2200      	movs	r2, #0
    1a30:	4613      	mov	r3, r2
    1a32:	f85b 1005 	ldr.w	r1, [r11, r5]
    1a36:	4658      	mov	r0, r11
    1a38:	f7ff fd7c 	bl	1534 <USBHost::addTransfer(USBEndpoint*, unsigned char*, unsigned long)>
    1a3c:	f85b 3005 	ldr.w	r3, [r11, r5]
    1a40:	a803      	add	r0, sp, #12
    1a42:	6859      	ldr	r1, [r3, #4]
    1a44:	f04f 32ff 	mov.w	r2, #4294967295	; 0xffffffff
    1a48:	f004 f89e 	bl	5b88 <osMessageGet>
    1a4c:	f85b 3005 	ldr.w	r3, [r11, r5]
    1a50:	f893 6025 	ldrb.w	r6, [r3, #37]	; 0x25
    1a54:	2e10      	cmp	r6, #16
    1a56:	bf08      	it	eq
    1a58:	2600      	moveq	r6, #0
    1a5a:	e7af      	b.n	19bc <USBHost::controlTransfer(USBDeviceConnected*, unsigned char, unsigned char, unsigned long, unsigned long, unsigned char*, unsigned long, bool)+0xec>

00001a5c <USBHost::controlRead(USBDeviceConnected*, unsigned char, unsigned char, unsigned long, unsigned long, unsigned char*, unsigned long)>:
    1a5c:	b5f0      	push	{r4, r5, r6, r7, lr}
    1a5e:	b087      	sub	sp, #28
    1a60:	9d0e      	ldr	r5, [sp, #56]	; 0x38
    1a62:	9f0c      	ldr	r7, [sp, #48]	; 0x30
    1a64:	9e0d      	ldr	r6, [sp, #52]	; 0x34
    1a66:	9502      	str	r5, [sp, #8]
    1a68:	9d0f      	ldr	r5, [sp, #60]	; 0x3c
    1a6a:	2400      	movs	r4, #0
    1a6c:	9700      	str	r7, [sp, #0]
    1a6e:	9601      	str	r6, [sp, #4]
    1a70:	9503      	str	r5, [sp, #12]
    1a72:	9404      	str	r4, [sp, #16]
    1a74:	f7ff ff2c 	bl	18d0 <USBHost::controlTransfer(USBDeviceConnected*, unsigned char, unsigned char, unsigned long, unsigned long, unsigned char*, unsigned long, bool)>
    1a78:	b007      	add	sp, #28
    1a7a:	bdf0      	pop	{r4, r5, r6, r7, pc}

00001a7c <USBHost::getDeviceDescriptor(USBDeviceConnected*, unsigned char*, unsigned short, unsigned short*)>:
    1a7c:	b5f0      	push	{r4, r5, r6, r7, lr}
    1a7e:	2b11      	cmp	r3, #17
    1a80:	b087      	sub	sp, #28
    1a82:	bf94      	ite	ls
    1a84:	461f      	movls	r7, r3
    1a86:	2712      	movhi	r7, #18
    1a88:	461c      	mov	r4, r3
    1a8a:	f44f 7680 	mov.w	r6, #256	; 0x100
    1a8e:	2300      	movs	r3, #0
    1a90:	9d0c      	ldr	r5, [sp, #48]	; 0x30
    1a92:	9202      	str	r2, [sp, #8]
    1a94:	9301      	str	r3, [sp, #4]
    1a96:	9304      	str	r3, [sp, #16]
    1a98:	9703      	str	r7, [sp, #12]
    1a9a:	9600      	str	r6, [sp, #0]
    1a9c:	2280      	movs	r2, #128	; 0x80
    1a9e:	2306      	movs	r3, #6
    1aa0:	f7ff ff16 	bl	18d0 <USBHost::controlTransfer(USBDeviceConnected*, unsigned char, unsigned char, unsigned long, unsigned long, unsigned char*, unsigned long, bool)>
    1aa4:	b11d      	cbz	r5, 1aae <USBHost::getDeviceDescriptor(USBDeviceConnected*, unsigned char*, unsigned short, unsigned short*)+0x32>
    1aa6:	2c12      	cmp	r4, #18
    1aa8:	bf28      	it	cs
    1aaa:	2412      	movcs	r4, #18
    1aac:	802c      	strh	r4, [r5, #0]
    1aae:	b007      	add	sp, #28
    1ab0:	bdf0      	pop	{r4, r5, r6, r7, pc}
    1ab2:	bf00      	nop

00001ab4 <USBHost::getConfigurationDescriptor(USBDeviceConnected*, unsigned char*, unsigned short, unsigned short*)>:
    1ab4:	e92d 43f0 	stmdb	sp!, {r4, r5, r6, r7, r8, r9, lr}
    1ab8:	4614      	mov	r4, r2
    1aba:	b087      	sub	sp, #28
    1abc:	2200      	movs	r2, #0
    1abe:	f44f 7600 	mov.w	r6, #512	; 0x200
    1ac2:	2509      	movs	r5, #9
    1ac4:	9600      	str	r6, [sp, #0]
    1ac6:	9201      	str	r2, [sp, #4]
    1ac8:	9204      	str	r2, [sp, #16]
    1aca:	9503      	str	r5, [sp, #12]
    1acc:	9402      	str	r4, [sp, #8]
    1ace:	4698      	mov	r8, r3
    1ad0:	2280      	movs	r2, #128	; 0x80
    1ad2:	2306      	movs	r3, #6
    1ad4:	4681      	mov	r9, r0
    1ad6:	460f      	mov	r7, r1
    1ad8:	9e0e      	ldr	r6, [sp, #56]	; 0x38
    1ada:	f7ff fef9 	bl	18d0 <USBHost::controlTransfer(USBDeviceConnected*, unsigned char, unsigned char, unsigned long, unsigned long, unsigned char*, unsigned long, bool)>
    1ade:	4605      	mov	r5, r0
    1ae0:	b9d8      	cbnz	r0, 1b1a <USBHost::getConfigurationDescriptor(USBDeviceConnected*, unsigned char*, unsigned short, unsigned short*)+0x66>
    1ae2:	78e2      	ldrb	r2, [r4, #3]
    1ae4:	78a3      	ldrb	r3, [r4, #2]
    1ae6:	ea43 2302 	orr.w	r3, r3, r2, lsl #8
    1aea:	4543      	cmp	r3, r8
    1aec:	bf28      	it	cs
    1aee:	4643      	movcs	r3, r8
    1af0:	b106      	cbz	r6, 1af4 <USBHost::getConfigurationDescriptor(USBDeviceConnected*, unsigned char*, unsigned short, unsigned short*)+0x40>
    1af2:	8033      	strh	r3, [r6, #0]
    1af4:	2200      	movs	r2, #0
    1af6:	f44f 7500 	mov.w	r5, #512	; 0x200
    1afa:	9303      	str	r3, [sp, #12]
    1afc:	9500      	str	r5, [sp, #0]
    1afe:	9201      	str	r2, [sp, #4]
    1b00:	9204      	str	r2, [sp, #16]
    1b02:	9402      	str	r4, [sp, #8]
    1b04:	4648      	mov	r0, r9
    1b06:	4639      	mov	r1, r7
    1b08:	2280      	movs	r2, #128	; 0x80
    1b0a:	2306      	movs	r3, #6
    1b0c:	f7ff fee0 	bl	18d0 <USBHost::controlTransfer(USBDeviceConnected*, unsigned char, unsigned char, unsigned long, unsigned long, unsigned char*, unsigned long, bool)>
    1b10:	4605      	mov	r5, r0
    1b12:	4628      	mov	r0, r5
    1b14:	b007      	add	sp, #28
    1b16:	e8bd 83f0 	ldmia.w	sp!, {r4, r5, r6, r7, r8, r9, pc}
    1b1a:	4905      	ldr	r1, [pc, #20]	; (1b30 <USBHost::getConfigurationDescriptor(USBDeviceConnected*, unsigned char*, unsigned short, unsigned short*)+0x7c>)
    1b1c:	f240 3202 	movw	r2, #770	; 0x302
    1b20:	4804      	ldr	r0, [pc, #16]	; (1b34 <USBHost::getConfigurationDescriptor(USBDeviceConnected*, unsigned char*, unsigned short, unsigned short*)+0x80>)
    1b22:	f007 fb81 	bl	9228 <iprintf>
    1b26:	4628      	mov	r0, r5
    1b28:	b007      	add	sp, #28
    1b2a:	e8bd 83f0 	ldmia.w	sp!, {r4, r5, r6, r7, r8, r9, pc}
    1b2e:	bf00      	nop
    1b30:	0000b234 	.word	0x0000b234
    1b34:	0000b400 	.word	0x0000b400

00001b38 <USBHost::controlWrite(USBDeviceConnected*, unsigned char, unsigned char, unsigned long, unsigned long, unsigned char*, unsigned long)>:
    1b38:	b5f0      	push	{r4, r5, r6, r7, lr}
    1b3a:	b087      	sub	sp, #28
    1b3c:	9d0e      	ldr	r5, [sp, #56]	; 0x38
    1b3e:	9f0c      	ldr	r7, [sp, #48]	; 0x30
    1b40:	9e0d      	ldr	r6, [sp, #52]	; 0x34
    1b42:	9502      	str	r5, [sp, #8]
    1b44:	9d0f      	ldr	r5, [sp, #60]	; 0x3c
    1b46:	2401      	movs	r4, #1
    1b48:	9700      	str	r7, [sp, #0]
    1b4a:	9601      	str	r6, [sp, #4]
    1b4c:	9503      	str	r5, [sp, #12]
    1b4e:	9404      	str	r4, [sp, #16]
    1b50:	f7ff febe 	bl	18d0 <USBHost::controlTransfer(USBDeviceConnected*, unsigned char, unsigned char, unsigned long, unsigned long, unsigned char*, unsigned long, bool)>
    1b54:	b007      	add	sp, #28
    1b56:	bdf0      	pop	{r4, r5, r6, r7, pc}

00001b58 <USBHost::setAddress(USBDeviceConnected*, unsigned char)>:
    1b58:	b510      	push	{r4, lr}
    1b5a:	2300      	movs	r3, #0
    1b5c:	b086      	sub	sp, #24
    1b5e:	2401      	movs	r4, #1
    1b60:	e88d 000c 	stmia.w	sp, {r2, r3}
    1b64:	9302      	str	r3, [sp, #8]
    1b66:	9303      	str	r3, [sp, #12]
    1b68:	461a      	mov	r2, r3
    1b6a:	9404      	str	r4, [sp, #16]
    1b6c:	2305      	movs	r3, #5
    1b6e:	f7ff feaf 	bl	18d0 <USBHost::controlTransfer(USBDeviceConnected*, unsigned char, unsigned char, unsigned long, unsigned long, unsigned char*, unsigned long, bool)>
    1b72:	b006      	add	sp, #24
    1b74:	bd10      	pop	{r4, pc}
    1b76:	bf00      	nop

00001b78 <USBHost::usb_process()>:
    1b78:	e92d 4ff0 	stmdb	sp!, {r4, r5, r6, r7, r8, r9, r10, r11, lr}
    1b7c:	f500 5209 	add.w	r2, r0, #8768	; 0x2240
    1b80:	b095      	sub	sp, #84	; 0x54
    1b82:	9206      	str	r2, [sp, #24]
    1b84:	f500 5302 	add.w	r3, r0, #8320	; 0x2080
    1b88:	930c      	str	r3, [sp, #48]	; 0x30
    1b8a:	9b06      	ldr	r3, [sp, #24]
    1b8c:	f500 52d8 	add.w	r2, r0, #6912	; 0x1b00
    1b90:	9208      	str	r2, [sp, #32]
    1b92:	330c      	adds	r3, #12
    1b94:	9306      	str	r3, [sp, #24]
    1b96:	9b08      	ldr	r3, [sp, #32]
    1b98:	f500 52d9 	add.w	r2, r0, #6944	; 0x1b20
    1b9c:	9207      	str	r2, [sp, #28]
    1b9e:	3308      	adds	r3, #8
    1ba0:	3204      	adds	r2, #4
    1ba2:	920b      	str	r2, [sp, #44]	; 0x2c
    1ba4:	9308      	str	r3, [sp, #32]
    1ba6:	9a0c      	ldr	r2, [sp, #48]	; 0x30
    1ba8:	9b07      	ldr	r3, [sp, #28]
    1baa:	f500 5805 	add.w	r8, r0, #8512	; 0x2140
    1bae:	3208      	adds	r2, #8
    1bb0:	3308      	adds	r3, #8
    1bb2:	4605      	mov	r5, r0
    1bb4:	f108 0810 	add.w	r8, r8, #16
    1bb8:	920c      	str	r2, [sp, #48]	; 0x30
    1bba:	9307      	str	r3, [sp, #28]
    1bbc:	a811      	add	r0, sp, #68	; 0x44
    1bbe:	f8d8 1000 	ldr.w	r1, [r8]
    1bc2:	f04f 32ff 	mov.w	r2, #4294967295	; 0xffffffff
    1bc6:	f004 f913 	bl	5df0 <osMailGet>
    1bca:	9b11      	ldr	r3, [sp, #68]	; 0x44
    1bcc:	2b20      	cmp	r3, #32
    1bce:	d1f5      	bne.n	1bbc <USBHost::usb_process()+0x44>
    1bd0:	9f12      	ldr	r7, [sp, #72]	; 0x48
    1bd2:	783c      	ldrb	r4, [r7, #0]
    1bd4:	2c02      	cmp	r4, #2
    1bd6:	d009      	beq.n	1bec <USBHost::usb_process()+0x74>
    1bd8:	2c04      	cmp	r4, #4
    1bda:	d070      	beq.n	1cbe <USBHost::usb_process()+0x146>
    1bdc:	2c01      	cmp	r4, #1
    1bde:	d052      	beq.n	1c86 <USBHost::usb_process()+0x10e>
    1be0:	4639      	mov	r1, r7
    1be2:	f8d8 0000 	ldr.w	r0, [r8]
    1be6:	f004 f8e9 	bl	5dbc <osMailFree>
    1bea:	e7e7      	b.n	1bbc <USBHost::usb_process()+0x44>
    1bec:	f04f 31ff 	mov.w	r1, #4294967295	; 0xffffffff
    1bf0:	9806      	ldr	r0, [sp, #24]
    1bf2:	f004 ff17 	bl	6a24 <rtos::Mutex::lock(unsigned long)>
    1bf6:	2100      	movs	r1, #0
    1bf8:	4628      	mov	r0, r5
    1bfa:	f000 fe6b 	bl	28d4 <USBHALHost::disableList(ENDPOINT_TYPE)>
    1bfe:	4621      	mov	r1, r4
    1c00:	4606      	mov	r6, r0
    1c02:	4628      	mov	r0, r5
    1c04:	f000 fe66 	bl	28d4 <USBHALHost::disableList(ENDPOINT_TYPE)>
    1c08:	2103      	movs	r1, #3
    1c0a:	4604      	mov	r4, r0
    1c0c:	4628      	mov	r0, r5
    1c0e:	f000 fe61 	bl	28d4 <USBHALHost::disableList(ENDPOINT_TYPE)>
    1c12:	f897 e008 	ldrb.w	lr, [r7, #8]
    1c16:	4681      	mov	r9, r0
    1c18:	f897 c009 	ldrb.w	r12, [r7, #9]
    1c1c:	68f8      	ldr	r0, [r7, #12]
    1c1e:	9907      	ldr	r1, [sp, #28]
    1c20:	2305      	movs	r3, #5
    1c22:	f891 20fc 	ldrb.w	r2, [r1, #252]	; 0xfc
    1c26:	4572      	cmp	r2, lr
    1c28:	d01f      	beq.n	1c6a <USBHost::usb_process()+0xf2>
    1c2a:	3b01      	subs	r3, #1
    1c2c:	f501 7186 	add.w	r1, r1, #268	; 0x10c
    1c30:	d1f7      	bne.n	1c22 <USBHost::usb_process()+0xaa>
    1c32:	b99e      	cbnz	r6, 1c5c <USBHost::usb_process()+0xe4>
    1c34:	b934      	cbnz	r4, 1c44 <USBHost::usb_process()+0xcc>
    1c36:	f1b9 0f00 	cmp.w	r9, #0
    1c3a:	d10a      	bne.n	1c52 <USBHost::usb_process()+0xda>
    1c3c:	9806      	ldr	r0, [sp, #24]
    1c3e:	f004 fef5 	bl	6a2c <rtos::Mutex::unlock()>
    1c42:	e7cd      	b.n	1be0 <USBHost::usb_process()+0x68>
    1c44:	4628      	mov	r0, r5
    1c46:	2102      	movs	r1, #2
    1c48:	f000 fe26 	bl	2898 <USBHALHost::enableList(ENDPOINT_TYPE)>
    1c4c:	f1b9 0f00 	cmp.w	r9, #0
    1c50:	d0f4      	beq.n	1c3c <USBHost::usb_process()+0xc4>
    1c52:	4628      	mov	r0, r5
    1c54:	2103      	movs	r1, #3
    1c56:	f000 fe1f 	bl	2898 <USBHALHost::enableList(ENDPOINT_TYPE)>
    1c5a:	e7ef      	b.n	1c3c <USBHost::usb_process()+0xc4>
    1c5c:	4628      	mov	r0, r5
    1c5e:	2100      	movs	r1, #0
    1c60:	f000 fe1a 	bl	2898 <USBHALHost::enableList(ENDPOINT_TYPE)>
    1c64:	2c00      	cmp	r4, #0
    1c66:	d0e6      	beq.n	1c36 <USBHost::usb_process()+0xbe>
    1c68:	e7ec      	b.n	1c44 <USBHost::usb_process()+0xcc>
    1c6a:	f891 20fd 	ldrb.w	r2, [r1, #253]	; 0xfd
    1c6e:	4562      	cmp	r2, r12
    1c70:	d1db      	bne.n	1c2a <USBHost::usb_process()+0xb2>
    1c72:	b110      	cbz	r0, 1c7a <USBHost::usb_process()+0x102>
    1c74:	684a      	ldr	r2, [r1, #4]
    1c76:	4290      	cmp	r0, r2
    1c78:	d1d7      	bne.n	1c2a <USBHost::usb_process()+0xb2>
    1c7a:	4628      	mov	r0, r5
    1c7c:	f7ff fa94 	bl	11a8 <USBHost::freeDevice(USBDeviceConnected*)>
    1c80:	2e00      	cmp	r6, #0
    1c82:	d0d7      	beq.n	1c34 <USBHost::usb_process()+0xbc>
    1c84:	e7ea      	b.n	1c5c <USBHost::usb_process()+0xe4>
    1c86:	f04f 0900 	mov.w	r9, #0
    1c8a:	9806      	ldr	r0, [sp, #24]
    1c8c:	f04f 31ff 	mov.w	r1, #4294967295	; 0xffffffff
    1c90:	f88d 9040 	strb.w	r9, [sp, #64]	; 0x40
    1c94:	f004 fec6 	bl	6a24 <rtos::Mutex::lock(unsigned long)>
    1c98:	eb05 0b09 	add.w	r11, r5, r9
    1c9c:	f50b 5301 	add.w	r3, r11, #8256	; 0x2040
    1ca0:	f893 6024 	ldrb.w	r6, [r3, #36]	; 0x24
    1ca4:	2e00      	cmp	r6, #0
    1ca6:	d042      	beq.n	1d2e <USBHost::usb_process()+0x1b6>
    1ca8:	f109 0901 	add.w	r9, r9, #1
    1cac:	f1b9 0f05 	cmp.w	r9, #5
    1cb0:	d1f2      	bne.n	1c98 <USBHost::usb_process()+0x120>
    1cb2:	4995      	ldr	r1, [pc, #596]	; (1f08 <USBHost::usb_process()+0x390>)
    1cb4:	2261      	movs	r2, #97	; 0x61
    1cb6:	4895      	ldr	r0, [pc, #596]	; (1f0c <USBHost::usb_process()+0x394>)
    1cb8:	f007 fab6 	bl	9228 <iprintf>
    1cbc:	e7be      	b.n	1c3c <USBHost::usb_process()+0xc4>
    1cbe:	7afb      	ldrb	r3, [r7, #11]
    1cc0:	f8d7 9004 	ldr.w	r9, [r7, #4]
    1cc4:	2b10      	cmp	r3, #16
    1cc6:	f8d9 6010 	ldr.w	r6, [r9, #16]
    1cca:	f000 80ff 	beq.w	1ecc <USBHost::usb_process()+0x354>
    1cce:	9a07      	ldr	r2, [sp, #28]
    1cd0:	6834      	ldr	r4, [r6, #0]
    1cd2:	2100      	movs	r1, #0
    1cd4:	4294      	cmp	r4, r2
    1cd6:	f502 7286 	add.w	r2, r2, #268	; 0x10c
    1cda:	d007      	beq.n	1cec <USBHost::usb_process()+0x174>
    1cdc:	3101      	adds	r1, #1
    1cde:	2905      	cmp	r1, #5
    1ce0:	f43f af7e 	beq.w	1be0 <USBHost::usb_process()+0x68>
    1ce4:	4294      	cmp	r4, r2
    1ce6:	f502 7286 	add.w	r2, r2, #268	; 0x10c
    1cea:	d1f7      	bne.n	1cdc <USBHost::usb_process()+0x164>
    1cec:	186b      	adds	r3, r5, r1
    1cee:	f503 5301 	add.w	r3, r3, #8256	; 0x2040
    1cf2:	3320      	adds	r3, #32
    1cf4:	791b      	ldrb	r3, [r3, #4]
    1cf6:	2b00      	cmp	r3, #0
    1cf8:	f43f af72 	beq.w	1be0 <USBHost::usb_process()+0x68>
    1cfc:	4630      	mov	r0, r6
    1cfe:	f000 fcb3 	bl	2668 <USBEndpoint::getStateString()>
    1d02:	6832      	ldr	r2, [r6, #0]
    1d04:	9000      	str	r0, [sp, #0]
    1d06:	9202      	str	r2, [sp, #8]
    1d08:	9601      	str	r6, [sp, #4]
    1d0a:	f896 106c 	ldrb.w	r1, [r6, #108]	; 0x6c
    1d0e:	464b      	mov	r3, r9
    1d10:	ebc1 1101 	rsb	r1, r1, r1, lsl #4
    1d14:	eb02 0281 	add.w	r2, r2, r1, lsl #2
    1d18:	3238      	adds	r2, #56	; 0x38
    1d1a:	9203      	str	r2, [sp, #12]
    1d1c:	487c      	ldr	r0, [pc, #496]	; (1f10 <USBHost::usb_process()+0x398>)
    1d1e:	497a      	ldr	r1, [pc, #488]	; (1f08 <USBHost::usb_process()+0x390>)
    1d20:	22ed      	movs	r2, #237	; 0xed
    1d22:	f007 fa81 	bl	9228 <iprintf>
    1d26:	2310      	movs	r3, #16
    1d28:	f886 3025 	strb.w	r3, [r6, #37]	; 0x25
    1d2c:	e758      	b.n	1be0 <USBHost::usb_process()+0x68>
    1d2e:	f44f 7486 	mov.w	r4, #268	; 0x10c
    1d32:	fb04 5409 	mla	r4, r4, r9, r5
    1d36:	7abb      	ldrb	r3, [r7, #10]
    1d38:	f504 54d9 	add.w	r4, r4, #6944	; 0x1b20
    1d3c:	3300      	adds	r3, #0
    1d3e:	f104 0408 	add.w	r4, r4, #8
    1d42:	bf18      	it	ne
    1d44:	2301      	movne	r3, #1
    1d46:	7a7a      	ldrb	r2, [r7, #9]
    1d48:	4620      	mov	r0, r4
    1d4a:	7a39      	ldrb	r1, [r7, #8]
    1d4c:	f7fe ff92 	bl	c74 <USBDeviceConnected::init(unsigned char, unsigned char, bool)>
    1d50:	9a0b      	ldr	r2, [sp, #44]	; 0x2c
    1d52:	f50b 5301 	add.w	r3, r11, #8256	; 0x2040
    1d56:	f892 a000 	ldrb.w	r10, [r2]
    1d5a:	f04f 0c01 	mov.w	r12, #1
    1d5e:	f50b 5202 	add.w	r2, r11, #8320	; 0x2080
    1d62:	f883 603d 	strb.w	r6, [r3, #61]	; 0x3d
    1d66:	f882 c002 	strb.w	r12, [r2, #2]
    1d6a:	f1ba 0f00 	cmp.w	r10, #0
    1d6e:	d116      	bne.n	1d9e <USBHost::usb_process()+0x226>
    1d70:	4662      	mov	r2, r12
    1d72:	4651      	mov	r1, r10
    1d74:	2308      	movs	r3, #8
    1d76:	f8cd a000 	str.w	r10, [sp]
    1d7a:	4628      	mov	r0, r5
    1d7c:	f8cd c014 	str.w	r12, [sp, #20]
    1d80:	f7ff fad4 	bl	132c <USBHost::newEndpoint(ENDPOINT_TYPE, ENDPOINT_DIRECTION, unsigned long, unsigned char)>
    1d84:	9b08      	ldr	r3, [sp, #32]
    1d86:	4651      	mov	r1, r10
    1d88:	6018      	str	r0, [r3, #0]
    1d8a:	681b      	ldr	r3, [r3, #0]
    1d8c:	4652      	mov	r2, r10
    1d8e:	4628      	mov	r0, r5
    1d90:	f7ff fb42 	bl	1418 <USBHost::addEndpoint(USBDeviceConnected*, unsigned char, USBEndpoint*)>
    1d94:	f8dd c014 	ldr.w	r12, [sp, #20]
    1d98:	9b0b      	ldr	r3, [sp, #44]	; 0x2c
    1d9a:	f883 c000 	strb.w	r12, [r3]
    1d9e:	68fb      	ldr	r3, [r7, #12]
    1da0:	b103      	cbz	r3, 1da4 <USBHost::usb_process()+0x22c>
    1da2:	6063      	str	r3, [r4, #4]
    1da4:	f04f 0a0a 	mov.w	r10, #10
    1da8:	e008      	b.n	1dbc <USBHost::usb_process()+0x244>
    1daa:	485a      	ldr	r0, [pc, #360]	; (1f14 <USBHost::usb_process()+0x39c>)
    1dac:	4956      	ldr	r1, [pc, #344]	; (1f08 <USBHost::usb_process()+0x390>)
    1dae:	f007 fa3b 	bl	9228 <iprintf>
    1db2:	f10a 3aff 	add.w	r10, r10, #4294967295	; 0xffffffff
    1db6:	f01a 0aff 	ands.w	r10, r10, #255	; 0xff
    1dba:	d031      	beq.n	1e20 <USBHost::usb_process()+0x2a8>
    1dbc:	4621      	mov	r1, r4
    1dbe:	4628      	mov	r0, r5
    1dc0:	f7ff fafc 	bl	13bc <USBHost::resetDevice(USBDeviceConnected*)>
    1dc4:	2608      	movs	r6, #8
    1dc6:	2200      	movs	r2, #0
    1dc8:	f884 2107 	strb.w	r2, [r4, #263]	; 0x107
    1dcc:	f8c4 60f8 	str.w	r6, [r4, #248]	; 0xf8
    1dd0:	4621      	mov	r1, r4
    1dd2:	9200      	str	r2, [sp, #0]
    1dd4:	4633      	mov	r3, r6
    1dd6:	aa0f      	add	r2, sp, #60	; 0x3c
    1dd8:	4628      	mov	r0, r5
    1dda:	f7ff fe4f 	bl	1a7c <USBHost::getDeviceDescriptor(USBDeviceConnected*, unsigned char*, unsigned short, unsigned short*)>
    1dde:	4621      	mov	r1, r4
    1de0:	227f      	movs	r2, #127	; 0x7f
    1de2:	2800      	cmp	r0, #0
    1de4:	d1e1      	bne.n	1daa <USBHost::usb_process()+0x232>
    1de6:	f89d 3043 	ldrb.w	r3, [sp, #67]	; 0x43
    1dea:	f894 2102 	ldrb.w	r2, [r4, #258]	; 0x102
    1dee:	f8c4 30f8 	str.w	r3, [r4, #248]	; 0xf8
    1df2:	4628      	mov	r0, r5
    1df4:	f7ff feb0 	bl	1b58 <USBHost::setAddress(USBDeviceConnected*, unsigned char)>
    1df8:	4686      	mov	lr, r0
    1dfa:	f04f 0c01 	mov.w	r12, #1
    1dfe:	4621      	mov	r1, r4
    1e00:	aa0f      	add	r2, sp, #60	; 0x3c
    1e02:	4633      	mov	r3, r6
    1e04:	4628      	mov	r0, r5
    1e06:	f1be 0f00 	cmp.w	lr, #0
    1e0a:	d026      	beq.n	1e5a <USBHost::usb_process()+0x2e2>
    1e0c:	4842      	ldr	r0, [pc, #264]	; (1f18 <USBHost::usb_process()+0x3a0>)
    1e0e:	493e      	ldr	r1, [pc, #248]	; (1f08 <USBHost::usb_process()+0x390>)
    1e10:	228a      	movs	r2, #138	; 0x8a
    1e12:	f10a 3aff 	add.w	r10, r10, #4294967295	; 0xffffffff
    1e16:	f007 fa07 	bl	9228 <iprintf>
    1e1a:	f01a 0aff 	ands.w	r10, r10, #255	; 0xff
    1e1e:	d1cd      	bne.n	1dbc <USBHost::usb_process()+0x244>
    1e20:	7a3b      	ldrb	r3, [r7, #8]
    1e22:	483e      	ldr	r0, [pc, #248]	; (1f1c <USBHost::usb_process()+0x3a4>)
    1e24:	9300      	str	r3, [sp, #0]
    1e26:	7a7b      	ldrb	r3, [r7, #9]
    1e28:	4937      	ldr	r1, [pc, #220]	; (1f08 <USBHost::usb_process()+0x390>)
    1e2a:	9301      	str	r3, [sp, #4]
    1e2c:	229b      	movs	r2, #155	; 0x9b
    1e2e:	4623      	mov	r3, r4
    1e30:	f007 f9fa 	bl	9228 <iprintf>
    1e34:	f89d 3040 	ldrb.w	r3, [sp, #64]	; 0x40
    1e38:	2b09      	cmp	r3, #9
    1e3a:	d01a      	beq.n	1e72 <USBHost::usb_process()+0x2fa>
    1e3c:	2600      	movs	r6, #0
    1e3e:	68f8      	ldr	r0, [r7, #12]
    1e40:	b110      	cbz	r0, 1e48 <USBHost::usb_process()+0x2d0>
    1e42:	4621      	mov	r1, r4
    1e44:	f000 f9a2 	bl	218c <USBHostHub::deviceConnected(USBDeviceConnected*)>
    1e48:	2e00      	cmp	r6, #0
    1e4a:	f47f aef7 	bne.w	1c3c <USBHost::usb_process()+0xc4>
    1e4e:	f50b 5b01 	add.w	r11, r11, #8256	; 0x2040
    1e52:	2301      	movs	r3, #1
    1e54:	f88b 3024 	strb.w	r3, [r11, #36]	; 0x24
    1e58:	e6f0      	b.n	1c3c <USBHost::usb_process()+0xc4>
    1e5a:	f884 c107 	strb.w	r12, [r4, #263]	; 0x107
    1e5e:	f8cd e000 	str.w	lr, [sp]
    1e62:	f7ff fe0b 	bl	1a7c <USBHost::getDeviceDescriptor(USBDeviceConnected*, unsigned char*, unsigned short, unsigned short*)>
    1e66:	2800      	cmp	r0, #0
    1e68:	d0da      	beq.n	1e20 <USBHost::usb_process()+0x2a8>
    1e6a:	2064      	movs	r0, #100	; 0x64
    1e6c:	f004 fe2a 	bl	6ac4 <rtos::Thread::wait(unsigned long)>
    1e70:	e79f      	b.n	1db2 <USBHost::usb_process()+0x23a>
    1e72:	2300      	movs	r3, #0
    1e74:	f8dd a030 	ldr.w	r10, [sp, #48]	; 0x30
    1e78:	9709      	str	r7, [sp, #36]	; 0x24
    1e7a:	f8cd 9034 	str.w	r9, [sp, #52]	; 0x34
    1e7e:	461f      	mov	r7, r3
    1e80:	f8cd 8028 	str.w	r8, [sp, #40]	; 0x28
    1e84:	eb05 0907 	add.w	r9, r5, r7
    1e88:	f509 5603 	add.w	r6, r9, #8384	; 0x20c0
    1e8c:	3638      	adds	r6, #56	; 0x38
    1e8e:	7832      	ldrb	r2, [r6, #0]
    1e90:	b96a      	cbnz	r2, 1eae <USBHost::usb_process()+0x336>
    1e92:	f04f 0803 	mov.w	r8, #3
    1e96:	4650      	mov	r0, r10
    1e98:	4621      	mov	r1, r4
    1e9a:	f000 f9a7 	bl	21ec <USBHostHub::connect(USBDeviceConnected*)>
    1e9e:	f108 38ff 	add.w	r8, r8, #4294967295	; 0xffffffff
    1ea2:	b9c0      	cbnz	r0, 1ed6 <USBHost::usb_process()+0x35e>
    1ea4:	f018 08ff 	ands.w	r8, r8, #255	; 0xff
    1ea8:	d1f5      	bne.n	1e96 <USBHost::usb_process()+0x31e>
    1eaa:	7832      	ldrb	r2, [r6, #0]
    1eac:	bb42      	cbnz	r2, 1f00 <USBHost::usb_process()+0x388>
    1eae:	3701      	adds	r7, #1
    1eb0:	2f02      	cmp	r7, #2
    1eb2:	f10a 0a38 	add.w	r10, r10, #56	; 0x38
    1eb6:	d1e5      	bne.n	1e84 <USBHost::usb_process()+0x30c>
    1eb8:	4819      	ldr	r0, [pc, #100]	; (1f20 <USBHost::usb_process()+0x3a8>)
    1eba:	4913      	ldr	r1, [pc, #76]	; (1f08 <USBHost::usb_process()+0x390>)
    1ebc:	22ae      	movs	r2, #174	; 0xae
    1ebe:	9f09      	ldr	r7, [sp, #36]	; 0x24
    1ec0:	f8dd 8028 	ldr.w	r8, [sp, #40]	; 0x28
    1ec4:	2601      	movs	r6, #1
    1ec6:	f007 f9af 	bl	9228 <iprintf>
    1eca:	e7b8      	b.n	1e3e <USBHost::usb_process()+0x2c6>
    1ecc:	f106 0038 	add.w	r0, r6, #56	; 0x38
    1ed0:	f005 f860 	bl	6f94 <mbed::FunctionPointer::call()>
    1ed4:	e684      	b.n	1be0 <USBHost::usb_process()+0x68>
    1ed6:	4649      	mov	r1, r9
    1ed8:	f8dd 9034 	ldr.w	r9, [sp, #52]	; 0x34
    1edc:	f44f 7386 	mov.w	r3, #268	; 0x10c
    1ee0:	fb03 5309 	mla	r3, r3, r9, r5
    1ee4:	f501 5103 	add.w	r1, r1, #8384	; 0x20c0
    1ee8:	f503 53d9 	add.w	r3, r3, #6944	; 0x1b20
    1eec:	2201      	movs	r2, #1
    1eee:	f8c3 a008 	str.w	r10, [r3, #8]
    1ef2:	9f09      	ldr	r7, [sp, #36]	; 0x24
    1ef4:	f8dd 8028 	ldr.w	r8, [sp, #40]	; 0x28
    1ef8:	2600      	movs	r6, #0
    1efa:	f881 2038 	strb.w	r2, [r1, #56]	; 0x38
    1efe:	e79e      	b.n	1e3e <USBHost::usb_process()+0x2c6>
    1f00:	9f09      	ldr	r7, [sp, #36]	; 0x24
    1f02:	f8dd 8028 	ldr.w	r8, [sp, #40]	; 0x28
    1f06:	e799      	b.n	1e3c <USBHost::usb_process()+0x2c4>
    1f08:	0000b234 	.word	0x0000b234
    1f0c:	0000b524 	.word	0x0000b524
    1f10:	0000b4cc 	.word	0x0000b4cc
    1f14:	0000b42c 	.word	0x0000b42c
    1f18:	0000b464 	.word	0x0000b464
    1f1c:	0000b488 	.word	0x0000b488
    1f20:	0000b554 	.word	0x0000b554

00001f24 <USBHost::usb_process_static(void const*)>:
    1f24:	b508      	push	{r3, lr}
    1f26:	f7ff fe27 	bl	1b78 <USBHost::usb_process()>
    1f2a:	bf00      	nop

00001f2c <USBHost::setConfiguration(USBDeviceConnected*, unsigned char)>:
    1f2c:	b510      	push	{r4, lr}
    1f2e:	2300      	movs	r3, #0
    1f30:	b086      	sub	sp, #24
    1f32:	2401      	movs	r4, #1
    1f34:	e88d 000c 	stmia.w	sp, {r2, r3}
    1f38:	9302      	str	r3, [sp, #8]
    1f3a:	9303      	str	r3, [sp, #12]
    1f3c:	461a      	mov	r2, r3
    1f3e:	9404      	str	r4, [sp, #16]
    1f40:	2309      	movs	r3, #9
    1f42:	f7ff fcc5 	bl	18d0 <USBHost::controlTransfer(USBDeviceConnected*, unsigned char, unsigned char, unsigned long, unsigned long, unsigned char*, unsigned long, bool)>
    1f46:	b006      	add	sp, #24
    1f48:	bd10      	pop	{r4, pc}
    1f4a:	bf00      	nop

00001f4c <USBHost::enumerate(USBDeviceConnected*, IUSBEnumerator*)>:
    1f4c:	e92d 43f0 	stmdb	sp!, {r4, r5, r6, r7, r8, r9, lr}
    1f50:	f500 5809 	add.w	r8, r0, #8768	; 0x2240
    1f54:	f108 080c 	add.w	r8, r8, #12
    1f58:	b085      	sub	sp, #20
    1f5a:	4606      	mov	r6, r0
    1f5c:	2400      	movs	r4, #0
    1f5e:	460d      	mov	r5, r1
    1f60:	4640      	mov	r0, r8
    1f62:	f04f 31ff 	mov.w	r1, #4294967295	; 0xffffffff
    1f66:	4617      	mov	r7, r2
    1f68:	f8ad 400e 	strh.w	r4, [sp, #14]
    1f6c:	f004 fd5a 	bl	6a24 <rtos::Mutex::lock(unsigned long)>
    1f70:	f506 52d9 	add.w	r2, r6, #6944	; 0x1b20
    1f74:	4623      	mov	r3, r4
    1f76:	3208      	adds	r2, #8
    1f78:	f240 503c 	movw	r0, #1340	; 0x53c
    1f7c:	18d1      	adds	r1, r2, r3
    1f7e:	428d      	cmp	r5, r1
    1f80:	f503 7386 	add.w	r3, r3, #268	; 0x10c
    1f84:	d009      	beq.n	1f9a <USBHost::enumerate(USBDeviceConnected*, IUSBEnumerator*)+0x4e>
    1f86:	4283      	cmp	r3, r0
    1f88:	d1f8      	bne.n	1f7c <USBHost::enumerate(USBDeviceConnected*, IUSBEnumerator*)+0x30>
    1f8a:	2412      	movs	r4, #18
    1f8c:	4640      	mov	r0, r8
    1f8e:	f004 fd4d 	bl	6a2c <rtos::Mutex::unlock()>
    1f92:	4620      	mov	r0, r4
    1f94:	b005      	add	sp, #20
    1f96:	e8bd 83f0 	ldmia.w	sp!, {r4, r5, r6, r7, r8, r9, pc}
    1f9a:	4613      	mov	r3, r2
    1f9c:	2400      	movs	r4, #0
    1f9e:	429d      	cmp	r5, r3
    1fa0:	f503 7386 	add.w	r3, r3, #268	; 0x10c
    1fa4:	d011      	beq.n	1fca <USBHost::enumerate(USBDeviceConnected*, IUSBEnumerator*)+0x7e>
    1fa6:	3401      	adds	r4, #1
    1fa8:	2c05      	cmp	r4, #5
    1faa:	d1f8      	bne.n	1f9e <USBHost::enumerate(USBDeviceConnected*, IUSBEnumerator*)+0x52>
    1fac:	f506 5909 	add.w	r9, r6, #8768	; 0x2240
    1fb0:	2300      	movs	r3, #0
    1fb2:	f109 0934 	add.w	r9, r9, #52	; 0x34
    1fb6:	9300      	str	r3, [sp, #0]
    1fb8:	464a      	mov	r2, r9
    1fba:	4630      	mov	r0, r6
    1fbc:	4629      	mov	r1, r5
    1fbe:	2312      	movs	r3, #18
    1fc0:	f7ff fd5c 	bl	1a7c <USBHost::getDeviceDescriptor(USBDeviceConnected*, unsigned char*, unsigned short, unsigned short*)>
    1fc4:	b1d0      	cbz	r0, 1ffc <USBHost::enumerate(USBDeviceConnected*, IUSBEnumerator*)+0xb0>
    1fc6:	4604      	mov	r4, r0
    1fc8:	e7e0      	b.n	1f8c <USBHost::enumerate(USBDeviceConnected*, IUSBEnumerator*)+0x40>
    1fca:	f506 5201 	add.w	r2, r6, #8256	; 0x2040
    1fce:	f604 031a 	addw	r3, r4, #2074	; 0x81a
    1fd2:	322c      	adds	r2, #44	; 0x2c
    1fd4:	eb02 0484 	add.w	r4, r2, r4, lsl #2
    1fd8:	eb06 0383 	add.w	r3, r6, r3, lsl #2
    1fdc:	2100      	movs	r1, #0
    1fde:	f813 2f01 	ldrb.w	r2, [r3, #1]!
    1fe2:	1c48      	adds	r0, r1, #1
    1fe4:	b102      	cbz	r2, 1fe8 <USBHost::enumerate(USBDeviceConnected*, IUSBEnumerator*)+0x9c>
    1fe6:	b2c1      	uxtb	r1, r0
    1fe8:	42a3      	cmp	r3, r4
    1fea:	d1f8      	bne.n	1fde <USBHost::enumerate(USBDeviceConnected*, IUSBEnumerator*)+0x92>
    1fec:	2900      	cmp	r1, #0
    1fee:	d0dd      	beq.n	1fac <USBHost::enumerate(USBDeviceConnected*, IUSBEnumerator*)+0x60>
    1ff0:	f895 3109 	ldrb.w	r3, [r5, #265]	; 0x109
    1ff4:	428b      	cmp	r3, r1
    1ff6:	d1d9      	bne.n	1fac <USBHost::enumerate(USBDeviceConnected*, IUSBEnumerator*)+0x60>
    1ff8:	2400      	movs	r4, #0
    1ffa:	e7c7      	b.n	1f8c <USBHost::enumerate(USBDeviceConnected*, IUSBEnumerator*)+0x40>
    1ffc:	f242 2378 	movw	r3, #8824	; 0x2278
    2000:	5cf2      	ldrb	r2, [r6, r3]
    2002:	f242 2379 	movw	r3, #8825	; 0x2279
    2006:	f885 2103 	strb.w	r2, [r5, #259]	; 0x103
    200a:	5cf2      	ldrb	r2, [r6, r3]
    200c:	f242 237a 	movw	r3, #8826	; 0x227a
    2010:	f885 2104 	strb.w	r2, [r5, #260]	; 0x104
    2014:	5cf3      	ldrb	r3, [r6, r3]
    2016:	f242 217d 	movw	r1, #8829	; 0x227d
    201a:	f885 3105 	strb.w	r3, [r5, #261]	; 0x105
    201e:	f242 207c 	movw	r0, #8828	; 0x227c
    2022:	5c74      	ldrb	r4, [r6, r1]
    2024:	5c33      	ldrb	r3, [r6, r0]
    2026:	f242 227f 	movw	r2, #8831	; 0x227f
    202a:	ea43 2304 	orr.w	r3, r3, r4, lsl #8
    202e:	f8a5 30fe 	strh.w	r3, [r5, #254]	; 0xfe
    2032:	f242 237e 	movw	r3, #8830	; 0x227e
    2036:	f816 c002 	ldrb.w	r12, [r6, r2]
    203a:	f816 e003 	ldrb.w	lr, [r6, r3]
    203e:	683c      	ldr	r4, [r7, #0]
    2040:	ea4e 2e0c 	orr.w	lr, lr, r12, lsl #8
    2044:	f8a5 e100 	strh.w	lr, [r5, #256]	; 0x100
    2048:	f816 e001 	ldrb.w	lr, [r6, r1]
    204c:	5cf3      	ldrb	r3, [r6, r3]
    204e:	5c31      	ldrb	r1, [r6, r0]
    2050:	5cb2      	ldrb	r2, [r6, r2]
    2052:	ea41 210e 	orr.w	r1, r1, lr, lsl #8
    2056:	ea43 2202 	orr.w	r2, r3, r2, lsl #8
    205a:	4638      	mov	r0, r7
    205c:	6823      	ldr	r3, [r4, #0]
    205e:	4798      	blx	r3
    2060:	f10d 030e 	add.w	r3, sp, #14
    2064:	9300      	str	r3, [sp, #0]
    2066:	4630      	mov	r0, r6
    2068:	4629      	mov	r1, r5
    206a:	464a      	mov	r2, r9
    206c:	f240 139f 	movw	r3, #415	; 0x19f
    2070:	f7ff fd20 	bl	1ab4 <USBHost::getConfigurationDescriptor(USBDeviceConnected*, unsigned char*, unsigned short, unsigned short*)>
    2074:	2800      	cmp	r0, #0
    2076:	d1a6      	bne.n	1fc6 <USBHost::enumerate(USBDeviceConnected*, IUSBEnumerator*)+0x7a>
    2078:	f8bd 300e 	ldrh.w	r3, [sp, #14]
    207c:	9700      	str	r7, [sp, #0]
    207e:	464a      	mov	r2, r9
    2080:	4630      	mov	r0, r6
    2082:	4629      	mov	r1, r5
    2084:	f7ff faaa 	bl	15dc <USBHost::parseConfDescr(USBDeviceConnected*, unsigned char*, unsigned long, IUSBEnumerator*)>
    2088:	f895 3108 	ldrb.w	r3, [r5, #264]	; 0x108
    208c:	b933      	cbnz	r3, 209c <USBHost::enumerate(USBDeviceConnected*, IUSBEnumerator*)+0x150>
    208e:	4630      	mov	r0, r6
    2090:	4629      	mov	r1, r5
    2092:	2201      	movs	r2, #1
    2094:	f7ff ff4a 	bl	1f2c <USBHost::setConfiguration(USBDeviceConnected*, unsigned char)>
    2098:	2800      	cmp	r0, #0
    209a:	d194      	bne.n	1fc6 <USBHost::enumerate(USBDeviceConnected*, IUSBEnumerator*)+0x7a>
    209c:	2301      	movs	r3, #1
    209e:	f885 3108 	strb.w	r3, [r5, #264]	; 0x108
    20a2:	4640      	mov	r0, r8
    20a4:	f004 fcc2 	bl	6a2c <rtos::Mutex::unlock()>
    20a8:	2064      	movs	r0, #100	; 0x64
    20aa:	f004 fd0b 	bl	6ac4 <rtos::Thread::wait(unsigned long)>
    20ae:	2400      	movs	r4, #0
    20b0:	e76f      	b.n	1f92 <USBHost::enumerate(USBDeviceConnected*, IUSBEnumerator*)+0x46>
    20b2:	bf00      	nop

000020b4 <USBHostHub::disconnect()>:
    20b4:	2300      	movs	r3, #0
    20b6:	f04f 32ff 	mov.w	r2, #4294967295	; 0xffffffff
    20ba:	6202      	str	r2, [r0, #32]
    20bc:	7303      	strb	r3, [r0, #12]
    20be:	6083      	str	r3, [r0, #8]
    20c0:	6103      	str	r3, [r0, #16]
    20c2:	f880 3024 	strb.w	r3, [r0, #36]	; 0x24
    20c6:	7503      	strb	r3, [r0, #20]
    20c8:	7543      	strb	r3, [r0, #21]
    20ca:	6283      	str	r3, [r0, #40]	; 0x28
    20cc:	62c3      	str	r3, [r0, #44]	; 0x2c
    20ce:	6303      	str	r3, [r0, #48]	; 0x30
    20d0:	6343      	str	r3, [r0, #52]	; 0x34
    20d2:	4770      	bx	lr

000020d4 <USBHostHub::setVidPid(unsigned short, unsigned short)>:
    20d4:	4770      	bx	lr
    20d6:	bf00      	nop

000020d8 <USBHostHub::parseInterface(unsigned char, unsigned char, unsigned char, unsigned char)>:
    20d8:	b430      	push	{r4, r5}
    20da:	6a04      	ldr	r4, [r0, #32]
    20dc:	f89d 5008 	ldrb.w	r5, [sp, #8]
    20e0:	3401      	adds	r4, #1
    20e2:	d002      	beq.n	20ea <USBHostHub::parseInterface(unsigned char, unsigned char, unsigned char, unsigned char)+0x12>
    20e4:	2000      	movs	r0, #0
    20e6:	bc30      	pop	{r4, r5}
    20e8:	4770      	bx	lr
    20ea:	2a09      	cmp	r2, #9
    20ec:	d1fa      	bne.n	20e4 <USBHostHub::parseInterface(unsigned char, unsigned char, unsigned char, unsigned char)+0xc>
    20ee:	2b00      	cmp	r3, #0
    20f0:	d1f8      	bne.n	20e4 <USBHostHub::parseInterface(unsigned char, unsigned char, unsigned char, unsigned char)+0xc>
    20f2:	b915      	cbnz	r5, 20fa <USBHostHub::parseInterface(unsigned char, unsigned char, unsigned char, unsigned char)+0x22>
    20f4:	6201      	str	r1, [r0, #32]
    20f6:	2001      	movs	r0, #1
    20f8:	e7f5      	b.n	20e6 <USBHostHub::parseInterface(unsigned char, unsigned char, unsigned char, unsigned char)+0xe>
    20fa:	4618      	mov	r0, r3
    20fc:	e7f3      	b.n	20e6 <USBHostHub::parseInterface(unsigned char, unsigned char, unsigned char, unsigned char)+0xe>
    20fe:	bf00      	nop

00002100 <USBHostHub::useEndpoint(unsigned char, ENDPOINT_TYPE, ENDPOINT_DIRECTION)>:
    2100:	b410      	push	{r4}
    2102:	6a04      	ldr	r4, [r0, #32]
    2104:	42a1      	cmp	r1, r4
    2106:	d003      	beq.n	2110 <USBHostHub::useEndpoint(unsigned char, ENDPOINT_TYPE, ENDPOINT_DIRECTION)+0x10>
    2108:	2000      	movs	r0, #0
    210a:	f85d 4b04 	ldr.w	r4, [sp], #4
    210e:	4770      	bx	lr
    2110:	2a03      	cmp	r2, #3
    2112:	d1f9      	bne.n	2108 <USBHostHub::useEndpoint(unsigned char, ENDPOINT_TYPE, ENDPOINT_DIRECTION)+0x8>
    2114:	2b02      	cmp	r3, #2
    2116:	d1f7      	bne.n	2108 <USBHostHub::useEndpoint(unsigned char, ENDPOINT_TYPE, ENDPOINT_DIRECTION)+0x8>
    2118:	2301      	movs	r3, #1
    211a:	f880 3024 	strb.w	r3, [r0, #36]	; 0x24
    211e:	4618      	mov	r0, r3
    2120:	e7f3      	b.n	210a <USBHostHub::useEndpoint(unsigned char, ENDPOINT_TYPE, ENDPOINT_DIRECTION)+0xa>
    2122:	bf00      	nop

00002124 <void mbed::FunctionPointer::membercaller<USBHostHub>(void*, char*)>:
    2124:	b510      	push	{r4, lr}
    2126:	460b      	mov	r3, r1
    2128:	b082      	sub	sp, #8
    212a:	6849      	ldr	r1, [r1, #4]
    212c:	4602      	mov	r2, r0
    212e:	6818      	ldr	r0, [r3, #0]
    2130:	466b      	mov	r3, sp
    2132:	c303      	stmia	r3!, {r0, r1}
    2134:	460b      	mov	r3, r1
    2136:	07d9      	lsls	r1, r3, #31
    2138:	d507      	bpl.n	214a <void mbed::FunctionPointer::membercaller<USBHostHub>(void*, char*)+0x26>
    213a:	105b      	asrs	r3, r3, #1
    213c:	58d4      	ldr	r4, [r2, r3]
    213e:	9900      	ldr	r1, [sp, #0]
    2140:	18d0      	adds	r0, r2, r3
    2142:	5861      	ldr	r1, [r4, r1]
    2144:	4788      	blx	r1
    2146:	b002      	add	sp, #8
    2148:	bd10      	pop	{r4, pc}
    214a:	eb02 0063 	add.w	r0, r2, r3, asr #1
    214e:	9900      	ldr	r1, [sp, #0]
    2150:	4788      	blx	r1
    2152:	b002      	add	sp, #8
    2154:	bd10      	pop	{r4, pc}
    2156:	bf00      	nop

00002158 <USBHostHub::USBHostHub()>:
    2158:	b410      	push	{r4}
    215a:	4c0a      	ldr	r4, [pc, #40]	; (2184 <USBHostHub::USBHostHub()+0x2c>)
    215c:	2200      	movs	r2, #0
    215e:	f04f 31ff 	mov.w	r1, #4294967295	; 0xffffffff
    2162:	6004      	str	r4, [r0, #0]
    2164:	6201      	str	r1, [r0, #32]
    2166:	6042      	str	r2, [r0, #4]
    2168:	7302      	strb	r2, [r0, #12]
    216a:	6082      	str	r2, [r0, #8]
    216c:	6102      	str	r2, [r0, #16]
    216e:	f880 2024 	strb.w	r2, [r0, #36]	; 0x24
    2172:	7502      	strb	r2, [r0, #20]
    2174:	7542      	strb	r2, [r0, #21]
    2176:	6282      	str	r2, [r0, #40]	; 0x28
    2178:	62c2      	str	r2, [r0, #44]	; 0x2c
    217a:	6302      	str	r2, [r0, #48]	; 0x30
    217c:	6342      	str	r2, [r0, #52]	; 0x34
    217e:	f85d 4b04 	ldr.w	r4, [sp], #4
    2182:	4770      	bx	lr
    2184:	0000b590 	.word	0x0000b590

00002188 <USBHostHub::setHost(USBHost*)>:
    2188:	6041      	str	r1, [r0, #4]
    218a:	4770      	bx	lr

0000218c <USBHostHub::deviceConnected(USBDeviceConnected*)>:
    218c:	f891 30fd 	ldrb.w	r3, [r1, #253]	; 0xfd
    2190:	3309      	adds	r3, #9
    2192:	f840 1023 	str.w	r1, [r0, r3, lsl #2]
    2196:	4770      	bx	lr

00002198 <USBHostHub::deviceDisconnected(USBDeviceConnected*)>:
    2198:	f891 30fd 	ldrb.w	r3, [r1, #253]	; 0xfd
    219c:	2200      	movs	r2, #0
    219e:	3309      	adds	r3, #9
    21a0:	f840 2023 	str.w	r2, [r0, r3, lsl #2]
    21a4:	4770      	bx	lr
    21a6:	bf00      	nop

000021a8 <USBHostHub::hubDisconnected()>:
    21a8:	b570      	push	{r4, r5, r6, lr}
    21aa:	4605      	mov	r5, r0
    21ac:	4604      	mov	r4, r0
    21ae:	f100 0610 	add.w	r6, r0, #16
    21b2:	6aa3      	ldr	r3, [r4, #40]	; 0x28
    21b4:	3404      	adds	r4, #4
    21b6:	4619      	mov	r1, r3
    21b8:	b113      	cbz	r3, 21c0 <USBHostHub::hubDisconnected()+0x18>
    21ba:	6868      	ldr	r0, [r5, #4]
    21bc:	f7fe fff4 	bl	11a8 <USBHost::freeDevice(USBDeviceConnected*)>
    21c0:	42b4      	cmp	r4, r6
    21c2:	d1f6      	bne.n	21b2 <USBHostHub::hubDisconnected()+0xa>
    21c4:	bd70      	pop	{r4, r5, r6, pc}
    21c6:	bf00      	nop

000021c8 <USBHostHub::setPortFeature(unsigned long, unsigned char)>:
    21c8:	b510      	push	{r4, lr}
    21ca:	4603      	mov	r3, r0
    21cc:	689c      	ldr	r4, [r3, #8]
    21ce:	b084      	sub	sp, #16
    21d0:	2300      	movs	r3, #0
    21d2:	6840      	ldr	r0, [r0, #4]
    21d4:	e88d 0006 	stmia.w	sp, {r1, r2}
    21d8:	9302      	str	r3, [sp, #8]
    21da:	9303      	str	r3, [sp, #12]
    21dc:	4621      	mov	r1, r4
    21de:	2223      	movs	r2, #35	; 0x23
    21e0:	2303      	movs	r3, #3
    21e2:	f7ff fca9 	bl	1b38 <USBHost::controlWrite(USBDeviceConnected*, unsigned char, unsigned char, unsigned long, unsigned long, unsigned char*, unsigned long)>
    21e6:	b004      	add	sp, #16
    21e8:	bd10      	pop	{r4, pc}
    21ea:	bf00      	nop

000021ec <USBHostHub::connect(USBDeviceConnected*)>:
    21ec:	e92d 43f0 	stmdb	sp!, {r4, r5, r6, r7, r8, r9, lr}
    21f0:	7b05      	ldrb	r5, [r0, #12]
    21f2:	b089      	sub	sp, #36	; 0x24
    21f4:	4604      	mov	r4, r0
    21f6:	460e      	mov	r6, r1
    21f8:	b11d      	cbz	r5, 2202 <USBHostHub::connect(USBDeviceConnected*)+0x16>
    21fa:	4628      	mov	r0, r5
    21fc:	b009      	add	sp, #36	; 0x24
    21fe:	e8bd 83f0 	ldmia.w	sp!, {r4, r5, r6, r7, r8, r9, pc}
    2202:	6840      	ldr	r0, [r0, #4]
    2204:	4622      	mov	r2, r4
    2206:	f7ff fea1 	bl	1f4c <USBHost::enumerate(USBDeviceConnected*, IUSBEnumerator*)>
    220a:	4607      	mov	r7, r0
    220c:	2800      	cmp	r0, #0
    220e:	f040 808a 	bne.w	2326 <USBHostHub::connect(USBDeviceConnected*)+0x13a>
    2212:	f894 8024 	ldrb.w	r8, [r4, #36]	; 0x24
    2216:	f1b8 0f00 	cmp.w	r8, #0
    221a:	d0ee      	beq.n	21fa <USBHostHub::connect(USBDeviceConnected*)+0xe>
    221c:	f894 1020 	ldrb.w	r1, [r4, #32]
    2220:	60a6      	str	r6, [r4, #8]
    2222:	4630      	mov	r0, r6
    2224:	9500      	str	r5, [sp, #0]
    2226:	2203      	movs	r2, #3
    2228:	2302      	movs	r3, #2
    222a:	f7fe fd47 	bl	cbc <USBDeviceConnected::getEndpoint(unsigned char, ENDPOINT_TYPE, ENDPOINT_DIRECTION, unsigned char)>
    222e:	6120      	str	r0, [r4, #16]
    2230:	2800      	cmp	r0, #0
    2232:	d078      	beq.n	2326 <USBHostHub::connect(USBDeviceConnected*)+0x13a>
    2234:	f8b6 1100 	ldrh.w	r1, [r6, #256]	; 0x100
    2238:	6a22      	ldr	r2, [r4, #32]
    223a:	f8b6 30fe 	ldrh.w	r3, [r6, #254]	; 0xfe
    223e:	4845      	ldr	r0, [pc, #276]	; (2354 <USBHostHub::connect(USBDeviceConnected*)+0x168>)
    2240:	e88d 0042 	stmia.w	sp, {r1, r6}
    2244:	9202      	str	r2, [sp, #8]
    2246:	4944      	ldr	r1, [pc, #272]	; (2358 <USBHostHub::connect(USBDeviceConnected*)+0x16c>)
    2248:	2267      	movs	r2, #103	; 0x67
    224a:	f006 ffed 	bl	9228 <iprintf>
    224e:	f894 3020 	ldrb.w	r3, [r4, #32]
    2252:	4a42      	ldr	r2, [pc, #264]	; (235c <USBHostHub::connect(USBDeviceConnected*)+0x170>)
    2254:	ebc3 1303 	rsb	r3, r3, r3, lsl #4
    2258:	6810      	ldr	r0, [r2, #0]
    225a:	eb06 0383 	add.w	r3, r6, r3, lsl #2
    225e:	6398      	str	r0, [r3, #56]	; 0x38
    2260:	6865      	ldr	r5, [r4, #4]
    2262:	4631      	mov	r1, r6
    2264:	4628      	mov	r0, r5
    2266:	f8d4 9020 	ldr.w	r9, [r4, #32]
    226a:	f7ff f953 	bl	1514 <USBHost::findDevice(USBDeviceConnected*)>
    226e:	1c43      	adds	r3, r0, #1
    2270:	d06b      	beq.n	234a <USBHostHub::connect(USBDeviceConnected*)+0x15e>
    2272:	b324      	cbz	r4, 22be <USBHostHub::connect(USBDeviceConnected*)+0xd2>
    2274:	eb05 0080 	add.w	r0, r5, r0, lsl #2
    2278:	fa5f f389 	uxtb.w	r3, r9
    227c:	4d38      	ldr	r5, [pc, #224]	; (2360 <USBHostHub::connect(USBDeviceConnected*)+0x174>)
    227e:	ebc3 1203 	rsb	r2, r3, r3, lsl #4
    2282:	4403      	add	r3, r0
    2284:	eb06 0282 	add.w	r2, r6, r2, lsl #2
    2288:	f503 5101 	add.w	r1, r3, #8256	; 0x2040
    228c:	2001      	movs	r0, #1
    228e:	9504      	str	r5, [sp, #16]
    2290:	9705      	str	r7, [sp, #20]
    2292:	ab04      	add	r3, sp, #16
    2294:	4d33      	ldr	r5, [pc, #204]	; (2364 <USBHostHub::connect(USBDeviceConnected*)+0x178>)
    2296:	f881 0029 	strb.w	r0, [r1, #41]	; 0x29
    229a:	cb03      	ldmia	r3!, {r0, r1}
    229c:	6250      	str	r0, [r2, #36]	; 0x24
    229e:	6291      	str	r1, [r2, #40]	; 0x28
    22a0:	6923      	ldr	r3, [r4, #16]
    22a2:	6214      	str	r4, [r2, #32]
    22a4:	6355      	str	r5, [r2, #52]	; 0x34
    22a6:	61d7      	str	r7, [r2, #28]
    22a8:	4a2f      	ldr	r2, [pc, #188]	; (2368 <USBHostHub::connect(USBDeviceConnected*)+0x17c>)
    22aa:	2100      	movs	r1, #0
    22ac:	9206      	str	r2, [sp, #24]
    22ae:	9107      	str	r1, [sp, #28]
    22b0:	aa06      	add	r2, sp, #24
    22b2:	6399      	str	r1, [r3, #56]	; 0x38
    22b4:	63dc      	str	r4, [r3, #60]	; 0x3c
    22b6:	ca03      	ldmia	r2!, {r0, r1}
    22b8:	651d      	str	r5, [r3, #80]	; 0x50
    22ba:	6418      	str	r0, [r3, #64]	; 0x40
    22bc:	6459      	str	r1, [r3, #68]	; 0x44
    22be:	f44f 5124 	mov.w	r1, #10496	; 0x2900
    22c2:	2200      	movs	r2, #0
    22c4:	230a      	movs	r3, #10
    22c6:	f104 0716 	add.w	r7, r4, #22
    22ca:	6860      	ldr	r0, [r4, #4]
    22cc:	e88d 0086 	stmia.w	sp, {r1, r2, r7}
    22d0:	9303      	str	r3, [sp, #12]
    22d2:	22a0      	movs	r2, #160	; 0xa0
    22d4:	2306      	movs	r3, #6
    22d6:	4631      	mov	r1, r6
    22d8:	f7ff fbc0 	bl	1a5c <USBHost::controlRead(USBDeviceConnected*, unsigned char, unsigned char, unsigned long, unsigned long, unsigned char*, unsigned long)>
    22dc:	7e23      	ldrb	r3, [r4, #24]
    22de:	7e62      	ldrb	r2, [r4, #25]
    22e0:	7523      	strb	r3, [r4, #20]
    22e2:	7562      	strb	r2, [r4, #21]
    22e4:	2501      	movs	r5, #1
    22e6:	b14b      	cbz	r3, 22fc <USBHostHub::connect(USBDeviceConnected*)+0x110>
    22e8:	462a      	mov	r2, r5
    22ea:	4620      	mov	r0, r4
    22ec:	2108      	movs	r1, #8
    22ee:	f7ff ff6b 	bl	21c8 <USBHostHub::setPortFeature(unsigned long, unsigned char)>
    22f2:	3501      	adds	r5, #1
    22f4:	7d22      	ldrb	r2, [r4, #20]
    22f6:	b2ed      	uxtb	r5, r5
    22f8:	42aa      	cmp	r2, r5
    22fa:	d2f5      	bcs.n	22e8 <USBHostHub::connect(USBDeviceConnected*)+0xfc>
    22fc:	7ee0      	ldrb	r0, [r4, #27]
    22fe:	f04f 0901 	mov.w	r9, #1
    2302:	fa00 f009 	lsl.w	r0, r0, r9
    2306:	2500      	movs	r5, #0
    2308:	f004 fe06 	bl	6f18 <wait_ms>
    230c:	6860      	ldr	r0, [r4, #4]
    230e:	6922      	ldr	r2, [r4, #16]
    2310:	4631      	mov	r1, r6
    2312:	9501      	str	r5, [sp, #4]
    2314:	463b      	mov	r3, r7
    2316:	f8cd 9000 	str.w	r9, [sp]
    231a:	f7ff fac9 	bl	18b0 <USBHost::interruptRead(USBDeviceConnected*, USBEndpoint*, unsigned char*, unsigned long, bool)>
    231e:	4645      	mov	r5, r8
    2320:	f884 900c 	strb.w	r9, [r4, #12]
    2324:	e769      	b.n	21fa <USBHostHub::connect(USBDeviceConnected*)+0xe>
    2326:	f04f 33ff 	mov.w	r3, #4294967295	; 0xffffffff
    232a:	4628      	mov	r0, r5
    232c:	7325      	strb	r5, [r4, #12]
    232e:	60a5      	str	r5, [r4, #8]
    2330:	6125      	str	r5, [r4, #16]
    2332:	f884 5024 	strb.w	r5, [r4, #36]	; 0x24
    2336:	7525      	strb	r5, [r4, #20]
    2338:	7565      	strb	r5, [r4, #21]
    233a:	62a5      	str	r5, [r4, #40]	; 0x28
    233c:	62e5      	str	r5, [r4, #44]	; 0x2c
    233e:	6325      	str	r5, [r4, #48]	; 0x30
    2340:	6365      	str	r5, [r4, #52]	; 0x34
    2342:	6223      	str	r3, [r4, #32]
    2344:	b009      	add	sp, #36	; 0x24
    2346:	e8bd 83f0 	ldmia.w	sp!, {r4, r5, r6, r7, r8, r9, pc}
    234a:	6923      	ldr	r3, [r4, #16]
    234c:	2c00      	cmp	r4, #0
    234e:	d0b6      	beq.n	22be <USBHostHub::connect(USBDeviceConnected*)+0xd2>
    2350:	4d04      	ldr	r5, [pc, #16]	; (2364 <USBHostHub::connect(USBDeviceConnected*)+0x178>)
    2352:	e7a9      	b.n	22a8 <USBHostHub::connect(USBDeviceConnected*)+0xbc>
    2354:	0000b5a0 	.word	0x0000b5a0
    2358:	0000b5e4 	.word	0x0000b5e4
    235c:	0000b624 	.word	0x0000b624
    2360:	000020b5 	.word	0x000020b5
    2364:	00002125 	.word	0x00002125
    2368:	000023b9 	.word	0x000023b9

0000236c <USBHostHub::clearPortFeature(unsigned long, unsigned char)>:
    236c:	b510      	push	{r4, lr}
    236e:	4603      	mov	r3, r0
    2370:	689c      	ldr	r4, [r3, #8]
    2372:	b084      	sub	sp, #16
    2374:	2300      	movs	r3, #0
    2376:	6840      	ldr	r0, [r0, #4]
    2378:	e88d 0006 	stmia.w	sp, {r1, r2}
    237c:	9302      	str	r3, [sp, #8]
    237e:	9303      	str	r3, [sp, #12]
    2380:	4621      	mov	r1, r4
    2382:	2223      	movs	r2, #35	; 0x23
    2384:	2301      	movs	r3, #1
    2386:	f7ff fbd7 	bl	1b38 <USBHost::controlWrite(USBDeviceConnected*, unsigned char, unsigned char, unsigned long, unsigned long, unsigned char*, unsigned long)>
    238a:	b004      	add	sp, #16
    238c:	bd10      	pop	{r4, pc}
    238e:	bf00      	nop

00002390 <USBHostHub::getPortStatus(unsigned char)>:
    2390:	b530      	push	{r4, r5, lr}
    2392:	4603      	mov	r3, r0
    2394:	b087      	sub	sp, #28
    2396:	689d      	ldr	r5, [r3, #8]
    2398:	ac05      	add	r4, sp, #20
    239a:	2300      	movs	r3, #0
    239c:	2204      	movs	r2, #4
    239e:	6840      	ldr	r0, [r0, #4]
    23a0:	9101      	str	r1, [sp, #4]
    23a2:	9203      	str	r2, [sp, #12]
    23a4:	4629      	mov	r1, r5
    23a6:	9300      	str	r3, [sp, #0]
    23a8:	9402      	str	r4, [sp, #8]
    23aa:	22a3      	movs	r2, #163	; 0xa3
    23ac:	f7ff fb56 	bl	1a5c <USBHost::controlRead(USBDeviceConnected*, unsigned char, unsigned char, unsigned long, unsigned long, unsigned char*, unsigned long)>
    23b0:	9805      	ldr	r0, [sp, #20]
    23b2:	b007      	add	sp, #28
    23b4:	bd30      	pop	{r4, r5, pc}
    23b6:	bf00      	nop

000023b8 <USBHostHub::rxHandler()>:
    23b8:	b5f0      	push	{r4, r5, r6, r7, lr}
    23ba:	6902      	ldr	r2, [r0, #16]
    23bc:	b083      	sub	sp, #12
    23be:	4604      	mov	r4, r0
    23c0:	b16a      	cbz	r2, 23de <USBHostHub::rxHandler()+0x26>
    23c2:	f892 3025 	ldrb.w	r3, [r2, #37]	; 0x25
    23c6:	2b10      	cmp	r3, #16
    23c8:	d00b      	beq.n	23e2 <USBHostHub::rxHandler()+0x2a>
    23ca:	2601      	movs	r6, #1
    23cc:	2500      	movs	r5, #0
    23ce:	6860      	ldr	r0, [r4, #4]
    23d0:	68a1      	ldr	r1, [r4, #8]
    23d2:	f104 0316 	add.w	r3, r4, #22
    23d6:	9600      	str	r6, [sp, #0]
    23d8:	9501      	str	r5, [sp, #4]
    23da:	f7ff fa69 	bl	18b0 <USBHost::interruptRead(USBDeviceConnected*, USBEndpoint*, unsigned char*, unsigned long, bool)>
    23de:	b003      	add	sp, #12
    23e0:	bdf0      	pop	{r4, r5, r6, r7, pc}
    23e2:	7d03      	ldrb	r3, [r0, #20]
    23e4:	2b00      	cmp	r3, #0
    23e6:	d0f0      	beq.n	23ca <USBHostHub::rxHandler()+0x12>
    23e8:	2601      	movs	r6, #1
    23ea:	e007      	b.n	23fc <USBHostHub::rxHandler()+0x44>
    23ec:	03aa      	lsls	r2, r5, #14
    23ee:	d42b      	bmi.n	2448 <USBHostHub::rxHandler()+0x90>
    23f0:	072b      	lsls	r3, r5, #28
    23f2:	d430      	bmi.n	2456 <USBHostHub::rxHandler()+0x9e>
    23f4:	7d23      	ldrb	r3, [r4, #20]
    23f6:	3601      	adds	r6, #1
    23f8:	42b3      	cmp	r3, r6
    23fa:	db46      	blt.n	248a <USBHostHub::rxHandler()+0xd2>
    23fc:	b2f7      	uxtb	r7, r6
    23fe:	4639      	mov	r1, r7
    2400:	4620      	mov	r0, r4
    2402:	f7ff ffc5 	bl	2390 <USBHostHub::getPortStatus(unsigned char)>
    2406:	4605      	mov	r5, r0
    2408:	03e8      	lsls	r0, r5, #15
    240a:	d514      	bpl.n	2436 <USBHostHub::rxHandler()+0x7e>
    240c:	f015 0301 	ands.w	r3, r5, #1
    2410:	6860      	ldr	r0, [r4, #4]
    2412:	d03c      	beq.n	248e <USBHostHub::rxHandler()+0xd6>
    2414:	68a3      	ldr	r3, [r4, #8]
    2416:	6802      	ldr	r2, [r0, #0]
    2418:	f893 10fc 	ldrb.w	r1, [r3, #252]	; 0xfc
    241c:	9400      	str	r4, [sp, #0]
    241e:	f8d2 c000 	ldr.w	r12, [r2]
    2422:	3101      	adds	r1, #1
    2424:	4632      	mov	r2, r6
    2426:	f3c5 2340 	ubfx	r3, r5, #9, #1
    242a:	47e0      	blx	r12
    242c:	4620      	mov	r0, r4
    242e:	2110      	movs	r1, #16
    2430:	463a      	mov	r2, r7
    2432:	f7ff ff9b 	bl	236c <USBHostHub::clearPortFeature(unsigned long, unsigned char)>
    2436:	02e9      	lsls	r1, r5, #11
    2438:	d5d8      	bpl.n	23ec <USBHostHub::rxHandler()+0x34>
    243a:	463a      	mov	r2, r7
    243c:	4620      	mov	r0, r4
    243e:	2114      	movs	r1, #20
    2440:	f7ff ff94 	bl	236c <USBHostHub::clearPortFeature(unsigned long, unsigned char)>
    2444:	03aa      	lsls	r2, r5, #14
    2446:	d5d3      	bpl.n	23f0 <USBHostHub::rxHandler()+0x38>
    2448:	4620      	mov	r0, r4
    244a:	2111      	movs	r1, #17
    244c:	463a      	mov	r2, r7
    244e:	f7ff ff8d 	bl	236c <USBHostHub::clearPortFeature(unsigned long, unsigned char)>
    2452:	072b      	lsls	r3, r5, #28
    2454:	d5ce      	bpl.n	23f4 <USBHostHub::rxHandler()+0x3c>
    2456:	4914      	ldr	r1, [pc, #80]	; (24a8 <USBHostHub::rxHandler()+0xf0>)
    2458:	22d2      	movs	r2, #210	; 0xd2
    245a:	4814      	ldr	r0, [pc, #80]	; (24ac <USBHostHub::rxHandler()+0xf4>)
    245c:	f006 fee4 	bl	9228 <iprintf>
    2460:	4620      	mov	r0, r4
    2462:	463a      	mov	r2, r7
    2464:	2108      	movs	r1, #8
    2466:	f7ff ff81 	bl	236c <USBHostHub::clearPortFeature(unsigned long, unsigned char)>
    246a:	68a3      	ldr	r3, [r4, #8]
    246c:	6860      	ldr	r0, [r4, #4]
    246e:	f893 10fc 	ldrb.w	r1, [r3, #252]	; 0xfc
    2472:	6802      	ldr	r2, [r0, #0]
    2474:	2300      	movs	r3, #0
    2476:	9300      	str	r3, [sp, #0]
    2478:	6855      	ldr	r5, [r2, #4]
    247a:	4623      	mov	r3, r4
    247c:	4632      	mov	r2, r6
    247e:	3101      	adds	r1, #1
    2480:	47a8      	blx	r5
    2482:	7d23      	ldrb	r3, [r4, #20]
    2484:	3601      	adds	r6, #1
    2486:	42b3      	cmp	r3, r6
    2488:	dab8      	bge.n	23fc <USBHostHub::rxHandler()+0x44>
    248a:	6922      	ldr	r2, [r4, #16]
    248c:	e79d      	b.n	23ca <USBHostHub::rxHandler()+0x12>
    248e:	68a1      	ldr	r1, [r4, #8]
    2490:	6802      	ldr	r2, [r0, #0]
    2492:	f891 10fc 	ldrb.w	r1, [r1, #252]	; 0xfc
    2496:	9300      	str	r3, [sp, #0]
    2498:	f8d2 c004 	ldr.w	r12, [r2, #4]
    249c:	3101      	adds	r1, #1
    249e:	4632      	mov	r2, r6
    24a0:	4623      	mov	r3, r4
    24a2:	47e0      	blx	r12
    24a4:	e7c2      	b.n	242c <USBHostHub::rxHandler()+0x74>
    24a6:	bf00      	nop
    24a8:	0000b5e4 	.word	0x0000b5e4
    24ac:	0000b628 	.word	0x0000b628

000024b0 <USBHostHub::portReset(unsigned char)>:
    24b0:	b5f0      	push	{r4, r5, r6, r7, lr}
    24b2:	460a      	mov	r2, r1
    24b4:	460c      	mov	r4, r1
    24b6:	b083      	sub	sp, #12
    24b8:	2104      	movs	r1, #4
    24ba:	4605      	mov	r5, r0
    24bc:	f7ff fe84 	bl	21c8 <USBHostHub::setPortFeature(unsigned long, unsigned char)>
    24c0:	e004      	b.n	24cc <USBHostHub::portReset(unsigned char)+0x1c>
    24c2:	0703      	lsls	r3, r0, #28
    24c4:	d40b      	bmi.n	24de <USBHostHub::portReset(unsigned char)+0x2e>
    24c6:	200a      	movs	r0, #10
    24c8:	f004 fafc 	bl	6ac4 <rtos::Thread::wait(unsigned long)>
    24cc:	4628      	mov	r0, r5
    24ce:	4621      	mov	r1, r4
    24d0:	f7ff ff5e 	bl	2390 <USBHostHub::getPortStatus(unsigned char)>
    24d4:	f010 0612 	ands.w	r6, r0, #18
    24d8:	d0f3      	beq.n	24c2 <USBHostHub::portReset(unsigned char)+0x12>
    24da:	b003      	add	sp, #12
    24dc:	bdf0      	pop	{r4, r5, r6, r7, pc}
    24de:	490b      	ldr	r1, [pc, #44]	; (250c <USBHostHub::portReset(unsigned char)+0x5c>)
    24e0:	22e6      	movs	r2, #230	; 0xe6
    24e2:	480b      	ldr	r0, [pc, #44]	; (2510 <USBHostHub::portReset(unsigned char)+0x60>)
    24e4:	f006 fea0 	bl	9228 <iprintf>
    24e8:	4628      	mov	r0, r5
    24ea:	4622      	mov	r2, r4
    24ec:	2108      	movs	r1, #8
    24ee:	f7ff ff3d 	bl	236c <USBHostHub::clearPortFeature(unsigned long, unsigned char)>
    24f2:	68ab      	ldr	r3, [r5, #8]
    24f4:	6868      	ldr	r0, [r5, #4]
    24f6:	f893 10fc 	ldrb.w	r1, [r3, #252]	; 0xfc
    24fa:	6807      	ldr	r7, [r0, #0]
    24fc:	9600      	str	r6, [sp, #0]
    24fe:	4622      	mov	r2, r4
    2500:	3101      	adds	r1, #1
    2502:	687c      	ldr	r4, [r7, #4]
    2504:	462b      	mov	r3, r5
    2506:	47a0      	blx	r4
    2508:	b003      	add	sp, #12
    250a:	bdf0      	pop	{r4, r5, r6, r7, pc}
    250c:	0000b5e4 	.word	0x0000b5e4
    2510:	0000b628 	.word	0x0000b628

00002514 <USBEndpoint::init(hcEd*, ENDPOINT_TYPE, ENDPOINT_DIRECTION, unsigned long, unsigned char, HCTD**)>:
    2514:	e92d 43f8 	stmdb	sp!, {r3, r4, r5, r6, r7, r8, r9, lr}
    2518:	4604      	mov	r4, r0
    251a:	f1d2 0001 	rsbs	r0, r2, #1
    251e:	9e0a      	ldr	r6, [sp, #40]	; 0x28
    2520:	bf38      	it	cc
    2522:	2000      	movcc	r0, #0
    2524:	65a1      	str	r1, [r4, #88]	; 0x58
    2526:	f884 0027 	strb.w	r0, [r4, #39]	; 0x27
    252a:	f884 2024 	strb.w	r2, [r4, #36]	; 0x24
    252e:	f884 3026 	strb.w	r3, [r4, #38]	; 0x26
    2532:	6873      	ldr	r3, [r6, #4]
    2534:	6832      	ldr	r2, [r6, #0]
    2536:	6623      	str	r3, [r4, #96]	; 0x60
    2538:	65e2      	str	r2, [r4, #92]	; 0x5c
    253a:	6830      	ldr	r0, [r6, #0]
    253c:	2100      	movs	r1, #0
    253e:	2220      	movs	r2, #32
    2540:	f89d 8024 	ldrb.w	r8, [sp, #36]	; 0x24
    2544:	f006 f961 	bl	880a <memset>
    2548:	6870      	ldr	r0, [r6, #4]
    254a:	2100      	movs	r1, #0
    254c:	2220      	movs	r2, #32
    254e:	f006 f95c 	bl	880a <memset>
    2552:	6de1      	ldr	r1, [r4, #92]	; 0x5c
    2554:	6e20      	ldr	r0, [r4, #96]	; 0x60
    2556:	690b      	ldr	r3, [r1, #16]
    2558:	6da3      	ldr	r3, [r4, #88]	; 0x58
    255a:	610c      	str	r4, [r1, #16]
    255c:	6902      	ldr	r2, [r0, #16]
    255e:	f894 7026 	ldrb.w	r7, [r4, #38]	; 0x26
    2562:	6104      	str	r4, [r0, #16]
    2564:	2200      	movs	r2, #0
    2566:	681e      	ldr	r6, [r3, #0]
    2568:	601a      	str	r2, [r3, #0]
    256a:	685d      	ldr	r5, [r3, #4]
    256c:	f008 067f 	and.w	r6, r8, #127	; 0x7f
    2570:	6059      	str	r1, [r3, #4]
    2572:	f894 5024 	ldrb.w	r5, [r4, #36]	; 0x24
    2576:	f107 38ff 	add.w	r8, r7, #4294967295	; 0xffffffff
    257a:	f8d3 9008 	ldr.w	r9, [r3, #8]
    257e:	ea46 18c8 	orr.w	r8, r6, r8, lsl #7
    2582:	6099      	str	r1, [r3, #8]
    2584:	f8d3 900c 	ldr.w	r9, [r3, #12]
    2588:	01f6      	lsls	r6, r6, #7
    258a:	60da      	str	r2, [r3, #12]
    258c:	f884 8028 	strb.w	r8, [r4, #40]	; 0x28
    2590:	b1cd      	cbz	r5, 25c6 <USBEndpoint::init(hcEd*, ENDPOINT_TYPE, ENDPOINT_DIRECTION, unsigned long, unsigned char, HCTD**)+0xb2>
    2592:	ea4f 2cc7 	mov.w	r12, r7, lsl #11
    2596:	9a08      	ldr	r2, [sp, #32]
    2598:	ea4c 0c06 	orr.w	r12, r12, r6
    259c:	f3c2 0509 	ubfx	r5, r2, #0, #10
    25a0:	ea4c 4505 	orr.w	r5, r12, r5, lsl #16
    25a4:	2200      	movs	r2, #0
    25a6:	681e      	ldr	r6, [r3, #0]
    25a8:	f04f 0810 	mov.w	r8, #16
    25ac:	601d      	str	r5, [r3, #0]
    25ae:	f884 206c 	strb.w	r2, [r4, #108]	; 0x6c
    25b2:	6661      	str	r1, [r4, #100]	; 0x64
    25b4:	66a0      	str	r0, [r4, #104]	; 0x68
    25b6:	62e2      	str	r2, [r4, #44]	; 0x2c
    25b8:	6322      	str	r2, [r4, #48]	; 0x30
    25ba:	6362      	str	r2, [r4, #52]	; 0x34
    25bc:	6562      	str	r2, [r4, #84]	; 0x54
    25be:	f884 8025 	strb.w	r8, [r4, #37]	; 0x25
    25c2:	e8bd 83f8 	ldmia.w	sp!, {r3, r4, r5, r6, r7, r8, r9, pc}
    25c6:	46ac      	mov	r12, r5
    25c8:	e7e5      	b.n	2596 <USBEndpoint::init(hcEd*, ENDPOINT_TYPE, ENDPOINT_DIRECTION, unsigned long, unsigned char, HCTD**)+0x82>
    25ca:	bf00      	nop

000025cc <USBEndpoint::setSize(unsigned long)>:
    25cc:	6d83      	ldr	r3, [r0, #88]	; 0x58
    25ce:	681a      	ldr	r2, [r3, #0]
    25d0:	6818      	ldr	r0, [r3, #0]
    25d2:	f022 727f 	bic.w	r2, r2, #66846720	; 0x3fc0000
    25d6:	f422 3240 	bic.w	r2, r2, #196608	; 0x30000
    25da:	601a      	str	r2, [r3, #0]
    25dc:	681a      	ldr	r2, [r3, #0]
    25de:	6818      	ldr	r0, [r3, #0]
    25e0:	ea42 4101 	orr.w	r1, r2, r1, lsl #16
    25e4:	6019      	str	r1, [r3, #0]
    25e6:	4770      	bx	lr

000025e8 <USBEndpoint::setDeviceAddress(unsigned char)>:
    25e8:	6d83      	ldr	r3, [r0, #88]	; 0x58
    25ea:	f001 017f 	and.w	r1, r1, #127	; 0x7f
    25ee:	681a      	ldr	r2, [r3, #0]
    25f0:	6818      	ldr	r0, [r3, #0]
    25f2:	f022 027f 	bic.w	r2, r2, #127	; 0x7f
    25f6:	601a      	str	r2, [r3, #0]
    25f8:	681a      	ldr	r2, [r3, #0]
    25fa:	6818      	ldr	r0, [r3, #0]
    25fc:	4311      	orrs	r1, r2
    25fe:	6019      	str	r1, [r3, #0]
    2600:	4770      	bx	lr
    2602:	bf00      	nop

00002604 <USBEndpoint::setSpeed(unsigned char)>:
    2604:	6d83      	ldr	r3, [r0, #88]	; 0x58
    2606:	681a      	ldr	r2, [r3, #0]
    2608:	6818      	ldr	r0, [r3, #0]
    260a:	f422 5200 	bic.w	r2, r2, #8192	; 0x2000
    260e:	601a      	str	r2, [r3, #0]
    2610:	681a      	ldr	r2, [r3, #0]
    2612:	6818      	ldr	r0, [r3, #0]
    2614:	ea42 3141 	orr.w	r1, r2, r1, lsl #13
    2618:	6019      	str	r1, [r3, #0]
    261a:	4770      	bx	lr

0000261c <USBEndpoint::setNextToken(unsigned long)>:
    261c:	f5b1 2f00 	cmp.w	r1, #524288	; 0x80000
    2620:	d011      	beq.n	2646 <USBEndpoint::setNextToken(unsigned long)+0x2a>
    2622:	f5b1 1f80 	cmp.w	r1, #1048576	; 0x100000
    2626:	d007      	beq.n	2638 <USBEndpoint::setNextToken(unsigned long)+0x1c>
    2628:	b101      	cbz	r1, 262c <USBEndpoint::setNextToken(unsigned long)+0x10>
    262a:	4770      	bx	lr
    262c:	2301      	movs	r3, #1
    262e:	f880 3026 	strb.w	r3, [r0, #38]	; 0x26
    2632:	f880 3027 	strb.w	r3, [r0, #39]	; 0x27
    2636:	4770      	bx	lr
    2638:	2202      	movs	r2, #2
    263a:	2300      	movs	r3, #0
    263c:	f880 2026 	strb.w	r2, [r0, #38]	; 0x26
    2640:	f880 3027 	strb.w	r3, [r0, #39]	; 0x27
    2644:	4770      	bx	lr
    2646:	2201      	movs	r2, #1
    2648:	2300      	movs	r3, #0
    264a:	f880 2026 	strb.w	r2, [r0, #38]	; 0x26
    264e:	f880 3027 	strb.w	r3, [r0, #39]	; 0x27
    2652:	4770      	bx	lr

00002654 <USBEndpoint::setState(unsigned char)>:
    2654:	2912      	cmp	r1, #18
    2656:	d804      	bhi.n	2662 <USBEndpoint::setState(unsigned char)+0xe>
    2658:	4b02      	ldr	r3, [pc, #8]	; (2664 <USBEndpoint::setState(unsigned char)+0x10>)
    265a:	f813 3031 	ldrb.w	r3, [r3, r1, lsl #3]
    265e:	f880 3025 	strb.w	r3, [r0, #37]	; 0x25
    2662:	4770      	bx	lr
    2664:	0000b810 	.word	0x0000b810

00002668 <USBEndpoint::getStateString()>:
    2668:	f890 2025 	ldrb.w	r2, [r0, #37]	; 0x25
    266c:	4b02      	ldr	r3, [pc, #8]	; (2678 <USBEndpoint::getStateString()+0x10>)
    266e:	eb03 03c2 	add.w	r3, r3, r2, lsl #3
    2672:	6858      	ldr	r0, [r3, #4]
    2674:	4770      	bx	lr
    2676:	bf00      	nop
    2678:	0000b810 	.word	0x0000b810

0000267c <USBEndpoint::queueTransfer()>:
    267c:	b430      	push	{r4, r5}
    267e:	6e43      	ldr	r3, [r0, #100]	; 0x64
    2680:	2511      	movs	r5, #17
    2682:	68da      	ldr	r2, [r3, #12]
    2684:	6859      	ldr	r1, [r3, #4]
    2686:	3201      	adds	r2, #1
    2688:	1a52      	subs	r2, r2, r1
    268a:	62c2      	str	r2, [r0, #44]	; 0x2c
    268c:	6302      	str	r2, [r0, #48]	; 0x30
    268e:	685c      	ldr	r4, [r3, #4]
    2690:	6e81      	ldr	r1, [r0, #104]	; 0x68
    2692:	f880 5025 	strb.w	r5, [r0, #37]	; 0x25
    2696:	6d82      	ldr	r2, [r0, #88]	; 0x58
    2698:	6344      	str	r4, [r0, #52]	; 0x34
    269a:	6898      	ldr	r0, [r3, #8]
    269c:	6099      	str	r1, [r3, #8]
    269e:	6853      	ldr	r3, [r2, #4]
    26a0:	bc30      	pop	{r4, r5}
    26a2:	6051      	str	r1, [r2, #4]
    26a4:	4770      	bx	lr
    26a6:	bf00      	nop

000026a8 <USBEndpoint::unqueueTransfer(HCTD volatile*)>:
    26a8:	b430      	push	{r4, r5}
    26aa:	2300      	movs	r3, #0
    26ac:	680a      	ldr	r2, [r1, #0]
    26ae:	600b      	str	r3, [r1, #0]
    26b0:	684a      	ldr	r2, [r1, #4]
    26b2:	604b      	str	r3, [r1, #4]
    26b4:	68ca      	ldr	r2, [r1, #12]
    26b6:	6d82      	ldr	r2, [r0, #88]	; 0x58
    26b8:	60cb      	str	r3, [r1, #12]
    26ba:	688c      	ldr	r4, [r1, #8]
    26bc:	608b      	str	r3, [r1, #8]
    26be:	6855      	ldr	r5, [r2, #4]
    26c0:	6894      	ldr	r4, [r2, #8]
    26c2:	6e83      	ldr	r3, [r0, #104]	; 0x68
    26c4:	f004 0402 	and.w	r4, r4, #2
    26c8:	432c      	orrs	r4, r5
    26ca:	6895      	ldr	r5, [r2, #8]
    26cc:	6094      	str	r4, [r2, #8]
    26ce:	6643      	str	r3, [r0, #100]	; 0x64
    26d0:	6681      	str	r1, [r0, #104]	; 0x68
    26d2:	bc30      	pop	{r4, r5}
    26d4:	4770      	bx	lr
    26d6:	bf00      	nop

000026d8 <USBEndpoint::queueEndpoint(USBEndpoint*)>:
    26d8:	6541      	str	r1, [r0, #84]	; 0x54
    26da:	6d83      	ldr	r3, [r0, #88]	; 0x58
    26dc:	b101      	cbz	r1, 26e0 <USBEndpoint::queueEndpoint(USBEndpoint*)+0x8>
    26de:	6d89      	ldr	r1, [r1, #88]	; 0x58
    26e0:	68da      	ldr	r2, [r3, #12]
    26e2:	60d9      	str	r1, [r3, #12]
    26e4:	4770      	bx	lr
    26e6:	bf00      	nop

000026e8 <USBHALHost::USBHALHost()>:
    26e8:	b538      	push	{r3, r4, r5, lr}
    26ea:	4b12      	ldr	r3, [pc, #72]	; (2734 <USBHALHost::USBHALHost()+0x4c>)
    26ec:	4a12      	ldr	r2, [pc, #72]	; (2738 <USBHALHost::USBHALHost()+0x50>)
    26ee:	4604      	mov	r4, r0
    26f0:	f503 6198 	add.w	r1, r3, #1216	; 0x4c0
    26f4:	f503 7080 	add.w	r0, r3, #256	; 0x100
    26f8:	4d10      	ldr	r5, [pc, #64]	; (273c <USBHALHost::USBHALHost()+0x54>)
    26fa:	e884 000c 	stmia.w	r4, {r2, r3}
    26fe:	60a0      	str	r0, [r4, #8]
    2700:	60e1      	str	r1, [r4, #12]
    2702:	4618      	mov	r0, r3
    2704:	2100      	movs	r1, #0
    2706:	f44f 7280 	mov.w	r2, #256	; 0x100
    270a:	602c      	str	r4, [r5, #0]
    270c:	f006 f87d 	bl	880a <memset>
    2710:	2300      	movs	r3, #0
    2712:	4619      	mov	r1, r3
    2714:	18e2      	adds	r2, r4, r3
    2716:	3301      	adds	r3, #1
    2718:	2b3c      	cmp	r3, #60	; 0x3c
    271a:	7411      	strb	r1, [r2, #16]
    271c:	d1fa      	bne.n	2714 <USBHALHost::USBHALHost()+0x2c>
    271e:	2300      	movs	r3, #0
    2720:	4619      	mov	r1, r3
    2722:	18e2      	adds	r2, r4, r3
    2724:	3301      	adds	r3, #1
    2726:	2b78      	cmp	r3, #120	; 0x78
    2728:	f882 104c 	strb.w	r1, [r2, #76]	; 0x4c
    272c:	d1f9      	bne.n	2722 <USBHALHost::USBHALHost()+0x3a>
    272e:	4620      	mov	r0, r4
    2730:	bd38      	pop	{r3, r4, r5, pc}
    2732:	bf00      	nop
    2734:	20080000 	.word	0x20080000
    2738:	0000b8b0 	.word	0x0000b8b0
    273c:	10000244 	.word	0x10000244

00002740 <USBHALHost::init()>:
    2740:	4b3e      	ldr	r3, [pc, #248]	; (283c <USBHALHost::init()+0xfc>)
    2742:	e92d 41f0 	stmdb	sp!, {r4, r5, r6, r7, r8, lr}
    2746:	f04f 7280 	mov.w	r2, #16777216	; 0x1000000
    274a:	4c3d      	ldr	r4, [pc, #244]	; (2840 <USBHALHost::init()+0x100>)
    274c:	f8c3 2080 	str.w	r2, [r3, #128]	; 0x80
    2750:	f8d4 30c4 	ldr.w	r3, [r4, #196]	; 0xc4
    2754:	b082      	sub	sp, #8
    2756:	f023 4300 	bic.w	r3, r3, #2147483648	; 0x80000000
    275a:	f8c4 30c4 	str.w	r3, [r4, #196]	; 0xc4
    275e:	4606      	mov	r6, r0
    2760:	2064      	movs	r0, #100	; 0x64
    2762:	f004 fbd9 	bl	6f18 <wait_ms>
    2766:	f8d4 20c4 	ldr.w	r2, [r4, #196]	; 0xc4
    276a:	4b36      	ldr	r3, [pc, #216]	; (2844 <USBHALHost::init()+0x104>)
    276c:	f042 4200 	orr.w	r2, r2, #2147483648	; 0x80000000
    2770:	f8c4 20c4 	str.w	r2, [r4, #196]	; 0xc4
    2774:	f8d3 1ff4 	ldr.w	r1, [r3, #4084]	; 0xff4
    2778:	461a      	mov	r2, r3
    277a:	f041 0119 	orr.w	r1, r1, #25
    277e:	f8c3 1ff4 	str.w	r1, [r3, #4084]	; 0xff4
    2782:	f8d2 3ff8 	ldr.w	r3, [r2, #4088]	; 0xff8
    2786:	4c2f      	ldr	r4, [pc, #188]	; (2844 <USBHALHost::init()+0x104>)
    2788:	f003 0319 	and.w	r3, r3, #25
    278c:	2b19      	cmp	r3, #25
    278e:	d1f8      	bne.n	2782 <USBHALHost::init()+0x42>
    2790:	f8d4 2110 	ldr.w	r2, [r4, #272]	; 0x110
    2794:	4b2c      	ldr	r3, [pc, #176]	; (2848 <USBHALHost::init()+0x108>)
    2796:	f042 0201 	orr.w	r2, r2, #1
    279a:	f8c4 2110 	str.w	r2, [r4, #272]	; 0x110
    279e:	f8d4 2ff4 	ldr.w	r2, [r4, #4084]	; 0xff4
    27a2:	2500      	movs	r5, #0
    27a4:	f022 0208 	bic.w	r2, r2, #8
    27a8:	f8c4 2ff4 	str.w	r2, [r4, #4084]	; 0xff4
    27ac:	685a      	ldr	r2, [r3, #4]
    27ae:	2064      	movs	r0, #100	; 0x64
    27b0:	f022 5270 	bic.w	r2, r2, #1006632960	; 0x3c000000
    27b4:	605a      	str	r2, [r3, #4]
    27b6:	685a      	ldr	r2, [r3, #4]
    27b8:	f04f 0801 	mov.w	r8, #1
    27bc:	f042 52a0 	orr.w	r2, r2, #335544320	; 0x14000000
    27c0:	605a      	str	r2, [r3, #4]
    27c2:	6065      	str	r5, [r4, #4]
    27c4:	6225      	str	r5, [r4, #32]
    27c6:	62a5      	str	r5, [r4, #40]	; 0x28
    27c8:	f004 fba6 	bl	6f18 <wait_ms>
    27cc:	4a1f      	ldr	r2, [pc, #124]	; (284c <USBHALHost::init()+0x10c>)
    27ce:	f642 232f 	movw	r3, #10799	; 0x2a2f
    27d2:	f8c4 8008 	str.w	r8, [r4, #8]
    27d6:	6362      	str	r2, [r4, #52]	; 0x34
    27d8:	6423      	str	r3, [r4, #64]	; 0x40
    27da:	6862      	ldr	r2, [r4, #4]
    27dc:	6873      	ldr	r3, [r6, #4]
    27de:	f022 02c0 	bic.w	r2, r2, #192	; 0xc0
    27e2:	f042 0280 	orr.w	r2, r2, #128	; 0x80
    27e6:	f44f 3780 	mov.w	r7, #65536	; 0x10000
    27ea:	6062      	str	r2, [r4, #4]
    27ec:	6527      	str	r7, [r4, #80]	; 0x50
    27ee:	61a3      	str	r3, [r4, #24]
    27f0:	68e2      	ldr	r2, [r4, #12]
    27f2:	68e1      	ldr	r1, [r4, #12]
    27f4:	4b16      	ldr	r3, [pc, #88]	; (2850 <USBHALHost::init()+0x110>)
    27f6:	430a      	orrs	r2, r1
    27f8:	60e2      	str	r2, [r4, #12]
    27fa:	4916      	ldr	r1, [pc, #88]	; (2854 <USBHALHost::init()+0x114>)
    27fc:	6123      	str	r3, [r4, #16]
    27fe:	2018      	movs	r0, #24
    2800:	f004 fa90 	bl	6d24 <NVIC_SetVector>
    2804:	4b0d      	ldr	r3, [pc, #52]	; (283c <USBHALHost::init()+0xfc>)
    2806:	f44f 1180 	mov.w	r1, #1048576	; 0x100000
    280a:	f04f 7280 	mov.w	r2, #16777216	; 0x1000000
    280e:	6567      	str	r7, [r4, #84]	; 0x54
    2810:	6561      	str	r1, [r4, #84]	; 0x54
    2812:	601a      	str	r2, [r3, #0]
    2814:	6d63      	ldr	r3, [r4, #84]	; 0x54
    2816:	07db      	lsls	r3, r3, #31
    2818:	d50c      	bpl.n	2834 <USBHALHost::init()+0xf4>
    281a:	2096      	movs	r0, #150	; 0x96
    281c:	f004 fb7c 	bl	6f18 <wait_ms>
    2820:	6d63      	ldr	r3, [r4, #84]	; 0x54
    2822:	6830      	ldr	r0, [r6, #0]
    2824:	9500      	str	r5, [sp, #0]
    2826:	6804      	ldr	r4, [r0, #0]
    2828:	f3c3 2340 	ubfx	r3, r3, #9, #1
    282c:	4629      	mov	r1, r5
    282e:	4642      	mov	r2, r8
    2830:	4630      	mov	r0, r6
    2832:	47a0      	blx	r4
    2834:	b002      	add	sp, #8
    2836:	e8bd 81f0 	ldmia.w	sp!, {r4, r5, r6, r7, r8, pc}
    283a:	bf00      	nop
    283c:	e000e100 	.word	0xe000e100
    2840:	400fc000 	.word	0x400fc000
    2844:	5000c000 	.word	0x5000c000
    2848:	4002c000 	.word	0x4002c000
    284c:	27782edf 	.word	0x27782edf
    2850:	80000042 	.word	0x80000042
    2854:	00002acd 	.word	0x00002acd

00002858 <USBHALHost::controlHeadED()>:
    2858:	4b01      	ldr	r3, [pc, #4]	; (2860 <USBHALHost::controlHeadED()+0x8>)
    285a:	6a18      	ldr	r0, [r3, #32]
    285c:	4770      	bx	lr
    285e:	bf00      	nop
    2860:	5000c000 	.word	0x5000c000

00002864 <USBHALHost::bulkHeadED()>:
    2864:	4b01      	ldr	r3, [pc, #4]	; (286c <USBHALHost::bulkHeadED()+0x8>)
    2866:	6a98      	ldr	r0, [r3, #40]	; 0x28
    2868:	4770      	bx	lr
    286a:	bf00      	nop
    286c:	5000c000 	.word	0x5000c000

00002870 <USBHALHost::interruptHeadED()>:
    2870:	6843      	ldr	r3, [r0, #4]
    2872:	6818      	ldr	r0, [r3, #0]
    2874:	4770      	bx	lr
    2876:	bf00      	nop

00002878 <USBHALHost::updateBulkHeadED(unsigned long)>:
    2878:	4b01      	ldr	r3, [pc, #4]	; (2880 <USBHALHost::updateBulkHeadED(unsigned long)+0x8>)
    287a:	6299      	str	r1, [r3, #40]	; 0x28
    287c:	4770      	bx	lr
    287e:	bf00      	nop
    2880:	5000c000 	.word	0x5000c000

00002884 <USBHALHost::updateControlHeadED(unsigned long)>:
    2884:	4b01      	ldr	r3, [pc, #4]	; (288c <USBHALHost::updateControlHeadED(unsigned long)+0x8>)
    2886:	6219      	str	r1, [r3, #32]
    2888:	4770      	bx	lr
    288a:	bf00      	nop
    288c:	5000c000 	.word	0x5000c000

00002890 <USBHALHost::updateInterruptHeadED(unsigned long)>:
    2890:	6843      	ldr	r3, [r0, #4]
    2892:	681a      	ldr	r2, [r3, #0]
    2894:	6019      	str	r1, [r3, #0]
    2896:	4770      	bx	lr

00002898 <USBHALHost::enableList(ENDPOINT_TYPE)>:
    2898:	2902      	cmp	r1, #2
    289a:	d011      	beq.n	28c0 <USBHALHost::enableList(ENDPOINT_TYPE)+0x28>
    289c:	2903      	cmp	r1, #3
    289e:	d009      	beq.n	28b4 <USBHALHost::enableList(ENDPOINT_TYPE)+0x1c>
    28a0:	b101      	cbz	r1, 28a4 <USBHALHost::enableList(ENDPOINT_TYPE)+0xc>
    28a2:	4770      	bx	lr
    28a4:	4b0a      	ldr	r3, [pc, #40]	; (28d0 <USBHALHost::enableList(ENDPOINT_TYPE)+0x38>)
    28a6:	2202      	movs	r2, #2
    28a8:	609a      	str	r2, [r3, #8]
    28aa:	685a      	ldr	r2, [r3, #4]
    28ac:	f042 0210 	orr.w	r2, r2, #16
    28b0:	605a      	str	r2, [r3, #4]
    28b2:	4770      	bx	lr
    28b4:	4b06      	ldr	r3, [pc, #24]	; (28d0 <USBHALHost::enableList(ENDPOINT_TYPE)+0x38>)
    28b6:	685a      	ldr	r2, [r3, #4]
    28b8:	f042 0204 	orr.w	r2, r2, #4
    28bc:	605a      	str	r2, [r3, #4]
    28be:	4770      	bx	lr
    28c0:	4b03      	ldr	r3, [pc, #12]	; (28d0 <USBHALHost::enableList(ENDPOINT_TYPE)+0x38>)
    28c2:	2204      	movs	r2, #4
    28c4:	609a      	str	r2, [r3, #8]
    28c6:	685a      	ldr	r2, [r3, #4]
    28c8:	f042 0220 	orr.w	r2, r2, #32
    28cc:	605a      	str	r2, [r3, #4]
    28ce:	4770      	bx	lr
    28d0:	5000c000 	.word	0x5000c000

000028d4 <USBHALHost::disableList(ENDPOINT_TYPE)>:
    28d4:	2902      	cmp	r1, #2
    28d6:	d01a      	beq.n	290e <USBHALHost::disableList(ENDPOINT_TYPE)+0x3a>
    28d8:	2903      	cmp	r1, #3
    28da:	d00d      	beq.n	28f8 <USBHALHost::disableList(ENDPOINT_TYPE)+0x24>
    28dc:	b109      	cbz	r1, 28e2 <USBHALHost::disableList(ENDPOINT_TYPE)+0xe>
    28de:	2000      	movs	r0, #0
    28e0:	4770      	bx	lr
    28e2:	4b10      	ldr	r3, [pc, #64]	; (2924 <USBHALHost::disableList(ENDPOINT_TYPE)+0x50>)
    28e4:	6858      	ldr	r0, [r3, #4]
    28e6:	f010 0010 	ands.w	r0, r0, #16
    28ea:	d0f9      	beq.n	28e0 <USBHALHost::disableList(ENDPOINT_TYPE)+0xc>
    28ec:	685a      	ldr	r2, [r3, #4]
    28ee:	2001      	movs	r0, #1
    28f0:	f022 0210 	bic.w	r2, r2, #16
    28f4:	605a      	str	r2, [r3, #4]
    28f6:	4770      	bx	lr
    28f8:	4b0a      	ldr	r3, [pc, #40]	; (2924 <USBHALHost::disableList(ENDPOINT_TYPE)+0x50>)
    28fa:	6858      	ldr	r0, [r3, #4]
    28fc:	f010 0004 	ands.w	r0, r0, #4
    2900:	d0ee      	beq.n	28e0 <USBHALHost::disableList(ENDPOINT_TYPE)+0xc>
    2902:	685a      	ldr	r2, [r3, #4]
    2904:	2001      	movs	r0, #1
    2906:	f022 0204 	bic.w	r2, r2, #4
    290a:	605a      	str	r2, [r3, #4]
    290c:	4770      	bx	lr
    290e:	4b05      	ldr	r3, [pc, #20]	; (2924 <USBHALHost::disableList(ENDPOINT_TYPE)+0x50>)
    2910:	6858      	ldr	r0, [r3, #4]
    2912:	f010 0020 	ands.w	r0, r0, #32
    2916:	d0e3      	beq.n	28e0 <USBHALHost::disableList(ENDPOINT_TYPE)+0xc>
    2918:	685a      	ldr	r2, [r3, #4]
    291a:	2001      	movs	r0, #1
    291c:	f022 0220 	bic.w	r2, r2, #32
    2920:	605a      	str	r2, [r3, #4]
    2922:	4770      	bx	lr
    2924:	5000c000 	.word	0x5000c000

00002928 <USBHALHost::getED()>:
    2928:	b508      	push	{r3, lr}
    292a:	2300      	movs	r3, #0
    292c:	e002      	b.n	2934 <USBHALHost::getED()+0xc>
    292e:	3301      	adds	r3, #1
    2930:	2b3c      	cmp	r3, #60	; 0x3c
    2932:	d009      	beq.n	2948 <USBHALHost::getED()+0x20>
    2934:	18c2      	adds	r2, r0, r3
    2936:	7c11      	ldrb	r1, [r2, #16]
    2938:	2900      	cmp	r1, #0
    293a:	d1f8      	bne.n	292e <USBHALHost::getED()+0x6>
    293c:	6880      	ldr	r0, [r0, #8]
    293e:	2101      	movs	r1, #1
    2940:	eb00 1003 	add.w	r0, r0, r3, lsl #4
    2944:	7411      	strb	r1, [r2, #16]
    2946:	bd08      	pop	{r3, pc}
    2948:	4802      	ldr	r0, [pc, #8]	; (2954 <USBHALHost::getED()+0x2c>)
    294a:	f006 fc65 	bl	9218 <perror>
    294e:	2000      	movs	r0, #0
    2950:	bd08      	pop	{r3, pc}
    2952:	bf00      	nop
    2954:	0000b8c0 	.word	0x0000b8c0

00002958 <USBHALHost::getTD()>:
    2958:	b508      	push	{r3, lr}
    295a:	2300      	movs	r3, #0
    295c:	e002      	b.n	2964 <USBHALHost::getTD()+0xc>
    295e:	3301      	adds	r3, #1
    2960:	2b78      	cmp	r3, #120	; 0x78
    2962:	d00b      	beq.n	297c <USBHALHost::getTD()+0x24>
    2964:	18c2      	adds	r2, r0, r3
    2966:	f892 104c 	ldrb.w	r1, [r2, #76]	; 0x4c
    296a:	2900      	cmp	r1, #0
    296c:	d1f7      	bne.n	295e <USBHALHost::getTD()+0x6>
    296e:	68c0      	ldr	r0, [r0, #12]
    2970:	2101      	movs	r1, #1
    2972:	eb00 1043 	add.w	r0, r0, r3, lsl #5
    2976:	f882 104c 	strb.w	r1, [r2, #76]	; 0x4c
    297a:	bd08      	pop	{r3, pc}
    297c:	4802      	ldr	r0, [pc, #8]	; (2988 <USBHALHost::getTD()+0x30>)
    297e:	f006 fc4b 	bl	9218 <perror>
    2982:	2000      	movs	r0, #0
    2984:	bd08      	pop	{r3, pc}
    2986:	bf00      	nop
    2988:	0000b8d8 	.word	0x0000b8d8

0000298c <USBHALHost::freeED(unsigned char volatile*)>:
    298c:	6883      	ldr	r3, [r0, #8]
    298e:	2200      	movs	r2, #0
    2990:	1ac9      	subs	r1, r1, r3
    2992:	eb00 1011 	add.w	r0, r0, r1, lsr #4
    2996:	7402      	strb	r2, [r0, #16]
    2998:	4770      	bx	lr
    299a:	bf00      	nop

0000299c <USBHALHost::freeTD(unsigned char volatile*)>:
    299c:	68c3      	ldr	r3, [r0, #12]
    299e:	2200      	movs	r2, #0
    29a0:	1ac9      	subs	r1, r1, r3
    29a2:	eb00 1051 	add.w	r0, r0, r1, lsr #5
    29a6:	f880 204c 	strb.w	r2, [r0, #76]	; 0x4c
    29aa:	4770      	bx	lr

000029ac <USBHALHost::resetRootHub()>:
    29ac:	4905      	ldr	r1, [pc, #20]	; (29c4 <USBHALHost::resetRootHub()+0x18>)
    29ae:	2310      	movs	r3, #16
    29b0:	654b      	str	r3, [r1, #84]	; 0x54
    29b2:	6d4b      	ldr	r3, [r1, #84]	; 0x54
    29b4:	4a03      	ldr	r2, [pc, #12]	; (29c4 <USBHALHost::resetRootHub()+0x18>)
    29b6:	06db      	lsls	r3, r3, #27
    29b8:	d4fb      	bmi.n	29b2 <USBHALHost::resetRootHub()+0x6>
    29ba:	f44f 1380 	mov.w	r3, #1048576	; 0x100000
    29be:	6553      	str	r3, [r2, #84]	; 0x54
    29c0:	4770      	bx	lr
    29c2:	bf00      	nop
    29c4:	5000c000 	.word	0x5000c000

000029c8 <USBHALHost::UsbIrqhandler()>:
    29c8:	e92d 41f0 	stmdb	sp!, {r4, r5, r6, r7, r8, lr}
    29cc:	4c3e      	ldr	r4, [pc, #248]	; (2ac8 <USBHALHost::UsbIrqhandler()+0x100>)
    29ce:	b082      	sub	sp, #8
    29d0:	68e3      	ldr	r3, [r4, #12]
    29d2:	6922      	ldr	r2, [r4, #16]
    29d4:	4605      	mov	r5, r0
    29d6:	421a      	tst	r2, r3
    29d8:	d02b      	beq.n	2a32 <USBHALHost::UsbIrqhandler()+0x6a>
    29da:	68e3      	ldr	r3, [r4, #12]
    29dc:	6926      	ldr	r6, [r4, #16]
    29de:	401e      	ands	r6, r3
    29e0:	0670      	lsls	r0, r6, #25
    29e2:	d529      	bpl.n	2a38 <USBHALHost::UsbIrqhandler()+0x70>
    29e4:	6d63      	ldr	r3, [r4, #84]	; 0x54
    29e6:	03d9      	lsls	r1, r3, #15
    29e8:	d50a      	bpl.n	2a00 <USBHALHost::UsbIrqhandler()+0x38>
    29ea:	6d21      	ldr	r1, [r4, #80]	; 0x50
    29ec:	f411 4700 	ands.w	r7, r1, #32768	; 0x8000
    29f0:	d025      	beq.n	2a3e <USBHALHost::UsbIrqhandler()+0x76>
    29f2:	f006 0602 	and.w	r6, r6, #2
    29f6:	4b34      	ldr	r3, [pc, #208]	; (2ac8 <USBHALHost::UsbIrqhandler()+0x100>)
    29f8:	f44f 3280 	mov.w	r2, #65536	; 0x10000
    29fc:	655a      	str	r2, [r3, #84]	; 0x54
    29fe:	e001      	b.n	2a04 <USBHALHost::UsbIrqhandler()+0x3c>
    2a00:	f006 0602 	and.w	r6, r6, #2
    2a04:	4b30      	ldr	r3, [pc, #192]	; (2ac8 <USBHALHost::UsbIrqhandler()+0x100>)
    2a06:	6d5a      	ldr	r2, [r3, #84]	; 0x54
    2a08:	02d2      	lsls	r2, r2, #11
    2a0a:	bf44      	itt	mi
    2a0c:	f44f 1280 	movmi.w	r2, #1048576	; 0x100000
    2a10:	655a      	strmi	r2, [r3, #84]	; 0x54
    2a12:	4b2d      	ldr	r3, [pc, #180]	; (2ac8 <USBHALHost::UsbIrqhandler()+0x100>)
    2a14:	2240      	movs	r2, #64	; 0x40
    2a16:	60da      	str	r2, [r3, #12]
    2a18:	b15e      	cbz	r6, 2a32 <USBHALHost::UsbIrqhandler()+0x6a>
    2a1a:	686a      	ldr	r2, [r5, #4]
    2a1c:	682b      	ldr	r3, [r5, #0]
    2a1e:	f8d2 1084 	ldr.w	r1, [r2, #132]	; 0x84
    2a22:	689b      	ldr	r3, [r3, #8]
    2a24:	f021 0101 	bic.w	r1, r1, #1
    2a28:	4628      	mov	r0, r5
    2a2a:	4798      	blx	r3
    2a2c:	4b26      	ldr	r3, [pc, #152]	; (2ac8 <USBHALHost::UsbIrqhandler()+0x100>)
    2a2e:	2202      	movs	r2, #2
    2a30:	60da      	str	r2, [r3, #12]
    2a32:	b002      	add	sp, #8
    2a34:	e8bd 81f0 	ldmia.w	sp!, {r4, r5, r6, r7, r8, pc}
    2a38:	f006 0602 	and.w	r6, r6, #2
    2a3c:	e7ec      	b.n	2a18 <USBHALHost::UsbIrqhandler()+0x50>
    2a3e:	6d63      	ldr	r3, [r4, #84]	; 0x54
    2a40:	f013 0801 	ands.w	r8, r3, #1
    2a44:	d130      	bne.n	2aa8 <USBHALHost::UsbIrqhandler()+0xe0>
    2a46:	f016 0602 	ands.w	r6, r6, #2
    2a4a:	d115      	bne.n	2a78 <USBHALHost::UsbIrqhandler()+0xb0>
    2a4c:	686b      	ldr	r3, [r5, #4]
    2a4e:	20c8      	movs	r0, #200	; 0xc8
    2a50:	f8d3 2084 	ldr.w	r2, [r3, #132]	; 0x84
    2a54:	f8c3 6084 	str.w	r6, [r3, #132]	; 0x84
    2a58:	f004 fa5e 	bl	6f18 <wait_ms>
    2a5c:	e895 000c 	ldmia.w	r5, {r2, r3}
    2a60:	f8d3 3084 	ldr.w	r3, [r3, #132]	; 0x84
    2a64:	4628      	mov	r0, r5
    2a66:	f023 0301 	bic.w	r3, r3, #1
    2a6a:	9300      	str	r3, [sp, #0]
    2a6c:	6854      	ldr	r4, [r2, #4]
    2a6e:	4631      	mov	r1, r6
    2a70:	2201      	movs	r2, #1
    2a72:	4633      	mov	r3, r6
    2a74:	47a0      	blx	r4
    2a76:	e7be      	b.n	29f6 <USBHALHost::UsbIrqhandler()+0x2e>
    2a78:	20c8      	movs	r0, #200	; 0xc8
    2a7a:	f004 fa4d 	bl	6f18 <wait_ms>
    2a7e:	e895 000c 	ldmia.w	r5, {r2, r3}
    2a82:	f8d3 3084 	ldr.w	r3, [r3, #132]	; 0x84
    2a86:	4641      	mov	r1, r8
    2a88:	f023 0301 	bic.w	r3, r3, #1
    2a8c:	9300      	str	r3, [sp, #0]
    2a8e:	6857      	ldr	r7, [r2, #4]
    2a90:	4643      	mov	r3, r8
    2a92:	2201      	movs	r2, #1
    2a94:	4628      	mov	r0, r5
    2a96:	47b8      	blx	r7
    2a98:	686b      	ldr	r3, [r5, #4]
    2a9a:	2202      	movs	r2, #2
    2a9c:	f8d3 1084 	ldr.w	r1, [r3, #132]	; 0x84
    2aa0:	f8c3 8084 	str.w	r8, [r3, #132]	; 0x84
    2aa4:	60e2      	str	r2, [r4, #12]
    2aa6:	e7a6      	b.n	29f6 <USBHALHost::UsbIrqhandler()+0x2e>
    2aa8:	2096      	movs	r0, #150	; 0x96
    2aaa:	f004 fa35 	bl	6f18 <wait_ms>
    2aae:	682a      	ldr	r2, [r5, #0]
    2ab0:	6d63      	ldr	r3, [r4, #84]	; 0x54
    2ab2:	9700      	str	r7, [sp, #0]
    2ab4:	6814      	ldr	r4, [r2, #0]
    2ab6:	f3c3 2340 	ubfx	r3, r3, #9, #1
    2aba:	4639      	mov	r1, r7
    2abc:	4628      	mov	r0, r5
    2abe:	2201      	movs	r2, #1
    2ac0:	f006 0602 	and.w	r6, r6, #2
    2ac4:	47a0      	blx	r4
    2ac6:	e796      	b.n	29f6 <USBHALHost::UsbIrqhandler()+0x2e>
    2ac8:	5000c000 	.word	0x5000c000

00002acc <USBHALHost::_usbisr()>:
    2acc:	4b02      	ldr	r3, [pc, #8]	; (2ad8 <USBHALHost::_usbisr()+0xc>)
    2ace:	6818      	ldr	r0, [r3, #0]
    2ad0:	b108      	cbz	r0, 2ad6 <USBHALHost::_usbisr()+0xa>
    2ad2:	f7ff bf79 	b.w	29c8 <USBHALHost::UsbIrqhandler()>
    2ad6:	4770      	bx	lr
    2ad8:	10000244 	.word	0x10000244

00002adc <FATFileSystem::disk_initialize()>:
    2adc:	2000      	movs	r0, #0
    2ade:	4770      	bx	lr

00002ae0 <FATFileSystem::disk_status()>:
    2ae0:	2000      	movs	r0, #0
    2ae2:	4770      	bx	lr

00002ae4 <FATFileSystem::disk_sync()>:
    2ae4:	2000      	movs	r0, #0
    2ae6:	4770      	bx	lr

00002ae8 <FATFileSystem::mount()>:
    2ae8:	4601      	mov	r1, r0
    2aea:	b508      	push	{r3, lr}
    2aec:	3110      	adds	r1, #16
    2aee:	f890 0240 	ldrb.w	r0, [r0, #576]	; 0x240
    2af2:	f001 fa91 	bl	4018 <f_mount>
    2af6:	3000      	adds	r0, #0
    2af8:	bf18      	it	ne
    2afa:	2001      	movne	r0, #1
    2afc:	4240      	negs	r0, r0
    2afe:	bd08      	pop	{r3, pc}

00002b00 <FATFileSystem::unmount()>:
    2b00:	6803      	ldr	r3, [r0, #0]
    2b02:	b510      	push	{r4, lr}
    2b04:	6b9b      	ldr	r3, [r3, #56]	; 0x38
    2b06:	4604      	mov	r4, r0
    2b08:	4798      	blx	r3
    2b0a:	4601      	mov	r1, r0
    2b0c:	b940      	cbnz	r0, 2b20 <FATFileSystem::unmount()+0x20>
    2b0e:	f894 0240 	ldrb.w	r0, [r4, #576]	; 0x240
    2b12:	f001 fa81 	bl	4018 <f_mount>
    2b16:	3000      	adds	r0, #0
    2b18:	bf18      	it	ne
    2b1a:	2001      	movne	r0, #1
    2b1c:	4240      	negs	r0, r0
    2b1e:	bd10      	pop	{r4, pc}
    2b20:	f04f 30ff 	mov.w	r0, #4294967295	; 0xffffffff
    2b24:	bd10      	pop	{r4, pc}
    2b26:	bf00      	nop

00002b28 <FATFileSystem::~FATFileSystem()>:
    2b28:	4b09      	ldr	r3, [pc, #36]	; (2b50 <FATFileSystem::~FATFileSystem()+0x28>)
    2b2a:	490a      	ldr	r1, [pc, #40]	; (2b54 <FATFileSystem::~FATFileSystem()+0x2c>)
    2b2c:	681a      	ldr	r2, [r3, #0]
    2b2e:	b510      	push	{r4, lr}
    2b30:	4282      	cmp	r2, r0
    2b32:	4604      	mov	r4, r0
    2b34:	6001      	str	r1, [r0, #0]
    2b36:	d004      	beq.n	2b42 <FATFileSystem::~FATFileSystem()+0x1a>
    2b38:	4620      	mov	r0, r4
    2b3a:	f004 fa01 	bl	6f40 <mbed::FileSystemLike::~FileSystemLike()>
    2b3e:	4620      	mov	r0, r4
    2b40:	bd10      	pop	{r4, pc}
    2b42:	2200      	movs	r2, #0
    2b44:	4610      	mov	r0, r2
    2b46:	4611      	mov	r1, r2
    2b48:	601a      	str	r2, [r3, #0]
    2b4a:	f001 fa65 	bl	4018 <f_mount>
    2b4e:	e7f3      	b.n	2b38 <FATFileSystem::~FATFileSystem()+0x10>
    2b50:	10000248 	.word	0x10000248
    2b54:	0000b8f8 	.word	0x0000b8f8

00002b58 <FATFileSystem::~FATFileSystem()>:
    2b58:	b510      	push	{r4, lr}
    2b5a:	4604      	mov	r4, r0
    2b5c:	f7ff ffe4 	bl	2b28 <FATFileSystem::~FATFileSystem()>
    2b60:	4620      	mov	r0, r4
    2b62:	f005 fa8f 	bl	8084 <operator delete(void*)>
    2b66:	4620      	mov	r0, r4
    2b68:	bd10      	pop	{r4, pc}
    2b6a:	bf00      	nop

00002b6c <FATFileSystem::opendir(char const*)>:
    2b6c:	b510      	push	{r4, lr}
    2b6e:	b08a      	sub	sp, #40	; 0x28
    2b70:	a801      	add	r0, sp, #4
    2b72:	f001 fe03 	bl	477c <f_opendir>
    2b76:	b950      	cbnz	r0, 2b8e <FATFileSystem::opendir(char const*)+0x22>
    2b78:	f44f 7094 	mov.w	r0, #296	; 0x128
    2b7c:	f005 fa88 	bl	8090 <operator new(unsigned int)>
    2b80:	a901      	add	r1, sp, #4
    2b82:	4604      	mov	r4, r0
    2b84:	f002 fbc8 	bl	5318 <FATDirHandle::FATDirHandle(FATFS_DIR const&)>
    2b88:	4620      	mov	r0, r4
    2b8a:	b00a      	add	sp, #40	; 0x28
    2b8c:	bd10      	pop	{r4, pc}
    2b8e:	2000      	movs	r0, #0
    2b90:	b00a      	add	sp, #40	; 0x28
    2b92:	bd10      	pop	{r4, pc}

00002b94 <FATFileSystem::mkdir(char const*, unsigned int)>:
    2b94:	b508      	push	{r3, lr}
    2b96:	4608      	mov	r0, r1
    2b98:	f001 feca 	bl	4930 <f_mkdir>
    2b9c:	3000      	adds	r0, #0
    2b9e:	bf18      	it	ne
    2ba0:	2001      	movne	r0, #1
    2ba2:	4240      	negs	r0, r0
    2ba4:	bd08      	pop	{r3, pc}
    2ba6:	bf00      	nop

00002ba8 <FATFileSystem::format()>:
    2ba8:	b508      	push	{r3, lr}
    2baa:	2100      	movs	r1, #0
    2bac:	f44f 7200 	mov.w	r2, #512	; 0x200
    2bb0:	f890 0240 	ldrb.w	r0, [r0, #576]	; 0x240
    2bb4:	f002 f86a 	bl	4c8c <f_mkfs>
    2bb8:	3000      	adds	r0, #0
    2bba:	bf18      	it	ne
    2bbc:	2001      	movne	r0, #1
    2bbe:	4240      	negs	r0, r0
    2bc0:	bd08      	pop	{r3, pc}
    2bc2:	bf00      	nop

00002bc4 <FATFileSystem::rename(char const*, char const*)>:
    2bc4:	b508      	push	{r3, lr}
    2bc6:	4608      	mov	r0, r1
    2bc8:	4611      	mov	r1, r2
    2bca:	f001 ffbb 	bl	4b44 <f_rename>
    2bce:	3000      	adds	r0, #0
    2bd0:	bf18      	it	ne
    2bd2:	2001      	movne	r0, #1
    2bd4:	4240      	negs	r0, r0
    2bd6:	bd08      	pop	{r3, pc}

00002bd8 <FATFileSystem::remove(char const*)>:
    2bd8:	b508      	push	{r3, lr}
    2bda:	4608      	mov	r0, r1
    2bdc:	f001 fe3c 	bl	4858 <f_unlink>
    2be0:	3000      	adds	r0, #0
    2be2:	bf18      	it	ne
    2be4:	2001      	movne	r0, #1
    2be6:	4240      	negs	r0, r0
    2be8:	bd08      	pop	{r3, pc}
    2bea:	bf00      	nop

00002bec <FATFileSystem::open(char const*, int)>:
    2bec:	b530      	push	{r4, r5, lr}
    2bee:	f8d0 5240 	ldr.w	r5, [r0, #576]	; 0x240
    2bf2:	f2ad 6da4 	subw	sp, sp, #1700	; 0x6a4
    2bf6:	460b      	mov	r3, r1
    2bf8:	4614      	mov	r4, r2
    2bfa:	a886      	add	r0, sp, #536	; 0x218
    2bfc:	462a      	mov	r2, r5
    2bfe:	491f      	ldr	r1, [pc, #124]	; (2c7c <FATFileSystem::open(char const*, int)+0x90>)
    2c00:	f006 fba2 	bl	9348 <siprintf>
    2c04:	07a5      	lsls	r5, r4, #30
    2c06:	d430      	bmi.n	2c6a <FATFileSystem::open(char const*, int)+0x7e>
    2c08:	f014 0f01 	tst.w	r4, #1
    2c0c:	bf0c      	ite	eq
    2c0e:	2201      	moveq	r2, #1
    2c10:	2202      	movne	r2, #2
    2c12:	05a0      	lsls	r0, r4, #22
    2c14:	d505      	bpl.n	2c22 <FATFileSystem::open(char const*, int)+0x36>
    2c16:	0561      	lsls	r1, r4, #21
    2c18:	bf4c      	ite	mi
    2c1a:	f042 0208 	orrmi.w	r2, r2, #8
    2c1e:	f042 0210 	orrpl.w	r2, r2, #16
    2c22:	a986      	add	r1, sp, #536	; 0x218
    2c24:	a896      	add	r0, sp, #600	; 0x258
    2c26:	f001 fa07 	bl	4038 <f_open>
    2c2a:	bb28      	cbnz	r0, 2c78 <FATFileSystem::open(char const*, int)+0x8c>
    2c2c:	0723      	lsls	r3, r4, #28
    2c2e:	d41e      	bmi.n	2c6e <FATFileSystem::open(char const*, int)+0x82>
    2c30:	f20d 447c 	addw	r4, sp, #1148	; 0x47c
    2c34:	a996      	add	r1, sp, #600	; 0x258
    2c36:	f44f 7209 	mov.w	r2, #548	; 0x224
    2c3a:	4620      	mov	r0, r4
    2c3c:	f005 fddc 	bl	87f8 <memcpy>
    2c40:	f44f 700a 	mov.w	r0, #552	; 0x228
    2c44:	f005 fa24 	bl	8090 <operator new(unsigned int)>
    2c48:	f50d 6191 	add.w	r1, sp, #1160	; 0x488
    2c4c:	4605      	mov	r5, r0
    2c4e:	f44f 7206 	mov.w	r2, #536	; 0x218
    2c52:	4668      	mov	r0, sp
    2c54:	f005 fdd0 	bl	87f8 <memcpy>
    2c58:	e894 000e 	ldmia.w	r4, {r1, r2, r3}
    2c5c:	4628      	mov	r0, r5
    2c5e:	f002 fbd1 	bl	5404 <FATFileHandle::FATFileHandle(FIL)>
    2c62:	4628      	mov	r0, r5
    2c64:	f20d 6da4 	addw	sp, sp, #1700	; 0x6a4
    2c68:	bd30      	pop	{r4, r5, pc}
    2c6a:	2203      	movs	r2, #3
    2c6c:	e7d1      	b.n	2c12 <FATFileSystem::open(char const*, int)+0x26>
    2c6e:	a896      	add	r0, sp, #600	; 0x258
    2c70:	9999      	ldr	r1, [sp, #612]	; 0x264
    2c72:	f001 fcbf 	bl	45f4 <f_lseek>
    2c76:	e7db      	b.n	2c30 <FATFileSystem::open(char const*, int)+0x44>
    2c78:	2000      	movs	r0, #0
    2c7a:	e7f3      	b.n	2c64 <FATFileSystem::open(char const*, int)+0x78>
    2c7c:	0000b938 	.word	0x0000b938

00002c80 <get_fattime>:
    2c80:	b510      	push	{r4, lr}
    2c82:	b082      	sub	sp, #8
    2c84:	a801      	add	r0, sp, #4
    2c86:	f004 f915 	bl	6eb4 <time>
    2c8a:	a801      	add	r0, sp, #4
    2c8c:	f005 fd42 	bl	8714 <localtime>
    2c90:	68c2      	ldr	r2, [r0, #12]
    2c92:	6881      	ldr	r1, [r0, #8]
    2c94:	0414      	lsls	r4, r2, #16
    2c96:	6803      	ldr	r3, [r0, #0]
    2c98:	6842      	ldr	r2, [r0, #4]
    2c9a:	ea44 21c1 	orr.w	r1, r4, r1, lsl #11
    2c9e:	6944      	ldr	r4, [r0, #20]
    2ca0:	ea41 1242 	orr.w	r2, r1, r2, lsl #5
    2ca4:	eb03 73d3 	add.w	r3, r3, r3, lsr #31
    2ca8:	6900      	ldr	r0, [r0, #16]
    2caa:	ea42 0263 	orr.w	r2, r2, r3, asr #1
    2cae:	f1a4 0350 	sub.w	r3, r4, #80	; 0x50
    2cb2:	ea42 6343 	orr.w	r3, r2, r3, lsl #25
    2cb6:	3001      	adds	r0, #1
    2cb8:	ea43 5040 	orr.w	r0, r3, r0, lsl #21
    2cbc:	b002      	add	sp, #8
    2cbe:	bd10      	pop	{r4, pc}

00002cc0 <FATFileSystem::FATFileSystem(char const*)>:
    2cc0:	b538      	push	{r3, r4, r5, lr}
    2cc2:	4604      	mov	r4, r0
    2cc4:	460d      	mov	r5, r1
    2cc6:	f004 f953 	bl	6f70 <mbed::FileSystemLike::FileSystemLike(char const*)>
    2cca:	4b09      	ldr	r3, [pc, #36]	; (2cf0 <FATFileSystem::FATFileSystem(char const*)+0x30>)
    2ccc:	4a09      	ldr	r2, [pc, #36]	; (2cf4 <FATFileSystem::FATFileSystem(char const*)+0x34>)
    2cce:	6818      	ldr	r0, [r3, #0]
    2cd0:	6022      	str	r2, [r4, #0]
    2cd2:	b128      	cbz	r0, 2ce0 <FATFileSystem::FATFileSystem(char const*)+0x20>
    2cd4:	4629      	mov	r1, r5
    2cd6:	4808      	ldr	r0, [pc, #32]	; (2cf8 <FATFileSystem::FATFileSystem(char const*)+0x38>)
    2cd8:	f004 f87c 	bl	6dd4 <error>
    2cdc:	4620      	mov	r0, r4
    2cde:	bd38      	pop	{r3, r4, r5, pc}
    2ce0:	f8c4 0240 	str.w	r0, [r4, #576]	; 0x240
    2ce4:	f104 0110 	add.w	r1, r4, #16
    2ce8:	601c      	str	r4, [r3, #0]
    2cea:	f001 f995 	bl	4018 <f_mount>
    2cee:	e7f5      	b.n	2cdc <FATFileSystem::FATFileSystem(char const*)+0x1c>
    2cf0:	10000248 	.word	0x10000248
    2cf4:	0000b8f8 	.word	0x0000b8f8
    2cf8:	0000b940 	.word	0x0000b940

00002cfc <move_window(FATFS*, unsigned long)>:
    2cfc:	e92d 41f0 	stmdb	sp!, {r4, r5, r6, r7, r8, lr}
    2d00:	6ac5      	ldr	r5, [r0, #44]	; 0x2c
    2d02:	4604      	mov	r4, r0
    2d04:	428d      	cmp	r5, r1
    2d06:	460e      	mov	r6, r1
    2d08:	d002      	beq.n	2d10 <move_window(FATFS*, unsigned long)+0x14>
    2d0a:	7903      	ldrb	r3, [r0, #4]
    2d0c:	b973      	cbnz	r3, 2d2c <move_window(FATFS*, unsigned long)+0x30>
    2d0e:	b916      	cbnz	r6, 2d16 <move_window(FATFS*, unsigned long)+0x1a>
    2d10:	2000      	movs	r0, #0
    2d12:	e8bd 81f0 	ldmia.w	sp!, {r4, r5, r6, r7, r8, pc}
    2d16:	7860      	ldrb	r0, [r4, #1]
    2d18:	f104 0130 	add.w	r1, r4, #48	; 0x30
    2d1c:	4632      	mov	r2, r6
    2d1e:	2301      	movs	r3, #1
    2d20:	f002 fbdc 	bl	54dc <disk_read(unsigned char, unsigned char*, unsigned long, unsigned char)>
    2d24:	bb20      	cbnz	r0, 2d70 <move_window(FATFS*, unsigned long)+0x74>
    2d26:	62e6      	str	r6, [r4, #44]	; 0x2c
    2d28:	e8bd 81f0 	ldmia.w	sp!, {r4, r5, r6, r7, r8, pc}
    2d2c:	f100 0830 	add.w	r8, r0, #48	; 0x30
    2d30:	4641      	mov	r1, r8
    2d32:	7840      	ldrb	r0, [r0, #1]
    2d34:	462a      	mov	r2, r5
    2d36:	2301      	movs	r3, #1
    2d38:	f002 fbe2 	bl	5500 <disk_write(unsigned char, unsigned char const*, unsigned long, unsigned char)>
    2d3c:	b9c0      	cbnz	r0, 2d70 <move_window(FATFS*, unsigned long)+0x74>
    2d3e:	69e3      	ldr	r3, [r4, #28]
    2d40:	6a22      	ldr	r2, [r4, #32]
    2d42:	7120      	strb	r0, [r4, #4]
    2d44:	441a      	add	r2, r3
    2d46:	4295      	cmp	r5, r2
    2d48:	d2e1      	bcs.n	2d0e <move_window(FATFS*, unsigned long)+0x12>
    2d4a:	78e7      	ldrb	r7, [r4, #3]
    2d4c:	2f01      	cmp	r7, #1
    2d4e:	d801      	bhi.n	2d54 <move_window(FATFS*, unsigned long)+0x58>
    2d50:	e7dd      	b.n	2d0e <move_window(FATFS*, unsigned long)+0x12>
    2d52:	69e3      	ldr	r3, [r4, #28]
    2d54:	441d      	add	r5, r3
    2d56:	3f01      	subs	r7, #1
    2d58:	462a      	mov	r2, r5
    2d5a:	7860      	ldrb	r0, [r4, #1]
    2d5c:	4641      	mov	r1, r8
    2d5e:	2301      	movs	r3, #1
    2d60:	b2ff      	uxtb	r7, r7
    2d62:	f002 fbcd 	bl	5500 <disk_write(unsigned char, unsigned char const*, unsigned long, unsigned char)>
    2d66:	2f01      	cmp	r7, #1
    2d68:	d1f3      	bne.n	2d52 <move_window(FATFS*, unsigned long)+0x56>
    2d6a:	2e00      	cmp	r6, #0
    2d6c:	d0d0      	beq.n	2d10 <move_window(FATFS*, unsigned long)+0x14>
    2d6e:	e7d2      	b.n	2d16 <move_window(FATFS*, unsigned long)+0x1a>
    2d70:	2001      	movs	r0, #1
    2d72:	e8bd 81f0 	ldmia.w	sp!, {r4, r5, r6, r7, r8, pc}
    2d76:	bf00      	nop

00002d78 <validate(void*)>:
    2d78:	b508      	push	{r3, lr}
    2d7a:	6803      	ldr	r3, [r0, #0]
    2d7c:	b10b      	cbz	r3, 2d82 <validate(void*)+0xa>
    2d7e:	781a      	ldrb	r2, [r3, #0]
    2d80:	b90a      	cbnz	r2, 2d86 <validate(void*)+0xe>
    2d82:	2009      	movs	r0, #9
    2d84:	bd08      	pop	{r3, pc}
    2d86:	8882      	ldrh	r2, [r0, #4]
    2d88:	88d9      	ldrh	r1, [r3, #6]
    2d8a:	4291      	cmp	r1, r2
    2d8c:	d1f9      	bne.n	2d82 <validate(void*)+0xa>
    2d8e:	7858      	ldrb	r0, [r3, #1]
    2d90:	f002 fb98 	bl	54c4 <disk_status(unsigned char)>
    2d94:	f010 0f01 	tst.w	r0, #1
    2d98:	bf0c      	ite	eq
    2d9a:	2000      	moveq	r0, #0
    2d9c:	2003      	movne	r0, #3
    2d9e:	bd08      	pop	{r3, pc}

00002da0 <get_fileinfo(FATFS_DIR*, FILINFO*)>:
    2da0:	b5f8      	push	{r3, r4, r5, r6, r7, lr}
    2da2:	6903      	ldr	r3, [r0, #16]
    2da4:	460e      	mov	r6, r1
    2da6:	f101 0509 	add.w	r5, r1, #9
    2daa:	2b00      	cmp	r3, #0
    2dac:	d04d      	beq.n	2e4a <get_fileinfo(FATFS_DIR*, FILINFO*)+0xaa>
    2dae:	6944      	ldr	r4, [r0, #20]
    2db0:	2200      	movs	r2, #0
    2db2:	f894 c00c 	ldrb.w	r12, [r4, #12]
    2db6:	f00c 0708 	and.w	r7, r12, #8
    2dba:	b2ff      	uxtb	r7, r7
    2dbc:	5ca3      	ldrb	r3, [r4, r2]
    2dbe:	3201      	adds	r2, #1
    2dc0:	2b20      	cmp	r3, #32
    2dc2:	d00d      	beq.n	2de0 <get_fileinfo(FATFS_DIR*, FILINFO*)+0x40>
    2dc4:	2b05      	cmp	r3, #5
    2dc6:	bf08      	it	eq
    2dc8:	23e5      	moveq	r3, #229	; 0xe5
    2dca:	f1a3 0141 	sub.w	r1, r3, #65	; 0x41
    2dce:	b11f      	cbz	r7, 2dd8 <get_fileinfo(FATFS_DIR*, FILINFO*)+0x38>
    2dd0:	2919      	cmp	r1, #25
    2dd2:	bf9c      	itt	ls
    2dd4:	3320      	addls	r3, #32
    2dd6:	b2db      	uxtbls	r3, r3
    2dd8:	2a08      	cmp	r2, #8
    2dda:	f805 3b01 	strb.w	r3, [r5], #1
    2dde:	d1ed      	bne.n	2dbc <get_fileinfo(FATFS_DIR*, FILINFO*)+0x1c>
    2de0:	7a23      	ldrb	r3, [r4, #8]
    2de2:	2b20      	cmp	r3, #32
    2de4:	d01a      	beq.n	2e1c <get_fileinfo(FATFS_DIR*, FILINFO*)+0x7c>
    2de6:	4629      	mov	r1, r5
    2de8:	f00c 0c10 	and.w	r12, r12, #16
    2dec:	232e      	movs	r3, #46	; 0x2e
    2dee:	fa5f fc8c 	uxtb.w	r12, r12
    2df2:	f801 3b04 	strb.w	r3, [r1], #4
    2df6:	3501      	adds	r5, #1
    2df8:	1de2      	adds	r2, r4, #7
    2dfa:	f812 3f01 	ldrb.w	r3, [r2, #1]!
    2dfe:	2b20      	cmp	r3, #32
    2e00:	f1a3 0741 	sub.w	r7, r3, #65	; 0x41
    2e04:	d00a      	beq.n	2e1c <get_fileinfo(FATFS_DIR*, FILINFO*)+0x7c>
    2e06:	f1bc 0f00 	cmp.w	r12, #0
    2e0a:	d003      	beq.n	2e14 <get_fileinfo(FATFS_DIR*, FILINFO*)+0x74>
    2e0c:	2f19      	cmp	r7, #25
    2e0e:	bf9c      	itt	ls
    2e10:	3320      	addls	r3, #32
    2e12:	b2db      	uxtbls	r3, r3
    2e14:	f805 3b01 	strb.w	r3, [r5], #1
    2e18:	428d      	cmp	r5, r1
    2e1a:	d1ee      	bne.n	2dfa <get_fileinfo(FATFS_DIR*, FILINFO*)+0x5a>
    2e1c:	7ae3      	ldrb	r3, [r4, #11]
    2e1e:	7233      	strb	r3, [r6, #8]
    2e20:	7fa3      	ldrb	r3, [r4, #30]
    2e22:	7fe2      	ldrb	r2, [r4, #31]
    2e24:	7f21      	ldrb	r1, [r4, #28]
    2e26:	041b      	lsls	r3, r3, #16
    2e28:	ea43 6302 	orr.w	r3, r3, r2, lsl #24
    2e2c:	7f62      	ldrb	r2, [r4, #29]
    2e2e:	430b      	orrs	r3, r1
    2e30:	ea43 2302 	orr.w	r3, r3, r2, lsl #8
    2e34:	6033      	str	r3, [r6, #0]
    2e36:	7e62      	ldrb	r2, [r4, #25]
    2e38:	7e23      	ldrb	r3, [r4, #24]
    2e3a:	ea43 2302 	orr.w	r3, r3, r2, lsl #8
    2e3e:	80b3      	strh	r3, [r6, #4]
    2e40:	7de2      	ldrb	r2, [r4, #23]
    2e42:	7da3      	ldrb	r3, [r4, #22]
    2e44:	ea43 2302 	orr.w	r3, r3, r2, lsl #8
    2e48:	80f3      	strh	r3, [r6, #6]
    2e4a:	2400      	movs	r4, #0
    2e4c:	702c      	strb	r4, [r5, #0]
    2e4e:	69b5      	ldr	r5, [r6, #24]
    2e50:	b135      	cbz	r5, 2e60 <get_fileinfo(FATFS_DIR*, FILINFO*)+0xc0>
    2e52:	69f3      	ldr	r3, [r6, #28]
    2e54:	b123      	cbz	r3, 2e60 <get_fileinfo(FATFS_DIR*, FILINFO*)+0xc0>
    2e56:	6903      	ldr	r3, [r0, #16]
    2e58:	b91b      	cbnz	r3, 2e62 <get_fileinfo(FATFS_DIR*, FILINFO*)+0xc2>
    2e5a:	2400      	movs	r4, #0
    2e5c:	2300      	movs	r3, #0
    2e5e:	552b      	strb	r3, [r5, r4]
    2e60:	bdf8      	pop	{r3, r4, r5, r6, r7, pc}
    2e62:	8c02      	ldrh	r2, [r0, #32]
    2e64:	f64f 73ff 	movw	r3, #65535	; 0xffff
    2e68:	429a      	cmp	r2, r3
    2e6a:	d0f6      	beq.n	2e5a <get_fileinfo(FATFS_DIR*, FILINFO*)+0xba>
    2e6c:	69c7      	ldr	r7, [r0, #28]
    2e6e:	8838      	ldrh	r0, [r7, #0]
    2e70:	b960      	cbnz	r0, 2e8c <get_fileinfo(FATFS_DIR*, FILINFO*)+0xec>
    2e72:	e7f2      	b.n	2e5a <get_fileinfo(FATFS_DIR*, FILINFO*)+0xba>
    2e74:	69f3      	ldr	r3, [r6, #28]
    2e76:	3b01      	subs	r3, #1
    2e78:	429c      	cmp	r4, r3
    2e7a:	d2ee      	bcs.n	2e5a <get_fileinfo(FATFS_DIR*, FILINFO*)+0xba>
    2e7c:	3401      	adds	r4, #1
    2e7e:	192b      	adds	r3, r5, r4
    2e80:	f803 0c01 	strb.w	r0, [r3, #-1]
    2e84:	f837 0014 	ldrh.w	r0, [r7, r4, lsl #1]
    2e88:	2800      	cmp	r0, #0
    2e8a:	d0e7      	beq.n	2e5c <get_fileinfo(FATFS_DIR*, FILINFO*)+0xbc>
    2e8c:	2100      	movs	r1, #0
    2e8e:	f002 fad1 	bl	5434 <ff_convert>
    2e92:	2800      	cmp	r0, #0
    2e94:	d1ee      	bne.n	2e74 <get_fileinfo(FATFS_DIR*, FILINFO*)+0xd4>
    2e96:	e7e0      	b.n	2e5a <get_fileinfo(FATFS_DIR*, FILINFO*)+0xba>

00002e98 <sync(FATFS*)>:
    2e98:	e92d 4ff8 	stmdb	sp!, {r3, r4, r5, r6, r7, r8, r9, r10, r11, lr}
    2e9c:	2100      	movs	r1, #0
    2e9e:	4605      	mov	r5, r0
    2ea0:	f7ff ff2c 	bl	2cfc <move_window(FATFS*, unsigned long)>
    2ea4:	4603      	mov	r3, r0
    2ea6:	b950      	cbnz	r0, 2ebe <sync(FATFS*)+0x26>
    2ea8:	782b      	ldrb	r3, [r5, #0]
    2eaa:	2b03      	cmp	r3, #3
    2eac:	d00a      	beq.n	2ec4 <sync(FATFS*)+0x2c>
    2eae:	2100      	movs	r1, #0
    2eb0:	7868      	ldrb	r0, [r5, #1]
    2eb2:	460a      	mov	r2, r1
    2eb4:	f002 fb36 	bl	5524 <disk_ioctl(unsigned char, unsigned char, void*)>
    2eb8:	1c03      	adds	r3, r0, #0
    2eba:	bf18      	it	ne
    2ebc:	2301      	movne	r3, #1
    2ebe:	4618      	mov	r0, r3
    2ec0:	e8bd 8ff8 	ldmia.w	sp!, {r3, r4, r5, r6, r7, r8, r9, r10, r11, pc}
    2ec4:	796b      	ldrb	r3, [r5, #5]
    2ec6:	2b00      	cmp	r3, #0
    2ec8:	d0f1      	beq.n	2eae <sync(FATFS*)+0x16>
    2eca:	f105 0130 	add.w	r1, r5, #48	; 0x30
    2ece:	62e8      	str	r0, [r5, #44]	; 0x2c
    2ed0:	460b      	mov	r3, r1
    2ed2:	f505 720c 	add.w	r2, r5, #560	; 0x230
    2ed6:	f803 0b01 	strb.w	r0, [r3], #1
    2eda:	4293      	cmp	r3, r2
    2edc:	f04f 0400 	mov.w	r4, #0
    2ee0:	d1f9      	bne.n	2ed6 <sync(FATFS*)+0x3e>
    2ee2:	692a      	ldr	r2, [r5, #16]
    2ee4:	68eb      	ldr	r3, [r5, #12]
    2ee6:	f3c2 2b07 	ubfx	r11, r2, #8, #8
    2eea:	ea4f 4a12 	mov.w	r10, r2, lsr #16
    2eee:	ea4f 4c13 	mov.w	r12, r3, lsr #16
    2ef2:	ea4f 6e13 	mov.w	lr, r3, lsr #24
    2ef6:	2052      	movs	r0, #82	; 0x52
    2ef8:	ea4f 6912 	mov.w	r9, r2, lsr #24
    2efc:	f3c3 2807 	ubfx	r8, r3, #8, #8
    2f00:	f885 2218 	strb.w	r2, [r5, #536]	; 0x218
    2f04:	f885 b219 	strb.w	r11, [r5, #537]	; 0x219
    2f08:	2261      	movs	r2, #97	; 0x61
    2f0a:	f04f 0b41 	mov.w	r11, #65	; 0x41
    2f0e:	f885 a21a 	strb.w	r10, [r5, #538]	; 0x21a
    2f12:	2755      	movs	r7, #85	; 0x55
    2f14:	f04f 0a72 	mov.w	r10, #114	; 0x72
    2f18:	26aa      	movs	r6, #170	; 0xaa
    2f1a:	f885 321c 	strb.w	r3, [r5, #540]	; 0x21c
    2f1e:	f885 0030 	strb.w	r0, [r5, #48]	; 0x30
    2f22:	f885 0031 	strb.w	r0, [r5, #49]	; 0x31
    2f26:	f885 2032 	strb.w	r2, [r5, #50]	; 0x32
    2f2a:	f885 2217 	strb.w	r2, [r5, #535]	; 0x217
    2f2e:	f885 921b 	strb.w	r9, [r5, #539]	; 0x21b
    2f32:	f885 821d 	strb.w	r8, [r5, #541]	; 0x21d
    2f36:	f885 c21e 	strb.w	r12, [r5, #542]	; 0x21e
    2f3a:	f885 e21f 	strb.w	lr, [r5, #543]	; 0x21f
    2f3e:	f885 722e 	strb.w	r7, [r5, #558]	; 0x22e
    2f42:	f885 622f 	strb.w	r6, [r5, #559]	; 0x22f
    2f46:	f885 b033 	strb.w	r11, [r5, #51]	; 0x33
    2f4a:	f885 b216 	strb.w	r11, [r5, #534]	; 0x216
    2f4e:	f885 a214 	strb.w	r10, [r5, #532]	; 0x214
    2f52:	f885 a215 	strb.w	r10, [r5, #533]	; 0x215
    2f56:	7868      	ldrb	r0, [r5, #1]
    2f58:	696a      	ldr	r2, [r5, #20]
    2f5a:	2301      	movs	r3, #1
    2f5c:	f002 fad0 	bl	5500 <disk_write(unsigned char, unsigned char const*, unsigned long, unsigned char)>
    2f60:	716c      	strb	r4, [r5, #5]
    2f62:	e7a4      	b.n	2eae <sync(FATFS*)+0x16>

00002f64 <check_fs(FATFS*, unsigned long)>:
    2f64:	b510      	push	{r4, lr}
    2f66:	4604      	mov	r4, r0
    2f68:	460a      	mov	r2, r1
    2f6a:	7840      	ldrb	r0, [r0, #1]
    2f6c:	f104 0130 	add.w	r1, r4, #48	; 0x30
    2f70:	2301      	movs	r3, #1
    2f72:	f002 fab3 	bl	54dc <disk_read(unsigned char, unsigned char*, unsigned long, unsigned char)>
    2f76:	b108      	cbz	r0, 2f7c <check_fs(FATFS*, unsigned long)+0x18>
    2f78:	2003      	movs	r0, #3
    2f7a:	bd10      	pop	{r4, pc}
    2f7c:	f894 122f 	ldrb.w	r1, [r4, #559]	; 0x22f
    2f80:	f894 222e 	ldrb.w	r2, [r4, #558]	; 0x22e
    2f84:	4b17      	ldr	r3, [pc, #92]	; (2fe4 <check_fs(FATFS*, unsigned long)+0x80>)
    2f86:	ea42 2201 	orr.w	r2, r2, r1, lsl #8
    2f8a:	b212      	sxth	r2, r2
    2f8c:	429a      	cmp	r2, r3
    2f8e:	d001      	beq.n	2f94 <check_fs(FATFS*, unsigned long)+0x30>
    2f90:	2002      	movs	r0, #2
    2f92:	bd10      	pop	{r4, pc}
    2f94:	f894 3068 	ldrb.w	r3, [r4, #104]	; 0x68
    2f98:	f894 2069 	ldrb.w	r2, [r4, #105]	; 0x69
    2f9c:	041b      	lsls	r3, r3, #16
    2f9e:	f894 1066 	ldrb.w	r1, [r4, #102]	; 0x66
    2fa2:	ea43 6302 	orr.w	r3, r3, r2, lsl #24
    2fa6:	f894 2067 	ldrb.w	r2, [r4, #103]	; 0x67
    2faa:	430b      	orrs	r3, r1
    2fac:	ea43 2202 	orr.w	r2, r3, r2, lsl #8
    2fb0:	4b0d      	ldr	r3, [pc, #52]	; (2fe8 <check_fs(FATFS*, unsigned long)+0x84>)
    2fb2:	f022 427f 	bic.w	r2, r2, #4278190080	; 0xff000000
    2fb6:	429a      	cmp	r2, r3
    2fb8:	d0eb      	beq.n	2f92 <check_fs(FATFS*, unsigned long)+0x2e>
    2fba:	f894 2084 	ldrb.w	r2, [r4, #132]	; 0x84
    2fbe:	f894 0085 	ldrb.w	r0, [r4, #133]	; 0x85
    2fc2:	f894 1082 	ldrb.w	r1, [r4, #130]	; 0x82
    2fc6:	0412      	lsls	r2, r2, #16
    2fc8:	ea42 6200 	orr.w	r2, r2, r0, lsl #24
    2fcc:	f894 0083 	ldrb.w	r0, [r4, #131]	; 0x83
    2fd0:	430a      	orrs	r2, r1
    2fd2:	ea42 2000 	orr.w	r0, r2, r0, lsl #8
    2fd6:	f020 407f 	bic.w	r0, r0, #4278190080	; 0xff000000
    2fda:	1ac0      	subs	r0, r0, r3
    2fdc:	bf18      	it	ne
    2fde:	2001      	movne	r0, #1
    2fe0:	bd10      	pop	{r4, pc}
    2fe2:	bf00      	nop
    2fe4:	ffffaa55 	.word	0xffffaa55
    2fe8:	00544146 	.word	0x00544146

00002fec <chk_mounted(char const**, FATFS**, unsigned char)>:
    2fec:	b5f8      	push	{r3, r4, r5, r6, r7, lr}
    2fee:	6803      	ldr	r3, [r0, #0]
    2ff0:	4615      	mov	r5, r2
    2ff2:	781c      	ldrb	r4, [r3, #0]
    2ff4:	3c30      	subs	r4, #48	; 0x30
    2ff6:	2c09      	cmp	r4, #9
    2ff8:	d802      	bhi.n	3000 <chk_mounted(char const**, FATFS**, unsigned char)+0x14>
    2ffa:	785a      	ldrb	r2, [r3, #1]
    2ffc:	2a3a      	cmp	r2, #58	; 0x3a
    2ffe:	d013      	beq.n	3028 <chk_mounted(char const**, FATFS**, unsigned char)+0x3c>
    3000:	2300      	movs	r3, #0
    3002:	600b      	str	r3, [r1, #0]
    3004:	4bb1      	ldr	r3, [pc, #708]	; (32cc <chk_mounted(char const**, FATFS**, unsigned char)+0x2e0>)
    3006:	681c      	ldr	r4, [r3, #0]
    3008:	b1fc      	cbz	r4, 304a <chk_mounted(char const**, FATFS**, unsigned char)+0x5e>
    300a:	600c      	str	r4, [r1, #0]
    300c:	7823      	ldrb	r3, [r4, #0]
    300e:	b19b      	cbz	r3, 3038 <chk_mounted(char const**, FATFS**, unsigned char)+0x4c>
    3010:	7860      	ldrb	r0, [r4, #1]
    3012:	f002 fa57 	bl	54c4 <disk_status(unsigned char)>
    3016:	07c2      	lsls	r2, r0, #31
    3018:	d40e      	bmi.n	3038 <chk_mounted(char const**, FATFS**, unsigned char)+0x4c>
    301a:	b1ed      	cbz	r5, 3058 <chk_mounted(char const**, FATFS**, unsigned char)+0x6c>
    301c:	f010 0f04 	tst.w	r0, #4
    3020:	bf0c      	ite	eq
    3022:	2000      	moveq	r0, #0
    3024:	200a      	movne	r0, #10
    3026:	bdf8      	pop	{r3, r4, r5, r6, r7, pc}
    3028:	3302      	adds	r3, #2
    302a:	2200      	movs	r2, #0
    302c:	6003      	str	r3, [r0, #0]
    302e:	600a      	str	r2, [r1, #0]
    3030:	2c00      	cmp	r4, #0
    3032:	d0e7      	beq.n	3004 <chk_mounted(char const**, FATFS**, unsigned char)+0x18>
    3034:	200b      	movs	r0, #11
    3036:	bdf8      	pop	{r3, r4, r5, r6, r7, pc}
    3038:	2000      	movs	r0, #0
    303a:	7020      	strb	r0, [r4, #0]
    303c:	7060      	strb	r0, [r4, #1]
    303e:	f002 fa35 	bl	54ac <disk_initialize(unsigned char)>
    3042:	07c3      	lsls	r3, r0, #31
    3044:	d503      	bpl.n	304e <chk_mounted(char const**, FATFS**, unsigned char)+0x62>
    3046:	2003      	movs	r0, #3
    3048:	bdf8      	pop	{r3, r4, r5, r6, r7, pc}
    304a:	200c      	movs	r0, #12
    304c:	bdf8      	pop	{r3, r4, r5, r6, r7, pc}
    304e:	b12d      	cbz	r5, 305c <chk_mounted(char const**, FATFS**, unsigned char)+0x70>
    3050:	0747      	lsls	r7, r0, #29
    3052:	d503      	bpl.n	305c <chk_mounted(char const**, FATFS**, unsigned char)+0x70>
    3054:	200a      	movs	r0, #10
    3056:	bdf8      	pop	{r3, r4, r5, r6, r7, pc}
    3058:	4628      	mov	r0, r5
    305a:	bdf8      	pop	{r3, r4, r5, r6, r7, pc}
    305c:	4620      	mov	r0, r4
    305e:	2100      	movs	r1, #0
    3060:	f7ff ff80 	bl	2f64 <check_fs(FATFS*, unsigned long)>
    3064:	2801      	cmp	r0, #1
    3066:	d006      	beq.n	3076 <chk_mounted(char const**, FATFS**, unsigned char)+0x8a>
    3068:	2500      	movs	r5, #0
    306a:	2803      	cmp	r0, #3
    306c:	f000 80b0 	beq.w	31d0 <chk_mounted(char const**, FATFS**, unsigned char)+0x1e4>
    3070:	b1c0      	cbz	r0, 30a4 <chk_mounted(char const**, FATFS**, unsigned char)+0xb8>
    3072:	200d      	movs	r0, #13
    3074:	bdf8      	pop	{r3, r4, r5, r6, r7, pc}
    3076:	f894 31f2 	ldrb.w	r3, [r4, #498]	; 0x1f2
    307a:	2b00      	cmp	r3, #0
    307c:	d0f9      	beq.n	3072 <chk_mounted(char const**, FATFS**, unsigned char)+0x86>
    307e:	f894 21f8 	ldrb.w	r2, [r4, #504]	; 0x1f8
    3082:	f894 11f9 	ldrb.w	r1, [r4, #505]	; 0x1f9
    3086:	f894 31f6 	ldrb.w	r3, [r4, #502]	; 0x1f6
    308a:	0412      	lsls	r2, r2, #16
    308c:	ea42 6201 	orr.w	r2, r2, r1, lsl #24
    3090:	f894 51f7 	ldrb.w	r5, [r4, #503]	; 0x1f7
    3094:	4313      	orrs	r3, r2
    3096:	ea43 2505 	orr.w	r5, r3, r5, lsl #8
    309a:	4629      	mov	r1, r5
    309c:	4620      	mov	r0, r4
    309e:	f7ff ff61 	bl	2f64 <check_fs(FATFS*, unsigned long)>
    30a2:	e7e2      	b.n	306a <chk_mounted(char const**, FATFS**, unsigned char)+0x7e>
    30a4:	f894 203c 	ldrb.w	r2, [r4, #60]	; 0x3c
    30a8:	f894 303b 	ldrb.w	r3, [r4, #59]	; 0x3b
    30ac:	ea43 2302 	orr.w	r3, r3, r2, lsl #8
    30b0:	f5b3 7f00 	cmp.w	r3, #512	; 0x200
    30b4:	d1dd      	bne.n	3072 <chk_mounted(char const**, FATFS**, unsigned char)+0x86>
    30b6:	f894 1047 	ldrb.w	r1, [r4, #71]	; 0x47
    30ba:	f894 3046 	ldrb.w	r3, [r4, #70]	; 0x46
    30be:	ea53 2101 	orrs.w	r1, r3, r1, lsl #8
    30c2:	d10d      	bne.n	30e0 <chk_mounted(char const**, FATFS**, unsigned char)+0xf4>
    30c4:	f894 2056 	ldrb.w	r2, [r4, #86]	; 0x56
    30c8:	f894 1057 	ldrb.w	r1, [r4, #87]	; 0x57
    30cc:	0412      	lsls	r2, r2, #16
    30ce:	f894 3054 	ldrb.w	r3, [r4, #84]	; 0x54
    30d2:	ea42 6201 	orr.w	r2, r2, r1, lsl #24
    30d6:	f894 1055 	ldrb.w	r1, [r4, #85]	; 0x55
    30da:	4313      	orrs	r3, r2
    30dc:	ea43 2101 	orr.w	r1, r3, r1, lsl #8
    30e0:	f894 0040 	ldrb.w	r0, [r4, #64]	; 0x40
    30e4:	61e1      	str	r1, [r4, #28]
    30e6:	1e43      	subs	r3, r0, #1
    30e8:	2b01      	cmp	r3, #1
    30ea:	70e0      	strb	r0, [r4, #3]
    30ec:	d8c1      	bhi.n	3072 <chk_mounted(char const**, FATFS**, unsigned char)+0x86>
    30ee:	f894 303d 	ldrb.w	r3, [r4, #61]	; 0x3d
    30f2:	70a3      	strb	r3, [r4, #2]
    30f4:	2b00      	cmp	r3, #0
    30f6:	d0bc      	beq.n	3072 <chk_mounted(char const**, FATFS**, unsigned char)+0x86>
    30f8:	1e5a      	subs	r2, r3, #1
    30fa:	421a      	tst	r2, r3
    30fc:	d1b9      	bne.n	3072 <chk_mounted(char const**, FATFS**, unsigned char)+0x86>
    30fe:	f894 6042 	ldrb.w	r6, [r4, #66]	; 0x42
    3102:	f894 2041 	ldrb.w	r2, [r4, #65]	; 0x41
    3106:	ea42 2206 	orr.w	r2, r2, r6, lsl #8
    310a:	0716      	lsls	r6, r2, #28
    310c:	8122      	strh	r2, [r4, #8]
    310e:	d1b0      	bne.n	3072 <chk_mounted(char const**, FATFS**, unsigned char)+0x86>
    3110:	f894 7044 	ldrb.w	r7, [r4, #68]	; 0x44
    3114:	f894 6043 	ldrb.w	r6, [r4, #67]	; 0x43
    3118:	ea56 2607 	orrs.w	r6, r6, r7, lsl #8
    311c:	d10e      	bne.n	313c <chk_mounted(char const**, FATFS**, unsigned char)+0x150>
    311e:	f894 7052 	ldrb.w	r7, [r4, #82]	; 0x52
    3122:	f894 c053 	ldrb.w	r12, [r4, #83]	; 0x53
    3126:	043f      	lsls	r7, r7, #16
    3128:	f894 6050 	ldrb.w	r6, [r4, #80]	; 0x50
    312c:	ea47 6c0c 	orr.w	r12, r7, r12, lsl #24
    3130:	f894 7051 	ldrb.w	r7, [r4, #81]	; 0x51
    3134:	ea4c 0606 	orr.w	r6, r12, r6
    3138:	ea46 2607 	orr.w	r6, r6, r7, lsl #8
    313c:	f894 c03f 	ldrb.w	r12, [r4, #63]	; 0x3f
    3140:	f894 703e 	ldrb.w	r7, [r4, #62]	; 0x3e
    3144:	ea57 270c 	orrs.w	r7, r7, r12, lsl #8
    3148:	d093      	beq.n	3072 <chk_mounted(char const**, FATFS**, unsigned char)+0x86>
    314a:	fb00 fc01 	mul.w	r12, r0, r1
    314e:	eb07 1012 	add.w	r0, r7, r2, lsr #4
    3152:	4460      	add	r0, r12
    3154:	4286      	cmp	r6, r0
    3156:	d38c      	bcc.n	3072 <chk_mounted(char const**, FATFS**, unsigned char)+0x86>
    3158:	1a36      	subs	r6, r6, r0
    315a:	fbb6 f3f3 	udiv	r3, r6, r3
    315e:	2b00      	cmp	r3, #0
    3160:	d087      	beq.n	3072 <chk_mounted(char const**, FATFS**, unsigned char)+0x86>
    3162:	f640 76f5 	movw	r6, #4085	; 0xff5
    3166:	42b3      	cmp	r3, r6
    3168:	f240 80ad 	bls.w	32c6 <chk_mounted(char const**, FATFS**, unsigned char)+0x2da>
    316c:	f64f 76f5 	movw	r6, #65525	; 0xfff5
    3170:	42b3      	cmp	r3, r6
    3172:	f200 808d 	bhi.w	3290 <chk_mounted(char const**, FATFS**, unsigned char)+0x2a4>
    3176:	2602      	movs	r6, #2
    3178:	3302      	adds	r3, #2
    317a:	4428      	add	r0, r5
    317c:	442f      	add	r7, r5
    317e:	61a3      	str	r3, [r4, #24]
    3180:	62a0      	str	r0, [r4, #40]	; 0x28
    3182:	6227      	str	r7, [r4, #32]
    3184:	2a00      	cmp	r2, #0
    3186:	f43f af74 	beq.w	3072 <chk_mounted(char const**, FATFS**, unsigned char)+0x86>
    318a:	4467      	add	r7, r12
    318c:	2e02      	cmp	r6, #2
    318e:	6267      	str	r7, [r4, #36]	; 0x24
    3190:	d07c      	beq.n	328c <chk_mounted(char const**, FATFS**, unsigned char)+0x2a0>
    3192:	eb03 0243 	add.w	r2, r3, r3, lsl #1
    3196:	f003 0301 	and.w	r3, r3, #1
    319a:	eb03 0352 	add.w	r3, r3, r2, lsr #1
    319e:	2601      	movs	r6, #1
    31a0:	f203 13ff 	addw	r3, r3, #511	; 0x1ff
    31a4:	ebb1 2f53 	cmp.w	r1, r3, lsr #9
    31a8:	f4ff af63 	bcc.w	3072 <chk_mounted(char const**, FATFS**, unsigned char)+0x86>
    31ac:	f04f 32ff 	mov.w	r2, #4294967295	; 0xffffffff
    31b0:	2300      	movs	r3, #0
    31b2:	2e03      	cmp	r6, #3
    31b4:	6122      	str	r2, [r4, #16]
    31b6:	60e3      	str	r3, [r4, #12]
    31b8:	d00c      	beq.n	31d4 <chk_mounted(char const**, FATFS**, unsigned char)+0x1e8>
    31ba:	4a45      	ldr	r2, [pc, #276]	; (32d0 <chk_mounted(char const**, FATFS**, unsigned char)+0x2e4>)
    31bc:	2000      	movs	r0, #0
    31be:	8813      	ldrh	r3, [r2, #0]
    31c0:	7026      	strb	r6, [r4, #0]
    31c2:	3301      	adds	r3, #1
    31c4:	b29b      	uxth	r3, r3
    31c6:	7120      	strb	r0, [r4, #4]
    31c8:	8013      	strh	r3, [r2, #0]
    31ca:	80e3      	strh	r3, [r4, #6]
    31cc:	62e0      	str	r0, [r4, #44]	; 0x2c
    31ce:	bdf8      	pop	{r3, r4, r5, r6, r7, pc}
    31d0:	2001      	movs	r0, #1
    31d2:	bdf8      	pop	{r3, r4, r5, r6, r7, pc}
    31d4:	f894 1061 	ldrb.w	r1, [r4, #97]	; 0x61
    31d8:	f894 2060 	ldrb.w	r2, [r4, #96]	; 0x60
    31dc:	7163      	strb	r3, [r4, #5]
    31de:	ea42 2201 	orr.w	r2, r2, r1, lsl #8
    31e2:	442a      	add	r2, r5
    31e4:	6162      	str	r2, [r4, #20]
    31e6:	7860      	ldrb	r0, [r4, #1]
    31e8:	f104 0130 	add.w	r1, r4, #48	; 0x30
    31ec:	2301      	movs	r3, #1
    31ee:	f002 f975 	bl	54dc <disk_read(unsigned char, unsigned char*, unsigned long, unsigned char)>
    31f2:	2800      	cmp	r0, #0
    31f4:	d1e1      	bne.n	31ba <chk_mounted(char const**, FATFS**, unsigned char)+0x1ce>
    31f6:	f894 122f 	ldrb.w	r1, [r4, #559]	; 0x22f
    31fa:	f894 222e 	ldrb.w	r2, [r4, #558]	; 0x22e
    31fe:	4b35      	ldr	r3, [pc, #212]	; (32d4 <chk_mounted(char const**, FATFS**, unsigned char)+0x2e8>)
    3200:	ea42 2201 	orr.w	r2, r2, r1, lsl #8
    3204:	b212      	sxth	r2, r2
    3206:	429a      	cmp	r2, r3
    3208:	d1d7      	bne.n	31ba <chk_mounted(char const**, FATFS**, unsigned char)+0x1ce>
    320a:	f894 2032 	ldrb.w	r2, [r4, #50]	; 0x32
    320e:	f894 1033 	ldrb.w	r1, [r4, #51]	; 0x33
    3212:	f894 3030 	ldrb.w	r3, [r4, #48]	; 0x30
    3216:	0412      	lsls	r2, r2, #16
    3218:	ea42 6201 	orr.w	r2, r2, r1, lsl #24
    321c:	f894 1031 	ldrb.w	r1, [r4, #49]	; 0x31
    3220:	431a      	orrs	r2, r3
    3222:	4b2d      	ldr	r3, [pc, #180]	; (32d8 <chk_mounted(char const**, FATFS**, unsigned char)+0x2ec>)
    3224:	ea42 2201 	orr.w	r2, r2, r1, lsl #8
    3228:	429a      	cmp	r2, r3
    322a:	d1c6      	bne.n	31ba <chk_mounted(char const**, FATFS**, unsigned char)+0x1ce>
    322c:	f894 2216 	ldrb.w	r2, [r4, #534]	; 0x216
    3230:	f894 1217 	ldrb.w	r1, [r4, #535]	; 0x217
    3234:	f894 3214 	ldrb.w	r3, [r4, #532]	; 0x214
    3238:	0412      	lsls	r2, r2, #16
    323a:	ea42 6201 	orr.w	r2, r2, r1, lsl #24
    323e:	f894 1215 	ldrb.w	r1, [r4, #533]	; 0x215
    3242:	431a      	orrs	r2, r3
    3244:	4b25      	ldr	r3, [pc, #148]	; (32dc <chk_mounted(char const**, FATFS**, unsigned char)+0x2f0>)
    3246:	ea42 2201 	orr.w	r2, r2, r1, lsl #8
    324a:	429a      	cmp	r2, r3
    324c:	d1b5      	bne.n	31ba <chk_mounted(char const**, FATFS**, unsigned char)+0x1ce>
    324e:	f894 021e 	ldrb.w	r0, [r4, #542]	; 0x21e
    3252:	f894 121a 	ldrb.w	r1, [r4, #538]	; 0x21a
    3256:	f894 721f 	ldrb.w	r7, [r4, #543]	; 0x21f
    325a:	f894 521b 	ldrb.w	r5, [r4, #539]	; 0x21b
    325e:	0400      	lsls	r0, r0, #16
    3260:	0409      	lsls	r1, r1, #16
    3262:	f894 221c 	ldrb.w	r2, [r4, #540]	; 0x21c
    3266:	f894 3218 	ldrb.w	r3, [r4, #536]	; 0x218
    326a:	ea40 6707 	orr.w	r7, r0, r7, lsl #24
    326e:	ea41 6505 	orr.w	r5, r1, r5, lsl #24
    3272:	f894 021d 	ldrb.w	r0, [r4, #541]	; 0x21d
    3276:	f894 1219 	ldrb.w	r1, [r4, #537]	; 0x219
    327a:	433a      	orrs	r2, r7
    327c:	432b      	orrs	r3, r5
    327e:	ea42 2200 	orr.w	r2, r2, r0, lsl #8
    3282:	ea43 2301 	orr.w	r3, r3, r1, lsl #8
    3286:	60e2      	str	r2, [r4, #12]
    3288:	6123      	str	r3, [r4, #16]
    328a:	e796      	b.n	31ba <chk_mounted(char const**, FATFS**, unsigned char)+0x1ce>
    328c:	005b      	lsls	r3, r3, #1
    328e:	e787      	b.n	31a0 <chk_mounted(char const**, FATFS**, unsigned char)+0x1b4>
    3290:	3302      	adds	r3, #2
    3292:	4428      	add	r0, r5
    3294:	442f      	add	r7, r5
    3296:	61a3      	str	r3, [r4, #24]
    3298:	62a0      	str	r0, [r4, #40]	; 0x28
    329a:	6227      	str	r7, [r4, #32]
    329c:	2a00      	cmp	r2, #0
    329e:	f47f aee8 	bne.w	3072 <chk_mounted(char const**, FATFS**, unsigned char)+0x86>
    32a2:	f894 005e 	ldrb.w	r0, [r4, #94]	; 0x5e
    32a6:	f894 605f 	ldrb.w	r6, [r4, #95]	; 0x5f
    32aa:	0400      	lsls	r0, r0, #16
    32ac:	f894 205c 	ldrb.w	r2, [r4, #92]	; 0x5c
    32b0:	ea40 6606 	orr.w	r6, r0, r6, lsl #24
    32b4:	f894 005d 	ldrb.w	r0, [r4, #93]	; 0x5d
    32b8:	4332      	orrs	r2, r6
    32ba:	ea42 2200 	orr.w	r2, r2, r0, lsl #8
    32be:	009b      	lsls	r3, r3, #2
    32c0:	6262      	str	r2, [r4, #36]	; 0x24
    32c2:	2603      	movs	r6, #3
    32c4:	e76c      	b.n	31a0 <chk_mounted(char const**, FATFS**, unsigned char)+0x1b4>
    32c6:	2601      	movs	r6, #1
    32c8:	e756      	b.n	3178 <chk_mounted(char const**, FATFS**, unsigned char)+0x18c>
    32ca:	bf00      	nop
    32cc:	10000250 	.word	0x10000250
    32d0:	1000024c 	.word	0x1000024c
    32d4:	ffffaa55 	.word	0xffffaa55
    32d8:	41615252 	.word	0x41615252
    32dc:	61417272 	.word	0x61417272

000032e0 <get_fat(FATFS*, unsigned long) [clone .part.3]>:
    32e0:	b5f8      	push	{r3, r4, r5, r6, r7, lr}
    32e2:	7803      	ldrb	r3, [r0, #0]
    32e4:	4604      	mov	r4, r0
    32e6:	2b02      	cmp	r3, #2
    32e8:	460d      	mov	r5, r1
    32ea:	d046      	beq.n	337a <get_fat(FATFS*, unsigned long) [clone .part.3]+0x9a>
    32ec:	2b03      	cmp	r3, #3
    32ee:	d028      	beq.n	3342 <get_fat(FATFS*, unsigned long) [clone .part.3]+0x62>
    32f0:	2b01      	cmp	r3, #1
    32f2:	d002      	beq.n	32fa <get_fat(FATFS*, unsigned long) [clone .part.3]+0x1a>
    32f4:	f04f 30ff 	mov.w	r0, #4294967295	; 0xffffffff
    32f8:	bdf8      	pop	{r3, r4, r5, r6, r7, pc}
    32fa:	6a01      	ldr	r1, [r0, #32]
    32fc:	eb05 0655 	add.w	r6, r5, r5, lsr #1
    3300:	eb01 2156 	add.w	r1, r1, r6, lsr #9
    3304:	f7ff fcfa 	bl	2cfc <move_window(FATFS*, unsigned long)>
    3308:	2800      	cmp	r0, #0
    330a:	d1f3      	bne.n	32f4 <get_fat(FATFS*, unsigned long) [clone .part.3]+0x14>
    330c:	6a21      	ldr	r1, [r4, #32]
    330e:	f3c6 0308 	ubfx	r3, r6, #0, #9
    3312:	3601      	adds	r6, #1
    3314:	4423      	add	r3, r4
    3316:	eb01 2156 	add.w	r1, r1, r6, lsr #9
    331a:	4620      	mov	r0, r4
    331c:	f893 7030 	ldrb.w	r7, [r3, #48]	; 0x30
    3320:	f7ff fcec 	bl	2cfc <move_window(FATFS*, unsigned long)>
    3324:	2800      	cmp	r0, #0
    3326:	d1e5      	bne.n	32f4 <get_fat(FATFS*, unsigned long) [clone .part.3]+0x14>
    3328:	f3c6 0608 	ubfx	r6, r6, #0, #9
    332c:	4434      	add	r4, r6
    332e:	f894 3030 	ldrb.w	r3, [r4, #48]	; 0x30
    3332:	ea47 2003 	orr.w	r0, r7, r3, lsl #8
    3336:	07eb      	lsls	r3, r5, #31
    3338:	bf4c      	ite	mi
    333a:	0900      	lsrmi	r0, r0, #4
    333c:	f3c0 000b 	ubfxpl	r0, r0, #0, #12
    3340:	bdf8      	pop	{r3, r4, r5, r6, r7, pc}
    3342:	6a01      	ldr	r1, [r0, #32]
    3344:	eb01 11d5 	add.w	r1, r1, r5, lsr #7
    3348:	f7ff fcd8 	bl	2cfc <move_window(FATFS*, unsigned long)>
    334c:	2800      	cmp	r0, #0
    334e:	d1d1      	bne.n	32f4 <get_fat(FATFS*, unsigned long) [clone .part.3]+0x14>
    3350:	00ad      	lsls	r5, r5, #2
    3352:	f405 75fe 	and.w	r5, r5, #508	; 0x1fc
    3356:	f105 0330 	add.w	r3, r5, #48	; 0x30
    335a:	4423      	add	r3, r4
    335c:	78d8      	ldrb	r0, [r3, #3]
    335e:	7899      	ldrb	r1, [r3, #2]
    3360:	785a      	ldrb	r2, [r3, #1]
    3362:	442c      	add	r4, r5
    3364:	0600      	lsls	r0, r0, #24
    3366:	f894 3030 	ldrb.w	r3, [r4, #48]	; 0x30
    336a:	ea40 4001 	orr.w	r0, r0, r1, lsl #16
    336e:	ea40 2002 	orr.w	r0, r0, r2, lsl #8
    3372:	4318      	orrs	r0, r3
    3374:	f020 4070 	bic.w	r0, r0, #4026531840	; 0xf0000000
    3378:	bdf8      	pop	{r3, r4, r5, r6, r7, pc}
    337a:	6a01      	ldr	r1, [r0, #32]
    337c:	eb01 2115 	add.w	r1, r1, r5, lsr #8
    3380:	f7ff fcbc 	bl	2cfc <move_window(FATFS*, unsigned long)>
    3384:	2800      	cmp	r0, #0
    3386:	d1b5      	bne.n	32f4 <get_fat(FATFS*, unsigned long) [clone .part.3]+0x14>
    3388:	006d      	lsls	r5, r5, #1
    338a:	f405 75ff 	and.w	r5, r5, #510	; 0x1fe
    338e:	1963      	adds	r3, r4, r5
    3390:	461c      	mov	r4, r3
    3392:	f894 0031 	ldrb.w	r0, [r4, #49]	; 0x31
    3396:	f893 3030 	ldrb.w	r3, [r3, #48]	; 0x30
    339a:	ea43 2000 	orr.w	r0, r3, r0, lsl #8
    339e:	bdf8      	pop	{r3, r4, r5, r6, r7, pc}

000033a0 <dir_sdi(FATFS_DIR*, unsigned short)>:
    33a0:	6883      	ldr	r3, [r0, #8]
    33a2:	b570      	push	{r4, r5, r6, lr}
    33a4:	2b01      	cmp	r3, #1
    33a6:	4604      	mov	r4, r0
    33a8:	460d      	mov	r5, r1
    33aa:	80e1      	strh	r1, [r4, #6]
    33ac:	d003      	beq.n	33b6 <dir_sdi(FATFS_DIR*, unsigned short)+0x16>
    33ae:	6800      	ldr	r0, [r0, #0]
    33b0:	6982      	ldr	r2, [r0, #24]
    33b2:	4293      	cmp	r3, r2
    33b4:	d301      	bcc.n	33ba <dir_sdi(FATFS_DIR*, unsigned short)+0x1a>
    33b6:	2002      	movs	r0, #2
    33b8:	bd70      	pop	{r4, r5, r6, pc}
    33ba:	b9b3      	cbnz	r3, 33ea <dir_sdi(FATFS_DIR*, unsigned short)+0x4a>
    33bc:	7803      	ldrb	r3, [r0, #0]
    33be:	2b03      	cmp	r3, #3
    33c0:	d010      	beq.n	33e4 <dir_sdi(FATFS_DIR*, unsigned short)+0x44>
    33c2:	8903      	ldrh	r3, [r0, #8]
    33c4:	2200      	movs	r2, #0
    33c6:	42ab      	cmp	r3, r5
    33c8:	60e2      	str	r2, [r4, #12]
    33ca:	d9f4      	bls.n	33b6 <dir_sdi(FATFS_DIR*, unsigned short)+0x16>
    33cc:	6a43      	ldr	r3, [r0, #36]	; 0x24
    33ce:	eb03 1315 	add.w	r3, r3, r5, lsr #4
    33d2:	6123      	str	r3, [r4, #16]
    33d4:	f005 050f 	and.w	r5, r5, #15
    33d8:	3030      	adds	r0, #48	; 0x30
    33da:	eb00 1045 	add.w	r0, r0, r5, lsl #5
    33de:	6160      	str	r0, [r4, #20]
    33e0:	2000      	movs	r0, #0
    33e2:	bd70      	pop	{r4, r5, r6, pc}
    33e4:	6a43      	ldr	r3, [r0, #36]	; 0x24
    33e6:	2b00      	cmp	r3, #0
    33e8:	d0eb      	beq.n	33c2 <dir_sdi(FATFS_DIR*, unsigned short)+0x22>
    33ea:	7886      	ldrb	r6, [r0, #2]
    33ec:	0136      	lsls	r6, r6, #4
    33ee:	42b5      	cmp	r5, r6
    33f0:	d319      	bcc.n	3426 <dir_sdi(FATFS_DIR*, unsigned short)+0x86>
    33f2:	2b01      	cmp	r3, #1
    33f4:	d9df      	bls.n	33b6 <dir_sdi(FATFS_DIR*, unsigned short)+0x16>
    33f6:	1bad      	subs	r5, r5, r6
    33f8:	429a      	cmp	r2, r3
    33fa:	b2ad      	uxth	r5, r5
    33fc:	d9db      	bls.n	33b6 <dir_sdi(FATFS_DIR*, unsigned short)+0x16>
    33fe:	e008      	b.n	3412 <dir_sdi(FATFS_DIR*, unsigned short)+0x72>
    3400:	2801      	cmp	r0, #1
    3402:	d9d8      	bls.n	33b6 <dir_sdi(FATFS_DIR*, unsigned short)+0x16>
    3404:	6820      	ldr	r0, [r4, #0]
    3406:	6982      	ldr	r2, [r0, #24]
    3408:	429a      	cmp	r2, r3
    340a:	d9d4      	bls.n	33b6 <dir_sdi(FATFS_DIR*, unsigned short)+0x16>
    340c:	42ae      	cmp	r6, r5
    340e:	d80a      	bhi.n	3426 <dir_sdi(FATFS_DIR*, unsigned short)+0x86>
    3410:	460d      	mov	r5, r1
    3412:	4619      	mov	r1, r3
    3414:	f7ff ff64 	bl	32e0 <get_fat(FATFS*, unsigned long) [clone .part.3]>
    3418:	1ba9      	subs	r1, r5, r6
    341a:	1c42      	adds	r2, r0, #1
    341c:	4603      	mov	r3, r0
    341e:	b289      	uxth	r1, r1
    3420:	d1ee      	bne.n	3400 <dir_sdi(FATFS_DIR*, unsigned short)+0x60>
    3422:	2001      	movs	r0, #1
    3424:	bd70      	pop	{r4, r5, r6, pc}
    3426:	1e99      	subs	r1, r3, #2
    3428:	3a02      	subs	r2, #2
    342a:	4291      	cmp	r1, r2
    342c:	60e3      	str	r3, [r4, #12]
    342e:	bf3b      	ittet	cc
    3430:	7882      	ldrbcc	r2, [r0, #2]
    3432:	6a83      	ldrcc	r3, [r0, #40]	; 0x28
    3434:	2100      	movcs	r1, #0
    3436:	fb02 3101 	mlacc	r1, r2, r1, r3
    343a:	eb01 1115 	add.w	r1, r1, r5, lsr #4
    343e:	6121      	str	r1, [r4, #16]
    3440:	e7c8      	b.n	33d4 <dir_sdi(FATFS_DIR*, unsigned short)+0x34>
    3442:	bf00      	nop

00003444 <put_fat(FATFS*, unsigned long, unsigned long) [clone .part.4]>:
    3444:	b5f8      	push	{r3, r4, r5, r6, r7, lr}
    3446:	7803      	ldrb	r3, [r0, #0]
    3448:	4604      	mov	r4, r0
    344a:	2b02      	cmp	r3, #2
    344c:	460d      	mov	r5, r1
    344e:	4616      	mov	r6, r2
    3450:	d059      	beq.n	3506 <put_fat(FATFS*, unsigned long, unsigned long) [clone .part.4]+0xc2>
    3452:	2b03      	cmp	r3, #3
    3454:	d038      	beq.n	34c8 <put_fat(FATFS*, unsigned long, unsigned long) [clone .part.4]+0x84>
    3456:	2b01      	cmp	r3, #1
    3458:	d003      	beq.n	3462 <put_fat(FATFS*, unsigned long, unsigned long) [clone .part.4]+0x1e>
    345a:	2002      	movs	r0, #2
    345c:	2301      	movs	r3, #1
    345e:	7123      	strb	r3, [r4, #4]
    3460:	bdf8      	pop	{r3, r4, r5, r6, r7, pc}
    3462:	6a01      	ldr	r1, [r0, #32]
    3464:	eb05 0755 	add.w	r7, r5, r5, lsr #1
    3468:	eb01 2157 	add.w	r1, r1, r7, lsr #9
    346c:	f7ff fc46 	bl	2cfc <move_window(FATFS*, unsigned long)>
    3470:	2800      	cmp	r0, #0
    3472:	d1f3      	bne.n	345c <put_fat(FATFS*, unsigned long, unsigned long) [clone .part.4]+0x18>
    3474:	f3c7 0308 	ubfx	r3, r7, #0, #9
    3478:	f015 0501 	ands.w	r5, r5, #1
    347c:	4423      	add	r3, r4
    347e:	d056      	beq.n	352e <put_fat(FATFS*, unsigned long, unsigned long) [clone .part.4]+0xea>
    3480:	f893 2030 	ldrb.w	r2, [r3, #48]	; 0x30
    3484:	b2f0      	uxtb	r0, r6
    3486:	f002 020f 	and.w	r2, r2, #15
    348a:	ea42 1000 	orr.w	r0, r2, r0, lsl #4
    348e:	b2c0      	uxtb	r0, r0
    3490:	6a21      	ldr	r1, [r4, #32]
    3492:	3701      	adds	r7, #1
    3494:	2201      	movs	r2, #1
    3496:	f883 0030 	strb.w	r0, [r3, #48]	; 0x30
    349a:	eb01 2157 	add.w	r1, r1, r7, lsr #9
    349e:	7122      	strb	r2, [r4, #4]
    34a0:	4620      	mov	r0, r4
    34a2:	f7ff fc2b 	bl	2cfc <move_window(FATFS*, unsigned long)>
    34a6:	2800      	cmp	r0, #0
    34a8:	d1d8      	bne.n	345c <put_fat(FATFS*, unsigned long, unsigned long) [clone .part.4]+0x18>
    34aa:	f3c7 0708 	ubfx	r7, r7, #0, #9
    34ae:	2d00      	cmp	r5, #0
    34b0:	d13f      	bne.n	3532 <put_fat(FATFS*, unsigned long, unsigned long) [clone .part.4]+0xee>
    34b2:	4427      	add	r7, r4
    34b4:	f897 3030 	ldrb.w	r3, [r7, #48]	; 0x30
    34b8:	f3c6 2603 	ubfx	r6, r6, #8, #4
    34bc:	f023 030f 	bic.w	r3, r3, #15
    34c0:	431e      	orrs	r6, r3
    34c2:	f887 6030 	strb.w	r6, [r7, #48]	; 0x30
    34c6:	e7c9      	b.n	345c <put_fat(FATFS*, unsigned long, unsigned long) [clone .part.4]+0x18>
    34c8:	6a01      	ldr	r1, [r0, #32]
    34ca:	eb01 11d5 	add.w	r1, r1, r5, lsr #7
    34ce:	f7ff fc15 	bl	2cfc <move_window(FATFS*, unsigned long)>
    34d2:	2800      	cmp	r0, #0
    34d4:	d1c2      	bne.n	345c <put_fat(FATFS*, unsigned long, unsigned long) [clone .part.4]+0x18>
    34d6:	00ad      	lsls	r5, r5, #2
    34d8:	f405 75fe 	and.w	r5, r5, #508	; 0x1fc
    34dc:	f105 0330 	add.w	r3, r5, #48	; 0x30
    34e0:	4423      	add	r3, r4
    34e2:	78da      	ldrb	r2, [r3, #3]
    34e4:	4425      	add	r5, r4
    34e6:	0612      	lsls	r2, r2, #24
    34e8:	f002 4270 	and.w	r2, r2, #4026531840	; 0xf0000000
    34ec:	4316      	orrs	r6, r2
    34ee:	f3c6 2707 	ubfx	r7, r6, #8, #8
    34f2:	0c31      	lsrs	r1, r6, #16
    34f4:	0e32      	lsrs	r2, r6, #24
    34f6:	f885 6030 	strb.w	r6, [r5, #48]	; 0x30
    34fa:	705f      	strb	r7, [r3, #1]
    34fc:	7099      	strb	r1, [r3, #2]
    34fe:	70da      	strb	r2, [r3, #3]
    3500:	2301      	movs	r3, #1
    3502:	7123      	strb	r3, [r4, #4]
    3504:	bdf8      	pop	{r3, r4, r5, r6, r7, pc}
    3506:	6a01      	ldr	r1, [r0, #32]
    3508:	eb01 2115 	add.w	r1, r1, r5, lsr #8
    350c:	f7ff fbf6 	bl	2cfc <move_window(FATFS*, unsigned long)>
    3510:	2800      	cmp	r0, #0
    3512:	d1a3      	bne.n	345c <put_fat(FATFS*, unsigned long, unsigned long) [clone .part.4]+0x18>
    3514:	006d      	lsls	r5, r5, #1
    3516:	f405 75ff 	and.w	r5, r5, #510	; 0x1fe
    351a:	1962      	adds	r2, r4, r5
    351c:	f3c6 2307 	ubfx	r3, r6, #8, #8
    3520:	f882 3031 	strb.w	r3, [r2, #49]	; 0x31
    3524:	2301      	movs	r3, #1
    3526:	f882 6030 	strb.w	r6, [r2, #48]	; 0x30
    352a:	7123      	strb	r3, [r4, #4]
    352c:	bdf8      	pop	{r3, r4, r5, r6, r7, pc}
    352e:	b2f0      	uxtb	r0, r6
    3530:	e7ae      	b.n	3490 <put_fat(FATFS*, unsigned long, unsigned long) [clone .part.4]+0x4c>
    3532:	f3c6 1607 	ubfx	r6, r6, #4, #8
    3536:	4427      	add	r7, r4
    3538:	e7c3      	b.n	34c2 <put_fat(FATFS*, unsigned long, unsigned long) [clone .part.4]+0x7e>
    353a:	bf00      	nop

0000353c <create_chain(FATFS*, unsigned long)>:
    353c:	b5f8      	push	{r3, r4, r5, r6, r7, lr}
    353e:	4605      	mov	r5, r0
    3540:	460f      	mov	r7, r1
    3542:	b9f9      	cbnz	r1, 3584 <create_chain(FATFS*, unsigned long)+0x48>
    3544:	68c6      	ldr	r6, [r0, #12]
    3546:	6983      	ldr	r3, [r0, #24]
    3548:	b356      	cbz	r6, 35a0 <create_chain(FATFS*, unsigned long)+0x64>
    354a:	429e      	cmp	r6, r3
    354c:	bf28      	it	cs
    354e:	2601      	movcs	r6, #1
    3550:	4634      	mov	r4, r6
    3552:	e010      	b.n	3576 <create_chain(FATFS*, unsigned long)+0x3a>
    3554:	2e01      	cmp	r6, #1
    3556:	d925      	bls.n	35a4 <create_chain(FATFS*, unsigned long)+0x68>
    3558:	2b02      	cmp	r3, #2
    355a:	d911      	bls.n	3580 <create_chain(FATFS*, unsigned long)+0x44>
    355c:	2402      	movs	r4, #2
    355e:	4628      	mov	r0, r5
    3560:	4621      	mov	r1, r4
    3562:	f7ff febd 	bl	32e0 <get_fat(FATFS*, unsigned long) [clone .part.3]>
    3566:	b320      	cbz	r0, 35b2 <create_chain(FATFS*, unsigned long)+0x76>
    3568:	1c41      	adds	r1, r0, #1
    356a:	d01f      	beq.n	35ac <create_chain(FATFS*, unsigned long)+0x70>
    356c:	2801      	cmp	r0, #1
    356e:	d007      	beq.n	3580 <create_chain(FATFS*, unsigned long)+0x44>
    3570:	42a6      	cmp	r6, r4
    3572:	d017      	beq.n	35a4 <create_chain(FATFS*, unsigned long)+0x68>
    3574:	69ab      	ldr	r3, [r5, #24]
    3576:	3401      	adds	r4, #1
    3578:	429c      	cmp	r4, r3
    357a:	d2eb      	bcs.n	3554 <create_chain(FATFS*, unsigned long)+0x18>
    357c:	2c01      	cmp	r4, #1
    357e:	d8ee      	bhi.n	355e <create_chain(FATFS*, unsigned long)+0x22>
    3580:	2001      	movs	r0, #1
    3582:	bdf8      	pop	{r3, r4, r5, r6, r7, pc}
    3584:	2901      	cmp	r1, #1
    3586:	d9fb      	bls.n	3580 <create_chain(FATFS*, unsigned long)+0x44>
    3588:	6983      	ldr	r3, [r0, #24]
    358a:	4299      	cmp	r1, r3
    358c:	d2f8      	bcs.n	3580 <create_chain(FATFS*, unsigned long)+0x44>
    358e:	f7ff fea7 	bl	32e0 <get_fat(FATFS*, unsigned long) [clone .part.3]>
    3592:	2801      	cmp	r0, #1
    3594:	d9f4      	bls.n	3580 <create_chain(FATFS*, unsigned long)+0x44>
    3596:	69ab      	ldr	r3, [r5, #24]
    3598:	4283      	cmp	r3, r0
    359a:	d8f2      	bhi.n	3582 <create_chain(FATFS*, unsigned long)+0x46>
    359c:	463e      	mov	r6, r7
    359e:	e7d7      	b.n	3550 <create_chain(FATFS*, unsigned long)+0x14>
    35a0:	2601      	movs	r6, #1
    35a2:	e7d5      	b.n	3550 <create_chain(FATFS*, unsigned long)+0x14>
    35a4:	2000      	movs	r0, #0
    35a6:	bdf8      	pop	{r3, r4, r5, r6, r7, pc}
    35a8:	2801      	cmp	r0, #1
    35aa:	d1e9      	bne.n	3580 <create_chain(FATFS*, unsigned long)+0x44>
    35ac:	f04f 30ff 	mov.w	r0, #4294967295	; 0xffffffff
    35b0:	bdf8      	pop	{r3, r4, r5, r6, r7, pc}
    35b2:	69ab      	ldr	r3, [r5, #24]
    35b4:	42a3      	cmp	r3, r4
    35b6:	d9e3      	bls.n	3580 <create_chain(FATFS*, unsigned long)+0x44>
    35b8:	4628      	mov	r0, r5
    35ba:	4621      	mov	r1, r4
    35bc:	f06f 4270 	mvn.w	r2, #4026531840	; 0xf0000000
    35c0:	f7ff ff40 	bl	3444 <put_fat(FATFS*, unsigned long, unsigned long) [clone .part.4]>
    35c4:	2800      	cmp	r0, #0
    35c6:	d1ef      	bne.n	35a8 <create_chain(FATFS*, unsigned long)+0x6c>
    35c8:	b15f      	cbz	r7, 35e2 <create_chain(FATFS*, unsigned long)+0xa6>
    35ca:	2f01      	cmp	r7, #1
    35cc:	d9d8      	bls.n	3580 <create_chain(FATFS*, unsigned long)+0x44>
    35ce:	69ab      	ldr	r3, [r5, #24]
    35d0:	429f      	cmp	r7, r3
    35d2:	d2d5      	bcs.n	3580 <create_chain(FATFS*, unsigned long)+0x44>
    35d4:	4639      	mov	r1, r7
    35d6:	4628      	mov	r0, r5
    35d8:	4622      	mov	r2, r4
    35da:	f7ff ff33 	bl	3444 <put_fat(FATFS*, unsigned long, unsigned long) [clone .part.4]>
    35de:	2800      	cmp	r0, #0
    35e0:	d1e2      	bne.n	35a8 <create_chain(FATFS*, unsigned long)+0x6c>
    35e2:	692b      	ldr	r3, [r5, #16]
    35e4:	60ec      	str	r4, [r5, #12]
    35e6:	1c5a      	adds	r2, r3, #1
    35e8:	d005      	beq.n	35f6 <create_chain(FATFS*, unsigned long)+0xba>
    35ea:	2201      	movs	r2, #1
    35ec:	3b01      	subs	r3, #1
    35ee:	716a      	strb	r2, [r5, #5]
    35f0:	612b      	str	r3, [r5, #16]
    35f2:	4620      	mov	r0, r4
    35f4:	bdf8      	pop	{r3, r4, r5, r6, r7, pc}
    35f6:	4620      	mov	r0, r4
    35f8:	bdf8      	pop	{r3, r4, r5, r6, r7, pc}
    35fa:	bf00      	nop

000035fc <dir_next(FATFS_DIR*, int)>:
    35fc:	e92d 47f0 	stmdb	sp!, {r4, r5, r6, r7, r8, r9, r10, lr}
    3600:	88c5      	ldrh	r5, [r0, #6]
    3602:	4604      	mov	r4, r0
    3604:	3501      	adds	r5, #1
    3606:	b2ad      	uxth	r5, r5
    3608:	460e      	mov	r6, r1
    360a:	b915      	cbnz	r5, 3612 <dir_next(FATFS_DIR*, int)+0x16>
    360c:	2004      	movs	r0, #4
    360e:	e8bd 87f0 	ldmia.w	sp!, {r4, r5, r6, r7, r8, r9, r10, pc}
    3612:	6903      	ldr	r3, [r0, #16]
    3614:	2b00      	cmp	r3, #0
    3616:	d0f9      	beq.n	360c <dir_next(FATFS_DIR*, int)+0x10>
    3618:	f015 070f 	ands.w	r7, r5, #15
    361c:	d008      	beq.n	3630 <dir_next(FATFS_DIR*, int)+0x34>
    361e:	6803      	ldr	r3, [r0, #0]
    3620:	3330      	adds	r3, #48	; 0x30
    3622:	eb03 1747 	add.w	r7, r3, r7, lsl #5
    3626:	6167      	str	r7, [r4, #20]
    3628:	80e5      	strh	r5, [r4, #6]
    362a:	2000      	movs	r0, #0
    362c:	e8bd 87f0 	ldmia.w	sp!, {r4, r5, r6, r7, r8, r9, r10, pc}
    3630:	68c1      	ldr	r1, [r0, #12]
    3632:	3301      	adds	r3, #1
    3634:	6103      	str	r3, [r0, #16]
    3636:	6803      	ldr	r3, [r0, #0]
    3638:	b161      	cbz	r1, 3654 <dir_next(FATFS_DIR*, int)+0x58>
    363a:	789a      	ldrb	r2, [r3, #2]
    363c:	3a01      	subs	r2, #1
    363e:	ea12 1215 	ands.w	r2, r2, r5, lsr #4
    3642:	d1ed      	bne.n	3620 <dir_next(FATFS_DIR*, int)+0x24>
    3644:	2901      	cmp	r1, #1
    3646:	d902      	bls.n	364e <dir_next(FATFS_DIR*, int)+0x52>
    3648:	699a      	ldr	r2, [r3, #24]
    364a:	4291      	cmp	r1, r2
    364c:	d306      	bcc.n	365c <dir_next(FATFS_DIR*, int)+0x60>
    364e:	2002      	movs	r0, #2
    3650:	e8bd 87f0 	ldmia.w	sp!, {r4, r5, r6, r7, r8, r9, r10, pc}
    3654:	891a      	ldrh	r2, [r3, #8]
    3656:	42aa      	cmp	r2, r5
    3658:	d9d8      	bls.n	360c <dir_next(FATFS_DIR*, int)+0x10>
    365a:	e7e1      	b.n	3620 <dir_next(FATFS_DIR*, int)+0x24>
    365c:	4618      	mov	r0, r3
    365e:	f7ff fe3f 	bl	32e0 <get_fat(FATFS*, unsigned long) [clone .part.3]>
    3662:	2801      	cmp	r0, #1
    3664:	4680      	mov	r8, r0
    3666:	d9f2      	bls.n	364e <dir_next(FATFS_DIR*, int)+0x52>
    3668:	f1b0 3fff 	cmp.w	r0, #4294967295	; 0xffffffff
    366c:	d01b      	beq.n	36a6 <dir_next(FATFS_DIR*, int)+0xaa>
    366e:	6823      	ldr	r3, [r4, #0]
    3670:	699a      	ldr	r2, [r3, #24]
    3672:	4282      	cmp	r2, r0
    3674:	d90c      	bls.n	3690 <dir_next(FATFS_DIR*, int)+0x94>
    3676:	1e86      	subs	r6, r0, #2
    3678:	3a02      	subs	r2, #2
    367a:	4296      	cmp	r6, r2
    367c:	f8c4 800c 	str.w	r8, [r4, #12]
    3680:	bf3b      	ittet	cc
    3682:	7899      	ldrbcc	r1, [r3, #2]
    3684:	6a9a      	ldrcc	r2, [r3, #40]	; 0x28
    3686:	2600      	movcs	r6, #0
    3688:	fb01 2606 	mlacc	r6, r1, r6, r2
    368c:	6126      	str	r6, [r4, #16]
    368e:	e7c7      	b.n	3620 <dir_next(FATFS_DIR*, int)+0x24>
    3690:	2e00      	cmp	r6, #0
    3692:	d0bb      	beq.n	360c <dir_next(FATFS_DIR*, int)+0x10>
    3694:	4618      	mov	r0, r3
    3696:	68e1      	ldr	r1, [r4, #12]
    3698:	f7ff ff50 	bl	353c <create_chain(FATFS*, unsigned long)>
    369c:	4680      	mov	r8, r0
    369e:	b928      	cbnz	r0, 36ac <dir_next(FATFS_DIR*, int)+0xb0>
    36a0:	2007      	movs	r0, #7
    36a2:	e8bd 87f0 	ldmia.w	sp!, {r4, r5, r6, r7, r8, r9, r10, pc}
    36a6:	2001      	movs	r0, #1
    36a8:	e8bd 87f0 	ldmia.w	sp!, {r4, r5, r6, r7, r8, r9, r10, pc}
    36ac:	2801      	cmp	r0, #1
    36ae:	d0ce      	beq.n	364e <dir_next(FATFS_DIR*, int)+0x52>
    36b0:	f1b0 3fff 	cmp.w	r0, #4294967295	; 0xffffffff
    36b4:	d0f7      	beq.n	36a6 <dir_next(FATFS_DIR*, int)+0xaa>
    36b6:	6820      	ldr	r0, [r4, #0]
    36b8:	2100      	movs	r1, #0
    36ba:	f7ff fb1f 	bl	2cfc <move_window(FATFS*, unsigned long)>
    36be:	2800      	cmp	r0, #0
    36c0:	d1f1      	bne.n	36a6 <dir_next(FATFS_DIR*, int)+0xaa>
    36c2:	6822      	ldr	r2, [r4, #0]
    36c4:	4601      	mov	r1, r0
    36c6:	f102 0330 	add.w	r3, r2, #48	; 0x30
    36ca:	f502 720c 	add.w	r2, r2, #560	; 0x230
    36ce:	f803 1b01 	strb.w	r1, [r3], #1
    36d2:	4293      	cmp	r3, r2
    36d4:	d1fb      	bne.n	36ce <dir_next(FATFS_DIR*, int)+0xd2>
    36d6:	6822      	ldr	r2, [r4, #0]
    36d8:	f1a8 0602 	sub.w	r6, r8, #2
    36dc:	6993      	ldr	r3, [r2, #24]
    36de:	f04f 0900 	mov.w	r9, #0
    36e2:	3b02      	subs	r3, #2
    36e4:	429e      	cmp	r6, r3
    36e6:	bf3b      	ittet	cc
    36e8:	6a93      	ldrcc	r3, [r2, #40]	; 0x28
    36ea:	7891      	ldrbcc	r1, [r2, #2]
    36ec:	2300      	movcs	r3, #0
    36ee:	fb01 3306 	mlacc	r3, r1, r6, r3
    36f2:	f04f 0a01 	mov.w	r10, #1
    36f6:	62d3      	str	r3, [r2, #44]	; 0x2c
    36f8:	e00c      	b.n	3714 <dir_next(FATFS_DIR*, int)+0x118>
    36fa:	f882 a004 	strb.w	r10, [r2, #4]
    36fe:	6820      	ldr	r0, [r4, #0]
    3700:	f7ff fafc 	bl	2cfc <move_window(FATFS*, unsigned long)>
    3704:	f109 0901 	add.w	r9, r9, #1
    3708:	2800      	cmp	r0, #0
    370a:	d1cc      	bne.n	36a6 <dir_next(FATFS_DIR*, int)+0xaa>
    370c:	6822      	ldr	r2, [r4, #0]
    370e:	6ad3      	ldr	r3, [r2, #44]	; 0x2c
    3710:	3301      	adds	r3, #1
    3712:	62d3      	str	r3, [r2, #44]	; 0x2c
    3714:	f892 c002 	ldrb.w	r12, [r2, #2]
    3718:	fa5f f089 	uxtb.w	r0, r9
    371c:	4584      	cmp	r12, r0
    371e:	f04f 0100 	mov.w	r1, #0
    3722:	4613      	mov	r3, r2
    3724:	d8e9      	bhi.n	36fa <dir_next(FATFS_DIR*, int)+0xfe>
    3726:	6ad1      	ldr	r1, [r2, #44]	; 0x2c
    3728:	6992      	ldr	r2, [r2, #24]
    372a:	1a09      	subs	r1, r1, r0
    372c:	62d9      	str	r1, [r3, #44]	; 0x2c
    372e:	e7a3      	b.n	3678 <dir_next(FATFS_DIR*, int)+0x7c>

00003730 <dir_read(FATFS_DIR*)>:
    3730:	e92d 43f8 	stmdb	sp!, {r3, r4, r5, r6, r7, r8, r9, lr}
    3734:	26ff      	movs	r6, #255	; 0xff
    3736:	4604      	mov	r4, r0
    3738:	4635      	mov	r5, r6
    373a:	2004      	movs	r0, #4
    373c:	4f42      	ldr	r7, [pc, #264]	; (3848 <dir_read(FATFS_DIR*)+0x118>)
    373e:	e009      	b.n	3754 <dir_read(FATFS_DIR*)+0x24>
    3740:	f1bc 0f0f 	cmp.w	r12, #15
    3744:	d01e      	beq.n	3784 <dir_read(FATFS_DIR*)+0x54>
    3746:	25ff      	movs	r5, #255	; 0xff
    3748:	4620      	mov	r0, r4
    374a:	2100      	movs	r1, #0
    374c:	f7ff ff56 	bl	35fc <dir_next(FATFS_DIR*, int)>
    3750:	2800      	cmp	r0, #0
    3752:	d14d      	bne.n	37f0 <dir_read(FATFS_DIR*)+0xc0>
    3754:	6921      	ldr	r1, [r4, #16]
    3756:	2900      	cmp	r1, #0
    3758:	d04e      	beq.n	37f8 <dir_read(FATFS_DIR*)+0xc8>
    375a:	6820      	ldr	r0, [r4, #0]
    375c:	f7ff face 	bl	2cfc <move_window(FATFS*, unsigned long)>
    3760:	2800      	cmp	r0, #0
    3762:	d145      	bne.n	37f0 <dir_read(FATFS_DIR*)+0xc0>
    3764:	6962      	ldr	r2, [r4, #20]
    3766:	7813      	ldrb	r3, [r2, #0]
    3768:	2b00      	cmp	r3, #0
    376a:	d040      	beq.n	37ee <dir_read(FATFS_DIR*)+0xbe>
    376c:	2be5      	cmp	r3, #229	; 0xe5
    376e:	7ad1      	ldrb	r1, [r2, #11]
    3770:	d0e9      	beq.n	3746 <dir_read(FATFS_DIR*)+0x16>
    3772:	2b2e      	cmp	r3, #46	; 0x2e
    3774:	d0e7      	beq.n	3746 <dir_read(FATFS_DIR*)+0x16>
    3776:	f001 0c3f 	and.w	r12, r1, #63	; 0x3f
    377a:	0709      	lsls	r1, r1, #28
    377c:	d4e0      	bmi.n	3740 <dir_read(FATFS_DIR*)+0x10>
    377e:	f1bc 0f0f 	cmp.w	r12, #15
    3782:	d149      	bne.n	3818 <dir_read(FATFS_DIR*)+0xe8>
    3784:	0659      	lsls	r1, r3, #25
    3786:	d52f      	bpl.n	37e8 <dir_read(FATFS_DIR*)+0xb8>
    3788:	88e1      	ldrh	r1, [r4, #6]
    378a:	7b56      	ldrb	r6, [r2, #13]
    378c:	f003 05bf 	and.w	r5, r3, #191	; 0xbf
    3790:	8421      	strh	r1, [r4, #32]
    3792:	f892 e00d 	ldrb.w	lr, [r2, #13]
    3796:	45b6      	cmp	lr, r6
    3798:	d1d5      	bne.n	3746 <dir_read(FATFS_DIR*)+0x16>
    379a:	7811      	ldrb	r1, [r2, #0]
    379c:	f8d4 801c 	ldr.w	r8, [r4, #28]
    37a0:	f001 013f 	and.w	r1, r1, #63	; 0x3f
    37a4:	3901      	subs	r1, #1
    37a6:	eb01 0041 	add.w	r0, r1, r1, lsl #1
    37aa:	4b28      	ldr	r3, [pc, #160]	; (384c <dir_read(FATFS_DIR*)+0x11c>)
    37ac:	eb01 0080 	add.w	r0, r1, r0, lsl #2
    37b0:	f04f 0c01 	mov.w	r12, #1
    37b4:	f64f 79ff 	movw	r9, #65535	; 0xffff
    37b8:	e007      	b.n	37ca <dir_read(FATFS_DIR*)+0x9a>
    37ba:	28fe      	cmp	r0, #254	; 0xfe
    37bc:	d811      	bhi.n	37e2 <dir_read(FATFS_DIR*)+0xb2>
    37be:	f828 1010 	strh.w	r1, [r8, r0, lsl #1]
    37c2:	468c      	mov	r12, r1
    37c4:	3001      	adds	r0, #1
    37c6:	42bb      	cmp	r3, r7
    37c8:	d01a      	beq.n	3800 <dir_read(FATFS_DIR*)+0xd0>
    37ca:	f813 1f01 	ldrb.w	r1, [r3, #1]!
    37ce:	1856      	adds	r6, r2, r1
    37d0:	7876      	ldrb	r6, [r6, #1]
    37d2:	5c51      	ldrb	r1, [r2, r1]
    37d4:	ea41 2106 	orr.w	r1, r1, r6, lsl #8
    37d8:	f1bc 0f00 	cmp.w	r12, #0
    37dc:	d1ed      	bne.n	37ba <dir_read(FATFS_DIR*)+0x8a>
    37de:	4549      	cmp	r1, r9
    37e0:	d0f1      	beq.n	37c6 <dir_read(FATFS_DIR*)+0x96>
    37e2:	4676      	mov	r6, lr
    37e4:	25ff      	movs	r5, #255	; 0xff
    37e6:	e7af      	b.n	3748 <dir_read(FATFS_DIR*)+0x18>
    37e8:	429d      	cmp	r5, r3
    37ea:	d1ac      	bne.n	3746 <dir_read(FATFS_DIR*)+0x16>
    37ec:	e7d1      	b.n	3792 <dir_read(FATFS_DIR*)+0x62>
    37ee:	2004      	movs	r0, #4
    37f0:	2300      	movs	r3, #0
    37f2:	6123      	str	r3, [r4, #16]
    37f4:	e8bd 83f8 	ldmia.w	sp!, {r3, r4, r5, r6, r7, r8, r9, pc}
    37f8:	2800      	cmp	r0, #0
    37fa:	d1f9      	bne.n	37f0 <dir_read(FATFS_DIR*)+0xc0>
    37fc:	e8bd 83f8 	ldmia.w	sp!, {r3, r4, r5, r6, r7, r8, r9, pc}
    3800:	7813      	ldrb	r3, [r2, #0]
    3802:	065b      	lsls	r3, r3, #25
    3804:	d504      	bpl.n	3810 <dir_read(FATFS_DIR*)+0xe0>
    3806:	28fe      	cmp	r0, #254	; 0xfe
    3808:	d8eb      	bhi.n	37e2 <dir_read(FATFS_DIR*)+0xb2>
    380a:	2300      	movs	r3, #0
    380c:	f828 3010 	strh.w	r3, [r8, r0, lsl #1]
    3810:	3d01      	subs	r5, #1
    3812:	b2ed      	uxtb	r5, r5
    3814:	4676      	mov	r6, lr
    3816:	e797      	b.n	3748 <dir_read(FATFS_DIR*)+0x18>
    3818:	b98d      	cbnz	r5, 383e <dir_read(FATFS_DIR*)+0x10e>
    381a:	f102 070a 	add.w	r7, r2, #10
    381e:	4601      	mov	r1, r0
    3820:	e001      	b.n	3826 <dir_read(FATFS_DIR*)+0xf6>
    3822:	f812 3f01 	ldrb.w	r3, [r2, #1]!
    3826:	01cd      	lsls	r5, r1, #7
    3828:	eb05 0161 	add.w	r1, r5, r1, asr #1
    382c:	4419      	add	r1, r3
    382e:	42ba      	cmp	r2, r7
    3830:	f001 01ff 	and.w	r1, r1, #255	; 0xff
    3834:	d1f5      	bne.n	3822 <dir_read(FATFS_DIR*)+0xf2>
    3836:	428e      	cmp	r6, r1
    3838:	d101      	bne.n	383e <dir_read(FATFS_DIR*)+0x10e>
    383a:	e8bd 83f8 	ldmia.w	sp!, {r3, r4, r5, r6, r7, r8, r9, pc}
    383e:	f64f 73ff 	movw	r3, #65535	; 0xffff
    3842:	8423      	strh	r3, [r4, #32]
    3844:	e8bd 83f8 	ldmia.w	sp!, {r3, r4, r5, r6, r7, r8, r9, pc}
    3848:	0000b980 	.word	0x0000b980
    384c:	0000b973 	.word	0x0000b973

00003850 <dir_remove(FATFS_DIR*)>:
    3850:	b5f8      	push	{r3, r4, r5, r6, r7, lr}
    3852:	8c01      	ldrh	r1, [r0, #32]
    3854:	88c5      	ldrh	r5, [r0, #6]
    3856:	f64f 73ff 	movw	r3, #65535	; 0xffff
    385a:	4299      	cmp	r1, r3
    385c:	bf08      	it	eq
    385e:	4629      	moveq	r1, r5
    3860:	4604      	mov	r4, r0
    3862:	f7ff fd9d 	bl	33a0 <dir_sdi(FATFS_DIR*, unsigned short)>
    3866:	4603      	mov	r3, r0
    3868:	b9c8      	cbnz	r0, 389e <dir_remove(FATFS_DIR*)+0x4e>
    386a:	27e5      	movs	r7, #229	; 0xe5
    386c:	2601      	movs	r6, #1
    386e:	e00a      	b.n	3886 <dir_remove(FATFS_DIR*)+0x36>
    3870:	6962      	ldr	r2, [r4, #20]
    3872:	7017      	strb	r7, [r2, #0]
    3874:	6822      	ldr	r2, [r4, #0]
    3876:	7116      	strb	r6, [r2, #4]
    3878:	88e2      	ldrh	r2, [r4, #6]
    387a:	42aa      	cmp	r2, r5
    387c:	d20f      	bcs.n	389e <dir_remove(FATFS_DIR*)+0x4e>
    387e:	f7ff febd 	bl	35fc <dir_next(FATFS_DIR*, int)>
    3882:	4603      	mov	r3, r0
    3884:	b940      	cbnz	r0, 3898 <dir_remove(FATFS_DIR*)+0x48>
    3886:	6921      	ldr	r1, [r4, #16]
    3888:	6820      	ldr	r0, [r4, #0]
    388a:	f7ff fa37 	bl	2cfc <move_window(FATFS*, unsigned long)>
    388e:	4603      	mov	r3, r0
    3890:	4601      	mov	r1, r0
    3892:	4620      	mov	r0, r4
    3894:	2b00      	cmp	r3, #0
    3896:	d0eb      	beq.n	3870 <dir_remove(FATFS_DIR*)+0x20>
    3898:	2b04      	cmp	r3, #4
    389a:	bf08      	it	eq
    389c:	2302      	moveq	r3, #2
    389e:	4618      	mov	r0, r3
    38a0:	bdf8      	pop	{r3, r4, r5, r6, r7, pc}
    38a2:	bf00      	nop

000038a4 <dir_find(FATFS_DIR*) [clone .part.5]>:
    38a4:	e92d 4ff0 	stmdb	sp!, {r4, r5, r6, r7, r8, r9, r10, r11, lr}
    38a8:	26ff      	movs	r6, #255	; 0xff
    38aa:	b083      	sub	sp, #12
    38ac:	4f4f      	ldr	r7, [pc, #316]	; (39ec <dir_find(FATFS_DIR*) [clone .part.5]+0x148>)
    38ae:	4605      	mov	r5, r0
    38b0:	46b0      	mov	r8, r6
    38b2:	e009      	b.n	38c8 <dir_find(FATFS_DIR*) [clone .part.5]+0x24>
    38b4:	290f      	cmp	r1, #15
    38b6:	d043      	beq.n	3940 <dir_find(FATFS_DIR*) [clone .part.5]+0x9c>
    38b8:	f04f 08ff 	mov.w	r8, #255	; 0xff
    38bc:	4628      	mov	r0, r5
    38be:	2100      	movs	r1, #0
    38c0:	f7ff fe9c 	bl	35fc <dir_next(FATFS_DIR*, int)>
    38c4:	2800      	cmp	r0, #0
    38c6:	d138      	bne.n	393a <dir_find(FATFS_DIR*) [clone .part.5]+0x96>
    38c8:	6828      	ldr	r0, [r5, #0]
    38ca:	6929      	ldr	r1, [r5, #16]
    38cc:	f7ff fa16 	bl	2cfc <move_window(FATFS*, unsigned long)>
    38d0:	2800      	cmp	r0, #0
    38d2:	d132      	bne.n	393a <dir_find(FATFS_DIR*) [clone .part.5]+0x96>
    38d4:	696c      	ldr	r4, [r5, #20]
    38d6:	7823      	ldrb	r3, [r4, #0]
    38d8:	2b00      	cmp	r3, #0
    38da:	d068      	beq.n	39ae <dir_find(FATFS_DIR*) [clone .part.5]+0x10a>
    38dc:	7ae2      	ldrb	r2, [r4, #11]
    38de:	2be5      	cmp	r3, #229	; 0xe5
    38e0:	f002 013f 	and.w	r1, r2, #63	; 0x3f
    38e4:	d0e8      	beq.n	38b8 <dir_find(FATFS_DIR*) [clone .part.5]+0x14>
    38e6:	0712      	lsls	r2, r2, #28
    38e8:	d4e4      	bmi.n	38b4 <dir_find(FATFS_DIR*) [clone .part.5]+0x10>
    38ea:	290f      	cmp	r1, #15
    38ec:	d028      	beq.n	3940 <dir_find(FATFS_DIR*) [clone .part.5]+0x9c>
    38ee:	f1b8 0f00 	cmp.w	r8, #0
    38f2:	d111      	bne.n	3918 <dir_find(FATFS_DIR*) [clone .part.5]+0x74>
    38f4:	469c      	mov	r12, r3
    38f6:	4622      	mov	r2, r4
    38f8:	f104 080a 	add.w	r8, r4, #10
    38fc:	4603      	mov	r3, r0
    38fe:	e001      	b.n	3904 <dir_find(FATFS_DIR*) [clone .part.5]+0x60>
    3900:	f812 cf01 	ldrb.w	r12, [r2, #1]!
    3904:	01d9      	lsls	r1, r3, #7
    3906:	eb01 0363 	add.w	r3, r1, r3, asr #1
    390a:	4463      	add	r3, r12
    390c:	4542      	cmp	r2, r8
    390e:	f003 03ff 	and.w	r3, r3, #255	; 0xff
    3912:	d1f5      	bne.n	3900 <dir_find(FATFS_DIR*) [clone .part.5]+0x5c>
    3914:	42b3      	cmp	r3, r6
    3916:	d010      	beq.n	393a <dir_find(FATFS_DIR*) [clone .part.5]+0x96>
    3918:	f64f 72ff 	movw	r2, #65535	; 0xffff
    391c:	69ab      	ldr	r3, [r5, #24]
    391e:	842a      	strh	r2, [r5, #32]
    3920:	7ada      	ldrb	r2, [r3, #11]
    3922:	07d2      	lsls	r2, r2, #31
    3924:	d4c8      	bmi.n	38b8 <dir_find(FATFS_DIR*) [clone .part.5]+0x14>
    3926:	f103 0c0b 	add.w	r12, r3, #11
    392a:	f814 1b01 	ldrb.w	r1, [r4], #1
    392e:	f813 2b01 	ldrb.w	r2, [r3], #1
    3932:	4291      	cmp	r1, r2
    3934:	d1c0      	bne.n	38b8 <dir_find(FATFS_DIR*) [clone .part.5]+0x14>
    3936:	4563      	cmp	r3, r12
    3938:	d1f7      	bne.n	392a <dir_find(FATFS_DIR*) [clone .part.5]+0x86>
    393a:	b003      	add	sp, #12
    393c:	e8bd 8ff0 	ldmia.w	sp!, {r4, r5, r6, r7, r8, r9, r10, r11, pc}
    3940:	69ea      	ldr	r2, [r5, #28]
    3942:	2a00      	cmp	r2, #0
    3944:	d0ba      	beq.n	38bc <dir_find(FATFS_DIR*) [clone .part.5]+0x18>
    3946:	0659      	lsls	r1, r3, #25
    3948:	d52e      	bpl.n	39a8 <dir_find(FATFS_DIR*) [clone .part.5]+0x104>
    394a:	88e9      	ldrh	r1, [r5, #6]
    394c:	7b66      	ldrb	r6, [r4, #13]
    394e:	f003 08bf 	and.w	r8, r3, #191	; 0xbf
    3952:	8429      	strh	r1, [r5, #32]
    3954:	f894 a00d 	ldrb.w	r10, [r4, #13]
    3958:	45b2      	cmp	r10, r6
    395a:	d1ad      	bne.n	38b8 <dir_find(FATFS_DIR*) [clone .part.5]+0x14>
    395c:	7823      	ldrb	r3, [r4, #0]
    395e:	4e24      	ldr	r6, [pc, #144]	; (39f0 <dir_find(FATFS_DIR*) [clone .part.5]+0x14c>)
    3960:	f023 0340 	bic.w	r3, r3, #64	; 0x40
    3964:	3b01      	subs	r3, #1
    3966:	eb03 0943 	add.w	r9, r3, r3, lsl #1
    396a:	eb03 0989 	add.w	r9, r3, r9, lsl #2
    396e:	2101      	movs	r1, #1
    3970:	f64f 7bff 	movw	r11, #65535	; 0xffff
    3974:	e003      	b.n	397e <dir_find(FATFS_DIR*) [clone .part.5]+0xda>
    3976:	4558      	cmp	r0, r11
    3978:	d112      	bne.n	39a0 <dir_find(FATFS_DIR*) [clone .part.5]+0xfc>
    397a:	42be      	cmp	r6, r7
    397c:	d027      	beq.n	39ce <dir_find(FATFS_DIR*) [clone .part.5]+0x12a>
    397e:	f816 3f01 	ldrb.w	r3, [r6, #1]!
    3982:	18e0      	adds	r0, r4, r3
    3984:	7840      	ldrb	r0, [r0, #1]
    3986:	5ce3      	ldrb	r3, [r4, r3]
    3988:	ea43 2000 	orr.w	r0, r3, r0, lsl #8
    398c:	2900      	cmp	r1, #0
    398e:	d0f2      	beq.n	3976 <dir_find(FATFS_DIR*) [clone .part.5]+0xd2>
    3990:	9200      	str	r2, [sp, #0]
    3992:	f001 fd75 	bl	5480 <ff_wtoupper>
    3996:	f1b9 0ffe 	cmp.w	r9, #254	; 0xfe
    399a:	4601      	mov	r1, r0
    399c:	9a00      	ldr	r2, [sp, #0]
    399e:	d90a      	bls.n	39b6 <dir_find(FATFS_DIR*) [clone .part.5]+0x112>
    39a0:	4656      	mov	r6, r10
    39a2:	f04f 08ff 	mov.w	r8, #255	; 0xff
    39a6:	e789      	b.n	38bc <dir_find(FATFS_DIR*) [clone .part.5]+0x18>
    39a8:	4543      	cmp	r3, r8
    39aa:	d185      	bne.n	38b8 <dir_find(FATFS_DIR*) [clone .part.5]+0x14>
    39ac:	e7d2      	b.n	3954 <dir_find(FATFS_DIR*) [clone .part.5]+0xb0>
    39ae:	2004      	movs	r0, #4
    39b0:	b003      	add	sp, #12
    39b2:	e8bd 8ff0 	ldmia.w	sp!, {r4, r5, r6, r7, r8, r9, r10, r11, pc}
    39b6:	f832 0019 	ldrh.w	r0, [r2, r9, lsl #1]
    39ba:	9101      	str	r1, [sp, #4]
    39bc:	f001 fd60 	bl	5480 <ff_wtoupper>
    39c0:	9901      	ldr	r1, [sp, #4]
    39c2:	9a00      	ldr	r2, [sp, #0]
    39c4:	4281      	cmp	r1, r0
    39c6:	d1eb      	bne.n	39a0 <dir_find(FATFS_DIR*) [clone .part.5]+0xfc>
    39c8:	f109 0901 	add.w	r9, r9, #1
    39cc:	e7d5      	b.n	397a <dir_find(FATFS_DIR*) [clone .part.5]+0xd6>
    39ce:	7823      	ldrb	r3, [r4, #0]
    39d0:	0658      	lsls	r0, r3, #25
    39d2:	d504      	bpl.n	39de <dir_find(FATFS_DIR*) [clone .part.5]+0x13a>
    39d4:	b119      	cbz	r1, 39de <dir_find(FATFS_DIR*) [clone .part.5]+0x13a>
    39d6:	f832 3019 	ldrh.w	r3, [r2, r9, lsl #1]
    39da:	2b00      	cmp	r3, #0
    39dc:	d1e0      	bne.n	39a0 <dir_find(FATFS_DIR*) [clone .part.5]+0xfc>
    39de:	f108 38ff 	add.w	r8, r8, #4294967295	; 0xffffffff
    39e2:	fa5f f888 	uxtb.w	r8, r8
    39e6:	4656      	mov	r6, r10
    39e8:	e768      	b.n	38bc <dir_find(FATFS_DIR*) [clone .part.5]+0x18>
    39ea:	bf00      	nop
    39ec:	0000b980 	.word	0x0000b980
    39f0:	0000b973 	.word	0x0000b973

000039f4 <remove_chain(FATFS*, unsigned long) [clone .part.6]>:
    39f4:	b5f8      	push	{r3, r4, r5, r6, r7, lr}
    39f6:	4604      	mov	r4, r0
    39f8:	460d      	mov	r5, r1
    39fa:	2701      	movs	r7, #1
    39fc:	69a3      	ldr	r3, [r4, #24]
    39fe:	4629      	mov	r1, r5
    3a00:	429d      	cmp	r5, r3
    3a02:	d220      	bcs.n	3a46 <remove_chain(FATFS*, unsigned long) [clone .part.6]+0x52>
    3a04:	2d01      	cmp	r5, #1
    3a06:	d90b      	bls.n	3a20 <remove_chain(FATFS*, unsigned long) [clone .part.6]+0x2c>
    3a08:	4620      	mov	r0, r4
    3a0a:	f7ff fc69 	bl	32e0 <get_fat(FATFS*, unsigned long) [clone .part.3]>
    3a0e:	4606      	mov	r6, r0
    3a10:	b1c8      	cbz	r0, 3a46 <remove_chain(FATFS*, unsigned long) [clone .part.6]+0x52>
    3a12:	2801      	cmp	r0, #1
    3a14:	d004      	beq.n	3a20 <remove_chain(FATFS*, unsigned long) [clone .part.6]+0x2c>
    3a16:	1c41      	adds	r1, r0, #1
    3a18:	d017      	beq.n	3a4a <remove_chain(FATFS*, unsigned long) [clone .part.6]+0x56>
    3a1a:	69a3      	ldr	r3, [r4, #24]
    3a1c:	429d      	cmp	r5, r3
    3a1e:	d301      	bcc.n	3a24 <remove_chain(FATFS*, unsigned long) [clone .part.6]+0x30>
    3a20:	2002      	movs	r0, #2
    3a22:	bdf8      	pop	{r3, r4, r5, r6, r7, pc}
    3a24:	4629      	mov	r1, r5
    3a26:	4620      	mov	r0, r4
    3a28:	2200      	movs	r2, #0
    3a2a:	f7ff fd0b 	bl	3444 <put_fat(FATFS*, unsigned long, unsigned long) [clone .part.4]>
    3a2e:	b968      	cbnz	r0, 3a4c <remove_chain(FATFS*, unsigned long) [clone .part.6]+0x58>
    3a30:	6923      	ldr	r3, [r4, #16]
    3a32:	4635      	mov	r5, r6
    3a34:	1c5a      	adds	r2, r3, #1
    3a36:	d0e1      	beq.n	39fc <remove_chain(FATFS*, unsigned long) [clone .part.6]+0x8>
    3a38:	3301      	adds	r3, #1
    3a3a:	6123      	str	r3, [r4, #16]
    3a3c:	69a3      	ldr	r3, [r4, #24]
    3a3e:	7167      	strb	r7, [r4, #5]
    3a40:	429d      	cmp	r5, r3
    3a42:	4629      	mov	r1, r5
    3a44:	d3de      	bcc.n	3a04 <remove_chain(FATFS*, unsigned long) [clone .part.6]+0x10>
    3a46:	2000      	movs	r0, #0
    3a48:	bdf8      	pop	{r3, r4, r5, r6, r7, pc}
    3a4a:	2001      	movs	r0, #1
    3a4c:	bdf8      	pop	{r3, r4, r5, r6, r7, pc}
    3a4e:	bf00      	nop

00003a50 <follow_path(FATFS_DIR*, char const*)>:
    3a50:	e92d 4ff0 	stmdb	sp!, {r4, r5, r6, r7, r8, r9, r10, r11, lr}
    3a54:	780b      	ldrb	r3, [r1, #0]
    3a56:	b083      	sub	sp, #12
    3a58:	2b2f      	cmp	r3, #47	; 0x2f
    3a5a:	468a      	mov	r10, r1
    3a5c:	4606      	mov	r6, r0
    3a5e:	f000 813f 	beq.w	3ce0 <follow_path(FATFS_DIR*, char const*)+0x290>
    3a62:	2b5c      	cmp	r3, #92	; 0x5c
    3a64:	f000 813c 	beq.w	3ce0 <follow_path(FATFS_DIR*, char const*)+0x290>
    3a68:	2400      	movs	r4, #0
    3a6a:	60b4      	str	r4, [r6, #8]
    3a6c:	f89a 0000 	ldrb.w	r0, [r10]
    3a70:	281f      	cmp	r0, #31
    3a72:	d802      	bhi.n	3a7a <follow_path(FATFS_DIR*, char const*)+0x2a>
    3a74:	e13d      	b.n	3cf2 <follow_path(FATFS_DIR*, char const*)+0x2a2>
    3a76:	f81a 0f01 	ldrb.w	r0, [r10, #1]!
    3a7a:	282f      	cmp	r0, #47	; 0x2f
    3a7c:	d0fb      	beq.n	3a76 <follow_path(FATFS_DIR*, char const*)+0x26>
    3a7e:	285c      	cmp	r0, #92	; 0x5c
    3a80:	d0f9      	beq.n	3a76 <follow_path(FATFS_DIR*, char const*)+0x26>
    3a82:	281f      	cmp	r0, #31
    3a84:	69f7      	ldr	r7, [r6, #28]
    3a86:	f240 80ff 	bls.w	3c88 <follow_path(FATFS_DIR*, char const*)+0x238>
    3a8a:	282f      	cmp	r0, #47	; 0x2f
    3a8c:	d02f      	beq.n	3aee <follow_path(FATFS_DIR*, char const*)+0x9e>
    3a8e:	285c      	cmp	r0, #92	; 0x5c
    3a90:	d02d      	beq.n	3aee <follow_path(FATFS_DIR*, char const*)+0x9e>
    3a92:	2101      	movs	r1, #1
    3a94:	1ebd      	subs	r5, r7, #2
    3a96:	4654      	mov	r4, r10
    3a98:	f04f 0901 	mov.w	r9, #1
    3a9c:	f001 fcca 	bl	5434 <ff_convert>
    3aa0:	b308      	cbz	r0, 3ae6 <follow_path(FATFS_DIR*, char const*)+0x96>
    3aa2:	287f      	cmp	r0, #127	; 0x7f
    3aa4:	d809      	bhi.n	3aba <follow_path(FATFS_DIR*, char const*)+0x6a>
    3aa6:	2822      	cmp	r0, #34	; 0x22
    3aa8:	d01d      	beq.n	3ae6 <follow_path(FATFS_DIR*, char const*)+0x96>
    3aaa:	4a9d      	ldr	r2, [pc, #628]	; (3d20 <follow_path(FATFS_DIR*, char const*)+0x2d0>)
    3aac:	e001      	b.n	3ab2 <follow_path(FATFS_DIR*, char const*)+0x62>
    3aae:	4298      	cmp	r0, r3
    3ab0:	d019      	beq.n	3ae6 <follow_path(FATFS_DIR*, char const*)+0x96>
    3ab2:	f812 3f01 	ldrb.w	r3, [r2, #1]!
    3ab6:	2b00      	cmp	r3, #0
    3ab8:	d1f9      	bne.n	3aae <follow_path(FATFS_DIR*, char const*)+0x5e>
    3aba:	f825 0f02 	strh.w	r0, [r5, #2]!
    3abe:	f814 0f01 	ldrb.w	r0, [r4, #1]!
    3ac2:	f109 0301 	add.w	r3, r9, #1
    3ac6:	281f      	cmp	r0, #31
    3ac8:	f240 80e1 	bls.w	3c8e <follow_path(FATFS_DIR*, char const*)+0x23e>
    3acc:	282f      	cmp	r0, #47	; 0x2f
    3ace:	d011      	beq.n	3af4 <follow_path(FATFS_DIR*, char const*)+0xa4>
    3ad0:	285c      	cmp	r0, #92	; 0x5c
    3ad2:	d00f      	beq.n	3af4 <follow_path(FATFS_DIR*, char const*)+0xa4>
    3ad4:	f5b3 7f80 	cmp.w	r3, #256	; 0x100
    3ad8:	d005      	beq.n	3ae6 <follow_path(FATFS_DIR*, char const*)+0x96>
    3ada:	2101      	movs	r1, #1
    3adc:	4699      	mov	r9, r3
    3ade:	f001 fca9 	bl	5434 <ff_convert>
    3ae2:	2800      	cmp	r0, #0
    3ae4:	d1dd      	bne.n	3aa2 <follow_path(FATFS_DIR*, char const*)+0x52>
    3ae6:	2006      	movs	r0, #6
    3ae8:	b003      	add	sp, #12
    3aea:	e8bd 8ff0 	ldmia.w	sp!, {r4, r5, r6, r7, r8, r9, r10, r11, pc}
    3aee:	f04f 0900 	mov.w	r9, #0
    3af2:	2301      	movs	r3, #1
    3af4:	449a      	add	r10, r3
    3af6:	2500      	movs	r5, #0
    3af8:	f1b9 0f00 	cmp.w	r9, #0
    3afc:	d0f3      	beq.n	3ae6 <follow_path(FATFS_DIR*, char const*)+0x96>
    3afe:	eb07 0049 	add.w	r0, r7, r9, lsl #1
    3b02:	f830 2d02 	ldrh.w	r2, [r0, #-2]!
    3b06:	2a20      	cmp	r2, #32
    3b08:	d001      	beq.n	3b0e <follow_path(FATFS_DIR*, char const*)+0xbe>
    3b0a:	2a2e      	cmp	r2, #46	; 0x2e
    3b0c:	d103      	bne.n	3b16 <follow_path(FATFS_DIR*, char const*)+0xc6>
    3b0e:	f1b9 0901 	subs.w	r9, r9, #1
    3b12:	d1f6      	bne.n	3b02 <follow_path(FATFS_DIR*, char const*)+0xb2>
    3b14:	e7e7      	b.n	3ae6 <follow_path(FATFS_DIR*, char const*)+0x96>
    3b16:	69b3      	ldr	r3, [r6, #24]
    3b18:	2200      	movs	r2, #0
    3b1a:	f827 2019 	strh.w	r2, [r7, r9, lsl #1]
    3b1e:	f103 010b 	add.w	r1, r3, #11
    3b22:	eb07 0e49 	add.w	lr, r7, r9, lsl #1
    3b26:	2220      	movs	r2, #32
    3b28:	f803 2b01 	strb.w	r2, [r3], #1
    3b2c:	428b      	cmp	r3, r1
    3b2e:	d1fb      	bne.n	3b28 <follow_path(FATFS_DIR*, char const*)+0xd8>
    3b30:	1ebb      	subs	r3, r7, #2
    3b32:	2400      	movs	r4, #0
    3b34:	e000      	b.n	3b38 <follow_path(FATFS_DIR*, char const*)+0xe8>
    3b36:	3401      	adds	r4, #1
    3b38:	f833 0f02 	ldrh.w	r0, [r3, #2]!
    3b3c:	2820      	cmp	r0, #32
    3b3e:	d0fa      	beq.n	3b36 <follow_path(FATFS_DIR*, char const*)+0xe6>
    3b40:	282e      	cmp	r0, #46	; 0x2e
    3b42:	d0f8      	beq.n	3b36 <follow_path(FATFS_DIR*, char const*)+0xe6>
    3b44:	b10c      	cbz	r4, 3b4a <follow_path(FATFS_DIR*, char const*)+0xfa>
    3b46:	f045 0503 	orr.w	r5, r5, #3
    3b4a:	4673      	mov	r3, lr
    3b4c:	f833 2d02 	ldrh.w	r2, [r3, #-2]!
    3b50:	2a2e      	cmp	r2, #46	; 0x2e
    3b52:	d002      	beq.n	3b5a <follow_path(FATFS_DIR*, char const*)+0x10a>
    3b54:	f1b9 0901 	subs.w	r9, r9, #1
    3b58:	d1f8      	bne.n	3b4c <follow_path(FATFS_DIR*, char const*)+0xfc>
    3b5a:	f04f 0b00 	mov.w	r11, #0
    3b5e:	46d8      	mov	r8, r11
    3b60:	2308      	movs	r3, #8
    3b62:	3401      	adds	r4, #1
    3b64:	b330      	cbz	r0, 3bb4 <follow_path(FATFS_DIR*, char const*)+0x164>
    3b66:	2820      	cmp	r0, #32
    3b68:	d067      	beq.n	3c3a <follow_path(FATFS_DIR*, char const*)+0x1ea>
    3b6a:	282e      	cmp	r0, #46	; 0x2e
    3b6c:	d063      	beq.n	3c36 <follow_path(FATFS_DIR*, char const*)+0x1e6>
    3b6e:	459b      	cmp	r11, r3
    3b70:	d266      	bcs.n	3c40 <follow_path(FATFS_DIR*, char const*)+0x1f0>
    3b72:	45a1      	cmp	r9, r4
    3b74:	f000 80c9 	beq.w	3d0a <follow_path(FATFS_DIR*, char const*)+0x2ba>
    3b78:	287f      	cmp	r0, #127	; 0x7f
    3b7a:	d872      	bhi.n	3c62 <follow_path(FATFS_DIR*, char const*)+0x212>
    3b7c:	282b      	cmp	r0, #43	; 0x2b
    3b7e:	d07f      	beq.n	3c80 <follow_path(FATFS_DIR*, char const*)+0x230>
    3b80:	4a68      	ldr	r2, [pc, #416]	; (3d24 <follow_path(FATFS_DIR*, char const*)+0x2d4>)
    3b82:	e001      	b.n	3b88 <follow_path(FATFS_DIR*, char const*)+0x138>
    3b84:	4288      	cmp	r0, r1
    3b86:	d07b      	beq.n	3c80 <follow_path(FATFS_DIR*, char const*)+0x230>
    3b88:	f812 1f01 	ldrb.w	r1, [r2, #1]!
    3b8c:	2900      	cmp	r1, #0
    3b8e:	d1f9      	bne.n	3b84 <follow_path(FATFS_DIR*, char const*)+0x134>
    3b90:	f1a0 0141 	sub.w	r1, r0, #65	; 0x41
    3b94:	2919      	cmp	r1, #25
    3b96:	f200 8090 	bhi.w	3cba <follow_path(FATFS_DIR*, char const*)+0x26a>
    3b9a:	f048 0802 	orr.w	r8, r8, #2
    3b9e:	b2c0      	uxtb	r0, r0
    3ba0:	69b1      	ldr	r1, [r6, #24]
    3ba2:	f801 000b 	strb.w	r0, [r1, r11]
    3ba6:	f10b 0b01 	add.w	r11, r11, #1
    3baa:	f837 0014 	ldrh.w	r0, [r7, r4, lsl #1]
    3bae:	3401      	adds	r4, #1
    3bb0:	2800      	cmp	r0, #0
    3bb2:	d1d8      	bne.n	3b66 <follow_path(FATFS_DIR*, char const*)+0x116>
    3bb4:	69b1      	ldr	r1, [r6, #24]
    3bb6:	7808      	ldrb	r0, [r1, #0]
    3bb8:	28e5      	cmp	r0, #229	; 0xe5
    3bba:	f000 80a2 	beq.w	3d02 <follow_path(FATFS_DIR*, char const*)+0x2b2>
    3bbe:	2b08      	cmp	r3, #8
    3bc0:	bf04      	itt	eq
    3bc2:	ea4f 0288 	moveq.w	r2, r8, lsl #2
    3bc6:	fa5f f882 	uxtbeq.w	r8, r2
    3bca:	f008 030c 	and.w	r3, r8, #12
    3bce:	2b0c      	cmp	r3, #12
    3bd0:	f000 8083 	beq.w	3cda <follow_path(FATFS_DIR*, char const*)+0x28a>
    3bd4:	f008 0003 	and.w	r0, r8, #3
    3bd8:	2803      	cmp	r0, #3
    3bda:	d07e      	beq.n	3cda <follow_path(FATFS_DIR*, char const*)+0x28a>
    3bdc:	07a8      	lsls	r0, r5, #30
    3bde:	d409      	bmi.n	3bf4 <follow_path(FATFS_DIR*, char const*)+0x1a4>
    3be0:	f008 0203 	and.w	r2, r8, #3
    3be4:	2a01      	cmp	r2, #1
    3be6:	bf08      	it	eq
    3be8:	f045 0510 	orreq.w	r5, r5, #16
    3bec:	2b04      	cmp	r3, #4
    3bee:	bf08      	it	eq
    3bf0:	f045 0508 	orreq.w	r5, r5, #8
    3bf4:	72cd      	strb	r5, [r1, #11]
    3bf6:	4630      	mov	r0, r6
    3bf8:	2100      	movs	r1, #0
    3bfa:	f7ff fbd1 	bl	33a0 <dir_sdi(FATFS_DIR*, unsigned short)>
    3bfe:	2800      	cmp	r0, #0
    3c00:	d148      	bne.n	3c94 <follow_path(FATFS_DIR*, char const*)+0x244>
    3c02:	4630      	mov	r0, r6
    3c04:	f7ff fe4e 	bl	38a4 <dir_find(FATFS_DIR*) [clone .part.5]>
    3c08:	69b3      	ldr	r3, [r6, #24]
    3c0a:	7adb      	ldrb	r3, [r3, #11]
    3c0c:	2800      	cmp	r0, #0
    3c0e:	d143      	bne.n	3c98 <follow_path(FATFS_DIR*, char const*)+0x248>
    3c10:	0759      	lsls	r1, r3, #29
    3c12:	f53f af69 	bmi.w	3ae8 <follow_path(FATFS_DIR*, char const*)+0x98>
    3c16:	6973      	ldr	r3, [r6, #20]
    3c18:	7ada      	ldrb	r2, [r3, #11]
    3c1a:	06d2      	lsls	r2, r2, #27
    3c1c:	d57b      	bpl.n	3d16 <follow_path(FATFS_DIR*, char const*)+0x2c6>
    3c1e:	6831      	ldr	r1, [r6, #0]
    3c20:	7ed8      	ldrb	r0, [r3, #27]
    3c22:	7809      	ldrb	r1, [r1, #0]
    3c24:	7e9a      	ldrb	r2, [r3, #26]
    3c26:	2903      	cmp	r1, #3
    3c28:	ea42 2200 	orr.w	r2, r2, r0, lsl #8
    3c2c:	d03e      	beq.n	3cac <follow_path(FATFS_DIR*, char const*)+0x25c>
    3c2e:	60b2      	str	r2, [r6, #8]
    3c30:	f89a 0000 	ldrb.w	r0, [r10]
    3c34:	e721      	b.n	3a7a <follow_path(FATFS_DIR*, char const*)+0x2a>
    3c36:	45a1      	cmp	r9, r4
    3c38:	d067      	beq.n	3d0a <follow_path(FATFS_DIR*, char const*)+0x2ba>
    3c3a:	f045 0503 	orr.w	r5, r5, #3
    3c3e:	e7b4      	b.n	3baa <follow_path(FATFS_DIR*, char const*)+0x15a>
    3c40:	2b0b      	cmp	r3, #11
    3c42:	d064      	beq.n	3d0e <follow_path(FATFS_DIR*, char const*)+0x2be>
    3c44:	45a1      	cmp	r9, r4
    3c46:	d003      	beq.n	3c50 <follow_path(FATFS_DIR*, char const*)+0x200>
    3c48:	454c      	cmp	r4, r9
    3c4a:	f045 0503 	orr.w	r5, r5, #3
    3c4e:	d8b1      	bhi.n	3bb4 <follow_path(FATFS_DIR*, char const*)+0x164>
    3c50:	ea4f 0288 	mov.w	r2, r8, lsl #2
    3c54:	fa5f f882 	uxtb.w	r8, r2
    3c58:	464c      	mov	r4, r9
    3c5a:	230b      	movs	r3, #11
    3c5c:	f04f 0b08 	mov.w	r11, #8
    3c60:	e7a3      	b.n	3baa <follow_path(FATFS_DIR*, char const*)+0x15a>
    3c62:	2100      	movs	r1, #0
    3c64:	9301      	str	r3, [sp, #4]
    3c66:	f001 fbe5 	bl	5434 <ff_convert>
    3c6a:	9b01      	ldr	r3, [sp, #4]
    3c6c:	b378      	cbz	r0, 3cce <follow_path(FATFS_DIR*, char const*)+0x27e>
    3c6e:	4a2e      	ldr	r2, [pc, #184]	; (3d28 <follow_path(FATFS_DIR*, char const*)+0x2d8>)
    3c70:	f045 0502 	orr.w	r5, r5, #2
    3c74:	4410      	add	r0, r2
    3c76:	f810 0c80 	ldrb.w	r0, [r0, #-128]
    3c7a:	2800      	cmp	r0, #0
    3c7c:	f47f af7e 	bne.w	3b7c <follow_path(FATFS_DIR*, char const*)+0x12c>
    3c80:	f045 0503 	orr.w	r5, r5, #3
    3c84:	205f      	movs	r0, #95	; 0x5f
    3c86:	e78b      	b.n	3ba0 <follow_path(FATFS_DIR*, char const*)+0x150>
    3c88:	f04f 0900 	mov.w	r9, #0
    3c8c:	2301      	movs	r3, #1
    3c8e:	449a      	add	r10, r3
    3c90:	2504      	movs	r5, #4
    3c92:	e731      	b.n	3af8 <follow_path(FATFS_DIR*, char const*)+0xa8>
    3c94:	69b3      	ldr	r3, [r6, #24]
    3c96:	7adb      	ldrb	r3, [r3, #11]
    3c98:	2804      	cmp	r0, #4
    3c9a:	f47f af25 	bne.w	3ae8 <follow_path(FATFS_DIR*, char const*)+0x98>
    3c9e:	f013 0f04 	tst.w	r3, #4
    3ca2:	bf08      	it	eq
    3ca4:	2005      	moveq	r0, #5
    3ca6:	b003      	add	sp, #12
    3ca8:	e8bd 8ff0 	ldmia.w	sp!, {r4, r5, r6, r7, r8, r9, r10, r11, pc}
    3cac:	7d59      	ldrb	r1, [r3, #21]
    3cae:	7d1b      	ldrb	r3, [r3, #20]
    3cb0:	ea43 2301 	orr.w	r3, r3, r1, lsl #8
    3cb4:	ea42 4203 	orr.w	r2, r2, r3, lsl #16
    3cb8:	e7b9      	b.n	3c2e <follow_path(FATFS_DIR*, char const*)+0x1de>
    3cba:	f1a0 0161 	sub.w	r1, r0, #97	; 0x61
    3cbe:	2919      	cmp	r1, #25
    3cc0:	bf97      	itett	ls
    3cc2:	3820      	subls	r0, #32
    3cc4:	b2c0      	uxtbhi	r0, r0
    3cc6:	b2c0      	uxtbls	r0, r0
    3cc8:	f048 0801 	orrls.w	r8, r8, #1
    3ccc:	e768      	b.n	3ba0 <follow_path(FATFS_DIR*, char const*)+0x150>
    3cce:	f045 0502 	orr.w	r5, r5, #2
    3cd2:	f045 0503 	orr.w	r5, r5, #3
    3cd6:	205f      	movs	r0, #95	; 0x5f
    3cd8:	e762      	b.n	3ba0 <follow_path(FATFS_DIR*, char const*)+0x150>
    3cda:	f045 0502 	orr.w	r5, r5, #2
    3cde:	e77d      	b.n	3bdc <follow_path(FATFS_DIR*, char const*)+0x18c>
    3ce0:	2400      	movs	r4, #0
    3ce2:	f10a 0a01 	add.w	r10, r10, #1
    3ce6:	60b4      	str	r4, [r6, #8]
    3ce8:	f89a 0000 	ldrb.w	r0, [r10]
    3cec:	281f      	cmp	r0, #31
    3cee:	f63f aec4 	bhi.w	3a7a <follow_path(FATFS_DIR*, char const*)+0x2a>
    3cf2:	4630      	mov	r0, r6
    3cf4:	4621      	mov	r1, r4
    3cf6:	f7ff fb53 	bl	33a0 <dir_sdi(FATFS_DIR*, unsigned short)>
    3cfa:	6174      	str	r4, [r6, #20]
    3cfc:	b003      	add	sp, #12
    3cfe:	e8bd 8ff0 	ldmia.w	sp!, {r4, r5, r6, r7, r8, r9, r10, r11, pc}
    3d02:	2005      	movs	r0, #5
    3d04:	7008      	strb	r0, [r1, #0]
    3d06:	69b1      	ldr	r1, [r6, #24]
    3d08:	e759      	b.n	3bbe <follow_path(FATFS_DIR*, char const*)+0x16e>
    3d0a:	2b0b      	cmp	r3, #11
    3d0c:	d1a0      	bne.n	3c50 <follow_path(FATFS_DIR*, char const*)+0x200>
    3d0e:	f045 0503 	orr.w	r5, r5, #3
    3d12:	230b      	movs	r3, #11
    3d14:	e74e      	b.n	3bb4 <follow_path(FATFS_DIR*, char const*)+0x164>
    3d16:	2005      	movs	r0, #5
    3d18:	b003      	add	sp, #12
    3d1a:	e8bd 8ff0 	ldmia.w	sp!, {r4, r5, r6, r7, r8, r9, r10, r11, pc}
    3d1e:	bf00      	nop
    3d20:	0000ba1c 	.word	0x0000ba1c
    3d24:	0000ba28 	.word	0x0000ba28
    3d28:	0000b984 	.word	0x0000b984

00003d2c <gen_numname(unsigned char*, unsigned char const*, unsigned short const*, unsigned short)>:
    3d2c:	b470      	push	{r4, r5, r6}
    3d2e:	f101 060b 	add.w	r6, r1, #11
    3d32:	b083      	sub	sp, #12
    3d34:	4604      	mov	r4, r0
    3d36:	f811 5b01 	ldrb.w	r5, [r1], #1
    3d3a:	42b1      	cmp	r1, r6
    3d3c:	f804 5b01 	strb.w	r5, [r4], #1
    3d40:	d1f9      	bne.n	3d36 <gen_numname(unsigned char*, unsigned char const*, unsigned short const*, unsigned short)+0xa>
    3d42:	2b05      	cmp	r3, #5
    3d44:	d90b      	bls.n	3d5e <gen_numname(unsigned char*, unsigned char const*, unsigned short const*, unsigned short)+0x32>
    3d46:	8814      	ldrh	r4, [r2, #0]
    3d48:	e000      	b.n	3d4c <gen_numname(unsigned char*, unsigned char const*, unsigned short const*, unsigned short)+0x20>
    3d4a:	460c      	mov	r4, r1
    3d4c:	03d9      	lsls	r1, r3, #15
    3d4e:	eb01 0353 	add.w	r3, r1, r3, lsr #1
    3d52:	f832 1f02 	ldrh.w	r1, [r2, #2]!
    3d56:	4423      	add	r3, r4
    3d58:	b29b      	uxth	r3, r3
    3d5a:	2900      	cmp	r1, #0
    3d5c:	d1f5      	bne.n	3d4a <gen_numname(unsigned char*, unsigned char const*, unsigned short const*, unsigned short)+0x1e>
    3d5e:	2207      	movs	r2, #7
    3d60:	f003 040f 	and.w	r4, r3, #15
    3d64:	f104 0130 	add.w	r1, r4, #48	; 0x30
    3d68:	2939      	cmp	r1, #57	; 0x39
    3d6a:	f102 32ff 	add.w	r2, r2, #4294967295	; 0xffffffff
    3d6e:	ad00      	add	r5, sp, #0
    3d70:	bf88      	it	hi
    3d72:	f104 0137 	addhi.w	r1, r4, #55	; 0x37
    3d76:	4415      	add	r5, r2
    3d78:	091b      	lsrs	r3, r3, #4
    3d7a:	7069      	strb	r1, [r5, #1]
    3d7c:	d1f0      	bne.n	3d60 <gen_numname(unsigned char*, unsigned char const*, unsigned short const*, unsigned short)+0x34>
    3d7e:	a902      	add	r1, sp, #8
    3d80:	247e      	movs	r4, #126	; 0x7e
    3d82:	4411      	add	r1, r2
    3d84:	f801 4c08 	strb.w	r4, [r1, #-8]
    3d88:	b302      	cbz	r2, 3dcc <gen_numname(unsigned char*, unsigned char const*, unsigned short const*, unsigned short)+0xa0>
    3d8a:	7801      	ldrb	r1, [r0, #0]
    3d8c:	2920      	cmp	r1, #32
    3d8e:	d013      	beq.n	3db8 <gen_numname(unsigned char*, unsigned char const*, unsigned short const*, unsigned short)+0x8c>
    3d90:	4601      	mov	r1, r0
    3d92:	e003      	b.n	3d9c <gen_numname(unsigned char*, unsigned char const*, unsigned short const*, unsigned short)+0x70>
    3d94:	f811 4f01 	ldrb.w	r4, [r1, #1]!
    3d98:	2c20      	cmp	r4, #32
    3d9a:	d00d      	beq.n	3db8 <gen_numname(unsigned char*, unsigned char const*, unsigned short const*, unsigned short)+0x8c>
    3d9c:	3301      	adds	r3, #1
    3d9e:	4293      	cmp	r3, r2
    3da0:	d1f8      	bne.n	3d94 <gen_numname(unsigned char*, unsigned char const*, unsigned short const*, unsigned short)+0x68>
    3da2:	2a07      	cmp	r2, #7
    3da4:	d80a      	bhi.n	3dbc <gen_numname(unsigned char*, unsigned char const*, unsigned short const*, unsigned short)+0x90>
    3da6:	a902      	add	r1, sp, #8
    3da8:	4411      	add	r1, r2
    3daa:	f811 1c08 	ldrb.w	r1, [r1, #-8]
    3dae:	3201      	adds	r2, #1
    3db0:	54c1      	strb	r1, [r0, r3]
    3db2:	3301      	adds	r3, #1
    3db4:	2b07      	cmp	r3, #7
    3db6:	d806      	bhi.n	3dc6 <gen_numname(unsigned char*, unsigned char const*, unsigned short const*, unsigned short)+0x9a>
    3db8:	2a07      	cmp	r2, #7
    3dba:	d9f4      	bls.n	3da6 <gen_numname(unsigned char*, unsigned char const*, unsigned short const*, unsigned short)+0x7a>
    3dbc:	2120      	movs	r1, #32
    3dbe:	54c1      	strb	r1, [r0, r3]
    3dc0:	3301      	adds	r3, #1
    3dc2:	2b07      	cmp	r3, #7
    3dc4:	d9f8      	bls.n	3db8 <gen_numname(unsigned char*, unsigned char const*, unsigned short const*, unsigned short)+0x8c>
    3dc6:	b003      	add	sp, #12
    3dc8:	bc70      	pop	{r4, r5, r6}
    3dca:	4770      	bx	lr
    3dcc:	4613      	mov	r3, r2
    3dce:	e7f3      	b.n	3db8 <gen_numname(unsigned char*, unsigned char const*, unsigned short const*, unsigned short)+0x8c>

00003dd0 <dir_register(FATFS_DIR*)>:
    3dd0:	e92d 4ff0 	stmdb	sp!, {r4, r5, r6, r7, r8, r9, r10, r11, lr}
    3dd4:	6987      	ldr	r7, [r0, #24]
    3dd6:	b087      	sub	sp, #28
    3dd8:	69c6      	ldr	r6, [r0, #28]
    3dda:	4604      	mov	r4, r0
    3ddc:	1e79      	subs	r1, r7, #1
    3dde:	ab03      	add	r3, sp, #12
    3de0:	f811 2f01 	ldrb.w	r2, [r1, #1]!
    3de4:	f803 2b01 	strb.w	r2, [r3], #1
    3de8:	aa06      	add	r2, sp, #24
    3dea:	4293      	cmp	r3, r2
    3dec:	d1f8      	bne.n	3de0 <dir_register(FATFS_DIR*)+0x10>
    3dee:	f89d 3017 	ldrb.w	r3, [sp, #23]
    3df2:	07da      	lsls	r2, r3, #31
    3df4:	d527      	bpl.n	3e46 <dir_register(FATFS_DIR*)+0x76>
    3df6:	2300      	movs	r3, #0
    3df8:	72fb      	strb	r3, [r7, #11]
    3dfa:	2501      	movs	r5, #1
    3dfc:	61e3      	str	r3, [r4, #28]
    3dfe:	e008      	b.n	3e12 <dir_register(FATFS_DIR*)+0x42>
    3e00:	f7ff fd50 	bl	38a4 <dir_find(FATFS_DIR*) [clone .part.5]>
    3e04:	3501      	adds	r5, #1
    3e06:	4601      	mov	r1, r0
    3e08:	b2ad      	uxth	r5, r5
    3e0a:	b980      	cbnz	r0, 3e2e <dir_register(FATFS_DIR*)+0x5e>
    3e0c:	2d64      	cmp	r5, #100	; 0x64
    3e0e:	f000 80fc 	beq.w	400a <dir_register(FATFS_DIR*)+0x23a>
    3e12:	4638      	mov	r0, r7
    3e14:	a903      	add	r1, sp, #12
    3e16:	4632      	mov	r2, r6
    3e18:	462b      	mov	r3, r5
    3e1a:	f7ff ff87 	bl	3d2c <gen_numname(unsigned char*, unsigned char const*, unsigned short const*, unsigned short)>
    3e1e:	2100      	movs	r1, #0
    3e20:	4620      	mov	r0, r4
    3e22:	f7ff fabd 	bl	33a0 <dir_sdi(FATFS_DIR*, unsigned short)>
    3e26:	4601      	mov	r1, r0
    3e28:	4620      	mov	r0, r4
    3e2a:	2900      	cmp	r1, #0
    3e2c:	d0e8      	beq.n	3e00 <dir_register(FATFS_DIR*)+0x30>
    3e2e:	2904      	cmp	r1, #4
    3e30:	d003      	beq.n	3e3a <dir_register(FATFS_DIR*)+0x6a>
    3e32:	4608      	mov	r0, r1
    3e34:	b007      	add	sp, #28
    3e36:	e8bd 8ff0 	ldmia.w	sp!, {r4, r5, r6, r7, r8, r9, r10, r11, pc}
    3e3a:	f89d 3017 	ldrb.w	r3, [sp, #23]
    3e3e:	72fb      	strb	r3, [r7, #11]
    3e40:	f89d 3017 	ldrb.w	r3, [sp, #23]
    3e44:	61e6      	str	r6, [r4, #28]
    3e46:	079b      	lsls	r3, r3, #30
    3e48:	f100 80c7 	bmi.w	3fda <dir_register(FATFS_DIR*)+0x20a>
    3e4c:	2701      	movs	r7, #1
    3e4e:	4620      	mov	r0, r4
    3e50:	2100      	movs	r1, #0
    3e52:	f7ff faa5 	bl	33a0 <dir_sdi(FATFS_DIR*, unsigned short)>
    3e56:	2800      	cmp	r0, #0
    3e58:	d1ec      	bne.n	3e34 <dir_register(FATFS_DIR*)+0x64>
    3e5a:	4680      	mov	r8, r0
    3e5c:	4605      	mov	r5, r0
    3e5e:	e006      	b.n	3e6e <dir_register(FATFS_DIR*)+0x9e>
    3e60:	461d      	mov	r5, r3
    3e62:	f7ff fbcb 	bl	35fc <dir_next(FATFS_DIR*, int)>
    3e66:	4603      	mov	r3, r0
    3e68:	2800      	cmp	r0, #0
    3e6a:	f040 80ca 	bne.w	4002 <dir_register(FATFS_DIR*)+0x232>
    3e6e:	6921      	ldr	r1, [r4, #16]
    3e70:	6820      	ldr	r0, [r4, #0]
    3e72:	f7fe ff43 	bl	2cfc <move_window(FATFS*, unsigned long)>
    3e76:	4603      	mov	r3, r0
    3e78:	1c6e      	adds	r6, r5, #1
    3e7a:	4620      	mov	r0, r4
    3e7c:	2101      	movs	r1, #1
    3e7e:	2b00      	cmp	r3, #0
    3e80:	f040 80bf 	bne.w	4002 <dir_register(FATFS_DIR*)+0x232>
    3e84:	6962      	ldr	r2, [r4, #20]
    3e86:	7812      	ldrb	r2, [r2, #0]
    3e88:	2ae5      	cmp	r2, #229	; 0xe5
    3e8a:	d001      	beq.n	3e90 <dir_register(FATFS_DIR*)+0xc0>
    3e8c:	2a00      	cmp	r2, #0
    3e8e:	d1e7      	bne.n	3e60 <dir_register(FATFS_DIR*)+0x90>
    3e90:	b90d      	cbnz	r5, 3e96 <dir_register(FATFS_DIR*)+0xc6>
    3e92:	f8b4 8006 	ldrh.w	r8, [r4, #6]
    3e96:	b2b5      	uxth	r5, r6
    3e98:	42af      	cmp	r7, r5
    3e9a:	d1e2      	bne.n	3e62 <dir_register(FATFS_DIR*)+0x92>
    3e9c:	2f01      	cmp	r7, #1
    3e9e:	d079      	beq.n	3f94 <dir_register(FATFS_DIR*)+0x1c4>
    3ea0:	4641      	mov	r1, r8
    3ea2:	4620      	mov	r0, r4
    3ea4:	f7ff fa7c 	bl	33a0 <dir_sdi(FATFS_DIR*, unsigned short)>
    3ea8:	4603      	mov	r3, r0
    3eaa:	2800      	cmp	r0, #0
    3eac:	f040 80a9 	bne.w	4002 <dir_register(FATFS_DIR*)+0x232>
    3eb0:	69a2      	ldr	r2, [r4, #24]
    3eb2:	4681      	mov	r9, r0
    3eb4:	f102 010b 	add.w	r1, r2, #11
    3eb8:	f812 3b01 	ldrb.w	r3, [r2], #1
    3ebc:	eb03 13c9 	add.w	r3, r3, r9, lsl #7
    3ec0:	eb03 0959 	add.w	r9, r3, r9, lsr #1
    3ec4:	428a      	cmp	r2, r1
    3ec6:	f009 09ff 	and.w	r9, r9, #255	; 0xff
    3eca:	d1f5      	bne.n	3eb8 <dir_register(FATFS_DIR*)+0xe8>
    3ecc:	3f01      	subs	r7, #1
    3ece:	b2bb      	uxth	r3, r7
    3ed0:	f8df 8140 	ldr.w	r8, [pc, #320]	; 4014 <dir_register(FATFS_DIR*)+0x244>
    3ed4:	f8cd 9004 	str.w	r9, [sp, #4]
    3ed8:	46a1      	mov	r9, r4
    3eda:	461c      	mov	r4, r3
    3edc:	f8d9 0000 	ldr.w	r0, [r9]
    3ee0:	f8d9 1010 	ldr.w	r1, [r9, #16]
    3ee4:	f7fe ff0a 	bl	2cfc <move_window(FATFS*, unsigned long)>
    3ee8:	4603      	mov	r3, r0
    3eea:	2800      	cmp	r0, #0
    3eec:	f040 8089 	bne.w	4002 <dir_register(FATFS_DIR*)+0x232>
    3ef0:	f8d9 5014 	ldr.w	r5, [r9, #20]
    3ef4:	260f      	movs	r6, #15
    3ef6:	fa5f fb84 	uxtb.w	r11, r4
    3efa:	f8d9 a01c 	ldr.w	r10, [r9, #28]
    3efe:	f10b 32ff 	add.w	r2, r11, #4294967295	; 0xffffffff
    3f02:	72ee      	strb	r6, [r5, #11]
    3f04:	9e01      	ldr	r6, [sp, #4]
    3f06:	eb02 0142 	add.w	r1, r2, r2, lsl #1
    3f0a:	eb02 0181 	add.w	r1, r2, r1, lsl #2
    3f0e:	7328      	strb	r0, [r5, #12]
    3f10:	4602      	mov	r2, r0
    3f12:	76a8      	strb	r0, [r5, #26]
    3f14:	76e8      	strb	r0, [r5, #27]
    3f16:	736e      	strb	r6, [r5, #13]
    3f18:	f64f 77ff 	movw	r7, #65535	; 0xffff
    3f1c:	20ff      	movs	r0, #255	; 0xff
    3f1e:	e012      	b.n	3f46 <dir_register(FATFS_DIR*)+0x176>
    3f20:	f83a 3011 	ldrh.w	r3, [r10, r1, lsl #1]
    3f24:	f818 6002 	ldrb.w	r6, [r8, r2]
    3f28:	3201      	adds	r2, #1
    3f2a:	ea4f 2c23 	mov.w	r12, r3, asr #8
    3f2e:	55ab      	strb	r3, [r5, r6]
    3f30:	eb05 0e06 	add.w	lr, r5, r6
    3f34:	2b00      	cmp	r3, #0
    3f36:	bf08      	it	eq
    3f38:	463b      	moveq	r3, r7
    3f3a:	2a0d      	cmp	r2, #13
    3f3c:	f101 0101 	add.w	r1, r1, #1
    3f40:	f88e c001 	strb.w	r12, [lr, #1]
    3f44:	d00b      	beq.n	3f5e <dir_register(FATFS_DIR*)+0x18e>
    3f46:	42bb      	cmp	r3, r7
    3f48:	d1ea      	bne.n	3f20 <dir_register(FATFS_DIR*)+0x150>
    3f4a:	f818 6002 	ldrb.w	r6, [r8, r2]
    3f4e:	3201      	adds	r2, #1
    3f50:	eb05 0e06 	add.w	lr, r5, r6
    3f54:	2a0d      	cmp	r2, #13
    3f56:	55a8      	strb	r0, [r5, r6]
    3f58:	f88e 0001 	strb.w	r0, [lr, #1]
    3f5c:	d1f3      	bne.n	3f46 <dir_register(FATFS_DIR*)+0x176>
    3f5e:	f64f 72ff 	movw	r2, #65535	; 0xffff
    3f62:	4293      	cmp	r3, r2
    3f64:	d002      	beq.n	3f6c <dir_register(FATFS_DIR*)+0x19c>
    3f66:	f83a 3011 	ldrh.w	r3, [r10, r1, lsl #1]
    3f6a:	b90b      	cbnz	r3, 3f70 <dir_register(FATFS_DIR*)+0x1a0>
    3f6c:	f04b 0b40 	orr.w	r11, r11, #64	; 0x40
    3f70:	f885 b000 	strb.w	r11, [r5]
    3f74:	f8d9 3000 	ldr.w	r3, [r9]
    3f78:	2201      	movs	r2, #1
    3f7a:	711a      	strb	r2, [r3, #4]
    3f7c:	4648      	mov	r0, r9
    3f7e:	2100      	movs	r1, #0
    3f80:	f7ff fb3c 	bl	35fc <dir_next(FATFS_DIR*, int)>
    3f84:	2800      	cmp	r0, #0
    3f86:	f47f af55 	bne.w	3e34 <dir_register(FATFS_DIR*)+0x64>
    3f8a:	3c01      	subs	r4, #1
    3f8c:	b2a4      	uxth	r4, r4
    3f8e:	2c00      	cmp	r4, #0
    3f90:	d1a4      	bne.n	3edc <dir_register(FATFS_DIR*)+0x10c>
    3f92:	464c      	mov	r4, r9
    3f94:	6820      	ldr	r0, [r4, #0]
    3f96:	6921      	ldr	r1, [r4, #16]
    3f98:	f7fe feb0 	bl	2cfc <move_window(FATFS*, unsigned long)>
    3f9c:	2800      	cmp	r0, #0
    3f9e:	f47f af49 	bne.w	3e34 <dir_register(FATFS_DIR*)+0x64>
    3fa2:	6965      	ldr	r5, [r4, #20]
    3fa4:	f105 0220 	add.w	r2, r5, #32
    3fa8:	462b      	mov	r3, r5
    3faa:	f803 0b01 	strb.w	r0, [r3], #1
    3fae:	4293      	cmp	r3, r2
    3fb0:	d1fb      	bne.n	3faa <dir_register(FATFS_DIR*)+0x1da>
    3fb2:	69a2      	ldr	r2, [r4, #24]
    3fb4:	f105 000b 	add.w	r0, r5, #11
    3fb8:	462b      	mov	r3, r5
    3fba:	f812 1b01 	ldrb.w	r1, [r2], #1
    3fbe:	f803 1b01 	strb.w	r1, [r3], #1
    3fc2:	4283      	cmp	r3, r0
    3fc4:	d1f9      	bne.n	3fba <dir_register(FATFS_DIR*)+0x1ea>
    3fc6:	69a3      	ldr	r3, [r4, #24]
    3fc8:	2201      	movs	r2, #1
    3fca:	7adb      	ldrb	r3, [r3, #11]
    3fcc:	2000      	movs	r0, #0
    3fce:	f003 0318 	and.w	r3, r3, #24
    3fd2:	732b      	strb	r3, [r5, #12]
    3fd4:	6823      	ldr	r3, [r4, #0]
    3fd6:	711a      	strb	r2, [r3, #4]
    3fd8:	e72c      	b.n	3e34 <dir_register(FATFS_DIR*)+0x64>
    3fda:	8833      	ldrh	r3, [r6, #0]
    3fdc:	2b00      	cmp	r3, #0
    3fde:	f43f af35 	beq.w	3e4c <dir_register(FATFS_DIR*)+0x7c>
    3fe2:	2300      	movs	r3, #0
    3fe4:	3301      	adds	r3, #1
    3fe6:	b29b      	uxth	r3, r3
    3fe8:	f836 2013 	ldrh.w	r2, [r6, r3, lsl #1]
    3fec:	2a00      	cmp	r2, #0
    3fee:	d1f9      	bne.n	3fe4 <dir_register(FATFS_DIR*)+0x214>
    3ff0:	4f07      	ldr	r7, [pc, #28]	; (4010 <dir_register(FATFS_DIR*)+0x240>)
    3ff2:	3319      	adds	r3, #25
    3ff4:	fb87 6703 	smull	r6, r7, r7, r3
    3ff8:	17db      	asrs	r3, r3, #31
    3ffa:	ebc3 07a7 	rsb	r7, r3, r7, asr #2
    3ffe:	b2bf      	uxth	r7, r7
    4000:	e725      	b.n	3e4e <dir_register(FATFS_DIR*)+0x7e>
    4002:	4618      	mov	r0, r3
    4004:	b007      	add	sp, #28
    4006:	e8bd 8ff0 	ldmia.w	sp!, {r4, r5, r6, r7, r8, r9, r10, r11, pc}
    400a:	2007      	movs	r0, #7
    400c:	e712      	b.n	3e34 <dir_register(FATFS_DIR*)+0x64>
    400e:	bf00      	nop
    4010:	4ec4ec4f 	.word	0x4ec4ec4f
    4014:	0000b974 	.word	0x0000b974

00004018 <f_mount>:
    4018:	b108      	cbz	r0, 401e <f_mount+0x6>
    401a:	200b      	movs	r0, #11
    401c:	4770      	bx	lr
    401e:	4b05      	ldr	r3, [pc, #20]	; (4034 <f_mount+0x1c>)
    4020:	681a      	ldr	r2, [r3, #0]
    4022:	b102      	cbz	r2, 4026 <f_mount+0xe>
    4024:	7010      	strb	r0, [r2, #0]
    4026:	b109      	cbz	r1, 402c <f_mount+0x14>
    4028:	2200      	movs	r2, #0
    402a:	700a      	strb	r2, [r1, #0]
    402c:	6019      	str	r1, [r3, #0]
    402e:	2000      	movs	r0, #0
    4030:	4770      	bx	lr
    4032:	bf00      	nop
    4034:	10000250 	.word	0x10000250

00004038 <f_open>:
    4038:	e92d 41f0 	stmdb	sp!, {r4, r5, r6, r7, r8, lr}
    403c:	b08e      	sub	sp, #56	; 0x38
    403e:	4604      	mov	r4, r0
    4040:	9101      	str	r1, [sp, #4]
    4042:	4615      	mov	r5, r2
    4044:	b158      	cbz	r0, 405e <f_open+0x26>
    4046:	2300      	movs	r3, #0
    4048:	6003      	str	r3, [r0, #0]
    404a:	a905      	add	r1, sp, #20
    404c:	a801      	add	r0, sp, #4
    404e:	f002 021e 	and.w	r2, r2, #30
    4052:	f7fe ffcb 	bl	2fec <chk_mounted(char const**, FATFS**, unsigned char)>
    4056:	b130      	cbz	r0, 4066 <f_open+0x2e>
    4058:	b00e      	add	sp, #56	; 0x38
    405a:	e8bd 81f0 	ldmia.w	sp!, {r4, r5, r6, r7, r8, pc}
    405e:	2009      	movs	r0, #9
    4060:	b00e      	add	sp, #56	; 0x38
    4062:	e8bd 81f0 	ldmia.w	sp!, {r4, r5, r6, r7, r8, pc}
    4066:	4a53      	ldr	r2, [pc, #332]	; (41b4 <f_open+0x17c>)
    4068:	ab02      	add	r3, sp, #8
    406a:	a805      	add	r0, sp, #20
    406c:	9901      	ldr	r1, [sp, #4]
    406e:	920c      	str	r2, [sp, #48]	; 0x30
    4070:	930b      	str	r3, [sp, #44]	; 0x2c
    4072:	f7ff fced 	bl	3a50 <follow_path(FATFS_DIR*, char const*)>
    4076:	f005 071f 	and.w	r7, r5, #31
    407a:	9e0a      	ldr	r6, [sp, #40]	; 0x28
    407c:	b180      	cbz	r0, 40a0 <f_open+0x68>
    407e:	f015 0f1c 	tst.w	r5, #28
    4082:	d0e9      	beq.n	4058 <f_open+0x20>
    4084:	2804      	cmp	r0, #4
    4086:	d1e7      	bne.n	4058 <f_open+0x20>
    4088:	a805      	add	r0, sp, #20
    408a:	f7ff fea1 	bl	3dd0 <dir_register(FATFS_DIR*)>
    408e:	f047 0708 	orr.w	r7, r7, #8
    4092:	9e0a      	ldr	r6, [sp, #40]	; 0x28
    4094:	2800      	cmp	r0, #0
    4096:	d1df      	bne.n	4058 <f_open+0x20>
    4098:	0738      	lsls	r0, r7, #28
    409a:	d447      	bmi.n	412c <f_open+0xf4>
    409c:	9b05      	ldr	r3, [sp, #20]
    409e:	e016      	b.n	40ce <f_open+0x96>
    40a0:	2e00      	cmp	r6, #0
    40a2:	d039      	beq.n	4118 <f_open+0xe0>
    40a4:	f015 0f1c 	tst.w	r5, #28
    40a8:	d138      	bne.n	411c <f_open+0xe4>
    40aa:	7af3      	ldrb	r3, [r6, #11]
    40ac:	06d9      	lsls	r1, r3, #27
    40ae:	d405      	bmi.n	40bc <f_open+0x84>
    40b0:	07aa      	lsls	r2, r5, #30
    40b2:	d505      	bpl.n	40c0 <f_open+0x88>
    40b4:	07db      	lsls	r3, r3, #31
    40b6:	d503      	bpl.n	40c0 <f_open+0x88>
    40b8:	2007      	movs	r0, #7
    40ba:	e7cd      	b.n	4058 <f_open+0x20>
    40bc:	2004      	movs	r0, #4
    40be:	e7cb      	b.n	4058 <f_open+0x20>
    40c0:	f005 0208 	and.w	r2, r5, #8
    40c4:	b2d2      	uxtb	r2, r2
    40c6:	9b05      	ldr	r3, [sp, #20]
    40c8:	b10a      	cbz	r2, 40ce <f_open+0x96>
    40ca:	f047 0720 	orr.w	r7, r7, #32
    40ce:	6ada      	ldr	r2, [r3, #44]	; 0x2c
    40d0:	6226      	str	r6, [r4, #32]
    40d2:	61e2      	str	r2, [r4, #28]
    40d4:	71a7      	strb	r7, [r4, #6]
    40d6:	7819      	ldrb	r1, [r3, #0]
    40d8:	7ef0      	ldrb	r0, [r6, #27]
    40da:	7eb2      	ldrb	r2, [r6, #26]
    40dc:	2903      	cmp	r1, #3
    40de:	ea42 2200 	orr.w	r2, r2, r0, lsl #8
    40e2:	d012      	beq.n	410a <f_open+0xd2>
    40e4:	6122      	str	r2, [r4, #16]
    40e6:	7fb1      	ldrb	r1, [r6, #30]
    40e8:	7ff0      	ldrb	r0, [r6, #31]
    40ea:	7f32      	ldrb	r2, [r6, #28]
    40ec:	0409      	lsls	r1, r1, #16
    40ee:	ea41 6100 	orr.w	r1, r1, r0, lsl #24
    40f2:	7f70      	ldrb	r0, [r6, #29]
    40f4:	4311      	orrs	r1, r2
    40f6:	88da      	ldrh	r2, [r3, #6]
    40f8:	ea41 2100 	orr.w	r1, r1, r0, lsl #8
    40fc:	2000      	movs	r0, #0
    40fe:	60e1      	str	r1, [r4, #12]
    4100:	6023      	str	r3, [r4, #0]
    4102:	80a2      	strh	r2, [r4, #4]
    4104:	60a0      	str	r0, [r4, #8]
    4106:	61a0      	str	r0, [r4, #24]
    4108:	e7a6      	b.n	4058 <f_open+0x20>
    410a:	7d70      	ldrb	r0, [r6, #21]
    410c:	7d31      	ldrb	r1, [r6, #20]
    410e:	ea41 2100 	orr.w	r1, r1, r0, lsl #8
    4112:	ea42 4201 	orr.w	r2, r2, r1, lsl #16
    4116:	e7e5      	b.n	40e4 <f_open+0xac>
    4118:	2006      	movs	r0, #6
    411a:	e7b0      	b.n	407e <f_open+0x46>
    411c:	7af3      	ldrb	r3, [r6, #11]
    411e:	f013 0f11 	tst.w	r3, #17
    4122:	d1c9      	bne.n	40b8 <f_open+0x80>
    4124:	076d      	lsls	r5, r5, #29
    4126:	d5b7      	bpl.n	4098 <f_open+0x60>
    4128:	2008      	movs	r0, #8
    412a:	e795      	b.n	4058 <f_open+0x20>
    412c:	f7fe fda8 	bl	2c80 <get_fattime>
    4130:	2200      	movs	r2, #0
    4132:	0c05      	lsrs	r5, r0, #16
    4134:	0e01      	lsrs	r1, r0, #24
    4136:	f3c0 2c07 	ubfx	r12, r0, #8, #8
    413a:	9b05      	ldr	r3, [sp, #20]
    413c:	7435      	strb	r5, [r6, #16]
    413e:	7471      	strb	r1, [r6, #17]
    4140:	73b0      	strb	r0, [r6, #14]
    4142:	f886 c00f 	strb.w	r12, [r6, #15]
    4146:	72f2      	strb	r2, [r6, #11]
    4148:	7732      	strb	r2, [r6, #28]
    414a:	7772      	strb	r2, [r6, #29]
    414c:	77b2      	strb	r2, [r6, #30]
    414e:	77f2      	strb	r2, [r6, #31]
    4150:	781a      	ldrb	r2, [r3, #0]
    4152:	7ef5      	ldrb	r5, [r6, #27]
    4154:	7eb1      	ldrb	r1, [r6, #26]
    4156:	2a03      	cmp	r2, #3
    4158:	ea41 2505 	orr.w	r5, r1, r5, lsl #8
    415c:	d011      	beq.n	4182 <f_open+0x14a>
    415e:	2200      	movs	r2, #0
    4160:	2101      	movs	r1, #1
    4162:	76b2      	strb	r2, [r6, #26]
    4164:	76f2      	strb	r2, [r6, #27]
    4166:	7532      	strb	r2, [r6, #20]
    4168:	7572      	strb	r2, [r6, #21]
    416a:	7119      	strb	r1, [r3, #4]
    416c:	2d00      	cmp	r5, #0
    416e:	d0ac      	beq.n	40ca <f_open+0x92>
    4170:	428d      	cmp	r5, r1
    4172:	f8d3 802c 	ldr.w	r8, [r3, #44]	; 0x2c
    4176:	d902      	bls.n	417e <f_open+0x146>
    4178:	699a      	ldr	r2, [r3, #24]
    417a:	4295      	cmp	r5, r2
    417c:	d308      	bcc.n	4190 <f_open+0x158>
    417e:	2002      	movs	r0, #2
    4180:	e76a      	b.n	4058 <f_open+0x20>
    4182:	7d71      	ldrb	r1, [r6, #21]
    4184:	7d32      	ldrb	r2, [r6, #20]
    4186:	ea42 2201 	orr.w	r2, r2, r1, lsl #8
    418a:	ea45 4502 	orr.w	r5, r5, r2, lsl #16
    418e:	e7e6      	b.n	415e <f_open+0x126>
    4190:	4618      	mov	r0, r3
    4192:	4629      	mov	r1, r5
    4194:	f7ff fc2e 	bl	39f4 <remove_chain(FATFS*, unsigned long) [clone .part.6]>
    4198:	2800      	cmp	r0, #0
    419a:	f47f af5d 	bne.w	4058 <f_open+0x20>
    419e:	9805      	ldr	r0, [sp, #20]
    41a0:	3d01      	subs	r5, #1
    41a2:	4641      	mov	r1, r8
    41a4:	60c5      	str	r5, [r0, #12]
    41a6:	f7fe fda9 	bl	2cfc <move_window(FATFS*, unsigned long)>
    41aa:	2800      	cmp	r0, #0
    41ac:	f47f af54 	bne.w	4058 <f_open+0x20>
    41b0:	9b05      	ldr	r3, [sp, #20]
    41b2:	e78a      	b.n	40ca <f_open+0x92>
    41b4:	10000254 	.word	0x10000254

000041b8 <f_read>:
    41b8:	e92d 4ff0 	stmdb	sp!, {r4, r5, r6, r7, r8, r9, r10, r11, lr}
    41bc:	4699      	mov	r9, r3
    41be:	2300      	movs	r3, #0
    41c0:	b083      	sub	sp, #12
    41c2:	f8c9 3000 	str.w	r3, [r9]
    41c6:	468a      	mov	r10, r1
    41c8:	4614      	mov	r4, r2
    41ca:	4606      	mov	r6, r0
    41cc:	f7fe fdd4 	bl	2d78 <validate(void*)>
    41d0:	b928      	cbnz	r0, 41de <f_read+0x26>
    41d2:	79b3      	ldrb	r3, [r6, #6]
    41d4:	061f      	lsls	r7, r3, #24
    41d6:	d405      	bmi.n	41e4 <f_read+0x2c>
    41d8:	07dd      	lsls	r5, r3, #31
    41da:	d407      	bmi.n	41ec <f_read+0x34>
    41dc:	2007      	movs	r0, #7
    41de:	b003      	add	sp, #12
    41e0:	e8bd 8ff0 	ldmia.w	sp!, {r4, r5, r6, r7, r8, r9, r10, r11, pc}
    41e4:	2002      	movs	r0, #2
    41e6:	b003      	add	sp, #12
    41e8:	e8bd 8ff0 	ldmia.w	sp!, {r4, r5, r6, r7, r8, r9, r10, r11, pc}
    41ec:	68b5      	ldr	r5, [r6, #8]
    41ee:	68f3      	ldr	r3, [r6, #12]
    41f0:	f106 0824 	add.w	r8, r6, #36	; 0x24
    41f4:	1b5b      	subs	r3, r3, r5
    41f6:	429c      	cmp	r4, r3
    41f8:	bf34      	ite	cc
    41fa:	4627      	movcc	r7, r4
    41fc:	461f      	movcs	r7, r3
    41fe:	2f00      	cmp	r7, #0
    4200:	d04b      	beq.n	429a <f_read+0xe2>
    4202:	f3c5 0408 	ubfx	r4, r5, #0, #9
    4206:	2c00      	cmp	r4, #0
    4208:	d167      	bne.n	42da <f_read+0x122>
    420a:	6833      	ldr	r3, [r6, #0]
    420c:	789a      	ldrb	r2, [r3, #2]
    420e:	3a01      	subs	r2, #1
    4210:	ea02 2255 	and.w	r2, r2, r5, lsr #9
    4214:	f012 02ff 	ands.w	r2, r2, #255	; 0xff
    4218:	d074      	beq.n	4304 <f_read+0x14c>
    421a:	6971      	ldr	r1, [r6, #20]
    421c:	6998      	ldr	r0, [r3, #24]
    421e:	3902      	subs	r1, #2
    4220:	3802      	subs	r0, #2
    4222:	4281      	cmp	r1, r0
    4224:	d27e      	bcs.n	4324 <f_read+0x16c>
    4226:	7898      	ldrb	r0, [r3, #2]
    4228:	6a9c      	ldr	r4, [r3, #40]	; 0x28
    422a:	fb00 4401 	mla	r4, r0, r1, r4
    422e:	2c00      	cmp	r4, #0
    4230:	d078      	beq.n	4324 <f_read+0x16c>
    4232:	ea5f 2b57 	movs.w	r11, r7, lsr #9
    4236:	4414      	add	r4, r2
    4238:	d031      	beq.n	429e <f_read+0xe6>
    423a:	eb02 010b 	add.w	r1, r2, r11
    423e:	4281      	cmp	r1, r0
    4240:	bf88      	it	hi
    4242:	ebc2 0b00 	rsbhi	r11, r2, r0
    4246:	4651      	mov	r1, r10
    4248:	7858      	ldrb	r0, [r3, #1]
    424a:	4622      	mov	r2, r4
    424c:	fa5f f38b 	uxtb.w	r3, r11
    4250:	f001 f944 	bl	54dc <disk_read(unsigned char, unsigned char*, unsigned long, unsigned char)>
    4254:	79b3      	ldrb	r3, [r6, #6]
    4256:	2800      	cmp	r0, #0
    4258:	d173      	bne.n	4342 <f_read+0x18a>
    425a:	0658      	lsls	r0, r3, #25
    425c:	d50e      	bpl.n	427c <f_read+0xc4>
    425e:	69b3      	ldr	r3, [r6, #24]
    4260:	1b1c      	subs	r4, r3, r4
    4262:	45a3      	cmp	r11, r4
    4264:	d90a      	bls.n	427c <f_read+0xc4>
    4266:	eb0a 2444 	add.w	r4, r10, r4, lsl #9
    426a:	f504 7200 	add.w	r2, r4, #512	; 0x200
    426e:	4645      	mov	r5, r8
    4270:	f815 3b01 	ldrb.w	r3, [r5], #1
    4274:	f804 3b01 	strb.w	r3, [r4], #1
    4278:	4294      	cmp	r4, r2
    427a:	d1f9      	bne.n	4270 <f_read+0xb8>
    427c:	ea4f 214b 	mov.w	r1, r11, lsl #9
    4280:	68b5      	ldr	r5, [r6, #8]
    4282:	eb0a 0301 	add.w	r3, r10, r1
    4286:	f8d9 2000 	ldr.w	r2, [r9]
    428a:	440d      	add	r5, r1
    428c:	440a      	add	r2, r1
    428e:	1a7f      	subs	r7, r7, r1
    4290:	60b5      	str	r5, [r6, #8]
    4292:	469a      	mov	r10, r3
    4294:	f8c9 2000 	str.w	r2, [r9]
    4298:	d1b3      	bne.n	4202 <f_read+0x4a>
    429a:	2000      	movs	r0, #0
    429c:	e79f      	b.n	41de <f_read+0x26>
    429e:	69b2      	ldr	r2, [r6, #24]
    42a0:	42a2      	cmp	r2, r4
    42a2:	d016      	beq.n	42d2 <f_read+0x11a>
    42a4:	79b1      	ldrb	r1, [r6, #6]
    42a6:	0649      	lsls	r1, r1, #25
    42a8:	d50b      	bpl.n	42c2 <f_read+0x10a>
    42aa:	7858      	ldrb	r0, [r3, #1]
    42ac:	4641      	mov	r1, r8
    42ae:	2301      	movs	r3, #1
    42b0:	f001 f926 	bl	5500 <disk_write(unsigned char, unsigned char const*, unsigned long, unsigned char)>
    42b4:	2800      	cmp	r0, #0
    42b6:	d143      	bne.n	4340 <f_read+0x188>
    42b8:	79b2      	ldrb	r2, [r6, #6]
    42ba:	6833      	ldr	r3, [r6, #0]
    42bc:	f022 0240 	bic.w	r2, r2, #64	; 0x40
    42c0:	71b2      	strb	r2, [r6, #6]
    42c2:	7858      	ldrb	r0, [r3, #1]
    42c4:	4641      	mov	r1, r8
    42c6:	4622      	mov	r2, r4
    42c8:	2301      	movs	r3, #1
    42ca:	f001 f907 	bl	54dc <disk_read(unsigned char, unsigned char*, unsigned long, unsigned char)>
    42ce:	2800      	cmp	r0, #0
    42d0:	d136      	bne.n	4340 <f_read+0x188>
    42d2:	68b5      	ldr	r5, [r6, #8]
    42d4:	61b4      	str	r4, [r6, #24]
    42d6:	f3c5 0408 	ubfx	r4, r5, #0, #9
    42da:	f5c4 7100 	rsb	r1, r4, #512	; 0x200
    42de:	42b9      	cmp	r1, r7
    42e0:	bf28      	it	cs
    42e2:	4639      	movcs	r1, r7
    42e4:	4434      	add	r4, r6
    42e6:	3424      	adds	r4, #36	; 0x24
    42e8:	4653      	mov	r3, r10
    42ea:	2900      	cmp	r1, #0
    42ec:	d0cb      	beq.n	4286 <f_read+0xce>
    42ee:	eb0a 0301 	add.w	r3, r10, r1
    42f2:	4652      	mov	r2, r10
    42f4:	f814 5b01 	ldrb.w	r5, [r4], #1
    42f8:	f802 5b01 	strb.w	r5, [r2], #1
    42fc:	429a      	cmp	r2, r3
    42fe:	d1f9      	bne.n	42f4 <f_read+0x13c>
    4300:	68b5      	ldr	r5, [r6, #8]
    4302:	e7c0      	b.n	4286 <f_read+0xce>
    4304:	b945      	cbnz	r5, 4318 <f_read+0x160>
    4306:	6930      	ldr	r0, [r6, #16]
    4308:	2801      	cmp	r0, #1
    430a:	d90b      	bls.n	4324 <f_read+0x16c>
    430c:	1c44      	adds	r4, r0, #1
    430e:	d017      	beq.n	4340 <f_read+0x188>
    4310:	6833      	ldr	r3, [r6, #0]
    4312:	6170      	str	r0, [r6, #20]
    4314:	4601      	mov	r1, r0
    4316:	e781      	b.n	421c <f_read+0x64>
    4318:	6971      	ldr	r1, [r6, #20]
    431a:	2901      	cmp	r1, #1
    431c:	d902      	bls.n	4324 <f_read+0x16c>
    431e:	6998      	ldr	r0, [r3, #24]
    4320:	4281      	cmp	r1, r0
    4322:	d307      	bcc.n	4334 <f_read+0x17c>
    4324:	79b3      	ldrb	r3, [r6, #6]
    4326:	2002      	movs	r0, #2
    4328:	f063 037f 	orn	r3, r3, #127	; 0x7f
    432c:	71b3      	strb	r3, [r6, #6]
    432e:	b003      	add	sp, #12
    4330:	e8bd 8ff0 	ldmia.w	sp!, {r4, r5, r6, r7, r8, r9, r10, r11, pc}
    4334:	4618      	mov	r0, r3
    4336:	9201      	str	r2, [sp, #4]
    4338:	f7fe ffd2 	bl	32e0 <get_fat(FATFS*, unsigned long) [clone .part.3]>
    433c:	9a01      	ldr	r2, [sp, #4]
    433e:	e7e3      	b.n	4308 <f_read+0x150>
    4340:	79b3      	ldrb	r3, [r6, #6]
    4342:	f063 037f 	orn	r3, r3, #127	; 0x7f
    4346:	2001      	movs	r0, #1
    4348:	71b3      	strb	r3, [r6, #6]
    434a:	e748      	b.n	41de <f_read+0x26>

0000434c <f_sync>:
    434c:	b570      	push	{r4, r5, r6, lr}
    434e:	4604      	mov	r4, r0
    4350:	f7fe fd12 	bl	2d78 <validate(void*)>
    4354:	b9d8      	cbnz	r0, 438e <f_sync+0x42>
    4356:	79a2      	ldrb	r2, [r4, #6]
    4358:	f002 0320 	and.w	r3, r2, #32
    435c:	f003 00ff 	and.w	r0, r3, #255	; 0xff
    4360:	b1ab      	cbz	r3, 438e <f_sync+0x42>
    4362:	0653      	lsls	r3, r2, #25
    4364:	d50d      	bpl.n	4382 <f_sync+0x36>
    4366:	4621      	mov	r1, r4
    4368:	f851 3b24 	ldr.w	r3, [r1], #36
    436c:	69a2      	ldr	r2, [r4, #24]
    436e:	7858      	ldrb	r0, [r3, #1]
    4370:	2301      	movs	r3, #1
    4372:	f001 f8c5 	bl	5500 <disk_write(unsigned char, unsigned char const*, unsigned long, unsigned char)>
    4376:	2800      	cmp	r0, #0
    4378:	d139      	bne.n	43ee <f_sync+0xa2>
    437a:	79a3      	ldrb	r3, [r4, #6]
    437c:	f023 0340 	bic.w	r3, r3, #64	; 0x40
    4380:	71a3      	strb	r3, [r4, #6]
    4382:	6820      	ldr	r0, [r4, #0]
    4384:	69e1      	ldr	r1, [r4, #28]
    4386:	f7fe fcb9 	bl	2cfc <move_window(FATFS*, unsigned long)>
    438a:	4606      	mov	r6, r0
    438c:	b100      	cbz	r0, 4390 <f_sync+0x44>
    438e:	bd70      	pop	{r4, r5, r6, pc}
    4390:	6a25      	ldr	r5, [r4, #32]
    4392:	7aeb      	ldrb	r3, [r5, #11]
    4394:	f043 0320 	orr.w	r3, r3, #32
    4398:	72eb      	strb	r3, [r5, #11]
    439a:	68e3      	ldr	r3, [r4, #12]
    439c:	772b      	strb	r3, [r5, #28]
    439e:	89a3      	ldrh	r3, [r4, #12]
    43a0:	121b      	asrs	r3, r3, #8
    43a2:	776b      	strb	r3, [r5, #29]
    43a4:	89e3      	ldrh	r3, [r4, #14]
    43a6:	77ab      	strb	r3, [r5, #30]
    43a8:	7be3      	ldrb	r3, [r4, #15]
    43aa:	77eb      	strb	r3, [r5, #31]
    43ac:	6923      	ldr	r3, [r4, #16]
    43ae:	0c1a      	lsrs	r2, r3, #16
    43b0:	1211      	asrs	r1, r2, #8
    43b2:	f3c3 2007 	ubfx	r0, r3, #8, #8
    43b6:	76ab      	strb	r3, [r5, #26]
    43b8:	752a      	strb	r2, [r5, #20]
    43ba:	7569      	strb	r1, [r5, #21]
    43bc:	76e8      	strb	r0, [r5, #27]
    43be:	f7fe fc5f 	bl	2c80 <get_fattime>
    43c2:	f3c0 2107 	ubfx	r1, r0, #8, #8
    43c6:	0c02      	lsrs	r2, r0, #16
    43c8:	0e03      	lsrs	r3, r0, #24
    43ca:	762a      	strb	r2, [r5, #24]
    43cc:	75a8      	strb	r0, [r5, #22]
    43ce:	74ae      	strb	r6, [r5, #18]
    43d0:	74ee      	strb	r6, [r5, #19]
    43d2:	75e9      	strb	r1, [r5, #23]
    43d4:	766b      	strb	r3, [r5, #25]
    43d6:	79a1      	ldrb	r1, [r4, #6]
    43d8:	6823      	ldr	r3, [r4, #0]
    43da:	f021 0120 	bic.w	r1, r1, #32
    43de:	2201      	movs	r2, #1
    43e0:	71a1      	strb	r1, [r4, #6]
    43e2:	711a      	strb	r2, [r3, #4]
    43e4:	6820      	ldr	r0, [r4, #0]
    43e6:	e8bd 4070 	ldmia.w	sp!, {r4, r5, r6, lr}
    43ea:	f7fe bd55 	b.w	2e98 <sync(FATFS*)>
    43ee:	2001      	movs	r0, #1
    43f0:	bd70      	pop	{r4, r5, r6, pc}
    43f2:	bf00      	nop

000043f4 <f_write>:
    43f4:	e92d 4ff0 	stmdb	sp!, {r4, r5, r6, r7, r8, r9, r10, r11, lr}
    43f8:	469b      	mov	r11, r3
    43fa:	2300      	movs	r3, #0
    43fc:	b083      	sub	sp, #12
    43fe:	f8cb 3000 	str.w	r3, [r11]
    4402:	4689      	mov	r9, r1
    4404:	4690      	mov	r8, r2
    4406:	4607      	mov	r7, r0
    4408:	f7fe fcb6 	bl	2d78 <validate(void*)>
    440c:	b928      	cbnz	r0, 441a <f_write+0x26>
    440e:	79ba      	ldrb	r2, [r7, #6]
    4410:	0614      	lsls	r4, r2, #24
    4412:	d405      	bmi.n	4420 <f_write+0x2c>
    4414:	0791      	lsls	r1, r2, #30
    4416:	d407      	bmi.n	4428 <f_write+0x34>
    4418:	2007      	movs	r0, #7
    441a:	b003      	add	sp, #12
    441c:	e8bd 8ff0 	ldmia.w	sp!, {r4, r5, r6, r7, r8, r9, r10, r11, pc}
    4420:	2002      	movs	r0, #2
    4422:	b003      	add	sp, #12
    4424:	e8bd 8ff0 	ldmia.w	sp!, {r4, r5, r6, r7, r8, r9, r10, r11, pc}
    4428:	68f9      	ldr	r1, [r7, #12]
    442a:	eb18 0f01 	cmn.w	r8, r1
    442e:	d30c      	bcc.n	444a <f_write+0x56>
    4430:	68bb      	ldr	r3, [r7, #8]
    4432:	4605      	mov	r5, r0
    4434:	428b      	cmp	r3, r1
    4436:	f042 0220 	orr.w	r2, r2, #32
    443a:	bf88      	it	hi
    443c:	60fb      	strhi	r3, [r7, #12]
    443e:	71ba      	strb	r2, [r7, #6]
    4440:	2d00      	cmp	r5, #0
    4442:	f040 80bc 	bne.w	45be <f_write+0x1ca>
    4446:	2000      	movs	r0, #0
    4448:	e7e7      	b.n	441a <f_write+0x26>
    444a:	f1b8 0f00 	cmp.w	r8, #0
    444e:	f000 80c6 	beq.w	45de <f_write+0x1ea>
    4452:	f107 0224 	add.w	r2, r7, #36	; 0x24
    4456:	68bb      	ldr	r3, [r7, #8]
    4458:	4605      	mov	r5, r0
    445a:	9201      	str	r2, [sp, #4]
    445c:	f3c3 0408 	ubfx	r4, r3, #0, #9
    4460:	2c00      	cmp	r4, #0
    4462:	d16c      	bne.n	453e <f_write+0x14a>
    4464:	683a      	ldr	r2, [r7, #0]
    4466:	7896      	ldrb	r6, [r2, #2]
    4468:	3e01      	subs	r6, #1
    446a:	ea06 2653 	and.w	r6, r6, r3, lsr #9
    446e:	f016 06ff 	ands.w	r6, r6, #255	; 0xff
    4472:	d111      	bne.n	4498 <f_write+0xa4>
    4474:	2b00      	cmp	r3, #0
    4476:	f040 8085 	bne.w	4584 <f_write+0x190>
    447a:	6938      	ldr	r0, [r7, #16]
    447c:	2800      	cmp	r0, #0
    447e:	f000 808c 	beq.w	459a <f_write+0x1a6>
    4482:	2801      	cmp	r0, #1
    4484:	f000 80a5 	beq.w	45d2 <f_write+0x1de>
    4488:	1c42      	adds	r2, r0, #1
    448a:	f000 809c 	beq.w	45c6 <f_write+0x1d2>
    448e:	68bb      	ldr	r3, [r7, #8]
    4490:	6178      	str	r0, [r7, #20]
    4492:	683a      	ldr	r2, [r7, #0]
    4494:	b103      	cbz	r3, 4498 <f_write+0xa4>
    4496:	2501      	movs	r5, #1
    4498:	79bb      	ldrb	r3, [r7, #6]
    449a:	065b      	lsls	r3, r3, #25
    449c:	d465      	bmi.n	456a <f_write+0x176>
    449e:	697b      	ldr	r3, [r7, #20]
    44a0:	6991      	ldr	r1, [r2, #24]
    44a2:	3b02      	subs	r3, #2
    44a4:	3902      	subs	r1, #2
    44a6:	428b      	cmp	r3, r1
    44a8:	f080 8093 	bcs.w	45d2 <f_write+0x1de>
    44ac:	7891      	ldrb	r1, [r2, #2]
    44ae:	6a94      	ldr	r4, [r2, #40]	; 0x28
    44b0:	fb03 4401 	mla	r4, r3, r1, r4
    44b4:	2c00      	cmp	r4, #0
    44b6:	f000 808c 	beq.w	45d2 <f_write+0x1de>
    44ba:	ea5f 2a58 	movs.w	r10, r8, lsr #9
    44be:	4434      	add	r4, r6
    44c0:	d033      	beq.n	452a <f_write+0x136>
    44c2:	eb06 030a 	add.w	r3, r6, r10
    44c6:	428b      	cmp	r3, r1
    44c8:	bf88      	it	hi
    44ca:	ebc6 0a01 	rsbhi	r10, r6, r1
    44ce:	7850      	ldrb	r0, [r2, #1]
    44d0:	4649      	mov	r1, r9
    44d2:	4622      	mov	r2, r4
    44d4:	fa5f f38a 	uxtb.w	r3, r10
    44d8:	f001 f812 	bl	5500 <disk_write(unsigned char, unsigned char const*, unsigned long, unsigned char)>
    44dc:	2800      	cmp	r0, #0
    44de:	d172      	bne.n	45c6 <f_write+0x1d2>
    44e0:	69bb      	ldr	r3, [r7, #24]
    44e2:	1b1c      	subs	r4, r3, r4
    44e4:	45a2      	cmp	r10, r4
    44e6:	d90e      	bls.n	4506 <f_write+0x112>
    44e8:	eb09 2444 	add.w	r4, r9, r4, lsl #9
    44ec:	9d01      	ldr	r5, [sp, #4]
    44ee:	f504 7300 	add.w	r3, r4, #512	; 0x200
    44f2:	f814 6b01 	ldrb.w	r6, [r4], #1
    44f6:	429c      	cmp	r4, r3
    44f8:	f805 6b01 	strb.w	r6, [r5], #1
    44fc:	d1f9      	bne.n	44f2 <f_write+0xfe>
    44fe:	79bb      	ldrb	r3, [r7, #6]
    4500:	f023 0340 	bic.w	r3, r3, #64	; 0x40
    4504:	71bb      	strb	r3, [r7, #6]
    4506:	68bb      	ldr	r3, [r7, #8]
    4508:	ea4f 204a 	mov.w	r0, r10, lsl #9
    450c:	2501      	movs	r5, #1
    450e:	f8db 2000 	ldr.w	r2, [r11]
    4512:	4403      	add	r3, r0
    4514:	4402      	add	r2, r0
    4516:	ebb8 0800 	subs.w	r8, r8, r0
    451a:	60bb      	str	r3, [r7, #8]
    451c:	4481      	add	r9, r0
    451e:	f8cb 2000 	str.w	r2, [r11]
    4522:	d19b      	bne.n	445c <f_write+0x68>
    4524:	68f9      	ldr	r1, [r7, #12]
    4526:	79ba      	ldrb	r2, [r7, #6]
    4528:	e784      	b.n	4434 <f_write+0x40>
    452a:	69bb      	ldr	r3, [r7, #24]
    452c:	42a3      	cmp	r3, r4
    452e:	68bb      	ldr	r3, [r7, #8]
    4530:	d002      	beq.n	4538 <f_write+0x144>
    4532:	68f9      	ldr	r1, [r7, #12]
    4534:	428b      	cmp	r3, r1
    4536:	d339      	bcc.n	45ac <f_write+0x1b8>
    4538:	61bc      	str	r4, [r7, #24]
    453a:	f3c3 0408 	ubfx	r4, r3, #0, #9
    453e:	f5c4 7000 	rsb	r0, r4, #512	; 0x200
    4542:	4540      	cmp	r0, r8
    4544:	bf28      	it	cs
    4546:	4640      	movcs	r0, r8
    4548:	443c      	add	r4, r7
    454a:	3424      	adds	r4, #36	; 0x24
    454c:	b140      	cbz	r0, 4560 <f_write+0x16c>
    454e:	1821      	adds	r1, r4, r0
    4550:	464b      	mov	r3, r9
    4552:	f813 2b01 	ldrb.w	r2, [r3], #1
    4556:	f804 2b01 	strb.w	r2, [r4], #1
    455a:	428c      	cmp	r4, r1
    455c:	d1f9      	bne.n	4552 <f_write+0x15e>
    455e:	68bb      	ldr	r3, [r7, #8]
    4560:	79ba      	ldrb	r2, [r7, #6]
    4562:	f042 0240 	orr.w	r2, r2, #64	; 0x40
    4566:	71ba      	strb	r2, [r7, #6]
    4568:	e7d1      	b.n	450e <f_write+0x11a>
    456a:	7850      	ldrb	r0, [r2, #1]
    456c:	2301      	movs	r3, #1
    456e:	9901      	ldr	r1, [sp, #4]
    4570:	69ba      	ldr	r2, [r7, #24]
    4572:	f000 ffc5 	bl	5500 <disk_write(unsigned char, unsigned char const*, unsigned long, unsigned char)>
    4576:	79bb      	ldrb	r3, [r7, #6]
    4578:	bb30      	cbnz	r0, 45c8 <f_write+0x1d4>
    457a:	f023 0340 	bic.w	r3, r3, #64	; 0x40
    457e:	683a      	ldr	r2, [r7, #0]
    4580:	71bb      	strb	r3, [r7, #6]
    4582:	e78c      	b.n	449e <f_write+0xaa>
    4584:	4610      	mov	r0, r2
    4586:	6979      	ldr	r1, [r7, #20]
    4588:	f7fe ffd8 	bl	353c <create_chain(FATFS*, unsigned long)>
    458c:	2800      	cmp	r0, #0
    458e:	f47f af78 	bne.w	4482 <f_write+0x8e>
    4592:	68bb      	ldr	r3, [r7, #8]
    4594:	68f9      	ldr	r1, [r7, #12]
    4596:	79ba      	ldrb	r2, [r7, #6]
    4598:	e74c      	b.n	4434 <f_write+0x40>
    459a:	4610      	mov	r0, r2
    459c:	4631      	mov	r1, r6
    459e:	f7fe ffcd 	bl	353c <create_chain(FATFS*, unsigned long)>
    45a2:	6138      	str	r0, [r7, #16]
    45a4:	2800      	cmp	r0, #0
    45a6:	f47f af6c 	bne.w	4482 <f_write+0x8e>
    45aa:	e7f2      	b.n	4592 <f_write+0x19e>
    45ac:	7850      	ldrb	r0, [r2, #1]
    45ae:	9901      	ldr	r1, [sp, #4]
    45b0:	4622      	mov	r2, r4
    45b2:	2301      	movs	r3, #1
    45b4:	f000 ff92 	bl	54dc <disk_read(unsigned char, unsigned char*, unsigned long, unsigned char)>
    45b8:	b928      	cbnz	r0, 45c6 <f_write+0x1d2>
    45ba:	68bb      	ldr	r3, [r7, #8]
    45bc:	e7bc      	b.n	4538 <f_write+0x144>
    45be:	4638      	mov	r0, r7
    45c0:	f7ff fec4 	bl	434c <f_sync>
    45c4:	e73f      	b.n	4446 <f_write+0x52>
    45c6:	79bb      	ldrb	r3, [r7, #6]
    45c8:	f063 037f 	orn	r3, r3, #127	; 0x7f
    45cc:	2001      	movs	r0, #1
    45ce:	71bb      	strb	r3, [r7, #6]
    45d0:	e723      	b.n	441a <f_write+0x26>
    45d2:	79bb      	ldrb	r3, [r7, #6]
    45d4:	2002      	movs	r0, #2
    45d6:	f063 037f 	orn	r3, r3, #127	; 0x7f
    45da:	71bb      	strb	r3, [r7, #6]
    45dc:	e71d      	b.n	441a <f_write+0x26>
    45de:	4645      	mov	r5, r8
    45e0:	68bb      	ldr	r3, [r7, #8]
    45e2:	e727      	b.n	4434 <f_write+0x40>

000045e4 <f_close>:
    45e4:	b510      	push	{r4, lr}
    45e6:	4604      	mov	r4, r0
    45e8:	f7ff feb0 	bl	434c <f_sync>
    45ec:	b900      	cbnz	r0, 45f0 <f_close+0xc>
    45ee:	6020      	str	r0, [r4, #0]
    45f0:	bd10      	pop	{r4, pc}
    45f2:	bf00      	nop

000045f4 <f_lseek>:
    45f4:	b570      	push	{r4, r5, r6, lr}
    45f6:	460d      	mov	r5, r1
    45f8:	4604      	mov	r4, r0
    45fa:	f7fe fbbd 	bl	2d78 <validate(void*)>
    45fe:	2800      	cmp	r0, #0
    4600:	d147      	bne.n	4692 <f_lseek+0x9e>
    4602:	79a3      	ldrb	r3, [r4, #6]
    4604:	061e      	lsls	r6, r3, #24
    4606:	d445      	bmi.n	4694 <f_lseek+0xa0>
    4608:	68e2      	ldr	r2, [r4, #12]
    460a:	42aa      	cmp	r2, r5
    460c:	d203      	bcs.n	4616 <f_lseek+0x22>
    460e:	f013 0f02 	tst.w	r3, #2
    4612:	bf08      	it	eq
    4614:	4615      	moveq	r5, r2
    4616:	2300      	movs	r3, #0
    4618:	68a2      	ldr	r2, [r4, #8]
    461a:	60a3      	str	r3, [r4, #8]
    461c:	2d00      	cmp	r5, #0
    461e:	d03b      	beq.n	4698 <f_lseek+0xa4>
    4620:	6820      	ldr	r0, [r4, #0]
    4622:	7886      	ldrb	r6, [r0, #2]
    4624:	0276      	lsls	r6, r6, #9
    4626:	b142      	cbz	r2, 463a <f_lseek+0x46>
    4628:	3a01      	subs	r2, #1
    462a:	1e69      	subs	r1, r5, #1
    462c:	fbb2 f3f6 	udiv	r3, r2, r6
    4630:	fbb1 f1f6 	udiv	r1, r1, r6
    4634:	4299      	cmp	r1, r3
    4636:	f080 8082 	bcs.w	473e <f_lseek+0x14a>
    463a:	6921      	ldr	r1, [r4, #16]
    463c:	2900      	cmp	r1, #0
    463e:	f000 8084 	beq.w	474a <f_lseek+0x156>
    4642:	6161      	str	r1, [r4, #20]
    4644:	2900      	cmp	r1, #0
    4646:	d129      	bne.n	469c <f_lseek+0xa8>
    4648:	68a3      	ldr	r3, [r4, #8]
    464a:	460d      	mov	r5, r1
    464c:	f3c3 0208 	ubfx	r2, r3, #0, #9
    4650:	2a00      	cmp	r2, #0
    4652:	f000 8083 	beq.w	475c <f_lseek+0x168>
    4656:	69a2      	ldr	r2, [r4, #24]
    4658:	42aa      	cmp	r2, r5
    465a:	d07f      	beq.n	475c <f_lseek+0x168>
    465c:	79a3      	ldrb	r3, [r4, #6]
    465e:	065b      	lsls	r3, r3, #25
    4660:	d45e      	bmi.n	4720 <f_lseek+0x12c>
    4662:	f104 0624 	add.w	r6, r4, #36	; 0x24
    4666:	6823      	ldr	r3, [r4, #0]
    4668:	4631      	mov	r1, r6
    466a:	7858      	ldrb	r0, [r3, #1]
    466c:	462a      	mov	r2, r5
    466e:	2301      	movs	r3, #1
    4670:	f000 ff34 	bl	54dc <disk_read(unsigned char, unsigned char*, unsigned long, unsigned char)>
    4674:	2800      	cmp	r0, #0
    4676:	d14d      	bne.n	4714 <f_lseek+0x120>
    4678:	68a3      	ldr	r3, [r4, #8]
    467a:	68e2      	ldr	r2, [r4, #12]
    467c:	61a5      	str	r5, [r4, #24]
    467e:	429a      	cmp	r2, r3
    4680:	d206      	bcs.n	4690 <f_lseek+0x9c>
    4682:	79a2      	ldrb	r2, [r4, #6]
    4684:	60e3      	str	r3, [r4, #12]
    4686:	f042 0320 	orr.w	r3, r2, #32
    468a:	71a3      	strb	r3, [r4, #6]
    468c:	2000      	movs	r0, #0
    468e:	bd70      	pop	{r4, r5, r6, pc}
    4690:	2000      	movs	r0, #0
    4692:	bd70      	pop	{r4, r5, r6, pc}
    4694:	2002      	movs	r0, #2
    4696:	bd70      	pop	{r4, r5, r6, pc}
    4698:	4628      	mov	r0, r5
    469a:	bd70      	pop	{r4, r5, r6, pc}
    469c:	42b5      	cmp	r5, r6
    469e:	d96a      	bls.n	4776 <f_lseek+0x182>
    46a0:	6820      	ldr	r0, [r4, #0]
    46a2:	79a3      	ldrb	r3, [r4, #6]
    46a4:	1bad      	subs	r5, r5, r6
    46a6:	079a      	lsls	r2, r3, #30
    46a8:	d409      	bmi.n	46be <f_lseek+0xca>
    46aa:	2901      	cmp	r1, #1
    46ac:	d902      	bls.n	46b4 <f_lseek+0xc0>
    46ae:	6982      	ldr	r2, [r0, #24]
    46b0:	428a      	cmp	r2, r1
    46b2:	d82b      	bhi.n	470c <f_lseek+0x118>
    46b4:	f063 037f 	orn	r3, r3, #127	; 0x7f
    46b8:	71a3      	strb	r3, [r4, #6]
    46ba:	2002      	movs	r0, #2
    46bc:	bd70      	pop	{r4, r5, r6, pc}
    46be:	f7fe ff3d 	bl	353c <create_chain(FATFS*, unsigned long)>
    46c2:	4601      	mov	r1, r0
    46c4:	2800      	cmp	r0, #0
    46c6:	d055      	beq.n	4774 <f_lseek+0x180>
    46c8:	1c4a      	adds	r2, r1, #1
    46ca:	d023      	beq.n	4714 <f_lseek+0x120>
    46cc:	2901      	cmp	r1, #1
    46ce:	d94d      	bls.n	476c <f_lseek+0x178>
    46d0:	6820      	ldr	r0, [r4, #0]
    46d2:	6983      	ldr	r3, [r0, #24]
    46d4:	4299      	cmp	r1, r3
    46d6:	d249      	bcs.n	476c <f_lseek+0x178>
    46d8:	68a3      	ldr	r3, [r4, #8]
    46da:	42ae      	cmp	r6, r5
    46dc:	4433      	add	r3, r6
    46de:	6161      	str	r1, [r4, #20]
    46e0:	60a3      	str	r3, [r4, #8]
    46e2:	d3de      	bcc.n	46a2 <f_lseek+0xae>
    46e4:	442b      	add	r3, r5
    46e6:	f3c5 0208 	ubfx	r2, r5, #0, #9
    46ea:	60a3      	str	r3, [r4, #8]
    46ec:	2a00      	cmp	r2, #0
    46ee:	d03f      	beq.n	4770 <f_lseek+0x17c>
    46f0:	6826      	ldr	r6, [r4, #0]
    46f2:	1e8a      	subs	r2, r1, #2
    46f4:	69b0      	ldr	r0, [r6, #24]
    46f6:	3802      	subs	r0, #2
    46f8:	4282      	cmp	r2, r0
    46fa:	d231      	bcs.n	4760 <f_lseek+0x16c>
    46fc:	78b0      	ldrb	r0, [r6, #2]
    46fe:	6ab1      	ldr	r1, [r6, #40]	; 0x28
    4700:	fb00 1202 	mla	r2, r0, r2, r1
    4704:	b362      	cbz	r2, 4760 <f_lseek+0x16c>
    4706:	eb02 2555 	add.w	r5, r2, r5, lsr #9
    470a:	e79f      	b.n	464c <f_lseek+0x58>
    470c:	f7fe fde8 	bl	32e0 <get_fat(FATFS*, unsigned long) [clone .part.3]>
    4710:	4601      	mov	r1, r0
    4712:	e7d9      	b.n	46c8 <f_lseek+0xd4>
    4714:	79a3      	ldrb	r3, [r4, #6]
    4716:	f063 037f 	orn	r3, r3, #127	; 0x7f
    471a:	71a3      	strb	r3, [r4, #6]
    471c:	2001      	movs	r0, #1
    471e:	bd70      	pop	{r4, r5, r6, pc}
    4720:	6823      	ldr	r3, [r4, #0]
    4722:	f104 0624 	add.w	r6, r4, #36	; 0x24
    4726:	7858      	ldrb	r0, [r3, #1]
    4728:	4631      	mov	r1, r6
    472a:	2301      	movs	r3, #1
    472c:	f000 fee8 	bl	5500 <disk_write(unsigned char, unsigned char const*, unsigned long, unsigned char)>
    4730:	79a3      	ldrb	r3, [r4, #6]
    4732:	2800      	cmp	r0, #0
    4734:	d1ef      	bne.n	4716 <f_lseek+0x122>
    4736:	f023 0340 	bic.w	r3, r3, #64	; 0x40
    473a:	71a3      	strb	r3, [r4, #6]
    473c:	e793      	b.n	4666 <f_lseek+0x72>
    473e:	4273      	negs	r3, r6
    4740:	401a      	ands	r2, r3
    4742:	60a2      	str	r2, [r4, #8]
    4744:	1aad      	subs	r5, r5, r2
    4746:	6961      	ldr	r1, [r4, #20]
    4748:	e77c      	b.n	4644 <f_lseek+0x50>
    474a:	f7fe fef7 	bl	353c <create_chain(FATFS*, unsigned long)>
    474e:	2801      	cmp	r0, #1
    4750:	4601      	mov	r1, r0
    4752:	d005      	beq.n	4760 <f_lseek+0x16c>
    4754:	3001      	adds	r0, #1
    4756:	d0dd      	beq.n	4714 <f_lseek+0x120>
    4758:	6121      	str	r1, [r4, #16]
    475a:	e772      	b.n	4642 <f_lseek+0x4e>
    475c:	68e2      	ldr	r2, [r4, #12]
    475e:	e78e      	b.n	467e <f_lseek+0x8a>
    4760:	79a3      	ldrb	r3, [r4, #6]
    4762:	2002      	movs	r0, #2
    4764:	f063 037f 	orn	r3, r3, #127	; 0x7f
    4768:	71a3      	strb	r3, [r4, #6]
    476a:	bd70      	pop	{r4, r5, r6, pc}
    476c:	79a3      	ldrb	r3, [r4, #6]
    476e:	e7a1      	b.n	46b4 <f_lseek+0xc0>
    4770:	4615      	mov	r5, r2
    4772:	e76b      	b.n	464c <f_lseek+0x58>
    4774:	4635      	mov	r5, r6
    4776:	68a3      	ldr	r3, [r4, #8]
    4778:	e7b4      	b.n	46e4 <f_lseek+0xf0>
    477a:	bf00      	nop

0000477c <f_opendir>:
    477c:	b530      	push	{r4, r5, lr}
    477e:	b087      	sub	sp, #28
    4780:	4604      	mov	r4, r0
    4782:	9101      	str	r1, [sp, #4]
    4784:	b150      	cbz	r0, 479c <f_opendir+0x20>
    4786:	a801      	add	r0, sp, #4
    4788:	4621      	mov	r1, r4
    478a:	2200      	movs	r2, #0
    478c:	f7fe fc2e 	bl	2fec <chk_mounted(char const**, FATFS**, unsigned char)>
    4790:	6825      	ldr	r5, [r4, #0]
    4792:	b130      	cbz	r0, 47a2 <f_opendir+0x26>
    4794:	2300      	movs	r3, #0
    4796:	6023      	str	r3, [r4, #0]
    4798:	b007      	add	sp, #28
    479a:	bd30      	pop	{r4, r5, pc}
    479c:	2009      	movs	r0, #9
    479e:	b007      	add	sp, #28
    47a0:	bd30      	pop	{r4, r5, pc}
    47a2:	4a15      	ldr	r2, [pc, #84]	; (47f8 <f_opendir+0x7c>)
    47a4:	ab03      	add	r3, sp, #12
    47a6:	61e2      	str	r2, [r4, #28]
    47a8:	61a3      	str	r3, [r4, #24]
    47aa:	4620      	mov	r0, r4
    47ac:	9901      	ldr	r1, [sp, #4]
    47ae:	f7ff f94f 	bl	3a50 <follow_path(FATFS_DIR*, char const*)>
    47b2:	b990      	cbnz	r0, 47da <f_opendir+0x5e>
    47b4:	6963      	ldr	r3, [r4, #20]
    47b6:	b153      	cbz	r3, 47ce <f_opendir+0x52>
    47b8:	7ada      	ldrb	r2, [r3, #11]
    47ba:	06d2      	lsls	r2, r2, #27
    47bc:	d512      	bpl.n	47e4 <f_opendir+0x68>
    47be:	7829      	ldrb	r1, [r5, #0]
    47c0:	7ed8      	ldrb	r0, [r3, #27]
    47c2:	7e9a      	ldrb	r2, [r3, #26]
    47c4:	2903      	cmp	r1, #3
    47c6:	ea42 2200 	orr.w	r2, r2, r0, lsl #8
    47ca:	d00d      	beq.n	47e8 <f_opendir+0x6c>
    47cc:	60a2      	str	r2, [r4, #8]
    47ce:	88eb      	ldrh	r3, [r5, #6]
    47d0:	4620      	mov	r0, r4
    47d2:	80a3      	strh	r3, [r4, #4]
    47d4:	2100      	movs	r1, #0
    47d6:	f7fe fde3 	bl	33a0 <dir_sdi(FATFS_DIR*, unsigned short)>
    47da:	2804      	cmp	r0, #4
    47dc:	d002      	beq.n	47e4 <f_opendir+0x68>
    47de:	2800      	cmp	r0, #0
    47e0:	d0da      	beq.n	4798 <f_opendir+0x1c>
    47e2:	e7d7      	b.n	4794 <f_opendir+0x18>
    47e4:	2005      	movs	r0, #5
    47e6:	e7d5      	b.n	4794 <f_opendir+0x18>
    47e8:	7d59      	ldrb	r1, [r3, #21]
    47ea:	7d1b      	ldrb	r3, [r3, #20]
    47ec:	ea43 2301 	orr.w	r3, r3, r1, lsl #8
    47f0:	ea42 4203 	orr.w	r2, r2, r3, lsl #16
    47f4:	e7ea      	b.n	47cc <f_opendir+0x50>
    47f6:	bf00      	nop
    47f8:	10000254 	.word	0x10000254

000047fc <f_readdir>:
    47fc:	b570      	push	{r4, r5, r6, lr}
    47fe:	b084      	sub	sp, #16
    4800:	460e      	mov	r6, r1
    4802:	4605      	mov	r5, r0
    4804:	f7fe fab8 	bl	2d78 <validate(void*)>
    4808:	4604      	mov	r4, r0
    480a:	b958      	cbnz	r0, 4824 <f_readdir+0x28>
    480c:	b1de      	cbz	r6, 4846 <f_readdir+0x4a>
    480e:	4a11      	ldr	r2, [pc, #68]	; (4854 <f_readdir+0x58>)
    4810:	ab01      	add	r3, sp, #4
    4812:	61ea      	str	r2, [r5, #28]
    4814:	61ab      	str	r3, [r5, #24]
    4816:	4628      	mov	r0, r5
    4818:	f7fe ff8a 	bl	3730 <dir_read(FATFS_DIR*)>
    481c:	2804      	cmp	r0, #4
    481e:	d004      	beq.n	482a <f_readdir+0x2e>
    4820:	b120      	cbz	r0, 482c <f_readdir+0x30>
    4822:	4604      	mov	r4, r0
    4824:	4620      	mov	r0, r4
    4826:	b004      	add	sp, #16
    4828:	bd70      	pop	{r4, r5, r6, pc}
    482a:	612c      	str	r4, [r5, #16]
    482c:	4631      	mov	r1, r6
    482e:	4628      	mov	r0, r5
    4830:	f7fe fab6 	bl	2da0 <get_fileinfo(FATFS_DIR*, FILINFO*)>
    4834:	4628      	mov	r0, r5
    4836:	2100      	movs	r1, #0
    4838:	f7fe fee0 	bl	35fc <dir_next(FATFS_DIR*, int)>
    483c:	2804      	cmp	r0, #4
    483e:	d1f0      	bne.n	4822 <f_readdir+0x26>
    4840:	2300      	movs	r3, #0
    4842:	612b      	str	r3, [r5, #16]
    4844:	e7ee      	b.n	4824 <f_readdir+0x28>
    4846:	4621      	mov	r1, r4
    4848:	4628      	mov	r0, r5
    484a:	f7fe fda9 	bl	33a0 <dir_sdi(FATFS_DIR*, unsigned short)>
    484e:	4604      	mov	r4, r0
    4850:	e7e8      	b.n	4824 <f_readdir+0x28>
    4852:	bf00      	nop
    4854:	10000254 	.word	0x10000254

00004858 <f_unlink>:
    4858:	b530      	push	{r4, r5, lr}
    485a:	b099      	sub	sp, #100	; 0x64
    485c:	ab18      	add	r3, sp, #96	; 0x60
    485e:	f843 0d5c 	str.w	r0, [r3, #-92]!
    4862:	4618      	mov	r0, r3
    4864:	a906      	add	r1, sp, #24
    4866:	2201      	movs	r2, #1
    4868:	f7fe fbc0 	bl	2fec <chk_mounted(char const**, FATFS**, unsigned char)>
    486c:	b108      	cbz	r0, 4872 <f_unlink+0x1a>
    486e:	b019      	add	sp, #100	; 0x64
    4870:	bd30      	pop	{r4, r5, pc}
    4872:	4a2e      	ldr	r2, [pc, #184]	; (492c <f_unlink+0xd4>)
    4874:	ab03      	add	r3, sp, #12
    4876:	a806      	add	r0, sp, #24
    4878:	9901      	ldr	r1, [sp, #4]
    487a:	920d      	str	r2, [sp, #52]	; 0x34
    487c:	930c      	str	r3, [sp, #48]	; 0x30
    487e:	f7ff f8e7 	bl	3a50 <follow_path(FATFS_DIR*, char const*)>
    4882:	2800      	cmp	r0, #0
    4884:	d1f3      	bne.n	486e <f_unlink+0x16>
    4886:	9b0b      	ldr	r3, [sp, #44]	; 0x2c
    4888:	2b00      	cmp	r3, #0
    488a:	d04a      	beq.n	4922 <f_unlink+0xca>
    488c:	7ada      	ldrb	r2, [r3, #11]
    488e:	f012 0f01 	tst.w	r2, #1
    4892:	bf0c      	ite	eq
    4894:	2000      	moveq	r0, #0
    4896:	2007      	movne	r0, #7
    4898:	9a06      	ldr	r2, [sp, #24]
    489a:	7edd      	ldrb	r5, [r3, #27]
    489c:	7812      	ldrb	r2, [r2, #0]
    489e:	7e99      	ldrb	r1, [r3, #26]
    48a0:	2a03      	cmp	r2, #3
    48a2:	ea41 2505 	orr.w	r5, r1, r5, lsl #8
    48a6:	d02a      	beq.n	48fe <f_unlink+0xa6>
    48a8:	2800      	cmp	r0, #0
    48aa:	d1e0      	bne.n	486e <f_unlink+0x16>
    48ac:	7adb      	ldrb	r3, [r3, #11]
    48ae:	06db      	lsls	r3, r3, #27
    48b0:	d517      	bpl.n	48e2 <f_unlink+0x8a>
    48b2:	2d01      	cmp	r5, #1
    48b4:	d921      	bls.n	48fa <f_unlink+0xa2>
    48b6:	a80f      	add	r0, sp, #60	; 0x3c
    48b8:	4603      	mov	r3, r0
    48ba:	ac06      	add	r4, sp, #24
    48bc:	f814 2b01 	ldrb.w	r2, [r4], #1
    48c0:	4284      	cmp	r4, r0
    48c2:	f803 2b01 	strb.w	r2, [r3], #1
    48c6:	d1f9      	bne.n	48bc <f_unlink+0x64>
    48c8:	4620      	mov	r0, r4
    48ca:	2102      	movs	r1, #2
    48cc:	9511      	str	r5, [sp, #68]	; 0x44
    48ce:	f7fe fd67 	bl	33a0 <dir_sdi(FATFS_DIR*, unsigned short)>
    48d2:	2800      	cmp	r0, #0
    48d4:	d1cb      	bne.n	486e <f_unlink+0x16>
    48d6:	4620      	mov	r0, r4
    48d8:	f7fe ff2a 	bl	3730 <dir_read(FATFS_DIR*)>
    48dc:	b318      	cbz	r0, 4926 <f_unlink+0xce>
    48de:	2804      	cmp	r0, #4
    48e0:	d1c5      	bne.n	486e <f_unlink+0x16>
    48e2:	a806      	add	r0, sp, #24
    48e4:	f7fe ffb4 	bl	3850 <dir_remove(FATFS_DIR*)>
    48e8:	2800      	cmp	r0, #0
    48ea:	d1c0      	bne.n	486e <f_unlink+0x16>
    48ec:	b1ad      	cbz	r5, 491a <f_unlink+0xc2>
    48ee:	2d01      	cmp	r5, #1
    48f0:	9806      	ldr	r0, [sp, #24]
    48f2:	d902      	bls.n	48fa <f_unlink+0xa2>
    48f4:	6983      	ldr	r3, [r0, #24]
    48f6:	429d      	cmp	r5, r3
    48f8:	d30a      	bcc.n	4910 <f_unlink+0xb8>
    48fa:	2002      	movs	r0, #2
    48fc:	e7b7      	b.n	486e <f_unlink+0x16>
    48fe:	7d59      	ldrb	r1, [r3, #21]
    4900:	7d1a      	ldrb	r2, [r3, #20]
    4902:	ea42 2201 	orr.w	r2, r2, r1, lsl #8
    4906:	ea45 4502 	orr.w	r5, r5, r2, lsl #16
    490a:	2800      	cmp	r0, #0
    490c:	d1af      	bne.n	486e <f_unlink+0x16>
    490e:	e7cd      	b.n	48ac <f_unlink+0x54>
    4910:	4629      	mov	r1, r5
    4912:	f7ff f86f 	bl	39f4 <remove_chain(FATFS*, unsigned long) [clone .part.6]>
    4916:	2800      	cmp	r0, #0
    4918:	d1a9      	bne.n	486e <f_unlink+0x16>
    491a:	9806      	ldr	r0, [sp, #24]
    491c:	f7fe fabc 	bl	2e98 <sync(FATFS*)>
    4920:	e7a5      	b.n	486e <f_unlink+0x16>
    4922:	2006      	movs	r0, #6
    4924:	e7b8      	b.n	4898 <f_unlink+0x40>
    4926:	2007      	movs	r0, #7
    4928:	e7a1      	b.n	486e <f_unlink+0x16>
    492a:	bf00      	nop
    492c:	10000254 	.word	0x10000254

00004930 <f_mkdir>:
    4930:	e92d 4ff0 	stmdb	sp!, {r4, r5, r6, r7, r8, r9, r10, r11, lr}
    4934:	b097      	sub	sp, #92	; 0x5c
    4936:	ac16      	add	r4, sp, #88	; 0x58
    4938:	f844 0d34 	str.w	r0, [r4, #-52]!
    493c:	f7fe f9a0 	bl	2c80 <get_fattime>
    4940:	2201      	movs	r2, #1
    4942:	4607      	mov	r7, r0
    4944:	a90d      	add	r1, sp, #52	; 0x34
    4946:	4620      	mov	r0, r4
    4948:	f7fe fb50 	bl	2fec <chk_mounted(char const**, FATFS**, unsigned char)>
    494c:	4602      	mov	r2, r0
    494e:	4604      	mov	r4, r0
    4950:	b118      	cbz	r0, 495a <f_mkdir+0x2a>
    4952:	4610      	mov	r0, r2
    4954:	b017      	add	sp, #92	; 0x5c
    4956:	e8bd 8ff0 	ldmia.w	sp!, {r4, r5, r6, r7, r8, r9, r10, r11, pc}
    495a:	4a79      	ldr	r2, [pc, #484]	; (4b40 <f_mkdir+0x210>)
    495c:	ab0a      	add	r3, sp, #40	; 0x28
    495e:	a80d      	add	r0, sp, #52	; 0x34
    4960:	9909      	ldr	r1, [sp, #36]	; 0x24
    4962:	9214      	str	r2, [sp, #80]	; 0x50
    4964:	9313      	str	r3, [sp, #76]	; 0x4c
    4966:	f7ff f873 	bl	3a50 <follow_path(FATFS_DIR*, char const*)>
    496a:	4602      	mov	r2, r0
    496c:	b1a0      	cbz	r0, 4998 <f_mkdir+0x68>
    496e:	2804      	cmp	r0, #4
    4970:	d1ef      	bne.n	4952 <f_mkdir+0x22>
    4972:	980d      	ldr	r0, [sp, #52]	; 0x34
    4974:	4621      	mov	r1, r4
    4976:	f7fe fde1 	bl	353c <create_chain(FATFS*, unsigned long)>
    497a:	4606      	mov	r6, r0
    497c:	b988      	cbnz	r0, 49a2 <f_mkdir+0x72>
    497e:	2207      	movs	r2, #7
    4980:	2e01      	cmp	r6, #1
    4982:	980d      	ldr	r0, [sp, #52]	; 0x34
    4984:	d9e5      	bls.n	4952 <f_mkdir+0x22>
    4986:	6983      	ldr	r3, [r0, #24]
    4988:	429e      	cmp	r6, r3
    498a:	d2e2      	bcs.n	4952 <f_mkdir+0x22>
    498c:	4631      	mov	r1, r6
    498e:	9201      	str	r2, [sp, #4]
    4990:	f7ff f830 	bl	39f4 <remove_chain(FATFS*, unsigned long) [clone .part.6]>
    4994:	9a01      	ldr	r2, [sp, #4]
    4996:	e7dc      	b.n	4952 <f_mkdir+0x22>
    4998:	2208      	movs	r2, #8
    499a:	4610      	mov	r0, r2
    499c:	b017      	add	sp, #92	; 0x5c
    499e:	e8bd 8ff0 	ldmia.w	sp!, {r4, r5, r6, r7, r8, r9, r10, r11, pc}
    49a2:	2801      	cmp	r0, #1
    49a4:	d101      	bne.n	49aa <f_mkdir+0x7a>
    49a6:	2202      	movs	r2, #2
    49a8:	e7ea      	b.n	4980 <f_mkdir+0x50>
    49aa:	1c43      	adds	r3, r0, #1
    49ac:	bf08      	it	eq
    49ae:	2201      	moveq	r2, #1
    49b0:	d0e6      	beq.n	4980 <f_mkdir+0x50>
    49b2:	4621      	mov	r1, r4
    49b4:	980d      	ldr	r0, [sp, #52]	; 0x34
    49b6:	f7fe f9a1 	bl	2cfc <move_window(FATFS*, unsigned long)>
    49ba:	4602      	mov	r2, r0
    49bc:	2800      	cmp	r0, #0
    49be:	d1df      	bne.n	4980 <f_mkdir+0x50>
    49c0:	990d      	ldr	r1, [sp, #52]	; 0x34
    49c2:	1eb3      	subs	r3, r6, #2
    49c4:	6988      	ldr	r0, [r1, #24]
    49c6:	3802      	subs	r0, #2
    49c8:	4283      	cmp	r3, r0
    49ca:	d203      	bcs.n	49d4 <f_mkdir+0xa4>
    49cc:	7888      	ldrb	r0, [r1, #2]
    49ce:	6a8a      	ldr	r2, [r1, #40]	; 0x28
    49d0:	fb00 2203 	mla	r2, r0, r3, r2
    49d4:	f101 0530 	add.w	r5, r1, #48	; 0x30
    49d8:	462b      	mov	r3, r5
    49da:	f501 740c 	add.w	r4, r1, #560	; 0x230
    49de:	2000      	movs	r0, #0
    49e0:	f803 0b01 	strb.w	r0, [r3], #1
    49e4:	42a3      	cmp	r3, r4
    49e6:	d1fb      	bne.n	49e0 <f_mkdir+0xb0>
    49e8:	f101 0e3b 	add.w	lr, r1, #59	; 0x3b
    49ec:	462b      	mov	r3, r5
    49ee:	2020      	movs	r0, #32
    49f0:	f803 0b01 	strb.w	r0, [r3], #1
    49f4:	4573      	cmp	r3, lr
    49f6:	d1fb      	bne.n	49f0 <f_mkdir+0xc0>
    49f8:	fa5f fe87 	uxtb.w	lr, r7
    49fc:	f8cd e008 	str.w	lr, [sp, #8]
    4a00:	f3c7 2e07 	ubfx	lr, r7, #8, #8
    4a04:	ea4f 4b16 	mov.w	r11, r6, lsr #16
    4a08:	f8cd e00c 	str.w	lr, [sp, #12]
    4a0c:	f3c7 4e07 	ubfx	lr, r7, #16, #8
    4a10:	0e3f      	lsrs	r7, r7, #24
    4a12:	fa5f f38b 	uxtb.w	r3, r11
    4a16:	9705      	str	r7, [sp, #20]
    4a18:	b2f7      	uxtb	r7, r6
    4a1a:	9308      	str	r3, [sp, #32]
    4a1c:	9706      	str	r7, [sp, #24]
    4a1e:	f3c6 2707 	ubfx	r7, r6, #8, #8
    4a22:	9707      	str	r7, [sp, #28]
    4a24:	9f08      	ldr	r7, [sp, #32]
    4a26:	232e      	movs	r3, #46	; 0x2e
    4a28:	f881 7044 	strb.w	r7, [r1, #68]	; 0x44
    4a2c:	f881 3030 	strb.w	r3, [r1, #48]	; 0x30
    4a30:	461f      	mov	r7, r3
    4a32:	9b02      	ldr	r3, [sp, #8]
    4a34:	2010      	movs	r0, #16
    4a36:	f881 3046 	strb.w	r3, [r1, #70]	; 0x46
    4a3a:	9b03      	ldr	r3, [sp, #12]
    4a3c:	ea4f 2b1b 	mov.w	r11, r11, lsr #8
    4a40:	f881 3047 	strb.w	r3, [r1, #71]	; 0x47
    4a44:	9b05      	ldr	r3, [sp, #20]
    4a46:	f8cd e010 	str.w	lr, [sp, #16]
    4a4a:	f881 3049 	strb.w	r3, [r1, #73]	; 0x49
    4a4e:	9b06      	ldr	r3, [sp, #24]
    4a50:	f881 003b 	strb.w	r0, [r1, #59]	; 0x3b
    4a54:	f881 304a 	strb.w	r3, [r1, #74]	; 0x4a
    4a58:	9b07      	ldr	r3, [sp, #28]
    4a5a:	f881 e048 	strb.w	lr, [r1, #72]	; 0x48
    4a5e:	f881 304b 	strb.w	r3, [r1, #75]	; 0x4b
    4a62:	f881 b045 	strb.w	r11, [r1, #69]	; 0x45
    4a66:	f101 0350 	add.w	r3, r1, #80	; 0x50
    4a6a:	4628      	mov	r0, r5
    4a6c:	f101 0e70 	add.w	lr, r1, #112	; 0x70
    4a70:	e001      	b.n	4a76 <f_mkdir+0x146>
    4a72:	f810 7f01 	ldrb.w	r7, [r0, #1]!
    4a76:	f803 7b01 	strb.w	r7, [r3], #1
    4a7a:	4573      	cmp	r3, lr
    4a7c:	d1f9      	bne.n	4a72 <f_mkdir+0x142>
    4a7e:	232e      	movs	r3, #46	; 0x2e
    4a80:	980d      	ldr	r0, [sp, #52]	; 0x34
    4a82:	f881 3051 	strb.w	r3, [r1, #81]	; 0x51
    4a86:	7803      	ldrb	r3, [r0, #0]
    4a88:	9f0f      	ldr	r7, [sp, #60]	; 0x3c
    4a8a:	2b03      	cmp	r3, #3
    4a8c:	d050      	beq.n	4b30 <f_mkdir+0x200>
    4a8e:	0c3b      	lsrs	r3, r7, #16
    4a90:	fa5f fe83 	uxtb.w	lr, r3
    4a94:	fa5f fc87 	uxtb.w	r12, r7
    4a98:	0a1b      	lsrs	r3, r3, #8
    4a9a:	f3c7 2707 	ubfx	r7, r7, #8, #8
    4a9e:	f881 c06a 	strb.w	r12, [r1, #106]	; 0x6a
    4aa2:	f881 706b 	strb.w	r7, [r1, #107]	; 0x6b
    4aa6:	f881 e064 	strb.w	lr, [r1, #100]	; 0x64
    4aaa:	f881 3065 	strb.w	r3, [r1, #101]	; 0x65
    4aae:	7883      	ldrb	r3, [r0, #2]
    4ab0:	b1e3      	cbz	r3, 4aec <f_mkdir+0x1bc>
    4ab2:	3b01      	subs	r3, #1
    4ab4:	fa5f f883 	uxtb.w	r8, r3
    4ab8:	f108 0801 	add.w	r8, r8, #1
    4abc:	4490      	add	r8, r2
    4abe:	2701      	movs	r7, #1
    4ac0:	f04f 0900 	mov.w	r9, #0
    4ac4:	62c2      	str	r2, [r0, #44]	; 0x2c
    4ac6:	7107      	strb	r7, [r0, #4]
    4ac8:	2100      	movs	r1, #0
    4aca:	f102 0a01 	add.w	r10, r2, #1
    4ace:	f7fe f915 	bl	2cfc <move_window(FATFS*, unsigned long)>
    4ad2:	b948      	cbnz	r0, 4ae8 <f_mkdir+0x1b8>
    4ad4:	462b      	mov	r3, r5
    4ad6:	f803 9b01 	strb.w	r9, [r3], #1
    4ada:	42a3      	cmp	r3, r4
    4adc:	d1fb      	bne.n	4ad6 <f_mkdir+0x1a6>
    4ade:	45c2      	cmp	r10, r8
    4ae0:	d004      	beq.n	4aec <f_mkdir+0x1bc>
    4ae2:	4652      	mov	r2, r10
    4ae4:	980d      	ldr	r0, [sp, #52]	; 0x34
    4ae6:	e7ed      	b.n	4ac4 <f_mkdir+0x194>
    4ae8:	4602      	mov	r2, r0
    4aea:	e749      	b.n	4980 <f_mkdir+0x50>
    4aec:	a80d      	add	r0, sp, #52	; 0x34
    4aee:	f7ff f96f 	bl	3dd0 <dir_register(FATFS_DIR*)>
    4af2:	4602      	mov	r2, r0
    4af4:	2800      	cmp	r0, #0
    4af6:	f47f af43 	bne.w	4980 <f_mkdir+0x50>
    4afa:	9b12      	ldr	r3, [sp, #72]	; 0x48
    4afc:	9c02      	ldr	r4, [sp, #8]
    4afe:	9f03      	ldr	r7, [sp, #12]
    4b00:	759c      	strb	r4, [r3, #22]
    4b02:	9c04      	ldr	r4, [sp, #16]
    4b04:	75df      	strb	r7, [r3, #23]
    4b06:	761c      	strb	r4, [r3, #24]
    4b08:	9f05      	ldr	r7, [sp, #20]
    4b0a:	9c06      	ldr	r4, [sp, #24]
    4b0c:	9a0d      	ldr	r2, [sp, #52]	; 0x34
    4b0e:	765f      	strb	r7, [r3, #25]
    4b10:	769c      	strb	r4, [r3, #26]
    4b12:	9f07      	ldr	r7, [sp, #28]
    4b14:	9c08      	ldr	r4, [sp, #32]
    4b16:	2010      	movs	r0, #16
    4b18:	2101      	movs	r1, #1
    4b1a:	72d8      	strb	r0, [r3, #11]
    4b1c:	76df      	strb	r7, [r3, #27]
    4b1e:	751c      	strb	r4, [r3, #20]
    4b20:	f883 b015 	strb.w	r11, [r3, #21]
    4b24:	4610      	mov	r0, r2
    4b26:	7111      	strb	r1, [r2, #4]
    4b28:	f7fe f9b6 	bl	2e98 <sync(FATFS*)>
    4b2c:	4602      	mov	r2, r0
    4b2e:	e710      	b.n	4952 <f_mkdir+0x22>
    4b30:	6a43      	ldr	r3, [r0, #36]	; 0x24
    4b32:	42bb      	cmp	r3, r7
    4b34:	d1ab      	bne.n	4a8e <f_mkdir+0x15e>
    4b36:	2300      	movs	r3, #0
    4b38:	469e      	mov	lr, r3
    4b3a:	461f      	mov	r7, r3
    4b3c:	469c      	mov	r12, r3
    4b3e:	e7ae      	b.n	4a9e <f_mkdir+0x16e>
    4b40:	10000254 	.word	0x10000254

00004b44 <f_rename>:
    4b44:	b530      	push	{r4, r5, lr}
    4b46:	b09f      	sub	sp, #124	; 0x7c
    4b48:	ab1e      	add	r3, sp, #120	; 0x78
    4b4a:	f843 0d74 	str.w	r0, [r3, #-116]!
    4b4e:	460c      	mov	r4, r1
    4b50:	4618      	mov	r0, r3
    4b52:	a90c      	add	r1, sp, #48	; 0x30
    4b54:	2201      	movs	r2, #1
    4b56:	f7fe fa49 	bl	2fec <chk_mounted(char const**, FATFS**, unsigned char)>
    4b5a:	b108      	cbz	r0, 4b60 <f_rename+0x1c>
    4b5c:	b01f      	add	sp, #124	; 0x7c
    4b5e:	bd30      	pop	{r4, r5, pc}
    4b60:	9b0c      	ldr	r3, [sp, #48]	; 0x30
    4b62:	4d49      	ldr	r5, [pc, #292]	; (4c88 <f_rename+0x144>)
    4b64:	aa03      	add	r2, sp, #12
    4b66:	a80c      	add	r0, sp, #48	; 0x30
    4b68:	9901      	ldr	r1, [sp, #4]
    4b6a:	9315      	str	r3, [sp, #84]	; 0x54
    4b6c:	9513      	str	r5, [sp, #76]	; 0x4c
    4b6e:	9212      	str	r2, [sp, #72]	; 0x48
    4b70:	f7fe ff6e 	bl	3a50 <follow_path(FATFS_DIR*, char const*)>
    4b74:	2800      	cmp	r0, #0
    4b76:	d1f1      	bne.n	4b5c <f_rename+0x18>
    4b78:	9911      	ldr	r1, [sp, #68]	; 0x44
    4b7a:	2900      	cmp	r1, #0
    4b7c:	d05e      	beq.n	4c3c <f_rename+0xf8>
    4b7e:	f101 030b 	add.w	r3, r1, #11
    4b82:	aa06      	add	r2, sp, #24
    4b84:	3120      	adds	r1, #32
    4b86:	f813 0b01 	ldrb.w	r0, [r3], #1
    4b8a:	428b      	cmp	r3, r1
    4b8c:	f802 0b01 	strb.w	r0, [r2], #1
    4b90:	d1f9      	bne.n	4b86 <f_rename+0x42>
    4b92:	ab15      	add	r3, sp, #84	; 0x54
    4b94:	aa0c      	add	r2, sp, #48	; 0x30
    4b96:	f812 0b01 	ldrb.w	r0, [r2], #1
    4b9a:	a91e      	add	r1, sp, #120	; 0x78
    4b9c:	f803 0b01 	strb.w	r0, [r3], #1
    4ba0:	428b      	cmp	r3, r1
    4ba2:	d1f8      	bne.n	4b96 <f_rename+0x52>
    4ba4:	4621      	mov	r1, r4
    4ba6:	a815      	add	r0, sp, #84	; 0x54
    4ba8:	f7fe ff52 	bl	3a50 <follow_path(FATFS_DIR*, char const*)>
    4bac:	2800      	cmp	r0, #0
    4bae:	d047      	beq.n	4c40 <f_rename+0xfc>
    4bb0:	2804      	cmp	r0, #4
    4bb2:	d1d3      	bne.n	4b5c <f_rename+0x18>
    4bb4:	a815      	add	r0, sp, #84	; 0x54
    4bb6:	f7ff f90b 	bl	3dd0 <dir_register(FATFS_DIR*)>
    4bba:	2800      	cmp	r0, #0
    4bbc:	d1ce      	bne.n	4b5c <f_rename+0x18>
    4bbe:	9c1a      	ldr	r4, [sp, #104]	; 0x68
    4bc0:	f10d 021a 	add.w	r2, sp, #26
    4bc4:	f104 030d 	add.w	r3, r4, #13
    4bc8:	f104 0020 	add.w	r0, r4, #32
    4bcc:	f812 1b01 	ldrb.w	r1, [r2], #1
    4bd0:	f803 1b01 	strb.w	r1, [r3], #1
    4bd4:	4283      	cmp	r3, r0
    4bd6:	d1f9      	bne.n	4bcc <f_rename+0x88>
    4bd8:	f89d 2018 	ldrb.w	r2, [sp, #24]
    4bdc:	980c      	ldr	r0, [sp, #48]	; 0x30
    4bde:	f042 0220 	orr.w	r2, r2, #32
    4be2:	2301      	movs	r3, #1
    4be4:	72e2      	strb	r2, [r4, #11]
    4be6:	7103      	strb	r3, [r0, #4]
    4be8:	9a0e      	ldr	r2, [sp, #56]	; 0x38
    4bea:	9b17      	ldr	r3, [sp, #92]	; 0x5c
    4bec:	429a      	cmp	r2, r3
    4bee:	d01c      	beq.n	4c2a <f_rename+0xe6>
    4bf0:	7ae3      	ldrb	r3, [r4, #11]
    4bf2:	06db      	lsls	r3, r3, #27
    4bf4:	d519      	bpl.n	4c2a <f_rename+0xe6>
    4bf6:	7802      	ldrb	r2, [r0, #0]
    4bf8:	7ee1      	ldrb	r1, [r4, #27]
    4bfa:	7ea3      	ldrb	r3, [r4, #26]
    4bfc:	2a03      	cmp	r2, #3
    4bfe:	ea43 2301 	orr.w	r3, r3, r1, lsl #8
    4c02:	d021      	beq.n	4c48 <f_rename+0x104>
    4c04:	6982      	ldr	r2, [r0, #24]
    4c06:	3b02      	subs	r3, #2
    4c08:	3a02      	subs	r2, #2
    4c0a:	4293      	cmp	r3, r2
    4c0c:	d21a      	bcs.n	4c44 <f_rename+0x100>
    4c0e:	7881      	ldrb	r1, [r0, #2]
    4c10:	6a82      	ldr	r2, [r0, #40]	; 0x28
    4c12:	fb01 2103 	mla	r1, r1, r3, r2
    4c16:	b1a9      	cbz	r1, 4c44 <f_rename+0x100>
    4c18:	f7fe f870 	bl	2cfc <move_window(FATFS*, unsigned long)>
    4c1c:	9b0c      	ldr	r3, [sp, #48]	; 0x30
    4c1e:	2800      	cmp	r0, #0
    4c20:	d19c      	bne.n	4b5c <f_rename+0x18>
    4c22:	f893 2051 	ldrb.w	r2, [r3, #81]	; 0x51
    4c26:	2a2e      	cmp	r2, #46	; 0x2e
    4c28:	d015      	beq.n	4c56 <f_rename+0x112>
    4c2a:	a80c      	add	r0, sp, #48	; 0x30
    4c2c:	f7fe fe10 	bl	3850 <dir_remove(FATFS_DIR*)>
    4c30:	2800      	cmp	r0, #0
    4c32:	d193      	bne.n	4b5c <f_rename+0x18>
    4c34:	980c      	ldr	r0, [sp, #48]	; 0x30
    4c36:	f7fe f92f 	bl	2e98 <sync(FATFS*)>
    4c3a:	e78f      	b.n	4b5c <f_rename+0x18>
    4c3c:	2004      	movs	r0, #4
    4c3e:	e78d      	b.n	4b5c <f_rename+0x18>
    4c40:	2008      	movs	r0, #8
    4c42:	e78b      	b.n	4b5c <f_rename+0x18>
    4c44:	2002      	movs	r0, #2
    4c46:	e789      	b.n	4b5c <f_rename+0x18>
    4c48:	7d61      	ldrb	r1, [r4, #21]
    4c4a:	7d22      	ldrb	r2, [r4, #20]
    4c4c:	ea42 2201 	orr.w	r2, r2, r1, lsl #8
    4c50:	ea43 4302 	orr.w	r3, r3, r2, lsl #16
    4c54:	e7d6      	b.n	4c04 <f_rename+0xc0>
    4c56:	781a      	ldrb	r2, [r3, #0]
    4c58:	2a03      	cmp	r2, #3
    4c5a:	9a17      	ldr	r2, [sp, #92]	; 0x5c
    4c5c:	d00f      	beq.n	4c7e <f_rename+0x13a>
    4c5e:	4610      	mov	r0, r2
    4c60:	0c02      	lsrs	r2, r0, #16
    4c62:	1215      	asrs	r5, r2, #8
    4c64:	f3c0 2407 	ubfx	r4, r0, #8, #8
    4c68:	2101      	movs	r1, #1
    4c6a:	f883 006a 	strb.w	r0, [r3, #106]	; 0x6a
    4c6e:	f883 2064 	strb.w	r2, [r3, #100]	; 0x64
    4c72:	f883 5065 	strb.w	r5, [r3, #101]	; 0x65
    4c76:	f883 406b 	strb.w	r4, [r3, #107]	; 0x6b
    4c7a:	7119      	strb	r1, [r3, #4]
    4c7c:	e7d5      	b.n	4c2a <f_rename+0xe6>
    4c7e:	6a59      	ldr	r1, [r3, #36]	; 0x24
    4c80:	428a      	cmp	r2, r1
    4c82:	d1ec      	bne.n	4c5e <f_rename+0x11a>
    4c84:	e7ec      	b.n	4c60 <f_rename+0x11c>
    4c86:	bf00      	nop
    4c88:	10000254 	.word	0x10000254

00004c8c <f_mkfs>:
    4c8c:	e92d 4ff0 	stmdb	sp!, {r4, r5, r6, r7, r8, r9, r10, r11, lr}
    4c90:	468b      	mov	r11, r1
    4c92:	b087      	sub	sp, #28
    4c94:	4615      	mov	r5, r2
    4c96:	b118      	cbz	r0, 4ca0 <f_mkfs+0x14>
    4c98:	200b      	movs	r0, #11
    4c9a:	b007      	add	sp, #28
    4c9c:	e8bd 8ff0 	ldmia.w	sp!, {r4, r5, r6, r7, r8, r9, r10, r11, pc}
    4ca0:	2901      	cmp	r1, #1
    4ca2:	d903      	bls.n	4cac <f_mkfs+0x20>
    4ca4:	2013      	movs	r0, #19
    4ca6:	b007      	add	sp, #28
    4ca8:	e8bd 8ff0 	ldmia.w	sp!, {r4, r5, r6, r7, r8, r9, r10, r11, pc}
    4cac:	1e53      	subs	r3, r2, #1
    4cae:	4013      	ands	r3, r2
    4cb0:	d1f8      	bne.n	4ca4 <f_mkfs+0x18>
    4cb2:	4ac9      	ldr	r2, [pc, #804]	; (4fd8 <f_mkfs+0x34c>)
    4cb4:	6814      	ldr	r4, [r2, #0]
    4cb6:	b134      	cbz	r4, 4cc6 <f_mkfs+0x3a>
    4cb8:	7023      	strb	r3, [r4, #0]
    4cba:	f000 fbf7 	bl	54ac <disk_initialize(unsigned char)>
    4cbe:	07c3      	lsls	r3, r0, #31
    4cc0:	d503      	bpl.n	4cca <f_mkfs+0x3e>
    4cc2:	2003      	movs	r0, #3
    4cc4:	e7e9      	b.n	4c9a <f_mkfs+0xe>
    4cc6:	200c      	movs	r0, #12
    4cc8:	e7e7      	b.n	4c9a <f_mkfs+0xe>
    4cca:	f000 0304 	and.w	r3, r0, #4
    4cce:	f003 00ff 	and.w	r0, r3, #255	; 0xff
    4cd2:	b10b      	cbz	r3, 4cd8 <f_mkfs+0x4c>
    4cd4:	200a      	movs	r0, #10
    4cd6:	e7e0      	b.n	4c9a <f_mkfs+0xe>
    4cd8:	2101      	movs	r1, #1
    4cda:	aa05      	add	r2, sp, #20
    4cdc:	f000 fc22 	bl	5524 <disk_ioctl(unsigned char, unsigned char, void*)>
    4ce0:	2800      	cmp	r0, #0
    4ce2:	f040 81ad 	bne.w	5040 <f_mkfs+0x3b4>
    4ce6:	9a05      	ldr	r2, [sp, #20]
    4ce8:	2a7f      	cmp	r2, #127	; 0x7f
    4cea:	f240 81a9 	bls.w	5040 <f_mkfs+0x3b4>
    4cee:	f1bb 0f00 	cmp.w	r11, #0
    4cf2:	bf14      	ite	ne
    4cf4:	f04f 0800 	movne.w	r8, #0
    4cf8:	f04f 083f 	moveq.w	r8, #63	; 0x3f
    4cfc:	ebc8 0202 	rsb	r2, r8, r2
    4d00:	9205      	str	r2, [sp, #20]
    4d02:	b98d      	cbnz	r5, 4d28 <f_mkfs+0x9c>
    4d04:	f44f 60fa 	mov.w	r0, #2000	; 0x7d0
    4d08:	fbb2 f0f0 	udiv	r0, r2, r0
    4d0c:	f5b0 6f80 	cmp.w	r0, #1024	; 0x400
    4d10:	f080 81ac 	bcs.w	506c <f_mkfs+0x3e0>
    4d14:	49b1      	ldr	r1, [pc, #708]	; (4fdc <f_mkfs+0x350>)
    4d16:	2300      	movs	r3, #0
    4d18:	f831 5f02 	ldrh.w	r5, [r1, #2]!
    4d1c:	3301      	adds	r3, #1
    4d1e:	42a8      	cmp	r0, r5
    4d20:	d3fa      	bcc.n	4d18 <f_mkfs+0x8c>
    4d22:	49af      	ldr	r1, [pc, #700]	; (4fe0 <f_mkfs+0x354>)
    4d24:	f831 5013 	ldrh.w	r5, [r1, r3, lsl #1]
    4d28:	ea5f 2955 	movs.w	r9, r5, lsr #9
    4d2c:	f000 8198 	beq.w	5060 <f_mkfs+0x3d4>
    4d30:	f1b9 0f81 	cmp.w	r9, #129	; 0x81
    4d34:	bf28      	it	cs
    4d36:	f04f 0980 	movcs.w	r9, #128	; 0x80
    4d3a:	fbb2 f3f9 	udiv	r3, r2, r9
    4d3e:	f640 71f5 	movw	r1, #4085	; 0xff5
    4d42:	428b      	cmp	r3, r1
    4d44:	f240 817e 	bls.w	5044 <f_mkfs+0x3b8>
    4d48:	f64f 71f5 	movw	r1, #65525	; 0xfff5
    4d4c:	428b      	cmp	r3, r1
    4d4e:	f240 818f 	bls.w	5070 <f_mkfs+0x3e4>
    4d52:	009b      	lsls	r3, r3, #2
    4d54:	f203 2607 	addw	r6, r3, #519	; 0x207
    4d58:	2300      	movs	r3, #0
    4d5a:	0a76      	lsrs	r6, r6, #9
    4d5c:	2703      	movs	r7, #3
    4d5e:	9300      	str	r3, [sp, #0]
    4d60:	f04f 0a20 	mov.w	r10, #32
    4d64:	9d00      	ldr	r5, [sp, #0]
    4d66:	eb0a 0308 	add.w	r3, r10, r8
    4d6a:	4435      	add	r5, r6
    4d6c:	441d      	add	r5, r3
    4d6e:	9301      	str	r3, [sp, #4]
    4d70:	ebc8 0309 	rsb	r3, r8, r9
    4d74:	442b      	add	r3, r5
    4d76:	429a      	cmp	r2, r3
    4d78:	d201      	bcs.n	4d7e <f_mkfs+0xf2>
    4d7a:	200e      	movs	r0, #14
    4d7c:	e78d      	b.n	4c9a <f_mkfs+0xe>
    4d7e:	2000      	movs	r0, #0
    4d80:	2103      	movs	r1, #3
    4d82:	aa04      	add	r2, sp, #16
    4d84:	f000 fbce 	bl	5524 <disk_ioctl(unsigned char, unsigned char, void*)>
    4d88:	2800      	cmp	r0, #0
    4d8a:	f040 816c 	bne.w	5066 <f_mkfs+0x3da>
    4d8e:	f8dd c010 	ldr.w	r12, [sp, #16]
    4d92:	f10c 33ff 	add.w	r3, r12, #4294967295	; 0xffffffff
    4d96:	f5b3 4f00 	cmp.w	r3, #32768	; 0x8000
    4d9a:	f080 8164 	bcs.w	5066 <f_mkfs+0x3da>
    4d9e:	f10c 33ff 	add.w	r3, r12, #4294967295	; 0xffffffff
    4da2:	442b      	add	r3, r5
    4da4:	f1cc 0c00 	rsb	r12, r12, #0
    4da8:	ea03 030c 	and.w	r3, r3, r12
    4dac:	1b5d      	subs	r5, r3, r5
    4dae:	2f03      	cmp	r7, #3
    4db0:	9504      	str	r5, [sp, #16]
    4db2:	9b05      	ldr	r3, [sp, #20]
    4db4:	f000 8173 	beq.w	509e <f_mkfs+0x412>
    4db8:	442e      	add	r6, r5
    4dba:	ebca 0203 	rsb	r2, r10, r3
    4dbe:	9900      	ldr	r1, [sp, #0]
    4dc0:	1b92      	subs	r2, r2, r6
    4dc2:	1a52      	subs	r2, r2, r1
    4dc4:	fbb2 f2f9 	udiv	r2, r2, r9
    4dc8:	2f02      	cmp	r7, #2
    4dca:	9203      	str	r2, [sp, #12]
    4dcc:	f000 815b 	beq.w	5086 <f_mkfs+0x3fa>
    4dd0:	2101      	movs	r1, #1
    4dd2:	f1bb 0f00 	cmp.w	r11, #0
    4dd6:	f040 814f 	bne.w	5078 <f_mkfs+0x3ec>
    4dda:	f104 0530 	add.w	r5, r4, #48	; 0x30
    4dde:	4658      	mov	r0, r11
    4de0:	462a      	mov	r2, r5
    4de2:	f504 7b0c 	add.w	r11, r4, #560	; 0x230
    4de6:	f802 0b01 	strb.w	r0, [r2], #1
    4dea:	455a      	cmp	r2, r11
    4dec:	f04f 0300 	mov.w	r3, #0
    4df0:	d1f9      	bne.n	4de6 <f_mkfs+0x15a>
    4df2:	9a05      	ldr	r2, [sp, #20]
    4df4:	f643 60c1 	movw	r0, #16065	; 0x3ec1
    4df8:	eb08 0e02 	add.w	lr, r8, r2
    4dfc:	fbbe fef0 	udiv	lr, lr, r0
    4e00:	f884 31f1 	strb.w	r3, [r4, #497]	; 0x1f1
    4e04:	4618      	mov	r0, r3
    4e06:	f884 11f2 	strb.w	r1, [r4, #498]	; 0x1f2
    4e0a:	f884 31f7 	strb.w	r3, [r4, #503]	; 0x1f7
    4e0e:	0c11      	lsrs	r1, r2, #16
    4e10:	f884 31f8 	strb.w	r3, [r4, #504]	; 0x1f8
    4e14:	f884 31f9 	strb.w	r3, [r4, #505]	; 0x1f9
    4e18:	f884 21fa 	strb.w	r2, [r4, #506]	; 0x1fa
    4e1c:	f3c2 2307 	ubfx	r3, r2, #8, #8
    4e20:	0e12      	lsrs	r2, r2, #24
    4e22:	ea4f 0c9e 	mov.w	r12, lr, lsr #2
    4e26:	f884 11fc 	strb.w	r1, [r4, #508]	; 0x1fc
    4e2a:	f884 21fd 	strb.w	r2, [r4, #509]	; 0x1fd
    4e2e:	21fe      	movs	r1, #254	; 0xfe
    4e30:	223f      	movs	r2, #63	; 0x3f
    4e32:	f04c 0c3f 	orr.w	r12, r12, #63	; 0x3f
    4e36:	f884 31fb 	strb.w	r3, [r4, #507]	; 0x1fb
    4e3a:	f884 11f3 	strb.w	r1, [r4, #499]	; 0x1f3
    4e3e:	2301      	movs	r3, #1
    4e40:	2155      	movs	r1, #85	; 0x55
    4e42:	f884 21f6 	strb.w	r2, [r4, #502]	; 0x1f6
    4e46:	22aa      	movs	r2, #170	; 0xaa
    4e48:	f884 122e 	strb.w	r1, [r4, #558]	; 0x22e
    4e4c:	f884 222f 	strb.w	r2, [r4, #559]	; 0x22f
    4e50:	f884 e1f5 	strb.w	lr, [r4, #501]	; 0x1f5
    4e54:	f884 c1f4 	strb.w	r12, [r4, #500]	; 0x1f4
    4e58:	f884 31ef 	strb.w	r3, [r4, #495]	; 0x1ef
    4e5c:	f884 31f0 	strb.w	r3, [r4, #496]	; 0x1f0
    4e60:	4602      	mov	r2, r0
    4e62:	4629      	mov	r1, r5
    4e64:	f8cd e010 	str.w	lr, [sp, #16]
    4e68:	f000 fb4a 	bl	5500 <disk_write(unsigned char, unsigned char const*, unsigned long, unsigned char)>
    4e6c:	2800      	cmp	r0, #0
    4e6e:	f040 80e7 	bne.w	5040 <f_mkfs+0x3b4>
    4e72:	22f8      	movs	r2, #248	; 0xf8
    4e74:	9202      	str	r2, [sp, #8]
    4e76:	462b      	mov	r3, r5
    4e78:	2200      	movs	r2, #0
    4e7a:	f803 2b01 	strb.w	r2, [r3], #1
    4e7e:	455b      	cmp	r3, r11
    4e80:	d1fb      	bne.n	4e7a <f_mkfs+0x1ee>
    4e82:	4a58      	ldr	r2, [pc, #352]	; (4fe4 <f_mkfs+0x358>)
    4e84:	2300      	movs	r3, #0
    4e86:	5cd1      	ldrb	r1, [r2, r3]
    4e88:	54e9      	strb	r1, [r5, r3]
    4e8a:	3301      	adds	r3, #1
    4e8c:	2b0b      	cmp	r3, #11
    4e8e:	d1fa      	bne.n	4e86 <f_mkfs+0x1fa>
    4e90:	2f03      	cmp	r7, #3
    4e92:	f3ca 2207 	ubfx	r2, r10, #8, #8
    4e96:	9b05      	ldr	r3, [sp, #20]
    4e98:	bf14      	ite	ne
    4e9a:	2102      	movne	r1, #2
    4e9c:	2100      	moveq	r1, #0
    4e9e:	f884 203f 	strb.w	r2, [r4, #63]	; 0x3f
    4ea2:	2200      	movs	r2, #0
    4ea4:	f884 1042 	strb.w	r1, [r4, #66]	; 0x42
    4ea8:	f884 203b 	strb.w	r2, [r4, #59]	; 0x3b
    4eac:	2102      	movs	r1, #2
    4eae:	f884 2041 	strb.w	r2, [r4, #65]	; 0x41
    4eb2:	f5b3 3f80 	cmp.w	r3, #65536	; 0x10000
    4eb6:	f04f 0201 	mov.w	r2, #1
    4eba:	f884 903d 	strb.w	r9, [r4, #61]	; 0x3d
    4ebe:	f884 a03e 	strb.w	r10, [r4, #62]	; 0x3e
    4ec2:	f884 103c 	strb.w	r1, [r4, #60]	; 0x3c
    4ec6:	f884 2040 	strb.w	r2, [r4, #64]	; 0x40
    4eca:	f080 80fc 	bcs.w	50c6 <f_mkfs+0x43a>
    4ece:	121a      	asrs	r2, r3, #8
    4ed0:	f884 3043 	strb.w	r3, [r4, #67]	; 0x43
    4ed4:	f884 2044 	strb.w	r2, [r4, #68]	; 0x44
    4ed8:	9902      	ldr	r1, [sp, #8]
    4eda:	f04f 0a00 	mov.w	r10, #0
    4ede:	223f      	movs	r2, #63	; 0x3f
    4ee0:	23ff      	movs	r3, #255	; 0xff
    4ee2:	f884 2048 	strb.w	r2, [r4, #72]	; 0x48
    4ee6:	f884 304a 	strb.w	r3, [r4, #74]	; 0x4a
    4eea:	f884 1045 	strb.w	r1, [r4, #69]	; 0x45
    4eee:	f884 804c 	strb.w	r8, [r4, #76]	; 0x4c
    4ef2:	f884 a049 	strb.w	r10, [r4, #73]	; 0x49
    4ef6:	f884 a04b 	strb.w	r10, [r4, #75]	; 0x4b
    4efa:	f884 a04d 	strb.w	r10, [r4, #77]	; 0x4d
    4efe:	f884 a04e 	strb.w	r10, [r4, #78]	; 0x4e
    4f02:	f884 a04f 	strb.w	r10, [r4, #79]	; 0x4f
    4f06:	f7fd febb 	bl	2c80 <get_fattime>
    4f0a:	2f03      	cmp	r7, #3
    4f0c:	9004      	str	r0, [sp, #16]
    4f0e:	f3c0 2207 	ubfx	r2, r0, #8, #8
    4f12:	ea4f 4310 	mov.w	r3, r0, lsr #16
    4f16:	f000 80e3 	beq.w	50e0 <f_mkfs+0x454>
    4f1a:	f884 2058 	strb.w	r2, [r4, #88]	; 0x58
    4f1e:	f3c6 2207 	ubfx	r2, r6, #8, #8
    4f22:	f884 0057 	strb.w	r0, [r4, #87]	; 0x57
    4f26:	f884 3059 	strb.w	r3, [r4, #89]	; 0x59
    4f2a:	0e00      	lsrs	r0, r0, #24
    4f2c:	2329      	movs	r3, #41	; 0x29
    4f2e:	2180      	movs	r1, #128	; 0x80
    4f30:	f884 2047 	strb.w	r2, [r4, #71]	; 0x47
    4f34:	4a2c      	ldr	r2, [pc, #176]	; (4fe8 <f_mkfs+0x35c>)
    4f36:	f884 3056 	strb.w	r3, [r4, #86]	; 0x56
    4f3a:	f884 6046 	strb.w	r6, [r4, #70]	; 0x46
    4f3e:	f884 005a 	strb.w	r0, [r4, #90]	; 0x5a
    4f42:	f884 1054 	strb.w	r1, [r4, #84]	; 0x54
    4f46:	f104 035b 	add.w	r3, r4, #91	; 0x5b
    4f4a:	f812 100a 	ldrb.w	r1, [r2, r10]
    4f4e:	f803 100a 	strb.w	r1, [r3, r10]
    4f52:	f10a 0a01 	add.w	r10, r10, #1
    4f56:	f1ba 0f13 	cmp.w	r10, #19
    4f5a:	d1f6      	bne.n	4f4a <f_mkfs+0x2be>
    4f5c:	2255      	movs	r2, #85	; 0x55
    4f5e:	23aa      	movs	r3, #170	; 0xaa
    4f60:	f884 222e 	strb.w	r2, [r4, #558]	; 0x22e
    4f64:	f884 322f 	strb.w	r3, [r4, #559]	; 0x22f
    4f68:	2000      	movs	r0, #0
    4f6a:	4629      	mov	r1, r5
    4f6c:	4642      	mov	r2, r8
    4f6e:	2301      	movs	r3, #1
    4f70:	f000 fac6 	bl	5500 <disk_write(unsigned char, unsigned char const*, unsigned long, unsigned char)>
    4f74:	2800      	cmp	r0, #0
    4f76:	d163      	bne.n	5040 <f_mkfs+0x3b4>
    4f78:	462b      	mov	r3, r5
    4f7a:	2200      	movs	r2, #0
    4f7c:	f803 2b01 	strb.w	r2, [r3], #1
    4f80:	455b      	cmp	r3, r11
    4f82:	d1fb      	bne.n	4f7c <f_mkfs+0x2f0>
    4f84:	2f03      	cmp	r7, #3
    4f86:	f000 80fb 	beq.w	5180 <f_mkfs+0x4f4>
    4f8a:	4b18      	ldr	r3, [pc, #96]	; (4fec <f_mkfs+0x360>)
    4f8c:	9a02      	ldr	r2, [sp, #8]
    4f8e:	2f01      	cmp	r7, #1
    4f90:	bf18      	it	ne
    4f92:	f06f 03ff 	mvnne.w	r3, #255	; 0xff
    4f96:	4313      	orrs	r3, r2
    4f98:	0e19      	lsrs	r1, r3, #24
    4f9a:	22ff      	movs	r2, #255	; 0xff
    4f9c:	9304      	str	r3, [sp, #16]
    4f9e:	f884 3030 	strb.w	r3, [r4, #48]	; 0x30
    4fa2:	f884 1033 	strb.w	r1, [r4, #51]	; 0x33
    4fa6:	f884 2031 	strb.w	r2, [r4, #49]	; 0x31
    4faa:	f884 2032 	strb.w	r2, [r4, #50]	; 0x32
    4fae:	4629      	mov	r1, r5
    4fb0:	2000      	movs	r0, #0
    4fb2:	9a01      	ldr	r2, [sp, #4]
    4fb4:	2301      	movs	r3, #1
    4fb6:	f000 faa3 	bl	5500 <disk_write(unsigned char, unsigned char const*, unsigned long, unsigned char)>
    4fba:	9901      	ldr	r1, [sp, #4]
    4fbc:	f101 0a01 	add.w	r10, r1, #1
    4fc0:	2800      	cmp	r0, #0
    4fc2:	d13d      	bne.n	5040 <f_mkfs+0x3b4>
    4fc4:	462b      	mov	r3, r5
    4fc6:	f803 0b01 	strb.w	r0, [r3], #1
    4fca:	455b      	cmp	r3, r11
    4fcc:	d1fb      	bne.n	4fc6 <f_mkfs+0x33a>
    4fce:	2301      	movs	r3, #1
    4fd0:	9304      	str	r3, [sp, #16]
    4fd2:	469c      	mov	r12, r3
    4fd4:	e016      	b.n	5004 <f_mkfs+0x378>
    4fd6:	bf00      	nop
    4fd8:	10000250 	.word	0x10000250
    4fdc:	0000ba64 	.word	0x0000ba64
    4fe0:	0000ba04 	.word	0x0000ba04
    4fe4:	0000ba30 	.word	0x0000ba30
    4fe8:	0000ba50 	.word	0x0000ba50
    4fec:	00ffff00 	.word	0x00ffff00
    4ff0:	f000 fa86 	bl	5500 <disk_write(unsigned char, unsigned char const*, unsigned long, unsigned char)>
    4ff4:	bb20      	cbnz	r0, 5040 <f_mkfs+0x3b4>
    4ff6:	f8dd c010 	ldr.w	r12, [sp, #16]
    4ffa:	46da      	mov	r10, r11
    4ffc:	f10c 0c01 	add.w	r12, r12, #1
    5000:	f8cd c010 	str.w	r12, [sp, #16]
    5004:	2301      	movs	r3, #1
    5006:	45b4      	cmp	r12, r6
    5008:	4652      	mov	r2, r10
    500a:	f04f 0000 	mov.w	r0, #0
    500e:	4629      	mov	r1, r5
    5010:	eb0a 0b03 	add.w	r11, r10, r3
    5014:	d3ec      	bcc.n	4ff0 <f_mkfs+0x364>
    5016:	9a00      	ldr	r2, [sp, #0]
    5018:	2f03      	cmp	r7, #3
    501a:	bf08      	it	eq
    501c:	464a      	moveq	r2, r9
    501e:	4691      	mov	r9, r2
    5020:	44d1      	add	r9, r10
    5022:	e002      	b.n	502a <f_mkfs+0x39e>
    5024:	45d1      	cmp	r9, r10
    5026:	f000 80ca 	beq.w	51be <f_mkfs+0x532>
    502a:	4652      	mov	r2, r10
    502c:	2000      	movs	r0, #0
    502e:	4629      	mov	r1, r5
    5030:	2301      	movs	r3, #1
    5032:	f000 fa65 	bl	5500 <disk_write(unsigned char, unsigned char const*, unsigned long, unsigned char)>
    5036:	f10a 0a01 	add.w	r10, r10, #1
    503a:	4606      	mov	r6, r0
    503c:	2800      	cmp	r0, #0
    503e:	d0f1      	beq.n	5024 <f_mkfs+0x398>
    5040:	2001      	movs	r0, #1
    5042:	e62a      	b.n	4c9a <f_mkfs+0xe>
    5044:	eb03 0343 	add.w	r3, r3, r3, lsl #1
    5048:	3301      	adds	r3, #1
    504a:	085b      	lsrs	r3, r3, #1
    504c:	3303      	adds	r3, #3
    504e:	2701      	movs	r7, #1
    5050:	f203 13ff 	addw	r3, r3, #511	; 0x1ff
    5054:	2120      	movs	r1, #32
    5056:	0a5e      	lsrs	r6, r3, #9
    5058:	9100      	str	r1, [sp, #0]
    505a:	f04f 0a01 	mov.w	r10, #1
    505e:	e681      	b.n	4d64 <f_mkfs+0xd8>
    5060:	f04f 0901 	mov.w	r9, #1
    5064:	e669      	b.n	4d3a <f_mkfs+0xae>
    5066:	f04f 0c01 	mov.w	r12, #1
    506a:	e698      	b.n	4d9e <f_mkfs+0x112>
    506c:	2300      	movs	r3, #0
    506e:	e658      	b.n	4d22 <f_mkfs+0x96>
    5070:	3302      	adds	r3, #2
    5072:	005b      	lsls	r3, r3, #1
    5074:	2702      	movs	r7, #2
    5076:	e7eb      	b.n	5050 <f_mkfs+0x3c4>
    5078:	23f0      	movs	r3, #240	; 0xf0
    507a:	9302      	str	r3, [sp, #8]
    507c:	f104 0530 	add.w	r5, r4, #48	; 0x30
    5080:	f504 7b0c 	add.w	r11, r4, #560	; 0x230
    5084:	e6f7      	b.n	4e76 <f_mkfs+0x1ea>
    5086:	9903      	ldr	r1, [sp, #12]
    5088:	f640 72f5 	movw	r2, #4085	; 0xff5
    508c:	4291      	cmp	r1, r2
    508e:	f67f ae74 	bls.w	4d7a <f_mkfs+0xee>
    5092:	f5b3 3f80 	cmp.w	r3, #65536	; 0x10000
    5096:	bf2c      	ite	cs
    5098:	2106      	movcs	r1, #6
    509a:	2104      	movcc	r1, #4
    509c:	e699      	b.n	4dd2 <f_mkfs+0x146>
    509e:	44aa      	add	r10, r5
    50a0:	9900      	ldr	r1, [sp, #0]
    50a2:	ebca 0303 	rsb	r3, r10, r3
    50a6:	1b9b      	subs	r3, r3, r6
    50a8:	1a5b      	subs	r3, r3, r1
    50aa:	fbb3 f3f9 	udiv	r3, r3, r9
    50ae:	9303      	str	r3, [sp, #12]
    50b0:	9a01      	ldr	r2, [sp, #4]
    50b2:	9903      	ldr	r1, [sp, #12]
    50b4:	f64f 73f5 	movw	r3, #65525	; 0xfff5
    50b8:	442a      	add	r2, r5
    50ba:	4299      	cmp	r1, r3
    50bc:	9201      	str	r2, [sp, #4]
    50be:	f67f ae5c 	bls.w	4d7a <f_mkfs+0xee>
    50c2:	210c      	movs	r1, #12
    50c4:	e685      	b.n	4dd2 <f_mkfs+0x146>
    50c6:	f3c3 2107 	ubfx	r1, r3, #8, #8
    50ca:	0c1a      	lsrs	r2, r3, #16
    50cc:	f884 3050 	strb.w	r3, [r4, #80]	; 0x50
    50d0:	0e1b      	lsrs	r3, r3, #24
    50d2:	f884 1051 	strb.w	r1, [r4, #81]	; 0x51
    50d6:	f884 2052 	strb.w	r2, [r4, #82]	; 0x52
    50da:	f884 3053 	strb.w	r3, [r4, #83]	; 0x53
    50de:	e6fb      	b.n	4ed8 <f_mkfs+0x24c>
    50e0:	f884 0073 	strb.w	r0, [r4, #115]	; 0x73
    50e4:	f884 2074 	strb.w	r2, [r4, #116]	; 0x74
    50e8:	0e00      	lsrs	r0, r0, #24
    50ea:	0c32      	lsrs	r2, r6, #16
    50ec:	f3c6 2107 	ubfx	r1, r6, #8, #8
    50f0:	f884 3075 	strb.w	r3, [r4, #117]	; 0x75
    50f4:	f884 0076 	strb.w	r0, [r4, #118]	; 0x76
    50f8:	2302      	movs	r3, #2
    50fa:	0e30      	lsrs	r0, r6, #24
    50fc:	f884 2056 	strb.w	r2, [r4, #86]	; 0x56
    5100:	2206      	movs	r2, #6
    5102:	f884 1055 	strb.w	r1, [r4, #85]	; 0x55
    5106:	f884 0057 	strb.w	r0, [r4, #87]	; 0x57
    510a:	2101      	movs	r1, #1
    510c:	f884 305c 	strb.w	r3, [r4, #92]	; 0x5c
    5110:	2080      	movs	r0, #128	; 0x80
    5112:	2329      	movs	r3, #41	; 0x29
    5114:	f884 2062 	strb.w	r2, [r4, #98]	; 0x62
    5118:	4a50      	ldr	r2, [pc, #320]	; (525c <f_mkfs+0x5d0>)
    511a:	f884 3072 	strb.w	r3, [r4, #114]	; 0x72
    511e:	f884 6054 	strb.w	r6, [r4, #84]	; 0x54
    5122:	f884 a05d 	strb.w	r10, [r4, #93]	; 0x5d
    5126:	f884 a05e 	strb.w	r10, [r4, #94]	; 0x5e
    512a:	f884 a05f 	strb.w	r10, [r4, #95]	; 0x5f
    512e:	f884 a061 	strb.w	r10, [r4, #97]	; 0x61
    5132:	f884 a063 	strb.w	r10, [r4, #99]	; 0x63
    5136:	f884 1060 	strb.w	r1, [r4, #96]	; 0x60
    513a:	f884 0070 	strb.w	r0, [r4, #112]	; 0x70
    513e:	f104 0377 	add.w	r3, r4, #119	; 0x77
    5142:	f812 100a 	ldrb.w	r1, [r2, r10]
    5146:	f803 100a 	strb.w	r1, [r3, r10]
    514a:	f10a 0a01 	add.w	r10, r10, #1
    514e:	f1ba 0f13 	cmp.w	r10, #19
    5152:	d1f6      	bne.n	5142 <f_mkfs+0x4b6>
    5154:	2255      	movs	r2, #85	; 0x55
    5156:	23aa      	movs	r3, #170	; 0xaa
    5158:	f884 222e 	strb.w	r2, [r4, #558]	; 0x22e
    515c:	f884 322f 	strb.w	r3, [r4, #559]	; 0x22f
    5160:	2000      	movs	r0, #0
    5162:	4629      	mov	r1, r5
    5164:	4642      	mov	r2, r8
    5166:	2301      	movs	r3, #1
    5168:	f000 f9ca 	bl	5500 <disk_write(unsigned char, unsigned char const*, unsigned long, unsigned char)>
    516c:	2800      	cmp	r0, #0
    516e:	f47f af67 	bne.w	5040 <f_mkfs+0x3b4>
    5172:	4629      	mov	r1, r5
    5174:	f108 0206 	add.w	r2, r8, #6
    5178:	2301      	movs	r3, #1
    517a:	f000 f9c1 	bl	5500 <disk_write(unsigned char, unsigned char const*, unsigned long, unsigned char)>
    517e:	e6fb      	b.n	4f78 <f_mkfs+0x2ec>
    5180:	9b02      	ldr	r3, [sp, #8]
    5182:	210f      	movs	r1, #15
    5184:	f063 02ff 	orn	r2, r3, #255	; 0xff
    5188:	23ff      	movs	r3, #255	; 0xff
    518a:	9204      	str	r2, [sp, #16]
    518c:	f884 2030 	strb.w	r2, [r4, #48]	; 0x30
    5190:	f884 3031 	strb.w	r3, [r4, #49]	; 0x31
    5194:	f884 3032 	strb.w	r3, [r4, #50]	; 0x32
    5198:	f884 3033 	strb.w	r3, [r4, #51]	; 0x33
    519c:	f884 3034 	strb.w	r3, [r4, #52]	; 0x34
    51a0:	f884 3035 	strb.w	r3, [r4, #53]	; 0x35
    51a4:	f884 3036 	strb.w	r3, [r4, #54]	; 0x36
    51a8:	f884 3037 	strb.w	r3, [r4, #55]	; 0x37
    51ac:	f884 3038 	strb.w	r3, [r4, #56]	; 0x38
    51b0:	f884 3039 	strb.w	r3, [r4, #57]	; 0x39
    51b4:	f884 303a 	strb.w	r3, [r4, #58]	; 0x3a
    51b8:	f884 103b 	strb.w	r1, [r4, #59]	; 0x3b
    51bc:	e6f7      	b.n	4fae <f_mkfs+0x322>
    51be:	2f03      	cmp	r7, #3
    51c0:	d142      	bne.n	5248 <f_mkfs+0x5bc>
    51c2:	9903      	ldr	r1, [sp, #12]
    51c4:	f04f 0e52 	mov.w	lr, #82	; 0x52
    51c8:	1e4b      	subs	r3, r1, #1
    51ca:	f3c3 2b07 	ubfx	r11, r3, #8, #8
    51ce:	2141      	movs	r1, #65	; 0x41
    51d0:	2272      	movs	r2, #114	; 0x72
    51d2:	ea4f 4a13 	mov.w	r10, r3, lsr #16
    51d6:	ea4f 6913 	mov.w	r9, r3, lsr #24
    51da:	2761      	movs	r7, #97	; 0x61
    51dc:	f04f 0c02 	mov.w	r12, #2
    51e0:	f884 3218 	strb.w	r3, [r4, #536]	; 0x218
    51e4:	f884 b219 	strb.w	r11, [r4, #537]	; 0x219
    51e8:	2355      	movs	r3, #85	; 0x55
    51ea:	f04f 0baa 	mov.w	r11, #170	; 0xaa
    51ee:	f884 1033 	strb.w	r1, [r4, #51]	; 0x33
    51f2:	f884 1216 	strb.w	r1, [r4, #534]	; 0x216
    51f6:	f884 2214 	strb.w	r2, [r4, #532]	; 0x214
    51fa:	f884 2215 	strb.w	r2, [r4, #533]	; 0x215
    51fe:	f884 322e 	strb.w	r3, [r4, #558]	; 0x22e
    5202:	4629      	mov	r1, r5
    5204:	f108 0201 	add.w	r2, r8, #1
    5208:	2301      	movs	r3, #1
    520a:	f884 021d 	strb.w	r0, [r4, #541]	; 0x21d
    520e:	f884 021e 	strb.w	r0, [r4, #542]	; 0x21e
    5212:	f884 021f 	strb.w	r0, [r4, #543]	; 0x21f
    5216:	f884 a21a 	strb.w	r10, [r4, #538]	; 0x21a
    521a:	f884 921b 	strb.w	r9, [r4, #539]	; 0x21b
    521e:	f884 e030 	strb.w	lr, [r4, #48]	; 0x30
    5222:	f884 e031 	strb.w	lr, [r4, #49]	; 0x31
    5226:	f884 7032 	strb.w	r7, [r4, #50]	; 0x32
    522a:	f884 7217 	strb.w	r7, [r4, #535]	; 0x217
    522e:	f884 c21c 	strb.w	r12, [r4, #540]	; 0x21c
    5232:	f884 b22f 	strb.w	r11, [r4, #559]	; 0x22f
    5236:	f000 f963 	bl	5500 <disk_write(unsigned char, unsigned char const*, unsigned long, unsigned char)>
    523a:	4630      	mov	r0, r6
    523c:	4629      	mov	r1, r5
    523e:	f108 0207 	add.w	r2, r8, #7
    5242:	2301      	movs	r3, #1
    5244:	f000 f95c 	bl	5500 <disk_write(unsigned char, unsigned char const*, unsigned long, unsigned char)>
    5248:	2000      	movs	r0, #0
    524a:	4601      	mov	r1, r0
    524c:	4602      	mov	r2, r0
    524e:	f000 f969 	bl	5524 <disk_ioctl(unsigned char, unsigned char, void*)>
    5252:	3000      	adds	r0, #0
    5254:	bf18      	it	ne
    5256:	2001      	movne	r0, #1
    5258:	e51f      	b.n	4c9a <f_mkfs+0xe>
    525a:	bf00      	nop
    525c:	0000ba3c 	.word	0x0000ba3c

00005260 <mbed::DirHandle::telldir()>:
    5260:	f04f 30ff 	mov.w	r0, #4294967295	; 0xffffffff
    5264:	4770      	bx	lr
    5266:	bf00      	nop

00005268 <mbed::DirHandle::seekdir(long)>:
    5268:	4770      	bx	lr
    526a:	bf00      	nop

0000526c <mbed::DirHandle::~DirHandle()>:
    526c:	4b01      	ldr	r3, [pc, #4]	; (5274 <mbed::DirHandle::~DirHandle()+0x8>)
    526e:	6003      	str	r3, [r0, #0]
    5270:	4770      	bx	lr
    5272:	bf00      	nop
    5274:	0000ba88 	.word	0x0000ba88

00005278 <FATDirHandle::closedir()>:
    5278:	b508      	push	{r3, lr}
    527a:	b110      	cbz	r0, 5282 <FATDirHandle::closedir()+0xa>
    527c:	6803      	ldr	r3, [r0, #0]
    527e:	699b      	ldr	r3, [r3, #24]
    5280:	4798      	blx	r3
    5282:	2000      	movs	r0, #0
    5284:	bd08      	pop	{r3, pc}
    5286:	bf00      	nop

00005288 <FATDirHandle::rewinddir()>:
    5288:	2300      	movs	r3, #0
    528a:	8143      	strh	r3, [r0, #10]
    528c:	4770      	bx	lr
    528e:	bf00      	nop

00005290 <FATDirHandle::telldir()>:
    5290:	8940      	ldrh	r0, [r0, #10]
    5292:	4770      	bx	lr

00005294 <FATDirHandle::seekdir(long)>:
    5294:	8141      	strh	r1, [r0, #10]
    5296:	4770      	bx	lr

00005298 <FATDirHandle::~FATDirHandle()>:
    5298:	4b01      	ldr	r3, [pc, #4]	; (52a0 <FATDirHandle::~FATDirHandle()+0x8>)
    529a:	6003      	str	r3, [r0, #0]
    529c:	4770      	bx	lr
    529e:	bf00      	nop
    52a0:	0000ba88 	.word	0x0000ba88

000052a4 <mbed::DirHandle::~DirHandle()>:
    52a4:	b510      	push	{r4, lr}
    52a6:	4b03      	ldr	r3, [pc, #12]	; (52b4 <mbed::DirHandle::~DirHandle()+0x10>)
    52a8:	4604      	mov	r4, r0
    52aa:	6003      	str	r3, [r0, #0]
    52ac:	f002 feea 	bl	8084 <operator delete(void*)>
    52b0:	4620      	mov	r0, r4
    52b2:	bd10      	pop	{r4, pc}
    52b4:	0000ba88 	.word	0x0000ba88

000052b8 <FATDirHandle::~FATDirHandle()>:
    52b8:	b510      	push	{r4, lr}
    52ba:	4b03      	ldr	r3, [pc, #12]	; (52c8 <FATDirHandle::~FATDirHandle()+0x10>)
    52bc:	4604      	mov	r4, r0
    52be:	6003      	str	r3, [r0, #0]
    52c0:	f002 fee0 	bl	8084 <operator delete(void*)>
    52c4:	4620      	mov	r0, r4
    52c6:	bd10      	pop	{r4, pc}
    52c8:	0000ba88 	.word	0x0000ba88

000052cc <FATDirHandle::readdir()>:
    52cc:	b530      	push	{r4, r5, lr}
    52ce:	b089      	sub	sp, #36	; 0x24
    52d0:	f100 0528 	add.w	r5, r0, #40	; 0x28
    52d4:	4604      	mov	r4, r0
    52d6:	f44f 7380 	mov.w	r3, #256	; 0x100
    52da:	3004      	adds	r0, #4
    52dc:	4669      	mov	r1, sp
    52de:	9506      	str	r5, [sp, #24]
    52e0:	9307      	str	r3, [sp, #28]
    52e2:	f7ff fa8b 	bl	47fc <f_readdir>
    52e6:	b998      	cbnz	r0, 5310 <FATDirHandle::readdir()+0x44>
    52e8:	f89d 0009 	ldrb.w	r0, [sp, #9]
    52ec:	b118      	cbz	r0, 52f6 <FATDirHandle::readdir()+0x2a>
    52ee:	f894 3028 	ldrb.w	r3, [r4, #40]	; 0x28
    52f2:	b113      	cbz	r3, 52fa <FATDirHandle::readdir()+0x2e>
    52f4:	4628      	mov	r0, r5
    52f6:	b009      	add	sp, #36	; 0x24
    52f8:	bd30      	pop	{r4, r5, pc}
    52fa:	ab08      	add	r3, sp, #32
    52fc:	f853 0d17 	ldr.w	r0, [r3, #-23]!
    5300:	6859      	ldr	r1, [r3, #4]
    5302:	689a      	ldr	r2, [r3, #8]
    5304:	7b1b      	ldrb	r3, [r3, #12]
    5306:	62a0      	str	r0, [r4, #40]	; 0x28
    5308:	6069      	str	r1, [r5, #4]
    530a:	60aa      	str	r2, [r5, #8]
    530c:	732b      	strb	r3, [r5, #12]
    530e:	e7f1      	b.n	52f4 <FATDirHandle::readdir()+0x28>
    5310:	2000      	movs	r0, #0
    5312:	b009      	add	sp, #36	; 0x24
    5314:	bd30      	pop	{r4, r5, pc}
    5316:	bf00      	nop

00005318 <FATDirHandle::FATDirHandle(FATFS_DIR const&)>:
    5318:	4b07      	ldr	r3, [pc, #28]	; (5338 <FATDirHandle::FATDirHandle(FATFS_DIR const&)+0x20>)
    531a:	b470      	push	{r4, r5, r6}
    531c:	4604      	mov	r4, r0
    531e:	f844 3b04 	str.w	r3, [r4], #4
    5322:	460d      	mov	r5, r1
    5324:	4606      	mov	r6, r0
    5326:	cd0f      	ldmia	r5!, {r0, r1, r2, r3}
    5328:	c40f      	stmia	r4!, {r0, r1, r2, r3}
    532a:	cd0f      	ldmia	r5!, {r0, r1, r2, r3}
    532c:	c40f      	stmia	r4!, {r0, r1, r2, r3}
    532e:	682b      	ldr	r3, [r5, #0]
    5330:	4630      	mov	r0, r6
    5332:	6023      	str	r3, [r4, #0]
    5334:	bc70      	pop	{r4, r5, r6}
    5336:	4770      	bx	lr
    5338:	0000bab0 	.word	0x0000bab0

0000533c <FATFileHandle::isatty()>:
    533c:	2000      	movs	r0, #0
    533e:	4770      	bx	lr

00005340 <FATFileHandle::flen()>:
    5340:	6900      	ldr	r0, [r0, #16]
    5342:	4770      	bx	lr

00005344 <FATFileHandle::close()>:
    5344:	b538      	push	{r3, r4, r5, lr}
    5346:	4604      	mov	r4, r0
    5348:	3004      	adds	r0, #4
    534a:	f7ff f94b 	bl	45e4 <f_close>
    534e:	4605      	mov	r5, r0
    5350:	b11c      	cbz	r4, 535a <FATFileHandle::close()+0x16>
    5352:	6823      	ldr	r3, [r4, #0]
    5354:	4620      	mov	r0, r4
    5356:	6a1b      	ldr	r3, [r3, #32]
    5358:	4798      	blx	r3
    535a:	4628      	mov	r0, r5
    535c:	bd38      	pop	{r3, r4, r5, pc}
    535e:	bf00      	nop

00005360 <FATFileHandle::~FATFileHandle()>:
    5360:	b510      	push	{r4, lr}
    5362:	4b03      	ldr	r3, [pc, #12]	; (5370 <FATFileHandle::~FATFileHandle()+0x10>)
    5364:	4604      	mov	r4, r0
    5366:	6003      	str	r3, [r0, #0]
    5368:	f001 fe3a 	bl	6fe0 <mbed::FileHandle::~FileHandle()>
    536c:	4620      	mov	r0, r4
    536e:	bd10      	pop	{r4, pc}
    5370:	0000bad8 	.word	0x0000bad8

00005374 <FATFileHandle::~FATFileHandle()>:
    5374:	b510      	push	{r4, lr}
    5376:	4b05      	ldr	r3, [pc, #20]	; (538c <FATFileHandle::~FATFileHandle()+0x18>)
    5378:	4604      	mov	r4, r0
    537a:	6003      	str	r3, [r0, #0]
    537c:	f001 fe30 	bl	6fe0 <mbed::FileHandle::~FileHandle()>
    5380:	4620      	mov	r0, r4
    5382:	f002 fe7f 	bl	8084 <operator delete(void*)>
    5386:	4620      	mov	r0, r4
    5388:	bd10      	pop	{r4, pc}
    538a:	bf00      	nop
    538c:	0000bad8 	.word	0x0000bad8

00005390 <FATFileHandle::fsync()>:
    5390:	b508      	push	{r3, lr}
    5392:	3004      	adds	r0, #4
    5394:	f7fe ffda 	bl	434c <f_sync>
    5398:	3000      	adds	r0, #0
    539a:	bf18      	it	ne
    539c:	2001      	movne	r0, #1
    539e:	4240      	negs	r0, r0
    53a0:	bd08      	pop	{r3, pc}
    53a2:	bf00      	nop

000053a4 <FATFileHandle::lseek(long, int)>:
    53a4:	2a02      	cmp	r2, #2
    53a6:	b510      	push	{r4, lr}
    53a8:	4604      	mov	r4, r0
    53aa:	d009      	beq.n	53c0 <FATFileHandle::lseek(long, int)+0x1c>
    53ac:	2a01      	cmp	r2, #1
    53ae:	bf04      	itt	eq
    53b0:	68c3      	ldreq	r3, [r0, #12]
    53b2:	18c9      	addeq	r1, r1, r3
    53b4:	1d20      	adds	r0, r4, #4
    53b6:	f7ff f91d 	bl	45f4 <f_lseek>
    53ba:	b920      	cbnz	r0, 53c6 <FATFileHandle::lseek(long, int)+0x22>
    53bc:	68e0      	ldr	r0, [r4, #12]
    53be:	bd10      	pop	{r4, pc}
    53c0:	6903      	ldr	r3, [r0, #16]
    53c2:	4419      	add	r1, r3
    53c4:	e7f6      	b.n	53b4 <FATFileHandle::lseek(long, int)+0x10>
    53c6:	f04f 30ff 	mov.w	r0, #4294967295	; 0xffffffff
    53ca:	bd10      	pop	{r4, pc}

000053cc <FATFileHandle::read(void*, unsigned int)>:
    53cc:	b500      	push	{lr}
    53ce:	b083      	sub	sp, #12
    53d0:	3004      	adds	r0, #4
    53d2:	ab01      	add	r3, sp, #4
    53d4:	f7fe fef0 	bl	41b8 <f_read>
    53d8:	b918      	cbnz	r0, 53e2 <FATFileHandle::read(void*, unsigned int)+0x16>
    53da:	9801      	ldr	r0, [sp, #4]
    53dc:	b003      	add	sp, #12
    53de:	f85d fb04 	ldr.w	pc, [sp], #4
    53e2:	f04f 30ff 	mov.w	r0, #4294967295	; 0xffffffff
    53e6:	e7f9      	b.n	53dc <FATFileHandle::read(void*, unsigned int)+0x10>

000053e8 <FATFileHandle::write(void const*, unsigned int)>:
    53e8:	b500      	push	{lr}
    53ea:	b083      	sub	sp, #12
    53ec:	3004      	adds	r0, #4
    53ee:	ab01      	add	r3, sp, #4
    53f0:	f7ff f800 	bl	43f4 <f_write>
    53f4:	b918      	cbnz	r0, 53fe <FATFileHandle::write(void const*, unsigned int)+0x16>
    53f6:	9801      	ldr	r0, [sp, #4]
    53f8:	b003      	add	sp, #12
    53fa:	f85d fb04 	ldr.w	pc, [sp], #4
    53fe:	f04f 30ff 	mov.w	r0, #4294967295	; 0xffffffff
    5402:	e7f9      	b.n	53f8 <FATFileHandle::write(void const*, unsigned int)+0x10>

00005404 <FATFileHandle::FATFileHandle(FIL)>:
    5404:	b084      	sub	sp, #16
    5406:	b570      	push	{r4, r5, r6, lr}
    5408:	4606      	mov	r6, r0
    540a:	4809      	ldr	r0, [pc, #36]	; (5430 <FATFileHandle::FATFileHandle(FIL)+0x2c>)
    540c:	4635      	mov	r5, r6
    540e:	f845 0b04 	str.w	r0, [r5], #4
    5412:	ac05      	add	r4, sp, #20
    5414:	e884 000e 	stmia.w	r4, {r1, r2, r3}
    5418:	4628      	mov	r0, r5
    541a:	4621      	mov	r1, r4
    541c:	f44f 7209 	mov.w	r2, #548	; 0x224
    5420:	f003 f9ea 	bl	87f8 <memcpy>
    5424:	4630      	mov	r0, r6
    5426:	e8bd 4070 	ldmia.w	sp!, {r4, r5, r6, lr}
    542a:	b004      	add	sp, #16
    542c:	4770      	bx	lr
    542e:	bf00      	nop
    5430:	0000bad8 	.word	0x0000bad8

00005434 <ff_convert>:
    5434:	287f      	cmp	r0, #127	; 0x7f
    5436:	b410      	push	{r4}
    5438:	d90e      	bls.n	5458 <ff_convert+0x24>
    543a:	b981      	cbnz	r1, 545e <ff_convert+0x2a>
    543c:	4b0e      	ldr	r3, [pc, #56]	; (5478 <ff_convert+0x44>)
    543e:	e001      	b.n	5444 <ff_convert+0x10>
    5440:	2980      	cmp	r1, #128	; 0x80
    5442:	d015      	beq.n	5470 <ff_convert+0x3c>
    5444:	f833 2f02 	ldrh.w	r2, [r3, #2]!
    5448:	b28c      	uxth	r4, r1
    544a:	4282      	cmp	r2, r0
    544c:	f101 0101 	add.w	r1, r1, #1
    5450:	d1f6      	bne.n	5440 <ff_convert+0xc>
    5452:	f104 0080 	add.w	r0, r4, #128	; 0x80
    5456:	b280      	uxth	r0, r0
    5458:	f85d 4b04 	ldr.w	r4, [sp], #4
    545c:	4770      	bx	lr
    545e:	28ff      	cmp	r0, #255	; 0xff
    5460:	d806      	bhi.n	5470 <ff_convert+0x3c>
    5462:	4b06      	ldr	r3, [pc, #24]	; (547c <ff_convert+0x48>)
    5464:	3880      	subs	r0, #128	; 0x80
    5466:	f833 0010 	ldrh.w	r0, [r3, r0, lsl #1]
    546a:	f85d 4b04 	ldr.w	r4, [sp], #4
    546e:	4770      	bx	lr
    5470:	2000      	movs	r0, #0
    5472:	f85d 4b04 	ldr.w	r4, [sp], #4
    5476:	4770      	bx	lr
    5478:	0000bafe 	.word	0x0000bafe
    547c:	0000bb00 	.word	0x0000bb00

00005480 <ff_wtoupper>:
    5480:	2861      	cmp	r0, #97	; 0x61
    5482:	d00a      	beq.n	549a <ff_wtoupper+0x1a>
    5484:	4907      	ldr	r1, [pc, #28]	; (54a4 <ff_wtoupper+0x24>)
    5486:	2200      	movs	r2, #0
    5488:	e001      	b.n	548e <ff_wtoupper+0xe>
    548a:	4283      	cmp	r3, r0
    548c:	d006      	beq.n	549c <ff_wtoupper+0x1c>
    548e:	f831 3f02 	ldrh.w	r3, [r1, #2]!
    5492:	3201      	adds	r2, #1
    5494:	2b00      	cmp	r3, #0
    5496:	d1f8      	bne.n	548a <ff_wtoupper+0xa>
    5498:	4770      	bx	lr
    549a:	2200      	movs	r2, #0
    549c:	4b02      	ldr	r3, [pc, #8]	; (54a8 <ff_wtoupper+0x28>)
    549e:	f833 0012 	ldrh.w	r0, [r3, r2, lsl #1]
    54a2:	4770      	bx	lr
    54a4:	0000bde0 	.word	0x0000bde0
    54a8:	0000bc00 	.word	0x0000bc00

000054ac <disk_initialize(unsigned char)>:
    54ac:	b508      	push	{r3, lr}
    54ae:	4b04      	ldr	r3, [pc, #16]	; (54c0 <disk_initialize(unsigned char)+0x14>)
    54b0:	f853 0020 	ldr.w	r0, [r3, r0, lsl #2]
    54b4:	6803      	ldr	r3, [r0, #0]
    54b6:	6a9b      	ldr	r3, [r3, #40]	; 0x28
    54b8:	4798      	blx	r3
    54ba:	b2c0      	uxtb	r0, r0
    54bc:	bd08      	pop	{r3, pc}
    54be:	bf00      	nop
    54c0:	10000248 	.word	0x10000248

000054c4 <disk_status(unsigned char)>:
    54c4:	b508      	push	{r3, lr}
    54c6:	4b04      	ldr	r3, [pc, #16]	; (54d8 <disk_status(unsigned char)+0x14>)
    54c8:	f853 0020 	ldr.w	r0, [r3, r0, lsl #2]
    54cc:	6803      	ldr	r3, [r0, #0]
    54ce:	6adb      	ldr	r3, [r3, #44]	; 0x2c
    54d0:	4798      	blx	r3
    54d2:	b2c0      	uxtb	r0, r0
    54d4:	bd08      	pop	{r3, pc}
    54d6:	bf00      	nop
    54d8:	10000248 	.word	0x10000248

000054dc <disk_read(unsigned char, unsigned char*, unsigned long, unsigned char)>:
    54dc:	b510      	push	{r4, lr}
    54de:	4c07      	ldr	r4, [pc, #28]	; (54fc <disk_read(unsigned char, unsigned char*, unsigned long, unsigned char)+0x20>)
    54e0:	b082      	sub	sp, #8
    54e2:	f854 0020 	ldr.w	r0, [r4, r0, lsl #2]
    54e6:	6804      	ldr	r4, [r0, #0]
    54e8:	9300      	str	r3, [sp, #0]
    54ea:	6b24      	ldr	r4, [r4, #48]	; 0x30
    54ec:	2300      	movs	r3, #0
    54ee:	47a0      	blx	r4
    54f0:	2800      	cmp	r0, #0
    54f2:	bf14      	ite	ne
    54f4:	2004      	movne	r0, #4
    54f6:	2000      	moveq	r0, #0
    54f8:	b002      	add	sp, #8
    54fa:	bd10      	pop	{r4, pc}
    54fc:	10000248 	.word	0x10000248

00005500 <disk_write(unsigned char, unsigned char const*, unsigned long, unsigned char)>:
    5500:	b510      	push	{r4, lr}
    5502:	4c07      	ldr	r4, [pc, #28]	; (5520 <disk_write(unsigned char, unsigned char const*, unsigned long, unsigned char)+0x20>)
    5504:	b082      	sub	sp, #8
    5506:	f854 0020 	ldr.w	r0, [r4, r0, lsl #2]
    550a:	6804      	ldr	r4, [r0, #0]
    550c:	9300      	str	r3, [sp, #0]
    550e:	6b64      	ldr	r4, [r4, #52]	; 0x34
    5510:	2300      	movs	r3, #0
    5512:	47a0      	blx	r4
    5514:	2800      	cmp	r0, #0
    5516:	bf14      	ite	ne
    5518:	2004      	movne	r0, #4
    551a:	2000      	moveq	r0, #0
    551c:	b002      	add	sp, #8
    551e:	bd10      	pop	{r4, pc}
    5520:	10000248 	.word	0x10000248

00005524 <disk_ioctl(unsigned char, unsigned char, void*)>:
    5524:	b510      	push	{r4, lr}
    5526:	2901      	cmp	r1, #1
    5528:	b082      	sub	sp, #8
    552a:	460c      	mov	r4, r1
    552c:	d016      	beq.n	555c <disk_ioctl(unsigned char, unsigned char, void*)+0x38>
    552e:	d309      	bcc.n	5544 <disk_ioctl(unsigned char, unsigned char, void*)+0x20>
    5530:	2903      	cmp	r1, #3
    5532:	d002      	beq.n	553a <disk_ioctl(unsigned char, unsigned char, void*)+0x16>
    5534:	2004      	movs	r0, #4
    5536:	b002      	add	sp, #8
    5538:	bd10      	pop	{r4, pc}
    553a:	2301      	movs	r3, #1
    553c:	2000      	movs	r0, #0
    553e:	6013      	str	r3, [r2, #0]
    5540:	b002      	add	sp, #8
    5542:	bd10      	pop	{r4, pc}
    5544:	4b0e      	ldr	r3, [pc, #56]	; (5580 <disk_ioctl(unsigned char, unsigned char, void*)+0x5c>)
    5546:	f853 0020 	ldr.w	r0, [r3, r0, lsl #2]
    554a:	b158      	cbz	r0, 5564 <disk_ioctl(unsigned char, unsigned char, void*)+0x40>
    554c:	6803      	ldr	r3, [r0, #0]
    554e:	6b9b      	ldr	r3, [r3, #56]	; 0x38
    5550:	4798      	blx	r3
    5552:	3000      	adds	r0, #0
    5554:	bf18      	it	ne
    5556:	2001      	movne	r0, #1
    5558:	b002      	add	sp, #8
    555a:	bd10      	pop	{r4, pc}
    555c:	4b08      	ldr	r3, [pc, #32]	; (5580 <disk_ioctl(unsigned char, unsigned char, void*)+0x5c>)
    555e:	f853 0020 	ldr.w	r0, [r3, r0, lsl #2]
    5562:	b910      	cbnz	r0, 556a <disk_ioctl(unsigned char, unsigned char, void*)+0x46>
    5564:	2003      	movs	r0, #3
    5566:	b002      	add	sp, #8
    5568:	bd10      	pop	{r4, pc}
    556a:	6803      	ldr	r3, [r0, #0]
    556c:	6bdb      	ldr	r3, [r3, #60]	; 0x3c
    556e:	9201      	str	r2, [sp, #4]
    5570:	4798      	blx	r3
    5572:	9a01      	ldr	r2, [sp, #4]
    5574:	b110      	cbz	r0, 557c <disk_ioctl(unsigned char, unsigned char, void*)+0x58>
    5576:	6010      	str	r0, [r2, #0]
    5578:	2000      	movs	r0, #0
    557a:	e7dc      	b.n	5536 <disk_ioctl(unsigned char, unsigned char, void*)+0x12>
    557c:	4620      	mov	r0, r4
    557e:	e7da      	b.n	5536 <disk_ioctl(unsigned char, unsigned char, void*)+0x12>
    5580:	10000248 	.word	0x10000248

00005584 <osThreadExit>:
    5584:	b500      	push	{lr}
    5586:	f8df c00c 	ldr.w	r12, [pc, #12]	; 5594 <osThreadExit+0x10>
    558a:	df00      	svc	0
    558c:	f8df c008 	ldr.w	r12, [pc, #8]	; 5598 <osThreadExit+0x14>
    5590:	df00      	svc	0
    5592:	e7fe      	b.n	5592 <osThreadExit+0xe>
    5594:	0000573d 	.word	0x0000573d
    5598:	00005755 	.word	0x00005755

0000559c <rt_timer_insert>:
    559c:	b430      	push	{r4, r5}
    559e:	4d11      	ldr	r5, [pc, #68]	; (55e4 <rt_timer_insert+0x48>)
    55a0:	682c      	ldr	r4, [r5, #0]
    55a2:	b15c      	cbz	r4, 55bc <rt_timer_insert+0x20>
    55a4:	8922      	ldrh	r2, [r4, #8]
    55a6:	4291      	cmp	r1, r2
    55a8:	d204      	bcs.n	55b4 <rt_timer_insert+0x18>
    55aa:	e00e      	b.n	55ca <rt_timer_insert+0x2e>
    55ac:	891a      	ldrh	r2, [r3, #8]
    55ae:	428a      	cmp	r2, r1
    55b0:	d80d      	bhi.n	55ce <rt_timer_insert+0x32>
    55b2:	461c      	mov	r4, r3
    55b4:	6823      	ldr	r3, [r4, #0]
    55b6:	1a89      	subs	r1, r1, r2
    55b8:	2b00      	cmp	r3, #0
    55ba:	d1f7      	bne.n	55ac <rt_timer_insert+0x10>
    55bc:	2300      	movs	r3, #0
    55be:	8101      	strh	r1, [r0, #8]
    55c0:	6003      	str	r3, [r0, #0]
    55c2:	b164      	cbz	r4, 55de <rt_timer_insert+0x42>
    55c4:	6020      	str	r0, [r4, #0]
    55c6:	bc30      	pop	{r4, r5}
    55c8:	4770      	bx	lr
    55ca:	4623      	mov	r3, r4
    55cc:	2400      	movs	r4, #0
    55ce:	b289      	uxth	r1, r1
    55d0:	8101      	strh	r1, [r0, #8]
    55d2:	891a      	ldrh	r2, [r3, #8]
    55d4:	6003      	str	r3, [r0, #0]
    55d6:	1a51      	subs	r1, r2, r1
    55d8:	8119      	strh	r1, [r3, #8]
    55da:	2c00      	cmp	r4, #0
    55dc:	d1f2      	bne.n	55c4 <rt_timer_insert+0x28>
    55de:	6028      	str	r0, [r5, #0]
    55e0:	bc30      	pop	{r4, r5}
    55e2:	4770      	bx	lr
    55e4:	100006f4 	.word	0x100006f4

000055e8 <rt_ms2tick.part.0>:
    55e8:	4b08      	ldr	r3, [pc, #32]	; (560c <rt_ms2tick.part.0+0x24>)
    55ea:	b410      	push	{r4}
    55ec:	681b      	ldr	r3, [r3, #0]
    55ee:	f44f 747a 	mov.w	r4, #1000	; 0x3e8
    55f2:	1e59      	subs	r1, r3, #1
    55f4:	fb04 1000 	mla	r0, r4, r0, r1
    55f8:	f64f 72fe 	movw	r2, #65534	; 0xfffe
    55fc:	fbb0 f0f3 	udiv	r0, r0, r3
    5600:	4290      	cmp	r0, r2
    5602:	bf28      	it	cs
    5604:	4610      	movcs	r0, r2
    5606:	f85d 4b04 	ldr.w	r4, [sp], #4
    560a:	4770      	bx	lr
    560c:	0000c024 	.word	0x0000c024

00005610 <svcKernelInitialize>:
    5610:	b538      	push	{r3, r4, r5, lr}
    5612:	4c08      	ldr	r4, [pc, #32]	; (5634 <svcKernelInitialize+0x24>)
    5614:	7825      	ldrb	r5, [r4, #0]
    5616:	b955      	cbnz	r5, 562e <svcKernelInitialize+0x1e>
    5618:	f001 f944 	bl	68a4 <rt_sys_init>
    561c:	4b06      	ldr	r3, [pc, #24]	; (5638 <svcKernelInitialize+0x28>)
    561e:	22ff      	movs	r2, #255	; 0xff
    5620:	681b      	ldr	r3, [r3, #0]
    5622:	4628      	mov	r0, r5
    5624:	709a      	strb	r2, [r3, #2]
    5626:	f001 fb1b 	bl	6c60 <sysThreadError>
    562a:	2301      	movs	r3, #1
    562c:	7023      	strb	r3, [r4, #0]
    562e:	2000      	movs	r0, #0
    5630:	bd38      	pop	{r3, r4, r5, pc}
    5632:	bf00      	nop
    5634:	100006f0 	.word	0x100006f0
    5638:	1000072c 	.word	0x1000072c

0000563c <osKernelInitialize>:
    563c:	b510      	push	{r4, lr}
    563e:	f3ef 8405 	mrs	r4, IPSR
    5642:	b10c      	cbz	r4, 5648 <osKernelInitialize+0xc>
    5644:	2082      	movs	r0, #130	; 0x82
    5646:	bd10      	pop	{r4, pc}
    5648:	f3ef 8414 	mrs	r4, CONTROL
    564c:	07e4      	lsls	r4, r4, #31
    564e:	d503      	bpl.n	5658 <osKernelInitialize+0x1c>
    5650:	f8df c00c 	ldr.w	r12, [pc, #12]	; 5660 <osKernelInitialize+0x24>
    5654:	df00      	svc	0
    5656:	bd10      	pop	{r4, pc}
    5658:	e8bd 4010 	ldmia.w	sp!, {r4, lr}
    565c:	f7ff bfd8 	b.w	5610 <svcKernelInitialize>
    5660:	00005611 	.word	0x00005611

00005664 <osKernelStart>:
    5664:	b510      	push	{r4, lr}
    5666:	b088      	sub	sp, #32
    5668:	f3ef 8405 	mrs	r4, IPSR
    566c:	b114      	cbz	r4, 5674 <osKernelStart+0x10>
    566e:	2082      	movs	r0, #130	; 0x82
    5670:	b008      	add	sp, #32
    5672:	bd10      	pop	{r4, pc}
    5674:	f3ef 8414 	mrs	r4, CONTROL
    5678:	f004 0403 	and.w	r4, r4, #3
    567c:	2c02      	cmp	r4, #2
    567e:	d01d      	beq.n	56bc <osKernelStart+0x58>
    5680:	2c03      	cmp	r4, #3
    5682:	d014      	beq.n	56ae <osKernelStart+0x4a>
    5684:	2c01      	cmp	r4, #1
    5686:	d016      	beq.n	56b6 <osKernelStart+0x52>
    5688:	ac08      	add	r4, sp, #32
    568a:	f384 8809 	msr	PSP, r4
    568e:	4c0f      	ldr	r4, [pc, #60]	; (56cc <osKernelStart+0x68>)
    5690:	7824      	ldrb	r4, [r4, #0]
    5692:	07e4      	lsls	r4, r4, #31
    5694:	d516      	bpl.n	56c4 <osKernelStart+0x60>
    5696:	2402      	movs	r4, #2
    5698:	f384 8814 	msr	CONTROL, r4
    569c:	f3bf 8f4f 	dsb	sy
    56a0:	f3bf 8f6f 	isb	sy
    56a4:	f8df c028 	ldr.w	r12, [pc, #40]	; 56d0 <osKernelStart+0x6c>
    56a8:	df00      	svc	0
    56aa:	b008      	add	sp, #32
    56ac:	bd10      	pop	{r4, pc}
    56ae:	4c07      	ldr	r4, [pc, #28]	; (56cc <osKernelStart+0x68>)
    56b0:	7824      	ldrb	r4, [r4, #0]
    56b2:	07e4      	lsls	r4, r4, #31
    56b4:	d5f6      	bpl.n	56a4 <osKernelStart+0x40>
    56b6:	20ff      	movs	r0, #255	; 0xff
    56b8:	b008      	add	sp, #32
    56ba:	bd10      	pop	{r4, pc}
    56bc:	4c03      	ldr	r4, [pc, #12]	; (56cc <osKernelStart+0x68>)
    56be:	7824      	ldrb	r4, [r4, #0]
    56c0:	07e4      	lsls	r4, r4, #31
    56c2:	d4ef      	bmi.n	56a4 <osKernelStart+0x40>
    56c4:	2403      	movs	r4, #3
    56c6:	f384 8814 	msr	CONTROL, r4
    56ca:	e7e7      	b.n	569c <osKernelStart+0x38>
    56cc:	0000c02c 	.word	0x0000c02c
    56d0:	000059c5 	.word	0x000059c5

000056d4 <svcThreadCreate>:
    56d4:	b5f8      	push	{r3, r4, r5, r6, r7, lr}
    56d6:	4604      	mov	r4, r0
    56d8:	460f      	mov	r7, r1
    56da:	b328      	cbz	r0, 5728 <svcThreadCreate+0x54>
    56dc:	6802      	ldr	r2, [r0, #0]
    56de:	b31a      	cbz	r2, 5728 <svcThreadCreate+0x54>
    56e0:	8883      	ldrh	r3, [r0, #4]
    56e2:	1cd8      	adds	r0, r3, #3
    56e4:	b280      	uxth	r0, r0
    56e6:	2806      	cmp	r0, #6
    56e8:	d81e      	bhi.n	5728 <svcThreadCreate+0x54>
    56ea:	68a0      	ldr	r0, [r4, #8]
    56ec:	b1e0      	cbz	r0, 5728 <svcThreadCreate+0x54>
    56ee:	68e6      	ldr	r6, [r4, #12]
    56f0:	b1d6      	cbz	r6, 5728 <svcThreadCreate+0x54>
    56f2:	1d19      	adds	r1, r3, #4
    56f4:	f104 0510 	add.w	r5, r4, #16
    56f8:	b2c9      	uxtb	r1, r1
    56fa:	63a6      	str	r6, [r4, #56]	; 0x38
    56fc:	8660      	strh	r0, [r4, #50]	; 0x32
    56fe:	62e7      	str	r7, [r4, #44]	; 0x2c
    5700:	4628      	mov	r0, r5
    5702:	f000 fffb 	bl	66fc <rt_init_context>
    5706:	f000 ffe1 	bl	66cc <rt_get_TID>
    570a:	4e0a      	ldr	r6, [pc, #40]	; (5734 <svcThreadCreate+0x60>)
    570c:	4603      	mov	r3, r0
    570e:	1e47      	subs	r7, r0, #1
    5710:	f846 5027 	str.w	r5, [r6, r7, lsl #2]
    5714:	4628      	mov	r0, r5
    5716:	74e3      	strb	r3, [r4, #19]
    5718:	f001 f80c 	bl	6734 <rt_dispatch>
    571c:	f856 0027 	ldr.w	r0, [r6, r7, lsl #2]
    5720:	4a05      	ldr	r2, [pc, #20]	; (5738 <svcThreadCreate+0x64>)
    5722:	6a43      	ldr	r3, [r0, #36]	; 0x24
    5724:	635a      	str	r2, [r3, #52]	; 0x34
    5726:	bdf8      	pop	{r3, r4, r5, r6, r7, pc}
    5728:	2080      	movs	r0, #128	; 0x80
    572a:	f001 fa99 	bl	6c60 <sysThreadError>
    572e:	2000      	movs	r0, #0
    5730:	bdf8      	pop	{r3, r4, r5, r6, r7, pc}
    5732:	bf00      	nop
    5734:	10000968 	.word	0x10000968
    5738:	00005585 	.word	0x00005585

0000573c <svcThreadGetId>:
    573c:	b508      	push	{r3, lr}
    573e:	f001 f835 	bl	67ac <rt_tsk_self>
    5742:	b118      	cbz	r0, 574c <svcThreadGetId+0x10>
    5744:	4b02      	ldr	r3, [pc, #8]	; (5750 <svcThreadGetId+0x14>)
    5746:	3801      	subs	r0, #1
    5748:	f853 0020 	ldr.w	r0, [r3, r0, lsl #2]
    574c:	bd08      	pop	{r3, pc}
    574e:	bf00      	nop
    5750:	10000968 	.word	0x10000968

00005754 <svcThreadTerminate>:
    5754:	b508      	push	{r3, lr}
    5756:	b158      	cbz	r0, 5770 <svcThreadTerminate+0x1c>
    5758:	0783      	lsls	r3, r0, #30
    575a:	d109      	bne.n	5770 <svcThreadTerminate+0x1c>
    575c:	7803      	ldrb	r3, [r0, #0]
    575e:	b93b      	cbnz	r3, 5770 <svcThreadTerminate+0x1c>
    5760:	78c0      	ldrb	r0, [r0, #3]
    5762:	f001 f867 	bl	6834 <rt_tsk_delete>
    5766:	28ff      	cmp	r0, #255	; 0xff
    5768:	bf14      	ite	ne
    576a:	2000      	movne	r0, #0
    576c:	2081      	moveq	r0, #129	; 0x81
    576e:	bd08      	pop	{r3, pc}
    5770:	2080      	movs	r0, #128	; 0x80
    5772:	bd08      	pop	{r3, pc}

00005774 <osThreadCreate>:
    5774:	b510      	push	{r4, lr}
    5776:	f3ef 8405 	mrs	r4, IPSR
    577a:	b974      	cbnz	r4, 579a <osThreadCreate+0x26>
    577c:	f3ef 8414 	mrs	r4, CONTROL
    5780:	07e4      	lsls	r4, r4, #31
    5782:	d402      	bmi.n	578a <osThreadCreate+0x16>
    5784:	4c06      	ldr	r4, [pc, #24]	; (57a0 <osThreadCreate+0x2c>)
    5786:	7824      	ldrb	r4, [r4, #0]
    5788:	b11c      	cbz	r4, 5792 <osThreadCreate+0x1e>
    578a:	f8df c018 	ldr.w	r12, [pc, #24]	; 57a4 <osThreadCreate+0x30>
    578e:	df00      	svc	0
    5790:	bd10      	pop	{r4, pc}
    5792:	e8bd 4010 	ldmia.w	sp!, {r4, lr}
    5796:	f7ff bf9d 	b.w	56d4 <svcThreadCreate>
    579a:	2000      	movs	r0, #0
    579c:	bd10      	pop	{r4, pc}
    579e:	bf00      	nop
    57a0:	100006f1 	.word	0x100006f1
    57a4:	000056d5 	.word	0x000056d5

000057a8 <osThreadTerminate>:
    57a8:	b510      	push	{r4, lr}
    57aa:	f3ef 8405 	mrs	r4, IPSR
    57ae:	b10c      	cbz	r4, 57b4 <osThreadTerminate+0xc>
    57b0:	2082      	movs	r0, #130	; 0x82
    57b2:	bd10      	pop	{r4, pc}
    57b4:	f8df c004 	ldr.w	r12, [pc, #4]	; 57bc <osThreadTerminate+0x14>
    57b8:	df00      	svc	0
    57ba:	bd10      	pop	{r4, pc}
    57bc:	00005755 	.word	0x00005755

000057c0 <svcDelay>:
    57c0:	b508      	push	{r3, lr}
    57c2:	b158      	cbz	r0, 57dc <svcDelay+0x1c>
    57c4:	1c42      	adds	r2, r0, #1
    57c6:	d010      	beq.n	57ea <svcDelay+0x2a>
    57c8:	4a0b      	ldr	r2, [pc, #44]	; (57f8 <svcDelay+0x38>)
    57ca:	4290      	cmp	r0, r2
    57cc:	d807      	bhi.n	57de <svcDelay+0x1e>
    57ce:	f7ff ff0b 	bl	55e8 <rt_ms2tick.part.0>
    57d2:	b280      	uxth	r0, r0
    57d4:	f001 f902 	bl	69dc <rt_dly_wait>
    57d8:	2040      	movs	r0, #64	; 0x40
    57da:	bd08      	pop	{r3, pc}
    57dc:	bd08      	pop	{r3, pc}
    57de:	f64f 70fe 	movw	r0, #65534	; 0xfffe
    57e2:	f001 f8fb 	bl	69dc <rt_dly_wait>
    57e6:	2040      	movs	r0, #64	; 0x40
    57e8:	bd08      	pop	{r3, pc}
    57ea:	f64f 70ff 	movw	r0, #65535	; 0xffff
    57ee:	f001 f8f5 	bl	69dc <rt_dly_wait>
    57f2:	2040      	movs	r0, #64	; 0x40
    57f4:	bd08      	pop	{r3, pc}
    57f6:	bf00      	nop
    57f8:	003d0900 	.word	0x003d0900

000057fc <osDelay>:
    57fc:	b510      	push	{r4, lr}
    57fe:	f3ef 8405 	mrs	r4, IPSR
    5802:	b10c      	cbz	r4, 5808 <osDelay+0xc>
    5804:	2082      	movs	r0, #130	; 0x82
    5806:	bd10      	pop	{r4, pc}
    5808:	f8df c004 	ldr.w	r12, [pc, #4]	; 5810 <osDelay+0x14>
    580c:	df00      	svc	0
    580e:	bd10      	pop	{r4, pc}
    5810:	000057c1 	.word	0x000057c1

00005814 <svcTimerCall>:
    5814:	0783      	lsls	r3, r0, #30
    5816:	d106      	bne.n	5826 <svcTimerCall+0x12>
    5818:	b128      	cbz	r0, 5826 <svcTimerCall+0x12>
    581a:	6901      	ldr	r1, [r0, #16]
    581c:	68c3      	ldr	r3, [r0, #12]
    581e:	680a      	ldr	r2, [r1, #0]
    5820:	4619      	mov	r1, r3
    5822:	4610      	mov	r0, r2
    5824:	4770      	bx	lr
    5826:	2000      	movs	r0, #0
    5828:	2100      	movs	r1, #0
    582a:	4770      	bx	lr

0000582c <sysTimerTick>:
    582c:	e92d 43f8 	stmdb	sp!, {r3, r4, r5, r6, r7, r8, r9, lr}
    5830:	4f17      	ldr	r7, [pc, #92]	; (5890 <sysTimerTick+0x64>)
    5832:	683d      	ldr	r5, [r7, #0]
    5834:	b1d5      	cbz	r5, 586c <sysTimerTick+0x40>
    5836:	892b      	ldrh	r3, [r5, #8]
    5838:	f8df 8058 	ldr.w	r8, [pc, #88]	; 5894 <sysTimerTick+0x68>
    583c:	3b01      	subs	r3, #1
    583e:	b29b      	uxth	r3, r3
    5840:	812b      	strh	r3, [r5, #8]
    5842:	f04f 0901 	mov.w	r9, #1
    5846:	b98b      	cbnz	r3, 586c <sysTimerTick+0x40>
    5848:	682c      	ldr	r4, [r5, #0]
    584a:	f8d8 6000 	ldr.w	r6, [r8]
    584e:	603c      	str	r4, [r7, #0]
    5850:	b116      	cbz	r6, 5858 <sysTimerTick+0x2c>
    5852:	7833      	ldrb	r3, [r6, #0]
    5854:	2b01      	cmp	r3, #1
    5856:	d010      	beq.n	587a <sysTimerTick+0x4e>
    5858:	796b      	ldrb	r3, [r5, #5]
    585a:	2b01      	cmp	r3, #1
    585c:	d008      	beq.n	5870 <sysTimerTick+0x44>
    585e:	f885 9004 	strb.w	r9, [r5, #4]
    5862:	b11c      	cbz	r4, 586c <sysTimerTick+0x40>
    5864:	8923      	ldrh	r3, [r4, #8]
    5866:	4625      	mov	r5, r4
    5868:	2b00      	cmp	r3, #0
    586a:	d0ed      	beq.n	5848 <sysTimerTick+0x1c>
    586c:	e8bd 83f8 	ldmia.w	sp!, {r3, r4, r5, r6, r7, r8, r9, pc}
    5870:	4628      	mov	r0, r5
    5872:	8969      	ldrh	r1, [r5, #10]
    5874:	f7ff fe92 	bl	559c <rt_timer_insert>
    5878:	e7f3      	b.n	5862 <sysTimerTick+0x36>
    587a:	4630      	mov	r0, r6
    587c:	f000 fccc 	bl	6218 <rt_mbx_check>
    5880:	2800      	cmp	r0, #0
    5882:	d0e9      	beq.n	5858 <sysTimerTick+0x2c>
    5884:	4630      	mov	r0, r6
    5886:	4629      	mov	r1, r5
    5888:	f000 fcca 	bl	6220 <isr_mbx_send>
    588c:	e7e4      	b.n	5858 <sysTimerTick+0x2c>
    588e:	bf00      	nop
    5890:	100006f4 	.word	0x100006f4
    5894:	10000a48 	.word	0x10000a48

00005898 <svcMutexCreate>:
    5898:	b510      	push	{r4, lr}
    589a:	b140      	cbz	r0, 58ae <svcMutexCreate+0x16>
    589c:	6804      	ldr	r4, [r0, #0]
    589e:	b134      	cbz	r4, 58ae <svcMutexCreate+0x16>
    58a0:	7823      	ldrb	r3, [r4, #0]
    58a2:	b923      	cbnz	r3, 58ae <svcMutexCreate+0x16>
    58a4:	4620      	mov	r0, r4
    58a6:	f000 fdad 	bl	6404 <rt_mut_init>
    58aa:	4620      	mov	r0, r4
    58ac:	bd10      	pop	{r4, pc}
    58ae:	2080      	movs	r0, #128	; 0x80
    58b0:	f001 f9d6 	bl	6c60 <sysThreadError>
    58b4:	2000      	movs	r0, #0
    58b6:	bd10      	pop	{r4, pc}

000058b8 <svcMutexWait>:
    58b8:	b570      	push	{r4, r5, r6, lr}
    58ba:	f010 0603 	ands.w	r6, r0, #3
    58be:	4604      	mov	r4, r0
    58c0:	460d      	mov	r5, r1
    58c2:	d103      	bne.n	58cc <svcMutexWait+0x14>
    58c4:	b110      	cbz	r0, 58cc <svcMutexWait+0x14>
    58c6:	7803      	ldrb	r3, [r0, #0]
    58c8:	2b03      	cmp	r3, #3
    58ca:	d001      	beq.n	58d0 <svcMutexWait+0x18>
    58cc:	2080      	movs	r0, #128	; 0x80
    58ce:	bd70      	pop	{r4, r5, r6, pc}
    58d0:	1c4b      	adds	r3, r1, #1
    58d2:	d015      	beq.n	5900 <svcMutexWait+0x48>
    58d4:	4b0e      	ldr	r3, [pc, #56]	; (5910 <svcMutexWait+0x58>)
    58d6:	4299      	cmp	r1, r3
    58d8:	d80a      	bhi.n	58f0 <svcMutexWait+0x38>
    58da:	4608      	mov	r0, r1
    58dc:	f7ff fe84 	bl	55e8 <rt_ms2tick.part.0>
    58e0:	b281      	uxth	r1, r0
    58e2:	4620      	mov	r0, r4
    58e4:	f000 fdf6 	bl	64d4 <rt_mut_wait>
    58e8:	2801      	cmp	r0, #1
    58ea:	d004      	beq.n	58f6 <svcMutexWait+0x3e>
    58ec:	2000      	movs	r0, #0
    58ee:	bd70      	pop	{r4, r5, r6, pc}
    58f0:	f64f 71fe 	movw	r1, #65534	; 0xfffe
    58f4:	e7f5      	b.n	58e2 <svcMutexWait+0x2a>
    58f6:	b10d      	cbz	r5, 58fc <svcMutexWait+0x44>
    58f8:	20c1      	movs	r0, #193	; 0xc1
    58fa:	bd70      	pop	{r4, r5, r6, pc}
    58fc:	2081      	movs	r0, #129	; 0x81
    58fe:	bd70      	pop	{r4, r5, r6, pc}
    5900:	f64f 71ff 	movw	r1, #65535	; 0xffff
    5904:	f000 fde6 	bl	64d4 <rt_mut_wait>
    5908:	2801      	cmp	r0, #1
    590a:	d1ef      	bne.n	58ec <svcMutexWait+0x34>
    590c:	e7f4      	b.n	58f8 <svcMutexWait+0x40>
    590e:	bf00      	nop
    5910:	003d0900 	.word	0x003d0900

00005914 <svcMutexRelease>:
    5914:	0782      	lsls	r2, r0, #30
    5916:	b508      	push	{r3, lr}
    5918:	d103      	bne.n	5922 <svcMutexRelease+0xe>
    591a:	b110      	cbz	r0, 5922 <svcMutexRelease+0xe>
    591c:	7803      	ldrb	r3, [r0, #0]
    591e:	2b03      	cmp	r3, #3
    5920:	d001      	beq.n	5926 <svcMutexRelease+0x12>
    5922:	2080      	movs	r0, #128	; 0x80
    5924:	bd08      	pop	{r3, pc}
    5926:	f000 fd75 	bl	6414 <rt_mut_release>
    592a:	28ff      	cmp	r0, #255	; 0xff
    592c:	bf14      	ite	ne
    592e:	2000      	movne	r0, #0
    5930:	2081      	moveq	r0, #129	; 0x81
    5932:	bd08      	pop	{r3, pc}

00005934 <osMutexCreate>:
    5934:	b510      	push	{r4, lr}
    5936:	f3ef 8405 	mrs	r4, IPSR
    593a:	b974      	cbnz	r4, 595a <osMutexCreate+0x26>
    593c:	f3ef 8414 	mrs	r4, CONTROL
    5940:	07e4      	lsls	r4, r4, #31
    5942:	d402      	bmi.n	594a <osMutexCreate+0x16>
    5944:	4c06      	ldr	r4, [pc, #24]	; (5960 <osMutexCreate+0x2c>)
    5946:	7824      	ldrb	r4, [r4, #0]
    5948:	b11c      	cbz	r4, 5952 <osMutexCreate+0x1e>
    594a:	f8df c018 	ldr.w	r12, [pc, #24]	; 5964 <osMutexCreate+0x30>
    594e:	df00      	svc	0
    5950:	bd10      	pop	{r4, pc}
    5952:	e8bd 4010 	ldmia.w	sp!, {r4, lr}
    5956:	f7ff bf9f 	b.w	5898 <svcMutexCreate>
    595a:	2000      	movs	r0, #0
    595c:	bd10      	pop	{r4, pc}
    595e:	bf00      	nop
    5960:	100006f1 	.word	0x100006f1
    5964:	00005899 	.word	0x00005899

00005968 <osMutexWait>:
    5968:	b510      	push	{r4, lr}
    596a:	f3ef 8405 	mrs	r4, IPSR
    596e:	b10c      	cbz	r4, 5974 <osMutexWait+0xc>
    5970:	2082      	movs	r0, #130	; 0x82
    5972:	bd10      	pop	{r4, pc}
    5974:	f8df c004 	ldr.w	r12, [pc, #4]	; 597c <osMutexWait+0x14>
    5978:	df00      	svc	0
    597a:	bd10      	pop	{r4, pc}
    597c:	000058b9 	.word	0x000058b9

00005980 <osMutexRelease>:
    5980:	b510      	push	{r4, lr}
    5982:	f3ef 8405 	mrs	r4, IPSR
    5986:	b10c      	cbz	r4, 598c <osMutexRelease+0xc>
    5988:	2082      	movs	r0, #130	; 0x82
    598a:	bd10      	pop	{r4, pc}
    598c:	f8df c004 	ldr.w	r12, [pc, #4]	; 5994 <osMutexRelease+0x14>
    5990:	df00      	svc	0
    5992:	bd10      	pop	{r4, pc}
    5994:	00005915 	.word	0x00005915

00005998 <svcMessageCreate>:
    5998:	b510      	push	{r4, lr}
    599a:	4604      	mov	r4, r0
    599c:	b160      	cbz	r0, 59b8 <svcMessageCreate+0x20>
    599e:	6801      	ldr	r1, [r0, #0]
    59a0:	b151      	cbz	r1, 59b8 <svcMessageCreate+0x20>
    59a2:	6840      	ldr	r0, [r0, #4]
    59a4:	b140      	cbz	r0, 59b8 <svcMessageCreate+0x20>
    59a6:	7803      	ldrb	r3, [r0, #0]
    59a8:	b933      	cbnz	r3, 59b8 <svcMessageCreate+0x20>
    59aa:	3104      	adds	r1, #4
    59ac:	0089      	lsls	r1, r1, #2
    59ae:	b289      	uxth	r1, r1
    59b0:	f000 fb7e 	bl	60b0 <rt_mbx_init>
    59b4:	6860      	ldr	r0, [r4, #4]
    59b6:	bd10      	pop	{r4, pc}
    59b8:	2080      	movs	r0, #128	; 0x80
    59ba:	f001 f951 	bl	6c60 <sysThreadError>
    59be:	2000      	movs	r0, #0
    59c0:	bd10      	pop	{r4, pc}
    59c2:	bf00      	nop

000059c4 <svcKernelStart>:
    59c4:	b538      	push	{r3, r4, r5, lr}
    59c6:	4d11      	ldr	r5, [pc, #68]	; (5a0c <svcKernelStart+0x48>)
    59c8:	782c      	ldrb	r4, [r5, #0]
    59ca:	b9e4      	cbnz	r4, 5a06 <svcKernelStart+0x42>
    59cc:	4621      	mov	r1, r4
    59ce:	4810      	ldr	r0, [pc, #64]	; (5a10 <svcKernelStart+0x4c>)
    59d0:	f7ff ffe2 	bl	5998 <svcMessageCreate>
    59d4:	4b0f      	ldr	r3, [pc, #60]	; (5a14 <svcKernelStart+0x50>)
    59d6:	4621      	mov	r1, r4
    59d8:	6018      	str	r0, [r3, #0]
    59da:	480f      	ldr	r0, [pc, #60]	; (5a18 <svcKernelStart+0x54>)
    59dc:	f7ff fe7a 	bl	56d4 <svcThreadCreate>
    59e0:	4b0e      	ldr	r3, [pc, #56]	; (5a1c <svcKernelStart+0x58>)
    59e2:	4621      	mov	r1, r4
    59e4:	6018      	str	r0, [r3, #0]
    59e6:	4620      	mov	r0, r4
    59e8:	f000 fee8 	bl	67bc <rt_tsk_prio>
    59ec:	4b0c      	ldr	r3, [pc, #48]	; (5a20 <svcKernelStart+0x5c>)
    59ee:	681b      	ldr	r3, [r3, #0]
    59f0:	6a5b      	ldr	r3, [r3, #36]	; 0x24
    59f2:	3320      	adds	r3, #32
    59f4:	f383 8809 	msr	PSP, r3
    59f8:	4b09      	ldr	r3, [pc, #36]	; (5a20 <svcKernelStart+0x5c>)
    59fa:	2200      	movs	r2, #0
    59fc:	601a      	str	r2, [r3, #0]
    59fe:	f000 ffcf 	bl	69a0 <rt_sys_start>
    5a02:	2301      	movs	r3, #1
    5a04:	702b      	strb	r3, [r5, #0]
    5a06:	2000      	movs	r0, #0
    5a08:	bd38      	pop	{r3, r4, r5, pc}
    5a0a:	bf00      	nop
    5a0c:	100006f1 	.word	0x100006f1
    5a10:	10000108 	.word	0x10000108
    5a14:	10000a48 	.word	0x10000a48
    5a18:	10000110 	.word	0x10000110
    5a1c:	1000124c 	.word	0x1000124c
    5a20:	1000072c 	.word	0x1000072c

00005a24 <svcMessagePut>:
    5a24:	b570      	push	{r4, r5, r6, lr}
    5a26:	4615      	mov	r5, r2
    5a28:	460e      	mov	r6, r1
    5a2a:	4604      	mov	r4, r0
    5a2c:	b110      	cbz	r0, 5a34 <svcMessagePut+0x10>
    5a2e:	7803      	ldrb	r3, [r0, #0]
    5a30:	2b01      	cmp	r3, #1
    5a32:	d001      	beq.n	5a38 <svcMessagePut+0x14>
    5a34:	2080      	movs	r0, #128	; 0x80
    5a36:	bd70      	pop	{r4, r5, r6, pc}
    5a38:	1c53      	adds	r3, r2, #1
    5a3a:	d016      	beq.n	5a6a <svcMessagePut+0x46>
    5a3c:	4b0e      	ldr	r3, [pc, #56]	; (5a78 <svcMessagePut+0x54>)
    5a3e:	429a      	cmp	r2, r3
    5a40:	d80b      	bhi.n	5a5a <svcMessagePut+0x36>
    5a42:	4610      	mov	r0, r2
    5a44:	f7ff fdd0 	bl	55e8 <rt_ms2tick.part.0>
    5a48:	b282      	uxth	r2, r0
    5a4a:	4620      	mov	r0, r4
    5a4c:	4631      	mov	r1, r6
    5a4e:	f000 fb3d 	bl	60cc <rt_mbx_send>
    5a52:	2801      	cmp	r0, #1
    5a54:	d004      	beq.n	5a60 <svcMessagePut+0x3c>
    5a56:	2000      	movs	r0, #0
    5a58:	bd70      	pop	{r4, r5, r6, pc}
    5a5a:	f64f 72fe 	movw	r2, #65534	; 0xfffe
    5a5e:	e7f4      	b.n	5a4a <svcMessagePut+0x26>
    5a60:	b10d      	cbz	r5, 5a66 <svcMessagePut+0x42>
    5a62:	20c1      	movs	r0, #193	; 0xc1
    5a64:	bd70      	pop	{r4, r5, r6, pc}
    5a66:	2081      	movs	r0, #129	; 0x81
    5a68:	bd70      	pop	{r4, r5, r6, pc}
    5a6a:	f64f 72ff 	movw	r2, #65535	; 0xffff
    5a6e:	f000 fb2d 	bl	60cc <rt_mbx_send>
    5a72:	2801      	cmp	r0, #1
    5a74:	d1ef      	bne.n	5a56 <svcMessagePut+0x32>
    5a76:	e7f4      	b.n	5a62 <svcMessagePut+0x3e>
    5a78:	003d0900 	.word	0x003d0900

00005a7c <svcMessageGet>:
    5a7c:	e92d 4ff0 	stmdb	sp!, {r4, r5, r6, r7, r8, r9, r10, r11, lr}
    5a80:	460c      	mov	r4, r1
    5a82:	b085      	sub	sp, #20
    5a84:	4680      	mov	r8, r0
    5a86:	b348      	cbz	r0, 5adc <svcMessageGet+0x60>
    5a88:	7803      	ldrb	r3, [r0, #0]
    5a8a:	2b01      	cmp	r3, #1
    5a8c:	d00a      	beq.n	5aa4 <svcMessageGet+0x28>
    5a8e:	2500      	movs	r5, #0
    5a90:	2480      	movs	r4, #128	; 0x80
    5a92:	462e      	mov	r6, r5
    5a94:	462f      	mov	r7, r5
    5a96:	463b      	mov	r3, r7
    5a98:	4620      	mov	r0, r4
    5a9a:	4629      	mov	r1, r5
    5a9c:	4632      	mov	r2, r6
    5a9e:	b005      	add	sp, #20
    5aa0:	e8bd 8ff0 	ldmia.w	sp!, {r4, r5, r6, r7, r8, r9, r10, r11, pc}
    5aa4:	1c4b      	adds	r3, r1, #1
    5aa6:	d024      	beq.n	5af2 <svcMessageGet+0x76>
    5aa8:	4b16      	ldr	r3, [pc, #88]	; (5b04 <svcMessageGet+0x88>)
    5aaa:	4299      	cmp	r1, r3
    5aac:	d911      	bls.n	5ad2 <svcMessageGet+0x56>
    5aae:	f64f 72fe 	movw	r2, #65534	; 0xfffe
    5ab2:	4640      	mov	r0, r8
    5ab4:	a902      	add	r1, sp, #8
    5ab6:	f000 fb59 	bl	616c <rt_mbx_wait>
    5aba:	2801      	cmp	r0, #1
    5abc:	d013      	beq.n	5ae6 <svcMessageGet+0x6a>
    5abe:	2000      	movs	r0, #0
    5ac0:	4602      	mov	r2, r0
    5ac2:	4603      	mov	r3, r0
    5ac4:	2010      	movs	r0, #16
    5ac6:	9902      	ldr	r1, [sp, #8]
    5ac8:	4604      	mov	r4, r0
    5aca:	460d      	mov	r5, r1
    5acc:	4616      	mov	r6, r2
    5ace:	461f      	mov	r7, r3
    5ad0:	e7e1      	b.n	5a96 <svcMessageGet+0x1a>
    5ad2:	4608      	mov	r0, r1
    5ad4:	f7ff fd88 	bl	55e8 <rt_ms2tick.part.0>
    5ad8:	b282      	uxth	r2, r0
    5ada:	e7ea      	b.n	5ab2 <svcMessageGet+0x36>
    5adc:	2480      	movs	r4, #128	; 0x80
    5ade:	4605      	mov	r5, r0
    5ae0:	4606      	mov	r6, r0
    5ae2:	4607      	mov	r7, r0
    5ae4:	e7d7      	b.n	5a96 <svcMessageGet+0x1a>
    5ae6:	b95c      	cbnz	r4, 5b00 <svcMessageGet+0x84>
    5ae8:	2000      	movs	r0, #0
    5aea:	4602      	mov	r2, r0
    5aec:	4603      	mov	r3, r0
    5aee:	4620      	mov	r0, r4
    5af0:	e7e9      	b.n	5ac6 <svcMessageGet+0x4a>
    5af2:	a902      	add	r1, sp, #8
    5af4:	f64f 72ff 	movw	r2, #65535	; 0xffff
    5af8:	f000 fb38 	bl	616c <rt_mbx_wait>
    5afc:	2801      	cmp	r0, #1
    5afe:	d1de      	bne.n	5abe <svcMessageGet+0x42>
    5b00:	2440      	movs	r4, #64	; 0x40
    5b02:	e7f1      	b.n	5ae8 <svcMessageGet+0x6c>
    5b04:	003d0900 	.word	0x003d0900

00005b08 <osMessageCreate>:
    5b08:	b510      	push	{r4, lr}
    5b0a:	f3ef 8405 	mrs	r4, IPSR
    5b0e:	b974      	cbnz	r4, 5b2e <osMessageCreate+0x26>
    5b10:	f3ef 8414 	mrs	r4, CONTROL
    5b14:	07e4      	lsls	r4, r4, #31
    5b16:	d402      	bmi.n	5b1e <osMessageCreate+0x16>
    5b18:	4c06      	ldr	r4, [pc, #24]	; (5b34 <osMessageCreate+0x2c>)
    5b1a:	7824      	ldrb	r4, [r4, #0]
    5b1c:	b11c      	cbz	r4, 5b26 <osMessageCreate+0x1e>
    5b1e:	f8df c018 	ldr.w	r12, [pc, #24]	; 5b38 <osMessageCreate+0x30>
    5b22:	df00      	svc	0
    5b24:	bd10      	pop	{r4, pc}
    5b26:	e8bd 4010 	ldmia.w	sp!, {r4, lr}
    5b2a:	f7ff bf35 	b.w	5998 <svcMessageCreate>
    5b2e:	2000      	movs	r0, #0
    5b30:	bd10      	pop	{r4, pc}
    5b32:	bf00      	nop
    5b34:	100006f1 	.word	0x100006f1
    5b38:	00005999 	.word	0x00005999

00005b3c <osMessagePut>:
    5b3c:	b510      	push	{r4, lr}
    5b3e:	4604      	mov	r4, r0
    5b40:	b082      	sub	sp, #8
    5b42:	f3ef 8005 	mrs	r0, IPSR
    5b46:	b928      	cbnz	r0, 5b54 <osMessagePut+0x18>
    5b48:	4620      	mov	r0, r4
    5b4a:	f8df c038 	ldr.w	r12, [pc, #56]	; 5b84 <osMessagePut+0x48>
    5b4e:	df00      	svc	0
    5b50:	b002      	add	sp, #8
    5b52:	bd10      	pop	{r4, pc}
    5b54:	b11c      	cbz	r4, 5b5e <osMessagePut+0x22>
    5b56:	b912      	cbnz	r2, 5b5e <osMessagePut+0x22>
    5b58:	7823      	ldrb	r3, [r4, #0]
    5b5a:	2b01      	cmp	r3, #1
    5b5c:	d002      	beq.n	5b64 <osMessagePut+0x28>
    5b5e:	2080      	movs	r0, #128	; 0x80
    5b60:	b002      	add	sp, #8
    5b62:	bd10      	pop	{r4, pc}
    5b64:	4620      	mov	r0, r4
    5b66:	9101      	str	r1, [sp, #4]
    5b68:	9200      	str	r2, [sp, #0]
    5b6a:	f000 fb55 	bl	6218 <rt_mbx_check>
    5b6e:	9901      	ldr	r1, [sp, #4]
    5b70:	b908      	cbnz	r0, 5b76 <osMessagePut+0x3a>
    5b72:	2081      	movs	r0, #129	; 0x81
    5b74:	e7ec      	b.n	5b50 <osMessagePut+0x14>
    5b76:	4620      	mov	r0, r4
    5b78:	f000 fb52 	bl	6220 <isr_mbx_send>
    5b7c:	9a00      	ldr	r2, [sp, #0]
    5b7e:	4610      	mov	r0, r2
    5b80:	e7e6      	b.n	5b50 <osMessagePut+0x14>
    5b82:	0000      	.short	0x0000
    5b84:	00005a25 	.word	0x00005a25

00005b88 <osMessageGet>:
    5b88:	b570      	push	{r4, r5, r6, lr}
    5b8a:	4604      	mov	r4, r0
    5b8c:	b084      	sub	sp, #16
    5b8e:	4616      	mov	r6, r2
    5b90:	f3ef 8505 	mrs	r5, IPSR
    5b94:	b94d      	cbnz	r5, 5baa <osMessageGet+0x22>
    5b96:	4608      	mov	r0, r1
    5b98:	4611      	mov	r1, r2
    5b9a:	f8df c050 	ldr.w	r12, [pc, #80]	; 5bec <osMessageGet+0x64>
    5b9e:	df00      	svc	0
    5ba0:	e884 0007 	stmia.w	r4, {r0, r1, r2}
    5ba4:	4620      	mov	r0, r4
    5ba6:	b004      	add	sp, #16
    5ba8:	bd70      	pop	{r4, r5, r6, pc}
    5baa:	b119      	cbz	r1, 5bb4 <osMessageGet+0x2c>
    5bac:	b912      	cbnz	r2, 5bb4 <osMessageGet+0x2c>
    5bae:	780b      	ldrb	r3, [r1, #0]
    5bb0:	2b01      	cmp	r3, #1
    5bb2:	d00a      	beq.n	5bca <osMessageGet+0x42>
    5bb4:	ab04      	add	r3, sp, #16
    5bb6:	2280      	movs	r2, #128	; 0x80
    5bb8:	f843 2d0c 	str.w	r2, [r3, #-12]!
    5bbc:	e893 0007 	ldmia.w	r3, {r0, r1, r2}
    5bc0:	e884 0007 	stmia.w	r4, {r0, r1, r2}
    5bc4:	4620      	mov	r0, r4
    5bc6:	b004      	add	sp, #16
    5bc8:	bd70      	pop	{r4, r5, r6, pc}
    5bca:	4608      	mov	r0, r1
    5bcc:	a902      	add	r1, sp, #8
    5bce:	f000 fb2f 	bl	6230 <isr_mbx_receive>
    5bd2:	2804      	cmp	r0, #4
    5bd4:	bf08      	it	eq
    5bd6:	2310      	moveq	r3, #16
    5bd8:	ad01      	add	r5, sp, #4
    5bda:	bf14      	ite	ne
    5bdc:	9601      	strne	r6, [sp, #4]
    5bde:	9301      	streq	r3, [sp, #4]
    5be0:	e895 0007 	ldmia.w	r5, {r0, r1, r2}
    5be4:	e884 0007 	stmia.w	r4, {r0, r1, r2}
    5be8:	e7dc      	b.n	5ba4 <osMessageGet+0x1c>
    5bea:	0000      	.short	0x0000
    5bec:	00005a7d 	.word	0x00005a7d

00005bf0 <osTimerThread>:
    5bf0:	b500      	push	{lr}
    5bf2:	4c0a      	ldr	r4, [pc, #40]	; (5c1c <osTimerThread+0x2c>)
    5bf4:	b085      	sub	sp, #20
    5bf6:	a801      	add	r0, sp, #4
    5bf8:	6821      	ldr	r1, [r4, #0]
    5bfa:	f04f 32ff 	mov.w	r2, #4294967295	; 0xffffffff
    5bfe:	f7ff ffc3 	bl	5b88 <osMessageGet>
    5c02:	9801      	ldr	r0, [sp, #4]
    5c04:	2810      	cmp	r0, #16
    5c06:	d1f6      	bne.n	5bf6 <osTimerThread+0x6>
    5c08:	9802      	ldr	r0, [sp, #8]
    5c0a:	f8df c014 	ldr.w	r12, [pc, #20]	; 5c20 <osTimerThread+0x30>
    5c0e:	df00      	svc	0
    5c10:	4603      	mov	r3, r0
    5c12:	2800      	cmp	r0, #0
    5c14:	d0ef      	beq.n	5bf6 <osTimerThread+0x6>
    5c16:	4608      	mov	r0, r1
    5c18:	4798      	blx	r3
    5c1a:	e7ec      	b.n	5bf6 <osTimerThread+0x6>
    5c1c:	10000a48 	.word	0x10000a48
    5c20:	00005815 	.word	0x00005815

00005c24 <svcMailCreate>:
    5c24:	b538      	push	{r3, r4, r5, lr}
    5c26:	4604      	mov	r4, r0
    5c28:	b1e0      	cbz	r0, 5c64 <svcMailCreate+0x40>
    5c2a:	6801      	ldr	r1, [r0, #0]
    5c2c:	b1d1      	cbz	r1, 5c64 <svcMailCreate+0x40>
    5c2e:	6842      	ldr	r2, [r0, #4]
    5c30:	b1c2      	cbz	r2, 5c64 <svcMailCreate+0x40>
    5c32:	6883      	ldr	r3, [r0, #8]
    5c34:	b1b3      	cbz	r3, 5c64 <svcMailCreate+0x40>
    5c36:	6858      	ldr	r0, [r3, #4]
    5c38:	681d      	ldr	r5, [r3, #0]
    5c3a:	b198      	cbz	r0, 5c64 <svcMailCreate+0x40>
    5c3c:	b195      	cbz	r5, 5c64 <svcMailCreate+0x40>
    5c3e:	782b      	ldrb	r3, [r5, #0]
    5c40:	b983      	cbnz	r3, 5c64 <svcMailCreate+0x40>
    5c42:	3203      	adds	r2, #3
    5c44:	f022 0203 	bic.w	r2, r2, #3
    5c48:	fb01 f102 	mul.w	r1, r1, r2
    5c4c:	310c      	adds	r1, #12
    5c4e:	f000 fb89 	bl	6364 <_init_box>
    5c52:	6821      	ldr	r1, [r4, #0]
    5c54:	4628      	mov	r0, r5
    5c56:	3104      	adds	r1, #4
    5c58:	0089      	lsls	r1, r1, #2
    5c5a:	b289      	uxth	r1, r1
    5c5c:	f000 fa28 	bl	60b0 <rt_mbx_init>
    5c60:	68a0      	ldr	r0, [r4, #8]
    5c62:	bd38      	pop	{r3, r4, r5, pc}
    5c64:	2080      	movs	r0, #128	; 0x80
    5c66:	f000 fffb 	bl	6c60 <sysThreadError>
    5c6a:	2000      	movs	r0, #0
    5c6c:	bd38      	pop	{r3, r4, r5, pc}
    5c6e:	bf00      	nop

00005c70 <sysMailAlloc>:
    5c70:	b5f8      	push	{r3, r4, r5, r6, r7, lr}
    5c72:	460e      	mov	r6, r1
    5c74:	461f      	mov	r7, r3
    5c76:	b348      	cbz	r0, 5ccc <sysMailAlloc+0x5c>
    5c78:	6844      	ldr	r4, [r0, #4]
    5c7a:	6805      	ldr	r5, [r0, #0]
    5c7c:	b334      	cbz	r4, 5ccc <sysMailAlloc+0x5c>
    5c7e:	b32d      	cbz	r5, 5ccc <sysMailAlloc+0x5c>
    5c80:	b102      	cbz	r2, 5c84 <sysMailAlloc+0x14>
    5c82:	bb19      	cbnz	r1, 5ccc <sysMailAlloc+0x5c>
    5c84:	4620      	mov	r0, r4
    5c86:	f000 fb99 	bl	63bc <rt_alloc_box>
    5c8a:	b14f      	cbz	r7, 5ca0 <sysMailAlloc+0x30>
    5c8c:	b150      	cbz	r0, 5ca4 <sysMailAlloc+0x34>
    5c8e:	68a3      	ldr	r3, [r4, #8]
    5c90:	b13b      	cbz	r3, 5ca2 <sysMailAlloc+0x32>
    5c92:	4602      	mov	r2, r0
    5c94:	2100      	movs	r1, #0
    5c96:	3b04      	subs	r3, #4
    5c98:	f842 1b04 	str.w	r1, [r2], #4
    5c9c:	d1fb      	bne.n	5c96 <sysMailAlloc+0x26>
    5c9e:	bdf8      	pop	{r3, r4, r5, r6, r7, pc}
    5ca0:	b100      	cbz	r0, 5ca4 <sysMailAlloc+0x34>
    5ca2:	bdf8      	pop	{r3, r4, r5, r6, r7, pc}
    5ca4:	b196      	cbz	r6, 5ccc <sysMailAlloc+0x5c>
    5ca6:	686b      	ldr	r3, [r5, #4]
    5ca8:	b193      	cbz	r3, 5cd0 <sysMailAlloc+0x60>
    5caa:	4b10      	ldr	r3, [pc, #64]	; (5cec <sysMailAlloc+0x7c>)
    5cac:	4628      	mov	r0, r5
    5cae:	6819      	ldr	r1, [r3, #0]
    5cb0:	f000 f8da 	bl	5e68 <rt_put_prio>
    5cb4:	1c73      	adds	r3, r6, #1
    5cb6:	d016      	beq.n	5ce6 <sysMailAlloc+0x76>
    5cb8:	4b0d      	ldr	r3, [pc, #52]	; (5cf0 <sysMailAlloc+0x80>)
    5cba:	429e      	cmp	r6, r3
    5cbc:	d810      	bhi.n	5ce0 <sysMailAlloc+0x70>
    5cbe:	4630      	mov	r0, r6
    5cc0:	f7ff fc92 	bl	55e8 <rt_ms2tick.part.0>
    5cc4:	b280      	uxth	r0, r0
    5cc6:	2108      	movs	r1, #8
    5cc8:	f000 fd56 	bl	6778 <rt_block>
    5ccc:	2000      	movs	r0, #0
    5cce:	bdf8      	pop	{r3, r4, r5, r6, r7, pc}
    5cd0:	4a06      	ldr	r2, [pc, #24]	; (5cec <sysMailAlloc+0x7c>)
    5cd2:	2103      	movs	r1, #3
    5cd4:	6812      	ldr	r2, [r2, #0]
    5cd6:	606a      	str	r2, [r5, #4]
    5cd8:	6053      	str	r3, [r2, #4]
    5cda:	6095      	str	r5, [r2, #8]
    5cdc:	7069      	strb	r1, [r5, #1]
    5cde:	e7e9      	b.n	5cb4 <sysMailAlloc+0x44>
    5ce0:	f64f 70fe 	movw	r0, #65534	; 0xfffe
    5ce4:	e7ef      	b.n	5cc6 <sysMailAlloc+0x56>
    5ce6:	f64f 70ff 	movw	r0, #65535	; 0xffff
    5cea:	e7ec      	b.n	5cc6 <sysMailAlloc+0x56>
    5cec:	1000072c 	.word	0x1000072c
    5cf0:	003d0900 	.word	0x003d0900

00005cf4 <sysMailFree>:
    5cf4:	b5f8      	push	{r3, r4, r5, r6, r7, lr}
    5cf6:	4616      	mov	r6, r2
    5cf8:	b150      	cbz	r0, 5d10 <sysMailFree+0x1c>
    5cfa:	e890 0030 	ldmia.w	r0, {r4, r5}
    5cfe:	b13c      	cbz	r4, 5d10 <sysMailFree+0x1c>
    5d00:	b135      	cbz	r5, 5d10 <sysMailFree+0x1c>
    5d02:	4628      	mov	r0, r5
    5d04:	f000 fb68 	bl	63d8 <rt_free_box>
    5d08:	4607      	mov	r7, r0
    5d0a:	b118      	cbz	r0, 5d14 <sysMailFree+0x20>
    5d0c:	2086      	movs	r0, #134	; 0x86
    5d0e:	bdf8      	pop	{r3, r4, r5, r6, r7, pc}
    5d10:	2080      	movs	r0, #128	; 0x80
    5d12:	bdf8      	pop	{r3, r4, r5, r6, r7, pc}
    5d14:	7863      	ldrb	r3, [r4, #1]
    5d16:	2b03      	cmp	r3, #3
    5d18:	d001      	beq.n	5d1e <sysMailFree+0x2a>
    5d1a:	2000      	movs	r0, #0
    5d1c:	bdf8      	pop	{r3, r4, r5, r6, r7, pc}
    5d1e:	b9b6      	cbnz	r6, 5d4e <sysMailFree+0x5a>
    5d20:	4628      	mov	r0, r5
    5d22:	f000 fb4b 	bl	63bc <rt_alloc_box>
    5d26:	4606      	mov	r6, r0
    5d28:	2800      	cmp	r0, #0
    5d2a:	d0f6      	beq.n	5d1a <sysMailFree+0x26>
    5d2c:	4620      	mov	r0, r4
    5d2e:	f000 f8c5 	bl	5ebc <rt_get_first>
    5d32:	6863      	ldr	r3, [r4, #4]
    5d34:	4605      	mov	r5, r0
    5d36:	b193      	cbz	r3, 5d5e <sysMailFree+0x6a>
    5d38:	4631      	mov	r1, r6
    5d3a:	4628      	mov	r0, r5
    5d3c:	f000 ff84 	bl	6c48 <rt_ret_val>
    5d40:	4628      	mov	r0, r5
    5d42:	f000 f97f 	bl	6044 <rt_rmv_dly>
    5d46:	4628      	mov	r0, r5
    5d48:	f000 fcf4 	bl	6734 <rt_dispatch>
    5d4c:	e7e5      	b.n	5d1a <sysMailFree+0x26>
    5d4e:	4620      	mov	r0, r4
    5d50:	4629      	mov	r1, r5
    5d52:	f000 f98b 	bl	606c <rt_psq_enq>
    5d56:	f000 fc09 	bl	656c <rt_psh_req>
    5d5a:	4638      	mov	r0, r7
    5d5c:	bdf8      	pop	{r3, r4, r5, r6, r7, pc}
    5d5e:	7063      	strb	r3, [r4, #1]
    5d60:	e7ea      	b.n	5d38 <sysMailFree+0x44>
    5d62:	bf00      	nop

00005d64 <osMailCreate>:
    5d64:	b510      	push	{r4, lr}
    5d66:	f3ef 8405 	mrs	r4, IPSR
    5d6a:	b974      	cbnz	r4, 5d8a <osMailCreate+0x26>
    5d6c:	f3ef 8414 	mrs	r4, CONTROL
    5d70:	07e4      	lsls	r4, r4, #31
    5d72:	d402      	bmi.n	5d7a <osMailCreate+0x16>
    5d74:	4c06      	ldr	r4, [pc, #24]	; (5d90 <osMailCreate+0x2c>)
    5d76:	7824      	ldrb	r4, [r4, #0]
    5d78:	b11c      	cbz	r4, 5d82 <osMailCreate+0x1e>
    5d7a:	f8df c018 	ldr.w	r12, [pc, #24]	; 5d94 <osMailCreate+0x30>
    5d7e:	df00      	svc	0
    5d80:	bd10      	pop	{r4, pc}
    5d82:	e8bd 4010 	ldmia.w	sp!, {r4, lr}
    5d86:	f7ff bf4d 	b.w	5c24 <svcMailCreate>
    5d8a:	2000      	movs	r0, #0
    5d8c:	bd10      	pop	{r4, pc}
    5d8e:	bf00      	nop
    5d90:	100006f1 	.word	0x100006f1
    5d94:	00005c25 	.word	0x00005c25

00005d98 <osMailAlloc>:
    5d98:	b500      	push	{lr}
    5d9a:	f3ef 8205 	mrs	r2, IPSR
    5d9e:	b92a      	cbnz	r2, 5dac <osMailAlloc+0x14>
    5da0:	4613      	mov	r3, r2
    5da2:	f8df c014 	ldr.w	r12, [pc, #20]	; 5db8 <osMailAlloc+0x20>
    5da6:	df00      	svc	0
    5da8:	f85d fb04 	ldr.w	pc, [sp], #4
    5dac:	2201      	movs	r2, #1
    5dae:	2300      	movs	r3, #0
    5db0:	f85d eb04 	ldr.w	lr, [sp], #4
    5db4:	f7ff bf5c 	b.w	5c70 <sysMailAlloc>
    5db8:	00005c71 	.word	0x00005c71

00005dbc <osMailFree>:
    5dbc:	b500      	push	{lr}
    5dbe:	f3ef 8205 	mrs	r2, IPSR
    5dc2:	b922      	cbnz	r2, 5dce <osMailFree+0x12>
    5dc4:	f8df c010 	ldr.w	r12, [pc, #16]	; 5dd8 <osMailFree+0x1c>
    5dc8:	df00      	svc	0
    5dca:	f85d fb04 	ldr.w	pc, [sp], #4
    5dce:	2201      	movs	r2, #1
    5dd0:	f85d eb04 	ldr.w	lr, [sp], #4
    5dd4:	f7ff bf8e 	b.w	5cf4 <sysMailFree>
    5dd8:	00005cf5 	.word	0x00005cf5

00005ddc <osMailPut>:
    5ddc:	b130      	cbz	r0, 5dec <osMailPut+0x10>
    5dde:	b119      	cbz	r1, 5de8 <osMailPut+0xc>
    5de0:	6800      	ldr	r0, [r0, #0]
    5de2:	2200      	movs	r2, #0
    5de4:	f7ff beaa 	b.w	5b3c <osMessagePut>
    5de8:	2086      	movs	r0, #134	; 0x86
    5dea:	4770      	bx	lr
    5dec:	2080      	movs	r0, #128	; 0x80
    5dee:	4770      	bx	lr

00005df0 <osMailGet>:
    5df0:	b510      	push	{r4, lr}
    5df2:	4604      	mov	r4, r0
    5df4:	b149      	cbz	r1, 5e0a <osMailGet+0x1a>
    5df6:	6809      	ldr	r1, [r1, #0]
    5df8:	f7ff fec6 	bl	5b88 <osMessageGet>
    5dfc:	6823      	ldr	r3, [r4, #0]
    5dfe:	4620      	mov	r0, r4
    5e00:	2b10      	cmp	r3, #16
    5e02:	bf08      	it	eq
    5e04:	2320      	moveq	r3, #32
    5e06:	6023      	str	r3, [r4, #0]
    5e08:	bd10      	pop	{r4, pc}
    5e0a:	2380      	movs	r3, #128	; 0x80
    5e0c:	6003      	str	r3, [r0, #0]
    5e0e:	4620      	mov	r0, r4
    5e10:	bd10      	pop	{r4, pc}
    5e12:	bf00      	nop

00005e14 <rt_evt_psh>:
    5e14:	b510      	push	{r4, lr}
    5e16:	8b02      	ldrh	r2, [r0, #24]
    5e18:	7843      	ldrb	r3, [r0, #1]
    5e1a:	4311      	orrs	r1, r2
    5e1c:	2b06      	cmp	r3, #6
    5e1e:	4604      	mov	r4, r0
    5e20:	8301      	strh	r1, [r0, #24]
    5e22:	8b42      	ldrh	r2, [r0, #26]
    5e24:	d019      	beq.n	5e5a <rt_evt_psh+0x46>
    5e26:	2b05      	cmp	r3, #5
    5e28:	d000      	beq.n	5e2c <rt_evt_psh+0x18>
    5e2a:	bd10      	pop	{r4, pc}
    5e2c:	ea11 0302 	ands.w	r3, r1, r2
    5e30:	d0fb      	beq.n	5e2a <rt_evt_psh+0x16>
    5e32:	8343      	strh	r3, [r0, #26]
    5e34:	ea21 0102 	bic.w	r1, r1, r2
    5e38:	8321      	strh	r1, [r4, #24]
    5e3a:	4620      	mov	r0, r4
    5e3c:	f000 f902 	bl	6044 <rt_rmv_dly>
    5e40:	2301      	movs	r3, #1
    5e42:	4620      	mov	r0, r4
    5e44:	7063      	strb	r3, [r4, #1]
    5e46:	2108      	movs	r1, #8
    5e48:	8b62      	ldrh	r2, [r4, #26]
    5e4a:	f000 ff01 	bl	6c50 <rt_ret_val2>
    5e4e:	4621      	mov	r1, r4
    5e50:	4804      	ldr	r0, [pc, #16]	; (5e64 <rt_evt_psh+0x50>)
    5e52:	e8bd 4010 	ldmia.w	sp!, {r4, lr}
    5e56:	f000 b807 	b.w	5e68 <rt_put_prio>
    5e5a:	ea01 0302 	and.w	r3, r1, r2
    5e5e:	4293      	cmp	r3, r2
    5e60:	d0e8      	beq.n	5e34 <rt_evt_psh+0x20>
    5e62:	bd10      	pop	{r4, pc}
    5e64:	100006f8 	.word	0x100006f8

00005e68 <rt_put_prio>:
    5e68:	b470      	push	{r4, r5, r6}
    5e6a:	7803      	ldrb	r3, [r0, #0]
    5e6c:	6842      	ldr	r2, [r0, #4]
    5e6e:	3b01      	subs	r3, #1
    5e70:	2b02      	cmp	r3, #2
    5e72:	bf8c      	ite	hi
    5e74:	2600      	movhi	r6, #0
    5e76:	2601      	movls	r6, #1
    5e78:	788c      	ldrb	r4, [r1, #2]
    5e7a:	b1e2      	cbz	r2, 5eb6 <rt_put_prio+0x4e>
    5e7c:	7895      	ldrb	r5, [r2, #2]
    5e7e:	42a5      	cmp	r5, r4
    5e80:	d204      	bcs.n	5e8c <rt_put_prio+0x24>
    5e82:	e00e      	b.n	5ea2 <rt_put_prio+0x3a>
    5e84:	7898      	ldrb	r0, [r3, #2]
    5e86:	42a0      	cmp	r0, r4
    5e88:	d30d      	bcc.n	5ea6 <rt_put_prio+0x3e>
    5e8a:	461a      	mov	r2, r3
    5e8c:	6853      	ldr	r3, [r2, #4]
    5e8e:	2b00      	cmp	r3, #0
    5e90:	d1f8      	bne.n	5e84 <rt_put_prio+0x1c>
    5e92:	2300      	movs	r3, #0
    5e94:	604b      	str	r3, [r1, #4]
    5e96:	6051      	str	r1, [r2, #4]
    5e98:	b956      	cbnz	r6, 5eb0 <rt_put_prio+0x48>
    5e9a:	2300      	movs	r3, #0
    5e9c:	608b      	str	r3, [r1, #8]
    5e9e:	bc70      	pop	{r4, r5, r6}
    5ea0:	4770      	bx	lr
    5ea2:	4613      	mov	r3, r2
    5ea4:	4602      	mov	r2, r0
    5ea6:	604b      	str	r3, [r1, #4]
    5ea8:	6051      	str	r1, [r2, #4]
    5eaa:	2e00      	cmp	r6, #0
    5eac:	d0f5      	beq.n	5e9a <rt_put_prio+0x32>
    5eae:	6099      	str	r1, [r3, #8]
    5eb0:	608a      	str	r2, [r1, #8]
    5eb2:	bc70      	pop	{r4, r5, r6}
    5eb4:	4770      	bx	lr
    5eb6:	4602      	mov	r2, r0
    5eb8:	e7eb      	b.n	5e92 <rt_put_prio+0x2a>
    5eba:	bf00      	nop

00005ebc <rt_get_first>:
    5ebc:	6843      	ldr	r3, [r0, #4]
    5ebe:	7801      	ldrb	r1, [r0, #0]
    5ec0:	685a      	ldr	r2, [r3, #4]
    5ec2:	3901      	subs	r1, #1
    5ec4:	2902      	cmp	r1, #2
    5ec6:	6042      	str	r2, [r0, #4]
    5ec8:	d807      	bhi.n	5eda <rt_get_first+0x1e>
    5eca:	b112      	cbz	r2, 5ed2 <rt_get_first+0x16>
    5ecc:	2100      	movs	r1, #0
    5ece:	6090      	str	r0, [r2, #8]
    5ed0:	6059      	str	r1, [r3, #4]
    5ed2:	2200      	movs	r2, #0
    5ed4:	609a      	str	r2, [r3, #8]
    5ed6:	4618      	mov	r0, r3
    5ed8:	4770      	bx	lr
    5eda:	2200      	movs	r2, #0
    5edc:	605a      	str	r2, [r3, #4]
    5ede:	4618      	mov	r0, r3
    5ee0:	4770      	bx	lr
    5ee2:	bf00      	nop

00005ee4 <rt_put_rdy_first>:
    5ee4:	4b03      	ldr	r3, [pc, #12]	; (5ef4 <rt_put_rdy_first+0x10>)
    5ee6:	2100      	movs	r1, #0
    5ee8:	685a      	ldr	r2, [r3, #4]
    5eea:	6081      	str	r1, [r0, #8]
    5eec:	6042      	str	r2, [r0, #4]
    5eee:	6058      	str	r0, [r3, #4]
    5ef0:	4770      	bx	lr
    5ef2:	bf00      	nop
    5ef4:	100006f8 	.word	0x100006f8

00005ef8 <rt_put_dly>:
    5ef8:	b430      	push	{r4, r5}
    5efa:	4c16      	ldr	r4, [pc, #88]	; (5f54 <rt_put_dly+0x5c>)
    5efc:	68e3      	ldr	r3, [r4, #12]
    5efe:	b31b      	cbz	r3, 5f48 <rt_put_dly+0x50>
    5f00:	8aa2      	ldrh	r2, [r4, #20]
    5f02:	4291      	cmp	r1, r2
    5f04:	d803      	bhi.n	5f0e <rt_put_dly+0x16>
    5f06:	e022      	b.n	5f4e <rt_put_dly+0x56>
    5f08:	68dc      	ldr	r4, [r3, #12]
    5f0a:	b19c      	cbz	r4, 5f34 <rt_put_dly+0x3c>
    5f0c:	4623      	mov	r3, r4
    5f0e:	8a9c      	ldrh	r4, [r3, #20]
    5f10:	4422      	add	r2, r4
    5f12:	4291      	cmp	r1, r2
    5f14:	d8f8      	bhi.n	5f08 <rt_put_dly+0x10>
    5f16:	68dd      	ldr	r5, [r3, #12]
    5f18:	60c5      	str	r5, [r0, #12]
    5f1a:	60d8      	str	r0, [r3, #12]
    5f1c:	68c4      	ldr	r4, [r0, #12]
    5f1e:	6103      	str	r3, [r0, #16]
    5f20:	b104      	cbz	r4, 5f24 <rt_put_dly+0x2c>
    5f22:	6120      	str	r0, [r4, #16]
    5f24:	1a52      	subs	r2, r2, r1
    5f26:	b292      	uxth	r2, r2
    5f28:	8282      	strh	r2, [r0, #20]
    5f2a:	8a99      	ldrh	r1, [r3, #20]
    5f2c:	bc30      	pop	{r4, r5}
    5f2e:	1a8a      	subs	r2, r1, r2
    5f30:	829a      	strh	r2, [r3, #20]
    5f32:	4770      	bx	lr
    5f34:	b292      	uxth	r2, r2
    5f36:	2400      	movs	r4, #0
    5f38:	1a89      	subs	r1, r1, r2
    5f3a:	60c4      	str	r4, [r0, #12]
    5f3c:	60d8      	str	r0, [r3, #12]
    5f3e:	6103      	str	r3, [r0, #16]
    5f40:	8299      	strh	r1, [r3, #20]
    5f42:	8284      	strh	r4, [r0, #20]
    5f44:	bc30      	pop	{r4, r5}
    5f46:	4770      	bx	lr
    5f48:	461a      	mov	r2, r3
    5f4a:	4623      	mov	r3, r4
    5f4c:	e7f3      	b.n	5f36 <rt_put_dly+0x3e>
    5f4e:	461d      	mov	r5, r3
    5f50:	4623      	mov	r3, r4
    5f52:	e7e1      	b.n	5f18 <rt_put_dly+0x20>
    5f54:	10000710 	.word	0x10000710

00005f58 <rt_dec_dly>:
    5f58:	b5f8      	push	{r3, r4, r5, r6, r7, lr}
    5f5a:	4d1d      	ldr	r5, [pc, #116]	; (5fd0 <rt_dec_dly+0x78>)
    5f5c:	68ec      	ldr	r4, [r5, #12]
    5f5e:	2c00      	cmp	r4, #0
    5f60:	d034      	beq.n	5fcc <rt_dec_dly+0x74>
    5f62:	8aab      	ldrh	r3, [r5, #20]
    5f64:	3b01      	subs	r3, #1
    5f66:	b29b      	uxth	r3, r3
    5f68:	82ab      	strh	r3, [r5, #20]
    5f6a:	2b00      	cmp	r3, #0
    5f6c:	d12e      	bne.n	5fcc <rt_dec_dly+0x74>
    5f6e:	4f19      	ldr	r7, [pc, #100]	; (5fd4 <rt_dec_dly+0x7c>)
    5f70:	462e      	mov	r6, r5
    5f72:	e008      	b.n	5f86 <rt_dec_dly+0x2e>
    5f74:	68e3      	ldr	r3, [r4, #12]
    5f76:	7060      	strb	r0, [r4, #1]
    5f78:	60eb      	str	r3, [r5, #12]
    5f7a:	b333      	cbz	r3, 5fca <rt_dec_dly+0x72>
    5f7c:	611e      	str	r6, [r3, #16]
    5f7e:	60e1      	str	r1, [r4, #12]
    5f80:	6121      	str	r1, [r4, #16]
    5f82:	bb1a      	cbnz	r2, 5fcc <rt_dec_dly+0x74>
    5f84:	461c      	mov	r4, r3
    5f86:	68a3      	ldr	r3, [r4, #8]
    5f88:	4621      	mov	r1, r4
    5f8a:	4813      	ldr	r0, [pc, #76]	; (5fd8 <rt_dec_dly+0x80>)
    5f8c:	f04f 0e00 	mov.w	lr, #0
    5f90:	b143      	cbz	r3, 5fa4 <rt_dec_dly+0x4c>
    5f92:	6862      	ldr	r2, [r4, #4]
    5f94:	605a      	str	r2, [r3, #4]
    5f96:	6862      	ldr	r2, [r4, #4]
    5f98:	b112      	cbz	r2, 5fa0 <rt_dec_dly+0x48>
    5f9a:	6093      	str	r3, [r2, #8]
    5f9c:	f8c4 e004 	str.w	lr, [r4, #4]
    5fa0:	f8c4 e008 	str.w	lr, [r4, #8]
    5fa4:	f7ff ff60 	bl	5e68 <rt_put_prio>
    5fa8:	8aa2      	ldrh	r2, [r4, #20]
    5faa:	2001      	movs	r0, #1
    5fac:	82aa      	strh	r2, [r5, #20]
    5fae:	7863      	ldrb	r3, [r4, #1]
    5fb0:	2100      	movs	r1, #0
    5fb2:	2b04      	cmp	r3, #4
    5fb4:	d1de      	bne.n	5f74 <rt_dec_dly+0x1c>
    5fb6:	683b      	ldr	r3, [r7, #0]
    5fb8:	f8b4 c016 	ldrh.w	r12, [r4, #22]
    5fbc:	7060      	strb	r0, [r4, #1]
    5fbe:	4463      	add	r3, r12
    5fc0:	82a3      	strh	r3, [r4, #20]
    5fc2:	68e3      	ldr	r3, [r4, #12]
    5fc4:	60eb      	str	r3, [r5, #12]
    5fc6:	2b00      	cmp	r3, #0
    5fc8:	d1d8      	bne.n	5f7c <rt_dec_dly+0x24>
    5fca:	6123      	str	r3, [r4, #16]
    5fcc:	bdf8      	pop	{r3, r4, r5, r6, r7, pc}
    5fce:	bf00      	nop
    5fd0:	10000710 	.word	0x10000710
    5fd4:	10000764 	.word	0x10000764
    5fd8:	100006f8 	.word	0x100006f8

00005fdc <rt_rmv_list>:
    5fdc:	6883      	ldr	r3, [r0, #8]
    5fde:	b133      	cbz	r3, 5fee <rt_rmv_list+0x12>
    5fe0:	6842      	ldr	r2, [r0, #4]
    5fe2:	605a      	str	r2, [r3, #4]
    5fe4:	6842      	ldr	r2, [r0, #4]
    5fe6:	b10a      	cbz	r2, 5fec <rt_rmv_list+0x10>
    5fe8:	6093      	str	r3, [r2, #8]
    5fea:	4770      	bx	lr
    5fec:	4770      	bx	lr
    5fee:	4a07      	ldr	r2, [pc, #28]	; (600c <rt_rmv_list+0x30>)
    5ff0:	6853      	ldr	r3, [r2, #4]
    5ff2:	4283      	cmp	r3, r0
    5ff4:	d005      	beq.n	6002 <rt_rmv_list+0x26>
    5ff6:	b143      	cbz	r3, 600a <rt_rmv_list+0x2e>
    5ff8:	685a      	ldr	r2, [r3, #4]
    5ffa:	4282      	cmp	r2, r0
    5ffc:	d002      	beq.n	6004 <rt_rmv_list+0x28>
    5ffe:	4613      	mov	r3, r2
    6000:	e7f9      	b.n	5ff6 <rt_rmv_list+0x1a>
    6002:	4613      	mov	r3, r2
    6004:	6842      	ldr	r2, [r0, #4]
    6006:	605a      	str	r2, [r3, #4]
    6008:	4770      	bx	lr
    600a:	4770      	bx	lr
    600c:	100006f8 	.word	0x100006f8

00006010 <rt_resort_prio>:
    6010:	b538      	push	{r3, r4, r5, lr}
    6012:	6884      	ldr	r4, [r0, #8]
    6014:	4605      	mov	r5, r0
    6016:	b90c      	cbnz	r4, 601c <rt_resort_prio+0xc>
    6018:	e00c      	b.n	6034 <rt_resort_prio+0x24>
    601a:	68a4      	ldr	r4, [r4, #8]
    601c:	7823      	ldrb	r3, [r4, #0]
    601e:	2b00      	cmp	r3, #0
    6020:	d0fb      	beq.n	601a <rt_resort_prio+0xa>
    6022:	4628      	mov	r0, r5
    6024:	f7ff ffda 	bl	5fdc <rt_rmv_list>
    6028:	4620      	mov	r0, r4
    602a:	4629      	mov	r1, r5
    602c:	e8bd 4038 	ldmia.w	sp!, {r3, r4, r5, lr}
    6030:	f7ff bf1a 	b.w	5e68 <rt_put_prio>
    6034:	7843      	ldrb	r3, [r0, #1]
    6036:	2b01      	cmp	r3, #1
    6038:	d000      	beq.n	603c <rt_resort_prio+0x2c>
    603a:	bd38      	pop	{r3, r4, r5, pc}
    603c:	4c00      	ldr	r4, [pc, #0]	; (6040 <rt_resort_prio+0x30>)
    603e:	e7f0      	b.n	6022 <rt_resort_prio+0x12>
    6040:	100006f8 	.word	0x100006f8

00006044 <rt_rmv_dly>:
    6044:	6903      	ldr	r3, [r0, #16]
    6046:	b430      	push	{r4, r5}
    6048:	b163      	cbz	r3, 6064 <rt_rmv_dly+0x20>
    604a:	68c2      	ldr	r2, [r0, #12]
    604c:	60da      	str	r2, [r3, #12]
    604e:	68c2      	ldr	r2, [r0, #12]
    6050:	b152      	cbz	r2, 6068 <rt_rmv_dly+0x24>
    6052:	8a9c      	ldrh	r4, [r3, #20]
    6054:	8a85      	ldrh	r5, [r0, #20]
    6056:	2100      	movs	r1, #0
    6058:	442c      	add	r4, r5
    605a:	829c      	strh	r4, [r3, #20]
    605c:	6113      	str	r3, [r2, #16]
    605e:	60c1      	str	r1, [r0, #12]
    6060:	2300      	movs	r3, #0
    6062:	6103      	str	r3, [r0, #16]
    6064:	bc30      	pop	{r4, r5}
    6066:	4770      	bx	lr
    6068:	829a      	strh	r2, [r3, #20]
    606a:	e7f9      	b.n	6060 <rt_rmv_dly+0x1c>

0000606c <rt_psq_enq>:
    606c:	b430      	push	{r4, r5}
    606e:	4b0f      	ldr	r3, [pc, #60]	; (60ac <rt_psq_enq+0x40>)
    6070:	78dc      	ldrb	r4, [r3, #3]
    6072:	f3ef 8310 	mrs	r3, PRIMASK
    6076:	b672      	cpsid	i
    6078:	4a0c      	ldr	r2, [pc, #48]	; (60ac <rt_psq_enq+0x40>)
    607a:	7893      	ldrb	r3, [r2, #2]
    607c:	429c      	cmp	r4, r3
    607e:	d908      	bls.n	6092 <rt_psq_enq+0x26>
    6080:	1c5d      	adds	r5, r3, #1
    6082:	7813      	ldrb	r3, [r2, #0]
    6084:	7095      	strb	r5, [r2, #2]
    6086:	1c5d      	adds	r5, r3, #1
    6088:	42ac      	cmp	r4, r5
    608a:	bf14      	ite	ne
    608c:	b2ed      	uxtbne	r5, r5
    608e:	2500      	moveq	r5, #0
    6090:	7015      	strb	r5, [r2, #0]
    6092:	b662      	cpsie	i
    6094:	429c      	cmp	r4, r3
    6096:	d905      	bls.n	60a4 <rt_psq_enq+0x38>
    6098:	bc30      	pop	{r4, r5}
    609a:	eb02 03c3 	add.w	r3, r2, r3, lsl #3
    609e:	6058      	str	r0, [r3, #4]
    60a0:	6099      	str	r1, [r3, #8]
    60a2:	4770      	bx	lr
    60a4:	2002      	movs	r0, #2
    60a6:	bc30      	pop	{r4, r5}
    60a8:	f000 bdd8 	b.w	6c5c <os_error>
    60ac:	100009c4 	.word	0x100009c4

000060b0 <rt_mbx_init>:
    60b0:	3910      	subs	r1, #16
    60b2:	2300      	movs	r3, #0
    60b4:	0889      	lsrs	r1, r1, #2
    60b6:	2201      	movs	r2, #1
    60b8:	81c1      	strh	r1, [r0, #14]
    60ba:	7002      	strb	r2, [r0, #0]
    60bc:	7043      	strb	r3, [r0, #1]
    60be:	7083      	strb	r3, [r0, #2]
    60c0:	6043      	str	r3, [r0, #4]
    60c2:	8103      	strh	r3, [r0, #8]
    60c4:	8143      	strh	r3, [r0, #10]
    60c6:	8183      	strh	r3, [r0, #12]
    60c8:	4770      	bx	lr
    60ca:	bf00      	nop

000060cc <rt_mbx_send>:
    60cc:	b5f0      	push	{r4, r5, r6, r7, lr}
    60ce:	6846      	ldr	r6, [r0, #4]
    60d0:	b083      	sub	sp, #12
    60d2:	4603      	mov	r3, r0
    60d4:	460f      	mov	r7, r1
    60d6:	b116      	cbz	r6, 60de <rt_mbx_send+0x12>
    60d8:	7841      	ldrb	r1, [r0, #1]
    60da:	2901      	cmp	r1, #1
    60dc:	d02c      	beq.n	6138 <rt_mbx_send+0x6c>
    60de:	899d      	ldrh	r5, [r3, #12]
    60e0:	89dc      	ldrh	r4, [r3, #14]
    60e2:	42a5      	cmp	r5, r4
    60e4:	d013      	beq.n	610e <rt_mbx_send+0x42>
    60e6:	8918      	ldrh	r0, [r3, #8]
    60e8:	1d02      	adds	r2, r0, #4
    60ea:	f843 7022 	str.w	r7, [r3, r2, lsl #2]
    60ee:	f3ef 8210 	mrs	r2, PRIMASK
    60f2:	b672      	cpsid	i
    60f4:	3501      	adds	r5, #1
    60f6:	819d      	strh	r5, [r3, #12]
    60f8:	b662      	cpsie	i
    60fa:	3001      	adds	r0, #1
    60fc:	b280      	uxth	r0, r0
    60fe:	4284      	cmp	r4, r0
    6100:	bf0b      	itete	eq
    6102:	2000      	moveq	r0, #0
    6104:	8118      	strhne	r0, [r3, #8]
    6106:	8118      	strheq	r0, [r3, #8]
    6108:	2000      	movne	r0, #0
    610a:	b003      	add	sp, #12
    610c:	bdf0      	pop	{r4, r5, r6, r7, pc}
    610e:	b182      	cbz	r2, 6132 <rt_mbx_send+0x66>
    6110:	b30e      	cbz	r6, 6156 <rt_mbx_send+0x8a>
    6112:	4c15      	ldr	r4, [pc, #84]	; (6168 <rt_mbx_send+0x9c>)
    6114:	4618      	mov	r0, r3
    6116:	6821      	ldr	r1, [r4, #0]
    6118:	9201      	str	r2, [sp, #4]
    611a:	f7ff fea5 	bl	5e68 <rt_put_prio>
    611e:	6821      	ldr	r1, [r4, #0]
    6120:	9a01      	ldr	r2, [sp, #4]
    6122:	61cf      	str	r7, [r1, #28]
    6124:	4610      	mov	r0, r2
    6126:	2108      	movs	r1, #8
    6128:	f000 fb26 	bl	6778 <rt_block>
    612c:	2001      	movs	r0, #1
    612e:	b003      	add	sp, #12
    6130:	bdf0      	pop	{r4, r5, r6, r7, pc}
    6132:	2001      	movs	r0, #1
    6134:	b003      	add	sp, #12
    6136:	bdf0      	pop	{r4, r5, r6, r7, pc}
    6138:	f7ff fec0 	bl	5ebc <rt_get_first>
    613c:	463a      	mov	r2, r7
    613e:	4604      	mov	r4, r0
    6140:	2110      	movs	r1, #16
    6142:	f000 fd85 	bl	6c50 <rt_ret_val2>
    6146:	4620      	mov	r0, r4
    6148:	f7ff ff7c 	bl	6044 <rt_rmv_dly>
    614c:	4620      	mov	r0, r4
    614e:	f000 faf1 	bl	6734 <rt_dispatch>
    6152:	2000      	movs	r0, #0
    6154:	e7d9      	b.n	610a <rt_mbx_send+0x3e>
    6156:	4904      	ldr	r1, [pc, #16]	; (6168 <rt_mbx_send+0x9c>)
    6158:	2002      	movs	r0, #2
    615a:	6809      	ldr	r1, [r1, #0]
    615c:	6059      	str	r1, [r3, #4]
    615e:	604e      	str	r6, [r1, #4]
    6160:	608b      	str	r3, [r1, #8]
    6162:	7058      	strb	r0, [r3, #1]
    6164:	e7dd      	b.n	6122 <rt_mbx_send+0x56>
    6166:	bf00      	nop
    6168:	1000072c 	.word	0x1000072c

0000616c <rt_mbx_wait>:
    616c:	b538      	push	{r3, r4, r5, lr}
    616e:	8983      	ldrh	r3, [r0, #12]
    6170:	4604      	mov	r4, r0
    6172:	4615      	mov	r5, r2
    6174:	b1cb      	cbz	r3, 61aa <rt_mbx_wait+0x3e>
    6176:	8942      	ldrh	r2, [r0, #10]
    6178:	89c5      	ldrh	r5, [r0, #14]
    617a:	1d10      	adds	r0, r2, #4
    617c:	3201      	adds	r2, #1
    617e:	b292      	uxth	r2, r2
    6180:	f854 0020 	ldr.w	r0, [r4, r0, lsl #2]
    6184:	4295      	cmp	r5, r2
    6186:	6008      	str	r0, [r1, #0]
    6188:	8162      	strh	r2, [r4, #10]
    618a:	bf04      	itt	eq
    618c:	2200      	moveq	r2, #0
    618e:	8162      	strheq	r2, [r4, #10]
    6190:	6862      	ldr	r2, [r4, #4]
    6192:	b112      	cbz	r2, 619a <rt_mbx_wait+0x2e>
    6194:	7862      	ldrb	r2, [r4, #1]
    6196:	2a02      	cmp	r2, #2
    6198:	d01e      	beq.n	61d8 <rt_mbx_wait+0x6c>
    619a:	f3ef 8210 	mrs	r2, PRIMASK
    619e:	b672      	cpsid	i
    61a0:	3b01      	subs	r3, #1
    61a2:	81a3      	strh	r3, [r4, #12]
    61a4:	b662      	cpsie	i
    61a6:	2000      	movs	r0, #0
    61a8:	bd38      	pop	{r3, r4, r5, pc}
    61aa:	b15a      	cbz	r2, 61c4 <rt_mbx_wait+0x58>
    61ac:	6843      	ldr	r3, [r0, #4]
    61ae:	b15b      	cbz	r3, 61c8 <rt_mbx_wait+0x5c>
    61b0:	4b18      	ldr	r3, [pc, #96]	; (6214 <rt_mbx_wait+0xa8>)
    61b2:	6819      	ldr	r1, [r3, #0]
    61b4:	f7ff fe58 	bl	5e68 <rt_put_prio>
    61b8:	4628      	mov	r0, r5
    61ba:	2108      	movs	r1, #8
    61bc:	f000 fadc 	bl	6778 <rt_block>
    61c0:	2001      	movs	r0, #1
    61c2:	bd38      	pop	{r3, r4, r5, pc}
    61c4:	2001      	movs	r0, #1
    61c6:	bd38      	pop	{r3, r4, r5, pc}
    61c8:	4a12      	ldr	r2, [pc, #72]	; (6214 <rt_mbx_wait+0xa8>)
    61ca:	2101      	movs	r1, #1
    61cc:	6812      	ldr	r2, [r2, #0]
    61ce:	6042      	str	r2, [r0, #4]
    61d0:	6053      	str	r3, [r2, #4]
    61d2:	6090      	str	r0, [r2, #8]
    61d4:	7041      	strb	r1, [r0, #1]
    61d6:	e7ef      	b.n	61b8 <rt_mbx_wait+0x4c>
    61d8:	4620      	mov	r0, r4
    61da:	f7ff fe6f 	bl	5ebc <rt_get_first>
    61de:	2100      	movs	r1, #0
    61e0:	4605      	mov	r5, r0
    61e2:	f000 fd31 	bl	6c48 <rt_ret_val>
    61e6:	8922      	ldrh	r2, [r4, #8]
    61e8:	89e0      	ldrh	r0, [r4, #14]
    61ea:	1c53      	adds	r3, r2, #1
    61ec:	b29b      	uxth	r3, r3
    61ee:	69e9      	ldr	r1, [r5, #28]
    61f0:	4298      	cmp	r0, r3
    61f2:	f102 0204 	add.w	r2, r2, #4
    61f6:	f844 1022 	str.w	r1, [r4, r2, lsl #2]
    61fa:	8123      	strh	r3, [r4, #8]
    61fc:	bf04      	itt	eq
    61fe:	2300      	moveq	r3, #0
    6200:	8123      	strheq	r3, [r4, #8]
    6202:	4628      	mov	r0, r5
    6204:	f7ff ff1e 	bl	6044 <rt_rmv_dly>
    6208:	4628      	mov	r0, r5
    620a:	f000 fa93 	bl	6734 <rt_dispatch>
    620e:	2000      	movs	r0, #0
    6210:	bd38      	pop	{r3, r4, r5, pc}
    6212:	bf00      	nop
    6214:	1000072c 	.word	0x1000072c

00006218 <rt_mbx_check>:
    6218:	89c2      	ldrh	r2, [r0, #14]
    621a:	8980      	ldrh	r0, [r0, #12]
    621c:	1a10      	subs	r0, r2, r0
    621e:	4770      	bx	lr

00006220 <isr_mbx_send>:
    6220:	b508      	push	{r3, lr}
    6222:	f7ff ff23 	bl	606c <rt_psq_enq>
    6226:	e8bd 4008 	ldmia.w	sp!, {r3, lr}
    622a:	f000 b99f 	b.w	656c <rt_psh_req>
    622e:	bf00      	nop

00006230 <isr_mbx_receive>:
    6230:	b538      	push	{r3, r4, r5, lr}
    6232:	8983      	ldrh	r3, [r0, #12]
    6234:	4604      	mov	r4, r0
    6236:	b1ab      	cbz	r3, 6264 <isr_mbx_receive+0x34>
    6238:	8942      	ldrh	r2, [r0, #10]
    623a:	1d15      	adds	r5, r2, #4
    623c:	f850 5025 	ldr.w	r5, [r0, r5, lsl #2]
    6240:	600d      	str	r5, [r1, #0]
    6242:	7841      	ldrb	r1, [r0, #1]
    6244:	2902      	cmp	r1, #2
    6246:	d013      	beq.n	6270 <isr_mbx_receive+0x40>
    6248:	f3ef 8110 	mrs	r1, PRIMASK
    624c:	b672      	cpsid	i
    624e:	3b01      	subs	r3, #1
    6250:	81a3      	strh	r3, [r4, #12]
    6252:	b662      	cpsie	i
    6254:	3201      	adds	r2, #1
    6256:	89e3      	ldrh	r3, [r4, #14]
    6258:	b292      	uxth	r2, r2
    625a:	4293      	cmp	r3, r2
    625c:	8162      	strh	r2, [r4, #10]
    625e:	d003      	beq.n	6268 <isr_mbx_receive+0x38>
    6260:	2004      	movs	r0, #4
    6262:	bd38      	pop	{r3, r4, r5, pc}
    6264:	4618      	mov	r0, r3
    6266:	bd38      	pop	{r3, r4, r5, pc}
    6268:	2300      	movs	r3, #0
    626a:	8163      	strh	r3, [r4, #10]
    626c:	2004      	movs	r0, #4
    626e:	bd38      	pop	{r3, r4, r5, pc}
    6270:	2100      	movs	r1, #0
    6272:	f7ff fefb 	bl	606c <rt_psq_enq>
    6276:	f000 f979 	bl	656c <rt_psh_req>
    627a:	89a3      	ldrh	r3, [r4, #12]
    627c:	8962      	ldrh	r2, [r4, #10]
    627e:	e7e3      	b.n	6248 <isr_mbx_receive+0x18>

00006280 <rt_mbx_psh>:
    6280:	6843      	ldr	r3, [r0, #4]
    6282:	b570      	push	{r4, r5, r6, lr}
    6284:	4604      	mov	r4, r0
    6286:	460e      	mov	r6, r1
    6288:	2b00      	cmp	r3, #0
    628a:	d04d      	beq.n	6328 <rt_mbx_psh+0xa8>
    628c:	7845      	ldrb	r5, [r0, #1]
    628e:	2d02      	cmp	r5, #2
    6290:	d025      	beq.n	62de <rt_mbx_psh+0x5e>
    6292:	2d03      	cmp	r5, #3
    6294:	d002      	beq.n	629c <rt_mbx_psh+0x1c>
    6296:	2d01      	cmp	r5, #1
    6298:	d010      	beq.n	62bc <rt_mbx_psh+0x3c>
    629a:	bd70      	pop	{r4, r5, r6, pc}
    629c:	4608      	mov	r0, r1
    629e:	f000 f88d 	bl	63bc <rt_alloc_box>
    62a2:	4605      	mov	r5, r0
    62a4:	2800      	cmp	r0, #0
    62a6:	d0f8      	beq.n	629a <rt_mbx_psh+0x1a>
    62a8:	4620      	mov	r0, r4
    62aa:	f7ff fe07 	bl	5ebc <rt_get_first>
    62ae:	4629      	mov	r1, r5
    62b0:	4604      	mov	r4, r0
    62b2:	f000 fcc9 	bl	6c48 <rt_ret_val>
    62b6:	2301      	movs	r3, #1
    62b8:	7063      	strb	r3, [r4, #1]
    62ba:	e007      	b.n	62cc <rt_mbx_psh+0x4c>
    62bc:	f7ff fdfe 	bl	5ebc <rt_get_first>
    62c0:	4632      	mov	r2, r6
    62c2:	4604      	mov	r4, r0
    62c4:	2110      	movs	r1, #16
    62c6:	f000 fcc3 	bl	6c50 <rt_ret_val2>
    62ca:	7065      	strb	r5, [r4, #1]
    62cc:	4620      	mov	r0, r4
    62ce:	f7ff feb9 	bl	6044 <rt_rmv_dly>
    62d2:	4621      	mov	r1, r4
    62d4:	4822      	ldr	r0, [pc, #136]	; (6360 <rt_mbx_psh+0xe0>)
    62d6:	e8bd 4070 	ldmia.w	sp!, {r4, r5, r6, lr}
    62da:	f7ff bdc5 	b.w	5e68 <rt_put_prio>
    62de:	f7ff fded 	bl	5ebc <rt_get_first>
    62e2:	2100      	movs	r1, #0
    62e4:	4605      	mov	r5, r0
    62e6:	f000 fcaf 	bl	6c48 <rt_ret_val>
    62ea:	8923      	ldrh	r3, [r4, #8]
    62ec:	69ea      	ldr	r2, [r5, #28]
    62ee:	1d19      	adds	r1, r3, #4
    62f0:	f844 2021 	str.w	r2, [r4, r1, lsl #2]
    62f4:	f3ef 8210 	mrs	r2, PRIMASK
    62f8:	b672      	cpsid	i
    62fa:	89a2      	ldrh	r2, [r4, #12]
    62fc:	3201      	adds	r2, #1
    62fe:	81a2      	strh	r2, [r4, #12]
    6300:	b662      	cpsie	i
    6302:	89e2      	ldrh	r2, [r4, #14]
    6304:	3301      	adds	r3, #1
    6306:	b29b      	uxth	r3, r3
    6308:	429a      	cmp	r2, r3
    630a:	8123      	strh	r3, [r4, #8]
    630c:	bf04      	itt	eq
    630e:	2300      	moveq	r3, #0
    6310:	8123      	strheq	r3, [r4, #8]
    6312:	2301      	movs	r3, #1
    6314:	4628      	mov	r0, r5
    6316:	706b      	strb	r3, [r5, #1]
    6318:	f7ff fe94 	bl	6044 <rt_rmv_dly>
    631c:	4629      	mov	r1, r5
    631e:	4810      	ldr	r0, [pc, #64]	; (6360 <rt_mbx_psh+0xe0>)
    6320:	e8bd 4070 	ldmia.w	sp!, {r4, r5, r6, lr}
    6324:	f7ff bda0 	b.w	5e68 <rt_put_prio>
    6328:	8982      	ldrh	r2, [r0, #12]
    632a:	89c3      	ldrh	r3, [r0, #14]
    632c:	429a      	cmp	r2, r3
    632e:	d211      	bcs.n	6354 <rt_mbx_psh+0xd4>
    6330:	8901      	ldrh	r1, [r0, #8]
    6332:	1d08      	adds	r0, r1, #4
    6334:	f844 6020 	str.w	r6, [r4, r0, lsl #2]
    6338:	f3ef 8010 	mrs	r0, PRIMASK
    633c:	b672      	cpsid	i
    633e:	3201      	adds	r2, #1
    6340:	81a2      	strh	r2, [r4, #12]
    6342:	b662      	cpsie	i
    6344:	3101      	adds	r1, #1
    6346:	b289      	uxth	r1, r1
    6348:	428b      	cmp	r3, r1
    634a:	bf0a      	itet	eq
    634c:	2300      	moveq	r3, #0
    634e:	8121      	strhne	r1, [r4, #8]
    6350:	8123      	strheq	r3, [r4, #8]
    6352:	bd70      	pop	{r4, r5, r6, pc}
    6354:	2003      	movs	r0, #3
    6356:	e8bd 4070 	ldmia.w	sp!, {r4, r5, r6, lr}
    635a:	f000 bc7f 	b.w	6c5c <os_error>
    635e:	bf00      	nop
    6360:	100006f8 	.word	0x100006f8

00006364 <_init_box>:
    6364:	2a00      	cmp	r2, #0
    6366:	b470      	push	{r4, r5, r6}
    6368:	db1e      	blt.n	63a8 <_init_box+0x44>
    636a:	1cd5      	adds	r5, r2, #3
    636c:	f025 0503 	bic.w	r5, r5, #3
    6370:	240c      	movs	r4, #12
    6372:	b1b5      	cbz	r5, 63a2 <_init_box+0x3e>
    6374:	1963      	adds	r3, r4, r5
    6376:	428b      	cmp	r3, r1
    6378:	d813      	bhi.n	63a2 <_init_box+0x3e>
    637a:	4404      	add	r4, r0
    637c:	4401      	add	r1, r0
    637e:	1b4e      	subs	r6, r1, r5
    6380:	1963      	adds	r3, r4, r5
    6382:	429e      	cmp	r6, r3
    6384:	6004      	str	r4, [r0, #0]
    6386:	6041      	str	r1, [r0, #4]
    6388:	6085      	str	r5, [r0, #8]
    638a:	d202      	bcs.n	6392 <_init_box+0x2e>
    638c:	e013      	b.n	63b6 <_init_box+0x52>
    638e:	461c      	mov	r4, r3
    6390:	4613      	mov	r3, r2
    6392:	195a      	adds	r2, r3, r5
    6394:	4296      	cmp	r6, r2
    6396:	6023      	str	r3, [r4, #0]
    6398:	d2f9      	bcs.n	638e <_init_box+0x2a>
    639a:	2000      	movs	r0, #0
    639c:	6018      	str	r0, [r3, #0]
    639e:	bc70      	pop	{r4, r5, r6}
    63a0:	4770      	bx	lr
    63a2:	2001      	movs	r0, #1
    63a4:	bc70      	pop	{r4, r5, r6}
    63a6:	4770      	bx	lr
    63a8:	f022 4500 	bic.w	r5, r2, #2147483648	; 0x80000000
    63ac:	3507      	adds	r5, #7
    63ae:	f025 0507 	bic.w	r5, r5, #7
    63b2:	2410      	movs	r4, #16
    63b4:	e7dd      	b.n	6372 <_init_box+0xe>
    63b6:	4623      	mov	r3, r4
    63b8:	e7ef      	b.n	639a <_init_box+0x36>
    63ba:	bf00      	nop

000063bc <rt_alloc_box>:
    63bc:	f3ef 8210 	mrs	r2, PRIMASK
    63c0:	b672      	cpsid	i
    63c2:	6803      	ldr	r3, [r0, #0]
    63c4:	f002 0201 	and.w	r2, r2, #1
    63c8:	b10b      	cbz	r3, 63ce <rt_alloc_box+0x12>
    63ca:	6819      	ldr	r1, [r3, #0]
    63cc:	6001      	str	r1, [r0, #0]
    63ce:	b902      	cbnz	r2, 63d2 <rt_alloc_box+0x16>
    63d0:	b662      	cpsie	i
    63d2:	4618      	mov	r0, r3
    63d4:	4770      	bx	lr
    63d6:	bf00      	nop

000063d8 <rt_free_box>:
    63d8:	4281      	cmp	r1, r0
    63da:	d30e      	bcc.n	63fa <rt_free_box+0x22>
    63dc:	6843      	ldr	r3, [r0, #4]
    63de:	4299      	cmp	r1, r3
    63e0:	d20b      	bcs.n	63fa <rt_free_box+0x22>
    63e2:	f3ef 8210 	mrs	r2, PRIMASK
    63e6:	b672      	cpsid	i
    63e8:	6803      	ldr	r3, [r0, #0]
    63ea:	600b      	str	r3, [r1, #0]
    63ec:	4613      	mov	r3, r2
    63ee:	07db      	lsls	r3, r3, #31
    63f0:	6001      	str	r1, [r0, #0]
    63f2:	d404      	bmi.n	63fe <rt_free_box+0x26>
    63f4:	b662      	cpsie	i
    63f6:	2000      	movs	r0, #0
    63f8:	4770      	bx	lr
    63fa:	2001      	movs	r0, #1
    63fc:	4770      	bx	lr
    63fe:	2000      	movs	r0, #0
    6400:	4770      	bx	lr
    6402:	bf00      	nop

00006404 <rt_mut_init>:
    6404:	2300      	movs	r3, #0
    6406:	2203      	movs	r2, #3
    6408:	7002      	strb	r2, [r0, #0]
    640a:	7043      	strb	r3, [r0, #1]
    640c:	8043      	strh	r3, [r0, #2]
    640e:	6043      	str	r3, [r0, #4]
    6410:	6083      	str	r3, [r0, #8]
    6412:	4770      	bx	lr

00006414 <rt_mut_release>:
    6414:	e92d 43f8 	stmdb	sp!, {r3, r4, r5, r6, r7, r8, r9, lr}
    6418:	8843      	ldrh	r3, [r0, #2]
    641a:	4604      	mov	r4, r0
    641c:	b913      	cbnz	r3, 6424 <rt_mut_release+0x10>
    641e:	20ff      	movs	r0, #255	; 0xff
    6420:	e8bd 83f8 	ldmia.w	sp!, {r3, r4, r5, r6, r7, r8, r9, pc}
    6424:	4d29      	ldr	r5, [pc, #164]	; (64cc <rt_mut_release+0xb8>)
    6426:	6882      	ldr	r2, [r0, #8]
    6428:	6829      	ldr	r1, [r5, #0]
    642a:	428a      	cmp	r2, r1
    642c:	d1f7      	bne.n	641e <rt_mut_release+0xa>
    642e:	3b01      	subs	r3, #1
    6430:	b29e      	uxth	r6, r3
    6432:	8046      	strh	r6, [r0, #2]
    6434:	bb1e      	cbnz	r6, 647e <rt_mut_release+0x6a>
    6436:	7843      	ldrb	r3, [r0, #1]
    6438:	7093      	strb	r3, [r2, #2]
    643a:	6847      	ldr	r7, [r0, #4]
    643c:	2f00      	cmp	r7, #0
    643e:	d033      	beq.n	64a8 <rt_mut_release+0x94>
    6440:	f7ff fd3c 	bl	5ebc <rt_get_first>
    6444:	4631      	mov	r1, r6
    6446:	4607      	mov	r7, r0
    6448:	f04f 0801 	mov.w	r8, #1
    644c:	f000 fbfc 	bl	6c48 <rt_ret_val>
    6450:	4638      	mov	r0, r7
    6452:	f7ff fdf7 	bl	6044 <rt_rmv_dly>
    6456:	60a7      	str	r7, [r4, #8]
    6458:	f8a4 8002 	strh.w	r8, [r4, #2]
    645c:	78bb      	ldrb	r3, [r7, #2]
    645e:	f8df 9070 	ldr.w	r9, [pc, #112]	; 64d0 <rt_mut_release+0xbc>
    6462:	7063      	strb	r3, [r4, #1]
    6464:	6829      	ldr	r1, [r5, #0]
    6466:	f8d9 3004 	ldr.w	r3, [r9, #4]
    646a:	788a      	ldrb	r2, [r1, #2]
    646c:	789b      	ldrb	r3, [r3, #2]
    646e:	429a      	cmp	r2, r3
    6470:	d308      	bcc.n	6484 <rt_mut_release+0x70>
    6472:	4638      	mov	r0, r7
    6474:	f000 f95e 	bl	6734 <rt_dispatch>
    6478:	4630      	mov	r0, r6
    647a:	e8bd 83f8 	ldmia.w	sp!, {r3, r4, r5, r6, r7, r8, r9, pc}
    647e:	2000      	movs	r0, #0
    6480:	e8bd 83f8 	ldmia.w	sp!, {r3, r4, r5, r6, r7, r8, r9, pc}
    6484:	4648      	mov	r0, r9
    6486:	f7ff fcef 	bl	5e68 <rt_put_prio>
    648a:	4648      	mov	r0, r9
    648c:	4639      	mov	r1, r7
    648e:	f7ff fceb 	bl	5e68 <rt_put_prio>
    6492:	682b      	ldr	r3, [r5, #0]
    6494:	4630      	mov	r0, r6
    6496:	f883 8001 	strb.w	r8, [r3, #1]
    649a:	f887 8001 	strb.w	r8, [r7, #1]
    649e:	f000 f949 	bl	6734 <rt_dispatch>
    64a2:	4630      	mov	r0, r6
    64a4:	e8bd 83f8 	ldmia.w	sp!, {r3, r4, r5, r6, r7, r8, r9, pc}
    64a8:	4809      	ldr	r0, [pc, #36]	; (64d0 <rt_mut_release+0xbc>)
    64aa:	6841      	ldr	r1, [r0, #4]
    64ac:	7889      	ldrb	r1, [r1, #2]
    64ae:	4299      	cmp	r1, r3
    64b0:	d9e5      	bls.n	647e <rt_mut_release+0x6a>
    64b2:	4611      	mov	r1, r2
    64b4:	f7ff fcd8 	bl	5e68 <rt_put_prio>
    64b8:	682b      	ldr	r3, [r5, #0]
    64ba:	2201      	movs	r2, #1
    64bc:	4638      	mov	r0, r7
    64be:	705a      	strb	r2, [r3, #1]
    64c0:	f000 f938 	bl	6734 <rt_dispatch>
    64c4:	4638      	mov	r0, r7
    64c6:	e8bd 83f8 	ldmia.w	sp!, {r3, r4, r5, r6, r7, r8, r9, pc}
    64ca:	bf00      	nop
    64cc:	1000072c 	.word	0x1000072c
    64d0:	100006f8 	.word	0x100006f8

000064d4 <rt_mut_wait>:
    64d4:	8843      	ldrh	r3, [r0, #2]
    64d6:	b570      	push	{r4, r5, r6, lr}
    64d8:	4604      	mov	r4, r0
    64da:	460d      	mov	r5, r1
    64dc:	b943      	cbnz	r3, 64f0 <rt_mut_wait+0x1c>
    64de:	4a15      	ldr	r2, [pc, #84]	; (6534 <rt_mut_wait+0x60>)
    64e0:	6812      	ldr	r2, [r2, #0]
    64e2:	6082      	str	r2, [r0, #8]
    64e4:	7892      	ldrb	r2, [r2, #2]
    64e6:	7042      	strb	r2, [r0, #1]
    64e8:	3301      	adds	r3, #1
    64ea:	8063      	strh	r3, [r4, #2]
    64ec:	2000      	movs	r0, #0
    64ee:	bd70      	pop	{r4, r5, r6, pc}
    64f0:	4e10      	ldr	r6, [pc, #64]	; (6534 <rt_mut_wait+0x60>)
    64f2:	6881      	ldr	r1, [r0, #8]
    64f4:	6832      	ldr	r2, [r6, #0]
    64f6:	4291      	cmp	r1, r2
    64f8:	d0f6      	beq.n	64e8 <rt_mut_wait+0x14>
    64fa:	b1cd      	cbz	r5, 6530 <rt_mut_wait+0x5c>
    64fc:	7893      	ldrb	r3, [r2, #2]
    64fe:	7840      	ldrb	r0, [r0, #1]
    6500:	4298      	cmp	r0, r3
    6502:	d30f      	bcc.n	6524 <rt_mut_wait+0x50>
    6504:	6863      	ldr	r3, [r4, #4]
    6506:	b14b      	cbz	r3, 651c <rt_mut_wait+0x48>
    6508:	4620      	mov	r0, r4
    650a:	4611      	mov	r1, r2
    650c:	f7ff fcac 	bl	5e68 <rt_put_prio>
    6510:	4628      	mov	r0, r5
    6512:	2109      	movs	r1, #9
    6514:	f000 f930 	bl	6778 <rt_block>
    6518:	2001      	movs	r0, #1
    651a:	bd70      	pop	{r4, r5, r6, pc}
    651c:	6062      	str	r2, [r4, #4]
    651e:	6053      	str	r3, [r2, #4]
    6520:	6094      	str	r4, [r2, #8]
    6522:	e7f5      	b.n	6510 <rt_mut_wait+0x3c>
    6524:	708b      	strb	r3, [r1, #2]
    6526:	68a0      	ldr	r0, [r4, #8]
    6528:	f7ff fd72 	bl	6010 <rt_resort_prio>
    652c:	6832      	ldr	r2, [r6, #0]
    652e:	e7e9      	b.n	6504 <rt_mut_wait+0x30>
    6530:	2001      	movs	r0, #1
    6532:	bd70      	pop	{r4, r5, r6, pc}
    6534:	1000072c 	.word	0x1000072c

00006538 <rt_sem_psh>:
    6538:	6842      	ldr	r2, [r0, #4]
    653a:	b510      	push	{r4, lr}
    653c:	b17a      	cbz	r2, 655e <rt_sem_psh+0x26>
    653e:	f7ff fcbd 	bl	5ebc <rt_get_first>
    6542:	4604      	mov	r4, r0
    6544:	f7ff fd7e 	bl	6044 <rt_rmv_dly>
    6548:	2101      	movs	r1, #1
    654a:	7061      	strb	r1, [r4, #1]
    654c:	4620      	mov	r0, r4
    654e:	f000 fb7b 	bl	6c48 <rt_ret_val>
    6552:	4621      	mov	r1, r4
    6554:	4804      	ldr	r0, [pc, #16]	; (6568 <rt_sem_psh+0x30>)
    6556:	e8bd 4010 	ldmia.w	sp!, {r4, lr}
    655a:	f7ff bc85 	b.w	5e68 <rt_put_prio>
    655e:	8842      	ldrh	r2, [r0, #2]
    6560:	3201      	adds	r2, #1
    6562:	8042      	strh	r2, [r0, #2]
    6564:	bd10      	pop	{r4, pc}
    6566:	bf00      	nop
    6568:	100006f8 	.word	0x100006f8

0000656c <rt_psh_req>:
    656c:	4b05      	ldr	r3, [pc, #20]	; (6584 <rt_psh_req+0x18>)
    656e:	781b      	ldrb	r3, [r3, #0]
    6570:	b11b      	cbz	r3, 657a <rt_psh_req+0xe>
    6572:	4b05      	ldr	r3, [pc, #20]	; (6588 <rt_psh_req+0x1c>)
    6574:	2201      	movs	r2, #1
    6576:	701a      	strb	r2, [r3, #0]
    6578:	4770      	bx	lr
    657a:	4b04      	ldr	r3, [pc, #16]	; (658c <rt_psh_req+0x20>)
    657c:	f04f 5280 	mov.w	r2, #268435456	; 0x10000000
    6580:	601a      	str	r2, [r3, #0]
    6582:	4770      	bx	lr
    6584:	10000455 	.word	0x10000455
    6588:	10000454 	.word	0x10000454
    658c:	e000ed04 	.word	0xe000ed04

00006590 <rt_pop_req>:
    6590:	4a1a      	ldr	r2, [pc, #104]	; (65fc <rt_pop_req+0x6c>)
    6592:	b538      	push	{r3, r4, r5, lr}
    6594:	6810      	ldr	r0, [r2, #0]
    6596:	2301      	movs	r3, #1
    6598:	4d19      	ldr	r5, [pc, #100]	; (6600 <rt_pop_req+0x70>)
    659a:	7043      	strb	r3, [r0, #1]
    659c:	f7ff fca2 	bl	5ee4 <rt_put_rdy_first>
    65a0:	78ab      	ldrb	r3, [r5, #2]
    65a2:	786c      	ldrb	r4, [r5, #1]
    65a4:	b993      	cbnz	r3, 65cc <rt_pop_req+0x3c>
    65a6:	e021      	b.n	65ec <rt_pop_req+0x5c>
    65a8:	2a01      	cmp	r2, #1
    65aa:	d01a      	beq.n	65e2 <rt_pop_req+0x52>
    65ac:	f7ff ffc4 	bl	6538 <rt_sem_psh>
    65b0:	78eb      	ldrb	r3, [r5, #3]
    65b2:	3401      	adds	r4, #1
    65b4:	429c      	cmp	r4, r3
    65b6:	bf08      	it	eq
    65b8:	2400      	moveq	r4, #0
    65ba:	f3ef 8310 	mrs	r3, PRIMASK
    65be:	b672      	cpsid	i
    65c0:	78ab      	ldrb	r3, [r5, #2]
    65c2:	3b01      	subs	r3, #1
    65c4:	b2db      	uxtb	r3, r3
    65c6:	70ab      	strb	r3, [r5, #2]
    65c8:	b662      	cpsie	i
    65ca:	b17b      	cbz	r3, 65ec <rt_pop_req+0x5c>
    65cc:	eb05 01c4 	add.w	r1, r5, r4, lsl #3
    65d0:	684b      	ldr	r3, [r1, #4]
    65d2:	781a      	ldrb	r2, [r3, #0]
    65d4:	4618      	mov	r0, r3
    65d6:	2a00      	cmp	r2, #0
    65d8:	d1e6      	bne.n	65a8 <rt_pop_req+0x18>
    65da:	8909      	ldrh	r1, [r1, #8]
    65dc:	f7ff fc1a 	bl	5e14 <rt_evt_psh>
    65e0:	e7e6      	b.n	65b0 <rt_pop_req+0x20>
    65e2:	4618      	mov	r0, r3
    65e4:	6889      	ldr	r1, [r1, #8]
    65e6:	f7ff fe4b 	bl	6280 <rt_mbx_psh>
    65ea:	e7e1      	b.n	65b0 <rt_pop_req+0x20>
    65ec:	4805      	ldr	r0, [pc, #20]	; (6604 <rt_pop_req+0x74>)
    65ee:	706c      	strb	r4, [r5, #1]
    65f0:	f7ff fc64 	bl	5ebc <rt_get_first>
    65f4:	e8bd 4038 	ldmia.w	sp!, {r3, r4, r5, lr}
    65f8:	f000 b894 	b.w	6724 <rt_switch_req>
    65fc:	1000072c 	.word	0x1000072c
    6600:	100009c4 	.word	0x100009c4
    6604:	100006f8 	.word	0x100006f8

00006608 <os_tick_init>:
    6608:	4b09      	ldr	r3, [pc, #36]	; (6630 <os_tick_init+0x28>)
    660a:	b470      	push	{r4, r5, r6}
    660c:	4809      	ldr	r0, [pc, #36]	; (6634 <os_tick_init+0x2c>)
    660e:	681e      	ldr	r6, [r3, #0]
    6610:	4d09      	ldr	r5, [pc, #36]	; (6638 <os_tick_init+0x30>)
    6612:	4a0a      	ldr	r2, [pc, #40]	; (663c <os_tick_init+0x34>)
    6614:	2400      	movs	r4, #0
    6616:	4b0a      	ldr	r3, [pc, #40]	; (6640 <os_tick_init+0x38>)
    6618:	2107      	movs	r1, #7
    661a:	602e      	str	r6, [r5, #0]
    661c:	6004      	str	r4, [r0, #0]
    661e:	6011      	str	r1, [r2, #0]
    6620:	681a      	ldr	r2, [r3, #0]
    6622:	f04f 30ff 	mov.w	r0, #4294967295	; 0xffffffff
    6626:	f042 427f 	orr.w	r2, r2, #4278190080	; 0xff000000
    662a:	601a      	str	r2, [r3, #0]
    662c:	bc70      	pop	{r4, r5, r6}
    662e:	4770      	bx	lr
    6630:	0000c034 	.word	0x0000c034
    6634:	e000e018 	.word	0xe000e018
    6638:	e000e014 	.word	0xe000e014
    663c:	e000e010 	.word	0xe000e010
    6640:	e000ed20 	.word	0xe000ed20

00006644 <os_tick_irqack>:
    6644:	4770      	bx	lr
    6646:	bf00      	nop

00006648 <rt_systick>:
    6648:	4a0b      	ldr	r2, [pc, #44]	; (6678 <rt_systick+0x30>)
    664a:	b508      	push	{r3, lr}
    664c:	6810      	ldr	r0, [r2, #0]
    664e:	2301      	movs	r3, #1
    6650:	7043      	strb	r3, [r0, #1]
    6652:	f7ff fc47 	bl	5ee4 <rt_put_rdy_first>
    6656:	f000 fb3d 	bl	6cd4 <rt_chk_robin>
    665a:	4b08      	ldr	r3, [pc, #32]	; (667c <rt_systick+0x34>)
    665c:	681a      	ldr	r2, [r3, #0]
    665e:	3201      	adds	r2, #1
    6660:	601a      	str	r2, [r3, #0]
    6662:	f7ff fc79 	bl	5f58 <rt_dec_dly>
    6666:	f7ff f8e1 	bl	582c <sysTimerTick>
    666a:	4805      	ldr	r0, [pc, #20]	; (6680 <rt_systick+0x38>)
    666c:	f7ff fc26 	bl	5ebc <rt_get_first>
    6670:	e8bd 4008 	ldmia.w	sp!, {r3, lr}
    6674:	f000 b856 	b.w	6724 <rt_switch_req>
    6678:	1000072c 	.word	0x1000072c
    667c:	10000764 	.word	0x10000764
    6680:	100006f8 	.word	0x100006f8

00006684 <rt_stk_check>:
    6684:	4b08      	ldr	r3, [pc, #32]	; (66a8 <rt_stk_check+0x24>)
    6686:	681b      	ldr	r3, [r3, #0]
    6688:	78da      	ldrb	r2, [r3, #3]
    668a:	2a01      	cmp	r2, #1
    668c:	d00a      	beq.n	66a4 <rt_stk_check+0x20>
    668e:	6a9a      	ldr	r2, [r3, #40]	; 0x28
    6690:	6a5b      	ldr	r3, [r3, #36]	; 0x24
    6692:	429a      	cmp	r2, r3
    6694:	d803      	bhi.n	669e <rt_stk_check+0x1a>
    6696:	6812      	ldr	r2, [r2, #0]
    6698:	4b04      	ldr	r3, [pc, #16]	; (66ac <rt_stk_check+0x28>)
    669a:	429a      	cmp	r2, r3
    669c:	d002      	beq.n	66a4 <rt_stk_check+0x20>
    669e:	2001      	movs	r0, #1
    66a0:	f000 badc 	b.w	6c5c <os_error>
    66a4:	4770      	bx	lr
    66a6:	bf00      	nop
    66a8:	1000072c 	.word	0x1000072c
    66ac:	e25a2ea5 	.word	0xe25a2ea5

000066b0 <rt_dispatch.part.0>:
    66b0:	b508      	push	{r3, lr}
    66b2:	4804      	ldr	r0, [pc, #16]	; (66c4 <rt_dispatch.part.0+0x14>)
    66b4:	f7ff fc02 	bl	5ebc <rt_get_first>
    66b8:	4a03      	ldr	r2, [pc, #12]	; (66c8 <rt_dispatch.part.0+0x18>)
    66ba:	2302      	movs	r3, #2
    66bc:	6050      	str	r0, [r2, #4]
    66be:	7043      	strb	r3, [r0, #1]
    66c0:	bd08      	pop	{r3, pc}
    66c2:	bf00      	nop
    66c4:	100006f8 	.word	0x100006f8
    66c8:	1000072c 	.word	0x1000072c

000066cc <rt_get_TID>:
    66cc:	4b09      	ldr	r3, [pc, #36]	; (66f4 <rt_get_TID+0x28>)
    66ce:	8818      	ldrh	r0, [r3, #0]
    66d0:	b168      	cbz	r0, 66ee <rt_get_TID+0x22>
    66d2:	4a09      	ldr	r2, [pc, #36]	; (66f8 <rt_get_TID+0x2c>)
    66d4:	6813      	ldr	r3, [r2, #0]
    66d6:	b15b      	cbz	r3, 66f0 <rt_get_TID+0x24>
    66d8:	2301      	movs	r3, #1
    66da:	e002      	b.n	66e2 <rt_get_TID+0x16>
    66dc:	f852 1f04 	ldr.w	r1, [r2, #4]!
    66e0:	b121      	cbz	r1, 66ec <rt_get_TID+0x20>
    66e2:	3301      	adds	r3, #1
    66e4:	4283      	cmp	r3, r0
    66e6:	d9f9      	bls.n	66dc <rt_get_TID+0x10>
    66e8:	2000      	movs	r0, #0
    66ea:	4770      	bx	lr
    66ec:	4618      	mov	r0, r3
    66ee:	4770      	bx	lr
    66f0:	2001      	movs	r0, #1
    66f2:	4770      	bx	lr
    66f4:	0000c020 	.word	0x0000c020
    66f8:	10000968 	.word	0x10000968

000066fc <rt_init_context>:
    66fc:	b430      	push	{r4, r5}
    66fe:	2400      	movs	r4, #0
    6700:	2501      	movs	r5, #1
    6702:	7081      	strb	r1, [r0, #2]
    6704:	7045      	strb	r5, [r0, #1]
    6706:	7004      	strb	r4, [r0, #0]
    6708:	6044      	str	r4, [r0, #4]
    670a:	6084      	str	r4, [r0, #8]
    670c:	60c4      	str	r4, [r0, #12]
    670e:	6104      	str	r4, [r0, #16]
    6710:	8284      	strh	r4, [r0, #20]
    6712:	82c4      	strh	r4, [r0, #22]
    6714:	8304      	strh	r4, [r0, #24]
    6716:	8344      	strh	r4, [r0, #26]
    6718:	f880 4020 	strb.w	r4, [r0, #32]
    671c:	4611      	mov	r1, r2
    671e:	bc30      	pop	{r4, r5}
    6720:	f000 ba6a 	b.w	6bf8 <rt_init_stack>

00006724 <rt_switch_req>:
    6724:	4b02      	ldr	r3, [pc, #8]	; (6730 <rt_switch_req+0xc>)
    6726:	2202      	movs	r2, #2
    6728:	6058      	str	r0, [r3, #4]
    672a:	7042      	strb	r2, [r0, #1]
    672c:	4770      	bx	lr
    672e:	bf00      	nop
    6730:	1000072c 	.word	0x1000072c

00006734 <rt_dispatch>:
    6734:	b538      	push	{r3, r4, r5, lr}
    6736:	4604      	mov	r4, r0
    6738:	b1b0      	cbz	r0, 6768 <rt_dispatch+0x34>
    673a:	4d0d      	ldr	r5, [pc, #52]	; (6770 <rt_dispatch+0x3c>)
    673c:	7882      	ldrb	r2, [r0, #2]
    673e:	6828      	ldr	r0, [r5, #0]
    6740:	7883      	ldrb	r3, [r0, #2]
    6742:	429a      	cmp	r2, r3
    6744:	d807      	bhi.n	6756 <rt_dispatch+0x22>
    6746:	2301      	movs	r3, #1
    6748:	7063      	strb	r3, [r4, #1]
    674a:	4621      	mov	r1, r4
    674c:	4809      	ldr	r0, [pc, #36]	; (6774 <rt_dispatch+0x40>)
    674e:	e8bd 4038 	ldmia.w	sp!, {r3, r4, r5, lr}
    6752:	f7ff bb89 	b.w	5e68 <rt_put_prio>
    6756:	f7ff fbc5 	bl	5ee4 <rt_put_rdy_first>
    675a:	682b      	ldr	r3, [r5, #0]
    675c:	2101      	movs	r1, #1
    675e:	2202      	movs	r2, #2
    6760:	7059      	strb	r1, [r3, #1]
    6762:	606c      	str	r4, [r5, #4]
    6764:	7062      	strb	r2, [r4, #1]
    6766:	bd38      	pop	{r3, r4, r5, pc}
    6768:	e8bd 4038 	ldmia.w	sp!, {r3, r4, r5, lr}
    676c:	f7ff bfa0 	b.w	66b0 <rt_dispatch.part.0>
    6770:	1000072c 	.word	0x1000072c
    6774:	100006f8 	.word	0x100006f8

00006778 <rt_block>:
    6778:	b538      	push	{r3, r4, r5, lr}
    677a:	460d      	mov	r5, r1
    677c:	b180      	cbz	r0, 67a0 <rt_block+0x28>
    677e:	f64f 73ff 	movw	r3, #65535	; 0xffff
    6782:	4298      	cmp	r0, r3
    6784:	4c07      	ldr	r4, [pc, #28]	; (67a4 <rt_block+0x2c>)
    6786:	d003      	beq.n	6790 <rt_block+0x18>
    6788:	4601      	mov	r1, r0
    678a:	6820      	ldr	r0, [r4, #0]
    678c:	f7ff fbb4 	bl	5ef8 <rt_put_dly>
    6790:	6823      	ldr	r3, [r4, #0]
    6792:	4805      	ldr	r0, [pc, #20]	; (67a8 <rt_block+0x30>)
    6794:	705d      	strb	r5, [r3, #1]
    6796:	f7ff fb91 	bl	5ebc <rt_get_first>
    679a:	2302      	movs	r3, #2
    679c:	6060      	str	r0, [r4, #4]
    679e:	7043      	strb	r3, [r0, #1]
    67a0:	bd38      	pop	{r3, r4, r5, pc}
    67a2:	bf00      	nop
    67a4:	1000072c 	.word	0x1000072c
    67a8:	100006f8 	.word	0x100006f8

000067ac <rt_tsk_self>:
    67ac:	4b02      	ldr	r3, [pc, #8]	; (67b8 <rt_tsk_self+0xc>)
    67ae:	6818      	ldr	r0, [r3, #0]
    67b0:	b100      	cbz	r0, 67b4 <rt_tsk_self+0x8>
    67b2:	78c0      	ldrb	r0, [r0, #3]
    67b4:	4770      	bx	lr
    67b6:	bf00      	nop
    67b8:	1000072c 	.word	0x1000072c

000067bc <rt_tsk_prio>:
    67bc:	b538      	push	{r3, r4, r5, lr}
    67be:	b948      	cbnz	r0, 67d4 <rt_tsk_prio+0x18>
    67c0:	4c18      	ldr	r4, [pc, #96]	; (6824 <rt_tsk_prio+0x68>)
    67c2:	6823      	ldr	r3, [r4, #0]
    67c4:	7099      	strb	r1, [r3, #2]
    67c6:	4818      	ldr	r0, [pc, #96]	; (6828 <rt_tsk_prio+0x6c>)
    67c8:	6843      	ldr	r3, [r0, #4]
    67ca:	789b      	ldrb	r3, [r3, #2]
    67cc:	428b      	cmp	r3, r1
    67ce:	d81e      	bhi.n	680e <rt_tsk_prio+0x52>
    67d0:	2000      	movs	r0, #0
    67d2:	bd38      	pop	{r3, r4, r5, pc}
    67d4:	4b15      	ldr	r3, [pc, #84]	; (682c <rt_tsk_prio+0x70>)
    67d6:	881b      	ldrh	r3, [r3, #0]
    67d8:	4298      	cmp	r0, r3
    67da:	d901      	bls.n	67e0 <rt_tsk_prio+0x24>
    67dc:	20ff      	movs	r0, #255	; 0xff
    67de:	bd38      	pop	{r3, r4, r5, pc}
    67e0:	4b13      	ldr	r3, [pc, #76]	; (6830 <rt_tsk_prio+0x74>)
    67e2:	3801      	subs	r0, #1
    67e4:	f853 5020 	ldr.w	r5, [r3, r0, lsl #2]
    67e8:	2d00      	cmp	r5, #0
    67ea:	d0f7      	beq.n	67dc <rt_tsk_prio+0x20>
    67ec:	4c0d      	ldr	r4, [pc, #52]	; (6824 <rt_tsk_prio+0x68>)
    67ee:	70a9      	strb	r1, [r5, #2]
    67f0:	6823      	ldr	r3, [r4, #0]
    67f2:	429d      	cmp	r5, r3
    67f4:	d0e7      	beq.n	67c6 <rt_tsk_prio+0xa>
    67f6:	4628      	mov	r0, r5
    67f8:	f7ff fc0a 	bl	6010 <rt_resort_prio>
    67fc:	786b      	ldrb	r3, [r5, #1]
    67fe:	2b01      	cmp	r3, #1
    6800:	d1e6      	bne.n	67d0 <rt_tsk_prio+0x14>
    6802:	4809      	ldr	r0, [pc, #36]	; (6828 <rt_tsk_prio+0x6c>)
    6804:	f7ff fb5a 	bl	5ebc <rt_get_first>
    6808:	f7ff ff94 	bl	6734 <rt_dispatch>
    680c:	e7e0      	b.n	67d0 <rt_tsk_prio+0x14>
    680e:	6821      	ldr	r1, [r4, #0]
    6810:	f7ff fb2a 	bl	5e68 <rt_put_prio>
    6814:	6823      	ldr	r3, [r4, #0]
    6816:	2201      	movs	r2, #1
    6818:	705a      	strb	r2, [r3, #1]
    681a:	f7ff ff49 	bl	66b0 <rt_dispatch.part.0>
    681e:	2000      	movs	r0, #0
    6820:	bd38      	pop	{r3, r4, r5, pc}
    6822:	bf00      	nop
    6824:	1000072c 	.word	0x1000072c
    6828:	100006f8 	.word	0x100006f8
    682c:	0000c020 	.word	0x0000c020
    6830:	10000968 	.word	0x10000968

00006834 <rt_tsk_delete>:
    6834:	b570      	push	{r4, r5, r6, lr}
    6836:	4c18      	ldr	r4, [pc, #96]	; (6898 <rt_tsk_delete+0x64>)
    6838:	6825      	ldr	r5, [r4, #0]
    683a:	b1d0      	cbz	r0, 6872 <rt_tsk_delete+0x3e>
    683c:	78eb      	ldrb	r3, [r5, #3]
    683e:	4283      	cmp	r3, r0
    6840:	d017      	beq.n	6872 <rt_tsk_delete+0x3e>
    6842:	4b16      	ldr	r3, [pc, #88]	; (689c <rt_tsk_delete+0x68>)
    6844:	881b      	ldrh	r3, [r3, #0]
    6846:	4298      	cmp	r0, r3
    6848:	d901      	bls.n	684e <rt_tsk_delete+0x1a>
    684a:	20ff      	movs	r0, #255	; 0xff
    684c:	bd70      	pop	{r4, r5, r6, pc}
    684e:	4d14      	ldr	r5, [pc, #80]	; (68a0 <rt_tsk_delete+0x6c>)
    6850:	1e46      	subs	r6, r0, #1
    6852:	f855 4026 	ldr.w	r4, [r5, r6, lsl #2]
    6856:	2c00      	cmp	r4, #0
    6858:	d0f7      	beq.n	684a <rt_tsk_delete+0x16>
    685a:	4620      	mov	r0, r4
    685c:	f7ff fbbe 	bl	5fdc <rt_rmv_list>
    6860:	4620      	mov	r0, r4
    6862:	f7ff fbef 	bl	6044 <rt_rmv_dly>
    6866:	2300      	movs	r3, #0
    6868:	f845 3026 	str.w	r3, [r5, r6, lsl #2]
    686c:	4618      	mov	r0, r3
    686e:	62a3      	str	r3, [r4, #40]	; 0x28
    6870:	bd70      	pop	{r4, r5, r6, pc}
    6872:	2600      	movs	r6, #0
    6874:	706e      	strb	r6, [r5, #1]
    6876:	f000 f92a 	bl	6ace <rt_get_PSP>
    687a:	6268      	str	r0, [r5, #36]	; 0x24
    687c:	f7ff ff02 	bl	6684 <rt_stk_check>
    6880:	6823      	ldr	r3, [r4, #0]
    6882:	4a07      	ldr	r2, [pc, #28]	; (68a0 <rt_tsk_delete+0x6c>)
    6884:	78d9      	ldrb	r1, [r3, #3]
    6886:	6026      	str	r6, [r4, #0]
    6888:	3901      	subs	r1, #1
    688a:	f842 6021 	str.w	r6, [r2, r1, lsl #2]
    688e:	629e      	str	r6, [r3, #40]	; 0x28
    6890:	f7ff ff0e 	bl	66b0 <rt_dispatch.part.0>
    6894:	4630      	mov	r0, r6
    6896:	bd70      	pop	{r4, r5, r6, pc}
    6898:	1000072c 	.word	0x1000072c
    689c:	0000c020 	.word	0x0000c020
    68a0:	10000968 	.word	0x10000968

000068a4 <rt_sys_init>:
    68a4:	b5f8      	push	{r3, r4, r5, r6, r7, lr}
    68a6:	4b30      	ldr	r3, [pc, #192]	; (6968 <rt_sys_init+0xc4>)
    68a8:	8819      	ldrh	r1, [r3, #0]
    68aa:	b139      	cbz	r1, 68bc <rt_sys_init+0x18>
    68ac:	2300      	movs	r3, #0
    68ae:	4a2f      	ldr	r2, [pc, #188]	; (696c <rt_sys_init+0xc8>)
    68b0:	4618      	mov	r0, r3
    68b2:	3301      	adds	r3, #1
    68b4:	4299      	cmp	r1, r3
    68b6:	f842 0f04 	str.w	r0, [r2, #4]!
    68ba:	d8fa      	bhi.n	68b2 <rt_sys_init+0xe>
    68bc:	4b2c      	ldr	r3, [pc, #176]	; (6970 <rt_sys_init+0xcc>)
    68be:	4c2d      	ldr	r4, [pc, #180]	; (6974 <rt_sys_init+0xd0>)
    68c0:	881f      	ldrh	r7, [r3, #0]
    68c2:	4a2d      	ldr	r2, [pc, #180]	; (6978 <rt_sys_init+0xd4>)
    68c4:	2500      	movs	r5, #0
    68c6:	2301      	movs	r3, #1
    68c8:	4620      	mov	r0, r4
    68ca:	26ff      	movs	r6, #255	; 0xff
    68cc:	492b      	ldr	r1, [pc, #172]	; (697c <rt_sys_init+0xd8>)
    68ce:	8467      	strh	r7, [r4, #34]	; 0x22
    68d0:	70e6      	strb	r6, [r4, #3]
    68d2:	62a2      	str	r2, [r4, #40]	; 0x28
    68d4:	7063      	strb	r3, [r4, #1]
    68d6:	7025      	strb	r5, [r4, #0]
    68d8:	70a5      	strb	r5, [r4, #2]
    68da:	6065      	str	r5, [r4, #4]
    68dc:	60a5      	str	r5, [r4, #8]
    68de:	60e5      	str	r5, [r4, #12]
    68e0:	6125      	str	r5, [r4, #16]
    68e2:	82a5      	strh	r5, [r4, #20]
    68e4:	82e5      	strh	r5, [r4, #22]
    68e6:	8325      	strh	r5, [r4, #24]
    68e8:	8365      	strh	r5, [r4, #26]
    68ea:	f884 5020 	strb.w	r5, [r4, #32]
    68ee:	f000 f983 	bl	6bf8 <rt_init_stack>
    68f2:	4b23      	ldr	r3, [pc, #140]	; (6980 <rt_sys_init+0xdc>)
    68f4:	4a23      	ldr	r2, [pc, #140]	; (6984 <rt_sys_init+0xe0>)
    68f6:	781e      	ldrb	r6, [r3, #0]
    68f8:	f8df e0a0 	ldr.w	lr, [pc, #160]	; 699c <rt_sys_init+0xf8>
    68fc:	4b22      	ldr	r3, [pc, #136]	; (6988 <rt_sys_init+0xe4>)
    68fe:	4823      	ldr	r0, [pc, #140]	; (698c <rt_sys_init+0xe8>)
    6900:	2702      	movs	r7, #2
    6902:	f8ce 4000 	str.w	r4, [lr]
    6906:	7067      	strb	r7, [r4, #1]
    6908:	2104      	movs	r1, #4
    690a:	70d6      	strb	r6, [r2, #3]
    690c:	7015      	strb	r5, [r2, #0]
    690e:	7055      	strb	r5, [r2, #1]
    6910:	7019      	strb	r1, [r3, #0]
    6912:	60dd      	str	r5, [r3, #12]
    6914:	611d      	str	r5, [r3, #16]
    6916:	829d      	strh	r5, [r3, #20]
    6918:	6045      	str	r5, [r0, #4]
    691a:	7001      	strb	r1, [r0, #0]
    691c:	f000 f9ce 	bl	6cbc <rt_init_robin>
    6920:	4b1b      	ldr	r3, [pc, #108]	; (6990 <rt_sys_init+0xec>)
    6922:	681a      	ldr	r2, [r3, #0]
    6924:	f442 027f 	orr.w	r2, r2, #16711680	; 0xff0000
    6928:	601a      	str	r2, [r3, #0]
    692a:	681b      	ldr	r3, [r3, #0]
    692c:	021b      	lsls	r3, r3, #8
    692e:	f003 437f 	and.w	r3, r3, #4278190080	; 0xff000000
    6932:	43db      	mvns	r3, r3
    6934:	fab3 f383 	clz	r3, r3
    6938:	4a16      	ldr	r2, [pc, #88]	; (6994 <rt_sys_init+0xf0>)
    693a:	b2db      	uxtb	r3, r3
    693c:	6812      	ldr	r2, [r2, #0]
    693e:	f1c3 0308 	rsb	r3, r3, #8
    6942:	f3c2 2202 	ubfx	r2, r2, #8, #3
    6946:	4293      	cmp	r3, r2
    6948:	dc00      	bgt.n	694c <rt_sys_init+0xa8>
    694a:	1c53      	adds	r3, r2, #1
    694c:	f06f 7280 	mvn.w	r2, #16777216	; 0x1000000
    6950:	fa02 f303 	lsl.w	r3, r2, r3
    6954:	4a10      	ldr	r2, [pc, #64]	; (6998 <rt_sys_init+0xf4>)
    6956:	f003 437f 	and.w	r3, r3, #4278190080	; 0xff000000
    695a:	6811      	ldr	r1, [r2, #0]
    695c:	f021 417f 	bic.w	r1, r1, #4278190080	; 0xff000000
    6960:	430b      	orrs	r3, r1
    6962:	6013      	str	r3, [r2, #0]
    6964:	bdf8      	pop	{r3, r4, r5, r6, r7, pc}
    6966:	bf00      	nop
    6968:	0000c020 	.word	0x0000c020
    696c:	10000964 	.word	0x10000964
    6970:	0000c02e 	.word	0x0000c02e
    6974:	10000734 	.word	0x10000734
    6978:	10000768 	.word	0x10000768
    697c:	00006c59 	.word	0x00006c59
    6980:	0000c030 	.word	0x0000c030
    6984:	100009c4 	.word	0x100009c4
    6988:	10000710 	.word	0x10000710
    698c:	100006f8 	.word	0x100006f8
    6990:	e000ed20 	.word	0xe000ed20
    6994:	e000ed0c 	.word	0xe000ed0c
    6998:	e000ed1c 	.word	0xe000ed1c
    699c:	1000072c 	.word	0x1000072c

000069a0 <rt_sys_start>:
    69a0:	b508      	push	{r3, lr}
    69a2:	f7ff fe31 	bl	6608 <os_tick_init>
    69a6:	4b0c      	ldr	r3, [pc, #48]	; (69d8 <rt_sys_start+0x38>)
    69a8:	2800      	cmp	r0, #0
    69aa:	6018      	str	r0, [r3, #0]
    69ac:	db12      	blt.n	69d4 <rt_sys_start+0x34>
    69ae:	f100 4060 	add.w	r0, r0, #3758096384	; 0xe0000000
    69b2:	22ff      	movs	r2, #255	; 0xff
    69b4:	f500 4064 	add.w	r0, r0, #58368	; 0xe400
    69b8:	7002      	strb	r2, [r0, #0]
    69ba:	681b      	ldr	r3, [r3, #0]
    69bc:	2101      	movs	r1, #1
    69be:	f003 021f 	and.w	r2, r3, #31
    69c2:	fa01 f202 	lsl.w	r2, r1, r2
    69c6:	115b      	asrs	r3, r3, #5
    69c8:	009b      	lsls	r3, r3, #2
    69ca:	f103 4360 	add.w	r3, r3, #3758096384	; 0xe0000000
    69ce:	f503 4361 	add.w	r3, r3, #57600	; 0xe100
    69d2:	601a      	str	r2, [r3, #0]
    69d4:	bd08      	pop	{r3, pc}
    69d6:	bf00      	nop
    69d8:	10000728 	.word	0x10000728

000069dc <rt_dly_wait>:
    69dc:	2103      	movs	r1, #3
    69de:	f7ff becb 	b.w	6778 <rt_block>
    69e2:	bf00      	nop

000069e4 <rtos::Mutex::Mutex()>:
    69e4:	b510      	push	{r4, lr}
    69e6:	2300      	movs	r3, #0
    69e8:	4604      	mov	r4, r0
    69ea:	f100 0208 	add.w	r2, r0, #8
    69ee:	7223      	strb	r3, [r4, #8]
    69f0:	7263      	strb	r3, [r4, #9]
    69f2:	72a3      	strb	r3, [r4, #10]
    69f4:	72e3      	strb	r3, [r4, #11]
    69f6:	7323      	strb	r3, [r4, #12]
    69f8:	7363      	strb	r3, [r4, #13]
    69fa:	73a3      	strb	r3, [r4, #14]
    69fc:	73e3      	strb	r3, [r4, #15]
    69fe:	7423      	strb	r3, [r4, #16]
    6a00:	7463      	strb	r3, [r4, #17]
    6a02:	74a3      	strb	r3, [r4, #18]
    6a04:	74e3      	strb	r3, [r4, #19]
    6a06:	f840 2f04 	str.w	r2, [r0, #4]!
    6a0a:	f7fe ff93 	bl	5934 <osMutexCreate>
    6a0e:	6020      	str	r0, [r4, #0]
    6a10:	b108      	cbz	r0, 6a16 <rtos::Mutex::Mutex()+0x32>
    6a12:	4620      	mov	r0, r4
    6a14:	bd10      	pop	{r4, pc}
    6a16:	4802      	ldr	r0, [pc, #8]	; (6a20 <rtos::Mutex::Mutex()+0x3c>)
    6a18:	f000 f9dc 	bl	6dd4 <error>
    6a1c:	4620      	mov	r0, r4
    6a1e:	bd10      	pop	{r4, pc}
    6a20:	0000bfc0 	.word	0x0000bfc0

00006a24 <rtos::Mutex::lock(unsigned long)>:
    6a24:	6800      	ldr	r0, [r0, #0]
    6a26:	f7fe bf9f 	b.w	5968 <osMutexWait>
    6a2a:	bf00      	nop

00006a2c <rtos::Mutex::unlock()>:
    6a2c:	6800      	ldr	r0, [r0, #0]
    6a2e:	f7fe bfa7 	b.w	5980 <osMutexRelease>
    6a32:	bf00      	nop

00006a34 <rtos::Thread::~Thread()>:
    6a34:	4b07      	ldr	r3, [pc, #28]	; (6a54 <rtos::Thread::~Thread()+0x20>)
    6a36:	b510      	push	{r4, lr}
    6a38:	6003      	str	r3, [r0, #0]
    6a3a:	4604      	mov	r4, r0
    6a3c:	6840      	ldr	r0, [r0, #4]
    6a3e:	f7fe feb3 	bl	57a8 <osThreadTerminate>
    6a42:	f894 3048 	ldrb.w	r3, [r4, #72]	; 0x48
    6a46:	b11b      	cbz	r3, 6a50 <rtos::Thread::~Thread()+0x1c>
    6a48:	6960      	ldr	r0, [r4, #20]
    6a4a:	b108      	cbz	r0, 6a50 <rtos::Thread::~Thread()+0x1c>
    6a4c:	f001 fb1e 	bl	808c <operator delete[](void*)>
    6a50:	4620      	mov	r0, r4
    6a52:	bd10      	pop	{r4, pc}
    6a54:	0000c018 	.word	0x0000c018

00006a58 <rtos::Thread::~Thread()>:
    6a58:	b510      	push	{r4, lr}
    6a5a:	4604      	mov	r4, r0
    6a5c:	f7ff ffea 	bl	6a34 <rtos::Thread::~Thread()>
    6a60:	4620      	mov	r0, r4
    6a62:	f001 fb0f 	bl	8084 <operator delete(void*)>
    6a66:	4620      	mov	r0, r4
    6a68:	bd10      	pop	{r4, pc}
    6a6a:	bf00      	nop

00006a6c <rtos::Thread::Thread(void (*)(void const*), void*, osPriority, unsigned long, unsigned char*)>:
    6a6c:	b5f0      	push	{r4, r5, r6, r7, lr}
    6a6e:	b083      	sub	sp, #12
    6a70:	4f12      	ldr	r7, [pc, #72]	; (6abc <rtos::Thread::Thread(void (*)(void const*), void*, osPriority, unsigned long, unsigned char*)+0x50>)
    6a72:	9e08      	ldr	r6, [sp, #32]
    6a74:	9d09      	ldr	r5, [sp, #36]	; 0x24
    6a76:	4604      	mov	r4, r0
    6a78:	6081      	str	r1, [r0, #8]
    6a7a:	8183      	strh	r3, [r0, #12]
    6a7c:	6007      	str	r7, [r0, #0]
    6a7e:	6106      	str	r6, [r0, #16]
    6a80:	b165      	cbz	r5, 6a9c <rtos::Thread::Thread(void (*)(void const*), void*, osPriority, unsigned long, unsigned char*)+0x30>
    6a82:	2300      	movs	r3, #0
    6a84:	6145      	str	r5, [r0, #20]
    6a86:	f880 3048 	strb.w	r3, [r0, #72]	; 0x48
    6a8a:	4611      	mov	r1, r2
    6a8c:	f104 0008 	add.w	r0, r4, #8
    6a90:	f7fe fe70 	bl	5774 <osThreadCreate>
    6a94:	6060      	str	r0, [r4, #4]
    6a96:	4620      	mov	r0, r4
    6a98:	b003      	add	sp, #12
    6a9a:	bdf0      	pop	{r4, r5, r6, r7, pc}
    6a9c:	4630      	mov	r0, r6
    6a9e:	9201      	str	r2, [sp, #4]
    6aa0:	f001 fb0a 	bl	80b8 <operator new[](unsigned int)>
    6aa4:	9a01      	ldr	r2, [sp, #4]
    6aa6:	6160      	str	r0, [r4, #20]
    6aa8:	b118      	cbz	r0, 6ab2 <rtos::Thread::Thread(void (*)(void const*), void*, osPriority, unsigned long, unsigned char*)+0x46>
    6aaa:	2301      	movs	r3, #1
    6aac:	f884 3048 	strb.w	r3, [r4, #72]	; 0x48
    6ab0:	e7eb      	b.n	6a8a <rtos::Thread::Thread(void (*)(void const*), void*, osPriority, unsigned long, unsigned char*)+0x1e>
    6ab2:	4803      	ldr	r0, [pc, #12]	; (6ac0 <rtos::Thread::Thread(void (*)(void const*), void*, osPriority, unsigned long, unsigned char*)+0x54>)
    6ab4:	f000 f98e 	bl	6dd4 <error>
    6ab8:	9a01      	ldr	r2, [sp, #4]
    6aba:	e7f6      	b.n	6aaa <rtos::Thread::Thread(void (*)(void const*), void*, osPriority, unsigned long, unsigned char*)+0x3e>
    6abc:	0000c018 	.word	0x0000c018
    6ac0:	0000bfe8 	.word	0x0000bfe8

00006ac4 <rtos::Thread::wait(unsigned long)>:
    6ac4:	f7fe be9a 	b.w	57fc <osDelay>

00006ac8 <rt_set_PSP>:
    6ac8:	f380 8809 	msr	PSP, r0
    6acc:	4770      	bx	lr

00006ace <rt_get_PSP>:
    6ace:	f3ef 8009 	mrs	r0, PSP
    6ad2:	4770      	bx	lr

00006ad4 <os_set_env>:
    6ad4:	4668      	mov	r0, sp
    6ad6:	f380 8809 	msr	PSP, r0
    6ada:	4841      	ldr	r0, [pc, #260]	; (6be0 <OS_Tick_Handler+0xe>)
    6adc:	7800      	ldrb	r0, [r0, #0]
    6ade:	07c0      	lsls	r0, r0, #31
    6ae0:	bf14      	ite	ne
    6ae2:	2002      	movne	r0, #2
    6ae4:	2003      	moveq	r0, #3
    6ae6:	f380 8814 	msr	CONTROL, r0
    6aea:	4770      	bx	lr

00006aec <_alloc_box>:
    6aec:	f8df c0f4 	ldr.w	r12, [pc, #244]	; 6be4 <OS_Tick_Handler+0x12>
    6af0:	f3ef 8305 	mrs	r3, IPSR
    6af4:	061b      	lsls	r3, r3, #24
    6af6:	bf18      	it	ne
    6af8:	4760      	bxne	r12
    6afa:	f3ef 8314 	mrs	r3, CONTROL
    6afe:	07db      	lsls	r3, r3, #31
    6b00:	bf08      	it	eq
    6b02:	4760      	bxeq	r12
    6b04:	df00      	svc	0
    6b06:	4770      	bx	lr

00006b08 <_free_box>:
    6b08:	f8df c0dc 	ldr.w	r12, [pc, #220]	; 6be8 <OS_Tick_Handler+0x16>
    6b0c:	f3ef 8305 	mrs	r3, IPSR
    6b10:	061b      	lsls	r3, r3, #24
    6b12:	bf18      	it	ne
    6b14:	4760      	bxne	r12
    6b16:	f3ef 8314 	mrs	r3, CONTROL
    6b1a:	07db      	lsls	r3, r3, #31
    6b1c:	bf08      	it	eq
    6b1e:	4760      	bxeq	r12
    6b20:	df00      	svc	0
    6b22:	4770      	bx	lr

00006b24 <SVC_Handler>:
    6b24:	f3ef 8009 	mrs	r0, PSP
    6b28:	6981      	ldr	r1, [r0, #24]
    6b2a:	f811 1c02 	ldrb.w	r1, [r1, #-2]
    6b2e:	b9f9      	cbnz	r1, 6b70 <SVC_User>
    6b30:	e890 100f 	ldmia.w	r0, {r0, r1, r2, r3, r12}
    6b34:	47e0      	blx	r12
    6b36:	f3ef 8c09 	mrs	r12, PSP
    6b3a:	e88c 0007 	stmia.w	r12, {r0, r1, r2}
    6b3e:	4b2b      	ldr	r3, [pc, #172]	; (6bec <OS_Tick_Handler+0x1a>)
    6b40:	e893 0006 	ldmia.w	r3, {r1, r2}
    6b44:	4291      	cmp	r1, r2
    6b46:	f000 8010 	beq.w	6b6a <SVC_Exit>
    6b4a:	b139      	cbz	r1, 6b5c <SVC_Next>
    6b4c:	e92c 0ff0 	stmdb	r12!, {r4, r5, r6, r7, r8, r9, r10, r11}
    6b50:	f8c1 c024 	str.w	r12, [r1, #36]	; 0x24
    6b54:	b40c      	push	{r2, r3}
    6b56:	f7ff fd95 	bl	6684 <rt_stk_check>
    6b5a:	bc0c      	pop	{r2, r3}

00006b5c <SVC_Next>:
    6b5c:	601a      	str	r2, [r3, #0]
    6b5e:	f8d2 c024 	ldr.w	r12, [r2, #36]	; 0x24
    6b62:	e8bc 0ff0 	ldmia.w	r12!, {r4, r5, r6, r7, r8, r9, r10, r11}
    6b66:	f38c 8809 	msr	PSP, r12

00006b6a <SVC_Exit>:
    6b6a:	f06f 0e02 	mvn.w	lr, #2
    6b6e:	4770      	bx	lr

00006b70 <SVC_User>:
    6b70:	b510      	push	{r4, lr}
    6b72:	4a1f      	ldr	r2, [pc, #124]	; (6bf0 <OS_Tick_Handler+0x1e>)
    6b74:	6812      	ldr	r2, [r2, #0]
    6b76:	4291      	cmp	r1, r2
    6b78:	f200 800a 	bhi.w	6b90 <SVC_Done>
    6b7c:	4c1d      	ldr	r4, [pc, #116]	; (6bf4 <OS_Tick_Handler+0x22>)
    6b7e:	f854 4021 	ldr.w	r4, [r4, r1, lsl #2]
    6b82:	e890 100f 	ldmia.w	r0, {r0, r1, r2, r3, r12}
    6b86:	47a0      	blx	r4
    6b88:	f3ef 8c09 	mrs	r12, PSP
    6b8c:	e88c 000f 	stmia.w	r12, {r0, r1, r2, r3}

00006b90 <SVC_Done>:
    6b90:	bd10      	pop	{r4, pc}

00006b92 <PendSV_Handler>:
    6b92:	f7ff fcfd 	bl	6590 <rt_pop_req>

00006b96 <Sys_Switch>:
    6b96:	4b15      	ldr	r3, [pc, #84]	; (6bec <OS_Tick_Handler+0x1a>)
    6b98:	e893 0006 	ldmia.w	r3, {r1, r2}
    6b9c:	4291      	cmp	r1, r2
    6b9e:	f000 8011 	beq.w	6bc4 <Sys_Exit>
    6ba2:	f3ef 8c09 	mrs	r12, PSP
    6ba6:	e92c 0ff0 	stmdb	r12!, {r4, r5, r6, r7, r8, r9, r10, r11}
    6baa:	f8c1 c024 	str.w	r12, [r1, #36]	; 0x24
    6bae:	b40c      	push	{r2, r3}
    6bb0:	f7ff fd68 	bl	6684 <rt_stk_check>
    6bb4:	bc0c      	pop	{r2, r3}
    6bb6:	601a      	str	r2, [r3, #0]
    6bb8:	f8d2 c024 	ldr.w	r12, [r2, #36]	; 0x24
    6bbc:	e8bc 0ff0 	ldmia.w	r12!, {r4, r5, r6, r7, r8, r9, r10, r11}
    6bc0:	f38c 8809 	msr	PSP, r12

00006bc4 <Sys_Exit>:
    6bc4:	f06f 0e02 	mvn.w	lr, #2
    6bc8:	4770      	bx	lr

00006bca <SysTick_Handler>:
    6bca:	f7ff fd3d 	bl	6648 <rt_systick>
    6bce:	f7ff bfe2 	b.w	6b96 <Sys_Switch>

00006bd2 <OS_Tick_Handler>:
    6bd2:	f7ff fd37 	bl	6644 <os_tick_irqack>
    6bd6:	f7ff fd37 	bl	6648 <rt_systick>
    6bda:	f7ff bfdc 	b.w	6b96 <Sys_Switch>
    6bde:	0000      	.short	0x0000
    6be0:	0000c02c 	.word	0x0000c02c
    6be4:	000063bd 	.word	0x000063bd
    6be8:	000063d9 	.word	0x000063d9
    6bec:	1000072c 	.word	0x1000072c
    6bf0:	00000000 	.word	0x00000000
    6bf4:	fffffffc 	.word	0xfffffffc

00006bf8 <rt_init_stack>:
    6bf8:	b4f0      	push	{r4, r5, r6, r7}
    6bfa:	8c45      	ldrh	r5, [r0, #34]	; 0x22
    6bfc:	6a86      	ldr	r6, [r0, #40]	; 0x28
    6bfe:	08ad      	lsrs	r5, r5, #2
    6c00:	eb06 0585 	add.w	r5, r6, r5, lsl #2
    6c04:	076b      	lsls	r3, r5, #29
    6c06:	bf48      	it	mi
    6c08:	3d04      	submi	r5, #4
    6c0a:	f04f 7380 	mov.w	r3, #16777216	; 0x1000000
    6c0e:	e905 000a 	stmdb	r5, {r1, r3}
    6c12:	f1a5 0740 	sub.w	r7, r5, #64	; 0x40
    6c16:	f1a5 0344 	sub.w	r3, r5, #68	; 0x44
    6c1a:	f1a5 040c 	sub.w	r4, r5, #12
    6c1e:	2200      	movs	r2, #0
    6c20:	f843 2f04 	str.w	r2, [r3, #4]!
    6c24:	42a3      	cmp	r3, r4
    6c26:	d1fb      	bne.n	6c20 <rt_init_stack+0x28>
    6c28:	69c3      	ldr	r3, [r0, #28]
    6c2a:	f845 3c20 	str.w	r3, [r5, #-32]
    6c2e:	78c3      	ldrb	r3, [r0, #3]
    6c30:	6247      	str	r7, [r0, #36]	; 0x24
    6c32:	2b01      	cmp	r3, #1
    6c34:	bf18      	it	ne
    6c36:	4b03      	ldrne	r3, [pc, #12]	; (6c44 <rt_init_stack+0x4c>)
    6c38:	62c1      	str	r1, [r0, #44]	; 0x2c
    6c3a:	bf18      	it	ne
    6c3c:	6033      	strne	r3, [r6, #0]
    6c3e:	bcf0      	pop	{r4, r5, r6, r7}
    6c40:	4770      	bx	lr
    6c42:	bf00      	nop
    6c44:	e25a2ea5 	.word	0xe25a2ea5

00006c48 <rt_ret_val>:
    6c48:	6a43      	ldr	r3, [r0, #36]	; 0x24
    6c4a:	6219      	str	r1, [r3, #32]
    6c4c:	4770      	bx	lr
    6c4e:	bf00      	nop

00006c50 <rt_ret_val2>:
    6c50:	6a43      	ldr	r3, [r0, #36]	; 0x24
    6c52:	6219      	str	r1, [r3, #32]
    6c54:	625a      	str	r2, [r3, #36]	; 0x24
    6c56:	4770      	bx	lr

00006c58 <os_idle_demon>:
    6c58:	e7fe      	b.n	6c58 <os_idle_demon>
    6c5a:	bf00      	nop

00006c5c <os_error>:
    6c5c:	f000 b880 	b.w	6d60 <mbed_die>

00006c60 <sysThreadError>:
    6c60:	b900      	cbnz	r0, 6c64 <sysThreadError+0x4>
    6c62:	4770      	bx	lr
    6c64:	f000 b87c 	b.w	6d60 <mbed_die>

00006c68 <set_main_stack>:
    6c68:	4904      	ldr	r1, [pc, #16]	; (6c7c <set_main_stack+0x14>)
    6c6a:	4a05      	ldr	r2, [pc, #20]	; (6c80 <set_main_stack+0x18>)
    6c6c:	f1c1 5380 	rsb	r3, r1, #268435456	; 0x10000000
    6c70:	f503 43f8 	add.w	r3, r3, #31744	; 0x7c00
    6c74:	6093      	str	r3, [r2, #8]
    6c76:	60d1      	str	r1, [r2, #12]
    6c78:	4770      	bx	lr
    6c7a:	bf00      	nop
    6c7c:	10001268 	.word	0x10001268
    6c80:	100000c8 	.word	0x100000c8

00006c84 <software_init_hook>:
    6c84:	2000      	movs	r0, #0
    6c86:	2100      	movs	r1, #0
    6c88:	4604      	mov	r4, r0
    6c8a:	460d      	mov	r5, r1
    6c8c:	4809      	ldr	r0, [pc, #36]	; (6cb4 <software_init_hook+0x30>)
    6c8e:	f001 fa15 	bl	80bc <atexit>
    6c92:	f001 fd19 	bl	86c8 <__libc_init_array>
    6c96:	4620      	mov	r0, r4
    6c98:	4629      	mov	r1, r5
    6c9a:	f7fe fccf 	bl	563c <osKernelInitialize>
    6c9e:	f7ff ffe3 	bl	6c68 <set_main_stack>
    6ca2:	4805      	ldr	r0, [pc, #20]	; (6cb8 <software_init_hook+0x34>)
    6ca4:	2100      	movs	r1, #0
    6ca6:	f7fe fd65 	bl	5774 <osThreadCreate>
    6caa:	f7fe fcdb 	bl	5664 <osKernelStart>
    6cae:	f000 f8a3 	bl	6df8 <exit>
    6cb2:	0000      	.short	0x0000
    6cb4:	00008489 	.word	0x00008489
    6cb8:	100000c8 	.word	0x100000c8

00006cbc <rt_init_robin>:
    6cbc:	4a03      	ldr	r2, [pc, #12]	; (6ccc <rt_init_robin+0x10>)
    6cbe:	4b04      	ldr	r3, [pc, #16]	; (6cd0 <rt_init_robin+0x14>)
    6cc0:	6811      	ldr	r1, [r2, #0]
    6cc2:	2200      	movs	r2, #0
    6cc4:	80d9      	strh	r1, [r3, #6]
    6cc6:	601a      	str	r2, [r3, #0]
    6cc8:	4770      	bx	lr
    6cca:	bf00      	nop
    6ccc:	0000c028 	.word	0x0000c028
    6cd0:	10001250 	.word	0x10001250

00006cd4 <rt_chk_robin>:
    6cd4:	4a10      	ldr	r2, [pc, #64]	; (6d18 <rt_chk_robin+0x44>)
    6cd6:	b508      	push	{r3, lr}
    6cd8:	4b10      	ldr	r3, [pc, #64]	; (6d1c <rt_chk_robin+0x48>)
    6cda:	6851      	ldr	r1, [r2, #4]
    6cdc:	681a      	ldr	r2, [r3, #0]
    6cde:	428a      	cmp	r2, r1
    6ce0:	d016      	beq.n	6d10 <rt_chk_robin+0x3c>
    6ce2:	480f      	ldr	r0, [pc, #60]	; (6d20 <rt_chk_robin+0x4c>)
    6ce4:	88da      	ldrh	r2, [r3, #6]
    6ce6:	6800      	ldr	r0, [r0, #0]
    6ce8:	3a01      	subs	r2, #1
    6cea:	4402      	add	r2, r0
    6cec:	b292      	uxth	r2, r2
    6cee:	6019      	str	r1, [r3, #0]
    6cf0:	809a      	strh	r2, [r3, #4]
    6cf2:	b280      	uxth	r0, r0
    6cf4:	4290      	cmp	r0, r2
    6cf6:	d000      	beq.n	6cfa <rt_chk_robin+0x26>
    6cf8:	bd08      	pop	{r3, pc}
    6cfa:	2200      	movs	r2, #0
    6cfc:	4806      	ldr	r0, [pc, #24]	; (6d18 <rt_chk_robin+0x44>)
    6cfe:	601a      	str	r2, [r3, #0]
    6d00:	f7ff f8dc 	bl	5ebc <rt_get_first>
    6d04:	e8bd 4008 	ldmia.w	sp!, {r3, lr}
    6d08:	4601      	mov	r1, r0
    6d0a:	4803      	ldr	r0, [pc, #12]	; (6d18 <rt_chk_robin+0x44>)
    6d0c:	f7ff b8ac 	b.w	5e68 <rt_put_prio>
    6d10:	4903      	ldr	r1, [pc, #12]	; (6d20 <rt_chk_robin+0x4c>)
    6d12:	889a      	ldrh	r2, [r3, #4]
    6d14:	6808      	ldr	r0, [r1, #0]
    6d16:	e7ec      	b.n	6cf2 <rt_chk_robin+0x1e>
    6d18:	100006f8 	.word	0x100006f8
    6d1c:	10001250 	.word	0x10001250
    6d20:	10000764 	.word	0x10000764

00006d24 <NVIC_SetVector>:
    6d24:	4a0c      	ldr	r2, [pc, #48]	; (6d58 <NVIC_SetVector+0x34>)
    6d26:	b430      	push	{r4, r5}
    6d28:	6893      	ldr	r3, [r2, #8]
    6d2a:	6894      	ldr	r4, [r2, #8]
    6d2c:	461a      	mov	r2, r3
    6d2e:	f1b4 5f80 	cmp.w	r4, #268435456	; 0x10000000
    6d32:	d20c      	bcs.n	6d4e <NVIC_SetVector+0x2a>
    6d34:	4a09      	ldr	r2, [pc, #36]	; (6d5c <NVIC_SetVector+0x38>)
    6d36:	f103 05c4 	add.w	r5, r3, #196	; 0xc4
    6d3a:	f853 4b04 	ldr.w	r4, [r3], #4
    6d3e:	42ab      	cmp	r3, r5
    6d40:	f842 4f04 	str.w	r4, [r2, #4]!
    6d44:	d1f9      	bne.n	6d3a <NVIC_SetVector+0x16>
    6d46:	4b04      	ldr	r3, [pc, #16]	; (6d58 <NVIC_SetVector+0x34>)
    6d48:	f04f 5280 	mov.w	r2, #268435456	; 0x10000000
    6d4c:	609a      	str	r2, [r3, #8]
    6d4e:	3010      	adds	r0, #16
    6d50:	f842 1020 	str.w	r1, [r2, r0, lsl #2]
    6d54:	bc30      	pop	{r4, r5}
    6d56:	4770      	bx	lr
    6d58:	e000ed00 	.word	0xe000ed00
    6d5c:	0ffffffc 	.word	0x0ffffffc

00006d60 <mbed_die>:
    6d60:	b500      	push	{lr}
    6d62:	b099      	sub	sp, #100	; 0x64
    6d64:	b672      	cpsid	i
    6d66:	4917      	ldr	r1, [pc, #92]	; (6dc4 <mbed_die+0x64>)
    6d68:	4668      	mov	r0, sp
    6d6a:	f000 f86f 	bl	6e4c <gpio_init_out>
    6d6e:	a806      	add	r0, sp, #24
    6d70:	4915      	ldr	r1, [pc, #84]	; (6dc8 <mbed_die+0x68>)
    6d72:	f000 f86b 	bl	6e4c <gpio_init_out>
    6d76:	a80c      	add	r0, sp, #48	; 0x30
    6d78:	4914      	ldr	r1, [pc, #80]	; (6dcc <mbed_die+0x6c>)
    6d7a:	f000 f867 	bl	6e4c <gpio_init_out>
    6d7e:	a812      	add	r0, sp, #72	; 0x48
    6d80:	4913      	ldr	r1, [pc, #76]	; (6dd0 <mbed_die+0x70>)
    6d82:	f000 f863 	bl	6e4c <gpio_init_out>
    6d86:	9b03      	ldr	r3, [sp, #12]
    6d88:	9a01      	ldr	r2, [sp, #4]
    6d8a:	980a      	ldr	r0, [sp, #40]	; 0x28
    6d8c:	601a      	str	r2, [r3, #0]
    6d8e:	9b07      	ldr	r3, [sp, #28]
    6d90:	9910      	ldr	r1, [sp, #64]	; 0x40
    6d92:	6003      	str	r3, [r0, #0]
    6d94:	9b0d      	ldr	r3, [sp, #52]	; 0x34
    6d96:	9a15      	ldr	r2, [sp, #84]	; 0x54
    6d98:	600b      	str	r3, [r1, #0]
    6d9a:	9b13      	ldr	r3, [sp, #76]	; 0x4c
    6d9c:	2096      	movs	r0, #150	; 0x96
    6d9e:	6013      	str	r3, [r2, #0]
    6da0:	f000 f8ba 	bl	6f18 <wait_ms>
    6da4:	9b04      	ldr	r3, [sp, #16]
    6da6:	9a01      	ldr	r2, [sp, #4]
    6da8:	9809      	ldr	r0, [sp, #36]	; 0x24
    6daa:	601a      	str	r2, [r3, #0]
    6dac:	9b07      	ldr	r3, [sp, #28]
    6dae:	990f      	ldr	r1, [sp, #60]	; 0x3c
    6db0:	6003      	str	r3, [r0, #0]
    6db2:	9b0d      	ldr	r3, [sp, #52]	; 0x34
    6db4:	9a16      	ldr	r2, [sp, #88]	; 0x58
    6db6:	600b      	str	r3, [r1, #0]
    6db8:	9b13      	ldr	r3, [sp, #76]	; 0x4c
    6dba:	2096      	movs	r0, #150	; 0x96
    6dbc:	6013      	str	r3, [r2, #0]
    6dbe:	f000 f8ab 	bl	6f18 <wait_ms>
    6dc2:	e7e0      	b.n	6d86 <mbed_die+0x26>
    6dc4:	2009c032 	.word	0x2009c032
    6dc8:	2009c034 	.word	0x2009c034
    6dcc:	2009c035 	.word	0x2009c035
    6dd0:	2009c037 	.word	0x2009c037

00006dd4 <error>:
    6dd4:	b40f      	push	{r0, r1, r2, r3}
    6dd6:	b500      	push	{lr}
    6dd8:	4a06      	ldr	r2, [pc, #24]	; (6df4 <error+0x20>)
    6dda:	b083      	sub	sp, #12
    6ddc:	ab04      	add	r3, sp, #16
    6dde:	6812      	ldr	r2, [r2, #0]
    6de0:	f853 1b04 	ldr.w	r1, [r3], #4
    6de4:	68d0      	ldr	r0, [r2, #12]
    6de6:	461a      	mov	r2, r3
    6de8:	9301      	str	r3, [sp, #4]
    6dea:	f003 f991 	bl	a110 <vfiprintf>
    6dee:	2001      	movs	r0, #1
    6df0:	f000 f802 	bl	6df8 <exit>
    6df4:	100001b8 	.word	0x100001b8

00006df8 <exit>:
    6df8:	4c0a      	ldr	r4, [pc, #40]	; (6e24 <exit+0x2c>)
    6dfa:	b508      	push	{r3, lr}
    6dfc:	6823      	ldr	r3, [r4, #0]
    6dfe:	4605      	mov	r5, r0
    6e00:	6898      	ldr	r0, [r3, #8]
    6e02:	f001 fa6f 	bl	82e4 <fflush>
    6e06:	6823      	ldr	r3, [r4, #0]
    6e08:	68d8      	ldr	r0, [r3, #12]
    6e0a:	f001 fa6b 	bl	82e4 <fflush>
    6e0e:	f000 f84f 	bl	6eb0 <mbed_interface_connected>
    6e12:	b920      	cbnz	r0, 6e1e <exit+0x26>
    6e14:	b905      	cbnz	r5, 6e18 <exit+0x20>
    6e16:	e7fe      	b.n	6e16 <exit+0x1e>
    6e18:	f7ff ffa2 	bl	6d60 <mbed_die>
    6e1c:	e7fb      	b.n	6e16 <exit+0x1e>
    6e1e:	f000 f85b 	bl	6ed8 <semihost_exit>
    6e22:	e7f7      	b.n	6e14 <exit+0x1c>
    6e24:	100001b8 	.word	0x100001b8

00006e28 <gpio_init_in>:
    6e28:	b538      	push	{r3, r4, r5, lr}
    6e2a:	460d      	mov	r5, r1
    6e2c:	4604      	mov	r4, r0
    6e2e:	f000 fa65 	bl	72fc <gpio_init>
    6e32:	3501      	adds	r5, #1
    6e34:	d009      	beq.n	6e4a <gpio_init_in+0x22>
    6e36:	4620      	mov	r0, r4
    6e38:	2100      	movs	r1, #0
    6e3a:	f000 fa7f 	bl	733c <gpio_dir>
    6e3e:	4620      	mov	r0, r4
    6e40:	2103      	movs	r1, #3
    6e42:	e8bd 4038 	ldmia.w	sp!, {r3, r4, r5, lr}
    6e46:	f000 ba75 	b.w	7334 <gpio_mode>
    6e4a:	bd38      	pop	{r3, r4, r5, pc}

00006e4c <gpio_init_out>:
    6e4c:	b538      	push	{r3, r4, r5, lr}
    6e4e:	460d      	mov	r5, r1
    6e50:	4604      	mov	r4, r0
    6e52:	f000 fa53 	bl	72fc <gpio_init>
    6e56:	3501      	adds	r5, #1
    6e58:	d00c      	beq.n	6e74 <gpio_init_out+0x28>
    6e5a:	6923      	ldr	r3, [r4, #16]
    6e5c:	6862      	ldr	r2, [r4, #4]
    6e5e:	4620      	mov	r0, r4
    6e60:	601a      	str	r2, [r3, #0]
    6e62:	2101      	movs	r1, #1
    6e64:	f000 fa6a 	bl	733c <gpio_dir>
    6e68:	4620      	mov	r0, r4
    6e6a:	2102      	movs	r1, #2
    6e6c:	e8bd 4038 	ldmia.w	sp!, {r3, r4, r5, lr}
    6e70:	f000 ba60 	b.w	7334 <gpio_mode>
    6e74:	bd38      	pop	{r3, r4, r5, pc}
    6e76:	bf00      	nop

00006e78 <gpio_init_out_ex>:
    6e78:	b570      	push	{r4, r5, r6, lr}
    6e7a:	460d      	mov	r5, r1
    6e7c:	4616      	mov	r6, r2
    6e7e:	4604      	mov	r4, r0
    6e80:	f000 fa3c 	bl	72fc <gpio_init>
    6e84:	3501      	adds	r5, #1
    6e86:	d011      	beq.n	6eac <gpio_init_out_ex+0x34>
    6e88:	b966      	cbnz	r6, 6ea4 <gpio_init_out_ex+0x2c>
    6e8a:	6923      	ldr	r3, [r4, #16]
    6e8c:	6862      	ldr	r2, [r4, #4]
    6e8e:	601a      	str	r2, [r3, #0]
    6e90:	4620      	mov	r0, r4
    6e92:	2101      	movs	r1, #1
    6e94:	f000 fa52 	bl	733c <gpio_dir>
    6e98:	4620      	mov	r0, r4
    6e9a:	2102      	movs	r1, #2
    6e9c:	e8bd 4070 	ldmia.w	sp!, {r4, r5, r6, lr}
    6ea0:	f000 ba48 	b.w	7334 <gpio_mode>
    6ea4:	68e3      	ldr	r3, [r4, #12]
    6ea6:	6862      	ldr	r2, [r4, #4]
    6ea8:	601a      	str	r2, [r3, #0]
    6eaa:	e7f1      	b.n	6e90 <gpio_init_out_ex+0x18>
    6eac:	bd70      	pop	{r4, r5, r6, pc}
    6eae:	bf00      	nop

00006eb0 <mbed_interface_connected>:
    6eb0:	f000 b81e 	b.w	6ef0 <semihost_connected>

00006eb4 <time>:
    6eb4:	b538      	push	{r3, r4, r5, lr}
    6eb6:	4604      	mov	r4, r0
    6eb8:	f000 faae 	bl	7418 <rtc_isenabled>
    6ebc:	4605      	mov	r5, r0
    6ebe:	b120      	cbz	r0, 6eca <time+0x16>
    6ec0:	f000 fab2 	bl	7428 <rtc_read>
    6ec4:	b104      	cbz	r4, 6ec8 <time+0x14>
    6ec6:	6020      	str	r0, [r4, #0]
    6ec8:	bd38      	pop	{r3, r4, r5, pc}
    6eca:	f000 fa91 	bl	73f0 <rtc_init>
    6ece:	4628      	mov	r0, r5
    6ed0:	f000 faca 	bl	7468 <rtc_write>
    6ed4:	e7f4      	b.n	6ec0 <time+0xc>
    6ed6:	bf00      	nop

00006ed8 <semihost_exit>:
    6ed8:	b530      	push	{r4, r5, lr}
    6eda:	b085      	sub	sp, #20
    6edc:	2418      	movs	r4, #24
    6ede:	466d      	mov	r5, sp
    6ee0:	4620      	mov	r0, r4
    6ee2:	4629      	mov	r1, r5
    6ee4:	beab      	bkpt	0x00ab
    6ee6:	4604      	mov	r4, r0
    6ee8:	4620      	mov	r0, r4
    6eea:	b005      	add	sp, #20
    6eec:	bd30      	pop	{r4, r5, pc}
    6eee:	bf00      	nop

00006ef0 <semihost_connected>:
    6ef0:	4b02      	ldr	r3, [pc, #8]	; (6efc <semihost_connected+0xc>)
    6ef2:	6818      	ldr	r0, [r3, #0]
    6ef4:	f000 0001 	and.w	r0, r0, #1
    6ef8:	4770      	bx	lr
    6efa:	bf00      	nop
    6efc:	e000edf0 	.word	0xe000edf0

00006f00 <wait_us>:
    6f00:	b538      	push	{r3, r4, r5, lr}
    6f02:	4605      	mov	r5, r0
    6f04:	f000 fef8 	bl	7cf8 <us_ticker_read>
    6f08:	4604      	mov	r4, r0
    6f0a:	f000 fef5 	bl	7cf8 <us_ticker_read>
    6f0e:	1b00      	subs	r0, r0, r4
    6f10:	42a8      	cmp	r0, r5
    6f12:	d3fa      	bcc.n	6f0a <wait_us+0xa>
    6f14:	bd38      	pop	{r3, r4, r5, pc}
    6f16:	bf00      	nop

00006f18 <wait_ms>:
    6f18:	f44f 737a 	mov.w	r3, #1000	; 0x3e8
    6f1c:	fb03 f000 	mul.w	r0, r3, r0
    6f20:	f7ff bfee 	b.w	6f00 <wait_us>

00006f24 <mbed::FileSystemLike::remove(char const*)>:
    6f24:	f04f 30ff 	mov.w	r0, #4294967295	; 0xffffffff
    6f28:	4770      	bx	lr
    6f2a:	bf00      	nop

00006f2c <mbed::FileSystemLike::rename(char const*, char const*)>:
    6f2c:	f04f 30ff 	mov.w	r0, #4294967295	; 0xffffffff
    6f30:	4770      	bx	lr
    6f32:	bf00      	nop

00006f34 <mbed::FileSystemLike::opendir(char const*)>:
    6f34:	2000      	movs	r0, #0
    6f36:	4770      	bx	lr

00006f38 <mbed::FileSystemLike::mkdir(char const*, unsigned int)>:
    6f38:	f04f 30ff 	mov.w	r0, #4294967295	; 0xffffffff
    6f3c:	4770      	bx	lr
    6f3e:	bf00      	nop

00006f40 <mbed::FileSystemLike::~FileSystemLike()>:
    6f40:	b510      	push	{r4, lr}
    6f42:	4b03      	ldr	r3, [pc, #12]	; (6f50 <mbed::FileSystemLike::~FileSystemLike()+0x10>)
    6f44:	4604      	mov	r4, r0
    6f46:	6003      	str	r3, [r0, #0]
    6f48:	f000 ffde 	bl	7f08 <mbed::FileBase::~FileBase()>
    6f4c:	4620      	mov	r0, r4
    6f4e:	bd10      	pop	{r4, pc}
    6f50:	0000c040 	.word	0x0000c040

00006f54 <mbed::FileSystemLike::~FileSystemLike()>:
    6f54:	b510      	push	{r4, lr}
    6f56:	4b05      	ldr	r3, [pc, #20]	; (6f6c <mbed::FileSystemLike::~FileSystemLike()+0x18>)
    6f58:	4604      	mov	r4, r0
    6f5a:	6003      	str	r3, [r0, #0]
    6f5c:	f000 ffd4 	bl	7f08 <mbed::FileBase::~FileBase()>
    6f60:	4620      	mov	r0, r4
    6f62:	f001 f88f 	bl	8084 <operator delete(void*)>
    6f66:	4620      	mov	r0, r4
    6f68:	bd10      	pop	{r4, pc}
    6f6a:	bf00      	nop
    6f6c:	0000c040 	.word	0x0000c040

00006f70 <mbed::FileSystemLike::FileSystemLike(char const*)>:
    6f70:	b510      	push	{r4, lr}
    6f72:	2201      	movs	r2, #1
    6f74:	4604      	mov	r4, r0
    6f76:	f000 fffd 	bl	7f74 <mbed::FileBase::FileBase(char const*, mbed::PathType)>
    6f7a:	4b02      	ldr	r3, [pc, #8]	; (6f84 <mbed::FileSystemLike::FileSystemLike(char const*)+0x14>)
    6f7c:	4620      	mov	r0, r4
    6f7e:	6023      	str	r3, [r4, #0]
    6f80:	bd10      	pop	{r4, pc}
    6f82:	bf00      	nop
    6f84:	0000c040 	.word	0x0000c040

00006f88 <mbed::FunctionPointer::FunctionPointer(void (*)())>:
    6f88:	2200      	movs	r2, #0
    6f8a:	e880 0006 	stmia.w	r0, {r1, r2}
    6f8e:	6182      	str	r2, [r0, #24]
    6f90:	4770      	bx	lr
    6f92:	bf00      	nop

00006f94 <mbed::FunctionPointer::call()>:
    6f94:	b508      	push	{r3, lr}
    6f96:	6803      	ldr	r3, [r0, #0]
    6f98:	4601      	mov	r1, r0
    6f9a:	b10b      	cbz	r3, 6fa0 <mbed::FunctionPointer::call()+0xc>
    6f9c:	4798      	blx	r3
    6f9e:	bd08      	pop	{r3, pc}
    6fa0:	6840      	ldr	r0, [r0, #4]
    6fa2:	b110      	cbz	r0, 6faa <mbed::FunctionPointer::call()+0x16>
    6fa4:	698b      	ldr	r3, [r1, #24]
    6fa6:	3108      	adds	r1, #8
    6fa8:	4798      	blx	r3
    6faa:	bd08      	pop	{r3, pc}

00006fac <mbed::FileHandle::flen()>:
    6fac:	6803      	ldr	r3, [r0, #0]
    6fae:	b570      	push	{r4, r5, r6, lr}
    6fb0:	691b      	ldr	r3, [r3, #16]
    6fb2:	2100      	movs	r1, #0
    6fb4:	2201      	movs	r2, #1
    6fb6:	4604      	mov	r4, r0
    6fb8:	4798      	blx	r3
    6fba:	1c43      	adds	r3, r0, #1
    6fbc:	4605      	mov	r5, r0
    6fbe:	d00e      	beq.n	6fde <mbed::FileHandle::flen()+0x32>
    6fc0:	6823      	ldr	r3, [r4, #0]
    6fc2:	4620      	mov	r0, r4
    6fc4:	691b      	ldr	r3, [r3, #16]
    6fc6:	2100      	movs	r1, #0
    6fc8:	2202      	movs	r2, #2
    6fca:	4798      	blx	r3
    6fcc:	6823      	ldr	r3, [r4, #0]
    6fce:	4606      	mov	r6, r0
    6fd0:	4629      	mov	r1, r5
    6fd2:	691b      	ldr	r3, [r3, #16]
    6fd4:	4620      	mov	r0, r4
    6fd6:	2200      	movs	r2, #0
    6fd8:	4798      	blx	r3
    6fda:	4630      	mov	r0, r6
    6fdc:	bd70      	pop	{r4, r5, r6, pc}
    6fde:	bd70      	pop	{r4, r5, r6, pc}

00006fe0 <mbed::FileHandle::~FileHandle()>:
    6fe0:	4a08      	ldr	r2, [pc, #32]	; (7004 <mbed::FileHandle::~FileHandle()+0x24>)
    6fe2:	4b09      	ldr	r3, [pc, #36]	; (7008 <mbed::FileHandle::~FileHandle()+0x28>)
    6fe4:	b410      	push	{r4}
    6fe6:	6002      	str	r2, [r0, #0]
    6fe8:	f503 7180 	add.w	r1, r3, #256	; 0x100
    6fec:	2400      	movs	r4, #0
    6fee:	f853 2b04 	ldr.w	r2, [r3], #4
    6ff2:	4282      	cmp	r2, r0
    6ff4:	bf08      	it	eq
    6ff6:	f843 4c04 	streq.w	r4, [r3, #-4]
    6ffa:	428b      	cmp	r3, r1
    6ffc:	d1f7      	bne.n	6fee <mbed::FileHandle::~FileHandle()+0xe>
    6ffe:	f85d 4b04 	ldr.w	r4, [sp], #4
    7002:	4770      	bx	lr
    7004:	0000c080 	.word	0x0000c080
    7008:	10000458 	.word	0x10000458

0000700c <mbed::FileHandle::~FileHandle()>:
    700c:	4a0a      	ldr	r2, [pc, #40]	; (7038 <mbed::FileHandle::~FileHandle()+0x2c>)
    700e:	4b0b      	ldr	r3, [pc, #44]	; (703c <mbed::FileHandle::~FileHandle()+0x30>)
    7010:	b510      	push	{r4, lr}
    7012:	f503 7180 	add.w	r1, r3, #256	; 0x100
    7016:	4604      	mov	r4, r0
    7018:	6002      	str	r2, [r0, #0]
    701a:	2000      	movs	r0, #0
    701c:	f853 2b04 	ldr.w	r2, [r3], #4
    7020:	4294      	cmp	r4, r2
    7022:	bf08      	it	eq
    7024:	f843 0c04 	streq.w	r0, [r3, #-4]
    7028:	428b      	cmp	r3, r1
    702a:	d1f7      	bne.n	701c <mbed::FileHandle::~FileHandle()+0x10>
    702c:	4620      	mov	r0, r4
    702e:	f001 f829 	bl	8084 <operator delete(void*)>
    7032:	4620      	mov	r0, r4
    7034:	bd10      	pop	{r4, pc}
    7036:	bf00      	nop
    7038:	0000c080 	.word	0x0000c080
    703c:	10000458 	.word	0x10000458

00007040 <init_serial() [clone .part.0]>:
    7040:	4802      	ldr	r0, [pc, #8]	; (704c <init_serial() [clone .part.0]+0xc>)
    7042:	4903      	ldr	r1, [pc, #12]	; (7050 <init_serial() [clone .part.0]+0x10>)
    7044:	4a03      	ldr	r2, [pc, #12]	; (7054 <init_serial() [clone .part.0]+0x14>)
    7046:	f000 bd59 	b.w	7afc <serial_init>
    704a:	bf00      	nop
    704c:	10001258 	.word	0x10001258
    7050:	2009c002 	.word	0x2009c002
    7054:	2009c003 	.word	0x2009c003

00007058 <_open>:
    7058:	b5f0      	push	{r4, r5, r6, r7, lr}
    705a:	460f      	mov	r7, r1
    705c:	b085      	sub	sp, #20
    705e:	4937      	ldr	r1, [pc, #220]	; (713c <_open+0xe4>)
    7060:	4606      	mov	r6, r0
    7062:	f002 fa04 	bl	946e <strcmp>
    7066:	b928      	cbnz	r0, 7074 <_open+0x1c>
    7068:	4b35      	ldr	r3, [pc, #212]	; (7140 <_open+0xe8>)
    706a:	681b      	ldr	r3, [r3, #0]
    706c:	2b00      	cmp	r3, #0
    706e:	d043      	beq.n	70f8 <_open+0xa0>
    7070:	b005      	add	sp, #20
    7072:	bdf0      	pop	{r4, r5, r6, r7, pc}
    7074:	4630      	mov	r0, r6
    7076:	4933      	ldr	r1, [pc, #204]	; (7144 <_open+0xec>)
    7078:	f002 f9f9 	bl	946e <strcmp>
    707c:	b930      	cbnz	r0, 708c <_open+0x34>
    707e:	4b30      	ldr	r3, [pc, #192]	; (7140 <_open+0xe8>)
    7080:	681b      	ldr	r3, [r3, #0]
    7082:	2b00      	cmp	r3, #0
    7084:	d043      	beq.n	710e <_open+0xb6>
    7086:	2001      	movs	r0, #1
    7088:	b005      	add	sp, #20
    708a:	bdf0      	pop	{r4, r5, r6, r7, pc}
    708c:	4630      	mov	r0, r6
    708e:	492e      	ldr	r1, [pc, #184]	; (7148 <_open+0xf0>)
    7090:	f002 f9ed 	bl	946e <strcmp>
    7094:	2800      	cmp	r0, #0
    7096:	d035      	beq.n	7104 <_open+0xac>
    7098:	4b2c      	ldr	r3, [pc, #176]	; (714c <_open+0xf4>)
    709a:	2400      	movs	r4, #0
    709c:	e002      	b.n	70a4 <_open+0x4c>
    709e:	3401      	adds	r4, #1
    70a0:	2c40      	cmp	r4, #64	; 0x40
    70a2:	d03d      	beq.n	7120 <_open+0xc8>
    70a4:	f853 5f04 	ldr.w	r5, [r3, #4]!
    70a8:	2d00      	cmp	r5, #0
    70aa:	d1f8      	bne.n	709e <_open+0x46>
    70ac:	7833      	ldrb	r3, [r6, #0]
    70ae:	2b3a      	cmp	r3, #58	; 0x3a
    70b0:	d03d      	beq.n	712e <_open+0xd6>
    70b2:	4631      	mov	r1, r6
    70b4:	a802      	add	r0, sp, #8
    70b6:	f000 ff8d 	bl	7fd4 <mbed::FilePath::FilePath(char const*)>
    70ba:	a802      	add	r0, sp, #8
    70bc:	f000 ffdc 	bl	8078 <mbed::FilePath::exists()>
    70c0:	2800      	cmp	r0, #0
    70c2:	d02d      	beq.n	7120 <_open+0xc8>
    70c4:	a802      	add	r0, sp, #8
    70c6:	f000 ffbf 	bl	8048 <mbed::FilePath::isFile()>
    70ca:	bb20      	cbnz	r0, 7116 <_open+0xbe>
    70cc:	a802      	add	r0, sp, #8
    70ce:	f000 ffaf 	bl	8030 <mbed::FilePath::fileSystem()>
    70d2:	4605      	mov	r5, r0
    70d4:	b320      	cbz	r0, 7120 <_open+0xc8>
    70d6:	6803      	ldr	r3, [r0, #0]
    70d8:	a802      	add	r0, sp, #8
    70da:	689e      	ldr	r6, [r3, #8]
    70dc:	f000 ffa6 	bl	802c <mbed::FilePath::fileName()>
    70e0:	463a      	mov	r2, r7
    70e2:	4601      	mov	r1, r0
    70e4:	4628      	mov	r0, r5
    70e6:	47b0      	blx	r6
    70e8:	4603      	mov	r3, r0
    70ea:	b1cb      	cbz	r3, 7120 <_open+0xc8>
    70ec:	4a18      	ldr	r2, [pc, #96]	; (7150 <_open+0xf8>)
    70ee:	1ce0      	adds	r0, r4, #3
    70f0:	f842 3024 	str.w	r3, [r2, r4, lsl #2]
    70f4:	b005      	add	sp, #20
    70f6:	bdf0      	pop	{r4, r5, r6, r7, pc}
    70f8:	9001      	str	r0, [sp, #4]
    70fa:	f7ff ffa1 	bl	7040 <init_serial() [clone .part.0]>
    70fe:	9801      	ldr	r0, [sp, #4]
    7100:	b005      	add	sp, #20
    7102:	bdf0      	pop	{r4, r5, r6, r7, pc}
    7104:	4b0e      	ldr	r3, [pc, #56]	; (7140 <_open+0xe8>)
    7106:	681b      	ldr	r3, [r3, #0]
    7108:	b16b      	cbz	r3, 7126 <_open+0xce>
    710a:	2002      	movs	r0, #2
    710c:	e7b0      	b.n	7070 <_open+0x18>
    710e:	f7ff ff97 	bl	7040 <init_serial() [clone .part.0]>
    7112:	2001      	movs	r0, #1
    7114:	e7ac      	b.n	7070 <_open+0x18>
    7116:	a802      	add	r0, sp, #8
    7118:	f000 ffa0 	bl	805c <mbed::FilePath::file()>
    711c:	4603      	mov	r3, r0
    711e:	e7e4      	b.n	70ea <_open+0x92>
    7120:	f04f 30ff 	mov.w	r0, #4294967295	; 0xffffffff
    7124:	e7a4      	b.n	7070 <_open+0x18>
    7126:	f7ff ff8b 	bl	7040 <init_serial() [clone .part.0]>
    712a:	2002      	movs	r0, #2
    712c:	e7a0      	b.n	7070 <_open+0x18>
    712e:	4630      	mov	r0, r6
    7130:	4908      	ldr	r1, [pc, #32]	; (7154 <_open+0xfc>)
    7132:	aa02      	add	r2, sp, #8
    7134:	f002 f92c 	bl	9390 <siscanf>
    7138:	9b02      	ldr	r3, [sp, #8]
    713a:	e7d6      	b.n	70ea <_open+0x92>
    713c:	0000c060 	.word	0x0000c060
    7140:	10000558 	.word	0x10000558
    7144:	0000c070 	.word	0x0000c070
    7148:	0000c068 	.word	0x0000c068
    714c:	10000454 	.word	0x10000454
    7150:	10000458 	.word	0x10000458
    7154:	0000c0a8 	.word	0x0000c0a8

00007158 <_close>:
    7158:	2802      	cmp	r0, #2
    715a:	b508      	push	{r3, lr}
    715c:	dd0b      	ble.n	7176 <_close+0x1e>
    715e:	4b08      	ldr	r3, [pc, #32]	; (7180 <_close+0x28>)
    7160:	1ec2      	subs	r2, r0, #3
    7162:	f853 0022 	ldr.w	r0, [r3, r2, lsl #2]
    7166:	2100      	movs	r1, #0
    7168:	f843 1022 	str.w	r1, [r3, r2, lsl #2]
    716c:	b128      	cbz	r0, 717a <_close+0x22>
    716e:	6803      	ldr	r3, [r0, #0]
    7170:	685b      	ldr	r3, [r3, #4]
    7172:	4798      	blx	r3
    7174:	bd08      	pop	{r3, pc}
    7176:	2000      	movs	r0, #0
    7178:	bd08      	pop	{r3, pc}
    717a:	f04f 30ff 	mov.w	r0, #4294967295	; 0xffffffff
    717e:	bd08      	pop	{r3, pc}
    7180:	10000458 	.word	0x10000458

00007184 <_write>:
    7184:	2802      	cmp	r0, #2
    7186:	b570      	push	{r4, r5, r6, lr}
    7188:	460c      	mov	r4, r1
    718a:	4616      	mov	r6, r2
    718c:	dc0f      	bgt.n	71ae <_write+0x2a>
    718e:	4b0e      	ldr	r3, [pc, #56]	; (71c8 <_write+0x44>)
    7190:	681b      	ldr	r3, [r3, #0]
    7192:	b90b      	cbnz	r3, 7198 <_write+0x14>
    7194:	f7ff ff54 	bl	7040 <init_serial() [clone .part.0]>
    7198:	19a5      	adds	r5, r4, r6
    719a:	b136      	cbz	r6, 71aa <_write+0x26>
    719c:	f814 1b01 	ldrb.w	r1, [r4], #1
    71a0:	480a      	ldr	r0, [pc, #40]	; (71cc <_write+0x48>)
    71a2:	f000 fbfb 	bl	799c <serial_putc>
    71a6:	42ac      	cmp	r4, r5
    71a8:	d1f8      	bne.n	719c <_write+0x18>
    71aa:	4630      	mov	r0, r6
    71ac:	bd70      	pop	{r4, r5, r6, pc}
    71ae:	4b08      	ldr	r3, [pc, #32]	; (71d0 <_write+0x4c>)
    71b0:	3803      	subs	r0, #3
    71b2:	f853 0020 	ldr.w	r0, [r3, r0, lsl #2]
    71b6:	b118      	cbz	r0, 71c0 <_write+0x3c>
    71b8:	6803      	ldr	r3, [r0, #0]
    71ba:	681b      	ldr	r3, [r3, #0]
    71bc:	4798      	blx	r3
    71be:	bd70      	pop	{r4, r5, r6, pc}
    71c0:	f04f 30ff 	mov.w	r0, #4294967295	; 0xffffffff
    71c4:	bd70      	pop	{r4, r5, r6, pc}
    71c6:	bf00      	nop
    71c8:	10000558 	.word	0x10000558
    71cc:	10001258 	.word	0x10001258
    71d0:	10000458 	.word	0x10000458

000071d4 <_read>:
    71d4:	2802      	cmp	r0, #2
    71d6:	b510      	push	{r4, lr}
    71d8:	460c      	mov	r4, r1
    71da:	dc09      	bgt.n	71f0 <_read+0x1c>
    71dc:	4b0d      	ldr	r3, [pc, #52]	; (7214 <_read+0x40>)
    71de:	681b      	ldr	r3, [r3, #0]
    71e0:	b18b      	cbz	r3, 7206 <_read+0x32>
    71e2:	480d      	ldr	r0, [pc, #52]	; (7218 <_read+0x44>)
    71e4:	f000 fb8e 	bl	7904 <serial_getc>
    71e8:	2301      	movs	r3, #1
    71ea:	7020      	strb	r0, [r4, #0]
    71ec:	4618      	mov	r0, r3
    71ee:	bd10      	pop	{r4, pc}
    71f0:	4b0a      	ldr	r3, [pc, #40]	; (721c <_read+0x48>)
    71f2:	3803      	subs	r0, #3
    71f4:	f853 0020 	ldr.w	r0, [r3, r0, lsl #2]
    71f8:	b140      	cbz	r0, 720c <_read+0x38>
    71fa:	6803      	ldr	r3, [r0, #0]
    71fc:	689b      	ldr	r3, [r3, #8]
    71fe:	4798      	blx	r3
    7200:	4603      	mov	r3, r0
    7202:	4618      	mov	r0, r3
    7204:	bd10      	pop	{r4, pc}
    7206:	f7ff ff1b 	bl	7040 <init_serial() [clone .part.0]>
    720a:	e7ea      	b.n	71e2 <_read+0xe>
    720c:	f04f 33ff 	mov.w	r3, #4294967295	; 0xffffffff
    7210:	e7ec      	b.n	71ec <_read+0x18>
    7212:	bf00      	nop
    7214:	10000558 	.word	0x10000558
    7218:	10001258 	.word	0x10001258
    721c:	10000458 	.word	0x10000458

00007220 <_isatty>:
    7220:	2802      	cmp	r0, #2
    7222:	b508      	push	{r3, lr}
    7224:	dd08      	ble.n	7238 <_isatty+0x18>
    7226:	4b07      	ldr	r3, [pc, #28]	; (7244 <_isatty+0x24>)
    7228:	3803      	subs	r0, #3
    722a:	f853 0020 	ldr.w	r0, [r3, r0, lsl #2]
    722e:	b128      	cbz	r0, 723c <_isatty+0x1c>
    7230:	6803      	ldr	r3, [r0, #0]
    7232:	68db      	ldr	r3, [r3, #12]
    7234:	4798      	blx	r3
    7236:	bd08      	pop	{r3, pc}
    7238:	2001      	movs	r0, #1
    723a:	bd08      	pop	{r3, pc}
    723c:	f04f 30ff 	mov.w	r0, #4294967295	; 0xffffffff
    7240:	bd08      	pop	{r3, pc}
    7242:	bf00      	nop
    7244:	10000458 	.word	0x10000458

00007248 <_lseek>:
    7248:	2802      	cmp	r0, #2
    724a:	b508      	push	{r3, lr}
    724c:	dd08      	ble.n	7260 <_lseek+0x18>
    724e:	4b07      	ldr	r3, [pc, #28]	; (726c <_lseek+0x24>)
    7250:	3803      	subs	r0, #3
    7252:	f853 0020 	ldr.w	r0, [r3, r0, lsl #2]
    7256:	b128      	cbz	r0, 7264 <_lseek+0x1c>
    7258:	6803      	ldr	r3, [r0, #0]
    725a:	691b      	ldr	r3, [r3, #16]
    725c:	4798      	blx	r3
    725e:	bd08      	pop	{r3, pc}
    7260:	2000      	movs	r0, #0
    7262:	bd08      	pop	{r3, pc}
    7264:	f04f 30ff 	mov.w	r0, #4294967295	; 0xffffffff
    7268:	bd08      	pop	{r3, pc}
    726a:	bf00      	nop
    726c:	10000458 	.word	0x10000458

00007270 <_fstat>:
    7270:	2802      	cmp	r0, #2
    7272:	b508      	push	{r3, lr}
    7274:	d804      	bhi.n	7280 <_fstat+0x10>
    7276:	f44f 5300 	mov.w	r3, #8192	; 0x2000
    727a:	604b      	str	r3, [r1, #4]
    727c:	2000      	movs	r0, #0
    727e:	bd08      	pop	{r3, pc}
    7280:	f000 ff22 	bl	80c8 <__errno>
    7284:	2309      	movs	r3, #9
    7286:	6003      	str	r3, [r0, #0]
    7288:	f04f 30ff 	mov.w	r0, #4294967295	; 0xffffffff
    728c:	bd08      	pop	{r3, pc}
    728e:	bf00      	nop

00007290 <_sbrk>:
    7290:	4a07      	ldr	r2, [pc, #28]	; (72b0 <_sbrk+0x20>)
    7292:	6813      	ldr	r3, [r2, #0]
    7294:	4418      	add	r0, r3
    7296:	f3ef 8108 	mrs	r1, MSP
    729a:	4288      	cmp	r0, r1
    729c:	d202      	bcs.n	72a4 <_sbrk+0x14>
    729e:	6010      	str	r0, [r2, #0]
    72a0:	4618      	mov	r0, r3
    72a2:	4770      	bx	lr
    72a4:	4b03      	ldr	r3, [pc, #12]	; (72b4 <_sbrk+0x24>)
    72a6:	220c      	movs	r2, #12
    72a8:	601a      	str	r2, [r3, #0]
    72aa:	f04f 30ff 	mov.w	r0, #4294967295	; 0xffffffff
    72ae:	4770      	bx	lr
    72b0:	10000150 	.word	0x10000150
    72b4:	10001260 	.word	0x10001260

000072b8 <Reset_Handler>:
    72b8:	4906      	ldr	r1, [pc, #24]	; (72d4 <Reset_Handler+0x1c>)
    72ba:	4a07      	ldr	r2, [pc, #28]	; (72d8 <Reset_Handler+0x20>)
    72bc:	4b07      	ldr	r3, [pc, #28]	; (72dc <Reset_Handler+0x24>)
    72be:	429a      	cmp	r2, r3
    72c0:	bfbe      	ittt	lt
    72c2:	f851 0b04 	ldrlt.w	r0, [r1], #4
    72c6:	f842 0b04 	strlt.w	r0, [r2], #4
    72ca:	e7f8      	blt.n	72be <Reset_Handler+0x6>
    72cc:	4804      	ldr	r0, [pc, #16]	; (72e0 <Reset_Handler+0x28>)
    72ce:	4780      	blx	r0
    72d0:	4804      	ldr	r0, [pc, #16]	; (72e4 <Reset_Handler+0x2c>)
    72d2:	4700      	bx	r0
    72d4:	0000caa4 	.word	0x0000caa4
    72d8:	100000c8 	.word	0x100000c8
    72dc:	1000020c 	.word	0x1000020c
    72e0:	00007d45 	.word	0x00007d45
    72e4:	00000201 	.word	0x00000201

000072e8 <NMI_Handler>:
    72e8:	e7fe      	b.n	72e8 <NMI_Handler>

000072ea <HardFault_Handler>:
    72ea:	e7fe      	b.n	72ea <HardFault_Handler>

000072ec <MemManage_Handler>:
    72ec:	e7fe      	b.n	72ec <MemManage_Handler>

000072ee <BusFault_Handler>:
    72ee:	e7fe      	b.n	72ee <BusFault_Handler>

000072f0 <UsageFault_Handler>:
    72f0:	e7fe      	b.n	72f0 <UsageFault_Handler>
    72f2:	e7fe      	b.n	72f2 <UsageFault_Handler+0x2>

000072f4 <DebugMon_Handler>:
    72f4:	e7fe      	b.n	72f4 <DebugMon_Handler>
    72f6:	e7fe      	b.n	72f6 <DebugMon_Handler+0x2>
    72f8:	e7fe      	b.n	72f8 <DebugMon_Handler+0x4>

000072fa <ADC_IRQHandler>:
    72fa:	e7fe      	b.n	72fa <ADC_IRQHandler>

000072fc <gpio_init>:
    72fc:	b538      	push	{r3, r4, r5, lr}
    72fe:	4604      	mov	r4, r0
    7300:	1c4b      	adds	r3, r1, #1
    7302:	460d      	mov	r5, r1
    7304:	6021      	str	r1, [r4, #0]
    7306:	d014      	beq.n	7332 <gpio_init+0x36>
    7308:	4608      	mov	r0, r1
    730a:	2100      	movs	r1, #0
    730c:	f000 f828 	bl	7360 <pin_function>
    7310:	f005 031f 	and.w	r3, r5, #31
    7314:	2001      	movs	r0, #1
    7316:	4098      	lsls	r0, r3
    7318:	f025 051f 	bic.w	r5, r5, #31
    731c:	f105 0118 	add.w	r1, r5, #24
    7320:	f105 021c 	add.w	r2, r5, #28
    7324:	f105 0314 	add.w	r3, r5, #20
    7328:	60a5      	str	r5, [r4, #8]
    732a:	6060      	str	r0, [r4, #4]
    732c:	60e1      	str	r1, [r4, #12]
    732e:	6122      	str	r2, [r4, #16]
    7330:	6163      	str	r3, [r4, #20]
    7332:	bd38      	pop	{r3, r4, r5, pc}

00007334 <gpio_mode>:
    7334:	6800      	ldr	r0, [r0, #0]
    7336:	f000 b82b 	b.w	7390 <pin_mode>
    733a:	bf00      	nop

0000733c <gpio_dir>:
    733c:	b141      	cbz	r1, 7350 <gpio_dir+0x14>
    733e:	2901      	cmp	r1, #1
    7340:	d105      	bne.n	734e <gpio_dir+0x12>
    7342:	6883      	ldr	r3, [r0, #8]
    7344:	6842      	ldr	r2, [r0, #4]
    7346:	6819      	ldr	r1, [r3, #0]
    7348:	430a      	orrs	r2, r1
    734a:	601a      	str	r2, [r3, #0]
    734c:	4770      	bx	lr
    734e:	4770      	bx	lr
    7350:	6883      	ldr	r3, [r0, #8]
    7352:	6841      	ldr	r1, [r0, #4]
    7354:	681a      	ldr	r2, [r3, #0]
    7356:	ea22 0201 	bic.w	r2, r2, r1
    735a:	601a      	str	r2, [r3, #0]
    735c:	4770      	bx	lr
    735e:	bf00      	nop

00007360 <pin_function>:
    7360:	f100 4060 	add.w	r0, r0, #3758096384	; 0xe0000000
    7364:	f5a0 201c 	sub.w	r0, r0, #638976	; 0x9c000
    7368:	f000 030f 	and.w	r3, r0, #15
    736c:	005b      	lsls	r3, r3, #1
    736e:	2203      	movs	r2, #3
    7370:	409a      	lsls	r2, r3
    7372:	4099      	lsls	r1, r3
    7374:	0903      	lsrs	r3, r0, #4
    7376:	009b      	lsls	r3, r3, #2
    7378:	f103 4380 	add.w	r3, r3, #1073741824	; 0x40000000
    737c:	f503 3330 	add.w	r3, r3, #180224	; 0x2c000
    7380:	6818      	ldr	r0, [r3, #0]
    7382:	ea20 0202 	bic.w	r2, r0, r2
    7386:	601a      	str	r2, [r3, #0]
    7388:	681a      	ldr	r2, [r3, #0]
    738a:	4311      	orrs	r1, r2
    738c:	6019      	str	r1, [r3, #0]
    738e:	4770      	bx	lr

00007390 <pin_mode>:
    7390:	f100 4060 	add.w	r0, r0, #3758096384	; 0xe0000000
    7394:	f5a0 201c 	sub.w	r0, r0, #638976	; 0x9c000
    7398:	b430      	push	{r4, r5}
    739a:	f3c1 0280 	ubfx	r2, r1, #2, #1
    739e:	f000 041f 	and.w	r4, r0, #31
    73a2:	fa02 f404 	lsl.w	r4, r2, r4
    73a6:	0943      	lsrs	r3, r0, #5
    73a8:	009b      	lsls	r3, r3, #2
    73aa:	f103 4380 	add.w	r3, r3, #1073741824	; 0x40000000
    73ae:	f503 3330 	add.w	r3, r3, #180224	; 0x2c000
    73b2:	6e9d      	ldr	r5, [r3, #104]	; 0x68
    73b4:	ea25 0504 	bic.w	r5, r5, r4
    73b8:	669d      	str	r5, [r3, #104]	; 0x68
    73ba:	6e9d      	ldr	r5, [r3, #104]	; 0x68
    73bc:	432c      	orrs	r4, r5
    73be:	669c      	str	r4, [r3, #104]	; 0x68
    73c0:	b99a      	cbnz	r2, 73ea <pin_mode+0x5a>
    73c2:	f000 030f 	and.w	r3, r0, #15
    73c6:	005b      	lsls	r3, r3, #1
    73c8:	2203      	movs	r2, #3
    73ca:	409a      	lsls	r2, r3
    73cc:	fa01 f303 	lsl.w	r3, r1, r3
    73d0:	0900      	lsrs	r0, r0, #4
    73d2:	0080      	lsls	r0, r0, #2
    73d4:	f100 4080 	add.w	r0, r0, #1073741824	; 0x40000000
    73d8:	f500 3030 	add.w	r0, r0, #180224	; 0x2c000
    73dc:	6c01      	ldr	r1, [r0, #64]	; 0x40
    73de:	ea21 0202 	bic.w	r2, r1, r2
    73e2:	6402      	str	r2, [r0, #64]	; 0x40
    73e4:	6c02      	ldr	r2, [r0, #64]	; 0x40
    73e6:	4313      	orrs	r3, r2
    73e8:	6403      	str	r3, [r0, #64]	; 0x40
    73ea:	bc30      	pop	{r4, r5}
    73ec:	4770      	bx	lr
    73ee:	bf00      	nop

000073f0 <rtc_init>:
    73f0:	4a07      	ldr	r2, [pc, #28]	; (7410 <rtc_init+0x20>)
    73f2:	4b08      	ldr	r3, [pc, #32]	; (7414 <rtc_init+0x24>)
    73f4:	f8d2 00c4 	ldr.w	r0, [r2, #196]	; 0xc4
    73f8:	2100      	movs	r1, #0
    73fa:	f440 7000 	orr.w	r0, r0, #512	; 0x200
    73fe:	f8c2 00c4 	str.w	r0, [r2, #196]	; 0xc4
    7402:	7219      	strb	r1, [r3, #8]
    7404:	7a1a      	ldrb	r2, [r3, #8]
    7406:	f042 0201 	orr.w	r2, r2, #1
    740a:	721a      	strb	r2, [r3, #8]
    740c:	4770      	bx	lr
    740e:	bf00      	nop
    7410:	400fc000 	.word	0x400fc000
    7414:	40024000 	.word	0x40024000

00007418 <rtc_isenabled>:
    7418:	4b02      	ldr	r3, [pc, #8]	; (7424 <rtc_isenabled+0xc>)
    741a:	7a18      	ldrb	r0, [r3, #8]
    741c:	f000 0001 	and.w	r0, r0, #1
    7420:	4770      	bx	lr
    7422:	bf00      	nop
    7424:	40024000 	.word	0x40024000

00007428 <rtc_read>:
    7428:	b500      	push	{lr}
    742a:	4b0e      	ldr	r3, [pc, #56]	; (7464 <rtc_read+0x3c>)
    742c:	b08b      	sub	sp, #44	; 0x2c
    742e:	f893 2020 	ldrb.w	r2, [r3, #32]
    7432:	a801      	add	r0, sp, #4
    7434:	9201      	str	r2, [sp, #4]
    7436:	f893 2024 	ldrb.w	r2, [r3, #36]	; 0x24
    743a:	9202      	str	r2, [sp, #8]
    743c:	f893 2028 	ldrb.w	r2, [r3, #40]	; 0x28
    7440:	9203      	str	r2, [sp, #12]
    7442:	f893 202c 	ldrb.w	r2, [r3, #44]	; 0x2c
    7446:	9204      	str	r2, [sp, #16]
    7448:	f893 2038 	ldrb.w	r2, [r3, #56]	; 0x38
    744c:	8f9b      	ldrh	r3, [r3, #60]	; 0x3c
    744e:	3a01      	subs	r2, #1
    7450:	b29b      	uxth	r3, r3
    7452:	f2a3 736c 	subw	r3, r3, #1900	; 0x76c
    7456:	9205      	str	r2, [sp, #20]
    7458:	9306      	str	r3, [sp, #24]
    745a:	f001 fab1 	bl	89c0 <mktime>
    745e:	b00b      	add	sp, #44	; 0x2c
    7460:	f85d fb04 	ldr.w	pc, [sp], #4
    7464:	40024000 	.word	0x40024000

00007468 <rtc_write>:
    7468:	b500      	push	{lr}
    746a:	b083      	sub	sp, #12
    746c:	ab02      	add	r3, sp, #8
    746e:	f843 0d04 	str.w	r0, [r3, #-4]!
    7472:	4618      	mov	r0, r3
    7474:	f001 f94e 	bl	8714 <localtime>
    7478:	4b10      	ldr	r3, [pc, #64]	; (74bc <rtc_write+0x54>)
    747a:	7a1a      	ldrb	r2, [r3, #8]
    747c:	f042 0202 	orr.w	r2, r2, #2
    7480:	721a      	strb	r2, [r3, #8]
    7482:	7802      	ldrb	r2, [r0, #0]
    7484:	f883 2020 	strb.w	r2, [r3, #32]
    7488:	7902      	ldrb	r2, [r0, #4]
    748a:	f883 2024 	strb.w	r2, [r3, #36]	; 0x24
    748e:	7a02      	ldrb	r2, [r0, #8]
    7490:	f883 2028 	strb.w	r2, [r3, #40]	; 0x28
    7494:	7b02      	ldrb	r2, [r0, #12]
    7496:	f883 202c 	strb.w	r2, [r3, #44]	; 0x2c
    749a:	6902      	ldr	r2, [r0, #16]
    749c:	3201      	adds	r2, #1
    749e:	b2d2      	uxtb	r2, r2
    74a0:	f883 2038 	strb.w	r2, [r3, #56]	; 0x38
    74a4:	6942      	ldr	r2, [r0, #20]
    74a6:	f202 726c 	addw	r2, r2, #1900	; 0x76c
    74aa:	b292      	uxth	r2, r2
    74ac:	879a      	strh	r2, [r3, #60]	; 0x3c
    74ae:	7a1a      	ldrb	r2, [r3, #8]
    74b0:	f002 02fd 	and.w	r2, r2, #253	; 0xfd
    74b4:	721a      	strb	r2, [r3, #8]
    74b6:	b003      	add	sp, #12
    74b8:	f85d fb04 	ldr.w	pc, [sp], #4
    74bc:	40024000 	.word	0x40024000

000074c0 <uart2_irq>:
    74c0:	b508      	push	{r3, lr}
    74c2:	4a15      	ldr	r2, [pc, #84]	; (7518 <uart2_irq+0x58>)
    74c4:	6893      	ldr	r3, [r2, #8]
    74c6:	f3c3 0342 	ubfx	r3, r3, #1, #3
    74ca:	2b01      	cmp	r3, #1
    74cc:	d01e      	beq.n	750c <uart2_irq+0x4c>
    74ce:	2b02      	cmp	r3, #2
    74d0:	d119      	bne.n	7506 <uart2_irq+0x46>
    74d2:	4b12      	ldr	r3, [pc, #72]	; (751c <uart2_irq+0x5c>)
    74d4:	6f59      	ldr	r1, [r3, #116]	; 0x74
    74d6:	3101      	adds	r1, #1
    74d8:	d00a      	beq.n	74f0 <uart2_irq+0x30>
    74da:	f8d3 1080 	ldr.w	r1, [r3, #128]	; 0x80
    74de:	6f98      	ldr	r0, [r3, #120]	; 0x78
    74e0:	6008      	str	r0, [r1, #0]
    74e2:	f893 10a6 	ldrb.w	r1, [r3, #166]	; 0xa6
    74e6:	b919      	cbnz	r1, 74f0 <uart2_irq+0x30>
    74e8:	6851      	ldr	r1, [r2, #4]
    74ea:	f021 0101 	bic.w	r1, r1, #1
    74ee:	6051      	str	r1, [r2, #4]
    74f0:	6f18      	ldr	r0, [r3, #112]	; 0x70
    74f2:	4b0a      	ldr	r3, [pc, #40]	; (751c <uart2_irq+0x5c>)
    74f4:	b148      	cbz	r0, 750a <uart2_irq+0x4a>
    74f6:	f893 30a6 	ldrb.w	r3, [r3, #166]	; 0xa6
    74fa:	b12b      	cbz	r3, 7508 <uart2_irq+0x48>
    74fc:	2100      	movs	r1, #0
    74fe:	4a08      	ldr	r2, [pc, #32]	; (7520 <uart2_irq+0x60>)
    7500:	6813      	ldr	r3, [r2, #0]
    7502:	4798      	blx	r3
    7504:	bd08      	pop	{r3, pc}
    7506:	bd08      	pop	{r3, pc}
    7508:	bd08      	pop	{r3, pc}
    750a:	bd08      	pop	{r3, pc}
    750c:	4a03      	ldr	r2, [pc, #12]	; (751c <uart2_irq+0x5c>)
    750e:	6f10      	ldr	r0, [r2, #112]	; 0x70
    7510:	2800      	cmp	r0, #0
    7512:	d0f9      	beq.n	7508 <uart2_irq+0x48>
    7514:	4619      	mov	r1, r3
    7516:	e7f2      	b.n	74fe <uart2_irq+0x3e>
    7518:	40098000 	.word	0x40098000
    751c:	10000560 	.word	0x10000560
    7520:	1000055c 	.word	0x1000055c

00007524 <serial_irq_set_internal>:
    7524:	b570      	push	{r4, r5, r6, lr}
    7526:	6803      	ldr	r3, [r0, #0]
    7528:	4c29      	ldr	r4, [pc, #164]	; (75d0 <serial_irq_set_internal+0xac>)
    752a:	42a3      	cmp	r3, r4
    752c:	d049      	beq.n	75c2 <serial_irq_set_internal+0x9e>
    752e:	dd41      	ble.n	75b4 <serial_irq_set_internal+0x90>
    7530:	4c28      	ldr	r4, [pc, #160]	; (75d4 <serial_irq_set_internal+0xb0>)
    7532:	42a3      	cmp	r3, r4
    7534:	d02a      	beq.n	758c <serial_irq_set_internal+0x68>
    7536:	f504 4480 	add.w	r4, r4, #16384	; 0x4000
    753a:	42a3      	cmp	r3, r4
    753c:	d144      	bne.n	75c8 <serial_irq_set_internal+0xa4>
    753e:	4c26      	ldr	r4, [pc, #152]	; (75d8 <serial_irq_set_internal+0xb4>)
    7540:	2608      	movs	r6, #8
    7542:	bb3a      	cbnz	r2, 7594 <serial_irq_set_internal+0x70>
    7544:	2901      	cmp	r1, #1
    7546:	d00b      	beq.n	7560 <serial_irq_set_internal+0x3c>
    7548:	6845      	ldr	r5, [r0, #4]
    754a:	4a24      	ldr	r2, [pc, #144]	; (75dc <serial_irq_set_internal+0xb8>)
    754c:	ebc5 05c5 	rsb	r5, r5, r5, lsl #3
    7550:	eb02 04c5 	add.w	r4, r2, r5, lsl #3
    7554:	f894 5035 	ldrb.w	r5, [r4, #53]	; 0x35
    7558:	f894 2036 	ldrb.w	r2, [r4, #54]	; 0x36
    755c:	42ea      	cmn	r2, r5
    755e:	d114      	bne.n	758a <serial_irq_set_internal+0x66>
    7560:	2201      	movs	r2, #1
    7562:	fa02 f501 	lsl.w	r5, r2, r1
    7566:	f1d1 0101 	rsbs	r1, r1, #1
    756a:	bf38      	it	cc
    756c:	2100      	movcc	r1, #0
    756e:	fa02 f101 	lsl.w	r1, r2, r1
    7572:	685c      	ldr	r4, [r3, #4]
    7574:	ea24 0405 	bic.w	r4, r4, r5
    7578:	605c      	str	r4, [r3, #4]
    757a:	6803      	ldr	r3, [r0, #0]
    757c:	685b      	ldr	r3, [r3, #4]
    757e:	4219      	tst	r1, r3
    7580:	d103      	bne.n	758a <serial_irq_set_internal+0x66>
    7582:	40b2      	lsls	r2, r6
    7584:	4b16      	ldr	r3, [pc, #88]	; (75e0 <serial_irq_set_internal+0xbc>)
    7586:	f8c3 2080 	str.w	r2, [r3, #128]	; 0x80
    758a:	bd70      	pop	{r4, r5, r6, pc}
    758c:	4c15      	ldr	r4, [pc, #84]	; (75e4 <serial_irq_set_internal+0xc0>)
    758e:	2607      	movs	r6, #7
    7590:	2a00      	cmp	r2, #0
    7592:	d0d7      	beq.n	7544 <serial_irq_set_internal+0x20>
    7594:	2501      	movs	r5, #1
    7596:	fa05 f101 	lsl.w	r1, r5, r1
    759a:	b276      	sxtb	r6, r6
    759c:	4630      	mov	r0, r6
    759e:	fa05 f606 	lsl.w	r6, r5, r6
    75a2:	685a      	ldr	r2, [r3, #4]
    75a4:	430a      	orrs	r2, r1
    75a6:	605a      	str	r2, [r3, #4]
    75a8:	4621      	mov	r1, r4
    75aa:	f7ff fbbb 	bl	6d24 <NVIC_SetVector>
    75ae:	4b0c      	ldr	r3, [pc, #48]	; (75e0 <serial_irq_set_internal+0xbc>)
    75b0:	601e      	str	r6, [r3, #0]
    75b2:	bd70      	pop	{r4, r5, r6, pc}
    75b4:	f5a4 4480 	sub.w	r4, r4, #16384	; 0x4000
    75b8:	42a3      	cmp	r3, r4
    75ba:	d105      	bne.n	75c8 <serial_irq_set_internal+0xa4>
    75bc:	4c0a      	ldr	r4, [pc, #40]	; (75e8 <serial_irq_set_internal+0xc4>)
    75be:	2605      	movs	r6, #5
    75c0:	e7bf      	b.n	7542 <serial_irq_set_internal+0x1e>
    75c2:	4c0a      	ldr	r4, [pc, #40]	; (75ec <serial_irq_set_internal+0xc8>)
    75c4:	2606      	movs	r6, #6
    75c6:	e7bc      	b.n	7542 <serial_irq_set_internal+0x1e>
    75c8:	2400      	movs	r4, #0
    75ca:	4626      	mov	r6, r4
    75cc:	e7b9      	b.n	7542 <serial_irq_set_internal+0x1e>
    75ce:	bf00      	nop
    75d0:	40010000 	.word	0x40010000
    75d4:	40098000 	.word	0x40098000
    75d8:	000075f1 	.word	0x000075f1
    75dc:	10000560 	.word	0x10000560
    75e0:	e000e100 	.word	0xe000e100
    75e4:	000074c1 	.word	0x000074c1
    75e8:	0000765d 	.word	0x0000765d
    75ec:	000076c1 	.word	0x000076c1

000075f0 <uart3_irq>:
    75f0:	b508      	push	{r3, lr}
    75f2:	4a17      	ldr	r2, [pc, #92]	; (7650 <uart3_irq+0x60>)
    75f4:	6893      	ldr	r3, [r2, #8]
    75f6:	f3c3 0342 	ubfx	r3, r3, #1, #3
    75fa:	2b01      	cmp	r3, #1
    75fc:	d021      	beq.n	7642 <uart3_irq+0x52>
    75fe:	2b02      	cmp	r3, #2
    7600:	d11c      	bne.n	763c <uart3_irq+0x4c>
    7602:	4b14      	ldr	r3, [pc, #80]	; (7654 <uart3_irq+0x64>)
    7604:	f8d3 10ac 	ldr.w	r1, [r3, #172]	; 0xac
    7608:	3101      	adds	r1, #1
    760a:	d00b      	beq.n	7624 <uart3_irq+0x34>
    760c:	f8d3 10b8 	ldr.w	r1, [r3, #184]	; 0xb8
    7610:	f8d3 00b0 	ldr.w	r0, [r3, #176]	; 0xb0
    7614:	6008      	str	r0, [r1, #0]
    7616:	f893 10de 	ldrb.w	r1, [r3, #222]	; 0xde
    761a:	b919      	cbnz	r1, 7624 <uart3_irq+0x34>
    761c:	6851      	ldr	r1, [r2, #4]
    761e:	f021 0101 	bic.w	r1, r1, #1
    7622:	6051      	str	r1, [r2, #4]
    7624:	f8d3 00a8 	ldr.w	r0, [r3, #168]	; 0xa8
    7628:	4b0a      	ldr	r3, [pc, #40]	; (7654 <uart3_irq+0x64>)
    762a:	b148      	cbz	r0, 7640 <uart3_irq+0x50>
    762c:	f893 30de 	ldrb.w	r3, [r3, #222]	; 0xde
    7630:	b12b      	cbz	r3, 763e <uart3_irq+0x4e>
    7632:	2100      	movs	r1, #0
    7634:	4a08      	ldr	r2, [pc, #32]	; (7658 <uart3_irq+0x68>)
    7636:	6813      	ldr	r3, [r2, #0]
    7638:	4798      	blx	r3
    763a:	bd08      	pop	{r3, pc}
    763c:	bd08      	pop	{r3, pc}
    763e:	bd08      	pop	{r3, pc}
    7640:	bd08      	pop	{r3, pc}
    7642:	4a04      	ldr	r2, [pc, #16]	; (7654 <uart3_irq+0x64>)
    7644:	f8d2 00a8 	ldr.w	r0, [r2, #168]	; 0xa8
    7648:	2800      	cmp	r0, #0
    764a:	d0f8      	beq.n	763e <uart3_irq+0x4e>
    764c:	4619      	mov	r1, r3
    764e:	e7f1      	b.n	7634 <uart3_irq+0x44>
    7650:	4009c000 	.word	0x4009c000
    7654:	10000560 	.word	0x10000560
    7658:	1000055c 	.word	0x1000055c

0000765c <uart0_irq>:
    765c:	b508      	push	{r3, lr}
    765e:	4a15      	ldr	r2, [pc, #84]	; (76b4 <uart0_irq+0x58>)
    7660:	6893      	ldr	r3, [r2, #8]
    7662:	f3c3 0342 	ubfx	r3, r3, #1, #3
    7666:	2b01      	cmp	r3, #1
    7668:	d01d      	beq.n	76a6 <uart0_irq+0x4a>
    766a:	2b02      	cmp	r3, #2
    766c:	d118      	bne.n	76a0 <uart0_irq+0x44>
    766e:	4b12      	ldr	r3, [pc, #72]	; (76b8 <uart0_irq+0x5c>)
    7670:	6859      	ldr	r1, [r3, #4]
    7672:	3101      	adds	r1, #1
    7674:	d009      	beq.n	768a <uart0_irq+0x2e>
    7676:	6919      	ldr	r1, [r3, #16]
    7678:	6898      	ldr	r0, [r3, #8]
    767a:	6008      	str	r0, [r1, #0]
    767c:	f893 1036 	ldrb.w	r1, [r3, #54]	; 0x36
    7680:	b919      	cbnz	r1, 768a <uart0_irq+0x2e>
    7682:	6851      	ldr	r1, [r2, #4]
    7684:	f021 0101 	bic.w	r1, r1, #1
    7688:	6051      	str	r1, [r2, #4]
    768a:	6818      	ldr	r0, [r3, #0]
    768c:	4b0a      	ldr	r3, [pc, #40]	; (76b8 <uart0_irq+0x5c>)
    768e:	b148      	cbz	r0, 76a4 <uart0_irq+0x48>
    7690:	f893 3036 	ldrb.w	r3, [r3, #54]	; 0x36
    7694:	b12b      	cbz	r3, 76a2 <uart0_irq+0x46>
    7696:	2100      	movs	r1, #0
    7698:	4a08      	ldr	r2, [pc, #32]	; (76bc <uart0_irq+0x60>)
    769a:	6813      	ldr	r3, [r2, #0]
    769c:	4798      	blx	r3
    769e:	bd08      	pop	{r3, pc}
    76a0:	bd08      	pop	{r3, pc}
    76a2:	bd08      	pop	{r3, pc}
    76a4:	bd08      	pop	{r3, pc}
    76a6:	4a04      	ldr	r2, [pc, #16]	; (76b8 <uart0_irq+0x5c>)
    76a8:	6810      	ldr	r0, [r2, #0]
    76aa:	2800      	cmp	r0, #0
    76ac:	d0f9      	beq.n	76a2 <uart0_irq+0x46>
    76ae:	4619      	mov	r1, r3
    76b0:	e7f2      	b.n	7698 <uart0_irq+0x3c>
    76b2:	bf00      	nop
    76b4:	4000c000 	.word	0x4000c000
    76b8:	10000560 	.word	0x10000560
    76bc:	1000055c 	.word	0x1000055c

000076c0 <uart1_irq>:
    76c0:	b508      	push	{r3, lr}
    76c2:	4a15      	ldr	r2, [pc, #84]	; (7718 <uart1_irq+0x58>)
    76c4:	6893      	ldr	r3, [r2, #8]
    76c6:	f3c3 0342 	ubfx	r3, r3, #1, #3
    76ca:	2b01      	cmp	r3, #1
    76cc:	d01d      	beq.n	770a <uart1_irq+0x4a>
    76ce:	2b02      	cmp	r3, #2
    76d0:	d118      	bne.n	7704 <uart1_irq+0x44>
    76d2:	4b12      	ldr	r3, [pc, #72]	; (771c <uart1_irq+0x5c>)
    76d4:	6bd9      	ldr	r1, [r3, #60]	; 0x3c
    76d6:	3101      	adds	r1, #1
    76d8:	d009      	beq.n	76ee <uart1_irq+0x2e>
    76da:	6c99      	ldr	r1, [r3, #72]	; 0x48
    76dc:	6c18      	ldr	r0, [r3, #64]	; 0x40
    76de:	6008      	str	r0, [r1, #0]
    76e0:	f893 106e 	ldrb.w	r1, [r3, #110]	; 0x6e
    76e4:	b919      	cbnz	r1, 76ee <uart1_irq+0x2e>
    76e6:	6851      	ldr	r1, [r2, #4]
    76e8:	f021 0101 	bic.w	r1, r1, #1
    76ec:	6051      	str	r1, [r2, #4]
    76ee:	6b98      	ldr	r0, [r3, #56]	; 0x38
    76f0:	4b0a      	ldr	r3, [pc, #40]	; (771c <uart1_irq+0x5c>)
    76f2:	b148      	cbz	r0, 7708 <uart1_irq+0x48>
    76f4:	f893 306e 	ldrb.w	r3, [r3, #110]	; 0x6e
    76f8:	b12b      	cbz	r3, 7706 <uart1_irq+0x46>
    76fa:	2100      	movs	r1, #0
    76fc:	4a08      	ldr	r2, [pc, #32]	; (7720 <uart1_irq+0x60>)
    76fe:	6813      	ldr	r3, [r2, #0]
    7700:	4798      	blx	r3
    7702:	bd08      	pop	{r3, pc}
    7704:	bd08      	pop	{r3, pc}
    7706:	bd08      	pop	{r3, pc}
    7708:	bd08      	pop	{r3, pc}
    770a:	4a04      	ldr	r2, [pc, #16]	; (771c <uart1_irq+0x5c>)
    770c:	6b90      	ldr	r0, [r2, #56]	; 0x38
    770e:	2800      	cmp	r0, #0
    7710:	d0f9      	beq.n	7706 <uart1_irq+0x46>
    7712:	4619      	mov	r1, r3
    7714:	e7f2      	b.n	76fc <uart1_irq+0x3c>
    7716:	bf00      	nop
    7718:	40010000 	.word	0x40010000
    771c:	10000560 	.word	0x10000560
    7720:	1000055c 	.word	0x1000055c

00007724 <serial_baud>:
    7724:	e92d 0ff0 	stmdb	sp!, {r4, r5, r6, r7, r8, r9, r10, r11}
    7728:	b08a      	sub	sp, #40	; 0x28
    772a:	9008      	str	r0, [sp, #32]
    772c:	4b71      	ldr	r3, [pc, #452]	; (78f4 <serial_baud+0x1d0>)
    772e:	6800      	ldr	r0, [r0, #0]
    7730:	4298      	cmp	r0, r3
    7732:	9009      	str	r0, [sp, #36]	; 0x24
    7734:	f000 80cf 	beq.w	78d6 <serial_baud+0x1b2>
    7738:	f340 80ba 	ble.w	78b0 <serial_baud+0x18c>
    773c:	4b6e      	ldr	r3, [pc, #440]	; (78f8 <serial_baud+0x1d4>)
    773e:	9a09      	ldr	r2, [sp, #36]	; 0x24
    7740:	429a      	cmp	r2, r3
    7742:	f000 8090 	beq.w	7866 <serial_baud+0x142>
    7746:	f503 4380 	add.w	r3, r3, #16384	; 0x4000
    774a:	429a      	cmp	r2, r3
    774c:	d10c      	bne.n	7768 <serial_baud+0x44>
    774e:	4b6b      	ldr	r3, [pc, #428]	; (78fc <serial_baud+0x1d8>)
    7750:	f8d3 21ac 	ldr.w	r2, [r3, #428]	; 0x1ac
    7754:	f422 2240 	bic.w	r2, r2, #786432	; 0xc0000
    7758:	f8c3 21ac 	str.w	r2, [r3, #428]	; 0x1ac
    775c:	f8d3 21ac 	ldr.w	r2, [r3, #428]	; 0x1ac
    7760:	f442 2280 	orr.w	r2, r2, #262144	; 0x40000
    7764:	f8c3 21ac 	str.w	r2, [r3, #428]	; 0x1ac
    7768:	4b65      	ldr	r3, [pc, #404]	; (7900 <serial_baud+0x1dc>)
    776a:	010a      	lsls	r2, r1, #4
    776c:	681b      	ldr	r3, [r3, #0]
    776e:	9305      	str	r3, [sp, #20]
    7770:	9c05      	ldr	r4, [sp, #20]
    7772:	fbb3 f3f2 	udiv	r3, r3, r2
    7776:	fb02 4213 	mls	r2, r2, r3, r4
    777a:	b29b      	uxth	r3, r3
    777c:	9301      	str	r3, [sp, #4]
    777e:	2a00      	cmp	r2, #0
    7780:	f000 8094 	beq.w	78ac <serial_baud+0x188>
    7784:	0060      	lsls	r0, r4, #1
    7786:	00a2      	lsls	r2, r4, #2
    7788:	f04f 0901 	mov.w	r9, #1
    778c:	2300      	movs	r3, #0
    778e:	9007      	str	r0, [sp, #28]
    7790:	9206      	str	r2, [sp, #24]
    7792:	4680      	mov	r8, r0
    7794:	4693      	mov	r11, r2
    7796:	f8cd 900c 	str.w	r9, [sp, #12]
    779a:	9104      	str	r1, [sp, #16]
    779c:	46a2      	mov	r10, r4
    779e:	468c      	mov	r12, r1
    77a0:	9302      	str	r3, [sp, #8]
    77a2:	2200      	movs	r2, #0
    77a4:	9c04      	ldr	r4, [sp, #16]
    77a6:	4610      	mov	r0, r2
    77a8:	fa5f f789 	uxtb.w	r7, r9
    77ac:	f1b8 0f00 	cmp.w	r8, #0
    77b0:	bfb5      	itete	lt
    77b2:	fbb8 f3f4 	udivlt	r3, r8, r4
    77b6:	fbbb f3f4 	udivge	r3, r11, r4
    77ba:	091b      	lsrlt	r3, r3, #4
    77bc:	095b      	lsrge	r3, r3, #5
    77be:	3301      	adds	r3, #1
    77c0:	f3c3 034f 	ubfx	r3, r3, #1, #16
    77c4:	eb02 0609 	add.w	r6, r2, r9
    77c8:	2b00      	cmp	r3, #0
    77ca:	d15a      	bne.n	7882 <serial_baud+0x15e>
    77cc:	2301      	movs	r3, #1
    77ce:	2800      	cmp	r0, #0
    77d0:	d15b      	bne.n	788a <serial_baud+0x166>
    77d2:	fb03 f506 	mul.w	r5, r3, r6
    77d6:	00ed      	lsls	r5, r5, #3
    77d8:	fbba f5f5 	udiv	r5, r10, r5
    77dc:	3501      	adds	r5, #1
    77de:	ebc1 0555 	rsb	r5, r1, r5, lsr #1
    77e2:	2d00      	cmp	r5, #0
    77e4:	bfb8      	it	lt
    77e6:	426d      	neglt	r5, r5
    77e8:	4565      	cmp	r5, r12
    77ea:	da05      	bge.n	77f8 <serial_baud+0xd4>
    77ec:	428d      	cmp	r5, r1
    77ee:	d04e      	beq.n	788e <serial_baud+0x16a>
    77f0:	46ac      	mov	r12, r5
    77f2:	9002      	str	r0, [sp, #8]
    77f4:	9301      	str	r3, [sp, #4]
    77f6:	9703      	str	r7, [sp, #12]
    77f8:	3201      	adds	r2, #1
    77fa:	b2d0      	uxtb	r0, r2
    77fc:	4287      	cmp	r7, r0
    77fe:	440c      	add	r4, r1
    7800:	d8d4      	bhi.n	77ac <serial_baud+0x88>
    7802:	f1b9 0f0f 	cmp.w	r9, #15
    7806:	f04f 0300 	mov.w	r3, #0
    780a:	d049      	beq.n	78a0 <serial_baud+0x17c>
    780c:	9a05      	ldr	r2, [sp, #20]
    780e:	9c07      	ldr	r4, [sp, #28]
    7810:	4492      	add	r10, r2
    7812:	9a04      	ldr	r2, [sp, #16]
    7814:	9806      	ldr	r0, [sp, #24]
    7816:	440a      	add	r2, r1
    7818:	f109 0901 	add.w	r9, r9, #1
    781c:	44a0      	add	r8, r4
    781e:	4483      	add	r11, r0
    7820:	9204      	str	r2, [sp, #16]
    7822:	2b00      	cmp	r3, #0
    7824:	d0bd      	beq.n	77a2 <serial_baud+0x7e>
    7826:	9b02      	ldr	r3, [sp, #8]
    7828:	9c03      	ldr	r4, [sp, #12]
    782a:	ea43 1004 	orr.w	r0, r3, r4, lsl #4
    782e:	b2c0      	uxtb	r0, r0
    7830:	9a09      	ldr	r2, [sp, #36]	; 0x24
    7832:	9c01      	ldr	r4, [sp, #4]
    7834:	7b13      	ldrb	r3, [r2, #12]
    7836:	f3c4 2107 	ubfx	r1, r4, #8, #8
    783a:	f043 0380 	orr.w	r3, r3, #128	; 0x80
    783e:	7313      	strb	r3, [r2, #12]
    7840:	9a08      	ldr	r2, [sp, #32]
    7842:	6813      	ldr	r3, [r2, #0]
    7844:	b2e2      	uxtb	r2, r4
    7846:	9c08      	ldr	r4, [sp, #32]
    7848:	7119      	strb	r1, [r3, #4]
    784a:	6823      	ldr	r3, [r4, #0]
    784c:	701a      	strb	r2, [r3, #0]
    784e:	6823      	ldr	r3, [r4, #0]
    7850:	f883 0028 	strb.w	r0, [r3, #40]	; 0x28
    7854:	6823      	ldr	r3, [r4, #0]
    7856:	7b1a      	ldrb	r2, [r3, #12]
    7858:	f002 027f 	and.w	r2, r2, #127	; 0x7f
    785c:	731a      	strb	r2, [r3, #12]
    785e:	b00a      	add	sp, #40	; 0x28
    7860:	e8bd 0ff0 	ldmia.w	sp!, {r4, r5, r6, r7, r8, r9, r10, r11}
    7864:	4770      	bx	lr
    7866:	4b25      	ldr	r3, [pc, #148]	; (78fc <serial_baud+0x1d8>)
    7868:	f8d3 21ac 	ldr.w	r2, [r3, #428]	; 0x1ac
    786c:	f422 3240 	bic.w	r2, r2, #196608	; 0x30000
    7870:	f8c3 21ac 	str.w	r2, [r3, #428]	; 0x1ac
    7874:	f8d3 21ac 	ldr.w	r2, [r3, #428]	; 0x1ac
    7878:	f442 3280 	orr.w	r2, r2, #65536	; 0x10000
    787c:	f8c3 21ac 	str.w	r2, [r3, #428]	; 0x1ac
    7880:	e772      	b.n	7768 <serial_baud+0x44>
    7882:	2800      	cmp	r0, #0
    7884:	d0a5      	beq.n	77d2 <serial_baud+0xae>
    7886:	2b01      	cmp	r3, #1
    7888:	d8a3      	bhi.n	77d2 <serial_baud+0xae>
    788a:	2302      	movs	r3, #2
    788c:	e7a1      	b.n	77d2 <serial_baud+0xae>
    788e:	f1b9 0f0f 	cmp.w	r9, #15
    7892:	9301      	str	r3, [sp, #4]
    7894:	9703      	str	r7, [sp, #12]
    7896:	9002      	str	r0, [sp, #8]
    7898:	468c      	mov	r12, r1
    789a:	f04f 0301 	mov.w	r3, #1
    789e:	d1b5      	bne.n	780c <serial_baud+0xe8>
    78a0:	9c02      	ldr	r4, [sp, #8]
    78a2:	9903      	ldr	r1, [sp, #12]
    78a4:	ea44 1001 	orr.w	r0, r4, r1, lsl #4
    78a8:	b2c0      	uxtb	r0, r0
    78aa:	e7c1      	b.n	7830 <serial_baud+0x10c>
    78ac:	2010      	movs	r0, #16
    78ae:	e7bf      	b.n	7830 <serial_baud+0x10c>
    78b0:	f5a3 4380 	sub.w	r3, r3, #16384	; 0x4000
    78b4:	4298      	cmp	r0, r3
    78b6:	f47f af57 	bne.w	7768 <serial_baud+0x44>
    78ba:	4b10      	ldr	r3, [pc, #64]	; (78fc <serial_baud+0x1d8>)
    78bc:	f8d3 21a8 	ldr.w	r2, [r3, #424]	; 0x1a8
    78c0:	f022 02c0 	bic.w	r2, r2, #192	; 0xc0
    78c4:	f8c3 21a8 	str.w	r2, [r3, #424]	; 0x1a8
    78c8:	f8d3 21a8 	ldr.w	r2, [r3, #424]	; 0x1a8
    78cc:	f042 0240 	orr.w	r2, r2, #64	; 0x40
    78d0:	f8c3 21a8 	str.w	r2, [r3, #424]	; 0x1a8
    78d4:	e748      	b.n	7768 <serial_baud+0x44>
    78d6:	4b09      	ldr	r3, [pc, #36]	; (78fc <serial_baud+0x1d8>)
    78d8:	f8d3 21a8 	ldr.w	r2, [r3, #424]	; 0x1a8
    78dc:	f422 7240 	bic.w	r2, r2, #768	; 0x300
    78e0:	f8c3 21a8 	str.w	r2, [r3, #424]	; 0x1a8
    78e4:	f8d3 21a8 	ldr.w	r2, [r3, #424]	; 0x1a8
    78e8:	f442 7280 	orr.w	r2, r2, #256	; 0x100
    78ec:	f8c3 21a8 	str.w	r2, [r3, #424]	; 0x1a8
    78f0:	e73a      	b.n	7768 <serial_baud+0x44>
    78f2:	bf00      	nop
    78f4:	40010000 	.word	0x40010000
    78f8:	40098000 	.word	0x40098000
    78fc:	400fc000 	.word	0x400fc000
    7900:	10000154 	.word	0x10000154

00007904 <serial_getc>:
    7904:	6802      	ldr	r2, [r0, #0]
    7906:	7d13      	ldrb	r3, [r2, #20]
    7908:	07db      	lsls	r3, r3, #31
    790a:	d5fc      	bpl.n	7906 <serial_getc+0x2>
    790c:	6843      	ldr	r3, [r0, #4]
    790e:	4909      	ldr	r1, [pc, #36]	; (7934 <serial_getc+0x30>)
    7910:	ebc3 03c3 	rsb	r3, r3, r3, lsl #3
    7914:	eb01 03c3 	add.w	r3, r1, r3, lsl #3
    7918:	6859      	ldr	r1, [r3, #4]
    791a:	7810      	ldrb	r0, [r2, #0]
    791c:	3101      	adds	r1, #1
    791e:	b2c0      	uxtb	r0, r0
    7920:	d007      	beq.n	7932 <serial_getc+0x2e>
    7922:	6959      	ldr	r1, [r3, #20]
    7924:	3304      	adds	r3, #4
    7926:	685b      	ldr	r3, [r3, #4]
    7928:	600b      	str	r3, [r1, #0]
    792a:	6853      	ldr	r3, [r2, #4]
    792c:	f043 0301 	orr.w	r3, r3, #1
    7930:	6053      	str	r3, [r2, #4]
    7932:	4770      	bx	lr
    7934:	10000560 	.word	0x10000560

00007938 <serial_writable>:
    7938:	6843      	ldr	r3, [r0, #4]
    793a:	4a17      	ldr	r2, [pc, #92]	; (7998 <serial_writable+0x60>)
    793c:	ebc3 03c3 	rsb	r3, r3, r3, lsl #3
    7940:	00db      	lsls	r3, r3, #3
    7942:	18d1      	adds	r1, r2, r3
    7944:	b410      	push	{r4}
    7946:	69cc      	ldr	r4, [r1, #28]
    7948:	3401      	adds	r4, #1
    794a:	d011      	beq.n	7970 <serial_writable+0x38>
    794c:	6b0a      	ldr	r2, [r1, #48]	; 0x30
    794e:	f101 031c 	add.w	r3, r1, #28
    7952:	685b      	ldr	r3, [r3, #4]
    7954:	6812      	ldr	r2, [r2, #0]
    7956:	421a      	tst	r2, r3
    7958:	d003      	beq.n	7962 <serial_writable+0x2a>
    795a:	2000      	movs	r0, #0
    795c:	f85d 4b04 	ldr.w	r4, [sp], #4
    7960:	4770      	bx	lr
    7962:	6803      	ldr	r3, [r0, #0]
    7964:	f85d 4b04 	ldr.w	r4, [sp], #4
    7968:	7d18      	ldrb	r0, [r3, #20]
    796a:	f3c0 1080 	ubfx	r0, r0, #6, #1
    796e:	4770      	bx	lr
    7970:	6803      	ldr	r3, [r0, #0]
    7972:	7d1b      	ldrb	r3, [r3, #20]
    7974:	069b      	lsls	r3, r3, #26
    7976:	d408      	bmi.n	798a <serial_writable+0x52>
    7978:	f891 0034 	ldrb.w	r0, [r1, #52]	; 0x34
    797c:	f85d 4b04 	ldr.w	r4, [sp], #4
    7980:	280f      	cmp	r0, #15
    7982:	bf8c      	ite	hi
    7984:	2000      	movhi	r0, #0
    7986:	2001      	movls	r0, #1
    7988:	4770      	bx	lr
    798a:	2300      	movs	r3, #0
    798c:	f881 3034 	strb.w	r3, [r1, #52]	; 0x34
    7990:	2001      	movs	r0, #1
    7992:	f85d 4b04 	ldr.w	r4, [sp], #4
    7996:	4770      	bx	lr
    7998:	10000560 	.word	0x10000560

0000799c <serial_putc>:
    799c:	b538      	push	{r3, r4, r5, lr}
    799e:	4604      	mov	r4, r0
    79a0:	460d      	mov	r5, r1
    79a2:	4620      	mov	r0, r4
    79a4:	f7ff ffc8 	bl	7938 <serial_writable>
    79a8:	2800      	cmp	r0, #0
    79aa:	d0fa      	beq.n	79a2 <serial_putc+0x6>
    79ac:	6823      	ldr	r3, [r4, #0]
    79ae:	b2ed      	uxtb	r5, r5
    79b0:	701d      	strb	r5, [r3, #0]
    79b2:	6862      	ldr	r2, [r4, #4]
    79b4:	4b05      	ldr	r3, [pc, #20]	; (79cc <serial_putc+0x30>)
    79b6:	ebc2 02c2 	rsb	r2, r2, r2, lsl #3
    79ba:	eb03 03c2 	add.w	r3, r3, r2, lsl #3
    79be:	f893 2034 	ldrb.w	r2, [r3, #52]	; 0x34
    79c2:	3201      	adds	r2, #1
    79c4:	f883 2034 	strb.w	r2, [r3, #52]	; 0x34
    79c8:	bd38      	pop	{r3, r4, r5, pc}
    79ca:	bf00      	nop
    79cc:	10000560 	.word	0x10000560

000079d0 <serial_set_flow_control>:
    79d0:	e92d 4ff0 	stmdb	sp!, {r4, r5, r6, r7, r8, r9, r10, r11, lr}
    79d4:	4604      	mov	r4, r0
    79d6:	4d45      	ldr	r5, [pc, #276]	; (7aec <serial_set_flow_control+0x11c>)
    79d8:	6800      	ldr	r0, [r0, #0]
    79da:	b083      	sub	sp, #12
    79dc:	42a8      	cmp	r0, r5
    79de:	460e      	mov	r6, r1
    79e0:	4690      	mov	r8, r2
    79e2:	4699      	mov	r9, r3
    79e4:	d043      	beq.n	7a6e <serial_set_flow_control+0x9e>
    79e6:	6865      	ldr	r5, [r4, #4]
    79e8:	2300      	movs	r3, #0
    79ea:	9301      	str	r3, [sp, #4]
    79ec:	462a      	mov	r2, r5
    79ee:	f8df a108 	ldr.w	r10, [pc, #264]	; 7af8 <serial_set_flow_control+0x128>
    79f2:	00ef      	lsls	r7, r5, #3
    79f4:	ebc2 02c2 	rsb	r2, r2, r2, lsl #3
    79f8:	1b78      	subs	r0, r7, r5
    79fa:	f04f 0e00 	mov.w	lr, #0
    79fe:	eb0a 00c0 	add.w	r0, r10, r0, lsl #3
    7a02:	eb0a 0cc2 	add.w	r12, r10, r2, lsl #3
    7a06:	f04f 33ff 	mov.w	r3, #4294967295	; 0xffffffff
    7a0a:	61c3      	str	r3, [r0, #28]
    7a0c:	6043      	str	r3, [r0, #4]
    7a0e:	4671      	mov	r1, lr
    7a10:	4672      	mov	r2, lr
    7a12:	4620      	mov	r0, r4
    7a14:	f88c e035 	strb.w	lr, [r12, #53]	; 0x35
    7a18:	f7ff fd84 	bl	7524 <serial_irq_set_internal>
    7a1c:	b916      	cbnz	r6, 7a24 <serial_set_flow_control+0x54>
    7a1e:	b003      	add	sp, #12
    7a20:	e8bd 8ff0 	ldmia.w	sp!, {r4, r5, r6, r7, r8, r9, r10, r11, pc}
    7a24:	4932      	ldr	r1, [pc, #200]	; (7af0 <serial_set_flow_control+0x120>)
    7a26:	4640      	mov	r0, r8
    7a28:	f000 fa1a 	bl	7e60 <pinmap_find_peripheral>
    7a2c:	4931      	ldr	r1, [pc, #196]	; (7af4 <serial_set_flow_control+0x124>)
    7a2e:	4683      	mov	r11, r0
    7a30:	4648      	mov	r0, r9
    7a32:	f000 fa15 	bl	7e60 <pinmap_find_peripheral>
    7a36:	1eb2      	subs	r2, r6, #2
    7a38:	2a01      	cmp	r2, #1
    7a3a:	d938      	bls.n	7aae <serial_set_flow_control+0xde>
    7a3c:	2e01      	cmp	r6, #1
    7a3e:	d1ee      	bne.n	7a1e <serial_set_flow_control+0x4e>
    7a40:	f1b8 3fff 	cmp.w	r8, #4294967295	; 0xffffffff
    7a44:	d0eb      	beq.n	7a1e <serial_set_flow_control+0x4e>
    7a46:	4929      	ldr	r1, [pc, #164]	; (7aec <serial_set_flow_control+0x11c>)
    7a48:	6822      	ldr	r2, [r4, #0]
    7a4a:	2007      	movs	r0, #7
    7a4c:	458b      	cmp	r11, r1
    7a4e:	7210      	strb	r0, [r2, #8]
    7a50:	d115      	bne.n	7a7e <serial_set_flow_control+0xae>
    7a52:	9b01      	ldr	r3, [sp, #4]
    7a54:	b19b      	cbz	r3, 7a7e <serial_set_flow_control+0xae>
    7a56:	7c1b      	ldrb	r3, [r3, #16]
    7a58:	9a01      	ldr	r2, [sp, #4]
    7a5a:	4925      	ldr	r1, [pc, #148]	; (7af0 <serial_set_flow_control+0x120>)
    7a5c:	f043 0340 	orr.w	r3, r3, #64	; 0x40
    7a60:	4640      	mov	r0, r8
    7a62:	7413      	strb	r3, [r2, #16]
    7a64:	b003      	add	sp, #12
    7a66:	e8bd 4ff0 	ldmia.w	sp!, {r4, r5, r6, r7, r8, r9, r10, r11, lr}
    7a6a:	f000 b9c7 	b.w	7dfc <pinmap_pinout>
    7a6e:	7c03      	ldrb	r3, [r0, #16]
    7a70:	6865      	ldr	r5, [r4, #4]
    7a72:	f003 033f 	and.w	r3, r3, #63	; 0x3f
    7a76:	7403      	strb	r3, [r0, #16]
    7a78:	6862      	ldr	r2, [r4, #4]
    7a7a:	9001      	str	r0, [sp, #4]
    7a7c:	e7b7      	b.n	79ee <serial_set_flow_control+0x1e>
    7a7e:	1b7d      	subs	r5, r7, r5
    7a80:	eb0a 00c5 	add.w	r0, r10, r5, lsl #3
    7a84:	4641      	mov	r1, r8
    7a86:	3004      	adds	r0, #4
    7a88:	2200      	movs	r2, #0
    7a8a:	f7ff f9f5 	bl	6e78 <gpio_init_out_ex>
    7a8e:	6862      	ldr	r2, [r4, #4]
    7a90:	2501      	movs	r5, #1
    7a92:	ebc2 02c2 	rsb	r2, r2, r2, lsl #3
    7a96:	eb0a 03c2 	add.w	r3, r10, r2, lsl #3
    7a9a:	4620      	mov	r0, r4
    7a9c:	462a      	mov	r2, r5
    7a9e:	2100      	movs	r1, #0
    7aa0:	f883 5035 	strb.w	r5, [r3, #53]	; 0x35
    7aa4:	b003      	add	sp, #12
    7aa6:	e8bd 4ff0 	ldmia.w	sp!, {r4, r5, r6, r7, r8, r9, r10, r11, lr}
    7aaa:	f7ff bd3b 	b.w	7524 <serial_irq_set_internal>
    7aae:	f1b9 3fff 	cmp.w	r9, #4294967295	; 0xffffffff
    7ab2:	d009      	beq.n	7ac8 <serial_set_flow_control+0xf8>
    7ab4:	4a0d      	ldr	r2, [pc, #52]	; (7aec <serial_set_flow_control+0x11c>)
    7ab6:	4290      	cmp	r0, r2
    7ab8:	d00c      	beq.n	7ad4 <serial_set_flow_control+0x104>
    7aba:	1b78      	subs	r0, r7, r5
    7abc:	eb0a 00c0 	add.w	r0, r10, r0, lsl #3
    7ac0:	4649      	mov	r1, r9
    7ac2:	301c      	adds	r0, #28
    7ac4:	f7ff f9b0 	bl	6e28 <gpio_init_in>
    7ac8:	2e03      	cmp	r6, #3
    7aca:	d1a8      	bne.n	7a1e <serial_set_flow_control+0x4e>
    7acc:	f1b8 3fff 	cmp.w	r8, #4294967295	; 0xffffffff
    7ad0:	d1b9      	bne.n	7a46 <serial_set_flow_control+0x76>
    7ad2:	e7a4      	b.n	7a1e <serial_set_flow_control+0x4e>
    7ad4:	9b01      	ldr	r3, [sp, #4]
    7ad6:	2b00      	cmp	r3, #0
    7ad8:	d0ef      	beq.n	7aba <serial_set_flow_control+0xea>
    7ada:	7c1a      	ldrb	r2, [r3, #16]
    7adc:	4648      	mov	r0, r9
    7ade:	f042 0280 	orr.w	r2, r2, #128	; 0x80
    7ae2:	741a      	strb	r2, [r3, #16]
    7ae4:	4903      	ldr	r1, [pc, #12]	; (7af4 <serial_set_flow_control+0x124>)
    7ae6:	f000 f989 	bl	7dfc <pinmap_pinout>
    7aea:	e7ed      	b.n	7ac8 <serial_set_flow_control+0xf8>
    7aec:	40010000 	.word	0x40010000
    7af0:	0000c0b8 	.word	0x0000c0b8
    7af4:	0000c1b4 	.word	0x0000c1b4
    7af8:	10000560 	.word	0x10000560

00007afc <serial_init>:
    7afc:	e92d 41f0 	stmdb	sp!, {r4, r5, r6, r7, r8, lr}
    7b00:	4605      	mov	r5, r0
    7b02:	460f      	mov	r7, r1
    7b04:	4608      	mov	r0, r1
    7b06:	4959      	ldr	r1, [pc, #356]	; (7c6c <serial_init+0x170>)
    7b08:	4616      	mov	r6, r2
    7b0a:	f000 f9b7 	bl	7e7c <pinmap_peripheral>
    7b0e:	4958      	ldr	r1, [pc, #352]	; (7c70 <serial_init+0x174>)
    7b10:	4604      	mov	r4, r0
    7b12:	4630      	mov	r0, r6
    7b14:	f000 f9b2 	bl	7e7c <pinmap_peripheral>
    7b18:	4601      	mov	r1, r0
    7b1a:	4620      	mov	r0, r4
    7b1c:	f000 f98e 	bl	7e3c <pinmap_merge>
    7b20:	4b54      	ldr	r3, [pc, #336]	; (7c74 <serial_init+0x178>)
    7b22:	4604      	mov	r4, r0
    7b24:	4298      	cmp	r0, r3
    7b26:	6028      	str	r0, [r5, #0]
    7b28:	d07f      	beq.n	7c2a <serial_init+0x12e>
    7b2a:	d96f      	bls.n	7c0c <serial_init+0x110>
    7b2c:	4b52      	ldr	r3, [pc, #328]	; (7c78 <serial_init+0x17c>)
    7b2e:	4298      	cmp	r0, r3
    7b30:	d04b      	beq.n	7bca <serial_init+0xce>
    7b32:	f503 4380 	add.w	r3, r3, #16384	; 0x4000
    7b36:	4298      	cmp	r0, r3
    7b38:	d106      	bne.n	7b48 <serial_init+0x4c>
    7b3a:	4b50      	ldr	r3, [pc, #320]	; (7c7c <serial_init+0x180>)
    7b3c:	f8d3 20c4 	ldr.w	r2, [r3, #196]	; 0xc4
    7b40:	f042 7200 	orr.w	r2, r2, #33554432	; 0x2000000
    7b44:	f8c3 20c4 	str.w	r2, [r3, #196]	; 0xc4
    7b48:	2301      	movs	r3, #1
    7b4a:	7223      	strb	r3, [r4, #8]
    7b4c:	682b      	ldr	r3, [r5, #0]
    7b4e:	f04f 0800 	mov.w	r8, #0
    7b52:	f8c3 8004 	str.w	r8, [r3, #4]
    7b56:	4628      	mov	r0, r5
    7b58:	f44f 5116 	mov.w	r1, #9600	; 0x2580
    7b5c:	f7ff fde2 	bl	7724 <serial_baud>
    7b60:	682b      	ldr	r3, [r5, #0]
    7b62:	2203      	movs	r2, #3
    7b64:	731a      	strb	r2, [r3, #12]
    7b66:	4638      	mov	r0, r7
    7b68:	4940      	ldr	r1, [pc, #256]	; (7c6c <serial_init+0x170>)
    7b6a:	f000 f947 	bl	7dfc <pinmap_pinout>
    7b6e:	4630      	mov	r0, r6
    7b70:	493f      	ldr	r1, [pc, #252]	; (7c70 <serial_init+0x174>)
    7b72:	f000 f943 	bl	7dfc <pinmap_pinout>
    7b76:	1c7a      	adds	r2, r7, #1
    7b78:	d003      	beq.n	7b82 <serial_init+0x86>
    7b7a:	4638      	mov	r0, r7
    7b7c:	4641      	mov	r1, r8
    7b7e:	f7ff fc07 	bl	7390 <pin_mode>
    7b82:	1c73      	adds	r3, r6, #1
    7b84:	d003      	beq.n	7b8e <serial_init+0x92>
    7b86:	4630      	mov	r0, r6
    7b88:	2100      	movs	r1, #0
    7b8a:	f7ff fc01 	bl	7390 <pin_mode>
    7b8e:	4b39      	ldr	r3, [pc, #228]	; (7c74 <serial_init+0x178>)
    7b90:	429c      	cmp	r4, r3
    7b92:	d047      	beq.n	7c24 <serial_init+0x128>
    7b94:	d921      	bls.n	7bda <serial_init+0xde>
    7b96:	4b38      	ldr	r3, [pc, #224]	; (7c78 <serial_init+0x17c>)
    7b98:	429c      	cmp	r4, r3
    7b9a:	d063      	beq.n	7c64 <serial_init+0x168>
    7b9c:	f503 4380 	add.w	r3, r3, #16384	; 0x4000
    7ba0:	429c      	cmp	r4, r3
    7ba2:	d14a      	bne.n	7c3a <serial_init+0x13e>
    7ba4:	2303      	movs	r3, #3
    7ba6:	606b      	str	r3, [r5, #4]
    7ba8:	4935      	ldr	r1, [pc, #212]	; (7c80 <serial_init+0x184>)
    7baa:	ebc3 03c3 	rsb	r3, r3, r3, lsl #3
    7bae:	f04f 34ff 	mov.w	r4, #4294967295	; 0xffffffff
    7bb2:	4628      	mov	r0, r5
    7bb4:	eb01 05c3 	add.w	r5, r1, r3, lsl #3
    7bb8:	4622      	mov	r2, r4
    7bba:	4623      	mov	r3, r4
    7bbc:	606c      	str	r4, [r5, #4]
    7bbe:	61ec      	str	r4, [r5, #28]
    7bc0:	2100      	movs	r1, #0
    7bc2:	e8bd 41f0 	ldmia.w	sp!, {r4, r5, r6, r7, r8, lr}
    7bc6:	f7ff bf03 	b.w	79d0 <serial_set_flow_control>
    7bca:	4b2c      	ldr	r3, [pc, #176]	; (7c7c <serial_init+0x180>)
    7bcc:	f8d3 20c4 	ldr.w	r2, [r3, #196]	; 0xc4
    7bd0:	f042 7280 	orr.w	r2, r2, #16777216	; 0x1000000
    7bd4:	f8c3 20c4 	str.w	r2, [r3, #196]	; 0xc4
    7bd8:	e7b6      	b.n	7b48 <serial_init+0x4c>
    7bda:	f5a3 4380 	sub.w	r3, r3, #16384	; 0x4000
    7bde:	429c      	cmp	r4, r3
    7be0:	d12b      	bne.n	7c3a <serial_init+0x13e>
    7be2:	4e27      	ldr	r6, [pc, #156]	; (7c80 <serial_init+0x184>)
    7be4:	f04f 34ff 	mov.w	r4, #4294967295	; 0xffffffff
    7be8:	2100      	movs	r1, #0
    7bea:	6069      	str	r1, [r5, #4]
    7bec:	4622      	mov	r2, r4
    7bee:	4623      	mov	r3, r4
    7bf0:	4628      	mov	r0, r5
    7bf2:	6074      	str	r4, [r6, #4]
    7bf4:	61f4      	str	r4, [r6, #28]
    7bf6:	f7ff feeb 	bl	79d0 <serial_set_flow_control>
    7bfa:	4b22      	ldr	r3, [pc, #136]	; (7c84 <serial_init+0x188>)
    7bfc:	2201      	movs	r2, #1
    7bfe:	601a      	str	r2, [r3, #0]
    7c00:	6828      	ldr	r0, [r5, #0]
    7c02:	6869      	ldr	r1, [r5, #4]
    7c04:	4b20      	ldr	r3, [pc, #128]	; (7c88 <serial_init+0x18c>)
    7c06:	c303      	stmia	r3!, {r0, r1}
    7c08:	e8bd 81f0 	ldmia.w	sp!, {r4, r5, r6, r7, r8, pc}
    7c0c:	f5a3 4380 	sub.w	r3, r3, #16384	; 0x4000
    7c10:	4298      	cmp	r0, r3
    7c12:	d199      	bne.n	7b48 <serial_init+0x4c>
    7c14:	4b19      	ldr	r3, [pc, #100]	; (7c7c <serial_init+0x180>)
    7c16:	f8d3 20c4 	ldr.w	r2, [r3, #196]	; 0xc4
    7c1a:	f042 0208 	orr.w	r2, r2, #8
    7c1e:	f8c3 20c4 	str.w	r2, [r3, #196]	; 0xc4
    7c22:	e791      	b.n	7b48 <serial_init+0x4c>
    7c24:	2301      	movs	r3, #1
    7c26:	606b      	str	r3, [r5, #4]
    7c28:	e7be      	b.n	7ba8 <serial_init+0xac>
    7c2a:	4b14      	ldr	r3, [pc, #80]	; (7c7c <serial_init+0x180>)
    7c2c:	f8d3 20c4 	ldr.w	r2, [r3, #196]	; 0xc4
    7c30:	f042 0210 	orr.w	r2, r2, #16
    7c34:	f8c3 20c4 	str.w	r2, [r3, #196]	; 0xc4
    7c38:	e786      	b.n	7b48 <serial_init+0x4c>
    7c3a:	686b      	ldr	r3, [r5, #4]
    7c3c:	4910      	ldr	r1, [pc, #64]	; (7c80 <serial_init+0x184>)
    7c3e:	ebc3 03c3 	rsb	r3, r3, r3, lsl #3
    7c42:	f04f 36ff 	mov.w	r6, #4294967295	; 0xffffffff
    7c46:	eb01 07c3 	add.w	r7, r1, r3, lsl #3
    7c4a:	4632      	mov	r2, r6
    7c4c:	4633      	mov	r3, r6
    7c4e:	4628      	mov	r0, r5
    7c50:	2100      	movs	r1, #0
    7c52:	607e      	str	r6, [r7, #4]
    7c54:	61fe      	str	r6, [r7, #28]
    7c56:	f7ff febb 	bl	79d0 <serial_set_flow_control>
    7c5a:	4b0c      	ldr	r3, [pc, #48]	; (7c8c <serial_init+0x190>)
    7c5c:	429c      	cmp	r4, r3
    7c5e:	d0cc      	beq.n	7bfa <serial_init+0xfe>
    7c60:	e8bd 81f0 	ldmia.w	sp!, {r4, r5, r6, r7, r8, pc}
    7c64:	2302      	movs	r3, #2
    7c66:	606b      	str	r3, [r5, #4]
    7c68:	e79e      	b.n	7ba8 <serial_init+0xac>
    7c6a:	bf00      	nop
    7c6c:	0000c148 	.word	0x0000c148
    7c70:	0000c0dc 	.word	0x0000c0dc
    7c74:	40010000 	.word	0x40010000
    7c78:	40098000 	.word	0x40098000
    7c7c:	400fc000 	.word	0x400fc000
    7c80:	10000560 	.word	0x10000560
    7c84:	10000558 	.word	0x10000558
    7c88:	10001258 	.word	0x10001258
    7c8c:	4000c000 	.word	0x4000c000

00007c90 <us_ticker_init>:
    7c90:	4a13      	ldr	r2, [pc, #76]	; (7ce0 <us_ticker_init+0x50>)
    7c92:	b538      	push	{r3, r4, r5, lr}
    7c94:	6813      	ldr	r3, [r2, #0]
    7c96:	bb0b      	cbnz	r3, 7cdc <us_ticker_init+0x4c>
    7c98:	4912      	ldr	r1, [pc, #72]	; (7ce4 <us_ticker_init+0x54>)
    7c9a:	2401      	movs	r4, #1
    7c9c:	f8d1 50c4 	ldr.w	r5, [r1, #196]	; 0xc4
    7ca0:	6014      	str	r4, [r2, #0]
    7ca2:	4a11      	ldr	r2, [pc, #68]	; (7ce8 <us_ticker_init+0x58>)
    7ca4:	4811      	ldr	r0, [pc, #68]	; (7cec <us_ticker_init+0x5c>)
    7ca6:	f445 0500 	orr.w	r5, r5, #8388608	; 0x800000
    7caa:	f8c1 50c4 	str.w	r5, [r1, #196]	; 0xc4
    7cae:	6713      	str	r3, [r2, #112]	; 0x70
    7cb0:	6803      	ldr	r3, [r0, #0]
    7cb2:	f101 7143 	add.w	r1, r1, #51118080	; 0x30c0000
    7cb6:	f501 51f4 	add.w	r1, r1, #7808	; 0x1e80
    7cba:	3103      	adds	r1, #3
    7cbc:	089b      	lsrs	r3, r3, #2
    7cbe:	fba1 0303 	umull	r0, r3, r1, r3
    7cc2:	0c9b      	lsrs	r3, r3, #18
    7cc4:	3b01      	subs	r3, #1
    7cc6:	2102      	movs	r1, #2
    7cc8:	6051      	str	r1, [r2, #4]
    7cca:	2004      	movs	r0, #4
    7ccc:	60d3      	str	r3, [r2, #12]
    7cce:	4908      	ldr	r1, [pc, #32]	; (7cf0 <us_ticker_init+0x60>)
    7cd0:	6054      	str	r4, [r2, #4]
    7cd2:	f7ff f827 	bl	6d24 <NVIC_SetVector>
    7cd6:	4b07      	ldr	r3, [pc, #28]	; (7cf4 <us_ticker_init+0x64>)
    7cd8:	2210      	movs	r2, #16
    7cda:	601a      	str	r2, [r3, #0]
    7cdc:	bd38      	pop	{r3, r4, r5, pc}
    7cde:	bf00      	nop
    7ce0:	10000640 	.word	0x10000640
    7ce4:	400fc000 	.word	0x400fc000
    7ce8:	40094000 	.word	0x40094000
    7cec:	10000154 	.word	0x10000154
    7cf0:	00007eb1 	.word	0x00007eb1
    7cf4:	e000e100 	.word	0xe000e100

00007cf8 <us_ticker_read>:
    7cf8:	b508      	push	{r3, lr}
    7cfa:	4b04      	ldr	r3, [pc, #16]	; (7d0c <us_ticker_read+0x14>)
    7cfc:	681b      	ldr	r3, [r3, #0]
    7cfe:	b90b      	cbnz	r3, 7d04 <us_ticker_read+0xc>
    7d00:	f7ff ffc6 	bl	7c90 <us_ticker_init>
    7d04:	4b02      	ldr	r3, [pc, #8]	; (7d10 <us_ticker_read+0x18>)
    7d06:	6898      	ldr	r0, [r3, #8]
    7d08:	bd08      	pop	{r3, pc}
    7d0a:	bf00      	nop
    7d0c:	10000640 	.word	0x10000640
    7d10:	40094000 	.word	0x40094000

00007d14 <us_ticker_set_interrupt>:
    7d14:	4b03      	ldr	r3, [pc, #12]	; (7d24 <us_ticker_set_interrupt+0x10>)
    7d16:	6198      	str	r0, [r3, #24]
    7d18:	695a      	ldr	r2, [r3, #20]
    7d1a:	f042 0201 	orr.w	r2, r2, #1
    7d1e:	615a      	str	r2, [r3, #20]
    7d20:	4770      	bx	lr
    7d22:	bf00      	nop
    7d24:	40094000 	.word	0x40094000

00007d28 <us_ticker_disable_interrupt>:
    7d28:	4b02      	ldr	r3, [pc, #8]	; (7d34 <us_ticker_disable_interrupt+0xc>)
    7d2a:	695a      	ldr	r2, [r3, #20]
    7d2c:	f022 0201 	bic.w	r2, r2, #1
    7d30:	615a      	str	r2, [r3, #20]
    7d32:	4770      	bx	lr
    7d34:	40094000 	.word	0x40094000

00007d38 <us_ticker_clear_interrupt>:
    7d38:	4b01      	ldr	r3, [pc, #4]	; (7d40 <us_ticker_clear_interrupt+0x8>)
    7d3a:	2201      	movs	r2, #1
    7d3c:	601a      	str	r2, [r3, #0]
    7d3e:	4770      	bx	lr
    7d40:	40094000 	.word	0x40094000

00007d44 <SystemInit>:
    7d44:	4a2b      	ldr	r2, [pc, #172]	; (7df4 <SystemInit+0xb0>)
    7d46:	2320      	movs	r3, #32
    7d48:	b470      	push	{r4, r5, r6}
    7d4a:	f8c2 31a0 	str.w	r3, [r2, #416]	; 0x1a0
    7d4e:	f8d2 31a0 	ldr.w	r3, [r2, #416]	; 0x1a0
    7d52:	0698      	lsls	r0, r3, #26
    7d54:	d445      	bmi.n	7de2 <SystemInit+0x9e>
    7d56:	4b27      	ldr	r3, [pc, #156]	; (7df4 <SystemInit+0xb0>)
    7d58:	2102      	movs	r1, #2
    7d5a:	2500      	movs	r5, #0
    7d5c:	2401      	movs	r4, #1
    7d5e:	20aa      	movs	r0, #170	; 0xaa
    7d60:	2255      	movs	r2, #85	; 0x55
    7d62:	260b      	movs	r6, #11
    7d64:	f8c3 1104 	str.w	r1, [r3, #260]	; 0x104
    7d68:	f8c3 51a8 	str.w	r5, [r3, #424]	; 0x1a8
    7d6c:	4619      	mov	r1, r3
    7d6e:	f8c3 51ac 	str.w	r5, [r3, #428]	; 0x1ac
    7d72:	f8c3 410c 	str.w	r4, [r3, #268]	; 0x10c
    7d76:	f8c3 6084 	str.w	r6, [r3, #132]	; 0x84
    7d7a:	f8c3 008c 	str.w	r0, [r3, #140]	; 0x8c
    7d7e:	f8c3 208c 	str.w	r2, [r3, #140]	; 0x8c
    7d82:	f8c3 4080 	str.w	r4, [r3, #128]	; 0x80
    7d86:	f8c3 008c 	str.w	r0, [r3, #140]	; 0x8c
    7d8a:	f8c3 208c 	str.w	r2, [r3, #140]	; 0x8c
    7d8e:	f8d1 3088 	ldr.w	r3, [r1, #136]	; 0x88
    7d92:	4a18      	ldr	r2, [pc, #96]	; (7df4 <SystemInit+0xb0>)
    7d94:	015b      	lsls	r3, r3, #5
    7d96:	d5fa      	bpl.n	7d8e <SystemInit+0x4a>
    7d98:	2103      	movs	r1, #3
    7d9a:	20aa      	movs	r0, #170	; 0xaa
    7d9c:	2355      	movs	r3, #85	; 0x55
    7d9e:	f8c2 1080 	str.w	r1, [r2, #128]	; 0x80
    7da2:	f8c2 008c 	str.w	r0, [r2, #140]	; 0x8c
    7da6:	4611      	mov	r1, r2
    7da8:	f8c2 308c 	str.w	r3, [r2, #140]	; 0x8c
    7dac:	f8d1 3088 	ldr.w	r3, [r1, #136]	; 0x88
    7db0:	4a10      	ldr	r2, [pc, #64]	; (7df4 <SystemInit+0xb0>)
    7db2:	f013 7f40 	tst.w	r3, #50331648	; 0x3000000
    7db6:	d0f9      	beq.n	7dac <SystemInit+0x68>
    7db8:	490f      	ldr	r1, [pc, #60]	; (7df8 <SystemInit+0xb4>)
    7dba:	2300      	movs	r3, #0
    7dbc:	2005      	movs	r0, #5
    7dbe:	f8c2 0108 	str.w	r0, [r2, #264]	; 0x108
    7dc2:	f8c2 10c4 	str.w	r1, [r2, #196]	; 0xc4
    7dc6:	f8c2 31c8 	str.w	r3, [r2, #456]	; 0x1c8
    7dca:	6813      	ldr	r3, [r2, #0]
    7dcc:	bc70      	pop	{r4, r5, r6}
    7dce:	f423 4370 	bic.w	r3, r3, #61440	; 0xf000
    7dd2:	f023 033a 	bic.w	r3, r3, #58	; 0x3a
    7dd6:	f443 5340 	orr.w	r3, r3, #12288	; 0x3000
    7dda:	f043 033a 	orr.w	r3, r3, #58	; 0x3a
    7dde:	6013      	str	r3, [r2, #0]
    7de0:	4770      	bx	lr
    7de2:	f8d2 31a0 	ldr.w	r3, [r2, #416]	; 0x1a0
    7de6:	0659      	lsls	r1, r3, #25
    7de8:	d4b5      	bmi.n	7d56 <SystemInit+0x12>
    7dea:	f8d2 31a0 	ldr.w	r3, [r2, #416]	; 0x1a0
    7dee:	0659      	lsls	r1, r3, #25
    7df0:	d5f7      	bpl.n	7de2 <SystemInit+0x9e>
    7df2:	e7b0      	b.n	7d56 <SystemInit+0x12>
    7df4:	400fc000 	.word	0x400fc000
    7df8:	042887de 	.word	0x042887de

00007dfc <pinmap_pinout>:
    7dfc:	1c43      	adds	r3, r0, #1
    7dfe:	b510      	push	{r4, lr}
    7e00:	4604      	mov	r4, r0
    7e02:	d018      	beq.n	7e36 <pinmap_pinout+0x3a>
    7e04:	680b      	ldr	r3, [r1, #0]
    7e06:	1c58      	adds	r0, r3, #1
    7e08:	d104      	bne.n	7e14 <pinmap_pinout+0x18>
    7e0a:	e00f      	b.n	7e2c <pinmap_pinout+0x30>
    7e0c:	f851 3f0c 	ldr.w	r3, [r1, #12]!
    7e10:	1c5a      	adds	r2, r3, #1
    7e12:	d00b      	beq.n	7e2c <pinmap_pinout+0x30>
    7e14:	429c      	cmp	r4, r3
    7e16:	d1f9      	bne.n	7e0c <pinmap_pinout+0x10>
    7e18:	4620      	mov	r0, r4
    7e1a:	6889      	ldr	r1, [r1, #8]
    7e1c:	f7ff faa0 	bl	7360 <pin_function>
    7e20:	4620      	mov	r0, r4
    7e22:	2102      	movs	r1, #2
    7e24:	e8bd 4010 	ldmia.w	sp!, {r4, lr}
    7e28:	f7ff bab2 	b.w	7390 <pin_mode>
    7e2c:	4802      	ldr	r0, [pc, #8]	; (7e38 <pinmap_pinout+0x3c>)
    7e2e:	e8bd 4010 	ldmia.w	sp!, {r4, lr}
    7e32:	f7fe bfcf 	b.w	6dd4 <error>
    7e36:	bd10      	pop	{r4, pc}
    7e38:	0000c1d8 	.word	0x0000c1d8

00007e3c <pinmap_merge>:
    7e3c:	4288      	cmp	r0, r1
    7e3e:	b508      	push	{r3, lr}
    7e40:	d00a      	beq.n	7e58 <pinmap_merge+0x1c>
    7e42:	1c43      	adds	r3, r0, #1
    7e44:	d007      	beq.n	7e56 <pinmap_merge+0x1a>
    7e46:	3101      	adds	r1, #1
    7e48:	d006      	beq.n	7e58 <pinmap_merge+0x1c>
    7e4a:	4804      	ldr	r0, [pc, #16]	; (7e5c <pinmap_merge+0x20>)
    7e4c:	f7fe ffc2 	bl	6dd4 <error>
    7e50:	f04f 30ff 	mov.w	r0, #4294967295	; 0xffffffff
    7e54:	bd08      	pop	{r3, pc}
    7e56:	4608      	mov	r0, r1
    7e58:	bd08      	pop	{r3, pc}
    7e5a:	bf00      	nop
    7e5c:	0000c1ec 	.word	0x0000c1ec

00007e60 <pinmap_find_peripheral>:
    7e60:	680b      	ldr	r3, [r1, #0]
    7e62:	1c5a      	adds	r2, r3, #1
    7e64:	d104      	bne.n	7e70 <pinmap_find_peripheral+0x10>
    7e66:	e007      	b.n	7e78 <pinmap_find_peripheral+0x18>
    7e68:	f851 3f0c 	ldr.w	r3, [r1, #12]!
    7e6c:	1c5a      	adds	r2, r3, #1
    7e6e:	d003      	beq.n	7e78 <pinmap_find_peripheral+0x18>
    7e70:	4283      	cmp	r3, r0
    7e72:	d1f9      	bne.n	7e68 <pinmap_find_peripheral+0x8>
    7e74:	6848      	ldr	r0, [r1, #4]
    7e76:	4770      	bx	lr
    7e78:	4618      	mov	r0, r3
    7e7a:	4770      	bx	lr

00007e7c <pinmap_peripheral>:
    7e7c:	b508      	push	{r3, lr}
    7e7e:	1c43      	adds	r3, r0, #1
    7e80:	d00c      	beq.n	7e9c <pinmap_peripheral+0x20>
    7e82:	680b      	ldr	r3, [r1, #0]
    7e84:	1c5a      	adds	r2, r3, #1
    7e86:	d104      	bne.n	7e92 <pinmap_peripheral+0x16>
    7e88:	e009      	b.n	7e9e <pinmap_peripheral+0x22>
    7e8a:	f851 3f0c 	ldr.w	r3, [r1, #12]!
    7e8e:	1c5a      	adds	r2, r3, #1
    7e90:	d005      	beq.n	7e9e <pinmap_peripheral+0x22>
    7e92:	4298      	cmp	r0, r3
    7e94:	d1f9      	bne.n	7e8a <pinmap_peripheral+0xe>
    7e96:	6848      	ldr	r0, [r1, #4]
    7e98:	1c41      	adds	r1, r0, #1
    7e9a:	d000      	beq.n	7e9e <pinmap_peripheral+0x22>
    7e9c:	bd08      	pop	{r3, pc}
    7e9e:	4803      	ldr	r0, [pc, #12]	; (7eac <pinmap_peripheral+0x30>)
    7ea0:	f7fe ff98 	bl	6dd4 <error>
    7ea4:	f04f 30ff 	mov.w	r0, #4294967295	; 0xffffffff
    7ea8:	e7f8      	b.n	7e9c <pinmap_peripheral+0x20>
    7eaa:	bf00      	nop
    7eac:	0000c200 	.word	0x0000c200

00007eb0 <us_ticker_irq_handler>:
    7eb0:	b5f8      	push	{r3, r4, r5, r6, r7, lr}
    7eb2:	f7ff ff41 	bl	7d38 <us_ticker_clear_interrupt>
    7eb6:	4e12      	ldr	r6, [pc, #72]	; (7f00 <us_ticker_irq_handler+0x50>)
    7eb8:	4f12      	ldr	r7, [pc, #72]	; (7f04 <us_ticker_irq_handler+0x54>)
    7eba:	6833      	ldr	r3, [r6, #0]
    7ebc:	b1ab      	cbz	r3, 7eea <us_ticker_irq_handler+0x3a>
    7ebe:	e9d3 4500 	ldrd	r4, r5, [r3]
    7ec2:	f7ff ff19 	bl	7cf8 <us_ticker_read>
    7ec6:	1a22      	subs	r2, r4, r0
    7ec8:	f165 0300 	sbc.w	r3, r5, #0
    7ecc:	4610      	mov	r0, r2
    7ece:	4619      	mov	r1, r3
    7ed0:	2801      	cmp	r0, #1
    7ed2:	f171 0300 	sbcs.w	r3, r1, #0
    7ed6:	da0c      	bge.n	7ef2 <us_ticker_irq_handler+0x42>
    7ed8:	6831      	ldr	r1, [r6, #0]
    7eda:	683a      	ldr	r2, [r7, #0]
    7edc:	68cb      	ldr	r3, [r1, #12]
    7ede:	6033      	str	r3, [r6, #0]
    7ee0:	2a00      	cmp	r2, #0
    7ee2:	d0eb      	beq.n	7ebc <us_ticker_irq_handler+0xc>
    7ee4:	6888      	ldr	r0, [r1, #8]
    7ee6:	4790      	blx	r2
    7ee8:	e7e7      	b.n	7eba <us_ticker_irq_handler+0xa>
    7eea:	e8bd 40f8 	ldmia.w	sp!, {r3, r4, r5, r6, r7, lr}
    7eee:	f7ff bf1b 	b.w	7d28 <us_ticker_disable_interrupt>
    7ef2:	6833      	ldr	r3, [r6, #0]
    7ef4:	e9d3 0100 	ldrd	r0, r1, [r3]
    7ef8:	e8bd 40f8 	ldmia.w	sp!, {r3, r4, r5, r6, r7, lr}
    7efc:	f7ff bf0a 	b.w	7d14 <us_ticker_set_interrupt>
    7f00:	10000644 	.word	0x10000644
    7f04:	10000648 	.word	0x10000648

00007f08 <mbed::FileBase::~FileBase()>:
    7f08:	4a09      	ldr	r2, [pc, #36]	; (7f30 <mbed::FileBase::~FileBase()+0x28>)
    7f0a:	6883      	ldr	r3, [r0, #8]
    7f0c:	6002      	str	r2, [r0, #0]
    7f0e:	b153      	cbz	r3, 7f26 <mbed::FileBase::~FileBase()+0x1e>
    7f10:	4b08      	ldr	r3, [pc, #32]	; (7f34 <mbed::FileBase::~FileBase()+0x2c>)
    7f12:	681a      	ldr	r2, [r3, #0]
    7f14:	4282      	cmp	r2, r0
    7f16:	d101      	bne.n	7f1c <mbed::FileBase::~FileBase()+0x14>
    7f18:	e006      	b.n	7f28 <mbed::FileBase::~FileBase()+0x20>
    7f1a:	461a      	mov	r2, r3
    7f1c:	6853      	ldr	r3, [r2, #4]
    7f1e:	4283      	cmp	r3, r0
    7f20:	d1fb      	bne.n	7f1a <mbed::FileBase::~FileBase()+0x12>
    7f22:	6843      	ldr	r3, [r0, #4]
    7f24:	6053      	str	r3, [r2, #4]
    7f26:	4770      	bx	lr
    7f28:	6842      	ldr	r2, [r0, #4]
    7f2a:	601a      	str	r2, [r3, #0]
    7f2c:	4770      	bx	lr
    7f2e:	bf00      	nop
    7f30:	0000c228 	.word	0x0000c228
    7f34:	1000064c 	.word	0x1000064c

00007f38 <mbed::FileBase::~FileBase()>:
    7f38:	4a0c      	ldr	r2, [pc, #48]	; (7f6c <mbed::FileBase::~FileBase()+0x34>)
    7f3a:	6883      	ldr	r3, [r0, #8]
    7f3c:	b510      	push	{r4, lr}
    7f3e:	4604      	mov	r4, r0
    7f40:	6002      	str	r2, [r0, #0]
    7f42:	b153      	cbz	r3, 7f5a <mbed::FileBase::~FileBase()+0x22>
    7f44:	4b0a      	ldr	r3, [pc, #40]	; (7f70 <mbed::FileBase::~FileBase()+0x38>)
    7f46:	681a      	ldr	r2, [r3, #0]
    7f48:	4290      	cmp	r0, r2
    7f4a:	d101      	bne.n	7f50 <mbed::FileBase::~FileBase()+0x18>
    7f4c:	e00a      	b.n	7f64 <mbed::FileBase::~FileBase()+0x2c>
    7f4e:	461a      	mov	r2, r3
    7f50:	6853      	ldr	r3, [r2, #4]
    7f52:	429c      	cmp	r4, r3
    7f54:	d1fb      	bne.n	7f4e <mbed::FileBase::~FileBase()+0x16>
    7f56:	6863      	ldr	r3, [r4, #4]
    7f58:	6053      	str	r3, [r2, #4]
    7f5a:	4620      	mov	r0, r4
    7f5c:	f000 f892 	bl	8084 <operator delete(void*)>
    7f60:	4620      	mov	r0, r4
    7f62:	bd10      	pop	{r4, pc}
    7f64:	6842      	ldr	r2, [r0, #4]
    7f66:	601a      	str	r2, [r3, #0]
    7f68:	e7f7      	b.n	7f5a <mbed::FileBase::~FileBase()+0x22>
    7f6a:	bf00      	nop
    7f6c:	0000c228 	.word	0x0000c228
    7f70:	1000064c 	.word	0x1000064c

00007f74 <mbed::FileBase::FileBase(char const*, mbed::PathType)>:
    7f74:	4b07      	ldr	r3, [pc, #28]	; (7f94 <mbed::FileBase::FileBase(char const*, mbed::PathType)+0x20>)
    7f76:	b410      	push	{r4}
    7f78:	2400      	movs	r4, #0
    7f7a:	7302      	strb	r2, [r0, #12]
    7f7c:	6081      	str	r1, [r0, #8]
    7f7e:	e880 0018 	stmia.w	r0, {r3, r4}
    7f82:	b119      	cbz	r1, 7f8c <mbed::FileBase::FileBase(char const*, mbed::PathType)+0x18>
    7f84:	4b04      	ldr	r3, [pc, #16]	; (7f98 <mbed::FileBase::FileBase(char const*, mbed::PathType)+0x24>)
    7f86:	681a      	ldr	r2, [r3, #0]
    7f88:	6018      	str	r0, [r3, #0]
    7f8a:	6042      	str	r2, [r0, #4]
    7f8c:	f85d 4b04 	ldr.w	r4, [sp], #4
    7f90:	4770      	bx	lr
    7f92:	bf00      	nop
    7f94:	0000c228 	.word	0x0000c228
    7f98:	1000064c 	.word	0x1000064c

00007f9c <mbed::FileBase::lookup(char const*, unsigned int)>:
    7f9c:	b5f8      	push	{r3, r4, r5, r6, r7, lr}
    7f9e:	4b0b      	ldr	r3, [pc, #44]	; (7fcc <mbed::FileBase::lookup(char const*, unsigned int)+0x30>)
    7fa0:	4607      	mov	r7, r0
    7fa2:	681c      	ldr	r4, [r3, #0]
    7fa4:	460e      	mov	r6, r1
    7fa6:	b17c      	cbz	r4, 7fc8 <mbed::FileBase::lookup(char const*, unsigned int)+0x2c>
    7fa8:	68a5      	ldr	r5, [r4, #8]
    7faa:	4639      	mov	r1, r7
    7fac:	4632      	mov	r2, r6
    7fae:	4628      	mov	r0, r5
    7fb0:	b13d      	cbz	r5, 7fc2 <mbed::FileBase::lookup(char const*, unsigned int)+0x26>
    7fb2:	f001 fc3d 	bl	9830 <strncmp>
    7fb6:	b920      	cbnz	r0, 7fc2 <mbed::FileBase::lookup(char const*, unsigned int)+0x26>
    7fb8:	4628      	mov	r0, r5
    7fba:	f001 fc31 	bl	9820 <strlen>
    7fbe:	42b0      	cmp	r0, r6
    7fc0:	d002      	beq.n	7fc8 <mbed::FileBase::lookup(char const*, unsigned int)+0x2c>
    7fc2:	6864      	ldr	r4, [r4, #4]
    7fc4:	2c00      	cmp	r4, #0
    7fc6:	d1ef      	bne.n	7fa8 <mbed::FileBase::lookup(char const*, unsigned int)+0xc>
    7fc8:	4620      	mov	r0, r4
    7fca:	bdf8      	pop	{r3, r4, r5, r6, r7, pc}
    7fcc:	1000064c 	.word	0x1000064c

00007fd0 <mbed::FileBase::getPathType()>:
    7fd0:	7b00      	ldrb	r0, [r0, #12]
    7fd2:	4770      	bx	lr

00007fd4 <mbed::FilePath::FilePath(char const*)>:
    7fd4:	b538      	push	{r3, r4, r5, lr}
    7fd6:	2300      	movs	r3, #0
    7fd8:	6003      	str	r3, [r0, #0]
    7fda:	6043      	str	r3, [r0, #4]
    7fdc:	780a      	ldrb	r2, [r1, #0]
    7fde:	4604      	mov	r4, r0
    7fe0:	2a2f      	cmp	r2, #47	; 0x2f
    7fe2:	d001      	beq.n	7fe8 <mbed::FilePath::FilePath(char const*)+0x14>
    7fe4:	4620      	mov	r0, r4
    7fe6:	bd38      	pop	{r3, r4, r5, pc}
    7fe8:	784a      	ldrb	r2, [r1, #1]
    7fea:	2a00      	cmp	r2, #0
    7fec:	d0fa      	beq.n	7fe4 <mbed::FilePath::FilePath(char const*)+0x10>
    7fee:	1c48      	adds	r0, r1, #1
    7ff0:	6020      	str	r0, [r4, #0]
    7ff2:	784a      	ldrb	r2, [r1, #1]
    7ff4:	2a2f      	cmp	r2, #47	; 0x2f
    7ff6:	d014      	beq.n	8022 <mbed::FilePath::FilePath(char const*)+0x4e>
    7ff8:	b1b2      	cbz	r2, 8028 <mbed::FilePath::FilePath(char const*)+0x54>
    7ffa:	1c8d      	adds	r5, r1, #2
    7ffc:	4619      	mov	r1, r3
    7ffe:	e000      	b.n	8002 <mbed::FilePath::FilePath(char const*)+0x2e>
    8000:	b152      	cbz	r2, 8018 <mbed::FilePath::FilePath(char const*)+0x44>
    8002:	6025      	str	r5, [r4, #0]
    8004:	782a      	ldrb	r2, [r5, #0]
    8006:	462b      	mov	r3, r5
    8008:	2a2f      	cmp	r2, #47	; 0x2f
    800a:	f101 0101 	add.w	r1, r1, #1
    800e:	f105 0501 	add.w	r5, r5, #1
    8012:	d1f5      	bne.n	8000 <mbed::FilePath::FilePath(char const*)+0x2c>
    8014:	3301      	adds	r3, #1
    8016:	6023      	str	r3, [r4, #0]
    8018:	f7ff ffc0 	bl	7f9c <mbed::FileBase::lookup(char const*, unsigned int)>
    801c:	6060      	str	r0, [r4, #4]
    801e:	4620      	mov	r0, r4
    8020:	bd38      	pop	{r3, r4, r5, pc}
    8022:	4619      	mov	r1, r3
    8024:	4603      	mov	r3, r0
    8026:	e7f5      	b.n	8014 <mbed::FilePath::FilePath(char const*)+0x40>
    8028:	4611      	mov	r1, r2
    802a:	e7f5      	b.n	8018 <mbed::FilePath::FilePath(char const*)+0x44>

0000802c <mbed::FilePath::fileName()>:
    802c:	6800      	ldr	r0, [r0, #0]
    802e:	4770      	bx	lr

00008030 <mbed::FilePath::fileSystem()>:
    8030:	b510      	push	{r4, lr}
    8032:	4604      	mov	r4, r0
    8034:	6840      	ldr	r0, [r0, #4]
    8036:	b128      	cbz	r0, 8044 <mbed::FilePath::fileSystem()+0x14>
    8038:	f7ff ffca 	bl	7fd0 <mbed::FileBase::getPathType()>
    803c:	2801      	cmp	r0, #1
    803e:	d101      	bne.n	8044 <mbed::FilePath::fileSystem()+0x14>
    8040:	6860      	ldr	r0, [r4, #4]
    8042:	bd10      	pop	{r4, pc}
    8044:	2000      	movs	r0, #0
    8046:	bd10      	pop	{r4, pc}

00008048 <mbed::FilePath::isFile()>:
    8048:	6840      	ldr	r0, [r0, #4]
    804a:	b508      	push	{r3, lr}
    804c:	b128      	cbz	r0, 805a <mbed::FilePath::isFile()+0x12>
    804e:	f7ff ffbf 	bl	7fd0 <mbed::FileBase::getPathType()>
    8052:	f1d0 0001 	rsbs	r0, r0, #1
    8056:	bf38      	it	cc
    8058:	2000      	movcc	r0, #0
    805a:	bd08      	pop	{r3, pc}

0000805c <mbed::FilePath::file()>:
    805c:	b510      	push	{r4, lr}
    805e:	4604      	mov	r4, r0
    8060:	6840      	ldr	r0, [r0, #4]
    8062:	b130      	cbz	r0, 8072 <mbed::FilePath::file()+0x16>
    8064:	f7ff ffb4 	bl	7fd0 <mbed::FileBase::getPathType()>
    8068:	b918      	cbnz	r0, 8072 <mbed::FilePath::file()+0x16>
    806a:	6860      	ldr	r0, [r4, #4]
    806c:	b108      	cbz	r0, 8072 <mbed::FilePath::file()+0x16>
    806e:	3804      	subs	r0, #4
    8070:	bd10      	pop	{r4, pc}
    8072:	2000      	movs	r0, #0
    8074:	bd10      	pop	{r4, pc}
    8076:	bf00      	nop

00008078 <mbed::FilePath::exists()>:
    8078:	6840      	ldr	r0, [r0, #4]
    807a:	3000      	adds	r0, #0
    807c:	bf18      	it	ne
    807e:	2001      	movne	r0, #1
    8080:	4770      	bx	lr
    8082:	bf00      	nop

00008084 <operator delete(void*)>:
    8084:	b108      	cbz	r0, 808a <operator delete(void*)+0x6>
    8086:	f7f8 b8db 	b.w	240 <__wrap_free>
    808a:	4770      	bx	lr

0000808c <operator delete[](void*)>:
    808c:	f7ff bffa 	b.w	8084 <operator delete(void*)>

00008090 <operator new(unsigned int)>:
    8090:	b510      	push	{r4, lr}
    8092:	2800      	cmp	r0, #0
    8094:	bf14      	ite	ne
    8096:	4604      	movne	r4, r0
    8098:	2401      	moveq	r4, #1
    809a:	4620      	mov	r0, r4
    809c:	f7f8 f8ca 	bl	234 <__wrap_malloc>
    80a0:	b930      	cbnz	r0, 80b0 <operator new(unsigned int)+0x20>
    80a2:	4b04      	ldr	r3, [pc, #16]	; (80b4 <operator new(unsigned int)+0x24>)
    80a4:	681b      	ldr	r3, [r3, #0]
    80a6:	b90b      	cbnz	r3, 80ac <operator new(unsigned int)+0x1c>
    80a8:	f7f8 f8d0 	bl	24c <abort>
    80ac:	4798      	blx	r3
    80ae:	e7f4      	b.n	809a <operator new(unsigned int)+0xa>
    80b0:	bd10      	pop	{r4, pc}
    80b2:	bf00      	nop
    80b4:	10000650 	.word	0x10000650

000080b8 <operator new[](unsigned int)>:
    80b8:	f7ff bfea 	b.w	8090 <operator new(unsigned int)>

000080bc <atexit>:
    80bc:	4601      	mov	r1, r0
    80be:	2000      	movs	r0, #0
    80c0:	4602      	mov	r2, r0
    80c2:	4603      	mov	r3, r0
    80c4:	f002 bbe2 	b.w	a88c <__register_exitproc>

000080c8 <__errno>:
    80c8:	4b01      	ldr	r3, [pc, #4]	; (80d0 <__errno+0x8>)
    80ca:	6818      	ldr	r0, [r3, #0]
    80cc:	4770      	bx	lr
    80ce:	bf00      	nop
    80d0:	100001b8 	.word	0x100001b8

000080d4 <_fclose_r>:
    80d4:	b570      	push	{r4, r5, r6, lr}
    80d6:	4605      	mov	r5, r0
    80d8:	460c      	mov	r4, r1
    80da:	b909      	cbnz	r1, 80e0 <_fclose_r+0xc>
    80dc:	2000      	movs	r0, #0
    80de:	bd70      	pop	{r4, r5, r6, pc}
    80e0:	b118      	cbz	r0, 80ea <_fclose_r+0x16>
    80e2:	6983      	ldr	r3, [r0, #24]
    80e4:	b90b      	cbnz	r3, 80ea <_fclose_r+0x16>
    80e6:	f000 f963 	bl	83b0 <__sinit>
    80ea:	4b20      	ldr	r3, [pc, #128]	; (816c <_fclose_r+0x98>)
    80ec:	429c      	cmp	r4, r3
    80ee:	d101      	bne.n	80f4 <_fclose_r+0x20>
    80f0:	686c      	ldr	r4, [r5, #4]
    80f2:	e008      	b.n	8106 <_fclose_r+0x32>
    80f4:	4b1e      	ldr	r3, [pc, #120]	; (8170 <_fclose_r+0x9c>)
    80f6:	429c      	cmp	r4, r3
    80f8:	d101      	bne.n	80fe <_fclose_r+0x2a>
    80fa:	68ac      	ldr	r4, [r5, #8]
    80fc:	e003      	b.n	8106 <_fclose_r+0x32>
    80fe:	4b1d      	ldr	r3, [pc, #116]	; (8174 <_fclose_r+0xa0>)
    8100:	429c      	cmp	r4, r3
    8102:	bf08      	it	eq
    8104:	68ec      	ldreq	r4, [r5, #12]
    8106:	f9b4 300c 	ldrsh.w	r3, [r4, #12]
    810a:	2b00      	cmp	r3, #0
    810c:	d0e6      	beq.n	80dc <_fclose_r+0x8>
    810e:	4628      	mov	r0, r5
    8110:	4621      	mov	r1, r4
    8112:	f000 f8bd 	bl	8290 <_fflush_r>
    8116:	6b23      	ldr	r3, [r4, #48]	; 0x30
    8118:	4606      	mov	r6, r0
    811a:	b133      	cbz	r3, 812a <_fclose_r+0x56>
    811c:	4628      	mov	r0, r5
    811e:	6a21      	ldr	r1, [r4, #32]
    8120:	4798      	blx	r3
    8122:	2800      	cmp	r0, #0
    8124:	bfb8      	it	lt
    8126:	f04f 36ff 	movlt.w	r6, #4294967295	; 0xffffffff
    812a:	89a3      	ldrh	r3, [r4, #12]
    812c:	061b      	lsls	r3, r3, #24
    812e:	d503      	bpl.n	8138 <_fclose_r+0x64>
    8130:	4628      	mov	r0, r5
    8132:	6921      	ldr	r1, [r4, #16]
    8134:	f000 ffa0 	bl	9078 <_free_r>
    8138:	6b61      	ldr	r1, [r4, #52]	; 0x34
    813a:	b141      	cbz	r1, 814e <_fclose_r+0x7a>
    813c:	f104 0344 	add.w	r3, r4, #68	; 0x44
    8140:	4299      	cmp	r1, r3
    8142:	d002      	beq.n	814a <_fclose_r+0x76>
    8144:	4628      	mov	r0, r5
    8146:	f000 ff97 	bl	9078 <_free_r>
    814a:	2300      	movs	r3, #0
    814c:	6363      	str	r3, [r4, #52]	; 0x34
    814e:	6ca1      	ldr	r1, [r4, #72]	; 0x48
    8150:	b121      	cbz	r1, 815c <_fclose_r+0x88>
    8152:	4628      	mov	r0, r5
    8154:	f000 ff90 	bl	9078 <_free_r>
    8158:	2300      	movs	r3, #0
    815a:	64a3      	str	r3, [r4, #72]	; 0x48
    815c:	f000 f992 	bl	8484 <__sfp_lock_acquire>
    8160:	2300      	movs	r3, #0
    8162:	81a3      	strh	r3, [r4, #12]
    8164:	f000 f98f 	bl	8486 <__sfp_lock_release>
    8168:	4630      	mov	r0, r6
    816a:	bd70      	pop	{r4, r5, r6, pc}
    816c:	0000c230 	.word	0x0000c230
    8170:	0000c250 	.word	0x0000c250
    8174:	0000c270 	.word	0x0000c270

00008178 <fclose>:
    8178:	4b02      	ldr	r3, [pc, #8]	; (8184 <fclose+0xc>)
    817a:	4601      	mov	r1, r0
    817c:	6818      	ldr	r0, [r3, #0]
    817e:	f7ff bfa9 	b.w	80d4 <_fclose_r>
    8182:	bf00      	nop
    8184:	100001b8 	.word	0x100001b8

00008188 <__sflush_r>:
    8188:	898a      	ldrh	r2, [r1, #12]
    818a:	e92d 41f0 	stmdb	sp!, {r4, r5, r6, r7, r8, lr}
    818e:	4605      	mov	r5, r0
    8190:	0710      	lsls	r0, r2, #28
    8192:	460c      	mov	r4, r1
    8194:	d457      	bmi.n	8246 <__sflush_r+0xbe>
    8196:	684b      	ldr	r3, [r1, #4]
    8198:	2b00      	cmp	r3, #0
    819a:	dc02      	bgt.n	81a2 <__sflush_r+0x1a>
    819c:	6c0b      	ldr	r3, [r1, #64]	; 0x40
    819e:	2b00      	cmp	r3, #0
    81a0:	dd18      	ble.n	81d4 <__sflush_r+0x4c>
    81a2:	6ae6      	ldr	r6, [r4, #44]	; 0x2c
    81a4:	b1b6      	cbz	r6, 81d4 <__sflush_r+0x4c>
    81a6:	f402 5280 	and.w	r2, r2, #4096	; 0x1000
    81aa:	2300      	movs	r3, #0
    81ac:	b292      	uxth	r2, r2
    81ae:	682f      	ldr	r7, [r5, #0]
    81b0:	602b      	str	r3, [r5, #0]
    81b2:	b10a      	cbz	r2, 81b8 <__sflush_r+0x30>
    81b4:	6d62      	ldr	r2, [r4, #84]	; 0x54
    81b6:	e010      	b.n	81da <__sflush_r+0x52>
    81b8:	6a21      	ldr	r1, [r4, #32]
    81ba:	4628      	mov	r0, r5
    81bc:	2301      	movs	r3, #1
    81be:	47b0      	blx	r6
    81c0:	1c41      	adds	r1, r0, #1
    81c2:	4602      	mov	r2, r0
    81c4:	d109      	bne.n	81da <__sflush_r+0x52>
    81c6:	682b      	ldr	r3, [r5, #0]
    81c8:	b13b      	cbz	r3, 81da <__sflush_r+0x52>
    81ca:	2b1d      	cmp	r3, #29
    81cc:	d001      	beq.n	81d2 <__sflush_r+0x4a>
    81ce:	2b16      	cmp	r3, #22
    81d0:	d146      	bne.n	8260 <__sflush_r+0xd8>
    81d2:	602f      	str	r7, [r5, #0]
    81d4:	2000      	movs	r0, #0
    81d6:	e8bd 81f0 	ldmia.w	sp!, {r4, r5, r6, r7, r8, pc}
    81da:	89a3      	ldrh	r3, [r4, #12]
    81dc:	075b      	lsls	r3, r3, #29
    81de:	d505      	bpl.n	81ec <__sflush_r+0x64>
    81e0:	6863      	ldr	r3, [r4, #4]
    81e2:	1ad2      	subs	r2, r2, r3
    81e4:	6b63      	ldr	r3, [r4, #52]	; 0x34
    81e6:	b10b      	cbz	r3, 81ec <__sflush_r+0x64>
    81e8:	6c23      	ldr	r3, [r4, #64]	; 0x40
    81ea:	1ad2      	subs	r2, r2, r3
    81ec:	6ae6      	ldr	r6, [r4, #44]	; 0x2c
    81ee:	4628      	mov	r0, r5
    81f0:	6a21      	ldr	r1, [r4, #32]
    81f2:	2300      	movs	r3, #0
    81f4:	47b0      	blx	r6
    81f6:	1c46      	adds	r6, r0, #1
    81f8:	89a2      	ldrh	r2, [r4, #12]
    81fa:	d105      	bne.n	8208 <__sflush_r+0x80>
    81fc:	682b      	ldr	r3, [r5, #0]
    81fe:	b11b      	cbz	r3, 8208 <__sflush_r+0x80>
    8200:	2b1d      	cmp	r3, #29
    8202:	d001      	beq.n	8208 <__sflush_r+0x80>
    8204:	2b16      	cmp	r3, #22
    8206:	d119      	bne.n	823c <__sflush_r+0xb4>
    8208:	2300      	movs	r3, #0
    820a:	6063      	str	r3, [r4, #4]
    820c:	6923      	ldr	r3, [r4, #16]
    820e:	04d1      	lsls	r1, r2, #19
    8210:	6023      	str	r3, [r4, #0]
    8212:	d504      	bpl.n	821e <__sflush_r+0x96>
    8214:	1c42      	adds	r2, r0, #1
    8216:	d101      	bne.n	821c <__sflush_r+0x94>
    8218:	682b      	ldr	r3, [r5, #0]
    821a:	b903      	cbnz	r3, 821e <__sflush_r+0x96>
    821c:	6560      	str	r0, [r4, #84]	; 0x54
    821e:	6b61      	ldr	r1, [r4, #52]	; 0x34
    8220:	602f      	str	r7, [r5, #0]
    8222:	2900      	cmp	r1, #0
    8224:	d0d6      	beq.n	81d4 <__sflush_r+0x4c>
    8226:	f104 0344 	add.w	r3, r4, #68	; 0x44
    822a:	4299      	cmp	r1, r3
    822c:	d002      	beq.n	8234 <__sflush_r+0xac>
    822e:	4628      	mov	r0, r5
    8230:	f000 ff22 	bl	9078 <_free_r>
    8234:	2000      	movs	r0, #0
    8236:	6360      	str	r0, [r4, #52]	; 0x34
    8238:	e8bd 81f0 	ldmia.w	sp!, {r4, r5, r6, r7, r8, pc}
    823c:	f042 0240 	orr.w	r2, r2, #64	; 0x40
    8240:	81a2      	strh	r2, [r4, #12]
    8242:	e8bd 81f0 	ldmia.w	sp!, {r4, r5, r6, r7, r8, pc}
    8246:	690e      	ldr	r6, [r1, #16]
    8248:	2e00      	cmp	r6, #0
    824a:	d0c3      	beq.n	81d4 <__sflush_r+0x4c>
    824c:	680b      	ldr	r3, [r1, #0]
    824e:	600e      	str	r6, [r1, #0]
    8250:	ebc6 0803 	rsb	r8, r6, r3
    8254:	0793      	lsls	r3, r2, #30
    8256:	bf0c      	ite	eq
    8258:	694b      	ldreq	r3, [r1, #20]
    825a:	2300      	movne	r3, #0
    825c:	608b      	str	r3, [r1, #8]
    825e:	e012      	b.n	8286 <__sflush_r+0xfe>
    8260:	89a3      	ldrh	r3, [r4, #12]
    8262:	f04f 30ff 	mov.w	r0, #4294967295	; 0xffffffff
    8266:	f043 0340 	orr.w	r3, r3, #64	; 0x40
    826a:	81a3      	strh	r3, [r4, #12]
    826c:	e8bd 81f0 	ldmia.w	sp!, {r4, r5, r6, r7, r8, pc}
    8270:	6aa7      	ldr	r7, [r4, #40]	; 0x28
    8272:	4628      	mov	r0, r5
    8274:	6a21      	ldr	r1, [r4, #32]
    8276:	4632      	mov	r2, r6
    8278:	4643      	mov	r3, r8
    827a:	47b8      	blx	r7
    827c:	2800      	cmp	r0, #0
    827e:	ddef      	ble.n	8260 <__sflush_r+0xd8>
    8280:	4406      	add	r6, r0
    8282:	ebc0 0808 	rsb	r8, r0, r8
    8286:	f1b8 0f00 	cmp.w	r8, #0
    828a:	dcf1      	bgt.n	8270 <__sflush_r+0xe8>
    828c:	e7a2      	b.n	81d4 <__sflush_r+0x4c>
	...

00008290 <_fflush_r>:
    8290:	b538      	push	{r3, r4, r5, lr}
    8292:	690b      	ldr	r3, [r1, #16]
    8294:	4605      	mov	r5, r0
    8296:	460c      	mov	r4, r1
    8298:	b1db      	cbz	r3, 82d2 <_fflush_r+0x42>
    829a:	b118      	cbz	r0, 82a4 <_fflush_r+0x14>
    829c:	6983      	ldr	r3, [r0, #24]
    829e:	b90b      	cbnz	r3, 82a4 <_fflush_r+0x14>
    82a0:	f000 f886 	bl	83b0 <__sinit>
    82a4:	4b0c      	ldr	r3, [pc, #48]	; (82d8 <_fflush_r+0x48>)
    82a6:	429c      	cmp	r4, r3
    82a8:	d101      	bne.n	82ae <_fflush_r+0x1e>
    82aa:	686c      	ldr	r4, [r5, #4]
    82ac:	e008      	b.n	82c0 <_fflush_r+0x30>
    82ae:	4b0b      	ldr	r3, [pc, #44]	; (82dc <_fflush_r+0x4c>)
    82b0:	429c      	cmp	r4, r3
    82b2:	d101      	bne.n	82b8 <_fflush_r+0x28>
    82b4:	68ac      	ldr	r4, [r5, #8]
    82b6:	e003      	b.n	82c0 <_fflush_r+0x30>
    82b8:	4b09      	ldr	r3, [pc, #36]	; (82e0 <_fflush_r+0x50>)
    82ba:	429c      	cmp	r4, r3
    82bc:	bf08      	it	eq
    82be:	68ec      	ldreq	r4, [r5, #12]
    82c0:	f9b4 300c 	ldrsh.w	r3, [r4, #12]
    82c4:	b12b      	cbz	r3, 82d2 <_fflush_r+0x42>
    82c6:	4628      	mov	r0, r5
    82c8:	4621      	mov	r1, r4
    82ca:	e8bd 4038 	ldmia.w	sp!, {r3, r4, r5, lr}
    82ce:	f7ff bf5b 	b.w	8188 <__sflush_r>
    82d2:	2000      	movs	r0, #0
    82d4:	bd38      	pop	{r3, r4, r5, pc}
    82d6:	bf00      	nop
    82d8:	0000c230 	.word	0x0000c230
    82dc:	0000c250 	.word	0x0000c250
    82e0:	0000c270 	.word	0x0000c270

000082e4 <fflush>:
    82e4:	4601      	mov	r1, r0
    82e6:	b920      	cbnz	r0, 82f2 <fflush+0xe>
    82e8:	4b04      	ldr	r3, [pc, #16]	; (82fc <fflush+0x18>)
    82ea:	4905      	ldr	r1, [pc, #20]	; (8300 <fflush+0x1c>)
    82ec:	6818      	ldr	r0, [r3, #0]
    82ee:	f000 b9cd 	b.w	868c <_fwalk_reent>
    82f2:	4b04      	ldr	r3, [pc, #16]	; (8304 <fflush+0x20>)
    82f4:	6818      	ldr	r0, [r3, #0]
    82f6:	f7ff bfcb 	b.w	8290 <_fflush_r>
    82fa:	bf00      	nop
    82fc:	0000c294 	.word	0x0000c294
    8300:	00008291 	.word	0x00008291
    8304:	100001b8 	.word	0x100001b8

00008308 <_cleanup_r>:
    8308:	b5f8      	push	{r3, r4, r5, r6, r7, lr}
    830a:	4607      	mov	r7, r0
    830c:	f100 0448 	add.w	r4, r0, #72	; 0x48
    8310:	b194      	cbz	r4, 8338 <_cleanup_r+0x30>
    8312:	68a5      	ldr	r5, [r4, #8]
    8314:	6866      	ldr	r6, [r4, #4]
    8316:	3e01      	subs	r6, #1
    8318:	d40c      	bmi.n	8334 <_cleanup_r+0x2c>
    831a:	89ab      	ldrh	r3, [r5, #12]
    831c:	2b01      	cmp	r3, #1
    831e:	d907      	bls.n	8330 <_cleanup_r+0x28>
    8320:	f9b5 300e 	ldrsh.w	r3, [r5, #14]
    8324:	3301      	adds	r3, #1
    8326:	d003      	beq.n	8330 <_cleanup_r+0x28>
    8328:	4638      	mov	r0, r7
    832a:	4629      	mov	r1, r5
    832c:	f7ff ffb0 	bl	8290 <_fflush_r>
    8330:	3568      	adds	r5, #104	; 0x68
    8332:	e7f0      	b.n	8316 <_cleanup_r+0xe>
    8334:	6824      	ldr	r4, [r4, #0]
    8336:	e7eb      	b.n	8310 <_cleanup_r+0x8>
    8338:	bdf8      	pop	{r3, r4, r5, r6, r7, pc}
	...

0000833c <std.isra.0>:
    833c:	2300      	movs	r3, #0
    833e:	b510      	push	{r4, lr}
    8340:	4604      	mov	r4, r0
    8342:	6003      	str	r3, [r0, #0]
    8344:	6043      	str	r3, [r0, #4]
    8346:	6083      	str	r3, [r0, #8]
    8348:	8181      	strh	r1, [r0, #12]
    834a:	6643      	str	r3, [r0, #100]	; 0x64
    834c:	81c2      	strh	r2, [r0, #14]
    834e:	6103      	str	r3, [r0, #16]
    8350:	6143      	str	r3, [r0, #20]
    8352:	6183      	str	r3, [r0, #24]
    8354:	4619      	mov	r1, r3
    8356:	305c      	adds	r0, #92	; 0x5c
    8358:	2208      	movs	r2, #8
    835a:	f000 fa56 	bl	880a <memset>
    835e:	4b05      	ldr	r3, [pc, #20]	; (8374 <std.isra.0+0x38>)
    8360:	6224      	str	r4, [r4, #32]
    8362:	6263      	str	r3, [r4, #36]	; 0x24
    8364:	4b04      	ldr	r3, [pc, #16]	; (8378 <std.isra.0+0x3c>)
    8366:	62a3      	str	r3, [r4, #40]	; 0x28
    8368:	4b04      	ldr	r3, [pc, #16]	; (837c <std.isra.0+0x40>)
    836a:	62e3      	str	r3, [r4, #44]	; 0x2c
    836c:	4b04      	ldr	r3, [pc, #16]	; (8380 <std.isra.0+0x44>)
    836e:	6323      	str	r3, [r4, #48]	; 0x30
    8370:	bd10      	pop	{r4, pc}
    8372:	bf00      	nop
    8374:	000093e5 	.word	0x000093e5
    8378:	0000940b 	.word	0x0000940b
    837c:	00009443 	.word	0x00009443
    8380:	00009467 	.word	0x00009467

00008384 <__sfmoreglue>:
    8384:	b570      	push	{r4, r5, r6, lr}
    8386:	1e4b      	subs	r3, r1, #1
    8388:	2568      	movs	r5, #104	; 0x68
    838a:	435d      	muls	r5, r3
    838c:	460e      	mov	r6, r1
    838e:	f105 0174 	add.w	r1, r5, #116	; 0x74
    8392:	f000 feb5 	bl	9100 <_malloc_r>
    8396:	4604      	mov	r4, r0
    8398:	b140      	cbz	r0, 83ac <__sfmoreglue+0x28>
    839a:	2100      	movs	r1, #0
    839c:	e880 0042 	stmia.w	r0, {r1, r6}
    83a0:	300c      	adds	r0, #12
    83a2:	60a0      	str	r0, [r4, #8]
    83a4:	f105 0268 	add.w	r2, r5, #104	; 0x68
    83a8:	f000 fa2f 	bl	880a <memset>
    83ac:	4620      	mov	r0, r4
    83ae:	bd70      	pop	{r4, r5, r6, pc}

000083b0 <__sinit>:
    83b0:	6983      	ldr	r3, [r0, #24]
    83b2:	b510      	push	{r4, lr}
    83b4:	4604      	mov	r4, r0
    83b6:	bb33      	cbnz	r3, 8406 <__sinit+0x56>
    83b8:	6483      	str	r3, [r0, #72]	; 0x48
    83ba:	64c3      	str	r3, [r0, #76]	; 0x4c
    83bc:	6503      	str	r3, [r0, #80]	; 0x50
    83be:	4b12      	ldr	r3, [pc, #72]	; (8408 <__sinit+0x58>)
    83c0:	4a12      	ldr	r2, [pc, #72]	; (840c <__sinit+0x5c>)
    83c2:	681b      	ldr	r3, [r3, #0]
    83c4:	6282      	str	r2, [r0, #40]	; 0x28
    83c6:	4298      	cmp	r0, r3
    83c8:	bf04      	itt	eq
    83ca:	2301      	moveq	r3, #1
    83cc:	6183      	streq	r3, [r0, #24]
    83ce:	f000 f81f 	bl	8410 <__sfp>
    83d2:	6060      	str	r0, [r4, #4]
    83d4:	4620      	mov	r0, r4
    83d6:	f000 f81b 	bl	8410 <__sfp>
    83da:	60a0      	str	r0, [r4, #8]
    83dc:	4620      	mov	r0, r4
    83de:	f000 f817 	bl	8410 <__sfp>
    83e2:	2104      	movs	r1, #4
    83e4:	60e0      	str	r0, [r4, #12]
    83e6:	2200      	movs	r2, #0
    83e8:	6860      	ldr	r0, [r4, #4]
    83ea:	f7ff ffa7 	bl	833c <std.isra.0>
    83ee:	68a0      	ldr	r0, [r4, #8]
    83f0:	2109      	movs	r1, #9
    83f2:	2201      	movs	r2, #1
    83f4:	f7ff ffa2 	bl	833c <std.isra.0>
    83f8:	68e0      	ldr	r0, [r4, #12]
    83fa:	2112      	movs	r1, #18
    83fc:	2202      	movs	r2, #2
    83fe:	f7ff ff9d 	bl	833c <std.isra.0>
    8402:	2301      	movs	r3, #1
    8404:	61a3      	str	r3, [r4, #24]
    8406:	bd10      	pop	{r4, pc}
    8408:	0000c294 	.word	0x0000c294
    840c:	00008309 	.word	0x00008309

00008410 <__sfp>:
    8410:	b5f8      	push	{r3, r4, r5, r6, r7, lr}
    8412:	4b1b      	ldr	r3, [pc, #108]	; (8480 <__sfp+0x70>)
    8414:	4607      	mov	r7, r0
    8416:	681e      	ldr	r6, [r3, #0]
    8418:	69b3      	ldr	r3, [r6, #24]
    841a:	b913      	cbnz	r3, 8422 <__sfp+0x12>
    841c:	4630      	mov	r0, r6
    841e:	f7ff ffc7 	bl	83b0 <__sinit>
    8422:	3648      	adds	r6, #72	; 0x48
    8424:	68b4      	ldr	r4, [r6, #8]
    8426:	6873      	ldr	r3, [r6, #4]
    8428:	3b01      	subs	r3, #1
    842a:	d404      	bmi.n	8436 <__sfp+0x26>
    842c:	f9b4 500c 	ldrsh.w	r5, [r4, #12]
    8430:	b175      	cbz	r5, 8450 <__sfp+0x40>
    8432:	3468      	adds	r4, #104	; 0x68
    8434:	e7f8      	b.n	8428 <__sfp+0x18>
    8436:	6833      	ldr	r3, [r6, #0]
    8438:	b92b      	cbnz	r3, 8446 <__sfp+0x36>
    843a:	4638      	mov	r0, r7
    843c:	2104      	movs	r1, #4
    843e:	f7ff ffa1 	bl	8384 <__sfmoreglue>
    8442:	6030      	str	r0, [r6, #0]
    8444:	b108      	cbz	r0, 844a <__sfp+0x3a>
    8446:	6836      	ldr	r6, [r6, #0]
    8448:	e7ec      	b.n	8424 <__sfp+0x14>
    844a:	230c      	movs	r3, #12
    844c:	603b      	str	r3, [r7, #0]
    844e:	bdf8      	pop	{r3, r4, r5, r6, r7, pc}
    8450:	f64f 73ff 	movw	r3, #65535	; 0xffff
    8454:	81e3      	strh	r3, [r4, #14]
    8456:	2301      	movs	r3, #1
    8458:	81a3      	strh	r3, [r4, #12]
    845a:	6665      	str	r5, [r4, #100]	; 0x64
    845c:	6025      	str	r5, [r4, #0]
    845e:	60a5      	str	r5, [r4, #8]
    8460:	6065      	str	r5, [r4, #4]
    8462:	6125      	str	r5, [r4, #16]
    8464:	6165      	str	r5, [r4, #20]
    8466:	61a5      	str	r5, [r4, #24]
    8468:	f104 005c 	add.w	r0, r4, #92	; 0x5c
    846c:	4629      	mov	r1, r5
    846e:	2208      	movs	r2, #8
    8470:	f000 f9cb 	bl	880a <memset>
    8474:	6365      	str	r5, [r4, #52]	; 0x34
    8476:	63a5      	str	r5, [r4, #56]	; 0x38
    8478:	64a5      	str	r5, [r4, #72]	; 0x48
    847a:	64e5      	str	r5, [r4, #76]	; 0x4c
    847c:	4620      	mov	r0, r4
    847e:	bdf8      	pop	{r3, r4, r5, r6, r7, pc}
    8480:	0000c294 	.word	0x0000c294

00008484 <__sfp_lock_acquire>:
    8484:	4770      	bx	lr

00008486 <__sfp_lock_release>:
    8486:	4770      	bx	lr

00008488 <__libc_fini_array>:
    8488:	b538      	push	{r3, r4, r5, lr}
    848a:	4d08      	ldr	r5, [pc, #32]	; (84ac <__libc_fini_array+0x24>)
    848c:	4c08      	ldr	r4, [pc, #32]	; (84b0 <__libc_fini_array+0x28>)
    848e:	1b64      	subs	r4, r4, r5
    8490:	10a4      	asrs	r4, r4, #2
    8492:	eb05 0584 	add.w	r5, r5, r4, lsl #2
    8496:	b124      	cbz	r4, 84a2 <__libc_fini_array+0x1a>
    8498:	f855 3d04 	ldr.w	r3, [r5, #-4]!
    849c:	3c01      	subs	r4, #1
    849e:	4798      	blx	r3
    84a0:	e7f9      	b.n	8496 <__libc_fini_array+0xe>
    84a2:	e8bd 4038 	ldmia.w	sp!, {r3, r4, r5, lr}
    84a6:	f002 bd47 	b.w	af38 <_fini>
    84aa:	bf00      	nop
    84ac:	10000208 	.word	0x10000208
    84b0:	1000020c 	.word	0x1000020c

000084b4 <_fopen_r>:
    84b4:	b5f7      	push	{r0, r1, r2, r4, r5, r6, r7, lr}
    84b6:	460f      	mov	r7, r1
    84b8:	4611      	mov	r1, r2
    84ba:	aa01      	add	r2, sp, #4
    84bc:	4605      	mov	r5, r0
    84be:	f002 fa65 	bl	a98c <__sflags>
    84c2:	4606      	mov	r6, r0
    84c4:	b908      	cbnz	r0, 84ca <_fopen_r+0x16>
    84c6:	2000      	movs	r0, #0
    84c8:	e029      	b.n	851e <_fopen_r+0x6a>
    84ca:	4628      	mov	r0, r5
    84cc:	f7ff ffa0 	bl	8410 <__sfp>
    84d0:	4604      	mov	r4, r0
    84d2:	2800      	cmp	r0, #0
    84d4:	d0f7      	beq.n	84c6 <_fopen_r+0x12>
    84d6:	4628      	mov	r0, r5
    84d8:	4639      	mov	r1, r7
    84da:	9a01      	ldr	r2, [sp, #4]
    84dc:	f44f 73db 	mov.w	r3, #438	; 0x1b6
    84e0:	f000 fe62 	bl	91a8 <_open_r>
    84e4:	2800      	cmp	r0, #0
    84e6:	da06      	bge.n	84f6 <_fopen_r+0x42>
    84e8:	2500      	movs	r5, #0
    84ea:	f7ff ffcb 	bl	8484 <__sfp_lock_acquire>
    84ee:	81a5      	strh	r5, [r4, #12]
    84f0:	f7ff ffc9 	bl	8486 <__sfp_lock_release>
    84f4:	e7e7      	b.n	84c6 <_fopen_r+0x12>
    84f6:	4b0b      	ldr	r3, [pc, #44]	; (8524 <_fopen_r+0x70>)
    84f8:	81e0      	strh	r0, [r4, #14]
    84fa:	6263      	str	r3, [r4, #36]	; 0x24
    84fc:	4b0a      	ldr	r3, [pc, #40]	; (8528 <_fopen_r+0x74>)
    84fe:	81a6      	strh	r6, [r4, #12]
    8500:	62a3      	str	r3, [r4, #40]	; 0x28
    8502:	4b0a      	ldr	r3, [pc, #40]	; (852c <_fopen_r+0x78>)
    8504:	6224      	str	r4, [r4, #32]
    8506:	62e3      	str	r3, [r4, #44]	; 0x2c
    8508:	4b09      	ldr	r3, [pc, #36]	; (8530 <_fopen_r+0x7c>)
    850a:	6323      	str	r3, [r4, #48]	; 0x30
    850c:	05f3      	lsls	r3, r6, #23
    850e:	d505      	bpl.n	851c <_fopen_r+0x68>
    8510:	4628      	mov	r0, r5
    8512:	4621      	mov	r1, r4
    8514:	2200      	movs	r2, #0
    8516:	2302      	movs	r3, #2
    8518:	f000 f828 	bl	856c <_fseek_r>
    851c:	4620      	mov	r0, r4
    851e:	b003      	add	sp, #12
    8520:	bdf0      	pop	{r4, r5, r6, r7, pc}
    8522:	bf00      	nop
    8524:	000093e5 	.word	0x000093e5
    8528:	0000940b 	.word	0x0000940b
    852c:	00009443 	.word	0x00009443
    8530:	00009467 	.word	0x00009467

00008534 <fopen>:
    8534:	460a      	mov	r2, r1
    8536:	4903      	ldr	r1, [pc, #12]	; (8544 <fopen+0x10>)
    8538:	4603      	mov	r3, r0
    853a:	6808      	ldr	r0, [r1, #0]
    853c:	4619      	mov	r1, r3
    853e:	f7ff bfb9 	b.w	84b4 <_fopen_r>
    8542:	bf00      	nop
    8544:	100001b8 	.word	0x100001b8

00008548 <fiprintf>:
    8548:	b40e      	push	{r1, r2, r3}
    854a:	b503      	push	{r0, r1, lr}
    854c:	4601      	mov	r1, r0
    854e:	ab03      	add	r3, sp, #12
    8550:	4805      	ldr	r0, [pc, #20]	; (8568 <fiprintf+0x20>)
    8552:	f853 2b04 	ldr.w	r2, [r3], #4
    8556:	6800      	ldr	r0, [r0, #0]
    8558:	9301      	str	r3, [sp, #4]
    855a:	f001 fcd5 	bl	9f08 <_vfiprintf_r>
    855e:	b002      	add	sp, #8
    8560:	f85d eb04 	ldr.w	lr, [sp], #4
    8564:	b003      	add	sp, #12
    8566:	4770      	bx	lr
    8568:	100001b8 	.word	0x100001b8

0000856c <_fseek_r>:
    856c:	f000 b800 	b.w	8570 <_fseeko_r>

00008570 <_fseeko_r>:
    8570:	e92d 43f8 	stmdb	sp!, {r3, r4, r5, r6, r7, r8, r9, lr}
    8574:	460c      	mov	r4, r1
    8576:	4691      	mov	r9, r2
    8578:	461e      	mov	r6, r3
    857a:	4605      	mov	r5, r0
    857c:	b118      	cbz	r0, 8586 <_fseeko_r+0x16>
    857e:	6983      	ldr	r3, [r0, #24]
    8580:	b90b      	cbnz	r3, 8586 <_fseeko_r+0x16>
    8582:	f7ff ff15 	bl	83b0 <__sinit>
    8586:	4b3e      	ldr	r3, [pc, #248]	; (8680 <_fseeko_r+0x110>)
    8588:	429c      	cmp	r4, r3
    858a:	d101      	bne.n	8590 <_fseeko_r+0x20>
    858c:	686c      	ldr	r4, [r5, #4]
    858e:	e008      	b.n	85a2 <_fseeko_r+0x32>
    8590:	4b3c      	ldr	r3, [pc, #240]	; (8684 <_fseeko_r+0x114>)
    8592:	429c      	cmp	r4, r3
    8594:	d101      	bne.n	859a <_fseeko_r+0x2a>
    8596:	68ac      	ldr	r4, [r5, #8]
    8598:	e003      	b.n	85a2 <_fseeko_r+0x32>
    859a:	4b3b      	ldr	r3, [pc, #236]	; (8688 <_fseeko_r+0x118>)
    859c:	429c      	cmp	r4, r3
    859e:	bf08      	it	eq
    85a0:	68ec      	ldreq	r4, [r5, #12]
    85a2:	89a3      	ldrh	r3, [r4, #12]
    85a4:	f403 7384 	and.w	r3, r3, #264	; 0x108
    85a8:	f5b3 7f84 	cmp.w	r3, #264	; 0x108
    85ac:	d103      	bne.n	85b6 <_fseeko_r+0x46>
    85ae:	4628      	mov	r0, r5
    85b0:	4621      	mov	r1, r4
    85b2:	f7ff fe6d 	bl	8290 <_fflush_r>
    85b6:	f8d4 802c 	ldr.w	r8, [r4, #44]	; 0x2c
    85ba:	231d      	movs	r3, #29
    85bc:	f1b8 0f00 	cmp.w	r8, #0
    85c0:	d02b      	beq.n	861a <_fseeko_r+0xaa>
    85c2:	2e01      	cmp	r6, #1
    85c4:	d004      	beq.n	85d0 <_fseeko_r+0x60>
    85c6:	2e02      	cmp	r6, #2
    85c8:	d02b      	beq.n	8622 <_fseeko_r+0xb2>
    85ca:	b356      	cbz	r6, 8622 <_fseeko_r+0xb2>
    85cc:	2316      	movs	r3, #22
    85ce:	e024      	b.n	861a <_fseeko_r+0xaa>
    85d0:	4628      	mov	r0, r5
    85d2:	4621      	mov	r1, r4
    85d4:	f7ff fe5c 	bl	8290 <_fflush_r>
    85d8:	89a2      	ldrh	r2, [r4, #12]
    85da:	f402 5280 	and.w	r2, r2, #4096	; 0x1000
    85de:	b292      	uxth	r2, r2
    85e0:	b10a      	cbz	r2, 85e6 <_fseeko_r+0x76>
    85e2:	6d60      	ldr	r0, [r4, #84]	; 0x54
    85e4:	e005      	b.n	85f2 <_fseeko_r+0x82>
    85e6:	6a21      	ldr	r1, [r4, #32]
    85e8:	4628      	mov	r0, r5
    85ea:	4633      	mov	r3, r6
    85ec:	47c0      	blx	r8
    85ee:	1c41      	adds	r1, r0, #1
    85f0:	d014      	beq.n	861c <_fseeko_r+0xac>
    85f2:	89a3      	ldrh	r3, [r4, #12]
    85f4:	075a      	lsls	r2, r3, #29
    85f6:	d506      	bpl.n	8606 <_fseeko_r+0x96>
    85f8:	6863      	ldr	r3, [r4, #4]
    85fa:	1ac0      	subs	r0, r0, r3
    85fc:	6b63      	ldr	r3, [r4, #52]	; 0x34
    85fe:	b14b      	cbz	r3, 8614 <_fseeko_r+0xa4>
    8600:	6c23      	ldr	r3, [r4, #64]	; 0x40
    8602:	1ac0      	subs	r0, r0, r3
    8604:	e006      	b.n	8614 <_fseeko_r+0xa4>
    8606:	071b      	lsls	r3, r3, #28
    8608:	d504      	bpl.n	8614 <_fseeko_r+0xa4>
    860a:	6823      	ldr	r3, [r4, #0]
    860c:	b113      	cbz	r3, 8614 <_fseeko_r+0xa4>
    860e:	6922      	ldr	r2, [r4, #16]
    8610:	1a9b      	subs	r3, r3, r2
    8612:	4418      	add	r0, r3
    8614:	4481      	add	r9, r0
    8616:	2600      	movs	r6, #0
    8618:	e003      	b.n	8622 <_fseeko_r+0xb2>
    861a:	602b      	str	r3, [r5, #0]
    861c:	f04f 37ff 	mov.w	r7, #4294967295	; 0xffffffff
    8620:	e02b      	b.n	867a <_fseeko_r+0x10a>
    8622:	6923      	ldr	r3, [r4, #16]
    8624:	b91b      	cbnz	r3, 862e <_fseeko_r+0xbe>
    8626:	4628      	mov	r0, r5
    8628:	4621      	mov	r1, r4
    862a:	f000 f889 	bl	8740 <__smakebuf_r>
    862e:	4628      	mov	r0, r5
    8630:	4621      	mov	r1, r4
    8632:	f7ff fe2d 	bl	8290 <_fflush_r>
    8636:	4607      	mov	r7, r0
    8638:	2800      	cmp	r0, #0
    863a:	d1ef      	bne.n	861c <_fseeko_r+0xac>
    863c:	4628      	mov	r0, r5
    863e:	6a21      	ldr	r1, [r4, #32]
    8640:	464a      	mov	r2, r9
    8642:	4633      	mov	r3, r6
    8644:	47c0      	blx	r8
    8646:	3001      	adds	r0, #1
    8648:	d0e8      	beq.n	861c <_fseeko_r+0xac>
    864a:	6b61      	ldr	r1, [r4, #52]	; 0x34
    864c:	b141      	cbz	r1, 8660 <_fseeko_r+0xf0>
    864e:	f104 0344 	add.w	r3, r4, #68	; 0x44
    8652:	4299      	cmp	r1, r3
    8654:	d002      	beq.n	865c <_fseeko_r+0xec>
    8656:	4628      	mov	r0, r5
    8658:	f000 fd0e 	bl	9078 <_free_r>
    865c:	2300      	movs	r3, #0
    865e:	6363      	str	r3, [r4, #52]	; 0x34
    8660:	6923      	ldr	r3, [r4, #16]
    8662:	2100      	movs	r1, #0
    8664:	6023      	str	r3, [r4, #0]
    8666:	89a3      	ldrh	r3, [r4, #12]
    8668:	6061      	str	r1, [r4, #4]
    866a:	f423 6302 	bic.w	r3, r3, #2080	; 0x820
    866e:	81a3      	strh	r3, [r4, #12]
    8670:	f104 005c 	add.w	r0, r4, #92	; 0x5c
    8674:	2208      	movs	r2, #8
    8676:	f000 f8c8 	bl	880a <memset>
    867a:	4638      	mov	r0, r7
    867c:	e8bd 83f8 	ldmia.w	sp!, {r3, r4, r5, r6, r7, r8, r9, pc}
    8680:	0000c230 	.word	0x0000c230
    8684:	0000c250 	.word	0x0000c250
    8688:	0000c270 	.word	0x0000c270

0000868c <_fwalk_reent>:
    868c:	e92d 43f8 	stmdb	sp!, {r3, r4, r5, r6, r7, r8, r9, lr}
    8690:	4680      	mov	r8, r0
    8692:	4689      	mov	r9, r1
    8694:	f100 0448 	add.w	r4, r0, #72	; 0x48
    8698:	2600      	movs	r6, #0
    869a:	b194      	cbz	r4, 86c2 <_fwalk_reent+0x36>
    869c:	68a5      	ldr	r5, [r4, #8]
    869e:	6867      	ldr	r7, [r4, #4]
    86a0:	3f01      	subs	r7, #1
    86a2:	d40c      	bmi.n	86be <_fwalk_reent+0x32>
    86a4:	89ab      	ldrh	r3, [r5, #12]
    86a6:	2b01      	cmp	r3, #1
    86a8:	d907      	bls.n	86ba <_fwalk_reent+0x2e>
    86aa:	f9b5 300e 	ldrsh.w	r3, [r5, #14]
    86ae:	3301      	adds	r3, #1
    86b0:	d003      	beq.n	86ba <_fwalk_reent+0x2e>
    86b2:	4640      	mov	r0, r8
    86b4:	4629      	mov	r1, r5
    86b6:	47c8      	blx	r9
    86b8:	4306      	orrs	r6, r0
    86ba:	3568      	adds	r5, #104	; 0x68
    86bc:	e7f0      	b.n	86a0 <_fwalk_reent+0x14>
    86be:	6824      	ldr	r4, [r4, #0]
    86c0:	e7eb      	b.n	869a <_fwalk_reent+0xe>
    86c2:	4630      	mov	r0, r6
    86c4:	e8bd 83f8 	ldmia.w	sp!, {r3, r4, r5, r6, r7, r8, r9, pc}

000086c8 <__libc_init_array>:
    86c8:	b570      	push	{r4, r5, r6, lr}
    86ca:	4b0e      	ldr	r3, [pc, #56]	; (8704 <__libc_init_array+0x3c>)
    86cc:	4d0e      	ldr	r5, [pc, #56]	; (8708 <__libc_init_array+0x40>)
    86ce:	2400      	movs	r4, #0
    86d0:	1aed      	subs	r5, r5, r3
    86d2:	10ad      	asrs	r5, r5, #2
    86d4:	461e      	mov	r6, r3
    86d6:	42ac      	cmp	r4, r5
    86d8:	d004      	beq.n	86e4 <__libc_init_array+0x1c>
    86da:	f856 2024 	ldr.w	r2, [r6, r4, lsl #2]
    86de:	4790      	blx	r2
    86e0:	3401      	adds	r4, #1
    86e2:	e7f8      	b.n	86d6 <__libc_init_array+0xe>
    86e4:	f002 fc22 	bl	af2c <_init>
    86e8:	4d08      	ldr	r5, [pc, #32]	; (870c <__libc_init_array+0x44>)
    86ea:	4b09      	ldr	r3, [pc, #36]	; (8710 <__libc_init_array+0x48>)
    86ec:	2400      	movs	r4, #0
    86ee:	1aed      	subs	r5, r5, r3
    86f0:	10ad      	asrs	r5, r5, #2
    86f2:	461e      	mov	r6, r3
    86f4:	42ac      	cmp	r4, r5
    86f6:	d004      	beq.n	8702 <__libc_init_array+0x3a>
    86f8:	f856 2024 	ldr.w	r2, [r6, r4, lsl #2]
    86fc:	4790      	blx	r2
    86fe:	3401      	adds	r4, #1
    8700:	e7f8      	b.n	86f4 <__libc_init_array+0x2c>
    8702:	bd70      	pop	{r4, r5, r6, pc}
    8704:	10000200 	.word	0x10000200
    8708:	10000200 	.word	0x10000200
    870c:	10000208 	.word	0x10000208
    8710:	10000200 	.word	0x10000200

00008714 <localtime>:
    8714:	b538      	push	{r3, r4, r5, lr}
    8716:	4b07      	ldr	r3, [pc, #28]	; (8734 <localtime+0x20>)
    8718:	4605      	mov	r5, r0
    871a:	681c      	ldr	r4, [r3, #0]
    871c:	6be3      	ldr	r3, [r4, #60]	; 0x3c
    871e:	b91b      	cbnz	r3, 8728 <localtime+0x14>
    8720:	2024      	movs	r0, #36	; 0x24
    8722:	f7f7 fd87 	bl	234 <__wrap_malloc>
    8726:	63e0      	str	r0, [r4, #60]	; 0x3c
    8728:	4628      	mov	r0, r5
    872a:	6be1      	ldr	r1, [r4, #60]	; 0x3c
    872c:	e8bd 4038 	ldmia.w	sp!, {r3, r4, r5, lr}
    8730:	f000 b802 	b.w	8738 <localtime_r>
    8734:	100001b8 	.word	0x100001b8

00008738 <localtime_r>:
    8738:	2200      	movs	r2, #0
    873a:	f000 bb55 	b.w	8de8 <_mktm_r>
	...

00008740 <__smakebuf_r>:
    8740:	b5f0      	push	{r4, r5, r6, r7, lr}
    8742:	898b      	ldrh	r3, [r1, #12]
    8744:	b091      	sub	sp, #68	; 0x44
    8746:	079e      	lsls	r6, r3, #30
    8748:	4605      	mov	r5, r0
    874a:	460c      	mov	r4, r1
    874c:	d425      	bmi.n	879a <__smakebuf_r+0x5a>
    874e:	f9b1 100e 	ldrsh.w	r1, [r1, #14]
    8752:	2900      	cmp	r1, #0
    8754:	da08      	bge.n	8768 <__smakebuf_r+0x28>
    8756:	89a3      	ldrh	r3, [r4, #12]
    8758:	2700      	movs	r7, #0
    875a:	f013 0f80 	tst.w	r3, #128	; 0x80
    875e:	bf14      	ite	ne
    8760:	2640      	movne	r6, #64	; 0x40
    8762:	f44f 6680 	moveq.w	r6, #1024	; 0x400
    8766:	e00d      	b.n	8784 <__smakebuf_r+0x44>
    8768:	aa01      	add	r2, sp, #4
    876a:	f002 f9d3 	bl	ab14 <_fstat_r>
    876e:	2800      	cmp	r0, #0
    8770:	dbf1      	blt.n	8756 <__smakebuf_r+0x16>
    8772:	9f02      	ldr	r7, [sp, #8]
    8774:	f44f 6680 	mov.w	r6, #1024	; 0x400
    8778:	f407 4770 	and.w	r7, r7, #61440	; 0xf000
    877c:	f5b7 5100 	subs.w	r1, r7, #8192	; 0x2000
    8780:	424f      	negs	r7, r1
    8782:	414f      	adcs	r7, r1
    8784:	4628      	mov	r0, r5
    8786:	4631      	mov	r1, r6
    8788:	f000 fcba 	bl	9100 <_malloc_r>
    878c:	b960      	cbnz	r0, 87a8 <__smakebuf_r+0x68>
    878e:	89a3      	ldrh	r3, [r4, #12]
    8790:	059a      	lsls	r2, r3, #22
    8792:	d41d      	bmi.n	87d0 <__smakebuf_r+0x90>
    8794:	f043 0302 	orr.w	r3, r3, #2
    8798:	81a3      	strh	r3, [r4, #12]
    879a:	f104 0347 	add.w	r3, r4, #71	; 0x47
    879e:	6023      	str	r3, [r4, #0]
    87a0:	6123      	str	r3, [r4, #16]
    87a2:	2301      	movs	r3, #1
    87a4:	6163      	str	r3, [r4, #20]
    87a6:	e013      	b.n	87d0 <__smakebuf_r+0x90>
    87a8:	4b0a      	ldr	r3, [pc, #40]	; (87d4 <__smakebuf_r+0x94>)
    87aa:	62ab      	str	r3, [r5, #40]	; 0x28
    87ac:	89a3      	ldrh	r3, [r4, #12]
    87ae:	6020      	str	r0, [r4, #0]
    87b0:	f043 0380 	orr.w	r3, r3, #128	; 0x80
    87b4:	81a3      	strh	r3, [r4, #12]
    87b6:	6120      	str	r0, [r4, #16]
    87b8:	6166      	str	r6, [r4, #20]
    87ba:	b14f      	cbz	r7, 87d0 <__smakebuf_r+0x90>
    87bc:	4628      	mov	r0, r5
    87be:	f9b4 100e 	ldrsh.w	r1, [r4, #14]
    87c2:	f002 f9bd 	bl	ab40 <_isatty_r>
    87c6:	b118      	cbz	r0, 87d0 <__smakebuf_r+0x90>
    87c8:	89a3      	ldrh	r3, [r4, #12]
    87ca:	f043 0301 	orr.w	r3, r3, #1
    87ce:	81a3      	strh	r3, [r4, #12]
    87d0:	b011      	add	sp, #68	; 0x44
    87d2:	bdf0      	pop	{r4, r5, r6, r7, pc}
    87d4:	00008309 	.word	0x00008309

000087d8 <malloc>:
    87d8:	4b02      	ldr	r3, [pc, #8]	; (87e4 <malloc+0xc>)
    87da:	4601      	mov	r1, r0
    87dc:	6818      	ldr	r0, [r3, #0]
    87de:	f000 bc8f 	b.w	9100 <_malloc_r>
    87e2:	bf00      	nop
    87e4:	100001b8 	.word	0x100001b8

000087e8 <free>:
    87e8:	4b02      	ldr	r3, [pc, #8]	; (87f4 <free+0xc>)
    87ea:	4601      	mov	r1, r0
    87ec:	6818      	ldr	r0, [r3, #0]
    87ee:	f000 bc43 	b.w	9078 <_free_r>
    87f2:	bf00      	nop
    87f4:	100001b8 	.word	0x100001b8

000087f8 <memcpy>:
    87f8:	b510      	push	{r4, lr}
    87fa:	2300      	movs	r3, #0
    87fc:	4293      	cmp	r3, r2
    87fe:	d003      	beq.n	8808 <memcpy+0x10>
    8800:	5ccc      	ldrb	r4, [r1, r3]
    8802:	54c4      	strb	r4, [r0, r3]
    8804:	3301      	adds	r3, #1
    8806:	e7f9      	b.n	87fc <memcpy+0x4>
    8808:	bd10      	pop	{r4, pc}

0000880a <memset>:
    880a:	4402      	add	r2, r0
    880c:	4603      	mov	r3, r0
    880e:	4293      	cmp	r3, r2
    8810:	d002      	beq.n	8818 <memset+0xe>
    8812:	f803 1b01 	strb.w	r1, [r3], #1
    8816:	e7fa      	b.n	880e <memset+0x4>
    8818:	4770      	bx	lr
	...

0000881c <validate_structure>:
    881c:	b537      	push	{r0, r1, r2, r4, r5, lr}
    881e:	6801      	ldr	r1, [r0, #0]
    8820:	4604      	mov	r4, r0
    8822:	293b      	cmp	r1, #59	; 0x3b
    8824:	d910      	bls.n	8848 <validate_structure+0x2c>
    8826:	223c      	movs	r2, #60	; 0x3c
    8828:	4668      	mov	r0, sp
    882a:	f002 f89b 	bl	a964 <div>
    882e:	6861      	ldr	r1, [r4, #4]
    8830:	9b01      	ldr	r3, [sp, #4]
    8832:	9a00      	ldr	r2, [sp, #0]
    8834:	2b00      	cmp	r3, #0
    8836:	440a      	add	r2, r1
    8838:	6062      	str	r2, [r4, #4]
    883a:	db01      	blt.n	8840 <validate_structure+0x24>
    883c:	6023      	str	r3, [r4, #0]
    883e:	e003      	b.n	8848 <validate_structure+0x2c>
    8840:	333c      	adds	r3, #60	; 0x3c
    8842:	3a01      	subs	r2, #1
    8844:	6023      	str	r3, [r4, #0]
    8846:	6062      	str	r2, [r4, #4]
    8848:	6861      	ldr	r1, [r4, #4]
    884a:	293b      	cmp	r1, #59	; 0x3b
    884c:	d910      	bls.n	8870 <validate_structure+0x54>
    884e:	223c      	movs	r2, #60	; 0x3c
    8850:	4668      	mov	r0, sp
    8852:	f002 f887 	bl	a964 <div>
    8856:	68a1      	ldr	r1, [r4, #8]
    8858:	9b01      	ldr	r3, [sp, #4]
    885a:	9a00      	ldr	r2, [sp, #0]
    885c:	2b00      	cmp	r3, #0
    885e:	440a      	add	r2, r1
    8860:	60a2      	str	r2, [r4, #8]
    8862:	db01      	blt.n	8868 <validate_structure+0x4c>
    8864:	6063      	str	r3, [r4, #4]
    8866:	e003      	b.n	8870 <validate_structure+0x54>
    8868:	333c      	adds	r3, #60	; 0x3c
    886a:	3a01      	subs	r2, #1
    886c:	6063      	str	r3, [r4, #4]
    886e:	60a2      	str	r2, [r4, #8]
    8870:	68a1      	ldr	r1, [r4, #8]
    8872:	2917      	cmp	r1, #23
    8874:	d910      	bls.n	8898 <validate_structure+0x7c>
    8876:	2218      	movs	r2, #24
    8878:	4668      	mov	r0, sp
    887a:	f002 f873 	bl	a964 <div>
    887e:	68e1      	ldr	r1, [r4, #12]
    8880:	9b01      	ldr	r3, [sp, #4]
    8882:	9a00      	ldr	r2, [sp, #0]
    8884:	2b00      	cmp	r3, #0
    8886:	440a      	add	r2, r1
    8888:	60e2      	str	r2, [r4, #12]
    888a:	db01      	blt.n	8890 <validate_structure+0x74>
    888c:	60a3      	str	r3, [r4, #8]
    888e:	e003      	b.n	8898 <validate_structure+0x7c>
    8890:	3318      	adds	r3, #24
    8892:	3a01      	subs	r2, #1
    8894:	60a3      	str	r3, [r4, #8]
    8896:	60e2      	str	r2, [r4, #12]
    8898:	6921      	ldr	r1, [r4, #16]
    889a:	290b      	cmp	r1, #11
    889c:	d910      	bls.n	88c0 <validate_structure+0xa4>
    889e:	220c      	movs	r2, #12
    88a0:	4668      	mov	r0, sp
    88a2:	f002 f85f 	bl	a964 <div>
    88a6:	6961      	ldr	r1, [r4, #20]
    88a8:	9b01      	ldr	r3, [sp, #4]
    88aa:	9a00      	ldr	r2, [sp, #0]
    88ac:	2b00      	cmp	r3, #0
    88ae:	440a      	add	r2, r1
    88b0:	6162      	str	r2, [r4, #20]
    88b2:	db01      	blt.n	88b8 <validate_structure+0x9c>
    88b4:	6123      	str	r3, [r4, #16]
    88b6:	e003      	b.n	88c0 <validate_structure+0xa4>
    88b8:	330c      	adds	r3, #12
    88ba:	3a01      	subs	r2, #1
    88bc:	6123      	str	r3, [r4, #16]
    88be:	6162      	str	r2, [r4, #20]
    88c0:	6963      	ldr	r3, [r4, #20]
    88c2:	079d      	lsls	r5, r3, #30
    88c4:	d112      	bne.n	88ec <validate_structure+0xd0>
    88c6:	2264      	movs	r2, #100	; 0x64
    88c8:	fb93 f1f2 	sdiv	r1, r3, r2
    88cc:	fb02 3211 	mls	r2, r2, r1, r3
    88d0:	b972      	cbnz	r2, 88f0 <validate_structure+0xd4>
    88d2:	f203 736c 	addw	r3, r3, #1900	; 0x76c
    88d6:	f44f 72c8 	mov.w	r2, #400	; 0x190
    88da:	fb93 f1f2 	sdiv	r1, r3, r2
    88de:	fb02 3311 	mls	r3, r2, r1, r3
    88e2:	2b00      	cmp	r3, #0
    88e4:	bf0c      	ite	eq
    88e6:	231d      	moveq	r3, #29
    88e8:	231c      	movne	r3, #28
    88ea:	e002      	b.n	88f2 <validate_structure+0xd6>
    88ec:	231c      	movs	r3, #28
    88ee:	e000      	b.n	88f2 <validate_structure+0xd6>
    88f0:	231d      	movs	r3, #29
    88f2:	68e2      	ldr	r2, [r4, #12]
    88f4:	2a00      	cmp	r2, #0
    88f6:	dc37      	bgt.n	8968 <validate_structure+0x14c>
    88f8:	68e2      	ldr	r2, [r4, #12]
    88fa:	2a00      	cmp	r2, #0
    88fc:	dc5c      	bgt.n	89b8 <validate_structure+0x19c>
    88fe:	6921      	ldr	r1, [r4, #16]
    8900:	3901      	subs	r1, #1
    8902:	6121      	str	r1, [r4, #16]
    8904:	3101      	adds	r1, #1
    8906:	d11c      	bne.n	8942 <validate_structure+0x126>
    8908:	6961      	ldr	r1, [r4, #20]
    890a:	200b      	movs	r0, #11
    890c:	1e4b      	subs	r3, r1, #1
    890e:	6120      	str	r0, [r4, #16]
    8910:	0798      	lsls	r0, r3, #30
    8912:	6163      	str	r3, [r4, #20]
    8914:	d112      	bne.n	893c <validate_structure+0x120>
    8916:	2064      	movs	r0, #100	; 0x64
    8918:	fb93 f5f0 	sdiv	r5, r3, r0
    891c:	fb00 3315 	mls	r3, r0, r5, r3
    8920:	b973      	cbnz	r3, 8940 <validate_structure+0x124>
    8922:	f201 716b 	addw	r1, r1, #1899	; 0x76b
    8926:	f44f 73c8 	mov.w	r3, #400	; 0x190
    892a:	fb91 f0f3 	sdiv	r0, r1, r3
    892e:	fb03 1310 	mls	r3, r3, r0, r1
    8932:	2b00      	cmp	r3, #0
    8934:	bf0c      	ite	eq
    8936:	231d      	moveq	r3, #29
    8938:	231c      	movne	r3, #28
    893a:	e002      	b.n	8942 <validate_structure+0x126>
    893c:	231c      	movs	r3, #28
    893e:	e000      	b.n	8942 <validate_structure+0x126>
    8940:	231d      	movs	r3, #29
    8942:	6921      	ldr	r1, [r4, #16]
    8944:	2901      	cmp	r1, #1
    8946:	bf16      	itet	ne
    8948:	481c      	ldrne	r0, [pc, #112]	; (89bc <validate_structure+0x1a0>)
    894a:	4619      	moveq	r1, r3
    894c:	f850 1021 	ldrne.w	r1, [r0, r1, lsl #2]
    8950:	440a      	add	r2, r1
    8952:	60e2      	str	r2, [r4, #12]
    8954:	e7d0      	b.n	88f8 <validate_structure+0xdc>
    8956:	429a      	cmp	r2, r3
    8958:	dd2e      	ble.n	89b8 <validate_structure+0x19c>
    895a:	4618      	mov	r0, r3
    895c:	3101      	adds	r1, #1
    895e:	1a10      	subs	r0, r2, r0
    8960:	290c      	cmp	r1, #12
    8962:	60e0      	str	r0, [r4, #12]
    8964:	6121      	str	r1, [r4, #16]
    8966:	d009      	beq.n	897c <validate_structure+0x160>
    8968:	6921      	ldr	r1, [r4, #16]
    896a:	68e2      	ldr	r2, [r4, #12]
    896c:	2901      	cmp	r1, #1
    896e:	d0f2      	beq.n	8956 <validate_structure+0x13a>
    8970:	4812      	ldr	r0, [pc, #72]	; (89bc <validate_structure+0x1a0>)
    8972:	f850 0021 	ldr.w	r0, [r0, r1, lsl #2]
    8976:	4282      	cmp	r2, r0
    8978:	dcf0      	bgt.n	895c <validate_structure+0x140>
    897a:	e01d      	b.n	89b8 <validate_structure+0x19c>
    897c:	6962      	ldr	r2, [r4, #20]
    897e:	2100      	movs	r1, #0
    8980:	1c53      	adds	r3, r2, #1
    8982:	6121      	str	r1, [r4, #16]
    8984:	0799      	lsls	r1, r3, #30
    8986:	6163      	str	r3, [r4, #20]
    8988:	d112      	bne.n	89b0 <validate_structure+0x194>
    898a:	2164      	movs	r1, #100	; 0x64
    898c:	fb93 f0f1 	sdiv	r0, r3, r1
    8990:	fb01 3310 	mls	r3, r1, r0, r3
    8994:	b973      	cbnz	r3, 89b4 <validate_structure+0x198>
    8996:	f202 726d 	addw	r2, r2, #1901	; 0x76d
    899a:	f44f 73c8 	mov.w	r3, #400	; 0x190
    899e:	fb92 f1f3 	sdiv	r1, r2, r3
    89a2:	fb03 2311 	mls	r3, r3, r1, r2
    89a6:	2b00      	cmp	r3, #0
    89a8:	bf0c      	ite	eq
    89aa:	231d      	moveq	r3, #29
    89ac:	231c      	movne	r3, #28
    89ae:	e7db      	b.n	8968 <validate_structure+0x14c>
    89b0:	231c      	movs	r3, #28
    89b2:	e7d9      	b.n	8968 <validate_structure+0x14c>
    89b4:	231d      	movs	r3, #29
    89b6:	e7d7      	b.n	8968 <validate_structure+0x14c>
    89b8:	b003      	add	sp, #12
    89ba:	bd30      	pop	{r4, r5, pc}
    89bc:	0000c2c8 	.word	0x0000c2c8

000089c0 <mktime>:
    89c0:	e92d 47f0 	stmdb	sp!, {r4, r5, r6, r7, r8, r9, r10, lr}
    89c4:	4604      	mov	r4, r0
    89c6:	f002 f8b7 	bl	ab38 <__gettzinfo>
    89ca:	4681      	mov	r9, r0
    89cc:	4620      	mov	r0, r4
    89ce:	f7ff ff25 	bl	881c <validate_structure>
    89d2:	6823      	ldr	r3, [r4, #0]
    89d4:	6862      	ldr	r2, [r4, #4]
    89d6:	f04f 083c 	mov.w	r8, #60	; 0x3c
    89da:	fb08 3202 	mla	r2, r8, r2, r3
    89de:	68a3      	ldr	r3, [r4, #8]
    89e0:	f44f 6861 	mov.w	r8, #3600	; 0xe10
    89e4:	fb08 2803 	mla	r8, r8, r3, r2
    89e8:	6923      	ldr	r3, [r4, #16]
    89ea:	4aa5      	ldr	r2, [pc, #660]	; (8c80 <mktime+0x2c0>)
    89ec:	68e5      	ldr	r5, [r4, #12]
    89ee:	f852 2023 	ldr.w	r2, [r2, r3, lsl #2]
    89f2:	3d01      	subs	r5, #1
    89f4:	2b01      	cmp	r3, #1
    89f6:	4415      	add	r5, r2
    89f8:	6963      	ldr	r3, [r4, #20]
    89fa:	dd11      	ble.n	8a20 <mktime+0x60>
    89fc:	079e      	lsls	r6, r3, #30
    89fe:	d10f      	bne.n	8a20 <mktime+0x60>
    8a00:	2264      	movs	r2, #100	; 0x64
    8a02:	fb93 f1f2 	sdiv	r1, r3, r2
    8a06:	fb02 3211 	mls	r2, r2, r1, r3
    8a0a:	b942      	cbnz	r2, 8a1e <mktime+0x5e>
    8a0c:	f203 716c 	addw	r1, r3, #1900	; 0x76c
    8a10:	f44f 72c8 	mov.w	r2, #400	; 0x190
    8a14:	fb91 f0f2 	sdiv	r0, r1, r2
    8a18:	fb02 1210 	mls	r2, r2, r0, r1
    8a1c:	b902      	cbnz	r2, 8a20 <mktime+0x60>
    8a1e:	3501      	adds	r5, #1
    8a20:	f503 521c 	add.w	r2, r3, #9984	; 0x2700
    8a24:	3210      	adds	r2, #16
    8a26:	f644 6120 	movw	r1, #20000	; 0x4e20
    8a2a:	428a      	cmp	r2, r1
    8a2c:	61e5      	str	r5, [r4, #28]
    8a2e:	461e      	mov	r6, r3
    8a30:	f200 8122 	bhi.w	8c78 <mktime+0x2b8>
    8a34:	2b46      	cmp	r3, #70	; 0x46
    8a36:	dd21      	ble.n	8a7c <mktime+0xbc>
    8a38:	2246      	movs	r2, #70	; 0x46
    8a3a:	0790      	lsls	r0, r2, #30
    8a3c:	d114      	bne.n	8a68 <mktime+0xa8>
    8a3e:	2164      	movs	r1, #100	; 0x64
    8a40:	fb92 f0f1 	sdiv	r0, r2, r1
    8a44:	fb01 2110 	mls	r1, r1, r0, r2
    8a48:	b989      	cbnz	r1, 8a6e <mktime+0xae>
    8a4a:	f202 706c 	addw	r0, r2, #1900	; 0x76c
    8a4e:	f44f 71c8 	mov.w	r1, #400	; 0x190
    8a52:	fb90 f7f1 	sdiv	r7, r0, r1
    8a56:	fb01 0117 	mls	r1, r1, r7, r0
    8a5a:	2900      	cmp	r1, #0
    8a5c:	f240 116d 	movw	r1, #365	; 0x16d
    8a60:	bf08      	it	eq
    8a62:	f44f 71b7 	moveq.w	r1, #366	; 0x16e
    8a66:	e004      	b.n	8a72 <mktime+0xb2>
    8a68:	f240 116d 	movw	r1, #365	; 0x16d
    8a6c:	e001      	b.n	8a72 <mktime+0xb2>
    8a6e:	f44f 71b7 	mov.w	r1, #366	; 0x16e
    8a72:	3201      	adds	r2, #1
    8a74:	429a      	cmp	r2, r3
    8a76:	440d      	add	r5, r1
    8a78:	d1df      	bne.n	8a3a <mktime+0x7a>
    8a7a:	e043      	b.n	8b04 <mktime+0x144>
    8a7c:	d042      	beq.n	8b04 <mktime+0x144>
    8a7e:	2245      	movs	r2, #69	; 0x45
    8a80:	429a      	cmp	r2, r3
    8a82:	dd1e      	ble.n	8ac2 <mktime+0x102>
    8a84:	0791      	lsls	r1, r2, #30
    8a86:	d114      	bne.n	8ab2 <mktime+0xf2>
    8a88:	2164      	movs	r1, #100	; 0x64
    8a8a:	fb92 f0f1 	sdiv	r0, r2, r1
    8a8e:	fb01 2110 	mls	r1, r1, r0, r2
    8a92:	b989      	cbnz	r1, 8ab8 <mktime+0xf8>
    8a94:	f202 706c 	addw	r0, r2, #1900	; 0x76c
    8a98:	f44f 71c8 	mov.w	r1, #400	; 0x190
    8a9c:	fb90 f6f1 	sdiv	r6, r0, r1
    8aa0:	fb01 0116 	mls	r1, r1, r6, r0
    8aa4:	2900      	cmp	r1, #0
    8aa6:	f240 116d 	movw	r1, #365	; 0x16d
    8aaa:	bf08      	it	eq
    8aac:	f44f 71b7 	moveq.w	r1, #366	; 0x16e
    8ab0:	e004      	b.n	8abc <mktime+0xfc>
    8ab2:	f240 116d 	movw	r1, #365	; 0x16d
    8ab6:	e001      	b.n	8abc <mktime+0xfc>
    8ab8:	f44f 71b7 	mov.w	r1, #366	; 0x16e
    8abc:	1a6d      	subs	r5, r5, r1
    8abe:	3a01      	subs	r2, #1
    8ac0:	e7de      	b.n	8a80 <mktime+0xc0>
    8ac2:	2b45      	cmp	r3, #69	; 0x45
    8ac4:	bfb4      	ite	lt
    8ac6:	461e      	movlt	r6, r3
    8ac8:	2645      	movge	r6, #69	; 0x45
    8aca:	07b7      	lsls	r7, r6, #30
    8acc:	d114      	bne.n	8af8 <mktime+0x138>
    8ace:	2364      	movs	r3, #100	; 0x64
    8ad0:	fb96 f2f3 	sdiv	r2, r6, r3
    8ad4:	fb03 6312 	mls	r3, r3, r2, r6
    8ad8:	b98b      	cbnz	r3, 8afe <mktime+0x13e>
    8ada:	f206 726c 	addw	r2, r6, #1900	; 0x76c
    8ade:	f44f 73c8 	mov.w	r3, #400	; 0x190
    8ae2:	fb92 f1f3 	sdiv	r1, r2, r3
    8ae6:	fb03 2311 	mls	r3, r3, r1, r2
    8aea:	2b00      	cmp	r3, #0
    8aec:	f240 136d 	movw	r3, #365	; 0x16d
    8af0:	bf08      	it	eq
    8af2:	f44f 73b7 	moveq.w	r3, #366	; 0x16e
    8af6:	e004      	b.n	8b02 <mktime+0x142>
    8af8:	f240 136d 	movw	r3, #365	; 0x16d
    8afc:	e001      	b.n	8b02 <mktime+0x142>
    8afe:	f44f 73b7 	mov.w	r3, #366	; 0x16e
    8b02:	1aed      	subs	r5, r5, r3
    8b04:	4b5f      	ldr	r3, [pc, #380]	; (8c84 <mktime+0x2c4>)
    8b06:	fb03 8805 	mla	r8, r3, r5, r8
    8b0a:	f001 f997 	bl	9e3c <__tz_lock>
    8b0e:	4b5e      	ldr	r3, [pc, #376]	; (8c88 <mktime+0x2c8>)
    8b10:	681f      	ldr	r7, [r3, #0]
    8b12:	2f00      	cmp	r7, #0
    8b14:	f000 809d 	beq.w	8c52 <mktime+0x292>
    8b18:	6a23      	ldr	r3, [r4, #32]
    8b1a:	6960      	ldr	r0, [r4, #20]
    8b1c:	2b01      	cmp	r3, #1
    8b1e:	bfb4      	ite	lt
    8b20:	469a      	movlt	r10, r3
    8b22:	f04f 0a01 	movge.w	r10, #1
    8b26:	f8d9 3004 	ldr.w	r3, [r9, #4]
    8b2a:	f200 706c 	addw	r0, r0, #1900	; 0x76c
    8b2e:	4298      	cmp	r0, r3
    8b30:	d10d      	bne.n	8b4e <mktime+0x18e>
    8b32:	f8d9 2038 	ldr.w	r2, [r9, #56]	; 0x38
    8b36:	f8d9 1020 	ldr.w	r1, [r9, #32]
    8b3a:	f8d9 303c 	ldr.w	r3, [r9, #60]	; 0x3c
    8b3e:	f8d9 001c 	ldr.w	r0, [r9, #28]
    8b42:	1a57      	subs	r7, r2, r1
    8b44:	45b8      	cmp	r8, r7
    8b46:	ebc3 0000 	rsb	r0, r3, r0
    8b4a:	da05      	bge.n	8b58 <mktime+0x198>
    8b4c:	e007      	b.n	8b5e <mktime+0x19e>
    8b4e:	f000 f89d 	bl	8c8c <__tzcalc_limits>
    8b52:	2800      	cmp	r0, #0
    8b54:	d1ed      	bne.n	8b32 <mktime+0x172>
    8b56:	e076      	b.n	8c46 <mktime+0x286>
    8b58:	1ad2      	subs	r2, r2, r3
    8b5a:	4590      	cmp	r8, r2
    8b5c:	db73      	blt.n	8c46 <mktime+0x286>
    8b5e:	f8d9 2000 	ldr.w	r2, [r9]
    8b62:	b112      	cbz	r2, 8b6a <mktime+0x1aa>
    8b64:	4580      	cmp	r8, r0
    8b66:	db07      	blt.n	8b78 <mktime+0x1b8>
    8b68:	e001      	b.n	8b6e <mktime+0x1ae>
    8b6a:	4580      	cmp	r8, r0
    8b6c:	da06      	bge.n	8b7c <mktime+0x1bc>
    8b6e:	45b8      	cmp	r8, r7
    8b70:	bfac      	ite	ge
    8b72:	2700      	movge	r7, #0
    8b74:	2701      	movlt	r7, #1
    8b76:	e002      	b.n	8b7e <mktime+0x1be>
    8b78:	2700      	movs	r7, #0
    8b7a:	e000      	b.n	8b7e <mktime+0x1be>
    8b7c:	2701      	movs	r7, #1
    8b7e:	f1ba 0f00 	cmp.w	r10, #0
    8b82:	db61      	blt.n	8c48 <mktime+0x288>
    8b84:	ea87 0a0a 	eor.w	r10, r7, r10
    8b88:	f1ba 0f01 	cmp.w	r10, #1
    8b8c:	d15c      	bne.n	8c48 <mktime+0x288>
    8b8e:	1acb      	subs	r3, r1, r3
    8b90:	b907      	cbnz	r7, 8b94 <mktime+0x1d4>
    8b92:	425b      	negs	r3, r3
    8b94:	6822      	ldr	r2, [r4, #0]
    8b96:	4620      	mov	r0, r4
    8b98:	441a      	add	r2, r3
    8b9a:	6022      	str	r2, [r4, #0]
    8b9c:	4498      	add	r8, r3
    8b9e:	f8d4 a00c 	ldr.w	r10, [r4, #12]
    8ba2:	f7ff fe3b 	bl	881c <validate_structure>
    8ba6:	68e3      	ldr	r3, [r4, #12]
    8ba8:	ebb3 030a 	subs.w	r3, r3, r10
    8bac:	d04c      	beq.n	8c48 <mktime+0x288>
    8bae:	2b01      	cmp	r3, #1
    8bb0:	dc03      	bgt.n	8bba <mktime+0x1fa>
    8bb2:	1c98      	adds	r0, r3, #2
    8bb4:	bfd8      	it	le
    8bb6:	2301      	movle	r3, #1
    8bb8:	e001      	b.n	8bbe <mktime+0x1fe>
    8bba:	f04f 33ff 	mov.w	r3, #4294967295	; 0xffffffff
    8bbe:	69e2      	ldr	r2, [r4, #28]
    8bc0:	441d      	add	r5, r3
    8bc2:	189b      	adds	r3, r3, r2
    8bc4:	d51d      	bpl.n	8c02 <mktime+0x242>
    8bc6:	1e73      	subs	r3, r6, #1
    8bc8:	0799      	lsls	r1, r3, #30
    8bca:	d114      	bne.n	8bf6 <mktime+0x236>
    8bcc:	2264      	movs	r2, #100	; 0x64
    8bce:	fb93 f1f2 	sdiv	r1, r3, r2
    8bd2:	fb02 3311 	mls	r3, r2, r1, r3
    8bd6:	b98b      	cbnz	r3, 8bfc <mktime+0x23c>
    8bd8:	f44f 73c8 	mov.w	r3, #400	; 0x190
    8bdc:	f206 766b 	addw	r6, r6, #1899	; 0x76b
    8be0:	fb96 f2f3 	sdiv	r2, r6, r3
    8be4:	fb03 6612 	mls	r6, r3, r2, r6
    8be8:	f240 136d 	movw	r3, #365	; 0x16d
    8bec:	2e00      	cmp	r6, #0
    8bee:	bf18      	it	ne
    8bf0:	f44f 73b6 	movne.w	r3, #364	; 0x16c
    8bf4:	e025      	b.n	8c42 <mktime+0x282>
    8bf6:	f44f 73b6 	mov.w	r3, #364	; 0x16c
    8bfa:	e022      	b.n	8c42 <mktime+0x282>
    8bfc:	f240 136d 	movw	r3, #365	; 0x16d
    8c00:	e01f      	b.n	8c42 <mktime+0x282>
    8c02:	07b2      	lsls	r2, r6, #30
    8c04:	d114      	bne.n	8c30 <mktime+0x270>
    8c06:	2264      	movs	r2, #100	; 0x64
    8c08:	fb96 f1f2 	sdiv	r1, r6, r2
    8c0c:	fb02 6211 	mls	r2, r2, r1, r6
    8c10:	b98a      	cbnz	r2, 8c36 <mktime+0x276>
    8c12:	f44f 72c8 	mov.w	r2, #400	; 0x190
    8c16:	f206 766c 	addw	r6, r6, #1900	; 0x76c
    8c1a:	fb96 f1f2 	sdiv	r1, r6, r2
    8c1e:	fb02 6611 	mls	r6, r2, r1, r6
    8c22:	f240 126d 	movw	r2, #365	; 0x16d
    8c26:	2e00      	cmp	r6, #0
    8c28:	bf08      	it	eq
    8c2a:	f44f 72b7 	moveq.w	r2, #366	; 0x16e
    8c2e:	e004      	b.n	8c3a <mktime+0x27a>
    8c30:	f240 126d 	movw	r2, #365	; 0x16d
    8c34:	e001      	b.n	8c3a <mktime+0x27a>
    8c36:	f44f 72b7 	mov.w	r2, #366	; 0x16e
    8c3a:	429a      	cmp	r2, r3
    8c3c:	bfd8      	it	le
    8c3e:	ebc2 0303 	rsble	r3, r2, r3
    8c42:	61e3      	str	r3, [r4, #28]
    8c44:	e000      	b.n	8c48 <mktime+0x288>
    8c46:	4657      	mov	r7, r10
    8c48:	2f01      	cmp	r7, #1
    8c4a:	d102      	bne.n	8c52 <mktime+0x292>
    8c4c:	f8d9 003c 	ldr.w	r0, [r9, #60]	; 0x3c
    8c50:	e001      	b.n	8c56 <mktime+0x296>
    8c52:	f8d9 0020 	ldr.w	r0, [r9, #32]
    8c56:	4480      	add	r8, r0
    8c58:	3504      	adds	r5, #4
    8c5a:	f001 f8f0 	bl	9e3e <__tz_unlock>
    8c5e:	2307      	movs	r3, #7
    8c60:	fb95 f3f3 	sdiv	r3, r5, r3
    8c64:	ebc3 03c3 	rsb	r3, r3, r3, lsl #3
    8c68:	1aed      	subs	r5, r5, r3
    8c6a:	bf48      	it	mi
    8c6c:	3507      	addmi	r5, #7
    8c6e:	6227      	str	r7, [r4, #32]
    8c70:	61a5      	str	r5, [r4, #24]
    8c72:	4640      	mov	r0, r8
    8c74:	e8bd 87f0 	ldmia.w	sp!, {r4, r5, r6, r7, r8, r9, r10, pc}
    8c78:	f04f 30ff 	mov.w	r0, #4294967295	; 0xffffffff
    8c7c:	e8bd 87f0 	ldmia.w	sp!, {r4, r5, r6, r7, r8, r9, r10, pc}
    8c80:	0000c298 	.word	0x0000c298
    8c84:	00015180 	.word	0x00015180
    8c88:	1000065c 	.word	0x1000065c

00008c8c <__tzcalc_limits>:
    8c8c:	e92d 4ff8 	stmdb	sp!, {r3, r4, r5, r6, r7, r8, r9, r10, r11, lr}
    8c90:	4604      	mov	r4, r0
    8c92:	f001 ff51 	bl	ab38 <__gettzinfo>
    8c96:	f240 73b1 	movw	r3, #1969	; 0x7b1
    8c9a:	429c      	cmp	r4, r3
    8c9c:	f340 809d 	ble.w	8dda <__tzcalc_limits+0x14e>
    8ca0:	f46f 63f6 	mvn.w	r3, #1968	; 0x7b0
    8ca4:	18e3      	adds	r3, r4, r3
    8ca6:	109b      	asrs	r3, r3, #2
    8ca8:	f240 126d 	movw	r2, #365	; 0x16d
    8cac:	f2a4 77b2 	subw	r7, r4, #1970	; 0x7b2
    8cb0:	fb02 3707 	mla	r7, r2, r7, r3
    8cb4:	f2a4 726d 	subw	r2, r4, #1901	; 0x76d
    8cb8:	f06f 0363 	mvn.w	r3, #99	; 0x63
    8cbc:	fb92 f3f3 	sdiv	r3, r2, r3
    8cc0:	f46f 62c8 	mvn.w	r2, #1600	; 0x640
    8cc4:	441f      	add	r7, r3
    8cc6:	18a2      	adds	r2, r4, r2
    8cc8:	f44f 73c8 	mov.w	r3, #400	; 0x190
    8ccc:	fb92 f2f3 	sdiv	r2, r2, r3
    8cd0:	4417      	add	r7, r2
    8cd2:	2264      	movs	r2, #100	; 0x64
    8cd4:	fb94 fcf2 	sdiv	r12, r4, r2
    8cd8:	fb02 4c1c 	mls	r12, r2, r12, r4
    8cdc:	fb94 f2f3 	sdiv	r2, r4, r3
    8ce0:	fb03 4212 	mls	r2, r3, r2, r4
    8ce4:	f1d2 0201 	rsbs	r2, r2, #1
    8ce8:	6044      	str	r4, [r0, #4]
    8cea:	bf38      	it	cc
    8cec:	2200      	movcc	r2, #0
    8cee:	4603      	mov	r3, r0
    8cf0:	2600      	movs	r6, #0
    8cf2:	7a19      	ldrb	r1, [r3, #8]
    8cf4:	294a      	cmp	r1, #74	; 0x4a
    8cf6:	d113      	bne.n	8d20 <__tzcalc_limits+0x94>
    8cf8:	6959      	ldr	r1, [r3, #20]
    8cfa:	f014 0f03 	tst.w	r4, #3
    8cfe:	eb07 0501 	add.w	r5, r7, r1
    8d02:	d102      	bne.n	8d0a <__tzcalc_limits+0x7e>
    8d04:	f1bc 0f00 	cmp.w	r12, #0
    8d08:	d100      	bne.n	8d0c <__tzcalc_limits+0x80>
    8d0a:	b122      	cbz	r2, 8d16 <__tzcalc_limits+0x8a>
    8d0c:	293b      	cmp	r1, #59	; 0x3b
    8d0e:	bfd4      	ite	le
    8d10:	2100      	movle	r1, #0
    8d12:	2101      	movgt	r1, #1
    8d14:	e000      	b.n	8d18 <__tzcalc_limits+0x8c>
    8d16:	4611      	mov	r1, r2
    8d18:	4429      	add	r1, r5
    8d1a:	f101 38ff 	add.w	r8, r1, #4294967295	; 0xffffffff
    8d1e:	e047      	b.n	8db0 <__tzcalc_limits+0x124>
    8d20:	2944      	cmp	r1, #68	; 0x44
    8d22:	d103      	bne.n	8d2c <__tzcalc_limits+0xa0>
    8d24:	6959      	ldr	r1, [r3, #20]
    8d26:	eb01 0807 	add.w	r8, r1, r7
    8d2a:	e041      	b.n	8db0 <__tzcalc_limits+0x124>
    8d2c:	07a1      	lsls	r1, r4, #30
    8d2e:	d105      	bne.n	8d3c <__tzcalc_limits+0xb0>
    8d30:	f1bc 0f00 	cmp.w	r12, #0
    8d34:	bf0c      	ite	eq
    8d36:	4611      	moveq	r1, r2
    8d38:	2101      	movne	r1, #1
    8d3a:	e000      	b.n	8d3e <__tzcalc_limits+0xb2>
    8d3c:	4611      	mov	r1, r2
    8d3e:	4d28      	ldr	r5, [pc, #160]	; (8de0 <__tzcalc_limits+0x154>)
    8d40:	f04f 0830 	mov.w	r8, #48	; 0x30
    8d44:	f8d3 900c 	ldr.w	r9, [r3, #12]
    8d48:	fb08 5801 	mla	r8, r8, r1, r5
    8d4c:	463d      	mov	r5, r7
    8d4e:	2101      	movs	r1, #1
    8d50:	4549      	cmp	r1, r9
    8d52:	da06      	bge.n	8d62 <__tzcalc_limits+0xd6>
    8d54:	eb08 0a81 	add.w	r10, r8, r1, lsl #2
    8d58:	f85a ac04 	ldr.w	r10, [r10, #-4]
    8d5c:	3101      	adds	r1, #1
    8d5e:	4455      	add	r5, r10
    8d60:	e7f6      	b.n	8d50 <__tzcalc_limits+0xc4>
    8d62:	f105 0b04 	add.w	r11, r5, #4
    8d66:	f04f 0a07 	mov.w	r10, #7
    8d6a:	fb9b fafa 	sdiv	r10, r11, r10
    8d6e:	6959      	ldr	r1, [r3, #20]
    8d70:	ebca 0aca 	rsb	r10, r10, r10, lsl #3
    8d74:	ebca 0a0b 	rsb	r10, r10, r11
    8d78:	f1b9 0f01 	cmp.w	r9, #1
    8d7c:	bfb8      	it	lt
    8d7e:	f04f 0901 	movlt.w	r9, #1
    8d82:	ebb1 0a0a 	subs.w	r10, r1, r10
    8d86:	6919      	ldr	r1, [r3, #16]
    8d88:	f109 4980 	add.w	r9, r9, #1073741824	; 0x40000000
    8d8c:	f101 3bff 	add.w	r11, r1, #4294967295	; 0xffffffff
    8d90:	f109 39ff 	add.w	r9, r9, #4294967295	; 0xffffffff
    8d94:	bf48      	it	mi
    8d96:	f10a 0a07 	addmi.w	r10, r10, #7
    8d9a:	ebcb 01cb 	rsb	r1, r11, r11, lsl #3
    8d9e:	f858 8029 	ldr.w	r8, [r8, r9, lsl #2]
    8da2:	4451      	add	r1, r10
    8da4:	4541      	cmp	r1, r8
    8da6:	db01      	blt.n	8dac <__tzcalc_limits+0x120>
    8da8:	3907      	subs	r1, #7
    8daa:	e7fb      	b.n	8da4 <__tzcalc_limits+0x118>
    8dac:	eb01 0805 	add.w	r8, r1, r5
    8db0:	6999      	ldr	r1, [r3, #24]
    8db2:	4d0c      	ldr	r5, [pc, #48]	; (8de4 <__tzcalc_limits+0x158>)
    8db4:	3601      	adds	r6, #1
    8db6:	fb05 1808 	mla	r8, r5, r8, r1
    8dba:	6a19      	ldr	r1, [r3, #32]
    8dbc:	2e02      	cmp	r6, #2
    8dbe:	4441      	add	r1, r8
    8dc0:	f843 1f1c 	str.w	r1, [r3, #28]!
    8dc4:	d195      	bne.n	8cf2 <__tzcalc_limits+0x66>
    8dc6:	6b83      	ldr	r3, [r0, #56]	; 0x38
    8dc8:	69c2      	ldr	r2, [r0, #28]
    8dca:	429a      	cmp	r2, r3
    8dcc:	bfac      	ite	ge
    8dce:	2300      	movge	r3, #0
    8dd0:	2301      	movlt	r3, #1
    8dd2:	6003      	str	r3, [r0, #0]
    8dd4:	2001      	movs	r0, #1
    8dd6:	e8bd 8ff8 	ldmia.w	sp!, {r3, r4, r5, r6, r7, r8, r9, r10, r11, pc}
    8dda:	2000      	movs	r0, #0
    8ddc:	e8bd 8ff8 	ldmia.w	sp!, {r3, r4, r5, r6, r7, r8, r9, r10, r11, pc}
    8de0:	0000c2f8 	.word	0x0000c2f8
    8de4:	00015180 	.word	0x00015180

00008de8 <_mktm_r>:
    8de8:	e92d 43f8 	stmdb	sp!, {r3, r4, r5, r6, r7, r8, r9, lr}
    8dec:	4680      	mov	r8, r0
    8dee:	460c      	mov	r4, r1
    8df0:	4617      	mov	r7, r2
    8df2:	f001 fea1 	bl	ab38 <__gettzinfo>
    8df6:	f8d8 1000 	ldr.w	r1, [r8]
    8dfa:	4a9b      	ldr	r2, [pc, #620]	; (9068 <_mktm_r+0x280>)
    8dfc:	4606      	mov	r6, r0
    8dfe:	fb91 f3f2 	sdiv	r3, r1, r2
    8e02:	fb02 1113 	mls	r1, r2, r3, r1
    8e06:	2900      	cmp	r1, #0
    8e08:	da05      	bge.n	8e16 <_mktm_r+0x2e>
    8e0a:	f501 31a8 	add.w	r1, r1, #86016	; 0x15000
    8e0e:	f501 71c0 	add.w	r1, r1, #384	; 0x180
    8e12:	3b01      	subs	r3, #1
    8e14:	e7f7      	b.n	8e06 <_mktm_r+0x1e>
    8e16:	f44f 6061 	mov.w	r0, #3600	; 0xe10
    8e1a:	fb91 f2f0 	sdiv	r2, r1, r0
    8e1e:	fb00 1112 	mls	r1, r0, r2, r1
    8e22:	203c      	movs	r0, #60	; 0x3c
    8e24:	60a2      	str	r2, [r4, #8]
    8e26:	fb91 f2f0 	sdiv	r2, r1, r0
    8e2a:	fb00 1112 	mls	r1, r0, r2, r1
    8e2e:	6062      	str	r2, [r4, #4]
    8e30:	6021      	str	r1, [r4, #0]
    8e32:	1d1a      	adds	r2, r3, #4
    8e34:	2107      	movs	r1, #7
    8e36:	fb92 f1f1 	sdiv	r1, r2, r1
    8e3a:	ebc1 01c1 	rsb	r1, r1, r1, lsl #3
    8e3e:	1a52      	subs	r2, r2, r1
    8e40:	bf48      	it	mi
    8e42:	3207      	addmi	r2, #7
    8e44:	2b00      	cmp	r3, #0
    8e46:	61a2      	str	r2, [r4, #24]
    8e48:	f240 75b2 	movw	r5, #1970	; 0x7b2
    8e4c:	4887      	ldr	r0, [pc, #540]	; (906c <_mktm_r+0x284>)
    8e4e:	db2e      	blt.n	8eae <_mktm_r+0xc6>
    8e50:	07a9      	lsls	r1, r5, #30
    8e52:	d105      	bne.n	8e60 <_mktm_r+0x78>
    8e54:	2264      	movs	r2, #100	; 0x64
    8e56:	fb95 f1f2 	sdiv	r1, r5, r2
    8e5a:	fb02 5211 	mls	r2, r2, r1, r5
    8e5e:	b952      	cbnz	r2, 8e76 <_mktm_r+0x8e>
    8e60:	f44f 72c8 	mov.w	r2, #400	; 0x190
    8e64:	fb95 f1f2 	sdiv	r1, r5, r2
    8e68:	fb02 5111 	mls	r1, r2, r1, r5
    8e6c:	f1d1 0101 	rsbs	r1, r1, #1
    8e70:	bf38      	it	cc
    8e72:	2100      	movcc	r1, #0
    8e74:	e000      	b.n	8e78 <_mktm_r+0x90>
    8e76:	2101      	movs	r1, #1
    8e78:	f850 2021 	ldr.w	r2, [r0, r1, lsl #2]
    8e7c:	4293      	cmp	r3, r2
    8e7e:	db1c      	blt.n	8eba <_mktm_r+0xd2>
    8e80:	3501      	adds	r5, #1
    8e82:	1a9b      	subs	r3, r3, r2
    8e84:	e7e4      	b.n	8e50 <_mktm_r+0x68>
    8e86:	2264      	movs	r2, #100	; 0x64
    8e88:	fb95 f1f2 	sdiv	r1, r5, r2
    8e8c:	fb02 5211 	mls	r2, r2, r1, r5
    8e90:	b98a      	cbnz	r2, 8eb6 <_mktm_r+0xce>
    8e92:	f44f 72c8 	mov.w	r2, #400	; 0x190
    8e96:	fb95 f1f2 	sdiv	r1, r5, r2
    8e9a:	fb02 5111 	mls	r1, r2, r1, r5
    8e9e:	f1d1 0101 	rsbs	r1, r1, #1
    8ea2:	bf38      	it	cc
    8ea4:	2100      	movcc	r1, #0
    8ea6:	f850 2021 	ldr.w	r2, [r0, r1, lsl #2]
    8eaa:	189b      	adds	r3, r3, r2
    8eac:	d505      	bpl.n	8eba <_mktm_r+0xd2>
    8eae:	3d01      	subs	r5, #1
    8eb0:	07aa      	lsls	r2, r5, #30
    8eb2:	d1ee      	bne.n	8e92 <_mktm_r+0xaa>
    8eb4:	e7e7      	b.n	8e86 <_mktm_r+0x9e>
    8eb6:	2101      	movs	r1, #1
    8eb8:	e7f5      	b.n	8ea6 <_mktm_r+0xbe>
    8eba:	f2a5 726c 	subw	r2, r5, #1900	; 0x76c
    8ebe:	6162      	str	r2, [r4, #20]
    8ec0:	4a6b      	ldr	r2, [pc, #428]	; (9070 <_mktm_r+0x288>)
    8ec2:	f04f 0930 	mov.w	r9, #48	; 0x30
    8ec6:	fb09 2901 	mla	r9, r9, r1, r2
    8eca:	2200      	movs	r2, #0
    8ecc:	61e3      	str	r3, [r4, #28]
    8ece:	6122      	str	r2, [r4, #16]
    8ed0:	6921      	ldr	r1, [r4, #16]
    8ed2:	f859 2021 	ldr.w	r2, [r9, r1, lsl #2]
    8ed6:	4293      	cmp	r3, r2
    8ed8:	db03      	blt.n	8ee2 <_mktm_r+0xfa>
    8eda:	3101      	adds	r1, #1
    8edc:	1a9b      	subs	r3, r3, r2
    8ede:	6121      	str	r1, [r4, #16]
    8ee0:	e7f6      	b.n	8ed0 <_mktm_r+0xe8>
    8ee2:	3301      	adds	r3, #1
    8ee4:	60e3      	str	r3, [r4, #12]
    8ee6:	2f00      	cmp	r7, #0
    8ee8:	f040 80b9 	bne.w	905e <_mktm_r+0x276>
    8eec:	f000 ffa6 	bl	9e3c <__tz_lock>
    8ef0:	4b60      	ldr	r3, [pc, #384]	; (9074 <_mktm_r+0x28c>)
    8ef2:	681b      	ldr	r3, [r3, #0]
    8ef4:	b303      	cbz	r3, 8f38 <_mktm_r+0x150>
    8ef6:	6873      	ldr	r3, [r6, #4]
    8ef8:	429d      	cmp	r5, r3
    8efa:	d105      	bne.n	8f08 <_mktm_r+0x120>
    8efc:	6831      	ldr	r1, [r6, #0]
    8efe:	f8d8 3000 	ldr.w	r3, [r8]
    8f02:	69f2      	ldr	r2, [r6, #28]
    8f04:	b941      	cbnz	r1, 8f18 <_mktm_r+0x130>
    8f06:	e00a      	b.n	8f1e <_mktm_r+0x136>
    8f08:	4628      	mov	r0, r5
    8f0a:	f7ff febf 	bl	8c8c <__tzcalc_limits>
    8f0e:	2800      	cmp	r0, #0
    8f10:	d1f4      	bne.n	8efc <_mktm_r+0x114>
    8f12:	f04f 33ff 	mov.w	r3, #4294967295	; 0xffffffff
    8f16:	e00d      	b.n	8f34 <_mktm_r+0x14c>
    8f18:	4293      	cmp	r3, r2
    8f1a:	db08      	blt.n	8f2e <_mktm_r+0x146>
    8f1c:	e001      	b.n	8f22 <_mktm_r+0x13a>
    8f1e:	4293      	cmp	r3, r2
    8f20:	da07      	bge.n	8f32 <_mktm_r+0x14a>
    8f22:	6bb2      	ldr	r2, [r6, #56]	; 0x38
    8f24:	4293      	cmp	r3, r2
    8f26:	bfac      	ite	ge
    8f28:	2300      	movge	r3, #0
    8f2a:	2301      	movlt	r3, #1
    8f2c:	e002      	b.n	8f34 <_mktm_r+0x14c>
    8f2e:	2300      	movs	r3, #0
    8f30:	e000      	b.n	8f34 <_mktm_r+0x14c>
    8f32:	2301      	movs	r3, #1
    8f34:	6223      	str	r3, [r4, #32]
    8f36:	e000      	b.n	8f3a <_mktm_r+0x152>
    8f38:	6227      	str	r7, [r4, #32]
    8f3a:	6a23      	ldr	r3, [r4, #32]
    8f3c:	f44f 6061 	mov.w	r0, #3600	; 0xe10
    8f40:	2b01      	cmp	r3, #1
    8f42:	bf0c      	ite	eq
    8f44:	6bf3      	ldreq	r3, [r6, #60]	; 0x3c
    8f46:	6a33      	ldrne	r3, [r6, #32]
    8f48:	6825      	ldr	r5, [r4, #0]
    8f4a:	fb93 f2f0 	sdiv	r2, r3, r0
    8f4e:	fb00 3312 	mls	r3, r0, r2, r3
    8f52:	203c      	movs	r0, #60	; 0x3c
    8f54:	fb93 f1f0 	sdiv	r1, r3, r0
    8f58:	fb00 3311 	mls	r3, r0, r1, r3
    8f5c:	6860      	ldr	r0, [r4, #4]
    8f5e:	1aeb      	subs	r3, r5, r3
    8f60:	1a41      	subs	r1, r0, r1
    8f62:	68a0      	ldr	r0, [r4, #8]
    8f64:	2b3b      	cmp	r3, #59	; 0x3b
    8f66:	ebc2 0200 	rsb	r2, r2, r0
    8f6a:	6023      	str	r3, [r4, #0]
    8f6c:	6061      	str	r1, [r4, #4]
    8f6e:	60a2      	str	r2, [r4, #8]
    8f70:	dd03      	ble.n	8f7a <_mktm_r+0x192>
    8f72:	3101      	adds	r1, #1
    8f74:	6061      	str	r1, [r4, #4]
    8f76:	3b3c      	subs	r3, #60	; 0x3c
    8f78:	e004      	b.n	8f84 <_mktm_r+0x19c>
    8f7a:	2b00      	cmp	r3, #0
    8f7c:	da03      	bge.n	8f86 <_mktm_r+0x19e>
    8f7e:	3901      	subs	r1, #1
    8f80:	6061      	str	r1, [r4, #4]
    8f82:	333c      	adds	r3, #60	; 0x3c
    8f84:	6023      	str	r3, [r4, #0]
    8f86:	6863      	ldr	r3, [r4, #4]
    8f88:	2b3b      	cmp	r3, #59	; 0x3b
    8f8a:	dd03      	ble.n	8f94 <_mktm_r+0x1ac>
    8f8c:	3201      	adds	r2, #1
    8f8e:	60a2      	str	r2, [r4, #8]
    8f90:	3b3c      	subs	r3, #60	; 0x3c
    8f92:	e004      	b.n	8f9e <_mktm_r+0x1b6>
    8f94:	2b00      	cmp	r3, #0
    8f96:	da03      	bge.n	8fa0 <_mktm_r+0x1b8>
    8f98:	3a01      	subs	r2, #1
    8f9a:	60a2      	str	r2, [r4, #8]
    8f9c:	333c      	adds	r3, #60	; 0x3c
    8f9e:	6063      	str	r3, [r4, #4]
    8fa0:	68a3      	ldr	r3, [r4, #8]
    8fa2:	2b17      	cmp	r3, #23
    8fa4:	dd20      	ble.n	8fe8 <_mktm_r+0x200>
    8fa6:	69e2      	ldr	r2, [r4, #28]
    8fa8:	3b18      	subs	r3, #24
    8faa:	3201      	adds	r2, #1
    8fac:	61e2      	str	r2, [r4, #28]
    8fae:	69a2      	ldr	r2, [r4, #24]
    8fb0:	60a3      	str	r3, [r4, #8]
    8fb2:	3201      	adds	r2, #1
    8fb4:	2a06      	cmp	r2, #6
    8fb6:	bfc8      	it	gt
    8fb8:	2200      	movgt	r2, #0
    8fba:	61a2      	str	r2, [r4, #24]
    8fbc:	68e2      	ldr	r2, [r4, #12]
    8fbe:	6923      	ldr	r3, [r4, #16]
    8fc0:	3201      	adds	r2, #1
    8fc2:	60e2      	str	r2, [r4, #12]
    8fc4:	f859 1023 	ldr.w	r1, [r9, r3, lsl #2]
    8fc8:	428a      	cmp	r2, r1
    8fca:	dd45      	ble.n	9058 <_mktm_r+0x270>
    8fcc:	3301      	adds	r3, #1
    8fce:	1a52      	subs	r2, r2, r1
    8fd0:	2b0c      	cmp	r3, #12
    8fd2:	60e2      	str	r2, [r4, #12]
    8fd4:	d001      	beq.n	8fda <_mktm_r+0x1f2>
    8fd6:	6123      	str	r3, [r4, #16]
    8fd8:	e03e      	b.n	9058 <_mktm_r+0x270>
    8fda:	6962      	ldr	r2, [r4, #20]
    8fdc:	2300      	movs	r3, #0
    8fde:	3201      	adds	r2, #1
    8fe0:	6123      	str	r3, [r4, #16]
    8fe2:	6162      	str	r2, [r4, #20]
    8fe4:	61e3      	str	r3, [r4, #28]
    8fe6:	e037      	b.n	9058 <_mktm_r+0x270>
    8fe8:	2b00      	cmp	r3, #0
    8fea:	da35      	bge.n	9058 <_mktm_r+0x270>
    8fec:	69e2      	ldr	r2, [r4, #28]
    8fee:	3318      	adds	r3, #24
    8ff0:	3a01      	subs	r2, #1
    8ff2:	61e2      	str	r2, [r4, #28]
    8ff4:	69a2      	ldr	r2, [r4, #24]
    8ff6:	60a3      	str	r3, [r4, #8]
    8ff8:	3a01      	subs	r2, #1
    8ffa:	bf48      	it	mi
    8ffc:	2206      	movmi	r2, #6
    8ffe:	61a2      	str	r2, [r4, #24]
    9000:	68e2      	ldr	r2, [r4, #12]
    9002:	3a01      	subs	r2, #1
    9004:	60e2      	str	r2, [r4, #12]
    9006:	bb3a      	cbnz	r2, 9058 <_mktm_r+0x270>
    9008:	6923      	ldr	r3, [r4, #16]
    900a:	3b01      	subs	r3, #1
    900c:	d401      	bmi.n	9012 <_mktm_r+0x22a>
    900e:	6123      	str	r3, [r4, #16]
    9010:	e01e      	b.n	9050 <_mktm_r+0x268>
    9012:	230b      	movs	r3, #11
    9014:	6123      	str	r3, [r4, #16]
    9016:	6963      	ldr	r3, [r4, #20]
    9018:	1e5a      	subs	r2, r3, #1
    901a:	f012 0f03 	tst.w	r2, #3
    901e:	6162      	str	r2, [r4, #20]
    9020:	f203 736b 	addw	r3, r3, #1899	; 0x76b
    9024:	d105      	bne.n	9032 <_mktm_r+0x24a>
    9026:	2264      	movs	r2, #100	; 0x64
    9028:	fb93 f1f2 	sdiv	r1, r3, r2
    902c:	fb02 3211 	mls	r2, r2, r1, r3
    9030:	b952      	cbnz	r2, 9048 <_mktm_r+0x260>
    9032:	f44f 72c8 	mov.w	r2, #400	; 0x190
    9036:	fb93 f1f2 	sdiv	r1, r3, r2
    903a:	fb02 3311 	mls	r3, r2, r1, r3
    903e:	f1d3 0301 	rsbs	r3, r3, #1
    9042:	bf38      	it	cc
    9044:	2300      	movcc	r3, #0
    9046:	e000      	b.n	904a <_mktm_r+0x262>
    9048:	2301      	movs	r3, #1
    904a:	f503 73b6 	add.w	r3, r3, #364	; 0x16c
    904e:	61e3      	str	r3, [r4, #28]
    9050:	6923      	ldr	r3, [r4, #16]
    9052:	f859 3023 	ldr.w	r3, [r9, r3, lsl #2]
    9056:	60e3      	str	r3, [r4, #12]
    9058:	f000 fef1 	bl	9e3e <__tz_unlock>
    905c:	e001      	b.n	9062 <_mktm_r+0x27a>
    905e:	2300      	movs	r3, #0
    9060:	6223      	str	r3, [r4, #32]
    9062:	4620      	mov	r0, r4
    9064:	e8bd 83f8 	ldmia.w	sp!, {r3, r4, r5, r6, r7, r8, r9, pc}
    9068:	00015180 	.word	0x00015180
    906c:	0000c358 	.word	0x0000c358
    9070:	0000c2f8 	.word	0x0000c2f8
    9074:	1000065c 	.word	0x1000065c

00009078 <_free_r>:
    9078:	b530      	push	{r4, r5, lr}
    907a:	2900      	cmp	r1, #0
    907c:	d03c      	beq.n	90f8 <_free_r+0x80>
    907e:	f851 2c04 	ldr.w	r2, [r1, #-4]
    9082:	1f0b      	subs	r3, r1, #4
    9084:	491d      	ldr	r1, [pc, #116]	; (90fc <_free_r+0x84>)
    9086:	2a00      	cmp	r2, #0
    9088:	bfb8      	it	lt
    908a:	189b      	addlt	r3, r3, r2
    908c:	680a      	ldr	r2, [r1, #0]
    908e:	460c      	mov	r4, r1
    9090:	b912      	cbnz	r2, 9098 <_free_r+0x20>
    9092:	605a      	str	r2, [r3, #4]
    9094:	600b      	str	r3, [r1, #0]
    9096:	bd30      	pop	{r4, r5, pc}
    9098:	4293      	cmp	r3, r2
    909a:	d20d      	bcs.n	90b8 <_free_r+0x40>
    909c:	6819      	ldr	r1, [r3, #0]
    909e:	1858      	adds	r0, r3, r1
    90a0:	4290      	cmp	r0, r2
    90a2:	d103      	bne.n	90ac <_free_r+0x34>
    90a4:	585a      	ldr	r2, [r3, r1]
    90a6:	4411      	add	r1, r2
    90a8:	6842      	ldr	r2, [r0, #4]
    90aa:	6019      	str	r1, [r3, #0]
    90ac:	605a      	str	r2, [r3, #4]
    90ae:	6023      	str	r3, [r4, #0]
    90b0:	bd30      	pop	{r4, r5, pc}
    90b2:	4299      	cmp	r1, r3
    90b4:	d803      	bhi.n	90be <_free_r+0x46>
    90b6:	460a      	mov	r2, r1
    90b8:	6851      	ldr	r1, [r2, #4]
    90ba:	2900      	cmp	r1, #0
    90bc:	d1f9      	bne.n	90b2 <_free_r+0x3a>
    90be:	6814      	ldr	r4, [r2, #0]
    90c0:	1915      	adds	r5, r2, r4
    90c2:	429d      	cmp	r5, r3
    90c4:	d10a      	bne.n	90dc <_free_r+0x64>
    90c6:	681b      	ldr	r3, [r3, #0]
    90c8:	4423      	add	r3, r4
    90ca:	18d0      	adds	r0, r2, r3
    90cc:	4288      	cmp	r0, r1
    90ce:	6013      	str	r3, [r2, #0]
    90d0:	d112      	bne.n	90f8 <_free_r+0x80>
    90d2:	6808      	ldr	r0, [r1, #0]
    90d4:	4403      	add	r3, r0
    90d6:	6013      	str	r3, [r2, #0]
    90d8:	684b      	ldr	r3, [r1, #4]
    90da:	e00c      	b.n	90f6 <_free_r+0x7e>
    90dc:	d902      	bls.n	90e4 <_free_r+0x6c>
    90de:	230c      	movs	r3, #12
    90e0:	6003      	str	r3, [r0, #0]
    90e2:	bd30      	pop	{r4, r5, pc}
    90e4:	6818      	ldr	r0, [r3, #0]
    90e6:	181c      	adds	r4, r3, r0
    90e8:	428c      	cmp	r4, r1
    90ea:	d103      	bne.n	90f4 <_free_r+0x7c>
    90ec:	680c      	ldr	r4, [r1, #0]
    90ee:	6849      	ldr	r1, [r1, #4]
    90f0:	4420      	add	r0, r4
    90f2:	6018      	str	r0, [r3, #0]
    90f4:	6059      	str	r1, [r3, #4]
    90f6:	6053      	str	r3, [r2, #4]
    90f8:	bd30      	pop	{r4, r5, pc}
    90fa:	bf00      	nop
    90fc:	10000658 	.word	0x10000658

00009100 <_malloc_r>:
    9100:	b570      	push	{r4, r5, r6, lr}
    9102:	1ccd      	adds	r5, r1, #3
    9104:	f025 0503 	bic.w	r5, r5, #3
    9108:	3508      	adds	r5, #8
    910a:	2d0c      	cmp	r5, #12
    910c:	bf38      	it	cc
    910e:	250c      	movcc	r5, #12
    9110:	2d00      	cmp	r5, #0
    9112:	4606      	mov	r6, r0
    9114:	db3f      	blt.n	9196 <_malloc_r+0x96>
    9116:	428d      	cmp	r5, r1
    9118:	d33d      	bcc.n	9196 <_malloc_r+0x96>
    911a:	4b21      	ldr	r3, [pc, #132]	; (91a0 <_malloc_r+0xa0>)
    911c:	681c      	ldr	r4, [r3, #0]
    911e:	4618      	mov	r0, r3
    9120:	4621      	mov	r1, r4
    9122:	b1a1      	cbz	r1, 914e <_malloc_r+0x4e>
    9124:	680b      	ldr	r3, [r1, #0]
    9126:	1b5b      	subs	r3, r3, r5
    9128:	d40e      	bmi.n	9148 <_malloc_r+0x48>
    912a:	2b0b      	cmp	r3, #11
    912c:	d903      	bls.n	9136 <_malloc_r+0x36>
    912e:	600b      	str	r3, [r1, #0]
    9130:	18cc      	adds	r4, r1, r3
    9132:	50cd      	str	r5, [r1, r3]
    9134:	e01f      	b.n	9176 <_malloc_r+0x76>
    9136:	428c      	cmp	r4, r1
    9138:	d102      	bne.n	9140 <_malloc_r+0x40>
    913a:	6862      	ldr	r2, [r4, #4]
    913c:	6002      	str	r2, [r0, #0]
    913e:	e01a      	b.n	9176 <_malloc_r+0x76>
    9140:	684b      	ldr	r3, [r1, #4]
    9142:	6063      	str	r3, [r4, #4]
    9144:	460c      	mov	r4, r1
    9146:	e016      	b.n	9176 <_malloc_r+0x76>
    9148:	460c      	mov	r4, r1
    914a:	6849      	ldr	r1, [r1, #4]
    914c:	e7e9      	b.n	9122 <_malloc_r+0x22>
    914e:	4c15      	ldr	r4, [pc, #84]	; (91a4 <_malloc_r+0xa4>)
    9150:	6823      	ldr	r3, [r4, #0]
    9152:	b91b      	cbnz	r3, 915c <_malloc_r+0x5c>
    9154:	4630      	mov	r0, r6
    9156:	f000 f8e7 	bl	9328 <_sbrk_r>
    915a:	6020      	str	r0, [r4, #0]
    915c:	4629      	mov	r1, r5
    915e:	4630      	mov	r0, r6
    9160:	f000 f8e2 	bl	9328 <_sbrk_r>
    9164:	1c43      	adds	r3, r0, #1
    9166:	4601      	mov	r1, r0
    9168:	d015      	beq.n	9196 <_malloc_r+0x96>
    916a:	1cc4      	adds	r4, r0, #3
    916c:	f024 0403 	bic.w	r4, r4, #3
    9170:	4284      	cmp	r4, r0
    9172:	d10a      	bne.n	918a <_malloc_r+0x8a>
    9174:	6025      	str	r5, [r4, #0]
    9176:	f104 000b 	add.w	r0, r4, #11
    917a:	1d23      	adds	r3, r4, #4
    917c:	f020 0007 	bic.w	r0, r0, #7
    9180:	1ac3      	subs	r3, r0, r3
    9182:	d00b      	beq.n	919c <_malloc_r+0x9c>
    9184:	425a      	negs	r2, r3
    9186:	50e2      	str	r2, [r4, r3]
    9188:	bd70      	pop	{r4, r5, r6, pc}
    918a:	4630      	mov	r0, r6
    918c:	1a61      	subs	r1, r4, r1
    918e:	f000 f8cb 	bl	9328 <_sbrk_r>
    9192:	3001      	adds	r0, #1
    9194:	d1ee      	bne.n	9174 <_malloc_r+0x74>
    9196:	230c      	movs	r3, #12
    9198:	6033      	str	r3, [r6, #0]
    919a:	2000      	movs	r0, #0
    919c:	bd70      	pop	{r4, r5, r6, pc}
    919e:	bf00      	nop
    91a0:	10000658 	.word	0x10000658
    91a4:	10000654 	.word	0x10000654

000091a8 <_open_r>:
    91a8:	b538      	push	{r3, r4, r5, lr}
    91aa:	4c07      	ldr	r4, [pc, #28]	; (91c8 <_open_r+0x20>)
    91ac:	4605      	mov	r5, r0
    91ae:	2000      	movs	r0, #0
    91b0:	6020      	str	r0, [r4, #0]
    91b2:	4608      	mov	r0, r1
    91b4:	4611      	mov	r1, r2
    91b6:	461a      	mov	r2, r3
    91b8:	f7fd ff4e 	bl	7058 <_open>
    91bc:	1c43      	adds	r3, r0, #1
    91be:	d102      	bne.n	91c6 <_open_r+0x1e>
    91c0:	6823      	ldr	r3, [r4, #0]
    91c2:	b103      	cbz	r3, 91c6 <_open_r+0x1e>
    91c4:	602b      	str	r3, [r5, #0]
    91c6:	bd38      	pop	{r3, r4, r5, pc}
    91c8:	10001260 	.word	0x10001260

000091cc <_perror_r>:
    91cc:	b537      	push	{r0, r1, r2, r4, r5, lr}
    91ce:	460d      	mov	r5, r1
    91d0:	4604      	mov	r4, r0
    91d2:	b118      	cbz	r0, 91dc <_perror_r+0x10>
    91d4:	6983      	ldr	r3, [r0, #24]
    91d6:	b90b      	cbnz	r3, 91dc <_perror_r+0x10>
    91d8:	f7ff f8ea 	bl	83b0 <__sinit>
    91dc:	b14d      	cbz	r5, 91f2 <_perror_r+0x26>
    91de:	782b      	ldrb	r3, [r5, #0]
    91e0:	b13b      	cbz	r3, 91f2 <_perror_r+0x26>
    91e2:	68e1      	ldr	r1, [r4, #12]
    91e4:	4628      	mov	r0, r5
    91e6:	f001 fc8b 	bl	ab00 <fputs>
    91ea:	480a      	ldr	r0, [pc, #40]	; (9214 <_perror_r+0x48>)
    91ec:	68e1      	ldr	r1, [r4, #12]
    91ee:	f001 fc87 	bl	ab00 <fputs>
    91f2:	4620      	mov	r0, r4
    91f4:	6821      	ldr	r1, [r4, #0]
    91f6:	2201      	movs	r2, #1
    91f8:	ab01      	add	r3, sp, #4
    91fa:	f000 f943 	bl	9484 <_strerror_r>
    91fe:	b110      	cbz	r0, 9206 <_perror_r+0x3a>
    9200:	68e1      	ldr	r1, [r4, #12]
    9202:	f001 fc7d 	bl	ab00 <fputs>
    9206:	68e1      	ldr	r1, [r4, #12]
    9208:	200a      	movs	r0, #10
    920a:	f001 fc1b 	bl	aa44 <fputc>
    920e:	b003      	add	sp, #12
    9210:	bd30      	pop	{r4, r5, pc}
    9212:	bf00      	nop
    9214:	0000c360 	.word	0x0000c360

00009218 <perror>:
    9218:	4b02      	ldr	r3, [pc, #8]	; (9224 <perror+0xc>)
    921a:	4601      	mov	r1, r0
    921c:	6818      	ldr	r0, [r3, #0]
    921e:	f7ff bfd5 	b.w	91cc <_perror_r>
    9222:	bf00      	nop
    9224:	100001b8 	.word	0x100001b8

00009228 <iprintf>:
    9228:	b40f      	push	{r0, r1, r2, r3}
    922a:	4b0a      	ldr	r3, [pc, #40]	; (9254 <iprintf+0x2c>)
    922c:	b513      	push	{r0, r1, r4, lr}
    922e:	681c      	ldr	r4, [r3, #0]
    9230:	b124      	cbz	r4, 923c <iprintf+0x14>
    9232:	69a3      	ldr	r3, [r4, #24]
    9234:	b913      	cbnz	r3, 923c <iprintf+0x14>
    9236:	4620      	mov	r0, r4
    9238:	f7ff f8ba 	bl	83b0 <__sinit>
    923c:	ab05      	add	r3, sp, #20
    923e:	4620      	mov	r0, r4
    9240:	68a1      	ldr	r1, [r4, #8]
    9242:	9a04      	ldr	r2, [sp, #16]
    9244:	9301      	str	r3, [sp, #4]
    9246:	f000 fe5f 	bl	9f08 <_vfiprintf_r>
    924a:	b002      	add	sp, #8
    924c:	e8bd 4010 	ldmia.w	sp!, {r4, lr}
    9250:	b004      	add	sp, #16
    9252:	4770      	bx	lr
    9254:	100001b8 	.word	0x100001b8

00009258 <_puts_r>:
    9258:	b570      	push	{r4, r5, r6, lr}
    925a:	460e      	mov	r6, r1
    925c:	4605      	mov	r5, r0
    925e:	b118      	cbz	r0, 9268 <_puts_r+0x10>
    9260:	6983      	ldr	r3, [r0, #24]
    9262:	b90b      	cbnz	r3, 9268 <_puts_r+0x10>
    9264:	f7ff f8a4 	bl	83b0 <__sinit>
    9268:	68ac      	ldr	r4, [r5, #8]
    926a:	89a3      	ldrh	r3, [r4, #12]
    926c:	0719      	lsls	r1, r3, #28
    926e:	d501      	bpl.n	9274 <_puts_r+0x1c>
    9270:	6923      	ldr	r3, [r4, #16]
    9272:	b983      	cbnz	r3, 9296 <_puts_r+0x3e>
    9274:	4628      	mov	r0, r5
    9276:	4621      	mov	r1, r4
    9278:	f001 fa9a 	bl	a7b0 <__swsetup_r>
    927c:	b158      	cbz	r0, 9296 <_puts_r+0x3e>
    927e:	f04f 30ff 	mov.w	r0, #4294967295	; 0xffffffff
    9282:	bd70      	pop	{r4, r5, r6, pc}
    9284:	2b00      	cmp	r3, #0
    9286:	db0e      	blt.n	92a6 <_puts_r+0x4e>
    9288:	6823      	ldr	r3, [r4, #0]
    928a:	f816 2c01 	ldrb.w	r2, [r6, #-1]
    928e:	701a      	strb	r2, [r3, #0]
    9290:	6823      	ldr	r3, [r4, #0]
    9292:	3301      	adds	r3, #1
    9294:	6023      	str	r3, [r4, #0]
    9296:	68a3      	ldr	r3, [r4, #8]
    9298:	f816 2b01 	ldrb.w	r2, [r6], #1
    929c:	3b01      	subs	r3, #1
    929e:	60a3      	str	r3, [r4, #8]
    92a0:	2a00      	cmp	r2, #0
    92a2:	d1ef      	bne.n	9284 <_puts_r+0x2c>
    92a4:	e017      	b.n	92d6 <_puts_r+0x7e>
    92a6:	69a2      	ldr	r2, [r4, #24]
    92a8:	4293      	cmp	r3, r2
    92aa:	db09      	blt.n	92c0 <_puts_r+0x68>
    92ac:	6823      	ldr	r3, [r4, #0]
    92ae:	f816 2c01 	ldrb.w	r2, [r6, #-1]
    92b2:	701a      	strb	r2, [r3, #0]
    92b4:	6823      	ldr	r3, [r4, #0]
    92b6:	7819      	ldrb	r1, [r3, #0]
    92b8:	290a      	cmp	r1, #10
    92ba:	d1ea      	bne.n	9292 <_puts_r+0x3a>
    92bc:	4628      	mov	r0, r5
    92be:	e002      	b.n	92c6 <_puts_r+0x6e>
    92c0:	f816 1c01 	ldrb.w	r1, [r6, #-1]
    92c4:	4628      	mov	r0, r5
    92c6:	4622      	mov	r2, r4
    92c8:	f001 fa0c 	bl	a6e4 <__swbuf_r>
    92cc:	f1b0 32ff 	subs.w	r2, r0, #4294967295	; 0xffffffff
    92d0:	4250      	negs	r0, r2
    92d2:	4150      	adcs	r0, r2
    92d4:	e7d2      	b.n	927c <_puts_r+0x24>
    92d6:	2b00      	cmp	r3, #0
    92d8:	da16      	bge.n	9308 <_puts_r+0xb0>
    92da:	69a2      	ldr	r2, [r4, #24]
    92dc:	4293      	cmp	r3, r2
    92de:	db08      	blt.n	92f2 <_puts_r+0x9a>
    92e0:	6823      	ldr	r3, [r4, #0]
    92e2:	220a      	movs	r2, #10
    92e4:	701a      	strb	r2, [r3, #0]
    92e6:	6823      	ldr	r3, [r4, #0]
    92e8:	7819      	ldrb	r1, [r3, #0]
    92ea:	4291      	cmp	r1, r2
    92ec:	d110      	bne.n	9310 <_puts_r+0xb8>
    92ee:	4628      	mov	r0, r5
    92f0:	e001      	b.n	92f6 <_puts_r+0x9e>
    92f2:	4628      	mov	r0, r5
    92f4:	210a      	movs	r1, #10
    92f6:	4622      	mov	r2, r4
    92f8:	f001 f9f4 	bl	a6e4 <__swbuf_r>
    92fc:	f1b0 33ff 	subs.w	r3, r0, #4294967295	; 0xffffffff
    9300:	4258      	negs	r0, r3
    9302:	4158      	adcs	r0, r3
    9304:	b130      	cbz	r0, 9314 <_puts_r+0xbc>
    9306:	e7ba      	b.n	927e <_puts_r+0x26>
    9308:	6823      	ldr	r3, [r4, #0]
    930a:	220a      	movs	r2, #10
    930c:	701a      	strb	r2, [r3, #0]
    930e:	6823      	ldr	r3, [r4, #0]
    9310:	3301      	adds	r3, #1
    9312:	6023      	str	r3, [r4, #0]
    9314:	200a      	movs	r0, #10
    9316:	bd70      	pop	{r4, r5, r6, pc}

00009318 <puts>:
    9318:	4b02      	ldr	r3, [pc, #8]	; (9324 <puts+0xc>)
    931a:	4601      	mov	r1, r0
    931c:	6818      	ldr	r0, [r3, #0]
    931e:	f7ff bf9b 	b.w	9258 <_puts_r>
    9322:	bf00      	nop
    9324:	100001b8 	.word	0x100001b8

00009328 <_sbrk_r>:
    9328:	b538      	push	{r3, r4, r5, lr}
    932a:	4c06      	ldr	r4, [pc, #24]	; (9344 <_sbrk_r+0x1c>)
    932c:	2300      	movs	r3, #0
    932e:	4605      	mov	r5, r0
    9330:	4608      	mov	r0, r1
    9332:	6023      	str	r3, [r4, #0]
    9334:	f7fd ffac 	bl	7290 <_sbrk>
    9338:	1c43      	adds	r3, r0, #1
    933a:	d102      	bne.n	9342 <_sbrk_r+0x1a>
    933c:	6823      	ldr	r3, [r4, #0]
    933e:	b103      	cbz	r3, 9342 <_sbrk_r+0x1a>
    9340:	602b      	str	r3, [r5, #0]
    9342:	bd38      	pop	{r3, r4, r5, pc}
    9344:	10001260 	.word	0x10001260

00009348 <siprintf>:
    9348:	b40e      	push	{r1, r2, r3}
    934a:	b500      	push	{lr}
    934c:	f44f 7102 	mov.w	r1, #520	; 0x208
    9350:	b09c      	sub	sp, #112	; 0x70
    9352:	f8ad 1014 	strh.w	r1, [sp, #20]
    9356:	f06f 4100 	mvn.w	r1, #2147483648	; 0x80000000
    935a:	9104      	str	r1, [sp, #16]
    935c:	9107      	str	r1, [sp, #28]
    935e:	f64f 71ff 	movw	r1, #65535	; 0xffff
    9362:	ab1d      	add	r3, sp, #116	; 0x74
    9364:	f8ad 1016 	strh.w	r1, [sp, #22]
    9368:	4908      	ldr	r1, [pc, #32]	; (938c <siprintf+0x44>)
    936a:	f853 2b04 	ldr.w	r2, [r3], #4
    936e:	9002      	str	r0, [sp, #8]
    9370:	9006      	str	r0, [sp, #24]
    9372:	6808      	ldr	r0, [r1, #0]
    9374:	a902      	add	r1, sp, #8
    9376:	9301      	str	r3, [sp, #4]
    9378:	f000 facc 	bl	9914 <_svfiprintf_r>
    937c:	9b02      	ldr	r3, [sp, #8]
    937e:	2200      	movs	r2, #0
    9380:	701a      	strb	r2, [r3, #0]
    9382:	b01c      	add	sp, #112	; 0x70
    9384:	f85d eb04 	ldr.w	lr, [sp], #4
    9388:	b003      	add	sp, #12
    938a:	4770      	bx	lr
    938c:	100001b8 	.word	0x100001b8

00009390 <siscanf>:
    9390:	b40e      	push	{r1, r2, r3}
    9392:	b530      	push	{r4, r5, lr}
    9394:	b09c      	sub	sp, #112	; 0x70
    9396:	ac1f      	add	r4, sp, #124	; 0x7c
    9398:	f44f 7201 	mov.w	r2, #516	; 0x204
    939c:	f854 5b04 	ldr.w	r5, [r4], #4
    93a0:	f8ad 2014 	strh.w	r2, [sp, #20]
    93a4:	9002      	str	r0, [sp, #8]
    93a6:	9006      	str	r0, [sp, #24]
    93a8:	f000 fa3a 	bl	9820 <strlen>
    93ac:	4b0b      	ldr	r3, [pc, #44]	; (93dc <siscanf+0x4c>)
    93ae:	9003      	str	r0, [sp, #12]
    93b0:	930b      	str	r3, [sp, #44]	; 0x2c
    93b2:	2300      	movs	r3, #0
    93b4:	930f      	str	r3, [sp, #60]	; 0x3c
    93b6:	9314      	str	r3, [sp, #80]	; 0x50
    93b8:	f64f 73ff 	movw	r3, #65535	; 0xffff
    93bc:	f8ad 3016 	strh.w	r3, [sp, #22]
    93c0:	4b07      	ldr	r3, [pc, #28]	; (93e0 <siscanf+0x50>)
    93c2:	9007      	str	r0, [sp, #28]
    93c4:	a902      	add	r1, sp, #8
    93c6:	6818      	ldr	r0, [r3, #0]
    93c8:	462a      	mov	r2, r5
    93ca:	4623      	mov	r3, r4
    93cc:	9401      	str	r4, [sp, #4]
    93ce:	f000 fbe7 	bl	9ba0 <__ssvfiscanf_r>
    93d2:	b01c      	add	sp, #112	; 0x70
    93d4:	e8bd 4030 	ldmia.w	sp!, {r4, r5, lr}
    93d8:	b003      	add	sp, #12
    93da:	4770      	bx	lr
    93dc:	00009407 	.word	0x00009407
    93e0:	100001b8 	.word	0x100001b8

000093e4 <__sread>:
    93e4:	b510      	push	{r4, lr}
    93e6:	460c      	mov	r4, r1
    93e8:	f9b1 100e 	ldrsh.w	r1, [r1, #14]
    93ec:	f001 fc56 	bl	ac9c <_read_r>
    93f0:	2800      	cmp	r0, #0
    93f2:	db03      	blt.n	93fc <__sread+0x18>
    93f4:	6d63      	ldr	r3, [r4, #84]	; 0x54
    93f6:	4403      	add	r3, r0
    93f8:	6563      	str	r3, [r4, #84]	; 0x54
    93fa:	bd10      	pop	{r4, pc}
    93fc:	89a3      	ldrh	r3, [r4, #12]
    93fe:	f423 5380 	bic.w	r3, r3, #4096	; 0x1000
    9402:	81a3      	strh	r3, [r4, #12]
    9404:	bd10      	pop	{r4, pc}

00009406 <__seofread>:
    9406:	2000      	movs	r0, #0
    9408:	4770      	bx	lr

0000940a <__swrite>:
    940a:	e92d 41f0 	stmdb	sp!, {r4, r5, r6, r7, r8, lr}
    940e:	461d      	mov	r5, r3
    9410:	898b      	ldrh	r3, [r1, #12]
    9412:	4607      	mov	r7, r0
    9414:	05db      	lsls	r3, r3, #23
    9416:	460c      	mov	r4, r1
    9418:	4616      	mov	r6, r2
    941a:	d505      	bpl.n	9428 <__swrite+0x1e>
    941c:	f9b1 100e 	ldrsh.w	r1, [r1, #14]
    9420:	2200      	movs	r2, #0
    9422:	2302      	movs	r3, #2
    9424:	f001 fb9c 	bl	ab60 <_lseek_r>
    9428:	89a3      	ldrh	r3, [r4, #12]
    942a:	4638      	mov	r0, r7
    942c:	f423 5380 	bic.w	r3, r3, #4096	; 0x1000
    9430:	81a3      	strh	r3, [r4, #12]
    9432:	f9b4 100e 	ldrsh.w	r1, [r4, #14]
    9436:	4632      	mov	r2, r6
    9438:	462b      	mov	r3, r5
    943a:	e8bd 41f0 	ldmia.w	sp!, {r4, r5, r6, r7, r8, lr}
    943e:	f001 b9a5 	b.w	a78c <_write_r>

00009442 <__sseek>:
    9442:	b510      	push	{r4, lr}
    9444:	460c      	mov	r4, r1
    9446:	f9b1 100e 	ldrsh.w	r1, [r1, #14]
    944a:	f001 fb89 	bl	ab60 <_lseek_r>
    944e:	1c43      	adds	r3, r0, #1
    9450:	89a3      	ldrh	r3, [r4, #12]
    9452:	d103      	bne.n	945c <__sseek+0x1a>
    9454:	f423 5380 	bic.w	r3, r3, #4096	; 0x1000
    9458:	81a3      	strh	r3, [r4, #12]
    945a:	bd10      	pop	{r4, pc}
    945c:	f443 5380 	orr.w	r3, r3, #4096	; 0x1000
    9460:	81a3      	strh	r3, [r4, #12]
    9462:	6560      	str	r0, [r4, #84]	; 0x54
    9464:	bd10      	pop	{r4, pc}

00009466 <__sclose>:
    9466:	f9b1 100e 	ldrsh.w	r1, [r1, #14]
    946a:	f001 ba6b 	b.w	a944 <_close_r>

0000946e <strcmp>:
    946e:	f810 2b01 	ldrb.w	r2, [r0], #1
    9472:	f811 3b01 	ldrb.w	r3, [r1], #1
    9476:	2a01      	cmp	r2, #1
    9478:	bf28      	it	cs
    947a:	429a      	cmpcs	r2, r3
    947c:	d0f7      	beq.n	946e <strcmp>
    947e:	1ad0      	subs	r0, r2, r3
    9480:	4770      	bx	lr
	...

00009484 <_strerror_r>:
    9484:	b510      	push	{r4, lr}
    9486:	4604      	mov	r4, r0
    9488:	298e      	cmp	r1, #142	; 0x8e
    948a:	f200 8123 	bhi.w	96d4 <_strerror_r+0x250>
    948e:	e8df f011 	tbh	[pc, r1, lsl #1]
    9492:	008f      	.short	0x008f
    9494:	0091012e 	.word	0x0091012e
    9498:	00950093 	.word	0x00950093
    949c:	00990097 	.word	0x00990097
    94a0:	009d009b 	.word	0x009d009b
    94a4:	00a300a1 	.word	0x00a300a1
    94a8:	00a900a7 	.word	0x00a900a7
    94ac:	00ad00ab 	.word	0x00ad00ab
    94b0:	00af0121 	.word	0x00af0121
    94b4:	00b300b1 	.word	0x00b300b1
    94b8:	00b700b5 	.word	0x00b700b5
    94bc:	00bf00bd 	.word	0x00bf00bd
    94c0:	00c500c3 	.word	0x00c500c3
    94c4:	00c900c7 	.word	0x00c900c7
    94c8:	00cf00cb 	.word	0x00cf00cb
    94cc:	00d500d3 	.word	0x00d500d3
    94d0:	00d900d7 	.word	0x00d900d7
    94d4:	00dd00db 	.word	0x00dd00db
    94d8:	00e100df 	.word	0x00e100df
    94dc:	01210121 	.word	0x01210121
    94e0:	01210121 	.word	0x01210121
    94e4:	01210121 	.word	0x01210121
    94e8:	01210121 	.word	0x01210121
    94ec:	00e700e3 	.word	0x00e700e3
    94f0:	01210121 	.word	0x01210121
    94f4:	01210121 	.word	0x01210121
    94f8:	01210121 	.word	0x01210121
    94fc:	01210121 	.word	0x01210121
    9500:	01210121 	.word	0x01210121
    9504:	01210121 	.word	0x01210121
    9508:	00e90121 	.word	0x00e90121
    950c:	00eb0121 	.word	0x00eb0121
    9510:	012100ed 	.word	0x012100ed
    9514:	01210121 	.word	0x01210121
    9518:	012100ef 	.word	0x012100ef
    951c:	01210121 	.word	0x01210121
    9520:	012100f1 	.word	0x012100f1
    9524:	00f50121 	.word	0x00f50121
    9528:	01210121 	.word	0x01210121
    952c:	012100f7 	.word	0x012100f7
    9530:	01210121 	.word	0x01210121
    9534:	01210121 	.word	0x01210121
    9538:	01210121 	.word	0x01210121
    953c:	01210121 	.word	0x01210121
    9540:	00f90121 	.word	0x00f90121
    9544:	00fb0121 	.word	0x00fb0121
    9548:	00ff00fd 	.word	0x00ff00fd
    954c:	01210121 	.word	0x01210121
    9550:	0121011b 	.word	0x0121011b
    9554:	01210121 	.word	0x01210121
    9558:	01210121 	.word	0x01210121
    955c:	01210121 	.word	0x01210121
    9560:	01210121 	.word	0x01210121
    9564:	01030101 	.word	0x01030101
    9568:	01070105 	.word	0x01070105
    956c:	01210109 	.word	0x01210109
    9570:	010d010b 	.word	0x010d010b
    9574:	00e5010f 	.word	0x00e5010f
    9578:	011f00c1 	.word	0x011f00c1
    957c:	00cd00b9 	.word	0x00cd00b9
    9580:	009f00bb 	.word	0x009f00bb
    9584:	011d00a5 	.word	0x011d00a5
    9588:	012100f3 	.word	0x012100f3
    958c:	01210121 	.word	0x01210121
    9590:	01110113 	.word	0x01110113
    9594:	01210121 	.word	0x01210121
    9598:	01210121 	.word	0x01210121
    959c:	00d10121 	.word	0x00d10121
    95a0:	01210121 	.word	0x01210121
    95a4:	01210121 	.word	0x01210121
    95a8:	01150121 	.word	0x01150121
    95ac:	01190117 	.word	0x01190117
    95b0:	4850      	ldr	r0, [pc, #320]	; (96f4 <_strerror_r+0x270>)
    95b2:	bd10      	pop	{r4, pc}
    95b4:	4850      	ldr	r0, [pc, #320]	; (96f8 <_strerror_r+0x274>)
    95b6:	bd10      	pop	{r4, pc}
    95b8:	4850      	ldr	r0, [pc, #320]	; (96fc <_strerror_r+0x278>)
    95ba:	bd10      	pop	{r4, pc}
    95bc:	4850      	ldr	r0, [pc, #320]	; (9700 <_strerror_r+0x27c>)
    95be:	bd10      	pop	{r4, pc}
    95c0:	4850      	ldr	r0, [pc, #320]	; (9704 <_strerror_r+0x280>)
    95c2:	bd10      	pop	{r4, pc}
    95c4:	4850      	ldr	r0, [pc, #320]	; (9708 <_strerror_r+0x284>)
    95c6:	bd10      	pop	{r4, pc}
    95c8:	4850      	ldr	r0, [pc, #320]	; (970c <_strerror_r+0x288>)
    95ca:	bd10      	pop	{r4, pc}
    95cc:	4850      	ldr	r0, [pc, #320]	; (9710 <_strerror_r+0x28c>)
    95ce:	bd10      	pop	{r4, pc}
    95d0:	4850      	ldr	r0, [pc, #320]	; (9714 <_strerror_r+0x290>)
    95d2:	bd10      	pop	{r4, pc}
    95d4:	4850      	ldr	r0, [pc, #320]	; (9718 <_strerror_r+0x294>)
    95d6:	bd10      	pop	{r4, pc}
    95d8:	4850      	ldr	r0, [pc, #320]	; (971c <_strerror_r+0x298>)
    95da:	bd10      	pop	{r4, pc}
    95dc:	4850      	ldr	r0, [pc, #320]	; (9720 <_strerror_r+0x29c>)
    95de:	bd10      	pop	{r4, pc}
    95e0:	4850      	ldr	r0, [pc, #320]	; (9724 <_strerror_r+0x2a0>)
    95e2:	bd10      	pop	{r4, pc}
    95e4:	4850      	ldr	r0, [pc, #320]	; (9728 <_strerror_r+0x2a4>)
    95e6:	bd10      	pop	{r4, pc}
    95e8:	4850      	ldr	r0, [pc, #320]	; (972c <_strerror_r+0x2a8>)
    95ea:	bd10      	pop	{r4, pc}
    95ec:	4850      	ldr	r0, [pc, #320]	; (9730 <_strerror_r+0x2ac>)
    95ee:	bd10      	pop	{r4, pc}
    95f0:	4850      	ldr	r0, [pc, #320]	; (9734 <_strerror_r+0x2b0>)
    95f2:	bd10      	pop	{r4, pc}
    95f4:	4850      	ldr	r0, [pc, #320]	; (9738 <_strerror_r+0x2b4>)
    95f6:	bd10      	pop	{r4, pc}
    95f8:	4850      	ldr	r0, [pc, #320]	; (973c <_strerror_r+0x2b8>)
    95fa:	bd10      	pop	{r4, pc}
    95fc:	4850      	ldr	r0, [pc, #320]	; (9740 <_strerror_r+0x2bc>)
    95fe:	bd10      	pop	{r4, pc}
    9600:	4850      	ldr	r0, [pc, #320]	; (9744 <_strerror_r+0x2c0>)
    9602:	bd10      	pop	{r4, pc}
    9604:	4850      	ldr	r0, [pc, #320]	; (9748 <_strerror_r+0x2c4>)
    9606:	bd10      	pop	{r4, pc}
    9608:	4850      	ldr	r0, [pc, #320]	; (974c <_strerror_r+0x2c8>)
    960a:	bd10      	pop	{r4, pc}
    960c:	4850      	ldr	r0, [pc, #320]	; (9750 <_strerror_r+0x2cc>)
    960e:	bd10      	pop	{r4, pc}
    9610:	4850      	ldr	r0, [pc, #320]	; (9754 <_strerror_r+0x2d0>)
    9612:	bd10      	pop	{r4, pc}
    9614:	4850      	ldr	r0, [pc, #320]	; (9758 <_strerror_r+0x2d4>)
    9616:	bd10      	pop	{r4, pc}
    9618:	4850      	ldr	r0, [pc, #320]	; (975c <_strerror_r+0x2d8>)
    961a:	bd10      	pop	{r4, pc}
    961c:	4850      	ldr	r0, [pc, #320]	; (9760 <_strerror_r+0x2dc>)
    961e:	bd10      	pop	{r4, pc}
    9620:	4850      	ldr	r0, [pc, #320]	; (9764 <_strerror_r+0x2e0>)
    9622:	bd10      	pop	{r4, pc}
    9624:	4850      	ldr	r0, [pc, #320]	; (9768 <_strerror_r+0x2e4>)
    9626:	bd10      	pop	{r4, pc}
    9628:	4850      	ldr	r0, [pc, #320]	; (976c <_strerror_r+0x2e8>)
    962a:	bd10      	pop	{r4, pc}
    962c:	4850      	ldr	r0, [pc, #320]	; (9770 <_strerror_r+0x2ec>)
    962e:	bd10      	pop	{r4, pc}
    9630:	4850      	ldr	r0, [pc, #320]	; (9774 <_strerror_r+0x2f0>)
    9632:	bd10      	pop	{r4, pc}
    9634:	4850      	ldr	r0, [pc, #320]	; (9778 <_strerror_r+0x2f4>)
    9636:	bd10      	pop	{r4, pc}
    9638:	4850      	ldr	r0, [pc, #320]	; (977c <_strerror_r+0x2f8>)
    963a:	bd10      	pop	{r4, pc}
    963c:	4850      	ldr	r0, [pc, #320]	; (9780 <_strerror_r+0x2fc>)
    963e:	bd10      	pop	{r4, pc}
    9640:	4850      	ldr	r0, [pc, #320]	; (9784 <_strerror_r+0x300>)
    9642:	bd10      	pop	{r4, pc}
    9644:	4850      	ldr	r0, [pc, #320]	; (9788 <_strerror_r+0x304>)
    9646:	bd10      	pop	{r4, pc}
    9648:	4850      	ldr	r0, [pc, #320]	; (978c <_strerror_r+0x308>)
    964a:	bd10      	pop	{r4, pc}
    964c:	4850      	ldr	r0, [pc, #320]	; (9790 <_strerror_r+0x30c>)
    964e:	bd10      	pop	{r4, pc}
    9650:	4850      	ldr	r0, [pc, #320]	; (9794 <_strerror_r+0x310>)
    9652:	bd10      	pop	{r4, pc}
    9654:	4850      	ldr	r0, [pc, #320]	; (9798 <_strerror_r+0x314>)
    9656:	bd10      	pop	{r4, pc}
    9658:	4850      	ldr	r0, [pc, #320]	; (979c <_strerror_r+0x318>)
    965a:	bd10      	pop	{r4, pc}
    965c:	4850      	ldr	r0, [pc, #320]	; (97a0 <_strerror_r+0x31c>)
    965e:	bd10      	pop	{r4, pc}
    9660:	4850      	ldr	r0, [pc, #320]	; (97a4 <_strerror_r+0x320>)
    9662:	bd10      	pop	{r4, pc}
    9664:	4850      	ldr	r0, [pc, #320]	; (97a8 <_strerror_r+0x324>)
    9666:	bd10      	pop	{r4, pc}
    9668:	4850      	ldr	r0, [pc, #320]	; (97ac <_strerror_r+0x328>)
    966a:	bd10      	pop	{r4, pc}
    966c:	4850      	ldr	r0, [pc, #320]	; (97b0 <_strerror_r+0x32c>)
    966e:	bd10      	pop	{r4, pc}
    9670:	4850      	ldr	r0, [pc, #320]	; (97b4 <_strerror_r+0x330>)
    9672:	bd10      	pop	{r4, pc}
    9674:	4850      	ldr	r0, [pc, #320]	; (97b8 <_strerror_r+0x334>)
    9676:	bd10      	pop	{r4, pc}
    9678:	4850      	ldr	r0, [pc, #320]	; (97bc <_strerror_r+0x338>)
    967a:	bd10      	pop	{r4, pc}
    967c:	4850      	ldr	r0, [pc, #320]	; (97c0 <_strerror_r+0x33c>)
    967e:	bd10      	pop	{r4, pc}
    9680:	4850      	ldr	r0, [pc, #320]	; (97c4 <_strerror_r+0x340>)
    9682:	bd10      	pop	{r4, pc}
    9684:	4850      	ldr	r0, [pc, #320]	; (97c8 <_strerror_r+0x344>)
    9686:	bd10      	pop	{r4, pc}
    9688:	4850      	ldr	r0, [pc, #320]	; (97cc <_strerror_r+0x348>)
    968a:	bd10      	pop	{r4, pc}
    968c:	4850      	ldr	r0, [pc, #320]	; (97d0 <_strerror_r+0x34c>)
    968e:	bd10      	pop	{r4, pc}
    9690:	4850      	ldr	r0, [pc, #320]	; (97d4 <_strerror_r+0x350>)
    9692:	bd10      	pop	{r4, pc}
    9694:	4850      	ldr	r0, [pc, #320]	; (97d8 <_strerror_r+0x354>)
    9696:	bd10      	pop	{r4, pc}
    9698:	4850      	ldr	r0, [pc, #320]	; (97dc <_strerror_r+0x358>)
    969a:	bd10      	pop	{r4, pc}
    969c:	4850      	ldr	r0, [pc, #320]	; (97e0 <_strerror_r+0x35c>)
    969e:	bd10      	pop	{r4, pc}
    96a0:	4850      	ldr	r0, [pc, #320]	; (97e4 <_strerror_r+0x360>)
    96a2:	bd10      	pop	{r4, pc}
    96a4:	4850      	ldr	r0, [pc, #320]	; (97e8 <_strerror_r+0x364>)
    96a6:	bd10      	pop	{r4, pc}
    96a8:	4850      	ldr	r0, [pc, #320]	; (97ec <_strerror_r+0x368>)
    96aa:	bd10      	pop	{r4, pc}
    96ac:	4850      	ldr	r0, [pc, #320]	; (97f0 <_strerror_r+0x36c>)
    96ae:	bd10      	pop	{r4, pc}
    96b0:	4850      	ldr	r0, [pc, #320]	; (97f4 <_strerror_r+0x370>)
    96b2:	bd10      	pop	{r4, pc}
    96b4:	4850      	ldr	r0, [pc, #320]	; (97f8 <_strerror_r+0x374>)
    96b6:	bd10      	pop	{r4, pc}
    96b8:	4850      	ldr	r0, [pc, #320]	; (97fc <_strerror_r+0x378>)
    96ba:	bd10      	pop	{r4, pc}
    96bc:	4850      	ldr	r0, [pc, #320]	; (9800 <_strerror_r+0x37c>)
    96be:	bd10      	pop	{r4, pc}
    96c0:	4850      	ldr	r0, [pc, #320]	; (9804 <_strerror_r+0x380>)
    96c2:	bd10      	pop	{r4, pc}
    96c4:	4850      	ldr	r0, [pc, #320]	; (9808 <_strerror_r+0x384>)
    96c6:	bd10      	pop	{r4, pc}
    96c8:	4850      	ldr	r0, [pc, #320]	; (980c <_strerror_r+0x388>)
    96ca:	bd10      	pop	{r4, pc}
    96cc:	4850      	ldr	r0, [pc, #320]	; (9810 <_strerror_r+0x38c>)
    96ce:	bd10      	pop	{r4, pc}
    96d0:	4850      	ldr	r0, [pc, #320]	; (9814 <_strerror_r+0x390>)
    96d2:	bd10      	pop	{r4, pc}
    96d4:	4608      	mov	r0, r1
    96d6:	4611      	mov	r1, r2
    96d8:	2b00      	cmp	r3, #0
    96da:	bf14      	ite	ne
    96dc:	461a      	movne	r2, r3
    96de:	4622      	moveq	r2, r4
    96e0:	f000 fbae 	bl	9e40 <_user_strerror>
    96e4:	4b4c      	ldr	r3, [pc, #304]	; (9818 <_strerror_r+0x394>)
    96e6:	2800      	cmp	r0, #0
    96e8:	bf08      	it	eq
    96ea:	4618      	moveq	r0, r3
    96ec:	bd10      	pop	{r4, pc}
    96ee:	484b      	ldr	r0, [pc, #300]	; (981c <_strerror_r+0x398>)
    96f0:	bd10      	pop	{r4, pc}
    96f2:	bf00      	nop
    96f4:	0000c363 	.word	0x0000c363
    96f8:	0000c375 	.word	0x0000c375
    96fc:	0000c38f 	.word	0x0000c38f
    9700:	0000c39f 	.word	0x0000c39f
    9704:	0000c3b7 	.word	0x0000c3b7
    9708:	0000c3c1 	.word	0x0000c3c1
    970c:	0000c3db 	.word	0x0000c3db
    9710:	0000c3ed 	.word	0x0000c3ed
    9714:	0000c3ff 	.word	0x0000c3ff
    9718:	0000c418 	.word	0x0000c418
    971c:	0000c428 	.word	0x0000c428
    9720:	0000c434 	.word	0x0000c434
    9724:	0000c451 	.word	0x0000c451
    9728:	0000c463 	.word	0x0000c463
    972c:	0000c474 	.word	0x0000c474
    9730:	0000c486 	.word	0x0000c486
    9734:	0000c492 	.word	0x0000c492
    9738:	0000c4aa 	.word	0x0000c4aa
    973c:	0000c4b6 	.word	0x0000c4b6
    9740:	0000c4c8 	.word	0x0000c4c8
    9744:	0000c4d7 	.word	0x0000c4d7
    9748:	0000c4e7 	.word	0x0000c4e7
    974c:	0000c4f4 	.word	0x0000c4f4
    9750:	0000c513 	.word	0x0000c513
    9754:	0000c522 	.word	0x0000c522
    9758:	0000c533 	.word	0x0000c533
    975c:	0000c557 	.word	0x0000c557
    9760:	0000c575 	.word	0x0000c575
    9764:	0000c589 	.word	0x0000c589
    9768:	0000c5a0 	.word	0x0000c5a0
    976c:	0000c5af 	.word	0x0000c5af
    9770:	0000c5be 	.word	0x0000c5be
    9774:	0000c5d2 	.word	0x0000c5d2
    9778:	0000c5ea 	.word	0x0000c5ea
    977c:	0000c5f8 	.word	0x0000c5f8
    9780:	0000c605 	.word	0x0000c605
    9784:	0000c61b 	.word	0x0000c61b
    9788:	0000c62a 	.word	0x0000c62a
    978c:	0000c636 	.word	0x0000c636
    9790:	0000c644 	.word	0x0000c644
    9794:	0000c655 	.word	0x0000c655
    9798:	0000c670 	.word	0x0000c670
    979c:	0000c683 	.word	0x0000c683
    97a0:	0000c68c 	.word	0x0000c68c
    97a4:	0000c6a3 	.word	0x0000c6a3
    97a8:	0000c6ab 	.word	0x0000c6ab
    97ac:	0000c6b8 	.word	0x0000c6b8
    97b0:	0000c6cd 	.word	0x0000c6cd
    97b4:	0000c6e1 	.word	0x0000c6e1
    97b8:	0000c6f9 	.word	0x0000c6f9
    97bc:	0000c708 	.word	0x0000c708
    97c0:	0000c719 	.word	0x0000c719
    97c4:	0000c72c 	.word	0x0000c72c
    97c8:	0000c738 	.word	0x0000c738
    97cc:	0000c751 	.word	0x0000c751
    97d0:	0000c765 	.word	0x0000c765
    97d4:	0000c780 	.word	0x0000c780
    97d8:	0000c798 	.word	0x0000c798
    97dc:	0000c7b2 	.word	0x0000c7b2
    97e0:	0000c7e2 	.word	0x0000c7e2
    97e4:	0000c801 	.word	0x0000c801
    97e8:	0000c820 	.word	0x0000c820
    97ec:	0000c837 	.word	0x0000c837
    97f0:	0000c84a 	.word	0x0000c84a
    97f4:	0000c861 	.word	0x0000c861
    97f8:	0000c882 	.word	0x0000c882
    97fc:	0000c89a 	.word	0x0000c89a
    9800:	0000c8b6 	.word	0x0000c8b6
    9804:	0000c8c9 	.word	0x0000c8c9
    9808:	0000c8df 	.word	0x0000c8df
    980c:	0000c8f3 	.word	0x0000c8f3
    9810:	0000c915 	.word	0x0000c915
    9814:	0000c926 	.word	0x0000c926
    9818:	0000c940 	.word	0x0000c940
    981c:	0000c36b 	.word	0x0000c36b

00009820 <strlen>:
    9820:	4603      	mov	r3, r0
    9822:	f813 2b01 	ldrb.w	r2, [r3], #1
    9826:	2a00      	cmp	r2, #0
    9828:	d1fb      	bne.n	9822 <strlen+0x2>
    982a:	1a18      	subs	r0, r3, r0
    982c:	3801      	subs	r0, #1
    982e:	4770      	bx	lr

00009830 <strncmp>:
    9830:	b570      	push	{r4, r5, r6, lr}
    9832:	b18a      	cbz	r2, 9858 <strncmp+0x28>
    9834:	460b      	mov	r3, r1
    9836:	4605      	mov	r5, r0
    9838:	781c      	ldrb	r4, [r3, #0]
    983a:	f810 6b01 	ldrb.w	r6, [r0], #1
    983e:	3101      	adds	r1, #1
    9840:	42b4      	cmp	r4, r6
    9842:	d101      	bne.n	9848 <strncmp+0x18>
    9844:	2a01      	cmp	r2, #1
    9846:	d103      	bne.n	9850 <strncmp+0x20>
    9848:	7828      	ldrb	r0, [r5, #0]
    984a:	781b      	ldrb	r3, [r3, #0]
    984c:	1ac0      	subs	r0, r0, r3
    984e:	bd70      	pop	{r4, r5, r6, pc}
    9850:	3a01      	subs	r2, #1
    9852:	2c00      	cmp	r4, #0
    9854:	d1ee      	bne.n	9834 <strncmp+0x4>
    9856:	e7f7      	b.n	9848 <strncmp+0x18>
    9858:	4610      	mov	r0, r2
    985a:	bd70      	pop	{r4, r5, r6, pc}

0000985c <__ssputs_r>:
    985c:	e92d 47f0 	stmdb	sp!, {r4, r5, r6, r7, r8, r9, r10, lr}
    9860:	688d      	ldr	r5, [r1, #8]
    9862:	4681      	mov	r9, r0
    9864:	42ab      	cmp	r3, r5
    9866:	460c      	mov	r4, r1
    9868:	4692      	mov	r10, r2
    986a:	461f      	mov	r7, r3
    986c:	d343      	bcc.n	98f6 <__ssputs_r+0x9a>
    986e:	898b      	ldrh	r3, [r1, #12]
    9870:	f413 6f90 	tst.w	r3, #1152	; 0x480
    9874:	d03d      	beq.n	98f2 <__ssputs_r+0x96>
    9876:	6826      	ldr	r6, [r4, #0]
    9878:	6909      	ldr	r1, [r1, #16]
    987a:	2202      	movs	r2, #2
    987c:	ebc1 0806 	rsb	r8, r1, r6
    9880:	6966      	ldr	r6, [r4, #20]
    9882:	eb06 0646 	add.w	r6, r6, r6, lsl #1
    9886:	fb96 f6f2 	sdiv	r6, r6, r2
    988a:	f108 0201 	add.w	r2, r8, #1
    988e:	443a      	add	r2, r7
    9890:	4296      	cmp	r6, r2
    9892:	bf38      	it	cc
    9894:	4616      	movcc	r6, r2
    9896:	055b      	lsls	r3, r3, #21
    9898:	d50f      	bpl.n	98ba <__ssputs_r+0x5e>
    989a:	4631      	mov	r1, r6
    989c:	f7ff fc30 	bl	9100 <_malloc_r>
    98a0:	4605      	mov	r5, r0
    98a2:	b198      	cbz	r0, 98cc <__ssputs_r+0x70>
    98a4:	6921      	ldr	r1, [r4, #16]
    98a6:	4642      	mov	r2, r8
    98a8:	f7fe ffa6 	bl	87f8 <memcpy>
    98ac:	89a3      	ldrh	r3, [r4, #12]
    98ae:	f423 6390 	bic.w	r3, r3, #1152	; 0x480
    98b2:	f043 0380 	orr.w	r3, r3, #128	; 0x80
    98b6:	81a3      	strh	r3, [r4, #12]
    98b8:	e013      	b.n	98e2 <__ssputs_r+0x86>
    98ba:	4632      	mov	r2, r6
    98bc:	f001 f98b 	bl	abd6 <_realloc_r>
    98c0:	4605      	mov	r5, r0
    98c2:	b970      	cbnz	r0, 98e2 <__ssputs_r+0x86>
    98c4:	4648      	mov	r0, r9
    98c6:	6921      	ldr	r1, [r4, #16]
    98c8:	f7ff fbd6 	bl	9078 <_free_r>
    98cc:	230c      	movs	r3, #12
    98ce:	f8c9 3000 	str.w	r3, [r9]
    98d2:	89a3      	ldrh	r3, [r4, #12]
    98d4:	f04f 30ff 	mov.w	r0, #4294967295	; 0xffffffff
    98d8:	f043 0340 	orr.w	r3, r3, #64	; 0x40
    98dc:	81a3      	strh	r3, [r4, #12]
    98de:	e8bd 87f0 	ldmia.w	sp!, {r4, r5, r6, r7, r8, r9, r10, pc}
    98e2:	6125      	str	r5, [r4, #16]
    98e4:	6166      	str	r6, [r4, #20]
    98e6:	4445      	add	r5, r8
    98e8:	ebc8 0606 	rsb	r6, r8, r6
    98ec:	6025      	str	r5, [r4, #0]
    98ee:	60a6      	str	r6, [r4, #8]
    98f0:	463d      	mov	r5, r7
    98f2:	42af      	cmp	r7, r5
    98f4:	d200      	bcs.n	98f8 <__ssputs_r+0x9c>
    98f6:	463d      	mov	r5, r7
    98f8:	462a      	mov	r2, r5
    98fa:	6820      	ldr	r0, [r4, #0]
    98fc:	4651      	mov	r1, r10
    98fe:	f001 f94f 	bl	aba0 <memmove>
    9902:	68a3      	ldr	r3, [r4, #8]
    9904:	2000      	movs	r0, #0
    9906:	1b5b      	subs	r3, r3, r5
    9908:	60a3      	str	r3, [r4, #8]
    990a:	6823      	ldr	r3, [r4, #0]
    990c:	441d      	add	r5, r3
    990e:	6025      	str	r5, [r4, #0]
    9910:	e8bd 87f0 	ldmia.w	sp!, {r4, r5, r6, r7, r8, r9, r10, pc}

00009914 <_svfiprintf_r>:
    9914:	e92d 43f0 	stmdb	sp!, {r4, r5, r6, r7, r8, r9, lr}
    9918:	b09d      	sub	sp, #116	; 0x74
    991a:	9303      	str	r3, [sp, #12]
    991c:	898b      	ldrh	r3, [r1, #12]
    991e:	4607      	mov	r7, r0
    9920:	061c      	lsls	r4, r3, #24
    9922:	460d      	mov	r5, r1
    9924:	4616      	mov	r6, r2
    9926:	d50c      	bpl.n	9942 <_svfiprintf_r+0x2e>
    9928:	690b      	ldr	r3, [r1, #16]
    992a:	b953      	cbnz	r3, 9942 <_svfiprintf_r+0x2e>
    992c:	2140      	movs	r1, #64	; 0x40
    992e:	f7ff fbe7 	bl	9100 <_malloc_r>
    9932:	6028      	str	r0, [r5, #0]
    9934:	6128      	str	r0, [r5, #16]
    9936:	b910      	cbnz	r0, 993e <_svfiprintf_r+0x2a>
    9938:	230c      	movs	r3, #12
    993a:	603b      	str	r3, [r7, #0]
    993c:	e0c7      	b.n	9ace <_svfiprintf_r+0x1ba>
    993e:	2340      	movs	r3, #64	; 0x40
    9940:	616b      	str	r3, [r5, #20]
    9942:	2300      	movs	r3, #0
    9944:	9309      	str	r3, [sp, #36]	; 0x24
    9946:	2320      	movs	r3, #32
    9948:	f88d 3029 	strb.w	r3, [sp, #41]	; 0x29
    994c:	2330      	movs	r3, #48	; 0x30
    994e:	f88d 302a 	strb.w	r3, [sp, #42]	; 0x2a
    9952:	4633      	mov	r3, r6
    9954:	461c      	mov	r4, r3
    9956:	f813 2b01 	ldrb.w	r2, [r3], #1
    995a:	b91a      	cbnz	r2, 9964 <_svfiprintf_r+0x50>
    995c:	ebb4 0906 	subs.w	r9, r4, r6
    9960:	d00f      	beq.n	9982 <_svfiprintf_r+0x6e>
    9962:	e002      	b.n	996a <_svfiprintf_r+0x56>
    9964:	2a25      	cmp	r2, #37	; 0x25
    9966:	d1f5      	bne.n	9954 <_svfiprintf_r+0x40>
    9968:	e7f8      	b.n	995c <_svfiprintf_r+0x48>
    996a:	4638      	mov	r0, r7
    996c:	4629      	mov	r1, r5
    996e:	4632      	mov	r2, r6
    9970:	464b      	mov	r3, r9
    9972:	f7ff ff73 	bl	985c <__ssputs_r>
    9976:	3001      	adds	r0, #1
    9978:	f000 80a4 	beq.w	9ac4 <_svfiprintf_r+0x1b0>
    997c:	9b09      	ldr	r3, [sp, #36]	; 0x24
    997e:	444b      	add	r3, r9
    9980:	9309      	str	r3, [sp, #36]	; 0x24
    9982:	7823      	ldrb	r3, [r4, #0]
    9984:	2b00      	cmp	r3, #0
    9986:	f000 809d 	beq.w	9ac4 <_svfiprintf_r+0x1b0>
    998a:	2300      	movs	r3, #0
    998c:	f04f 32ff 	mov.w	r2, #4294967295	; 0xffffffff
    9990:	9304      	str	r3, [sp, #16]
    9992:	9307      	str	r3, [sp, #28]
    9994:	9205      	str	r2, [sp, #20]
    9996:	9306      	str	r3, [sp, #24]
    9998:	f88d 3053 	strb.w	r3, [sp, #83]	; 0x53
    999c:	931a      	str	r3, [sp, #104]	; 0x68
    999e:	f104 0901 	add.w	r9, r4, #1
    99a2:	4e4d      	ldr	r6, [pc, #308]	; (9ad8 <_svfiprintf_r+0x1c4>)
    99a4:	464c      	mov	r4, r9
    99a6:	4630      	mov	r0, r6
    99a8:	7821      	ldrb	r1, [r4, #0]
    99aa:	2205      	movs	r2, #5
    99ac:	f001 f8ea 	bl	ab84 <memchr>
    99b0:	f109 0901 	add.w	r9, r9, #1
    99b4:	9b04      	ldr	r3, [sp, #16]
    99b6:	b128      	cbz	r0, 99c4 <_svfiprintf_r+0xb0>
    99b8:	1b86      	subs	r6, r0, r6
    99ba:	2001      	movs	r0, #1
    99bc:	40b0      	lsls	r0, r6
    99be:	4303      	orrs	r3, r0
    99c0:	9304      	str	r3, [sp, #16]
    99c2:	e7ee      	b.n	99a2 <_svfiprintf_r+0x8e>
    99c4:	06d9      	lsls	r1, r3, #27
    99c6:	bf44      	itt	mi
    99c8:	2220      	movmi	r2, #32
    99ca:	f88d 2053 	strbmi.w	r2, [sp, #83]	; 0x53
    99ce:	071a      	lsls	r2, r3, #28
    99d0:	bf44      	itt	mi
    99d2:	222b      	movmi	r2, #43	; 0x2b
    99d4:	f88d 2053 	strbmi.w	r2, [sp, #83]	; 0x53
    99d8:	7822      	ldrb	r2, [r4, #0]
    99da:	2a2a      	cmp	r2, #42	; 0x2a
    99dc:	d002      	beq.n	99e4 <_svfiprintf_r+0xd0>
    99de:	9b07      	ldr	r3, [sp, #28]
    99e0:	4621      	mov	r1, r4
    99e2:	e00e      	b.n	9a02 <_svfiprintf_r+0xee>
    99e4:	9a03      	ldr	r2, [sp, #12]
    99e6:	1d11      	adds	r1, r2, #4
    99e8:	6812      	ldr	r2, [r2, #0]
    99ea:	9103      	str	r1, [sp, #12]
    99ec:	2a00      	cmp	r2, #0
    99ee:	db01      	blt.n	99f4 <_svfiprintf_r+0xe0>
    99f0:	9207      	str	r2, [sp, #28]
    99f2:	e004      	b.n	99fe <_svfiprintf_r+0xea>
    99f4:	4252      	negs	r2, r2
    99f6:	f043 0302 	orr.w	r3, r3, #2
    99fa:	9207      	str	r2, [sp, #28]
    99fc:	9304      	str	r3, [sp, #16]
    99fe:	3401      	adds	r4, #1
    9a00:	e00a      	b.n	9a18 <_svfiprintf_r+0x104>
    9a02:	460c      	mov	r4, r1
    9a04:	7822      	ldrb	r2, [r4, #0]
    9a06:	3101      	adds	r1, #1
    9a08:	3a30      	subs	r2, #48	; 0x30
    9a0a:	2a09      	cmp	r2, #9
    9a0c:	d803      	bhi.n	9a16 <_svfiprintf_r+0x102>
    9a0e:	200a      	movs	r0, #10
    9a10:	fb00 2303 	mla	r3, r0, r3, r2
    9a14:	e7f5      	b.n	9a02 <_svfiprintf_r+0xee>
    9a16:	9307      	str	r3, [sp, #28]
    9a18:	7823      	ldrb	r3, [r4, #0]
    9a1a:	2b2e      	cmp	r3, #46	; 0x2e
    9a1c:	d119      	bne.n	9a52 <_svfiprintf_r+0x13e>
    9a1e:	7863      	ldrb	r3, [r4, #1]
    9a20:	2b2a      	cmp	r3, #42	; 0x2a
    9a22:	d109      	bne.n	9a38 <_svfiprintf_r+0x124>
    9a24:	9b03      	ldr	r3, [sp, #12]
    9a26:	3402      	adds	r4, #2
    9a28:	1d1a      	adds	r2, r3, #4
    9a2a:	681b      	ldr	r3, [r3, #0]
    9a2c:	9203      	str	r2, [sp, #12]
    9a2e:	2b00      	cmp	r3, #0
    9a30:	bfb8      	it	lt
    9a32:	f04f 33ff 	movlt.w	r3, #4294967295	; 0xffffffff
    9a36:	e00b      	b.n	9a50 <_svfiprintf_r+0x13c>
    9a38:	1c61      	adds	r1, r4, #1
    9a3a:	2300      	movs	r3, #0
    9a3c:	460c      	mov	r4, r1
    9a3e:	7822      	ldrb	r2, [r4, #0]
    9a40:	3101      	adds	r1, #1
    9a42:	3a30      	subs	r2, #48	; 0x30
    9a44:	2a09      	cmp	r2, #9
    9a46:	d803      	bhi.n	9a50 <_svfiprintf_r+0x13c>
    9a48:	200a      	movs	r0, #10
    9a4a:	fb00 2303 	mla	r3, r0, r3, r2
    9a4e:	e7f5      	b.n	9a3c <_svfiprintf_r+0x128>
    9a50:	9305      	str	r3, [sp, #20]
    9a52:	4e22      	ldr	r6, [pc, #136]	; (9adc <_svfiprintf_r+0x1c8>)
    9a54:	7821      	ldrb	r1, [r4, #0]
    9a56:	4630      	mov	r0, r6
    9a58:	2203      	movs	r2, #3
    9a5a:	f001 f893 	bl	ab84 <memchr>
    9a5e:	b130      	cbz	r0, 9a6e <_svfiprintf_r+0x15a>
    9a60:	1b86      	subs	r6, r0, r6
    9a62:	2040      	movs	r0, #64	; 0x40
    9a64:	40b0      	lsls	r0, r6
    9a66:	9b04      	ldr	r3, [sp, #16]
    9a68:	3401      	adds	r4, #1
    9a6a:	4303      	orrs	r3, r0
    9a6c:	9304      	str	r3, [sp, #16]
    9a6e:	7821      	ldrb	r1, [r4, #0]
    9a70:	481b      	ldr	r0, [pc, #108]	; (9ae0 <_svfiprintf_r+0x1cc>)
    9a72:	2206      	movs	r2, #6
    9a74:	1c66      	adds	r6, r4, #1
    9a76:	f88d 1028 	strb.w	r1, [sp, #40]	; 0x28
    9a7a:	f001 f883 	bl	ab84 <memchr>
    9a7e:	b188      	cbz	r0, 9aa4 <_svfiprintf_r+0x190>
    9a80:	4b18      	ldr	r3, [pc, #96]	; (9ae4 <_svfiprintf_r+0x1d0>)
    9a82:	b933      	cbnz	r3, 9a92 <_svfiprintf_r+0x17e>
    9a84:	9b03      	ldr	r3, [sp, #12]
    9a86:	3307      	adds	r3, #7
    9a88:	f023 0307 	bic.w	r3, r3, #7
    9a8c:	3308      	adds	r3, #8
    9a8e:	9303      	str	r3, [sp, #12]
    9a90:	e014      	b.n	9abc <_svfiprintf_r+0x1a8>
    9a92:	ab03      	add	r3, sp, #12
    9a94:	9300      	str	r3, [sp, #0]
    9a96:	4638      	mov	r0, r7
    9a98:	a904      	add	r1, sp, #16
    9a9a:	462a      	mov	r2, r5
    9a9c:	4b12      	ldr	r3, [pc, #72]	; (9ae8 <_svfiprintf_r+0x1d4>)
    9a9e:	f3af 8000 	nop.w
    9aa2:	e007      	b.n	9ab4 <_svfiprintf_r+0x1a0>
    9aa4:	ab03      	add	r3, sp, #12
    9aa6:	9300      	str	r3, [sp, #0]
    9aa8:	4638      	mov	r0, r7
    9aaa:	a904      	add	r1, sp, #16
    9aac:	462a      	mov	r2, r5
    9aae:	4b0e      	ldr	r3, [pc, #56]	; (9ae8 <_svfiprintf_r+0x1d4>)
    9ab0:	f000 fbae 	bl	a210 <_printf_i>
    9ab4:	f1b0 3fff 	cmp.w	r0, #4294967295	; 0xffffffff
    9ab8:	4680      	mov	r8, r0
    9aba:	d003      	beq.n	9ac4 <_svfiprintf_r+0x1b0>
    9abc:	9b09      	ldr	r3, [sp, #36]	; 0x24
    9abe:	4443      	add	r3, r8
    9ac0:	9309      	str	r3, [sp, #36]	; 0x24
    9ac2:	e746      	b.n	9952 <_svfiprintf_r+0x3e>
    9ac4:	89ab      	ldrh	r3, [r5, #12]
    9ac6:	065b      	lsls	r3, r3, #25
    9ac8:	d401      	bmi.n	9ace <_svfiprintf_r+0x1ba>
    9aca:	9809      	ldr	r0, [sp, #36]	; 0x24
    9acc:	e001      	b.n	9ad2 <_svfiprintf_r+0x1be>
    9ace:	f04f 30ff 	mov.w	r0, #4294967295	; 0xffffffff
    9ad2:	b01d      	add	sp, #116	; 0x74
    9ad4:	e8bd 83f0 	ldmia.w	sp!, {r4, r5, r6, r7, r8, r9, pc}
    9ad8:	0000c93b 	.word	0x0000c93b
    9adc:	0000c941 	.word	0x0000c941
    9ae0:	0000c945 	.word	0x0000c945
    9ae4:	00000000 	.word	0x00000000
    9ae8:	0000985d 	.word	0x0000985d

00009aec <_sungetc_r>:
    9aec:	b538      	push	{r3, r4, r5, lr}
    9aee:	1c4b      	adds	r3, r1, #1
    9af0:	4614      	mov	r4, r2
    9af2:	d102      	bne.n	9afa <_sungetc_r+0xe>
    9af4:	f04f 30ff 	mov.w	r0, #4294967295	; 0xffffffff
    9af8:	bd38      	pop	{r3, r4, r5, pc}
    9afa:	8993      	ldrh	r3, [r2, #12]
    9afc:	b2cd      	uxtb	r5, r1
    9afe:	f023 0320 	bic.w	r3, r3, #32
    9b02:	8193      	strh	r3, [r2, #12]
    9b04:	6b53      	ldr	r3, [r2, #52]	; 0x34
    9b06:	6852      	ldr	r2, [r2, #4]
    9b08:	b183      	cbz	r3, 9b2c <_sungetc_r+0x40>
    9b0a:	6ba3      	ldr	r3, [r4, #56]	; 0x38
    9b0c:	429a      	cmp	r2, r3
    9b0e:	da07      	bge.n	9b20 <_sungetc_r+0x34>
    9b10:	6823      	ldr	r3, [r4, #0]
    9b12:	1e5a      	subs	r2, r3, #1
    9b14:	6022      	str	r2, [r4, #0]
    9b16:	f803 5c01 	strb.w	r5, [r3, #-1]
    9b1a:	6863      	ldr	r3, [r4, #4]
    9b1c:	3301      	adds	r3, #1
    9b1e:	e01f      	b.n	9b60 <_sungetc_r+0x74>
    9b20:	4621      	mov	r1, r4
    9b22:	f000 f98f 	bl	9e44 <__submore>
    9b26:	2800      	cmp	r0, #0
    9b28:	d0f2      	beq.n	9b10 <_sungetc_r+0x24>
    9b2a:	e7e3      	b.n	9af4 <_sungetc_r+0x8>
    9b2c:	6921      	ldr	r1, [r4, #16]
    9b2e:	6823      	ldr	r3, [r4, #0]
    9b30:	b151      	cbz	r1, 9b48 <_sungetc_r+0x5c>
    9b32:	428b      	cmp	r3, r1
    9b34:	d908      	bls.n	9b48 <_sungetc_r+0x5c>
    9b36:	f813 0c01 	ldrb.w	r0, [r3, #-1]
    9b3a:	42a8      	cmp	r0, r5
    9b3c:	d104      	bne.n	9b48 <_sungetc_r+0x5c>
    9b3e:	3b01      	subs	r3, #1
    9b40:	3201      	adds	r2, #1
    9b42:	6023      	str	r3, [r4, #0]
    9b44:	6062      	str	r2, [r4, #4]
    9b46:	bd38      	pop	{r3, r4, r5, pc}
    9b48:	63e3      	str	r3, [r4, #60]	; 0x3c
    9b4a:	f104 0344 	add.w	r3, r4, #68	; 0x44
    9b4e:	6363      	str	r3, [r4, #52]	; 0x34
    9b50:	2303      	movs	r3, #3
    9b52:	63a3      	str	r3, [r4, #56]	; 0x38
    9b54:	4623      	mov	r3, r4
    9b56:	6422      	str	r2, [r4, #64]	; 0x40
    9b58:	f803 5f46 	strb.w	r5, [r3, #70]!
    9b5c:	6023      	str	r3, [r4, #0]
    9b5e:	2301      	movs	r3, #1
    9b60:	6063      	str	r3, [r4, #4]
    9b62:	4628      	mov	r0, r5
    9b64:	bd38      	pop	{r3, r4, r5, pc}

00009b66 <__ssrefill_r>:
    9b66:	b510      	push	{r4, lr}
    9b68:	460c      	mov	r4, r1
    9b6a:	6b49      	ldr	r1, [r1, #52]	; 0x34
    9b6c:	b169      	cbz	r1, 9b8a <__ssrefill_r+0x24>
    9b6e:	f104 0344 	add.w	r3, r4, #68	; 0x44
    9b72:	4299      	cmp	r1, r3
    9b74:	d001      	beq.n	9b7a <__ssrefill_r+0x14>
    9b76:	f7ff fa7f 	bl	9078 <_free_r>
    9b7a:	6c23      	ldr	r3, [r4, #64]	; 0x40
    9b7c:	2000      	movs	r0, #0
    9b7e:	6360      	str	r0, [r4, #52]	; 0x34
    9b80:	6063      	str	r3, [r4, #4]
    9b82:	b113      	cbz	r3, 9b8a <__ssrefill_r+0x24>
    9b84:	6be3      	ldr	r3, [r4, #60]	; 0x3c
    9b86:	6023      	str	r3, [r4, #0]
    9b88:	bd10      	pop	{r4, pc}
    9b8a:	6923      	ldr	r3, [r4, #16]
    9b8c:	f04f 30ff 	mov.w	r0, #4294967295	; 0xffffffff
    9b90:	6023      	str	r3, [r4, #0]
    9b92:	2300      	movs	r3, #0
    9b94:	6063      	str	r3, [r4, #4]
    9b96:	89a3      	ldrh	r3, [r4, #12]
    9b98:	f043 0320 	orr.w	r3, r3, #32
    9b9c:	81a3      	strh	r3, [r4, #12]
    9b9e:	bd10      	pop	{r4, pc}

00009ba0 <__ssvfiscanf_r>:
    9ba0:	e92d 47f0 	stmdb	sp!, {r4, r5, r6, r7, r8, r9, r10, lr}
    9ba4:	f5ad 7d24 	sub.w	sp, sp, #656	; 0x290
    9ba8:	9301      	str	r3, [sp, #4]
    9baa:	2300      	movs	r3, #0
    9bac:	9346      	str	r3, [sp, #280]	; 0x118
    9bae:	9347      	str	r3, [sp, #284]	; 0x11c
    9bb0:	4b9d      	ldr	r3, [pc, #628]	; (9e28 <__ssvfiscanf_r+0x288>)
    9bb2:	f10d 090c 	add.w	r9, sp, #12
    9bb6:	93a2      	str	r3, [sp, #648]	; 0x288
    9bb8:	4b9c      	ldr	r3, [pc, #624]	; (9e2c <__ssvfiscanf_r+0x28c>)
    9bba:	4607      	mov	r7, r0
    9bbc:	460c      	mov	r4, r1
    9bbe:	4690      	mov	r8, r2
    9bc0:	f8cd 9120 	str.w	r9, [sp, #288]	; 0x120
    9bc4:	93a3      	str	r3, [sp, #652]	; 0x28c
    9bc6:	f898 5000 	ldrb.w	r5, [r8]
    9bca:	2d00      	cmp	r5, #0
    9bcc:	f000 8124 	beq.w	9e18 <__ssvfiscanf_r+0x278>
    9bd0:	4997      	ldr	r1, [pc, #604]	; (9e30 <__ssvfiscanf_r+0x290>)
    9bd2:	680b      	ldr	r3, [r1, #0]
    9bd4:	468a      	mov	r10, r1
    9bd6:	442b      	add	r3, r5
    9bd8:	785a      	ldrb	r2, [r3, #1]
    9bda:	f002 0208 	and.w	r2, r2, #8
    9bde:	f002 03ff 	and.w	r3, r2, #255	; 0xff
    9be2:	b1ea      	cbz	r2, 9c20 <__ssvfiscanf_r+0x80>
    9be4:	6863      	ldr	r3, [r4, #4]
    9be6:	2b00      	cmp	r3, #0
    9be8:	dd10      	ble.n	9c0c <__ssvfiscanf_r+0x6c>
    9bea:	6823      	ldr	r3, [r4, #0]
    9bec:	f8da 2000 	ldr.w	r2, [r10]
    9bf0:	7819      	ldrb	r1, [r3, #0]
    9bf2:	440a      	add	r2, r1
    9bf4:	7852      	ldrb	r2, [r2, #1]
    9bf6:	0715      	lsls	r5, r2, #28
    9bf8:	d50e      	bpl.n	9c18 <__ssvfiscanf_r+0x78>
    9bfa:	9a47      	ldr	r2, [sp, #284]	; 0x11c
    9bfc:	3301      	adds	r3, #1
    9bfe:	3201      	adds	r2, #1
    9c00:	9247      	str	r2, [sp, #284]	; 0x11c
    9c02:	6862      	ldr	r2, [r4, #4]
    9c04:	6023      	str	r3, [r4, #0]
    9c06:	3a01      	subs	r2, #1
    9c08:	6062      	str	r2, [r4, #4]
    9c0a:	e7eb      	b.n	9be4 <__ssvfiscanf_r+0x44>
    9c0c:	9ba3      	ldr	r3, [sp, #652]	; 0x28c
    9c0e:	4638      	mov	r0, r7
    9c10:	4621      	mov	r1, r4
    9c12:	4798      	blx	r3
    9c14:	2800      	cmp	r0, #0
    9c16:	d0e8      	beq.n	9bea <__ssvfiscanf_r+0x4a>
    9c18:	f108 0601 	add.w	r6, r8, #1
    9c1c:	46b0      	mov	r8, r6
    9c1e:	e7d2      	b.n	9bc6 <__ssvfiscanf_r+0x26>
    9c20:	2d25      	cmp	r5, #37	; 0x25
    9c22:	f108 0601 	add.w	r6, r8, #1
    9c26:	d14f      	bne.n	9cc8 <__ssvfiscanf_r+0x128>
    9c28:	9345      	str	r3, [sp, #276]	; 0x114
    9c2a:	9343      	str	r3, [sp, #268]	; 0x10c
    9c2c:	f898 3001 	ldrb.w	r3, [r8, #1]
    9c30:	2b2a      	cmp	r3, #42	; 0x2a
    9c32:	d103      	bne.n	9c3c <__ssvfiscanf_r+0x9c>
    9c34:	2310      	movs	r3, #16
    9c36:	9343      	str	r3, [sp, #268]	; 0x10c
    9c38:	f108 0602 	add.w	r6, r8, #2
    9c3c:	7831      	ldrb	r1, [r6, #0]
    9c3e:	4635      	mov	r5, r6
    9c40:	f1a1 0330 	sub.w	r3, r1, #48	; 0x30
    9c44:	2b09      	cmp	r3, #9
    9c46:	f106 0601 	add.w	r6, r6, #1
    9c4a:	d806      	bhi.n	9c5a <__ssvfiscanf_r+0xba>
    9c4c:	9b45      	ldr	r3, [sp, #276]	; 0x114
    9c4e:	220a      	movs	r2, #10
    9c50:	fb02 1303 	mla	r3, r2, r3, r1
    9c54:	3b30      	subs	r3, #48	; 0x30
    9c56:	9345      	str	r3, [sp, #276]	; 0x114
    9c58:	e7f0      	b.n	9c3c <__ssvfiscanf_r+0x9c>
    9c5a:	f8df 81dc 	ldr.w	r8, [pc, #476]	; 9e38 <__ssvfiscanf_r+0x298>
    9c5e:	2203      	movs	r2, #3
    9c60:	4640      	mov	r0, r8
    9c62:	f000 ff8f 	bl	ab84 <memchr>
    9c66:	b140      	cbz	r0, 9c7a <__ssvfiscanf_r+0xda>
    9c68:	ebc8 0800 	rsb	r8, r8, r0
    9c6c:	2001      	movs	r0, #1
    9c6e:	fa00 f008 	lsl.w	r0, r0, r8
    9c72:	9b43      	ldr	r3, [sp, #268]	; 0x10c
    9c74:	4635      	mov	r5, r6
    9c76:	4303      	orrs	r3, r0
    9c78:	9343      	str	r3, [sp, #268]	; 0x10c
    9c7a:	1c6e      	adds	r6, r5, #1
    9c7c:	782d      	ldrb	r5, [r5, #0]
    9c7e:	2d67      	cmp	r5, #103	; 0x67
    9c80:	d80f      	bhi.n	9ca2 <__ssvfiscanf_r+0x102>
    9c82:	2d65      	cmp	r5, #101	; 0x65
    9c84:	d278      	bcs.n	9d78 <__ssvfiscanf_r+0x1d8>
    9c86:	2d5b      	cmp	r5, #91	; 0x5b
    9c88:	d054      	beq.n	9d34 <__ssvfiscanf_r+0x194>
    9c8a:	d805      	bhi.n	9c98 <__ssvfiscanf_r+0xf8>
    9c8c:	2d00      	cmp	r5, #0
    9c8e:	f000 80c5 	beq.w	9e1c <__ssvfiscanf_r+0x27c>
    9c92:	2d25      	cmp	r5, #37	; 0x25
    9c94:	d018      	beq.n	9cc8 <__ssvfiscanf_r+0x128>
    9c96:	e071      	b.n	9d7c <__ssvfiscanf_r+0x1dc>
    9c98:	2d63      	cmp	r5, #99	; 0x63
    9c9a:	d057      	beq.n	9d4c <__ssvfiscanf_r+0x1ac>
    9c9c:	2d64      	cmp	r5, #100	; 0x64
    9c9e:	d03f      	beq.n	9d20 <__ssvfiscanf_r+0x180>
    9ca0:	e06c      	b.n	9d7c <__ssvfiscanf_r+0x1dc>
    9ca2:	2d70      	cmp	r5, #112	; 0x70
    9ca4:	d032      	beq.n	9d0c <__ssvfiscanf_r+0x16c>
    9ca6:	d807      	bhi.n	9cb8 <__ssvfiscanf_r+0x118>
    9ca8:	2d6e      	cmp	r5, #110	; 0x6e
    9caa:	d055      	beq.n	9d58 <__ssvfiscanf_r+0x1b8>
    9cac:	d83a      	bhi.n	9d24 <__ssvfiscanf_r+0x184>
    9cae:	2d69      	cmp	r5, #105	; 0x69
    9cb0:	d164      	bne.n	9d7c <__ssvfiscanf_r+0x1dc>
    9cb2:	2300      	movs	r3, #0
    9cb4:	9344      	str	r3, [sp, #272]	; 0x110
    9cb6:	e039      	b.n	9d2c <__ssvfiscanf_r+0x18c>
    9cb8:	2d75      	cmp	r5, #117	; 0x75
    9cba:	d031      	beq.n	9d20 <__ssvfiscanf_r+0x180>
    9cbc:	2d78      	cmp	r5, #120	; 0x78
    9cbe:	d029      	beq.n	9d14 <__ssvfiscanf_r+0x174>
    9cc0:	2d73      	cmp	r5, #115	; 0x73
    9cc2:	d15b      	bne.n	9d7c <__ssvfiscanf_r+0x1dc>
    9cc4:	2302      	movs	r3, #2
    9cc6:	e03f      	b.n	9d48 <__ssvfiscanf_r+0x1a8>
    9cc8:	6863      	ldr	r3, [r4, #4]
    9cca:	2b00      	cmp	r3, #0
    9ccc:	dd0d      	ble.n	9cea <__ssvfiscanf_r+0x14a>
    9cce:	6823      	ldr	r3, [r4, #0]
    9cd0:	781a      	ldrb	r2, [r3, #0]
    9cd2:	42aa      	cmp	r2, r5
    9cd4:	f040 80a0 	bne.w	9e18 <__ssvfiscanf_r+0x278>
    9cd8:	3301      	adds	r3, #1
    9cda:	6862      	ldr	r2, [r4, #4]
    9cdc:	6023      	str	r3, [r4, #0]
    9cde:	9b47      	ldr	r3, [sp, #284]	; 0x11c
    9ce0:	3a01      	subs	r2, #1
    9ce2:	3301      	adds	r3, #1
    9ce4:	6062      	str	r2, [r4, #4]
    9ce6:	9347      	str	r3, [sp, #284]	; 0x11c
    9ce8:	e798      	b.n	9c1c <__ssvfiscanf_r+0x7c>
    9cea:	9ba3      	ldr	r3, [sp, #652]	; 0x28c
    9cec:	4638      	mov	r0, r7
    9cee:	4621      	mov	r1, r4
    9cf0:	4798      	blx	r3
    9cf2:	2800      	cmp	r0, #0
    9cf4:	d0eb      	beq.n	9cce <__ssvfiscanf_r+0x12e>
    9cf6:	9846      	ldr	r0, [sp, #280]	; 0x118
    9cf8:	2800      	cmp	r0, #0
    9cfa:	f000 808f 	beq.w	9e1c <__ssvfiscanf_r+0x27c>
    9cfe:	89a3      	ldrh	r3, [r4, #12]
    9d00:	f013 0f40 	tst.w	r3, #64	; 0x40
    9d04:	bf18      	it	ne
    9d06:	f04f 30ff 	movne.w	r0, #4294967295	; 0xffffffff
    9d0a:	e089      	b.n	9e20 <__ssvfiscanf_r+0x280>
    9d0c:	9b43      	ldr	r3, [sp, #268]	; 0x10c
    9d0e:	f043 0320 	orr.w	r3, r3, #32
    9d12:	9343      	str	r3, [sp, #268]	; 0x10c
    9d14:	9b43      	ldr	r3, [sp, #268]	; 0x10c
    9d16:	f443 7300 	orr.w	r3, r3, #512	; 0x200
    9d1a:	9343      	str	r3, [sp, #268]	; 0x10c
    9d1c:	2310      	movs	r3, #16
    9d1e:	e002      	b.n	9d26 <__ssvfiscanf_r+0x186>
    9d20:	230a      	movs	r3, #10
    9d22:	e000      	b.n	9d26 <__ssvfiscanf_r+0x186>
    9d24:	2308      	movs	r3, #8
    9d26:	2d6e      	cmp	r5, #110	; 0x6e
    9d28:	9344      	str	r3, [sp, #272]	; 0x110
    9d2a:	dc01      	bgt.n	9d30 <__ssvfiscanf_r+0x190>
    9d2c:	2303      	movs	r3, #3
    9d2e:	e00b      	b.n	9d48 <__ssvfiscanf_r+0x1a8>
    9d30:	2304      	movs	r3, #4
    9d32:	e009      	b.n	9d48 <__ssvfiscanf_r+0x1a8>
    9d34:	4631      	mov	r1, r6
    9d36:	4648      	mov	r0, r9
    9d38:	f000 ffc2 	bl	acc0 <__sccl>
    9d3c:	9b43      	ldr	r3, [sp, #268]	; 0x10c
    9d3e:	4606      	mov	r6, r0
    9d40:	f043 0340 	orr.w	r3, r3, #64	; 0x40
    9d44:	9343      	str	r3, [sp, #268]	; 0x10c
    9d46:	2301      	movs	r3, #1
    9d48:	9349      	str	r3, [sp, #292]	; 0x124
    9d4a:	e01b      	b.n	9d84 <__ssvfiscanf_r+0x1e4>
    9d4c:	9b43      	ldr	r3, [sp, #268]	; 0x10c
    9d4e:	f043 0340 	orr.w	r3, r3, #64	; 0x40
    9d52:	9343      	str	r3, [sp, #268]	; 0x10c
    9d54:	2300      	movs	r3, #0
    9d56:	e7f7      	b.n	9d48 <__ssvfiscanf_r+0x1a8>
    9d58:	9a43      	ldr	r2, [sp, #268]	; 0x10c
    9d5a:	06d0      	lsls	r0, r2, #27
    9d5c:	f53f af5e 	bmi.w	9c1c <__ssvfiscanf_r+0x7c>
    9d60:	f012 0f01 	tst.w	r2, #1
    9d64:	9a01      	ldr	r2, [sp, #4]
    9d66:	9b47      	ldr	r3, [sp, #284]	; 0x11c
    9d68:	f102 0104 	add.w	r1, r2, #4
    9d6c:	9101      	str	r1, [sp, #4]
    9d6e:	6812      	ldr	r2, [r2, #0]
    9d70:	bf14      	ite	ne
    9d72:	8013      	strhne	r3, [r2, #0]
    9d74:	6013      	streq	r3, [r2, #0]
    9d76:	e751      	b.n	9c1c <__ssvfiscanf_r+0x7c>
    9d78:	2305      	movs	r3, #5
    9d7a:	e7e5      	b.n	9d48 <__ssvfiscanf_r+0x1a8>
    9d7c:	2303      	movs	r3, #3
    9d7e:	9349      	str	r3, [sp, #292]	; 0x124
    9d80:	230a      	movs	r3, #10
    9d82:	9344      	str	r3, [sp, #272]	; 0x110
    9d84:	6863      	ldr	r3, [r4, #4]
    9d86:	2b00      	cmp	r3, #0
    9d88:	dd03      	ble.n	9d92 <__ssvfiscanf_r+0x1f2>
    9d8a:	9b43      	ldr	r3, [sp, #268]	; 0x10c
    9d8c:	0659      	lsls	r1, r3, #25
    9d8e:	d511      	bpl.n	9db4 <__ssvfiscanf_r+0x214>
    9d90:	e018      	b.n	9dc4 <__ssvfiscanf_r+0x224>
    9d92:	9ba3      	ldr	r3, [sp, #652]	; 0x28c
    9d94:	4638      	mov	r0, r7
    9d96:	4621      	mov	r1, r4
    9d98:	4798      	blx	r3
    9d9a:	2800      	cmp	r0, #0
    9d9c:	d0f5      	beq.n	9d8a <__ssvfiscanf_r+0x1ea>
    9d9e:	e7aa      	b.n	9cf6 <__ssvfiscanf_r+0x156>
    9da0:	9a47      	ldr	r2, [sp, #284]	; 0x11c
    9da2:	3201      	adds	r2, #1
    9da4:	9247      	str	r2, [sp, #284]	; 0x11c
    9da6:	6862      	ldr	r2, [r4, #4]
    9da8:	3a01      	subs	r2, #1
    9daa:	2a00      	cmp	r2, #0
    9dac:	6062      	str	r2, [r4, #4]
    9dae:	dd13      	ble.n	9dd8 <__ssvfiscanf_r+0x238>
    9db0:	3301      	adds	r3, #1
    9db2:	6023      	str	r3, [r4, #0]
    9db4:	6823      	ldr	r3, [r4, #0]
    9db6:	f8da 2000 	ldr.w	r2, [r10]
    9dba:	7819      	ldrb	r1, [r3, #0]
    9dbc:	440a      	add	r2, r1
    9dbe:	7852      	ldrb	r2, [r2, #1]
    9dc0:	0712      	lsls	r2, r2, #28
    9dc2:	d4ed      	bmi.n	9da0 <__ssvfiscanf_r+0x200>
    9dc4:	9b49      	ldr	r3, [sp, #292]	; 0x124
    9dc6:	2b02      	cmp	r3, #2
    9dc8:	dc0d      	bgt.n	9de6 <__ssvfiscanf_r+0x246>
    9dca:	4638      	mov	r0, r7
    9dcc:	a943      	add	r1, sp, #268	; 0x10c
    9dce:	4622      	mov	r2, r4
    9dd0:	ab01      	add	r3, sp, #4
    9dd2:	f000 fb31 	bl	a438 <_scanf_chars>
    9dd6:	e019      	b.n	9e0c <__ssvfiscanf_r+0x26c>
    9dd8:	9ba3      	ldr	r3, [sp, #652]	; 0x28c
    9dda:	4638      	mov	r0, r7
    9ddc:	4621      	mov	r1, r4
    9dde:	4798      	blx	r3
    9de0:	2800      	cmp	r0, #0
    9de2:	d0e7      	beq.n	9db4 <__ssvfiscanf_r+0x214>
    9de4:	e787      	b.n	9cf6 <__ssvfiscanf_r+0x156>
    9de6:	2b04      	cmp	r3, #4
    9de8:	dc06      	bgt.n	9df8 <__ssvfiscanf_r+0x258>
    9dea:	4638      	mov	r0, r7
    9dec:	a943      	add	r1, sp, #268	; 0x10c
    9dee:	4622      	mov	r2, r4
    9df0:	ab01      	add	r3, sp, #4
    9df2:	f000 fb81 	bl	a4f8 <_scanf_i>
    9df6:	e009      	b.n	9e0c <__ssvfiscanf_r+0x26c>
    9df8:	4b0e      	ldr	r3, [pc, #56]	; (9e34 <__ssvfiscanf_r+0x294>)
    9dfa:	2b00      	cmp	r3, #0
    9dfc:	f43f af0e 	beq.w	9c1c <__ssvfiscanf_r+0x7c>
    9e00:	4638      	mov	r0, r7
    9e02:	a943      	add	r1, sp, #268	; 0x10c
    9e04:	4622      	mov	r2, r4
    9e06:	ab01      	add	r3, sp, #4
    9e08:	f3af 8000 	nop.w
    9e0c:	2801      	cmp	r0, #1
    9e0e:	d003      	beq.n	9e18 <__ssvfiscanf_r+0x278>
    9e10:	2802      	cmp	r0, #2
    9e12:	f47f af03 	bne.w	9c1c <__ssvfiscanf_r+0x7c>
    9e16:	e76e      	b.n	9cf6 <__ssvfiscanf_r+0x156>
    9e18:	9846      	ldr	r0, [sp, #280]	; 0x118
    9e1a:	e001      	b.n	9e20 <__ssvfiscanf_r+0x280>
    9e1c:	f04f 30ff 	mov.w	r0, #4294967295	; 0xffffffff
    9e20:	f50d 7d24 	add.w	sp, sp, #656	; 0x290
    9e24:	e8bd 87f0 	ldmia.w	sp!, {r4, r5, r6, r7, r8, r9, r10, pc}
    9e28:	00009aed 	.word	0x00009aed
    9e2c:	00009b67 	.word	0x00009b67
    9e30:	100001bc 	.word	0x100001bc
    9e34:	00000000 	.word	0x00000000
    9e38:	0000c941 	.word	0x0000c941

00009e3c <__tz_lock>:
    9e3c:	4770      	bx	lr

00009e3e <__tz_unlock>:
    9e3e:	4770      	bx	lr

00009e40 <_user_strerror>:
    9e40:	2000      	movs	r0, #0
    9e42:	4770      	bx	lr

00009e44 <__submore>:
    9e44:	e92d 41f0 	stmdb	sp!, {r4, r5, r6, r7, r8, lr}
    9e48:	460c      	mov	r4, r1
    9e4a:	6b49      	ldr	r1, [r1, #52]	; 0x34
    9e4c:	f104 0344 	add.w	r3, r4, #68	; 0x44
    9e50:	4299      	cmp	r1, r3
    9e52:	d11a      	bne.n	9e8a <__submore+0x46>
    9e54:	f44f 6180 	mov.w	r1, #1024	; 0x400
    9e58:	f7ff f952 	bl	9100 <_malloc_r>
    9e5c:	b918      	cbnz	r0, 9e66 <__submore+0x22>
    9e5e:	f04f 30ff 	mov.w	r0, #4294967295	; 0xffffffff
    9e62:	e8bd 81f0 	ldmia.w	sp!, {r4, r5, r6, r7, r8, pc}
    9e66:	f44f 6380 	mov.w	r3, #1024	; 0x400
    9e6a:	63a3      	str	r3, [r4, #56]	; 0x38
    9e6c:	f894 3046 	ldrb.w	r3, [r4, #70]	; 0x46
    9e70:	6360      	str	r0, [r4, #52]	; 0x34
    9e72:	f880 33ff 	strb.w	r3, [r0, #1023]	; 0x3ff
    9e76:	f894 3045 	ldrb.w	r3, [r4, #69]	; 0x45
    9e7a:	f200 30fd 	addw	r0, r0, #1021	; 0x3fd
    9e7e:	7043      	strb	r3, [r0, #1]
    9e80:	f894 3044 	ldrb.w	r3, [r4, #68]	; 0x44
    9e84:	7003      	strb	r3, [r0, #0]
    9e86:	6020      	str	r0, [r4, #0]
    9e88:	e012      	b.n	9eb0 <__submore+0x6c>
    9e8a:	6ba6      	ldr	r6, [r4, #56]	; 0x38
    9e8c:	0077      	lsls	r7, r6, #1
    9e8e:	463a      	mov	r2, r7
    9e90:	f000 fea1 	bl	abd6 <_realloc_r>
    9e94:	4605      	mov	r5, r0
    9e96:	2800      	cmp	r0, #0
    9e98:	d0e1      	beq.n	9e5e <__submore+0x1a>
    9e9a:	eb00 0806 	add.w	r8, r0, r6
    9e9e:	4640      	mov	r0, r8
    9ea0:	4629      	mov	r1, r5
    9ea2:	4632      	mov	r2, r6
    9ea4:	f7fe fca8 	bl	87f8 <memcpy>
    9ea8:	f8c4 8000 	str.w	r8, [r4]
    9eac:	6365      	str	r5, [r4, #52]	; 0x34
    9eae:	63a7      	str	r7, [r4, #56]	; 0x38
    9eb0:	2000      	movs	r0, #0
    9eb2:	e8bd 81f0 	ldmia.w	sp!, {r4, r5, r6, r7, r8, pc}

00009eb6 <__sfputc_r>:
    9eb6:	6893      	ldr	r3, [r2, #8]
    9eb8:	b510      	push	{r4, lr}
    9eba:	3b01      	subs	r3, #1
    9ebc:	2b00      	cmp	r3, #0
    9ebe:	6093      	str	r3, [r2, #8]
    9ec0:	da05      	bge.n	9ece <__sfputc_r+0x18>
    9ec2:	6994      	ldr	r4, [r2, #24]
    9ec4:	42a3      	cmp	r3, r4
    9ec6:	db08      	blt.n	9eda <__sfputc_r+0x24>
    9ec8:	b2cb      	uxtb	r3, r1
    9eca:	2b0a      	cmp	r3, #10
    9ecc:	d005      	beq.n	9eda <__sfputc_r+0x24>
    9ece:	6813      	ldr	r3, [r2, #0]
    9ed0:	1c58      	adds	r0, r3, #1
    9ed2:	6010      	str	r0, [r2, #0]
    9ed4:	7019      	strb	r1, [r3, #0]
    9ed6:	b2c8      	uxtb	r0, r1
    9ed8:	bd10      	pop	{r4, pc}
    9eda:	e8bd 4010 	ldmia.w	sp!, {r4, lr}
    9ede:	f000 bc01 	b.w	a6e4 <__swbuf_r>

00009ee2 <__sfputs_r>:
    9ee2:	b5f8      	push	{r3, r4, r5, r6, r7, lr}
    9ee4:	4605      	mov	r5, r0
    9ee6:	460e      	mov	r6, r1
    9ee8:	4614      	mov	r4, r2
    9eea:	18d7      	adds	r7, r2, r3
    9eec:	42bc      	cmp	r4, r7
    9eee:	d008      	beq.n	9f02 <__sfputs_r+0x20>
    9ef0:	4628      	mov	r0, r5
    9ef2:	f814 1b01 	ldrb.w	r1, [r4], #1
    9ef6:	4632      	mov	r2, r6
    9ef8:	f7ff ffdd 	bl	9eb6 <__sfputc_r>
    9efc:	1c43      	adds	r3, r0, #1
    9efe:	d1f5      	bne.n	9eec <__sfputs_r+0xa>
    9f00:	e000      	b.n	9f04 <__sfputs_r+0x22>
    9f02:	2000      	movs	r0, #0
    9f04:	bdf8      	pop	{r3, r4, r5, r6, r7, pc}
	...

00009f08 <_vfiprintf_r>:
    9f08:	e92d 43f0 	stmdb	sp!, {r4, r5, r6, r7, r8, r9, lr}
    9f0c:	b09d      	sub	sp, #116	; 0x74
    9f0e:	460d      	mov	r5, r1
    9f10:	4617      	mov	r7, r2
    9f12:	9303      	str	r3, [sp, #12]
    9f14:	4606      	mov	r6, r0
    9f16:	b118      	cbz	r0, 9f20 <_vfiprintf_r+0x18>
    9f18:	6983      	ldr	r3, [r0, #24]
    9f1a:	b90b      	cbnz	r3, 9f20 <_vfiprintf_r+0x18>
    9f1c:	f7fe fa48 	bl	83b0 <__sinit>
    9f20:	4b73      	ldr	r3, [pc, #460]	; (a0f0 <_vfiprintf_r+0x1e8>)
    9f22:	429d      	cmp	r5, r3
    9f24:	d101      	bne.n	9f2a <_vfiprintf_r+0x22>
    9f26:	6875      	ldr	r5, [r6, #4]
    9f28:	e008      	b.n	9f3c <_vfiprintf_r+0x34>
    9f2a:	4b72      	ldr	r3, [pc, #456]	; (a0f4 <_vfiprintf_r+0x1ec>)
    9f2c:	429d      	cmp	r5, r3
    9f2e:	d101      	bne.n	9f34 <_vfiprintf_r+0x2c>
    9f30:	68b5      	ldr	r5, [r6, #8]
    9f32:	e003      	b.n	9f3c <_vfiprintf_r+0x34>
    9f34:	4b70      	ldr	r3, [pc, #448]	; (a0f8 <_vfiprintf_r+0x1f0>)
    9f36:	429d      	cmp	r5, r3
    9f38:	bf08      	it	eq
    9f3a:	68f5      	ldreq	r5, [r6, #12]
    9f3c:	89ab      	ldrh	r3, [r5, #12]
    9f3e:	0718      	lsls	r0, r3, #28
    9f40:	d50a      	bpl.n	9f58 <_vfiprintf_r+0x50>
    9f42:	692b      	ldr	r3, [r5, #16]
    9f44:	b143      	cbz	r3, 9f58 <_vfiprintf_r+0x50>
    9f46:	2300      	movs	r3, #0
    9f48:	9309      	str	r3, [sp, #36]	; 0x24
    9f4a:	2320      	movs	r3, #32
    9f4c:	f88d 3029 	strb.w	r3, [sp, #41]	; 0x29
    9f50:	2330      	movs	r3, #48	; 0x30
    9f52:	f88d 302a 	strb.w	r3, [sp, #42]	; 0x2a
    9f56:	e038      	b.n	9fca <_vfiprintf_r+0xc2>
    9f58:	4630      	mov	r0, r6
    9f5a:	4629      	mov	r1, r5
    9f5c:	f000 fc28 	bl	a7b0 <__swsetup_r>
    9f60:	2800      	cmp	r0, #0
    9f62:	d0f0      	beq.n	9f46 <_vfiprintf_r+0x3e>
    9f64:	f04f 30ff 	mov.w	r0, #4294967295	; 0xffffffff
    9f68:	e0be      	b.n	a0e8 <_vfiprintf_r+0x1e0>
    9f6a:	9a03      	ldr	r2, [sp, #12]
    9f6c:	1d11      	adds	r1, r2, #4
    9f6e:	6812      	ldr	r2, [r2, #0]
    9f70:	9103      	str	r1, [sp, #12]
    9f72:	2a00      	cmp	r2, #0
    9f74:	db70      	blt.n	a058 <_vfiprintf_r+0x150>
    9f76:	9207      	str	r2, [sp, #28]
    9f78:	3401      	adds	r4, #1
    9f7a:	7823      	ldrb	r3, [r4, #0]
    9f7c:	2b2e      	cmp	r3, #46	; 0x2e
    9f7e:	d07d      	beq.n	a07c <_vfiprintf_r+0x174>
    9f80:	4f5e      	ldr	r7, [pc, #376]	; (a0fc <_vfiprintf_r+0x1f4>)
    9f82:	7821      	ldrb	r1, [r4, #0]
    9f84:	4638      	mov	r0, r7
    9f86:	2203      	movs	r2, #3
    9f88:	f000 fdfc 	bl	ab84 <memchr>
    9f8c:	b130      	cbz	r0, 9f9c <_vfiprintf_r+0x94>
    9f8e:	1bc7      	subs	r7, r0, r7
    9f90:	2040      	movs	r0, #64	; 0x40
    9f92:	40b8      	lsls	r0, r7
    9f94:	9b04      	ldr	r3, [sp, #16]
    9f96:	3401      	adds	r4, #1
    9f98:	4303      	orrs	r3, r0
    9f9a:	9304      	str	r3, [sp, #16]
    9f9c:	7821      	ldrb	r1, [r4, #0]
    9f9e:	4858      	ldr	r0, [pc, #352]	; (a100 <_vfiprintf_r+0x1f8>)
    9fa0:	2206      	movs	r2, #6
    9fa2:	1c67      	adds	r7, r4, #1
    9fa4:	f88d 1028 	strb.w	r1, [sp, #40]	; 0x28
    9fa8:	f000 fdec 	bl	ab84 <memchr>
    9fac:	2800      	cmp	r0, #0
    9fae:	f000 8089 	beq.w	a0c4 <_vfiprintf_r+0x1bc>
    9fb2:	4b54      	ldr	r3, [pc, #336]	; (a104 <_vfiprintf_r+0x1fc>)
    9fb4:	2b00      	cmp	r3, #0
    9fb6:	d17c      	bne.n	a0b2 <_vfiprintf_r+0x1aa>
    9fb8:	9b03      	ldr	r3, [sp, #12]
    9fba:	3307      	adds	r3, #7
    9fbc:	f023 0307 	bic.w	r3, r3, #7
    9fc0:	3308      	adds	r3, #8
    9fc2:	9303      	str	r3, [sp, #12]
    9fc4:	9b09      	ldr	r3, [sp, #36]	; 0x24
    9fc6:	4443      	add	r3, r8
    9fc8:	9309      	str	r3, [sp, #36]	; 0x24
    9fca:	463b      	mov	r3, r7
    9fcc:	461c      	mov	r4, r3
    9fce:	f813 2b01 	ldrb.w	r2, [r3], #1
    9fd2:	b91a      	cbnz	r2, 9fdc <_vfiprintf_r+0xd4>
    9fd4:	ebb4 0907 	subs.w	r9, r4, r7
    9fd8:	d00e      	beq.n	9ff8 <_vfiprintf_r+0xf0>
    9fda:	e002      	b.n	9fe2 <_vfiprintf_r+0xda>
    9fdc:	2a25      	cmp	r2, #37	; 0x25
    9fde:	d1f5      	bne.n	9fcc <_vfiprintf_r+0xc4>
    9fe0:	e7f8      	b.n	9fd4 <_vfiprintf_r+0xcc>
    9fe2:	4630      	mov	r0, r6
    9fe4:	4629      	mov	r1, r5
    9fe6:	463a      	mov	r2, r7
    9fe8:	464b      	mov	r3, r9
    9fea:	f7ff ff7a 	bl	9ee2 <__sfputs_r>
    9fee:	3001      	adds	r0, #1
    9ff0:	d075      	beq.n	a0de <_vfiprintf_r+0x1d6>
    9ff2:	9b09      	ldr	r3, [sp, #36]	; 0x24
    9ff4:	444b      	add	r3, r9
    9ff6:	9309      	str	r3, [sp, #36]	; 0x24
    9ff8:	7823      	ldrb	r3, [r4, #0]
    9ffa:	2b00      	cmp	r3, #0
    9ffc:	d06f      	beq.n	a0de <_vfiprintf_r+0x1d6>
    9ffe:	2300      	movs	r3, #0
    a000:	f04f 32ff 	mov.w	r2, #4294967295	; 0xffffffff
    a004:	9304      	str	r3, [sp, #16]
    a006:	9307      	str	r3, [sp, #28]
    a008:	9205      	str	r2, [sp, #20]
    a00a:	9306      	str	r3, [sp, #24]
    a00c:	f88d 3053 	strb.w	r3, [sp, #83]	; 0x53
    a010:	931a      	str	r3, [sp, #104]	; 0x68
    a012:	f104 0901 	add.w	r9, r4, #1
    a016:	4f3c      	ldr	r7, [pc, #240]	; (a108 <_vfiprintf_r+0x200>)
    a018:	464c      	mov	r4, r9
    a01a:	4638      	mov	r0, r7
    a01c:	7821      	ldrb	r1, [r4, #0]
    a01e:	2205      	movs	r2, #5
    a020:	f000 fdb0 	bl	ab84 <memchr>
    a024:	f109 0901 	add.w	r9, r9, #1
    a028:	9b04      	ldr	r3, [sp, #16]
    a02a:	b128      	cbz	r0, a038 <_vfiprintf_r+0x130>
    a02c:	1bc7      	subs	r7, r0, r7
    a02e:	2001      	movs	r0, #1
    a030:	40b8      	lsls	r0, r7
    a032:	4303      	orrs	r3, r0
    a034:	9304      	str	r3, [sp, #16]
    a036:	e7ee      	b.n	a016 <_vfiprintf_r+0x10e>
    a038:	06d9      	lsls	r1, r3, #27
    a03a:	bf44      	itt	mi
    a03c:	2220      	movmi	r2, #32
    a03e:	f88d 2053 	strbmi.w	r2, [sp, #83]	; 0x53
    a042:	071a      	lsls	r2, r3, #28
    a044:	bf44      	itt	mi
    a046:	222b      	movmi	r2, #43	; 0x2b
    a048:	f88d 2053 	strbmi.w	r2, [sp, #83]	; 0x53
    a04c:	7822      	ldrb	r2, [r4, #0]
    a04e:	2a2a      	cmp	r2, #42	; 0x2a
    a050:	d08b      	beq.n	9f6a <_vfiprintf_r+0x62>
    a052:	9b07      	ldr	r3, [sp, #28]
    a054:	4621      	mov	r1, r4
    a056:	e005      	b.n	a064 <_vfiprintf_r+0x15c>
    a058:	4252      	negs	r2, r2
    a05a:	f043 0302 	orr.w	r3, r3, #2
    a05e:	9207      	str	r2, [sp, #28]
    a060:	9304      	str	r3, [sp, #16]
    a062:	e789      	b.n	9f78 <_vfiprintf_r+0x70>
    a064:	460c      	mov	r4, r1
    a066:	7822      	ldrb	r2, [r4, #0]
    a068:	3101      	adds	r1, #1
    a06a:	3a30      	subs	r2, #48	; 0x30
    a06c:	2a09      	cmp	r2, #9
    a06e:	d803      	bhi.n	a078 <_vfiprintf_r+0x170>
    a070:	200a      	movs	r0, #10
    a072:	fb00 2303 	mla	r3, r0, r3, r2
    a076:	e7f5      	b.n	a064 <_vfiprintf_r+0x15c>
    a078:	9307      	str	r3, [sp, #28]
    a07a:	e77e      	b.n	9f7a <_vfiprintf_r+0x72>
    a07c:	7863      	ldrb	r3, [r4, #1]
    a07e:	2b2a      	cmp	r3, #42	; 0x2a
    a080:	d109      	bne.n	a096 <_vfiprintf_r+0x18e>
    a082:	9b03      	ldr	r3, [sp, #12]
    a084:	3402      	adds	r4, #2
    a086:	1d1a      	adds	r2, r3, #4
    a088:	681b      	ldr	r3, [r3, #0]
    a08a:	9203      	str	r2, [sp, #12]
    a08c:	2b00      	cmp	r3, #0
    a08e:	bfb8      	it	lt
    a090:	f04f 33ff 	movlt.w	r3, #4294967295	; 0xffffffff
    a094:	e00b      	b.n	a0ae <_vfiprintf_r+0x1a6>
    a096:	1c61      	adds	r1, r4, #1
    a098:	2300      	movs	r3, #0
    a09a:	460c      	mov	r4, r1
    a09c:	7822      	ldrb	r2, [r4, #0]
    a09e:	3101      	adds	r1, #1
    a0a0:	3a30      	subs	r2, #48	; 0x30
    a0a2:	2a09      	cmp	r2, #9
    a0a4:	d803      	bhi.n	a0ae <_vfiprintf_r+0x1a6>
    a0a6:	200a      	movs	r0, #10
    a0a8:	fb00 2303 	mla	r3, r0, r3, r2
    a0ac:	e7f5      	b.n	a09a <_vfiprintf_r+0x192>
    a0ae:	9305      	str	r3, [sp, #20]
    a0b0:	e766      	b.n	9f80 <_vfiprintf_r+0x78>
    a0b2:	ab03      	add	r3, sp, #12
    a0b4:	9300      	str	r3, [sp, #0]
    a0b6:	4630      	mov	r0, r6
    a0b8:	a904      	add	r1, sp, #16
    a0ba:	462a      	mov	r2, r5
    a0bc:	4b13      	ldr	r3, [pc, #76]	; (a10c <_vfiprintf_r+0x204>)
    a0be:	f3af 8000 	nop.w
    a0c2:	e007      	b.n	a0d4 <_vfiprintf_r+0x1cc>
    a0c4:	ab03      	add	r3, sp, #12
    a0c6:	9300      	str	r3, [sp, #0]
    a0c8:	4630      	mov	r0, r6
    a0ca:	a904      	add	r1, sp, #16
    a0cc:	462a      	mov	r2, r5
    a0ce:	4b0f      	ldr	r3, [pc, #60]	; (a10c <_vfiprintf_r+0x204>)
    a0d0:	f000 f89e 	bl	a210 <_printf_i>
    a0d4:	f1b0 3fff 	cmp.w	r0, #4294967295	; 0xffffffff
    a0d8:	4680      	mov	r8, r0
    a0da:	f47f af73 	bne.w	9fc4 <_vfiprintf_r+0xbc>
    a0de:	89ab      	ldrh	r3, [r5, #12]
    a0e0:	065b      	lsls	r3, r3, #25
    a0e2:	f53f af3f 	bmi.w	9f64 <_vfiprintf_r+0x5c>
    a0e6:	9809      	ldr	r0, [sp, #36]	; 0x24
    a0e8:	b01d      	add	sp, #116	; 0x74
    a0ea:	e8bd 83f0 	ldmia.w	sp!, {r4, r5, r6, r7, r8, r9, pc}
    a0ee:	bf00      	nop
    a0f0:	0000c230 	.word	0x0000c230
    a0f4:	0000c250 	.word	0x0000c250
    a0f8:	0000c270 	.word	0x0000c270
    a0fc:	0000c941 	.word	0x0000c941
    a100:	0000c945 	.word	0x0000c945
    a104:	00000000 	.word	0x00000000
    a108:	0000c93b 	.word	0x0000c93b
    a10c:	00009ee3 	.word	0x00009ee3

0000a110 <vfiprintf>:
    a110:	b530      	push	{r4, r5, lr}
    a112:	4613      	mov	r3, r2
    a114:	4a04      	ldr	r2, [pc, #16]	; (a128 <vfiprintf+0x18>)
    a116:	4605      	mov	r5, r0
    a118:	460c      	mov	r4, r1
    a11a:	6810      	ldr	r0, [r2, #0]
    a11c:	4629      	mov	r1, r5
    a11e:	4622      	mov	r2, r4
    a120:	e8bd 4030 	ldmia.w	sp!, {r4, r5, lr}
    a124:	f7ff bef0 	b.w	9f08 <_vfiprintf_r>
    a128:	100001b8 	.word	0x100001b8

0000a12c <_printf_common>:
    a12c:	e92d 43f8 	stmdb	sp!, {r3, r4, r5, r6, r7, r8, r9, lr}
    a130:	4615      	mov	r5, r2
    a132:	461f      	mov	r7, r3
    a134:	688a      	ldr	r2, [r1, #8]
    a136:	690b      	ldr	r3, [r1, #16]
    a138:	4606      	mov	r6, r0
    a13a:	429a      	cmp	r2, r3
    a13c:	bfa8      	it	ge
    a13e:	4613      	movge	r3, r2
    a140:	602b      	str	r3, [r5, #0]
    a142:	f891 2043 	ldrb.w	r2, [r1, #67]	; 0x43
    a146:	460c      	mov	r4, r1
    a148:	f8dd 8020 	ldr.w	r8, [sp, #32]
    a14c:	b10a      	cbz	r2, a152 <_printf_common+0x26>
    a14e:	3301      	adds	r3, #1
    a150:	602b      	str	r3, [r5, #0]
    a152:	6823      	ldr	r3, [r4, #0]
    a154:	0699      	lsls	r1, r3, #26
    a156:	d502      	bpl.n	a15e <_printf_common+0x32>
    a158:	682b      	ldr	r3, [r5, #0]
    a15a:	3302      	adds	r3, #2
    a15c:	602b      	str	r3, [r5, #0]
    a15e:	6823      	ldr	r3, [r4, #0]
    a160:	f013 0906 	ands.w	r9, r3, #6
    a164:	d01d      	beq.n	a1a2 <_printf_common+0x76>
    a166:	f894 3043 	ldrb.w	r3, [r4, #67]	; 0x43
    a16a:	6822      	ldr	r2, [r4, #0]
    a16c:	3300      	adds	r3, #0
    a16e:	bf18      	it	ne
    a170:	2301      	movne	r3, #1
    a172:	0692      	lsls	r2, r2, #26
    a174:	d51f      	bpl.n	a1b6 <_printf_common+0x8a>
    a176:	18e1      	adds	r1, r4, r3
    a178:	2030      	movs	r0, #48	; 0x30
    a17a:	f881 0043 	strb.w	r0, [r1, #67]	; 0x43
    a17e:	1c5a      	adds	r2, r3, #1
    a180:	f894 1045 	ldrb.w	r1, [r4, #69]	; 0x45
    a184:	4422      	add	r2, r4
    a186:	3302      	adds	r3, #2
    a188:	f882 1043 	strb.w	r1, [r2, #67]	; 0x43
    a18c:	e013      	b.n	a1b6 <_printf_common+0x8a>
    a18e:	4630      	mov	r0, r6
    a190:	4639      	mov	r1, r7
    a192:	f104 0219 	add.w	r2, r4, #25
    a196:	2301      	movs	r3, #1
    a198:	47c0      	blx	r8
    a19a:	3001      	adds	r0, #1
    a19c:	d007      	beq.n	a1ae <_printf_common+0x82>
    a19e:	f109 0901 	add.w	r9, r9, #1
    a1a2:	68e2      	ldr	r2, [r4, #12]
    a1a4:	682b      	ldr	r3, [r5, #0]
    a1a6:	1ad3      	subs	r3, r2, r3
    a1a8:	4599      	cmp	r9, r3
    a1aa:	dbf0      	blt.n	a18e <_printf_common+0x62>
    a1ac:	e7db      	b.n	a166 <_printf_common+0x3a>
    a1ae:	f04f 30ff 	mov.w	r0, #4294967295	; 0xffffffff
    a1b2:	e8bd 83f8 	ldmia.w	sp!, {r3, r4, r5, r6, r7, r8, r9, pc}
    a1b6:	4630      	mov	r0, r6
    a1b8:	4639      	mov	r1, r7
    a1ba:	f104 0243 	add.w	r2, r4, #67	; 0x43
    a1be:	47c0      	blx	r8
    a1c0:	3001      	adds	r0, #1
    a1c2:	d0f4      	beq.n	a1ae <_printf_common+0x82>
    a1c4:	6823      	ldr	r3, [r4, #0]
    a1c6:	682a      	ldr	r2, [r5, #0]
    a1c8:	f003 0306 	and.w	r3, r3, #6
    a1cc:	68e1      	ldr	r1, [r4, #12]
    a1ce:	2b04      	cmp	r3, #4
    a1d0:	bf08      	it	eq
    a1d2:	ebc2 0501 	rsbeq	r5, r2, r1
    a1d6:	6923      	ldr	r3, [r4, #16]
    a1d8:	68a2      	ldr	r2, [r4, #8]
    a1da:	bf0c      	ite	eq
    a1dc:	ea25 75e5 	biceq.w	r5, r5, r5, asr #31
    a1e0:	2500      	movne	r5, #0
    a1e2:	429a      	cmp	r2, r3
    a1e4:	bfc4      	itt	gt
    a1e6:	ebc3 0302 	rsbgt	r3, r3, r2
    a1ea:	18ed      	addgt	r5, r5, r3
    a1ec:	f04f 0900 	mov.w	r9, #0
    a1f0:	45a9      	cmp	r9, r5
    a1f2:	da0a      	bge.n	a20a <_printf_common+0xde>
    a1f4:	4630      	mov	r0, r6
    a1f6:	4639      	mov	r1, r7
    a1f8:	f104 021a 	add.w	r2, r4, #26
    a1fc:	2301      	movs	r3, #1
    a1fe:	47c0      	blx	r8
    a200:	3001      	adds	r0, #1
    a202:	d0d4      	beq.n	a1ae <_printf_common+0x82>
    a204:	f109 0901 	add.w	r9, r9, #1
    a208:	e7f2      	b.n	a1f0 <_printf_common+0xc4>
    a20a:	2000      	movs	r0, #0
    a20c:	e8bd 83f8 	ldmia.w	sp!, {r3, r4, r5, r6, r7, r8, r9, pc}

0000a210 <_printf_i>:
    a210:	e92d 47ff 	stmdb	sp!, {r0, r1, r2, r3, r4, r5, r6, r7, r8, r9, r10, lr}
    a214:	7e0e      	ldrb	r6, [r1, #24]
    a216:	4680      	mov	r8, r0
    a218:	2e6e      	cmp	r6, #110	; 0x6e
    a21a:	460c      	mov	r4, r1
    a21c:	4691      	mov	r9, r2
    a21e:	469a      	mov	r10, r3
    a220:	9d0c      	ldr	r5, [sp, #48]	; 0x30
    a222:	f101 0043 	add.w	r0, r1, #67	; 0x43
    a226:	f000 80a5 	beq.w	a374 <_printf_i+0x164>
    a22a:	d811      	bhi.n	a250 <_printf_i+0x40>
    a22c:	2e63      	cmp	r6, #99	; 0x63
    a22e:	d022      	beq.n	a276 <_printf_i+0x66>
    a230:	d809      	bhi.n	a246 <_printf_i+0x36>
    a232:	2e00      	cmp	r6, #0
    a234:	f000 80af 	beq.w	a396 <_printf_i+0x186>
    a238:	2e58      	cmp	r6, #88	; 0x58
    a23a:	f040 80bf 	bne.w	a3bc <_printf_i+0x1ac>
    a23e:	f881 6045 	strb.w	r6, [r1, #69]	; 0x45
    a242:	4a7b      	ldr	r2, [pc, #492]	; (a430 <_printf_i+0x220>)
    a244:	e04f      	b.n	a2e6 <_printf_i+0xd6>
    a246:	2e64      	cmp	r6, #100	; 0x64
    a248:	d01e      	beq.n	a288 <_printf_i+0x78>
    a24a:	2e69      	cmp	r6, #105	; 0x69
    a24c:	d01c      	beq.n	a288 <_printf_i+0x78>
    a24e:	e0b5      	b.n	a3bc <_printf_i+0x1ac>
    a250:	2e73      	cmp	r6, #115	; 0x73
    a252:	f000 80a4 	beq.w	a39e <_printf_i+0x18e>
    a256:	d809      	bhi.n	a26c <_printf_i+0x5c>
    a258:	2e6f      	cmp	r6, #111	; 0x6f
    a25a:	d02b      	beq.n	a2b4 <_printf_i+0xa4>
    a25c:	2e70      	cmp	r6, #112	; 0x70
    a25e:	f040 80ad 	bne.w	a3bc <_printf_i+0x1ac>
    a262:	680b      	ldr	r3, [r1, #0]
    a264:	f043 0320 	orr.w	r3, r3, #32
    a268:	600b      	str	r3, [r1, #0]
    a26a:	e038      	b.n	a2de <_printf_i+0xce>
    a26c:	2e75      	cmp	r6, #117	; 0x75
    a26e:	d021      	beq.n	a2b4 <_printf_i+0xa4>
    a270:	2e78      	cmp	r6, #120	; 0x78
    a272:	d034      	beq.n	a2de <_printf_i+0xce>
    a274:	e0a2      	b.n	a3bc <_printf_i+0x1ac>
    a276:	682b      	ldr	r3, [r5, #0]
    a278:	f101 0742 	add.w	r7, r1, #66	; 0x42
    a27c:	1d1a      	adds	r2, r3, #4
    a27e:	681b      	ldr	r3, [r3, #0]
    a280:	602a      	str	r2, [r5, #0]
    a282:	f881 3042 	strb.w	r3, [r1, #66]	; 0x42
    a286:	e09d      	b.n	a3c4 <_printf_i+0x1b4>
    a288:	6822      	ldr	r2, [r4, #0]
    a28a:	682b      	ldr	r3, [r5, #0]
    a28c:	f012 0f80 	tst.w	r2, #128	; 0x80
    a290:	d003      	beq.n	a29a <_printf_i+0x8a>
    a292:	1d1a      	adds	r2, r3, #4
    a294:	602a      	str	r2, [r5, #0]
    a296:	681d      	ldr	r5, [r3, #0]
    a298:	e005      	b.n	a2a6 <_printf_i+0x96>
    a29a:	0651      	lsls	r1, r2, #25
    a29c:	d5f9      	bpl.n	a292 <_printf_i+0x82>
    a29e:	1d1a      	adds	r2, r3, #4
    a2a0:	602a      	str	r2, [r5, #0]
    a2a2:	f9b3 5000 	ldrsh.w	r5, [r3]
    a2a6:	2d00      	cmp	r5, #0
    a2a8:	da39      	bge.n	a31e <_printf_i+0x10e>
    a2aa:	232d      	movs	r3, #45	; 0x2d
    a2ac:	426d      	negs	r5, r5
    a2ae:	f884 3043 	strb.w	r3, [r4, #67]	; 0x43
    a2b2:	e034      	b.n	a31e <_printf_i+0x10e>
    a2b4:	6822      	ldr	r2, [r4, #0]
    a2b6:	682b      	ldr	r3, [r5, #0]
    a2b8:	f012 0f80 	tst.w	r2, #128	; 0x80
    a2bc:	d003      	beq.n	a2c6 <_printf_i+0xb6>
    a2be:	1d1a      	adds	r2, r3, #4
    a2c0:	602a      	str	r2, [r5, #0]
    a2c2:	681d      	ldr	r5, [r3, #0]
    a2c4:	e004      	b.n	a2d0 <_printf_i+0xc0>
    a2c6:	0652      	lsls	r2, r2, #25
    a2c8:	d5f9      	bpl.n	a2be <_printf_i+0xae>
    a2ca:	1d1a      	adds	r2, r3, #4
    a2cc:	602a      	str	r2, [r5, #0]
    a2ce:	881d      	ldrh	r5, [r3, #0]
    a2d0:	7e23      	ldrb	r3, [r4, #24]
    a2d2:	4a57      	ldr	r2, [pc, #348]	; (a430 <_printf_i+0x220>)
    a2d4:	2b6f      	cmp	r3, #111	; 0x6f
    a2d6:	bf14      	ite	ne
    a2d8:	230a      	movne	r3, #10
    a2da:	2308      	moveq	r3, #8
    a2dc:	e01b      	b.n	a316 <_printf_i+0x106>
    a2de:	2378      	movs	r3, #120	; 0x78
    a2e0:	4a54      	ldr	r2, [pc, #336]	; (a434 <_printf_i+0x224>)
    a2e2:	f884 3045 	strb.w	r3, [r4, #69]	; 0x45
    a2e6:	6823      	ldr	r3, [r4, #0]
    a2e8:	6829      	ldr	r1, [r5, #0]
    a2ea:	f013 0f80 	tst.w	r3, #128	; 0x80
    a2ee:	f101 0604 	add.w	r6, r1, #4
    a2f2:	602e      	str	r6, [r5, #0]
    a2f4:	d001      	beq.n	a2fa <_printf_i+0xea>
    a2f6:	680d      	ldr	r5, [r1, #0]
    a2f8:	e002      	b.n	a300 <_printf_i+0xf0>
    a2fa:	065f      	lsls	r7, r3, #25
    a2fc:	d5fb      	bpl.n	a2f6 <_printf_i+0xe6>
    a2fe:	880d      	ldrh	r5, [r1, #0]
    a300:	07de      	lsls	r6, r3, #31
    a302:	bf44      	itt	mi
    a304:	f043 0320 	orrmi.w	r3, r3, #32
    a308:	6023      	strmi	r3, [r4, #0]
    a30a:	b91d      	cbnz	r5, a314 <_printf_i+0x104>
    a30c:	6823      	ldr	r3, [r4, #0]
    a30e:	f023 0320 	bic.w	r3, r3, #32
    a312:	6023      	str	r3, [r4, #0]
    a314:	2310      	movs	r3, #16
    a316:	2100      	movs	r1, #0
    a318:	f884 1043 	strb.w	r1, [r4, #67]	; 0x43
    a31c:	e001      	b.n	a322 <_printf_i+0x112>
    a31e:	4a44      	ldr	r2, [pc, #272]	; (a430 <_printf_i+0x220>)
    a320:	230a      	movs	r3, #10
    a322:	6866      	ldr	r6, [r4, #4]
    a324:	2e00      	cmp	r6, #0
    a326:	60a6      	str	r6, [r4, #8]
    a328:	db03      	blt.n	a332 <_printf_i+0x122>
    a32a:	6821      	ldr	r1, [r4, #0]
    a32c:	f021 0104 	bic.w	r1, r1, #4
    a330:	6021      	str	r1, [r4, #0]
    a332:	b905      	cbnz	r5, a336 <_printf_i+0x126>
    a334:	b16e      	cbz	r6, a352 <_printf_i+0x142>
    a336:	f104 0142 	add.w	r1, r4, #66	; 0x42
    a33a:	fbb5 f6f3 	udiv	r6, r5, r3
    a33e:	fb03 5516 	mls	r5, r3, r6, r5
    a342:	5d55      	ldrb	r5, [r2, r5]
    a344:	460f      	mov	r7, r1
    a346:	f801 5901 	strb.w	r5, [r1], #-1
    a34a:	4635      	mov	r5, r6
    a34c:	2e00      	cmp	r6, #0
    a34e:	d1f4      	bne.n	a33a <_printf_i+0x12a>
    a350:	e000      	b.n	a354 <_printf_i+0x144>
    a352:	4607      	mov	r7, r0
    a354:	2b08      	cmp	r3, #8
    a356:	d10a      	bne.n	a36e <_printf_i+0x15e>
    a358:	6823      	ldr	r3, [r4, #0]
    a35a:	07dd      	lsls	r5, r3, #31
    a35c:	d507      	bpl.n	a36e <_printf_i+0x15e>
    a35e:	6862      	ldr	r2, [r4, #4]
    a360:	6923      	ldr	r3, [r4, #16]
    a362:	429a      	cmp	r2, r3
    a364:	dc03      	bgt.n	a36e <_printf_i+0x15e>
    a366:	2330      	movs	r3, #48	; 0x30
    a368:	f807 3c01 	strb.w	r3, [r7, #-1]
    a36c:	3f01      	subs	r7, #1
    a36e:	1bc0      	subs	r0, r0, r7
    a370:	6120      	str	r0, [r4, #16]
    a372:	e02c      	b.n	a3ce <_printf_i+0x1be>
    a374:	6809      	ldr	r1, [r1, #0]
    a376:	682b      	ldr	r3, [r5, #0]
    a378:	f011 0f80 	tst.w	r1, #128	; 0x80
    a37c:	6962      	ldr	r2, [r4, #20]
    a37e:	d004      	beq.n	a38a <_printf_i+0x17a>
    a380:	1d19      	adds	r1, r3, #4
    a382:	6029      	str	r1, [r5, #0]
    a384:	681b      	ldr	r3, [r3, #0]
    a386:	601a      	str	r2, [r3, #0]
    a388:	e005      	b.n	a396 <_printf_i+0x186>
    a38a:	0649      	lsls	r1, r1, #25
    a38c:	d5f8      	bpl.n	a380 <_printf_i+0x170>
    a38e:	1d19      	adds	r1, r3, #4
    a390:	6029      	str	r1, [r5, #0]
    a392:	681b      	ldr	r3, [r3, #0]
    a394:	801a      	strh	r2, [r3, #0]
    a396:	2300      	movs	r3, #0
    a398:	6123      	str	r3, [r4, #16]
    a39a:	4607      	mov	r7, r0
    a39c:	e017      	b.n	a3ce <_printf_i+0x1be>
    a39e:	682b      	ldr	r3, [r5, #0]
    a3a0:	1d1a      	adds	r2, r3, #4
    a3a2:	602a      	str	r2, [r5, #0]
    a3a4:	681f      	ldr	r7, [r3, #0]
    a3a6:	4638      	mov	r0, r7
    a3a8:	f7ff fa3a 	bl	9820 <strlen>
    a3ac:	6863      	ldr	r3, [r4, #4]
    a3ae:	6120      	str	r0, [r4, #16]
    a3b0:	4298      	cmp	r0, r3
    a3b2:	bf88      	it	hi
    a3b4:	6123      	strhi	r3, [r4, #16]
    a3b6:	6923      	ldr	r3, [r4, #16]
    a3b8:	6063      	str	r3, [r4, #4]
    a3ba:	e005      	b.n	a3c8 <_printf_i+0x1b8>
    a3bc:	f104 0742 	add.w	r7, r4, #66	; 0x42
    a3c0:	f884 6042 	strb.w	r6, [r4, #66]	; 0x42
    a3c4:	2301      	movs	r3, #1
    a3c6:	6123      	str	r3, [r4, #16]
    a3c8:	2300      	movs	r3, #0
    a3ca:	f884 3043 	strb.w	r3, [r4, #67]	; 0x43
    a3ce:	f8cd a000 	str.w	r10, [sp]
    a3d2:	4640      	mov	r0, r8
    a3d4:	4621      	mov	r1, r4
    a3d6:	aa03      	add	r2, sp, #12
    a3d8:	464b      	mov	r3, r9
    a3da:	f7ff fea7 	bl	a12c <_printf_common>
    a3de:	3001      	adds	r0, #1
    a3e0:	d102      	bne.n	a3e8 <_printf_i+0x1d8>
    a3e2:	f04f 30ff 	mov.w	r0, #4294967295	; 0xffffffff
    a3e6:	e01f      	b.n	a428 <_printf_i+0x218>
    a3e8:	4640      	mov	r0, r8
    a3ea:	4649      	mov	r1, r9
    a3ec:	463a      	mov	r2, r7
    a3ee:	6923      	ldr	r3, [r4, #16]
    a3f0:	47d0      	blx	r10
    a3f2:	3001      	adds	r0, #1
    a3f4:	d0f5      	beq.n	a3e2 <_printf_i+0x1d2>
    a3f6:	6823      	ldr	r3, [r4, #0]
    a3f8:	079b      	lsls	r3, r3, #30
    a3fa:	d405      	bmi.n	a408 <_printf_i+0x1f8>
    a3fc:	68e0      	ldr	r0, [r4, #12]
    a3fe:	9b03      	ldr	r3, [sp, #12]
    a400:	4298      	cmp	r0, r3
    a402:	bfb8      	it	lt
    a404:	4618      	movlt	r0, r3
    a406:	e00f      	b.n	a428 <_printf_i+0x218>
    a408:	2500      	movs	r5, #0
    a40a:	68e2      	ldr	r2, [r4, #12]
    a40c:	9b03      	ldr	r3, [sp, #12]
    a40e:	1ad3      	subs	r3, r2, r3
    a410:	429d      	cmp	r5, r3
    a412:	daf3      	bge.n	a3fc <_printf_i+0x1ec>
    a414:	4640      	mov	r0, r8
    a416:	4649      	mov	r1, r9
    a418:	f104 0219 	add.w	r2, r4, #25
    a41c:	2301      	movs	r3, #1
    a41e:	47d0      	blx	r10
    a420:	3001      	adds	r0, #1
    a422:	d0de      	beq.n	a3e2 <_printf_i+0x1d2>
    a424:	3501      	adds	r5, #1
    a426:	e7f0      	b.n	a40a <_printf_i+0x1fa>
    a428:	b004      	add	sp, #16
    a42a:	e8bd 87f0 	ldmia.w	sp!, {r4, r5, r6, r7, r8, r9, r10, pc}
    a42e:	bf00      	nop
    a430:	0000c94c 	.word	0x0000c94c
    a434:	0000c95d 	.word	0x0000c95d

0000a438 <_scanf_chars>:
    a438:	e92d 41f0 	stmdb	sp!, {r4, r5, r6, r7, r8, lr}
    a43c:	4615      	mov	r5, r2
    a43e:	688a      	ldr	r2, [r1, #8]
    a440:	4680      	mov	r8, r0
    a442:	460c      	mov	r4, r1
    a444:	b932      	cbnz	r2, a454 <_scanf_chars+0x1c>
    a446:	698a      	ldr	r2, [r1, #24]
    a448:	2a00      	cmp	r2, #0
    a44a:	bf14      	ite	ne
    a44c:	f04f 32ff 	movne.w	r2, #4294967295	; 0xffffffff
    a450:	2201      	moveq	r2, #1
    a452:	608a      	str	r2, [r1, #8]
    a454:	6822      	ldr	r2, [r4, #0]
    a456:	06d1      	lsls	r1, r2, #27
    a458:	d403      	bmi.n	a462 <_scanf_chars+0x2a>
    a45a:	681a      	ldr	r2, [r3, #0]
    a45c:	1d11      	adds	r1, r2, #4
    a45e:	6019      	str	r1, [r3, #0]
    a460:	6817      	ldr	r7, [r2, #0]
    a462:	2600      	movs	r6, #0
    a464:	69a0      	ldr	r0, [r4, #24]
    a466:	b9e0      	cbnz	r0, a4a2 <_scanf_chars+0x6a>
    a468:	6823      	ldr	r3, [r4, #0]
    a46a:	3601      	adds	r6, #1
    a46c:	06da      	lsls	r2, r3, #27
    a46e:	d404      	bmi.n	a47a <_scanf_chars+0x42>
    a470:	682b      	ldr	r3, [r5, #0]
    a472:	3701      	adds	r7, #1
    a474:	781b      	ldrb	r3, [r3, #0]
    a476:	f807 3c01 	strb.w	r3, [r7, #-1]
    a47a:	682a      	ldr	r2, [r5, #0]
    a47c:	686b      	ldr	r3, [r5, #4]
    a47e:	3201      	adds	r2, #1
    a480:	602a      	str	r2, [r5, #0]
    a482:	68a2      	ldr	r2, [r4, #8]
    a484:	3b01      	subs	r3, #1
    a486:	3a01      	subs	r2, #1
    a488:	606b      	str	r3, [r5, #4]
    a48a:	60a2      	str	r2, [r4, #8]
    a48c:	b312      	cbz	r2, a4d4 <_scanf_chars+0x9c>
    a48e:	2b00      	cmp	r3, #0
    a490:	dce8      	bgt.n	a464 <_scanf_chars+0x2c>
    a492:	f8d4 3180 	ldr.w	r3, [r4, #384]	; 0x180
    a496:	4640      	mov	r0, r8
    a498:	4629      	mov	r1, r5
    a49a:	4798      	blx	r3
    a49c:	2800      	cmp	r0, #0
    a49e:	d0e1      	beq.n	a464 <_scanf_chars+0x2c>
    a4a0:	e018      	b.n	a4d4 <_scanf_chars+0x9c>
    a4a2:	2801      	cmp	r0, #1
    a4a4:	d107      	bne.n	a4b6 <_scanf_chars+0x7e>
    a4a6:	682a      	ldr	r2, [r5, #0]
    a4a8:	7811      	ldrb	r1, [r2, #0]
    a4aa:	6962      	ldr	r2, [r4, #20]
    a4ac:	5c52      	ldrb	r2, [r2, r1]
    a4ae:	2a00      	cmp	r2, #0
    a4b0:	d1da      	bne.n	a468 <_scanf_chars+0x30>
    a4b2:	b1ee      	cbz	r6, a4f0 <_scanf_chars+0xb8>
    a4b4:	e00e      	b.n	a4d4 <_scanf_chars+0x9c>
    a4b6:	2802      	cmp	r0, #2
    a4b8:	d001      	beq.n	a4be <_scanf_chars+0x86>
    a4ba:	b14e      	cbz	r6, a4d0 <_scanf_chars+0x98>
    a4bc:	e00a      	b.n	a4d4 <_scanf_chars+0x9c>
    a4be:	682a      	ldr	r2, [r5, #0]
    a4c0:	490c      	ldr	r1, [pc, #48]	; (a4f4 <_scanf_chars+0xbc>)
    a4c2:	7812      	ldrb	r2, [r2, #0]
    a4c4:	6809      	ldr	r1, [r1, #0]
    a4c6:	440a      	add	r2, r1
    a4c8:	7852      	ldrb	r2, [r2, #1]
    a4ca:	0713      	lsls	r3, r2, #28
    a4cc:	d5cc      	bpl.n	a468 <_scanf_chars+0x30>
    a4ce:	e7f4      	b.n	a4ba <_scanf_chars+0x82>
    a4d0:	2801      	cmp	r0, #1
    a4d2:	d00d      	beq.n	a4f0 <_scanf_chars+0xb8>
    a4d4:	6823      	ldr	r3, [r4, #0]
    a4d6:	f013 0310 	ands.w	r3, r3, #16
    a4da:	d105      	bne.n	a4e8 <_scanf_chars+0xb0>
    a4dc:	68e2      	ldr	r2, [r4, #12]
    a4de:	3201      	adds	r2, #1
    a4e0:	60e2      	str	r2, [r4, #12]
    a4e2:	69a2      	ldr	r2, [r4, #24]
    a4e4:	b102      	cbz	r2, a4e8 <_scanf_chars+0xb0>
    a4e6:	703b      	strb	r3, [r7, #0]
    a4e8:	6923      	ldr	r3, [r4, #16]
    a4ea:	2000      	movs	r0, #0
    a4ec:	441e      	add	r6, r3
    a4ee:	6126      	str	r6, [r4, #16]
    a4f0:	e8bd 81f0 	ldmia.w	sp!, {r4, r5, r6, r7, r8, pc}
    a4f4:	100001bc 	.word	0x100001bc

0000a4f8 <_scanf_i>:
    a4f8:	e92d 4ff0 	stmdb	sp!, {r4, r5, r6, r7, r8, r9, r10, r11, lr}
    a4fc:	b089      	sub	sp, #36	; 0x24
    a4fe:	460c      	mov	r4, r1
    a500:	4698      	mov	r8, r3
    a502:	a905      	add	r1, sp, #20
    a504:	4b73      	ldr	r3, [pc, #460]	; (a6d4 <_scanf_i+0x1dc>)
    a506:	9102      	str	r1, [sp, #8]
    a508:	4681      	mov	r9, r0
    a50a:	4616      	mov	r6, r2
    a50c:	e893 0007 	ldmia.w	r3, {r0, r1, r2}
    a510:	9b02      	ldr	r3, [sp, #8]
    a512:	e883 0007 	stmia.w	r3, {r0, r1, r2}
    a516:	69a3      	ldr	r3, [r4, #24]
    a518:	4a6f      	ldr	r2, [pc, #444]	; (a6d8 <_scanf_i+0x1e0>)
    a51a:	4970      	ldr	r1, [pc, #448]	; (a6dc <_scanf_i+0x1e4>)
    a51c:	2b03      	cmp	r3, #3
    a51e:	bf08      	it	eq
    a520:	4611      	moveq	r1, r2
    a522:	68a3      	ldr	r3, [r4, #8]
    a524:	9103      	str	r1, [sp, #12]
    a526:	1e5a      	subs	r2, r3, #1
    a528:	f5b2 7fae 	cmp.w	r2, #348	; 0x15c
    a52c:	d907      	bls.n	a53e <_scanf_i+0x46>
    a52e:	f46f 75ae 	mvn.w	r5, #348	; 0x15c
    a532:	eb03 0a05 	add.w	r10, r3, r5
    a536:	f240 135d 	movw	r3, #349	; 0x15d
    a53a:	60a3      	str	r3, [r4, #8]
    a53c:	e001      	b.n	a542 <_scanf_i+0x4a>
    a53e:	f04f 0a00 	mov.w	r10, #0
    a542:	6823      	ldr	r3, [r4, #0]
    a544:	f104 071c 	add.w	r7, r4, #28
    a548:	f443 6350 	orr.w	r3, r3, #3328	; 0xd00
    a54c:	6023      	str	r3, [r4, #0]
    a54e:	46bb      	mov	r11, r7
    a550:	2300      	movs	r3, #0
    a552:	6832      	ldr	r2, [r6, #0]
    a554:	a905      	add	r1, sp, #20
    a556:	f851 0023 	ldr.w	r0, [r1, r3, lsl #2]
    a55a:	7811      	ldrb	r1, [r2, #0]
    a55c:	2202      	movs	r2, #2
    a55e:	9301      	str	r3, [sp, #4]
    a560:	f000 fb10 	bl	ab84 <memchr>
    a564:	9b01      	ldr	r3, [sp, #4]
    a566:	2800      	cmp	r0, #0
    a568:	d035      	beq.n	a5d6 <_scanf_i+0xde>
    a56a:	2b01      	cmp	r3, #1
    a56c:	d10b      	bne.n	a586 <_scanf_i+0x8e>
    a56e:	6862      	ldr	r2, [r4, #4]
    a570:	b92a      	cbnz	r2, a57e <_scanf_i+0x86>
    a572:	2208      	movs	r2, #8
    a574:	6062      	str	r2, [r4, #4]
    a576:	6822      	ldr	r2, [r4, #0]
    a578:	f442 7200 	orr.w	r2, r2, #512	; 0x200
    a57c:	6022      	str	r2, [r4, #0]
    a57e:	6822      	ldr	r2, [r4, #0]
    a580:	f422 62a0 	bic.w	r2, r2, #1280	; 0x500
    a584:	e00b      	b.n	a59e <_scanf_i+0xa6>
    a586:	2b02      	cmp	r3, #2
    a588:	d10a      	bne.n	a5a0 <_scanf_i+0xa8>
    a58a:	6822      	ldr	r2, [r4, #0]
    a58c:	f402 61c0 	and.w	r1, r2, #1536	; 0x600
    a590:	f5b1 7f00 	cmp.w	r1, #512	; 0x200
    a594:	d11f      	bne.n	a5d6 <_scanf_i+0xde>
    a596:	2110      	movs	r1, #16
    a598:	6061      	str	r1, [r4, #4]
    a59a:	f442 7280 	orr.w	r2, r2, #256	; 0x100
    a59e:	6022      	str	r2, [r4, #0]
    a5a0:	68a2      	ldr	r2, [r4, #8]
    a5a2:	1e51      	subs	r1, r2, #1
    a5a4:	60a1      	str	r1, [r4, #8]
    a5a6:	b1b2      	cbz	r2, a5d6 <_scanf_i+0xde>
    a5a8:	6832      	ldr	r2, [r6, #0]
    a5aa:	f10b 0501 	add.w	r5, r11, #1
    a5ae:	1c51      	adds	r1, r2, #1
    a5b0:	6031      	str	r1, [r6, #0]
    a5b2:	7812      	ldrb	r2, [r2, #0]
    a5b4:	f88b 2000 	strb.w	r2, [r11]
    a5b8:	6872      	ldr	r2, [r6, #4]
    a5ba:	3a01      	subs	r2, #1
    a5bc:	2a00      	cmp	r2, #0
    a5be:	6072      	str	r2, [r6, #4]
    a5c0:	dc08      	bgt.n	a5d4 <_scanf_i+0xdc>
    a5c2:	9301      	str	r3, [sp, #4]
    a5c4:	f8d4 2180 	ldr.w	r2, [r4, #384]	; 0x180
    a5c8:	4648      	mov	r0, r9
    a5ca:	4631      	mov	r1, r6
    a5cc:	4790      	blx	r2
    a5ce:	9b01      	ldr	r3, [sp, #4]
    a5d0:	2800      	cmp	r0, #0
    a5d2:	d141      	bne.n	a658 <_scanf_i+0x160>
    a5d4:	46ab      	mov	r11, r5
    a5d6:	3301      	adds	r3, #1
    a5d8:	2b03      	cmp	r3, #3
    a5da:	d1ba      	bne.n	a552 <_scanf_i+0x5a>
    a5dc:	6863      	ldr	r3, [r4, #4]
    a5de:	b90b      	cbnz	r3, a5e4 <_scanf_i+0xec>
    a5e0:	230a      	movs	r3, #10
    a5e2:	6063      	str	r3, [r4, #4]
    a5e4:	6863      	ldr	r3, [r4, #4]
    a5e6:	493e      	ldr	r1, [pc, #248]	; (a6e0 <_scanf_i+0x1e8>)
    a5e8:	6960      	ldr	r0, [r4, #20]
    a5ea:	1ac9      	subs	r1, r1, r3
    a5ec:	f000 fb68 	bl	acc0 <__sccl>
    a5f0:	465d      	mov	r5, r11
    a5f2:	f04f 0b00 	mov.w	r11, #0
    a5f6:	68a3      	ldr	r3, [r4, #8]
    a5f8:	2b00      	cmp	r3, #0
    a5fa:	d02f      	beq.n	a65c <_scanf_i+0x164>
    a5fc:	6832      	ldr	r2, [r6, #0]
    a5fe:	6960      	ldr	r0, [r4, #20]
    a600:	7811      	ldrb	r1, [r2, #0]
    a602:	5c40      	ldrb	r0, [r0, r1]
    a604:	b350      	cbz	r0, a65c <_scanf_i+0x164>
    a606:	2930      	cmp	r1, #48	; 0x30
    a608:	6821      	ldr	r1, [r4, #0]
    a60a:	d10b      	bne.n	a624 <_scanf_i+0x12c>
    a60c:	0508      	lsls	r0, r1, #20
    a60e:	d509      	bpl.n	a624 <_scanf_i+0x12c>
    a610:	f10b 0b01 	add.w	r11, r11, #1
    a614:	f1ba 0f00 	cmp.w	r10, #0
    a618:	d00b      	beq.n	a632 <_scanf_i+0x13a>
    a61a:	3301      	adds	r3, #1
    a61c:	f10a 3aff 	add.w	r10, r10, #4294967295	; 0xffffffff
    a620:	60a3      	str	r3, [r4, #8]
    a622:	e006      	b.n	a632 <_scanf_i+0x13a>
    a624:	f421 6110 	bic.w	r1, r1, #2304	; 0x900
    a628:	6021      	str	r1, [r4, #0]
    a62a:	7813      	ldrb	r3, [r2, #0]
    a62c:	3501      	adds	r5, #1
    a62e:	f805 3c01 	strb.w	r3, [r5, #-1]
    a632:	6873      	ldr	r3, [r6, #4]
    a634:	3b01      	subs	r3, #1
    a636:	2b00      	cmp	r3, #0
    a638:	6073      	str	r3, [r6, #4]
    a63a:	dd03      	ble.n	a644 <_scanf_i+0x14c>
    a63c:	6833      	ldr	r3, [r6, #0]
    a63e:	3301      	adds	r3, #1
    a640:	6033      	str	r3, [r6, #0]
    a642:	e005      	b.n	a650 <_scanf_i+0x158>
    a644:	f8d4 3180 	ldr.w	r3, [r4, #384]	; 0x180
    a648:	4648      	mov	r0, r9
    a64a:	4631      	mov	r1, r6
    a64c:	4798      	blx	r3
    a64e:	b928      	cbnz	r0, a65c <_scanf_i+0x164>
    a650:	68a3      	ldr	r3, [r4, #8]
    a652:	3b01      	subs	r3, #1
    a654:	60a3      	str	r3, [r4, #8]
    a656:	e7ce      	b.n	a5f6 <_scanf_i+0xfe>
    a658:	f04f 0b00 	mov.w	r11, #0
    a65c:	6823      	ldr	r3, [r4, #0]
    a65e:	05d9      	lsls	r1, r3, #23
    a660:	d50d      	bpl.n	a67e <_scanf_i+0x186>
    a662:	42bd      	cmp	r5, r7
    a664:	d909      	bls.n	a67a <_scanf_i+0x182>
    a666:	f815 1c01 	ldrb.w	r1, [r5, #-1]
    a66a:	f8d4 317c 	ldr.w	r3, [r4, #380]	; 0x17c
    a66e:	4648      	mov	r0, r9
    a670:	4632      	mov	r2, r6
    a672:	4798      	blx	r3
    a674:	f105 3aff 	add.w	r10, r5, #4294967295	; 0xffffffff
    a678:	4655      	mov	r5, r10
    a67a:	42bd      	cmp	r5, r7
    a67c:	d026      	beq.n	a6cc <_scanf_i+0x1d4>
    a67e:	6822      	ldr	r2, [r4, #0]
    a680:	f012 0210 	ands.w	r2, r2, #16
    a684:	d11b      	bne.n	a6be <_scanf_i+0x1c6>
    a686:	702a      	strb	r2, [r5, #0]
    a688:	6863      	ldr	r3, [r4, #4]
    a68a:	4648      	mov	r0, r9
    a68c:	4639      	mov	r1, r7
    a68e:	9e03      	ldr	r6, [sp, #12]
    a690:	47b0      	blx	r6
    a692:	6822      	ldr	r2, [r4, #0]
    a694:	f8d8 3000 	ldr.w	r3, [r8]
    a698:	f012 0f20 	tst.w	r2, #32
    a69c:	d107      	bne.n	a6ae <_scanf_i+0x1b6>
    a69e:	07d2      	lsls	r2, r2, #31
    a6a0:	d505      	bpl.n	a6ae <_scanf_i+0x1b6>
    a6a2:	1d1a      	adds	r2, r3, #4
    a6a4:	f8c8 2000 	str.w	r2, [r8]
    a6a8:	681b      	ldr	r3, [r3, #0]
    a6aa:	8018      	strh	r0, [r3, #0]
    a6ac:	e004      	b.n	a6b8 <_scanf_i+0x1c0>
    a6ae:	1d1a      	adds	r2, r3, #4
    a6b0:	f8c8 2000 	str.w	r2, [r8]
    a6b4:	681b      	ldr	r3, [r3, #0]
    a6b6:	6018      	str	r0, [r3, #0]
    a6b8:	68e3      	ldr	r3, [r4, #12]
    a6ba:	3301      	adds	r3, #1
    a6bc:	60e3      	str	r3, [r4, #12]
    a6be:	6923      	ldr	r3, [r4, #16]
    a6c0:	1bed      	subs	r5, r5, r7
    a6c2:	44ab      	add	r11, r5
    a6c4:	445b      	add	r3, r11
    a6c6:	6123      	str	r3, [r4, #16]
    a6c8:	2000      	movs	r0, #0
    a6ca:	e000      	b.n	a6ce <_scanf_i+0x1d6>
    a6cc:	2001      	movs	r0, #1
    a6ce:	b009      	add	sp, #36	; 0x24
    a6d0:	e8bd 8ff0 	ldmia.w	sp!, {r4, r5, r6, r7, r8, r9, r10, r11, pc}
    a6d4:	0000c970 	.word	0x0000c970
    a6d8:	0000ad25 	.word	0x0000ad25
    a6dc:	0000ae29 	.word	0x0000ae29
    a6e0:	0000c98c 	.word	0x0000c98c

0000a6e4 <__swbuf_r>:
    a6e4:	b570      	push	{r4, r5, r6, lr}
    a6e6:	460e      	mov	r6, r1
    a6e8:	4614      	mov	r4, r2
    a6ea:	4605      	mov	r5, r0
    a6ec:	b118      	cbz	r0, a6f6 <__swbuf_r+0x12>
    a6ee:	6983      	ldr	r3, [r0, #24]
    a6f0:	b90b      	cbnz	r3, a6f6 <__swbuf_r+0x12>
    a6f2:	f7fd fe5d 	bl	83b0 <__sinit>
    a6f6:	4b22      	ldr	r3, [pc, #136]	; (a780 <__swbuf_r+0x9c>)
    a6f8:	429c      	cmp	r4, r3
    a6fa:	d101      	bne.n	a700 <__swbuf_r+0x1c>
    a6fc:	686c      	ldr	r4, [r5, #4]
    a6fe:	e008      	b.n	a712 <__swbuf_r+0x2e>
    a700:	4b20      	ldr	r3, [pc, #128]	; (a784 <__swbuf_r+0xa0>)
    a702:	429c      	cmp	r4, r3
    a704:	d101      	bne.n	a70a <__swbuf_r+0x26>
    a706:	68ac      	ldr	r4, [r5, #8]
    a708:	e003      	b.n	a712 <__swbuf_r+0x2e>
    a70a:	4b1f      	ldr	r3, [pc, #124]	; (a788 <__swbuf_r+0xa4>)
    a70c:	429c      	cmp	r4, r3
    a70e:	bf08      	it	eq
    a710:	68ec      	ldreq	r4, [r5, #12]
    a712:	69a3      	ldr	r3, [r4, #24]
    a714:	60a3      	str	r3, [r4, #8]
    a716:	89a3      	ldrh	r3, [r4, #12]
    a718:	071a      	lsls	r2, r3, #28
    a71a:	d509      	bpl.n	a730 <__swbuf_r+0x4c>
    a71c:	6923      	ldr	r3, [r4, #16]
    a71e:	b13b      	cbz	r3, a730 <__swbuf_r+0x4c>
    a720:	6923      	ldr	r3, [r4, #16]
    a722:	6820      	ldr	r0, [r4, #0]
    a724:	b2f6      	uxtb	r6, r6
    a726:	1ac0      	subs	r0, r0, r3
    a728:	6963      	ldr	r3, [r4, #20]
    a72a:	4298      	cmp	r0, r3
    a72c:	db0f      	blt.n	a74e <__swbuf_r+0x6a>
    a72e:	e008      	b.n	a742 <__swbuf_r+0x5e>
    a730:	4628      	mov	r0, r5
    a732:	4621      	mov	r1, r4
    a734:	f000 f83c 	bl	a7b0 <__swsetup_r>
    a738:	2800      	cmp	r0, #0
    a73a:	d0f1      	beq.n	a720 <__swbuf_r+0x3c>
    a73c:	f04f 30ff 	mov.w	r0, #4294967295	; 0xffffffff
    a740:	bd70      	pop	{r4, r5, r6, pc}
    a742:	4628      	mov	r0, r5
    a744:	4621      	mov	r1, r4
    a746:	f7fd fda3 	bl	8290 <_fflush_r>
    a74a:	2800      	cmp	r0, #0
    a74c:	d1f6      	bne.n	a73c <__swbuf_r+0x58>
    a74e:	68a3      	ldr	r3, [r4, #8]
    a750:	3001      	adds	r0, #1
    a752:	3b01      	subs	r3, #1
    a754:	60a3      	str	r3, [r4, #8]
    a756:	6823      	ldr	r3, [r4, #0]
    a758:	1c5a      	adds	r2, r3, #1
    a75a:	6022      	str	r2, [r4, #0]
    a75c:	701e      	strb	r6, [r3, #0]
    a75e:	6963      	ldr	r3, [r4, #20]
    a760:	4298      	cmp	r0, r3
    a762:	d004      	beq.n	a76e <__swbuf_r+0x8a>
    a764:	89a3      	ldrh	r3, [r4, #12]
    a766:	07db      	lsls	r3, r3, #31
    a768:	d507      	bpl.n	a77a <__swbuf_r+0x96>
    a76a:	2e0a      	cmp	r6, #10
    a76c:	d105      	bne.n	a77a <__swbuf_r+0x96>
    a76e:	4628      	mov	r0, r5
    a770:	4621      	mov	r1, r4
    a772:	f7fd fd8d 	bl	8290 <_fflush_r>
    a776:	2800      	cmp	r0, #0
    a778:	d1e0      	bne.n	a73c <__swbuf_r+0x58>
    a77a:	4630      	mov	r0, r6
    a77c:	bd70      	pop	{r4, r5, r6, pc}
    a77e:	bf00      	nop
    a780:	0000c230 	.word	0x0000c230
    a784:	0000c250 	.word	0x0000c250
    a788:	0000c270 	.word	0x0000c270

0000a78c <_write_r>:
    a78c:	b538      	push	{r3, r4, r5, lr}
    a78e:	4c07      	ldr	r4, [pc, #28]	; (a7ac <_write_r+0x20>)
    a790:	4605      	mov	r5, r0
    a792:	2000      	movs	r0, #0
    a794:	6020      	str	r0, [r4, #0]
    a796:	4608      	mov	r0, r1
    a798:	4611      	mov	r1, r2
    a79a:	461a      	mov	r2, r3
    a79c:	f7fc fcf2 	bl	7184 <_write>
    a7a0:	1c43      	adds	r3, r0, #1
    a7a2:	d102      	bne.n	a7aa <_write_r+0x1e>
    a7a4:	6823      	ldr	r3, [r4, #0]
    a7a6:	b103      	cbz	r3, a7aa <_write_r+0x1e>
    a7a8:	602b      	str	r3, [r5, #0]
    a7aa:	bd38      	pop	{r3, r4, r5, pc}
    a7ac:	10001260 	.word	0x10001260

0000a7b0 <__swsetup_r>:
    a7b0:	4b32      	ldr	r3, [pc, #200]	; (a87c <__swsetup_r+0xcc>)
    a7b2:	b570      	push	{r4, r5, r6, lr}
    a7b4:	681d      	ldr	r5, [r3, #0]
    a7b6:	4606      	mov	r6, r0
    a7b8:	460c      	mov	r4, r1
    a7ba:	b125      	cbz	r5, a7c6 <__swsetup_r+0x16>
    a7bc:	69ab      	ldr	r3, [r5, #24]
    a7be:	b913      	cbnz	r3, a7c6 <__swsetup_r+0x16>
    a7c0:	4628      	mov	r0, r5
    a7c2:	f7fd fdf5 	bl	83b0 <__sinit>
    a7c6:	4b2e      	ldr	r3, [pc, #184]	; (a880 <__swsetup_r+0xd0>)
    a7c8:	429c      	cmp	r4, r3
    a7ca:	d101      	bne.n	a7d0 <__swsetup_r+0x20>
    a7cc:	686c      	ldr	r4, [r5, #4]
    a7ce:	e008      	b.n	a7e2 <__swsetup_r+0x32>
    a7d0:	4b2c      	ldr	r3, [pc, #176]	; (a884 <__swsetup_r+0xd4>)
    a7d2:	429c      	cmp	r4, r3
    a7d4:	d101      	bne.n	a7da <__swsetup_r+0x2a>
    a7d6:	68ac      	ldr	r4, [r5, #8]
    a7d8:	e003      	b.n	a7e2 <__swsetup_r+0x32>
    a7da:	4b2b      	ldr	r3, [pc, #172]	; (a888 <__swsetup_r+0xd8>)
    a7dc:	429c      	cmp	r4, r3
    a7de:	bf08      	it	eq
    a7e0:	68ec      	ldreq	r4, [r5, #12]
    a7e2:	89a2      	ldrh	r2, [r4, #12]
    a7e4:	b293      	uxth	r3, r2
    a7e6:	0719      	lsls	r1, r3, #28
    a7e8:	d420      	bmi.n	a82c <__swsetup_r+0x7c>
    a7ea:	06dd      	lsls	r5, r3, #27
    a7ec:	d405      	bmi.n	a7fa <__swsetup_r+0x4a>
    a7ee:	2309      	movs	r3, #9
    a7f0:	f042 0240 	orr.w	r2, r2, #64	; 0x40
    a7f4:	6033      	str	r3, [r6, #0]
    a7f6:	81a2      	strh	r2, [r4, #12]
    a7f8:	e03b      	b.n	a872 <__swsetup_r+0xc2>
    a7fa:	0758      	lsls	r0, r3, #29
    a7fc:	d512      	bpl.n	a824 <__swsetup_r+0x74>
    a7fe:	6b61      	ldr	r1, [r4, #52]	; 0x34
    a800:	b141      	cbz	r1, a814 <__swsetup_r+0x64>
    a802:	f104 0344 	add.w	r3, r4, #68	; 0x44
    a806:	4299      	cmp	r1, r3
    a808:	d002      	beq.n	a810 <__swsetup_r+0x60>
    a80a:	4630      	mov	r0, r6
    a80c:	f7fe fc34 	bl	9078 <_free_r>
    a810:	2300      	movs	r3, #0
    a812:	6363      	str	r3, [r4, #52]	; 0x34
    a814:	89a3      	ldrh	r3, [r4, #12]
    a816:	f023 0324 	bic.w	r3, r3, #36	; 0x24
    a81a:	81a3      	strh	r3, [r4, #12]
    a81c:	2300      	movs	r3, #0
    a81e:	6063      	str	r3, [r4, #4]
    a820:	6923      	ldr	r3, [r4, #16]
    a822:	6023      	str	r3, [r4, #0]
    a824:	89a3      	ldrh	r3, [r4, #12]
    a826:	f043 0308 	orr.w	r3, r3, #8
    a82a:	81a3      	strh	r3, [r4, #12]
    a82c:	6923      	ldr	r3, [r4, #16]
    a82e:	b94b      	cbnz	r3, a844 <__swsetup_r+0x94>
    a830:	89a3      	ldrh	r3, [r4, #12]
    a832:	f403 7320 	and.w	r3, r3, #640	; 0x280
    a836:	f5b3 7f00 	cmp.w	r3, #512	; 0x200
    a83a:	d003      	beq.n	a844 <__swsetup_r+0x94>
    a83c:	4630      	mov	r0, r6
    a83e:	4621      	mov	r1, r4
    a840:	f7fd ff7e 	bl	8740 <__smakebuf_r>
    a844:	89a3      	ldrh	r3, [r4, #12]
    a846:	f013 0201 	ands.w	r2, r3, #1
    a84a:	d005      	beq.n	a858 <__swsetup_r+0xa8>
    a84c:	2200      	movs	r2, #0
    a84e:	60a2      	str	r2, [r4, #8]
    a850:	6962      	ldr	r2, [r4, #20]
    a852:	4252      	negs	r2, r2
    a854:	61a2      	str	r2, [r4, #24]
    a856:	e003      	b.n	a860 <__swsetup_r+0xb0>
    a858:	0799      	lsls	r1, r3, #30
    a85a:	bf58      	it	pl
    a85c:	6962      	ldrpl	r2, [r4, #20]
    a85e:	60a2      	str	r2, [r4, #8]
    a860:	6922      	ldr	r2, [r4, #16]
    a862:	b94a      	cbnz	r2, a878 <__swsetup_r+0xc8>
    a864:	f003 0080 	and.w	r0, r3, #128	; 0x80
    a868:	b280      	uxth	r0, r0
    a86a:	b130      	cbz	r0, a87a <__swsetup_r+0xca>
    a86c:	f043 0340 	orr.w	r3, r3, #64	; 0x40
    a870:	81a3      	strh	r3, [r4, #12]
    a872:	f04f 30ff 	mov.w	r0, #4294967295	; 0xffffffff
    a876:	bd70      	pop	{r4, r5, r6, pc}
    a878:	2000      	movs	r0, #0
    a87a:	bd70      	pop	{r4, r5, r6, pc}
    a87c:	100001b8 	.word	0x100001b8
    a880:	0000c230 	.word	0x0000c230
    a884:	0000c250 	.word	0x0000c250
    a888:	0000c270 	.word	0x0000c270

0000a88c <__register_exitproc>:
    a88c:	e92d 43f8 	stmdb	sp!, {r3, r4, r5, r6, r7, r8, r9, lr}
    a890:	4d29      	ldr	r5, [pc, #164]	; (a938 <__register_exitproc+0xac>)
    a892:	4606      	mov	r6, r0
    a894:	682c      	ldr	r4, [r5, #0]
    a896:	460f      	mov	r7, r1
    a898:	4691      	mov	r9, r2
    a89a:	4698      	mov	r8, r3
    a89c:	b90c      	cbnz	r4, a8a2 <__register_exitproc+0x16>
    a89e:	4c27      	ldr	r4, [pc, #156]	; (a93c <__register_exitproc+0xb0>)
    a8a0:	602c      	str	r4, [r5, #0]
    a8a2:	6863      	ldr	r3, [r4, #4]
    a8a4:	2b1f      	cmp	r3, #31
    a8a6:	dd12      	ble.n	a8ce <__register_exitproc+0x42>
    a8a8:	4b25      	ldr	r3, [pc, #148]	; (a940 <__register_exitproc+0xb4>)
    a8aa:	b91b      	cbnz	r3, a8b4 <__register_exitproc+0x28>
    a8ac:	f04f 30ff 	mov.w	r0, #4294967295	; 0xffffffff
    a8b0:	e8bd 83f8 	ldmia.w	sp!, {r3, r4, r5, r6, r7, r8, r9, pc}
    a8b4:	208c      	movs	r0, #140	; 0x8c
    a8b6:	f7f5 fcbd 	bl	234 <__wrap_malloc>
    a8ba:	4604      	mov	r4, r0
    a8bc:	2800      	cmp	r0, #0
    a8be:	d0f5      	beq.n	a8ac <__register_exitproc+0x20>
    a8c0:	682a      	ldr	r2, [r5, #0]
    a8c2:	2300      	movs	r3, #0
    a8c4:	6002      	str	r2, [r0, #0]
    a8c6:	6043      	str	r3, [r0, #4]
    a8c8:	6028      	str	r0, [r5, #0]
    a8ca:	f8c0 3088 	str.w	r3, [r0, #136]	; 0x88
    a8ce:	b34e      	cbz	r6, a924 <__register_exitproc+0x98>
    a8d0:	f8d4 0088 	ldr.w	r0, [r4, #136]	; 0x88
    a8d4:	b978      	cbnz	r0, a8f6 <__register_exitproc+0x6a>
    a8d6:	4b1a      	ldr	r3, [pc, #104]	; (a940 <__register_exitproc+0xb4>)
    a8d8:	2b00      	cmp	r3, #0
    a8da:	d0e7      	beq.n	a8ac <__register_exitproc+0x20>
    a8dc:	f44f 7084 	mov.w	r0, #264	; 0x108
    a8e0:	f7f5 fca8 	bl	234 <__wrap_malloc>
    a8e4:	2800      	cmp	r0, #0
    a8e6:	d0e1      	beq.n	a8ac <__register_exitproc+0x20>
    a8e8:	2300      	movs	r3, #0
    a8ea:	f8c0 3100 	str.w	r3, [r0, #256]	; 0x100
    a8ee:	f8c0 3104 	str.w	r3, [r0, #260]	; 0x104
    a8f2:	f8c4 0088 	str.w	r0, [r4, #136]	; 0x88
    a8f6:	6865      	ldr	r5, [r4, #4]
    a8f8:	2301      	movs	r3, #1
    a8fa:	f840 9025 	str.w	r9, [r0, r5, lsl #2]
    a8fe:	eb00 0285 	add.w	r2, r0, r5, lsl #2
    a902:	fa03 f505 	lsl.w	r5, r3, r5
    a906:	f8d0 3100 	ldr.w	r3, [r0, #256]	; 0x100
    a90a:	2e02      	cmp	r6, #2
    a90c:	ea43 0305 	orr.w	r3, r3, r5
    a910:	f8c0 3100 	str.w	r3, [r0, #256]	; 0x100
    a914:	f8c2 8080 	str.w	r8, [r2, #128]	; 0x80
    a918:	d104      	bne.n	a924 <__register_exitproc+0x98>
    a91a:	f8d0 3104 	ldr.w	r3, [r0, #260]	; 0x104
    a91e:	431d      	orrs	r5, r3
    a920:	f8c0 5104 	str.w	r5, [r0, #260]	; 0x104
    a924:	6863      	ldr	r3, [r4, #4]
    a926:	2000      	movs	r0, #0
    a928:	1c5a      	adds	r2, r3, #1
    a92a:	3302      	adds	r3, #2
    a92c:	6062      	str	r2, [r4, #4]
    a92e:	f844 7023 	str.w	r7, [r4, r3, lsl #2]
    a932:	e8bd 83f8 	ldmia.w	sp!, {r3, r4, r5, r6, r7, r8, r9, pc}
    a936:	bf00      	nop
    a938:	100006ec 	.word	0x100006ec
    a93c:	10000660 	.word	0x10000660
    a940:	00000235 	.word	0x00000235

0000a944 <_close_r>:
    a944:	b538      	push	{r3, r4, r5, lr}
    a946:	4c06      	ldr	r4, [pc, #24]	; (a960 <_close_r+0x1c>)
    a948:	2300      	movs	r3, #0
    a94a:	4605      	mov	r5, r0
    a94c:	4608      	mov	r0, r1
    a94e:	6023      	str	r3, [r4, #0]
    a950:	f7fc fc02 	bl	7158 <_close>
    a954:	1c43      	adds	r3, r0, #1
    a956:	d102      	bne.n	a95e <_close_r+0x1a>
    a958:	6823      	ldr	r3, [r4, #0]
    a95a:	b103      	cbz	r3, a95e <_close_r+0x1a>
    a95c:	602b      	str	r3, [r5, #0]
    a95e:	bd38      	pop	{r3, r4, r5, pc}
    a960:	10001260 	.word	0x10001260

0000a964 <div>:
    a964:	b510      	push	{r4, lr}
    a966:	2900      	cmp	r1, #0
    a968:	fb91 f4f2 	sdiv	r4, r1, r2
    a96c:	fb02 1314 	mls	r3, r2, r4, r1
    a970:	db04      	blt.n	a97c <div+0x18>
    a972:	2b00      	cmp	r3, #0
    a974:	da07      	bge.n	a986 <div+0x22>
    a976:	3401      	adds	r4, #1
    a978:	1a9b      	subs	r3, r3, r2
    a97a:	e004      	b.n	a986 <div+0x22>
    a97c:	2b00      	cmp	r3, #0
    a97e:	bfc4      	itt	gt
    a980:	f104 34ff 	addgt.w	r4, r4, #4294967295	; 0xffffffff
    a984:	189b      	addgt	r3, r3, r2
    a986:	6004      	str	r4, [r0, #0]
    a988:	6043      	str	r3, [r0, #4]
    a98a:	bd10      	pop	{r4, pc}

0000a98c <__sflags>:
    a98c:	780b      	ldrb	r3, [r1, #0]
    a98e:	b530      	push	{r4, r5, lr}
    a990:	2b72      	cmp	r3, #114	; 0x72
    a992:	d009      	beq.n	a9a8 <__sflags+0x1c>
    a994:	2b77      	cmp	r3, #119	; 0x77
    a996:	d00b      	beq.n	a9b0 <__sflags+0x24>
    a998:	2b61      	cmp	r3, #97	; 0x61
    a99a:	d10e      	bne.n	a9ba <__sflags+0x2e>
    a99c:	f44f 7402 	mov.w	r4, #520	; 0x208
    a9a0:	2301      	movs	r3, #1
    a9a2:	f44f 7084 	mov.w	r0, #264	; 0x108
    a9a6:	e01b      	b.n	a9e0 <__sflags+0x54>
    a9a8:	2400      	movs	r4, #0
    a9aa:	4623      	mov	r3, r4
    a9ac:	2004      	movs	r0, #4
    a9ae:	e017      	b.n	a9e0 <__sflags+0x54>
    a9b0:	f44f 64c0 	mov.w	r4, #1536	; 0x600
    a9b4:	2301      	movs	r3, #1
    a9b6:	2008      	movs	r0, #8
    a9b8:	e012      	b.n	a9e0 <__sflags+0x54>
    a9ba:	2316      	movs	r3, #22
    a9bc:	6003      	str	r3, [r0, #0]
    a9be:	2000      	movs	r0, #0
    a9c0:	bd30      	pop	{r4, r5, pc}
    a9c2:	2d62      	cmp	r5, #98	; 0x62
    a9c4:	d010      	beq.n	a9e8 <__sflags+0x5c>
    a9c6:	2d78      	cmp	r5, #120	; 0x78
    a9c8:	d011      	beq.n	a9ee <__sflags+0x62>
    a9ca:	2d2b      	cmp	r5, #43	; 0x2b
    a9cc:	d107      	bne.n	a9de <__sflags+0x52>
    a9ce:	f020 001c 	bic.w	r0, r0, #28
    a9d2:	f023 0303 	bic.w	r3, r3, #3
    a9d6:	f040 0010 	orr.w	r0, r0, #16
    a9da:	f043 0302 	orr.w	r3, r3, #2
    a9de:	3101      	adds	r1, #1
    a9e0:	784d      	ldrb	r5, [r1, #1]
    a9e2:	2d00      	cmp	r5, #0
    a9e4:	d1ed      	bne.n	a9c2 <__sflags+0x36>
    a9e6:	e005      	b.n	a9f4 <__sflags+0x68>
    a9e8:	f443 3380 	orr.w	r3, r3, #65536	; 0x10000
    a9ec:	e7f7      	b.n	a9de <__sflags+0x52>
    a9ee:	f443 6300 	orr.w	r3, r3, #2048	; 0x800
    a9f2:	e7f4      	b.n	a9de <__sflags+0x52>
    a9f4:	4323      	orrs	r3, r4
    a9f6:	6013      	str	r3, [r2, #0]
    a9f8:	bd30      	pop	{r4, r5, pc}
	...

0000a9fc <_fputc_r>:
    a9fc:	b570      	push	{r4, r5, r6, lr}
    a9fe:	460e      	mov	r6, r1
    aa00:	4614      	mov	r4, r2
    aa02:	4605      	mov	r5, r0
    aa04:	b118      	cbz	r0, aa0e <_fputc_r+0x12>
    aa06:	6983      	ldr	r3, [r0, #24]
    aa08:	b90b      	cbnz	r3, aa0e <_fputc_r+0x12>
    aa0a:	f7fd fcd1 	bl	83b0 <__sinit>
    aa0e:	4b0a      	ldr	r3, [pc, #40]	; (aa38 <_fputc_r+0x3c>)
    aa10:	429c      	cmp	r4, r3
    aa12:	bf08      	it	eq
    aa14:	686c      	ldreq	r4, [r5, #4]
    aa16:	d008      	beq.n	aa2a <_fputc_r+0x2e>
    aa18:	4b08      	ldr	r3, [pc, #32]	; (aa3c <_fputc_r+0x40>)
    aa1a:	429c      	cmp	r4, r3
    aa1c:	bf08      	it	eq
    aa1e:	68ac      	ldreq	r4, [r5, #8]
    aa20:	d003      	beq.n	aa2a <_fputc_r+0x2e>
    aa22:	4b07      	ldr	r3, [pc, #28]	; (aa40 <_fputc_r+0x44>)
    aa24:	429c      	cmp	r4, r3
    aa26:	bf08      	it	eq
    aa28:	68ec      	ldreq	r4, [r5, #12]
    aa2a:	4628      	mov	r0, r5
    aa2c:	4631      	mov	r1, r6
    aa2e:	4622      	mov	r2, r4
    aa30:	e8bd 4070 	ldmia.w	sp!, {r4, r5, r6, lr}
    aa34:	f000 b8f6 	b.w	ac24 <_putc_r>
    aa38:	0000c230 	.word	0x0000c230
    aa3c:	0000c250 	.word	0x0000c250
    aa40:	0000c270 	.word	0x0000c270

0000aa44 <fputc>:
    aa44:	460a      	mov	r2, r1
    aa46:	4903      	ldr	r1, [pc, #12]	; (aa54 <fputc+0x10>)
    aa48:	4603      	mov	r3, r0
    aa4a:	6808      	ldr	r0, [r1, #0]
    aa4c:	4619      	mov	r1, r3
    aa4e:	f7ff bfd5 	b.w	a9fc <_fputc_r>
    aa52:	bf00      	nop
    aa54:	100001b8 	.word	0x100001b8

0000aa58 <_fputs_r>:
    aa58:	b570      	push	{r4, r5, r6, lr}
    aa5a:	460e      	mov	r6, r1
    aa5c:	4614      	mov	r4, r2
    aa5e:	4605      	mov	r5, r0
    aa60:	b118      	cbz	r0, aa6a <_fputs_r+0x12>
    aa62:	6983      	ldr	r3, [r0, #24]
    aa64:	b90b      	cbnz	r3, aa6a <_fputs_r+0x12>
    aa66:	f7fd fca3 	bl	83b0 <__sinit>
    aa6a:	4b22      	ldr	r3, [pc, #136]	; (aaf4 <_fputs_r+0x9c>)
    aa6c:	429c      	cmp	r4, r3
    aa6e:	d101      	bne.n	aa74 <_fputs_r+0x1c>
    aa70:	686c      	ldr	r4, [r5, #4]
    aa72:	e008      	b.n	aa86 <_fputs_r+0x2e>
    aa74:	4b20      	ldr	r3, [pc, #128]	; (aaf8 <_fputs_r+0xa0>)
    aa76:	429c      	cmp	r4, r3
    aa78:	d101      	bne.n	aa7e <_fputs_r+0x26>
    aa7a:	68ac      	ldr	r4, [r5, #8]
    aa7c:	e003      	b.n	aa86 <_fputs_r+0x2e>
    aa7e:	4b1f      	ldr	r3, [pc, #124]	; (aafc <_fputs_r+0xa4>)
    aa80:	429c      	cmp	r4, r3
    aa82:	bf08      	it	eq
    aa84:	68ec      	ldreq	r4, [r5, #12]
    aa86:	89a3      	ldrh	r3, [r4, #12]
    aa88:	071a      	lsls	r2, r3, #28
    aa8a:	d501      	bpl.n	aa90 <_fputs_r+0x38>
    aa8c:	6923      	ldr	r3, [r4, #16]
    aa8e:	b99b      	cbnz	r3, aab8 <_fputs_r+0x60>
    aa90:	4628      	mov	r0, r5
    aa92:	4621      	mov	r1, r4
    aa94:	f7ff fe8c 	bl	a7b0 <__swsetup_r>
    aa98:	b170      	cbz	r0, aab8 <_fputs_r+0x60>
    aa9a:	f04f 30ff 	mov.w	r0, #4294967295	; 0xffffffff
    aa9e:	bd70      	pop	{r4, r5, r6, pc}
    aaa0:	68a3      	ldr	r3, [r4, #8]
    aaa2:	3b01      	subs	r3, #1
    aaa4:	2b00      	cmp	r3, #0
    aaa6:	60a3      	str	r3, [r4, #8]
    aaa8:	db0b      	blt.n	aac2 <_fputs_r+0x6a>
    aaaa:	6823      	ldr	r3, [r4, #0]
    aaac:	f816 2c01 	ldrb.w	r2, [r6, #-1]
    aab0:	701a      	strb	r2, [r3, #0]
    aab2:	6823      	ldr	r3, [r4, #0]
    aab4:	3301      	adds	r3, #1
    aab6:	6023      	str	r3, [r4, #0]
    aab8:	f816 0b01 	ldrb.w	r0, [r6], #1
    aabc:	2800      	cmp	r0, #0
    aabe:	d1ef      	bne.n	aaa0 <_fputs_r+0x48>
    aac0:	e017      	b.n	aaf2 <_fputs_r+0x9a>
    aac2:	69a2      	ldr	r2, [r4, #24]
    aac4:	4293      	cmp	r3, r2
    aac6:	db09      	blt.n	aadc <_fputs_r+0x84>
    aac8:	6823      	ldr	r3, [r4, #0]
    aaca:	f816 2c01 	ldrb.w	r2, [r6, #-1]
    aace:	701a      	strb	r2, [r3, #0]
    aad0:	6823      	ldr	r3, [r4, #0]
    aad2:	7819      	ldrb	r1, [r3, #0]
    aad4:	290a      	cmp	r1, #10
    aad6:	d1ed      	bne.n	aab4 <_fputs_r+0x5c>
    aad8:	4628      	mov	r0, r5
    aada:	e002      	b.n	aae2 <_fputs_r+0x8a>
    aadc:	f816 1c01 	ldrb.w	r1, [r6, #-1]
    aae0:	4628      	mov	r0, r5
    aae2:	4622      	mov	r2, r4
    aae4:	f7ff fdfe 	bl	a6e4 <__swbuf_r>
    aae8:	f1b0 33ff 	subs.w	r3, r0, #4294967295	; 0xffffffff
    aaec:	4258      	negs	r0, r3
    aaee:	4158      	adcs	r0, r3
    aaf0:	e7d2      	b.n	aa98 <_fputs_r+0x40>
    aaf2:	bd70      	pop	{r4, r5, r6, pc}
    aaf4:	0000c230 	.word	0x0000c230
    aaf8:	0000c250 	.word	0x0000c250
    aafc:	0000c270 	.word	0x0000c270

0000ab00 <fputs>:
    ab00:	460a      	mov	r2, r1
    ab02:	4903      	ldr	r1, [pc, #12]	; (ab10 <fputs+0x10>)
    ab04:	4603      	mov	r3, r0
    ab06:	6808      	ldr	r0, [r1, #0]
    ab08:	4619      	mov	r1, r3
    ab0a:	f7ff bfa5 	b.w	aa58 <_fputs_r>
    ab0e:	bf00      	nop
    ab10:	100001b8 	.word	0x100001b8

0000ab14 <_fstat_r>:
    ab14:	b538      	push	{r3, r4, r5, lr}
    ab16:	4c07      	ldr	r4, [pc, #28]	; (ab34 <_fstat_r+0x20>)
    ab18:	2300      	movs	r3, #0
    ab1a:	4605      	mov	r5, r0
    ab1c:	4608      	mov	r0, r1
    ab1e:	4611      	mov	r1, r2
    ab20:	6023      	str	r3, [r4, #0]
    ab22:	f7fc fba5 	bl	7270 <_fstat>
    ab26:	1c43      	adds	r3, r0, #1
    ab28:	d102      	bne.n	ab30 <_fstat_r+0x1c>
    ab2a:	6823      	ldr	r3, [r4, #0]
    ab2c:	b103      	cbz	r3, ab30 <_fstat_r+0x1c>
    ab2e:	602b      	str	r3, [r5, #0]
    ab30:	bd38      	pop	{r3, r4, r5, pc}
    ab32:	bf00      	nop
    ab34:	10001260 	.word	0x10001260

0000ab38 <__gettzinfo>:
    ab38:	4800      	ldr	r0, [pc, #0]	; (ab3c <__gettzinfo+0x4>)
    ab3a:	4770      	bx	lr
    ab3c:	100001c0 	.word	0x100001c0

0000ab40 <_isatty_r>:
    ab40:	b538      	push	{r3, r4, r5, lr}
    ab42:	4c06      	ldr	r4, [pc, #24]	; (ab5c <_isatty_r+0x1c>)
    ab44:	2300      	movs	r3, #0
    ab46:	4605      	mov	r5, r0
    ab48:	4608      	mov	r0, r1
    ab4a:	6023      	str	r3, [r4, #0]
    ab4c:	f7f5 fb6c 	bl	228 <__wrap__isatty>
    ab50:	1c43      	adds	r3, r0, #1
    ab52:	d102      	bne.n	ab5a <_isatty_r+0x1a>
    ab54:	6823      	ldr	r3, [r4, #0]
    ab56:	b103      	cbz	r3, ab5a <_isatty_r+0x1a>
    ab58:	602b      	str	r3, [r5, #0]
    ab5a:	bd38      	pop	{r3, r4, r5, pc}
    ab5c:	10001260 	.word	0x10001260

0000ab60 <_lseek_r>:
    ab60:	b538      	push	{r3, r4, r5, lr}
    ab62:	4c07      	ldr	r4, [pc, #28]	; (ab80 <_lseek_r+0x20>)
    ab64:	4605      	mov	r5, r0
    ab66:	2000      	movs	r0, #0
    ab68:	6020      	str	r0, [r4, #0]
    ab6a:	4608      	mov	r0, r1
    ab6c:	4611      	mov	r1, r2
    ab6e:	461a      	mov	r2, r3
    ab70:	f7fc fb6a 	bl	7248 <_lseek>
    ab74:	1c43      	adds	r3, r0, #1
    ab76:	d102      	bne.n	ab7e <_lseek_r+0x1e>
    ab78:	6823      	ldr	r3, [r4, #0]
    ab7a:	b103      	cbz	r3, ab7e <_lseek_r+0x1e>
    ab7c:	602b      	str	r3, [r5, #0]
    ab7e:	bd38      	pop	{r3, r4, r5, pc}
    ab80:	10001260 	.word	0x10001260

0000ab84 <memchr>:
    ab84:	b510      	push	{r4, lr}
    ab86:	b2c9      	uxtb	r1, r1
    ab88:	4402      	add	r2, r0
    ab8a:	4290      	cmp	r0, r2
    ab8c:	4603      	mov	r3, r0
    ab8e:	d005      	beq.n	ab9c <memchr+0x18>
    ab90:	781c      	ldrb	r4, [r3, #0]
    ab92:	3001      	adds	r0, #1
    ab94:	428c      	cmp	r4, r1
    ab96:	d1f8      	bne.n	ab8a <memchr+0x6>
    ab98:	4618      	mov	r0, r3
    ab9a:	bd10      	pop	{r4, pc}
    ab9c:	2000      	movs	r0, #0
    ab9e:	bd10      	pop	{r4, pc}

0000aba0 <memmove>:
    aba0:	4281      	cmp	r1, r0
    aba2:	b570      	push	{r4, r5, r6, lr}
    aba4:	d301      	bcc.n	abaa <memmove+0xa>
    aba6:	2300      	movs	r3, #0
    aba8:	e00e      	b.n	abc8 <memmove+0x28>
    abaa:	188c      	adds	r4, r1, r2
    abac:	42a0      	cmp	r0, r4
    abae:	d2fa      	bcs.n	aba6 <memmove+0x6>
    abb0:	1885      	adds	r5, r0, r2
    abb2:	4613      	mov	r3, r2
    abb4:	f113 33ff 	adds.w	r3, r3, #4294967295	; 0xffffffff
    abb8:	d305      	bcc.n	abc6 <memmove+0x26>
    abba:	4251      	negs	r1, r2
    abbc:	1866      	adds	r6, r4, r1
    abbe:	5cf6      	ldrb	r6, [r6, r3]
    abc0:	4429      	add	r1, r5
    abc2:	54ce      	strb	r6, [r1, r3]
    abc4:	e7f6      	b.n	abb4 <memmove+0x14>
    abc6:	bd70      	pop	{r4, r5, r6, pc}
    abc8:	4293      	cmp	r3, r2
    abca:	d003      	beq.n	abd4 <memmove+0x34>
    abcc:	5ccc      	ldrb	r4, [r1, r3]
    abce:	54c4      	strb	r4, [r0, r3]
    abd0:	3301      	adds	r3, #1
    abd2:	e7f9      	b.n	abc8 <memmove+0x28>
    abd4:	bd70      	pop	{r4, r5, r6, pc}

0000abd6 <_realloc_r>:
    abd6:	b5f8      	push	{r3, r4, r5, r6, r7, lr}
    abd8:	4606      	mov	r6, r0
    abda:	4614      	mov	r4, r2
    abdc:	460d      	mov	r5, r1
    abde:	b921      	cbnz	r1, abea <_realloc_r+0x14>
    abe0:	4611      	mov	r1, r2
    abe2:	e8bd 40f8 	ldmia.w	sp!, {r3, r4, r5, r6, r7, lr}
    abe6:	f7fe ba8b 	b.w	9100 <_malloc_r>
    abea:	b91a      	cbnz	r2, abf4 <_realloc_r+0x1e>
    abec:	f7fe fa44 	bl	9078 <_free_r>
    abf0:	4620      	mov	r0, r4
    abf2:	bdf8      	pop	{r3, r4, r5, r6, r7, pc}
    abf4:	f000 f990 	bl	af18 <_malloc_usable_size_r>
    abf8:	42a0      	cmp	r0, r4
    abfa:	d20e      	bcs.n	ac1a <_realloc_r+0x44>
    abfc:	4630      	mov	r0, r6
    abfe:	4621      	mov	r1, r4
    ac00:	f7fe fa7e 	bl	9100 <_malloc_r>
    ac04:	4607      	mov	r7, r0
    ac06:	b150      	cbz	r0, ac1e <_realloc_r+0x48>
    ac08:	4629      	mov	r1, r5
    ac0a:	4622      	mov	r2, r4
    ac0c:	f7fd fdf4 	bl	87f8 <memcpy>
    ac10:	4630      	mov	r0, r6
    ac12:	4629      	mov	r1, r5
    ac14:	f7fe fa30 	bl	9078 <_free_r>
    ac18:	e001      	b.n	ac1e <_realloc_r+0x48>
    ac1a:	4628      	mov	r0, r5
    ac1c:	bdf8      	pop	{r3, r4, r5, r6, r7, pc}
    ac1e:	4638      	mov	r0, r7
    ac20:	bdf8      	pop	{r3, r4, r5, r6, r7, pc}
	...

0000ac24 <_putc_r>:
    ac24:	b570      	push	{r4, r5, r6, lr}
    ac26:	460e      	mov	r6, r1
    ac28:	4614      	mov	r4, r2
    ac2a:	4605      	mov	r5, r0
    ac2c:	b118      	cbz	r0, ac36 <_putc_r+0x12>
    ac2e:	6983      	ldr	r3, [r0, #24]
    ac30:	b90b      	cbnz	r3, ac36 <_putc_r+0x12>
    ac32:	f7fd fbbd 	bl	83b0 <__sinit>
    ac36:	4b16      	ldr	r3, [pc, #88]	; (ac90 <_putc_r+0x6c>)
    ac38:	429c      	cmp	r4, r3
    ac3a:	d101      	bne.n	ac40 <_putc_r+0x1c>
    ac3c:	686c      	ldr	r4, [r5, #4]
    ac3e:	e008      	b.n	ac52 <_putc_r+0x2e>
    ac40:	4b14      	ldr	r3, [pc, #80]	; (ac94 <_putc_r+0x70>)
    ac42:	429c      	cmp	r4, r3
    ac44:	d101      	bne.n	ac4a <_putc_r+0x26>
    ac46:	68ac      	ldr	r4, [r5, #8]
    ac48:	e003      	b.n	ac52 <_putc_r+0x2e>
    ac4a:	4b13      	ldr	r3, [pc, #76]	; (ac98 <_putc_r+0x74>)
    ac4c:	429c      	cmp	r4, r3
    ac4e:	bf08      	it	eq
    ac50:	68ec      	ldreq	r4, [r5, #12]
    ac52:	68a3      	ldr	r3, [r4, #8]
    ac54:	3b01      	subs	r3, #1
    ac56:	2b00      	cmp	r3, #0
    ac58:	60a3      	str	r3, [r4, #8]
    ac5a:	da11      	bge.n	ac80 <_putc_r+0x5c>
    ac5c:	69a2      	ldr	r2, [r4, #24]
    ac5e:	4293      	cmp	r3, r2
    ac60:	db07      	blt.n	ac72 <_putc_r+0x4e>
    ac62:	6823      	ldr	r3, [r4, #0]
    ac64:	701e      	strb	r6, [r3, #0]
    ac66:	6823      	ldr	r3, [r4, #0]
    ac68:	7819      	ldrb	r1, [r3, #0]
    ac6a:	290a      	cmp	r1, #10
    ac6c:	d10b      	bne.n	ac86 <_putc_r+0x62>
    ac6e:	4628      	mov	r0, r5
    ac70:	e001      	b.n	ac76 <_putc_r+0x52>
    ac72:	4628      	mov	r0, r5
    ac74:	4631      	mov	r1, r6
    ac76:	4622      	mov	r2, r4
    ac78:	e8bd 4070 	ldmia.w	sp!, {r4, r5, r6, lr}
    ac7c:	f7ff bd32 	b.w	a6e4 <__swbuf_r>
    ac80:	6823      	ldr	r3, [r4, #0]
    ac82:	701e      	strb	r6, [r3, #0]
    ac84:	6823      	ldr	r3, [r4, #0]
    ac86:	1c5a      	adds	r2, r3, #1
    ac88:	6022      	str	r2, [r4, #0]
    ac8a:	7818      	ldrb	r0, [r3, #0]
    ac8c:	bd70      	pop	{r4, r5, r6, pc}
    ac8e:	bf00      	nop
    ac90:	0000c230 	.word	0x0000c230
    ac94:	0000c250 	.word	0x0000c250
    ac98:	0000c270 	.word	0x0000c270

0000ac9c <_read_r>:
    ac9c:	b538      	push	{r3, r4, r5, lr}
    ac9e:	4c07      	ldr	r4, [pc, #28]	; (acbc <_read_r+0x20>)
    aca0:	4605      	mov	r5, r0
    aca2:	2000      	movs	r0, #0
    aca4:	6020      	str	r0, [r4, #0]
    aca6:	4608      	mov	r0, r1
    aca8:	4611      	mov	r1, r2
    acaa:	461a      	mov	r2, r3
    acac:	f7fc fa92 	bl	71d4 <_read>
    acb0:	1c43      	adds	r3, r0, #1
    acb2:	d102      	bne.n	acba <_read_r+0x1e>
    acb4:	6823      	ldr	r3, [r4, #0]
    acb6:	b103      	cbz	r3, acba <_read_r+0x1e>
    acb8:	602b      	str	r3, [r5, #0]
    acba:	bd38      	pop	{r3, r4, r5, pc}
    acbc:	10001260 	.word	0x10001260

0000acc0 <__sccl>:
    acc0:	b5f0      	push	{r4, r5, r6, r7, lr}
    acc2:	780b      	ldrb	r3, [r1, #0]
    acc4:	2b5e      	cmp	r3, #94	; 0x5e
    acc6:	d002      	beq.n	acce <__sccl+0xe>
    acc8:	1c4c      	adds	r4, r1, #1
    acca:	2100      	movs	r1, #0
    accc:	e002      	b.n	acd4 <__sccl+0x14>
    acce:	1c8c      	adds	r4, r1, #2
    acd0:	784b      	ldrb	r3, [r1, #1]
    acd2:	2101      	movs	r1, #1
    acd4:	2200      	movs	r2, #0
    acd6:	5481      	strb	r1, [r0, r2]
    acd8:	3201      	adds	r2, #1
    acda:	f5b2 7f80 	cmp.w	r2, #256	; 0x100
    acde:	d1fa      	bne.n	acd6 <__sccl+0x16>
    ace0:	b90b      	cbnz	r3, ace6 <__sccl+0x26>
    ace2:	1e65      	subs	r5, r4, #1
    ace4:	e01b      	b.n	ad1e <__sccl+0x5e>
    ace6:	f1c1 0701 	rsb	r7, r1, #1
    acea:	b2fe      	uxtb	r6, r7
    acec:	54c6      	strb	r6, [r0, r3]
    acee:	1c62      	adds	r2, r4, #1
    acf0:	f812 1c01 	ldrb.w	r1, [r2, #-1]
    acf4:	1e55      	subs	r5, r2, #1
    acf6:	292d      	cmp	r1, #45	; 0x2d
    acf8:	4614      	mov	r4, r2
    acfa:	d004      	beq.n	ad06 <__sccl+0x46>
    acfc:	295d      	cmp	r1, #93	; 0x5d
    acfe:	d00d      	beq.n	ad1c <__sccl+0x5c>
    ad00:	b169      	cbz	r1, ad1e <__sccl+0x5e>
    ad02:	460b      	mov	r3, r1
    ad04:	e7f1      	b.n	acea <__sccl+0x2a>
    ad06:	7815      	ldrb	r5, [r2, #0]
    ad08:	2d5d      	cmp	r5, #93	; 0x5d
    ad0a:	d0fa      	beq.n	ad02 <__sccl+0x42>
    ad0c:	429d      	cmp	r5, r3
    ad0e:	dbf8      	blt.n	ad02 <__sccl+0x42>
    ad10:	3301      	adds	r3, #1
    ad12:	42ab      	cmp	r3, r5
    ad14:	54c6      	strb	r6, [r0, r3]
    ad16:	dbfb      	blt.n	ad10 <__sccl+0x50>
    ad18:	3202      	adds	r2, #2
    ad1a:	e7e9      	b.n	acf0 <__sccl+0x30>
    ad1c:	4615      	mov	r5, r2
    ad1e:	4628      	mov	r0, r5
    ad20:	bdf0      	pop	{r4, r5, r6, r7, pc}
	...

0000ad24 <_strtol_r>:
    ad24:	4684      	mov	r12, r0
    ad26:	483f      	ldr	r0, [pc, #252]	; (ae24 <_strtol_r+0x100>)
    ad28:	e92d 4ff0 	stmdb	sp!, {r4, r5, r6, r7, r8, r9, r10, r11, lr}
    ad2c:	f8d0 8000 	ldr.w	r8, [r0]
    ad30:	460e      	mov	r6, r1
    ad32:	4634      	mov	r4, r6
    ad34:	f814 5b01 	ldrb.w	r5, [r4], #1
    ad38:	eb08 0005 	add.w	r0, r8, r5
    ad3c:	7840      	ldrb	r0, [r0, #1]
    ad3e:	f000 0008 	and.w	r0, r0, #8
    ad42:	f000 07ff 	and.w	r7, r0, #255	; 0xff
    ad46:	b108      	cbz	r0, ad4c <_strtol_r+0x28>
    ad48:	4626      	mov	r6, r4
    ad4a:	e7f2      	b.n	ad32 <_strtol_r+0xe>
    ad4c:	2d2d      	cmp	r5, #45	; 0x2d
    ad4e:	d103      	bne.n	ad58 <_strtol_r+0x34>
    ad50:	1cb4      	adds	r4, r6, #2
    ad52:	7875      	ldrb	r5, [r6, #1]
    ad54:	2701      	movs	r7, #1
    ad56:	e003      	b.n	ad60 <_strtol_r+0x3c>
    ad58:	2d2b      	cmp	r5, #43	; 0x2b
    ad5a:	bf04      	itt	eq
    ad5c:	7875      	ldrbeq	r5, [r6, #1]
    ad5e:	1cb4      	addeq	r4, r6, #2
    ad60:	f033 0010 	bics.w	r0, r3, #16
    ad64:	d10d      	bne.n	ad82 <_strtol_r+0x5e>
    ad66:	2d30      	cmp	r5, #48	; 0x30
    ad68:	d108      	bne.n	ad7c <_strtol_r+0x58>
    ad6a:	7820      	ldrb	r0, [r4, #0]
    ad6c:	f000 00df 	and.w	r0, r0, #223	; 0xdf
    ad70:	2858      	cmp	r0, #88	; 0x58
    ad72:	d151      	bne.n	ae18 <_strtol_r+0xf4>
    ad74:	7865      	ldrb	r5, [r4, #1]
    ad76:	2310      	movs	r3, #16
    ad78:	3402      	adds	r4, #2
    ad7a:	e002      	b.n	ad82 <_strtol_r+0x5e>
    ad7c:	2b00      	cmp	r3, #0
    ad7e:	bf08      	it	eq
    ad80:	230a      	moveq	r3, #10
    ad82:	2f00      	cmp	r7, #0
    ad84:	bf0c      	ite	eq
    ad86:	f06f 4a00 	mvneq.w	r10, #2147483648	; 0x80000000
    ad8a:	f04f 4a00 	movne.w	r10, #2147483648	; 0x80000000
    ad8e:	fbba f9f3 	udiv	r9, r10, r3
    ad92:	fb03 aa19 	mls	r10, r3, r9, r10
    ad96:	2600      	movs	r6, #0
    ad98:	4630      	mov	r0, r6
    ad9a:	eb08 0b05 	add.w	r11, r8, r5
    ad9e:	f89b b001 	ldrb.w	r11, [r11, #1]
    ada2:	f01b 0f04 	tst.w	r11, #4
    ada6:	d001      	beq.n	adac <_strtol_r+0x88>
    ada8:	3d30      	subs	r5, #48	; 0x30
    adaa:	e00b      	b.n	adc4 <_strtol_r+0xa0>
    adac:	f01b 0b03 	ands.w	r11, r11, #3
    adb0:	d01b      	beq.n	adea <_strtol_r+0xc6>
    adb2:	f1bb 0f01 	cmp.w	r11, #1
    adb6:	bf14      	ite	ne
    adb8:	f04f 0b57 	movne.w	r11, #87	; 0x57
    adbc:	f04f 0b37 	moveq.w	r11, #55	; 0x37
    adc0:	ebcb 0505 	rsb	r5, r11, r5
    adc4:	429d      	cmp	r5, r3
    adc6:	da10      	bge.n	adea <_strtol_r+0xc6>
    adc8:	f1b6 3fff 	cmp.w	r6, #4294967295	; 0xffffffff
    adcc:	d00a      	beq.n	ade4 <_strtol_r+0xc0>
    adce:	4548      	cmp	r0, r9
    add0:	d806      	bhi.n	ade0 <_strtol_r+0xbc>
    add2:	d101      	bne.n	add8 <_strtol_r+0xb4>
    add4:	4555      	cmp	r5, r10
    add6:	dc03      	bgt.n	ade0 <_strtol_r+0xbc>
    add8:	fb03 5000 	mla	r0, r3, r0, r5
    addc:	2601      	movs	r6, #1
    adde:	e001      	b.n	ade4 <_strtol_r+0xc0>
    ade0:	f04f 36ff 	mov.w	r6, #4294967295	; 0xffffffff
    ade4:	f814 5b01 	ldrb.w	r5, [r4], #1
    ade8:	e7d7      	b.n	ad9a <_strtol_r+0x76>
    adea:	1c73      	adds	r3, r6, #1
    adec:	d10c      	bne.n	ae08 <_strtol_r+0xe4>
    adee:	2f00      	cmp	r7, #0
    adf0:	f04f 0322 	mov.w	r3, #34	; 0x22
    adf4:	bf0c      	ite	eq
    adf6:	f06f 4000 	mvneq.w	r0, #2147483648	; 0x80000000
    adfa:	f04f 4000 	movne.w	r0, #2147483648	; 0x80000000
    adfe:	f8cc 3000 	str.w	r3, [r12]
    ae02:	b92a      	cbnz	r2, ae10 <_strtol_r+0xec>
    ae04:	e8bd 8ff0 	ldmia.w	sp!, {r4, r5, r6, r7, r8, r9, r10, r11, pc}
    ae08:	b107      	cbz	r7, ae0c <_strtol_r+0xe8>
    ae0a:	4240      	negs	r0, r0
    ae0c:	b142      	cbz	r2, ae20 <_strtol_r+0xfc>
    ae0e:	b106      	cbz	r6, ae12 <_strtol_r+0xee>
    ae10:	1e61      	subs	r1, r4, #1
    ae12:	6011      	str	r1, [r2, #0]
    ae14:	e8bd 8ff0 	ldmia.w	sp!, {r4, r5, r6, r7, r8, r9, r10, r11, pc}
    ae18:	2b00      	cmp	r3, #0
    ae1a:	bf08      	it	eq
    ae1c:	2308      	moveq	r3, #8
    ae1e:	e7b0      	b.n	ad82 <_strtol_r+0x5e>
    ae20:	e8bd 8ff0 	ldmia.w	sp!, {r4, r5, r6, r7, r8, r9, r10, r11, pc}
    ae24:	100001bc 	.word	0x100001bc

0000ae28 <_strtoul_r>:
    ae28:	4684      	mov	r12, r0
    ae2a:	483a      	ldr	r0, [pc, #232]	; (af14 <_strtoul_r+0xec>)
    ae2c:	e92d 4ff0 	stmdb	sp!, {r4, r5, r6, r7, r8, r9, r10, r11, lr}
    ae30:	f8d0 8000 	ldr.w	r8, [r0]
    ae34:	460e      	mov	r6, r1
    ae36:	4634      	mov	r4, r6
    ae38:	f814 5b01 	ldrb.w	r5, [r4], #1
    ae3c:	eb08 0005 	add.w	r0, r8, r5
    ae40:	7840      	ldrb	r0, [r0, #1]
    ae42:	f000 0008 	and.w	r0, r0, #8
    ae46:	f000 07ff 	and.w	r7, r0, #255	; 0xff
    ae4a:	b108      	cbz	r0, ae50 <_strtoul_r+0x28>
    ae4c:	4626      	mov	r6, r4
    ae4e:	e7f2      	b.n	ae36 <_strtoul_r+0xe>
    ae50:	2d2d      	cmp	r5, #45	; 0x2d
    ae52:	d103      	bne.n	ae5c <_strtoul_r+0x34>
    ae54:	1cb4      	adds	r4, r6, #2
    ae56:	7875      	ldrb	r5, [r6, #1]
    ae58:	2701      	movs	r7, #1
    ae5a:	e003      	b.n	ae64 <_strtoul_r+0x3c>
    ae5c:	2d2b      	cmp	r5, #43	; 0x2b
    ae5e:	bf04      	itt	eq
    ae60:	7875      	ldrbeq	r5, [r6, #1]
    ae62:	1cb4      	addeq	r4, r6, #2
    ae64:	f033 0010 	bics.w	r0, r3, #16
    ae68:	d10d      	bne.n	ae86 <_strtoul_r+0x5e>
    ae6a:	2d30      	cmp	r5, #48	; 0x30
    ae6c:	d108      	bne.n	ae80 <_strtoul_r+0x58>
    ae6e:	7820      	ldrb	r0, [r4, #0]
    ae70:	f000 00df 	and.w	r0, r0, #223	; 0xdf
    ae74:	2858      	cmp	r0, #88	; 0x58
    ae76:	d147      	bne.n	af08 <_strtoul_r+0xe0>
    ae78:	7865      	ldrb	r5, [r4, #1]
    ae7a:	2310      	movs	r3, #16
    ae7c:	3402      	adds	r4, #2
    ae7e:	e002      	b.n	ae86 <_strtoul_r+0x5e>
    ae80:	2b00      	cmp	r3, #0
    ae82:	bf08      	it	eq
    ae84:	230a      	moveq	r3, #10
    ae86:	f04f 39ff 	mov.w	r9, #4294967295	; 0xffffffff
    ae8a:	fbb9 f9f3 	udiv	r9, r9, r3
    ae8e:	fb03 fa09 	mul.w	r10, r3, r9
    ae92:	2600      	movs	r6, #0
    ae94:	ea6f 0a0a 	mvn.w	r10, r10
    ae98:	4630      	mov	r0, r6
    ae9a:	eb08 0b05 	add.w	r11, r8, r5
    ae9e:	f89b b001 	ldrb.w	r11, [r11, #1]
    aea2:	f01b 0f04 	tst.w	r11, #4
    aea6:	d001      	beq.n	aeac <_strtoul_r+0x84>
    aea8:	3d30      	subs	r5, #48	; 0x30
    aeaa:	e00b      	b.n	aec4 <_strtoul_r+0x9c>
    aeac:	f01b 0b03 	ands.w	r11, r11, #3
    aeb0:	d01a      	beq.n	aee8 <_strtoul_r+0xc0>
    aeb2:	f1bb 0f01 	cmp.w	r11, #1
    aeb6:	bf14      	ite	ne
    aeb8:	f04f 0b57 	movne.w	r11, #87	; 0x57
    aebc:	f04f 0b37 	moveq.w	r11, #55	; 0x37
    aec0:	ebcb 0505 	rsb	r5, r11, r5
    aec4:	429d      	cmp	r5, r3
    aec6:	da0f      	bge.n	aee8 <_strtoul_r+0xc0>
    aec8:	2e00      	cmp	r6, #0
    aeca:	db08      	blt.n	aede <_strtoul_r+0xb6>
    aecc:	4548      	cmp	r0, r9
    aece:	d806      	bhi.n	aede <_strtoul_r+0xb6>
    aed0:	d101      	bne.n	aed6 <_strtoul_r+0xae>
    aed2:	4555      	cmp	r5, r10
    aed4:	dc03      	bgt.n	aede <_strtoul_r+0xb6>
    aed6:	fb03 5000 	mla	r0, r3, r0, r5
    aeda:	2601      	movs	r6, #1
    aedc:	e001      	b.n	aee2 <_strtoul_r+0xba>
    aede:	f04f 36ff 	mov.w	r6, #4294967295	; 0xffffffff
    aee2:	f814 5b01 	ldrb.w	r5, [r4], #1
    aee6:	e7d8      	b.n	ae9a <_strtoul_r+0x72>
    aee8:	2e00      	cmp	r6, #0
    aeea:	da05      	bge.n	aef8 <_strtoul_r+0xd0>
    aeec:	2322      	movs	r3, #34	; 0x22
    aeee:	f8cc 3000 	str.w	r3, [r12]
    aef2:	f04f 30ff 	mov.w	r0, #4294967295	; 0xffffffff
    aef6:	e001      	b.n	aefc <_strtoul_r+0xd4>
    aef8:	b107      	cbz	r7, aefc <_strtoul_r+0xd4>
    aefa:	4240      	negs	r0, r0
    aefc:	b142      	cbz	r2, af10 <_strtoul_r+0xe8>
    aefe:	b106      	cbz	r6, af02 <_strtoul_r+0xda>
    af00:	1e61      	subs	r1, r4, #1
    af02:	6011      	str	r1, [r2, #0]
    af04:	e8bd 8ff0 	ldmia.w	sp!, {r4, r5, r6, r7, r8, r9, r10, r11, pc}
    af08:	2b00      	cmp	r3, #0
    af0a:	bf08      	it	eq
    af0c:	2308      	moveq	r3, #8
    af0e:	e7ba      	b.n	ae86 <_strtoul_r+0x5e>
    af10:	e8bd 8ff0 	ldmia.w	sp!, {r4, r5, r6, r7, r8, r9, r10, r11, pc}
    af14:	100001bc 	.word	0x100001bc

0000af18 <_malloc_usable_size_r>:
    af18:	f851 0c04 	ldr.w	r0, [r1, #-4]
    af1c:	2800      	cmp	r0, #0
    af1e:	da02      	bge.n	af26 <_malloc_usable_size_r+0xe>
    af20:	3904      	subs	r1, #4
    af22:	580b      	ldr	r3, [r1, r0]
    af24:	4418      	add	r0, r3
    af26:	3804      	subs	r0, #4
    af28:	4770      	bx	lr
	...

0000af2c <_init>:
    af2c:	b5f8      	push	{r3, r4, r5, r6, r7, lr}
    af2e:	bf00      	nop
    af30:	bcf8      	pop	{r3, r4, r5, r6, r7}
    af32:	bc08      	pop	{r3}
    af34:	469e      	mov	lr, r3
    af36:	4770      	bx	lr

0000af38 <_fini>:
    af38:	b5f8      	push	{r3, r4, r5, r6, r7, lr}
    af3a:	bf00      	nop
    af3c:	bcf8      	pop	{r3, r4, r5, r6, r7}
    af3e:	bc08      	pop	{r3}
    af40:	469e      	mov	lr, r3
    af42:	4770      	bx	lr
    af44:	00627375 	.word	0x00627375
    af48:	6273752f 	.word	0x6273752f
    af4c:	7365742f 	.word	0x7365742f
    af50:	742e3174 	.word	0x742e3174
    af54:	00007478 	.word	0x00007478
    af58:	00000061 	.word	0x00000061
    af5c:	6c6c6548 	.word	0x6c6c6548
    af60:	7566206f 	.word	0x7566206f
    af64:	4453206e 	.word	0x4453206e
    af68:	72614320 	.word	0x72614320
    af6c:	6f572064 	.word	0x6f572064
    af70:	3a646c72 	.word	0x3a646c72
    af74:	21642520 	.word	0x21642520
    af78:	00000a0d 	.word	0x00000a0d
    af7c:	646f6f47 	.word	0x646f6f47
    af80:	20657962 	.word	0x20657962
    af84:	6c726f57 	.word	0x6c726f57
    af88:	000d2164 	.word	0x000d2164
    af8c:	454c4946 	.word	0x454c4946
    af90:	203d3d20 	.word	0x203d3d20
    af94:	4c4c554e 	.word	0x4c4c554e
    af98:	0000000d 	.word	0x0000000d
    af9c:	00000000 	.word	0x00000000

0000afa0 <vtable for IUSBEnumerator>:
	...
    afa8:	00000255 00000255 00000255 00000000     U...U...U.......
    afb8:	00000003 00000012                       ........

0000afc0 <vtable for USBHostMSD>:
	...
    afc8:	000002b1 000002b5 00000395 00000ad5     ................
    afd8:	0000025d 00000a21 00000999 00000269     ]...!.......i...
    afe8:	000002dd 00000341 00000369 fffffffc     ....A...i.......
    aff8:	00000000 00000361 0000038d 00002bed     ....a........+..
    b008:	00002bd9 00002bc5 00002b6d 00002b95     .+...+..m+...+..
    b018:	00002ba9 00002ae9 00002b01 00000b2d     .+...*...+..-...
    b028:	00000261 00000aa1 00000a19 0000026d     a...........m...
    b038:	00000305 00000000 4253555b 464e495f     ........[USB_INF
    b048:	25203a4f 64253a73 77654e5d 44534d20     O: %s:%d]New MSD
    b058:	76656420 3a656369 44495620 3430253a      device: VID:%04
    b068:	49502078 30253a44 5b207834 3a766564     x PID:%04x [dev:
    b078:	20702520 6e69202d 203a6674 0d5d6425      %p - intf: %d].
    b088:	0000000a 2e2f2e2e 78652f2e 6e726574     ....../../extern
    b098:	6d2f6c61 2f646562 7262696c 65697261     al/mbed/librarie
    b0a8:	53552f73 736f4842 53552f74 736f4842     s/USBHost/USBHos
    b0b8:	44534d74 4253552f 74736f48 2e44534d     tMSD/USBHostMSD.
    b0c8:	00707063 0044534d 4253555b 464e495f     cpp.MSD.[USB_INF
    b0d8:	25203a4f 64253a73 44534d5d 65645b20     O: %s:%d]MSD [de
    b0e8:	25203a76 2d205d70 6f6c6220 6f436b63     v: %p] - blockCo
    b0f8:	3a746e75 6c6c2520 62202c64 6b636f6c     unt: %lld, block
    b108:	657a6953 6425203a 6143202c 69636170     Size: %d, Capaci
    b118:	203a7974 646c6c25 0a0d0a0d 00000000     ty: %lld........
    b128:	4253555b 464e495f 25203a4f 64253a73     [USB_INFO: %s:%d
    b138:	44534d5d 65645b20 25203a76 2d205d70     ]MSD [dev: %p] -
    b148:	6e655620 20726f64 203a4449 0a0d7325      Vendor ID: %s..
    b158:	00000000 4253555b 464e495f 25203a4f     ....[USB_INFO: %
    b168:	64253a73 44534d5d 65645b20 25203a76     s:%d]MSD [dev: %
    b178:	2d205d70 6f725020 74637564 3a444920     p] - Product ID:
    b188:	0d732520 0000000a 4253555b 464e495f      %s.....[USB_INF
    b198:	25203a4f 64253a73 44534d5d 65645b20     O: %s:%d]MSD [de
    b1a8:	25203a76 2d205d70 6f725020 74637564     v: %p] - Product
    b1b8:	76657220 7325203a 00000a0d 6e6b6e55      rev: %s....Unkn
    b1c8:	006e776f 00000000                       own.....

0000b1d0 <vtable for USBHost>:
	...
    b1d8:	00000d1d 00000d9d 00000e19 00000000     ................
    b1e8:	6f727245 6e692072 61697469 6973696c     Error initialisi
    b1f8:	7420676e 71206568 65756575 6a626f20     ng the queue obj
    b208:	0a746365 00000000 4253555b 5252455f     ect.....[USB_ERR
    b218:	7325203a 5d64253a 20425548 4c4c554e     : %s:%d]HUB NULL
    b228:	21212121 0d0a0d21 0000000a 2e2f2e2e     !!!!!........./.
    b238:	78652f2e 6e726574 6d2f6c61 2f646562     ./external/mbed/
    b248:	7262696c 65697261 53552f73 736f4842     libraries/USBHos
    b258:	53552f74 736f4842 53552f74 736f4842     t/USBHost/USBHos
    b268:	70632e74 00000070 4253555b 464e495f     t.cpp...[USB_INF
    b278:	25203a4f 64253a73 7665445d 20656369     O: %s:%d]Device 
    b288:	63736964 656e6e6f 64657463 70255b20     disconnected [%p
    b298:	25202d20 202d2073 3a627568 20642520      - %s - hub: %d 
    b2a8:	6f70202d 203a7472 0d5d6425 0000000a     - port: %d].....
    b2b8:	4253555b 5252455f 7325203a 5d64253a     [USB_ERR: %s:%d]
    b2c8:	6c756f63 6f6e2064 6c612074 61636f6c     could not alloca
    b2d8:	6d206574 2065726f 70646e65 746e696f     te more endpoint
    b2e8:	21212173 000a0d21 4253555b 5252455f     s!!!!...[USB_ERR
    b2f8:	7325203a 5d64253a 20766564 4c4c554e     : %s:%d]dev NULL
    b308:	00000a0d 4253555b 5252455f 7325203a     ....[USB_ERR: %s
    b318:	5d64253a 4e207065 0d4c4c55 0000000a     :%d]ep NULL.....
    b328:	4253555b 5241575f 474e494e 7325203a     [USB_WARNING: %s
    b338:	5d64253a 3a70655b 20702520 6564202d     :%d][ep: %p - de
    b348:	25203a76 202d2070 205d7325 20544f4e     v: %p - %s] NOT 
    b358:	454c4449 7325203a 00000a0d 4253555b     IDLE: %s....[USB
    b368:	5252455f 7325203a 5d64253a 3a70655b     _ERR: %s:%d][ep:
    b378:	20702520 6564202d 25203a76 55205d70      %p - dev: %p] U
    b388:	6e454253 696f7064 6120746e 20726464     SBEndpoint addr 
    b398:	20646e61 69766564 61206563 20726464     and device addr 
    b3a8:	276e6f64 616d2074 0d686374 0000000a     don't match.....
    b3b8:	4253555b 5252455f 7325203a 5d64253a     [USB_ERR: %s:%d]
    b3c8:	3a70655b 20702520 6564202d 25203a76     [ep: %p - dev: %
    b3d8:	77205d70 676e6f72 72696420 20726f20     p] wrong dir or 
    b3e8:	20646162 45425355 6f70646e 20746e69     bad USBEndpoint 
    b3f8:	65707974 00000a0d 4253555b 5252455f     type....[USB_ERR
    b408:	7325203a 5d64253a 20544547 464e4f43     : %s:%d]GET CONF
    b418:	44203120 52435345 49414620 0d44454c      1 DESCR FAILED.
    b428:	0000000a 4253555b 5252455f 7325203a     ....[USB_ERR: %s
    b438:	5d64253a 5f627375 65726874 63206461     :%d]usb_thread c
    b448:	646c756f 746f6e20 61657220 65642064     ould not read de
    b458:	65642076 0d726373 0000000a 4253555b     v descr.....[USB
    b468:	5252455f 7325203a 5d64253a 20544553     _ERR: %s:%d]SET 
    b478:	52444441 49414620 0d44454c 0000000a     ADDR FAILED.....
    b488:	4253555b 464e495f 25203a4f 64253a73     [USB_INFO: %s:%d
    b498:	77654e5d 76656420 20656369 6e6e6f63     ]New device conn
    b4a8:	65746365 25203a64 685b2070 203a6275     ected: %p [hub: 
    b4b8:	2d206425 726f7020 25203a74 0a0d5d64     %d - port: %d]..
    b4c8:	00000000 4253555b 5241575f 474e494e     ....[USB_WARNING
    b4d8:	7325203a 5d64253a 25206474 72702070     : %s:%d]td %p pr
    b4e8:	7365636f 20646573 20747562 20746f6e     ocessed but not 
    b4f8:	69206e69 20656c64 74617473 25203a65     in idle state: %
    b508:	655b2073 25203a70 202d2070 3a766564     s [ep: %p - dev:
    b518:	20702520 7325202d 000a0d5d 4253555b      %p - %s]...[USB
    b528:	5252455f 7325203a 5d64253a 206f6f54     _ERR: %s:%d]Too 
    b538:	796e616d 76656420 20656369 6e6e6f63     many device conn
    b548:	65746365 0d212164 000a0d0a 4253555b     ected!!.....[USB
    b558:	5252455f 7325203a 5d64253a 206f6f54     _ERR: %s:%d]Too 
    b568:	796e616d 62756820 6f632073 63656e6e     many hubs connec
    b578:	21646574 0d0a0d21 0000000a 00000000     ted!!...........

0000b588 <vtable for USBHostHub>:
	...
    b590:	000020d5 000020d9 00002101 00000000     . ... ...!......
    b5a0:	4253555b 464e495f 25203a4f 64253a73     [USB_INFO: %s:%d
    b5b0:	77654e5d 42554820 4956203a 30253a44     ]New HUB: VID:%0
    b5c0:	50207834 253a4449 20783430 7665645b     4x PID:%04x [dev
    b5d0:	7025203a 69202d20 3a66746e 5d642520     : %p - intf: %d]
    b5e0:	00000a0d 2e2f2e2e 78652f2e 6e726574     ....../../extern
    b5f0:	6d2f6c61 2f646562 7262696c 65697261     al/mbed/librarie
    b600:	53552f73 736f4842 53552f74 736f4842     s/USBHost/USBHos
    b610:	62754874 4253552f 74736f48 2e627548     tHub/USBHostHub.
    b620:	00707063 00627548 4253555b 5252455f     cpp.Hub.[USB_ERR
    b630:	7325203a 5d64253a 5245564f 52554320     : %s:%d]OVER CUR
    b640:	544e4552 54454420 45544345 0d0a0d44     RENT DETECTED...
    b650:	0000000a 5f425355 45505954 004b4f5f     ....USB_TYPE_OK.
    b660:	5f425355 45505954 4352435f 5252455f     USB_TYPE_CRC_ERR
    b670:	0000524f 5f425355 45505954 5449425f     OR..USB_TYPE_BIT
    b680:	5554535f 4e494646 52455f47 00524f52     _STUFFING_ERROR.
    b690:	5f425355 45505954 5441445f 4f545f41     USB_TYPE_DATA_TO
    b6a0:	454c4747 53494d5f 4354414d 52455f48     GGLE_MISMATCH_ER
    b6b0:	00524f52 5f425355 45505954 4154535f     ROR.USB_TYPE_STA
    b6c0:	455f4c4c 524f5252 00000000 5f425355     LL_ERROR....USB_
    b6d0:	45505954 5645445f 5f454349 5f544f4e     TYPE_DEVICE_NOT_
    b6e0:	50534552 49444e4f 455f474e 524f5252     RESPONDING_ERROR
    b6f0:	00000000 5f425355 45505954 4449505f     ....USB_TYPE_PID
    b700:	4548435f 465f4b43 554c4941 455f4552     _CHECK_FAILURE_E
    b710:	524f5252 00000000 5f425355 45505954     RROR....USB_TYPE
    b720:	454e555f 43455058 5f444554 5f444950     _UNEXPECTED_PID_
    b730:	4f525245 00000052 5f425355 45505954     ERROR...USB_TYPE
    b740:	5441445f 564f5f41 55525245 52455f4e     _DATA_OVERRUN_ER
    b750:	00524f52 5f425355 45505954 5441445f     ROR.USB_TYPE_DAT
    b760:	4e555f41 52524544 455f4e55 524f5252     A_UNDERRUN_ERROR
    b770:	00000000 5f425355 45505954 5252455f     ....USB_TYPE_ERR
    b780:	0000524f 5f425355 45505954 4655425f     OR..USB_TYPE_BUF
    b790:	5f524546 5245564f 5f4e5552 4f525245     FER_OVERRUN_ERRO
    b7a0:	00000052 5f425355 45505954 4655425f     R...USB_TYPE_BUF
    b7b0:	5f524546 45444e55 4e555252 5252455f     FER_UNDERRUN_ERR
    b7c0:	0000524f 5f425355 45505954 5349445f     OR..USB_TYPE_DIS
    b7d0:	4e4e4f43 45544345 00000044 5f425355     CONNECTED...USB_
    b7e0:	45505954 4552465f 00000045 5f425355     TYPE_FREE...USB_
    b7f0:	45505954 4c44495f 00000045 5f425355     TYPE_IDLE...USB_
    b800:	45505954 4f52505f 53534543 00474e49     TYPE_PROCESSING.

0000b810 <type_string>:
    b810:	00000000 0000b654 00000001 0000b660     ....T.......`...
    b820:	00000002 0000b674 00000003 0000b690     ....t...........
    b830:	00000004 0000b6b4 00000005 0000b6cc     ................
    b840:	00000006 0000b6f4 00000007 0000b718     ................
    b850:	00000008 0000b738 00000009 0000b754     ....8.......T...
    b860:	00000012 0000b774 00000012 0000b774     ....t.......t...
    b870:	0000000c 0000b784 0000000d 0000b7a4     ................
    b880:	0000000e 0000b7c4 0000000f 0000b7dc     ................
    b890:	00000010 0000b7ec 00000011 0000b7fc     ................
    b8a0:	00000012 0000b774                       ....t...

0000b8a8 <vtable for USBHALHost>:
	...
    b8b0:	00000255 00000255 00000255 00000000     U...U...U.......
    b8c0:	6c756f43 6f6e2064 6c612074 61636f6c     Could not alloca
    b8d0:	45206574 000a0d44 6c756f43 6f6e2064     te ED...Could no
    b8e0:	6c612074 61636f6c 54206574 000a0d44     t allocate TD...

0000b8f0 <vtable for FATFileSystem>:
	...
    b8f8:	00002b29 00002b59 00002bed 00002bd9     )+..Y+...+...+..
    b908:	00002bc5 00002b6d 00002b95 00002ba9     .+..m+...+...+..
    b918:	00002ae9 00002b01 00002add 00002ae1     .*...+...*...*..
    b928:	00000255 00000255 00002ae5 00000255     U...U....*..U...
    b938:	2f3a6425 00007325 6c756f43 74276e64     %d:/%s..Couldn't
    b948:	65726320 20657461 69207325 4146206e      create %s in FA
    b958:	6c694654 73795365 3a6d6574 5441463a     TFileSystem::FAT
    b968:	656c6946 74737953 000a6d65              FileSystem..

0000b974 <LfnOfs>:
    b974:	07050301 12100e09 1c181614 0000001e     ................

0000b984 <create_name(FATFS_DIR*, char const**)::excvt>:
    b984:	b6909a80 808fb78e d8d4d3d2 8f8eded7     ................
    b994:	e2929290 ebeae399 9d9a9959 9f9e9d9c     ........Y.......
    b9a4:	e9e0d6b5 a7a6a5a5 abaaa9a8 afae21ac     .............!..
    b9b4:	b3b2b1b0 b7b6b5b4 bbbab9b8 bfbebdbc     ................
    b9c4:	c3c2c1c0 c7c7c5c4 cbcac9c8 cfcecdcc     ................
    b9d4:	d3d2d1d1 d7d6d5d4 dbdad9d8 dfdedddc     ................
    b9e4:	e3e2e1e0 e7e6e5e5 ebeae9e7 efeeeded     ................
    b9f4:	f3f2f1f0 f7f6f5f4 fbfaf9f8 fffefdfc     ................

0000ba04 <f_mkfs::cst>:
    ba04:	40008000 10002000 40000800 10002000     ...@. .....@. ..
    ba14:	04000800 00000200 3c3a2a22 7f7c3f3e     ........"*:<>?|.
    ba24:	00000000 3d3b2c2b 00005d5b 4d90feeb     ....+,;=[].....M
    ba34:	534f4453 00302e35 4e204f4e 20454d41     SDOS5.0.NO NAME 
    ba44:	46202020 32335441 00202020 4e204f4e        FAT32   .NO N
    ba54:	20454d41 46202020 20205441 00202020     AME    FAT     .

0000ba64 <f_mkfs::vst>:
    ba64:	02000400 00800100 00200040 00080010     ........@. .....
    ba74:	00020004 00000000 00000000              ............

0000ba80 <vtable for mbed::DirHandle>:
	...
    ba88:	00000255 00000255 00000255 00005261     U...U...U...aR..
    ba98:	00005269 0000526d 000052a5 00000000     iR..mR...R......

0000baa8 <vtable for FATDirHandle>:
	...
    bab0:	00005279 000052cd 00005289 00005291     yR...R...R...R..
    bac0:	00005295 00005299 000052b9 00000000     .R...R...R......

0000bad0 <vtable for FATFileHandle>:
	...
    bad8:	000053e9 00005345 000053cd 0000533d     .S..ES...S..=S..
    bae8:	000053a5 00005391 00005341 00005361     .S...S..AS..aS..
    baf8:	00005375 00000000                       uS......

0000bb00 <Tbl>:
    bb00:	00fc00c7 00e200e9 00e000e4 00e700e5     ................
    bb10:	00eb00ea 00ef00e8 00ec00ee 00c500c4     ................
    bb20:	00e600c9 00f400c6 00f200f6 00f900fb     ................
    bb30:	00d600ff 00f800dc 00d800a3 019200d7     ................
    bb40:	00ed00e1 00fa00f3 00d100f1 00ba00aa     ................
    bb50:	00ae00bf 00bd00ac 00a100bc 00bb00ab     ................
    bb60:	25922591 25022593 00c12524 00c000c2     .%.%.%.%$%......
    bb70:	256300a9 25572551 00a22550 251000a5     ..c%Q%W%P%.....%
    bb80:	25342514 251c252c 253c2500 00c300e3     .%4%,%.%.%<%....
    bb90:	2554255a 25662569 25502560 00a4256c     Z%T%i%f%`%P%l%..
    bba0:	00d000f0 00cb00ca 20ac00c8 00ce00cd     ........... ....
    bbb0:	251800cf 2588250c 00c62584 258000cc     ...%.%.%.%.....%
    bbc0:	00df00d3 00d200d4 00d500f5 00fe00b5     ................
    bbd0:	00da00de 00d900db 00dd00fd 00b400af     ................
    bbe0:	00b100ad 00be2017 00a700b6 00b800f7     ..... ..........
    bbf0:	00a800b0 00b900b7 00b200b3 00a025a0     .............%..

0000bc00 <ff_wtoupper::tbl_upper>:
    bc00:	00420041 00440043 00460045 00480047     A.B.C.D.E.F.G.H.
    bc10:	004a0049 004c004b 004e004d 0050004f     I.J.K.L.M.N.O.P.
    bc20:	00520051 00540053 00560055 00580057     Q.R.S.T.U.V.W.X.
    bc30:	005a0059 ffe00021 ffe5ffe1 ffe3ffe2     Y.Z.!...........
    bc40:	00c100c0 00c300c2 00c500c4 00c700c6     ................
    bc50:	00c900c8 00cb00ca 00cd00cc 00cf00ce     ................
    bc60:	00d100d0 00d300d2 00d500d4 00d800d6     ................
    bc70:	00da00d9 00dc00db 00de00dd 01000178     ............x...
    bc80:	01040102 01080106 010c010a 0110010e     ................
    bc90:	01140112 01180116 011c011a 0120011e     .............. .
    bca0:	01240122 01280126 012c012a 0130012e     ".$.&.(.*.,...0.
    bcb0:	01340132 01390136 013d013b 0141013f     2.4.6.9.;.=.?.A.
    bcc0:	01450143 014a0147 014e014c 01520150     C.E.G.J.L.N.P.R.
    bcd0:	01560154 015a0158 015e015c 01620160     T.V.X.Z.\.^.`.b.
    bce0:	01660164 016a0168 016e016c 01720170     d.f.h.j.l.n.p.r.
    bcf0:	01760174 017b0179 0191017d 03920391     t.v.y.{.}.......
    bd00:	03940393 03960395 03980397 039a0399     ................
    bd10:	039c039b 039e039d 03a0039f 03a303a1     ................
    bd20:	03a503a4 03a703a6 03a903a8 041003aa     ................
    bd30:	04120411 04140413 04160415 04180417     ................
    bd40:	041a0419 041c041b 041e041d 0420041f     .............. .
    bd50:	04220421 04240423 04260425 04280427     !.".#.$.%.&.'.(.
    bd60:	042a0429 042c042b 042e042d 0401042f     ).*.+.,.-.../...
    bd70:	04030402 04050404 04070406 04090408     ................
    bd80:	040b040a 040e040c 2160040f 21622161     ..........`!a!b!
    bd90:	21642163 21662165 21682167 216a2169     c!d!e!f!g!h!i!j!
    bda0:	216c216b 216e216d ff21216f ff23ff22     k!l!m!n!o!!.".#.
    bdb0:	ff25ff24 ff27ff26 ff29ff28 ff2bff2a     $.%.&.'.(.).*.+.
    bdc0:	ff2dff2c ff2fff2e ff31ff30 ff33ff32     ,.-.../.0.1.2.3.
    bdd0:	ff35ff34 ff37ff36 ff39ff38 0000ff3a     4.5.6.7.8.9.:...

0000bde0 <ff_wtoupper::tbl_lower>:
    bde0:	00620061 00640063 00660065 00680067     a.b.c.d.e.f.g.h.
    bdf0:	006a0069 006c006b 006e006d 0070006f     i.j.k.l.m.n.o.p.
    be00:	00720071 00740073 00760075 00780077     q.r.s.t.u.v.w.x.
    be10:	007a0079 00a200a1 00a500a3 00af00ac     y.z.............
    be20:	00e100e0 00e300e2 00e500e4 00e700e6     ................
    be30:	00e900e8 00eb00ea 00ed00ec 00ef00ee     ................
    be40:	00f100f0 00f300f2 00f500f4 00f800f6     ................
    be50:	00fa00f9 00fc00fb 00fe00fd 010100ff     ................
    be60:	01050103 01090107 010d010b 0111010f     ................
    be70:	01150113 01190117 011d011b 0121011f     ..............!.
    be80:	01250123 01290127 012d012b 0131012f     #.%.'.).+.-./.1.
    be90:	01350133 013a0137 013e013c 01420140     3.5.7.:.<.>.@.B.
    bea0:	01460144 014b0148 014f014d 01530151     D.F.H.K.M.O.Q.S.
    beb0:	01570155 015b0159 015f015d 01630161     U.W.Y.[.]._.a.c.
    bec0:	01670165 016b0169 016f016d 01730171     e.g.i.k.m.o.q.s.
    bed0:	01770175 017c017a 0192017e 03b203b1     u.w.z.|.~.......
    bee0:	03b403b3 03b603b5 03b803b7 03ba03b9     ................
    bef0:	03bc03bb 03be03bd 03c003bf 03c303c1     ................
    bf00:	03c503c4 03c703c6 03c903c8 043003ca     ..............0.
    bf10:	04320431 04340433 04360435 04380437     1.2.3.4.5.6.7.8.
    bf20:	043a0439 043c043b 043e043d 0440043f     9.:.;.<.=.>.?.@.
    bf30:	04420441 04440443 04460445 04480447     A.B.C.D.E.F.G.H.
    bf40:	044a0449 044c044b 044e044d 0451044f     I.J.K.L.M.N.O.Q.
    bf50:	04530452 04550454 04570456 04590458     R.S.T.U.V.W.X.Y.
    bf60:	045b045a 045e045c 2170045f 21722171     Z.[.\.^._.p!q!r!
    bf70:	21742173 21762175 21782177 217a2179     s!t!u!v!w!x!y!z!
    bf80:	217c217b 217e217d ff41217f ff43ff42     {!|!}!~!.!A.B.C.
    bf90:	ff45ff44 ff47ff46 ff49ff48 ff4bff4a     D.E.F.G.H.I.J.K.
    bfa0:	ff4dff4c ff4fff4e ff51ff50 ff53ff52     L.M.N.O.P.Q.R.S.
    bfb0:	ff55ff54 ff57ff56 ff59ff58 0000ff5a     T.U.V.W.X.Y.Z...
    bfc0:	6f727245 6e692072 61697469 697a696c     Error initializi
    bfd0:	7420676e 6d206568 78657475 6a626f20     ng the mutex obj
    bfe0:	0a746365 00000000 6f727245 6c612072     ect.....Error al
    bff0:	61636f6c 676e6974 65687420 61747320     locating the sta
    c000:	6d206b63 726f6d65 00000a79 00000000     ck memory.......

0000c010 <vtable for rtos::Thread>:
	...
    c018:	00006a35 00006a59                       5j..Yj..

0000c020 <os_maxtaskrun>:
    c020:	0000000f                                ....

0000c024 <os_clockrate>:
    c024:	000003e8                                ....

0000c028 <os_rrobin>:
    c028:	00010005                                ....

0000c02c <os_flags>:
    c02c:	00800001                                         ..

0000c02e <idle_task_stack_size>:
    c02e:	00100080                                         ..

0000c030 <os_fifo_size>:
    c030:	00000010                                ....

0000c034 <os_trv>:
    c034:	000176ff                                .v..

0000c038 <vtable for mbed::FileSystemLike>:
	...
    c040:	00006f41 00006f55 00000255 00006f25     Ao..Uo..U...%o..
    c050:	00006f2d 00006f35 00006f39 00000000     -o..5o..9o......

0000c060 <__stdin_name>:
    c060:	6474732f 00006e69                       /stdin..

0000c068 <__stderr_name>:
    c068:	6474732f 00727265                       /stderr.

0000c070 <__stdout_name>:
    c070:	6474732f 0074756f                       /stdout.

0000c078 <vtable for mbed::FileHandle>:
	...
    c080:	00000255 00000255 00000255 00000255     U...U...U...U...
    c090:	00000255 00000255 00006fad 00006fe1     U...U....o...o..
    c0a0:	0000700d 00000000 0070253a 65637845     .p......:%p.Exce
    c0b0:	6f697470 0000006e                       ption...

0000c0b8 <PinMap_UART_RTS>:
    c0b8:	2009c016 40010000 00000001 2009c047     ... ...@....G.. 
    c0c8:	40010000 00000002 ffffffff ffffffff     ...@............
    c0d8:	00000000                                ....

0000c0dc <PinMap_UART_RX>:
    c0dc:	2009c001 4009c000 00000002 2009c003     ... ...@....... 
    c0ec:	4000c000 00000001 2009c00b 40098000     ...@....... ...@
    c0fc:	00000001 2009c010 40010000 00000001     ....... ...@....
    c10c:	2009c01a 4009c000 00000003 2009c041     ... ...@....A.. 
    c11c:	40010000 00000002 2009c049 40098000     ...@....I.. ...@
    c12c:	00000002 2009c09d 4009c000 00000003     ....... ...@....
    c13c:	ffffffff ffffffff 00000000              ............

0000c148 <PinMap_UART_TX>:
    c148:	2009c000 4009c000 00000002 2009c002     ... ...@....... 
    c158:	4000c000 00000001 2009c00a 40098000     ...@....... ...@
    c168:	00000001 2009c00f 40010000 00000001     ....... ...@....
    c178:	2009c019 4009c000 00000003 2009c040     ... ...@....@.. 
    c188:	40010000 00000002 2009c048 40098000     ...@....H.. ...@
    c198:	00000002 2009c09c 4009c000 00000003     ....... ...@....
    c1a8:	ffffffff ffffffff 00000000              ............

0000c1b4 <PinMap_UART_CTS>:
    c1b4:	2009c011 40010000 00000001 2009c042     ... ...@....B.. 
    c1c4:	40010000 00000002 ffffffff ffffffff     ...@............
    c1d4:	00000000 6c756f63 6f6e2064 69702074     ....could not pi
    c1e4:	74756f6e 00000000 6d6e6970 6d207061     nout....pinmap m
    c1f4:	6d2d7369 68637461 00000000 6d6e6970     is-match....pinm
    c204:	6e207061 6620746f 646e756f 726f6620     ap not found for
    c214:	72657020 65687069 006c6172               peripheral.

0000c220 <vtable for mbed::FileBase>:
	...
    c228:	00007f09 00007f39                       ....9...

0000c230 <__sf_fake_stdin>:
	...

0000c250 <__sf_fake_stdout>:
	...

0000c270 <__sf_fake_stderr>:
	...
    c290:	00000043                                C...

0000c294 <_global_impure_ptr>:
    c294:	10000158                                X...

0000c298 <_DAYS_BEFORE_MONTH>:
    c298:	00000000 0000001f 0000003b 0000005a     ........;...Z...
    c2a8:	00000078 00000097 000000b5 000000d4     x...............
    c2b8:	000000f3 00000111 00000130 0000014e     ........0...N...

0000c2c8 <DAYS_IN_MONTH>:
    c2c8:	0000001f 0000001c 0000001f 0000001e     ................
    c2d8:	0000001f 0000001e 0000001f 0000001f     ................
    c2e8:	0000001e 0000001f 0000001e 0000001f     ................

0000c2f8 <mon_lengths>:
    c2f8:	0000001f 0000001c 0000001f 0000001e     ................
    c308:	0000001f 0000001e 0000001f 0000001f     ................
    c318:	0000001e 0000001f 0000001e 0000001f     ................
    c328:	0000001f 0000001d 0000001f 0000001e     ................
    c338:	0000001f 0000001e 0000001f 0000001f     ................
    c348:	0000001e 0000001f 0000001e 0000001f     ................

0000c358 <year_lengths>:
    c358:	0000016d 0000016e 5300203a 65636375     m...n...: .Succe
    c368:	4e007373 6f20746f 72656e77 206f4e00     ss.Not owner.No 
    c378:	68637573 6c696620 726f2065 72696420     such file or dir
    c388:	6f746365 4e007972 7573206f 70206863     ectory.No such p
    c398:	65636f72 49007373 7265746e 74707572     rocess.Interrupt
    c3a8:	73206465 65747379 6163206d 49006c6c     ed system call.I
    c3b8:	65204f2f 726f7272 206f4e00 68637573     /O error.No such
    c3c8:	76656420 20656369 6120726f 65726464      device or addre
    c3d8:	41007373 6c206772 20747369 206f6f74     ss.Arg list too 
    c3e8:	676e6f6c 65784500 6f662063 74616d72     long.Exec format
    c3f8:	72726520 5300726f 656b636f 6c612074      error.Socket al
    c408:	64616572 6f632079 63656e6e 00646574     ready connected.
    c418:	20646142 656c6966 6d756e20 00726562     Bad file number.
    c428:	63206f4e 646c6968 006e6572 74736544     No children.Dest
    c438:	74616e69 206e6f69 72646461 20737365     ination address 
    c448:	75716572 64657269 206f4e00 65726f6d     required.No more
    c458:	6f727020 73736563 4e007365 6520746f      processes.Not e
    c468:	67756f6e 70732068 00656361 6d726550     nough space.Perm
    c478:	69737369 64206e6f 65696e65 61420064     ission denied.Ba
    c488:	64612064 73657264 65440073 65636976     d address.Device
    c498:	20726f20 6f736572 65637275 73756220      or resource bus
    c4a8:	69460079 6520656c 74736978 72430073     y.File exists.Cr
    c4b8:	2d73736f 69766564 6c206563 006b6e69     oss-device link.
    c4c8:	73206f4e 20686375 69766564 4e006563     No such device.N
    c4d8:	6120746f 72696420 6f746365 48007972     ot a directory.H
    c4e8:	2074736f 64207369 006e776f 6e6e6f43     ost is down.Conn
    c4f8:	69746365 61206e6f 6165726c 69207964     ection already i
    c508:	7270206e 6572676f 49007373 20612073     n progress.Is a 
    c518:	65726964 726f7463 6e490079 696c6176     directory.Invali
    c528:	72612064 656d7567 4e00746e 6f777465     d argument.Netwo
    c538:	69206b72 7265746e 65636166 20736920     rk interface is 
    c548:	20746f6e 666e6f63 72756769 54006465     not configured.T
    c558:	6d206f6f 20796e61 6e65706f 6c696620     oo many open fil
    c568:	69207365 7973206e 6d657473 6f6f5400     es in system.Too
    c578:	6e616d20 706f2079 66206e65 73656c69      many open files
    c588:	746f4e00 63206120 61726168 72657463     .Not a character
    c598:	76656420 00656369 74786554 6c696620      device.Text fil
    c5a8:	75622065 46007973 20656c69 206f6f74     e busy.File too 
    c5b8:	6772616c 6f480065 69207473 6e752073     large.Host is un
    c5c8:	63616572 6c626168 6f4e0065 61707320     reachable.No spa
    c5d8:	6c206563 20746665 64206e6f 63697665     ce left on devic
    c5e8:	6f4e0065 75732074 726f7070 00646574     e.Not supported.
    c5f8:	656c6c49 206c6167 6b656573 61655200     Illegal seek.Rea
    c608:	6e6f2d64 6620796c 20656c69 74737973     d-only file syst
    c618:	54006d65 6d206f6f 20796e61 6b6e696c     em.Too many link
    c628:	72420073 6e656b6f 70697020 614d0065     s.Broken pipe.Ma
    c638:	61206874 6d756772 00746e65 75736552     th argument.Resu
    c648:	7420746c 6c206f6f 65677261 206f4e00     lt too large.No 
    c658:	7373656d 20656761 6420666f 72697365     message of desir
    c668:	74206465 00657079 6e656449 69666974     ed type.Identifi
    c678:	72207265 766f6d65 44006465 6c646165     er removed.Deadl
    c688:	006b636f 7774654e 206b726f 75207369     ock.Network is u
    c698:	6165726e 62616863 4e00656c 6f6c206f     nreachable.No lo
    c6a8:	4e006b63 6120746f 72747320 006d6165     ck.Not a stream.
    c6b8:	65727453 69206d61 6c74636f 6d697420     Stream ioctl tim
    c6c8:	74756f65 206f4e00 65727473 72206d61     eout.No stream r
    c6d8:	756f7365 73656372 72695600 6c617574     esources.Virtual
    c6e8:	72696320 74697563 20736920 656e6f67      circuit is gone
    c6f8:	6f725000 6f636f74 7265206c 00726f72     .Protocol error.
    c708:	6e6b6e55 206e776f 746f7270 6c6f636f     Unknown protocol
    c718:	6c754d00 6f686974 74612070 706d6574     .Multihop attemp
    c728:	00646574 20646142 7373656d 00656761     ted.Bad message.
    c738:	636e7546 6e6f6974 746f6e20 706d6920     Function not imp
    c748:	656d656c 6465746e 72694400 6f746365     lemented.Directo
    c758:	6e207972 6520746f 7974706d 6c694600     ry not empty.Fil
    c768:	726f2065 74617020 616e2068 7420656d     e or path name t
    c778:	6c206f6f 00676e6f 206f6f54 796e616d     oo long.Too many
    c788:	6d797320 696c6f62 696c2063 00736b6e      symbolic links.
    c798:	62206f4e 65666675 70732072 20656361     No buffer space 
    c7a8:	69617661 6c62616c 64410065 73657264     available.Addres
    c7b8:	61662073 796c696d 746f6e20 70757320     s family not sup
    c7c8:	74726f70 62206465 72702079 636f746f     ported by protoc
    c7d8:	66206c6f 6c696d61 72500079 636f746f     ol family.Protoc
    c7e8:	77206c6f 676e6f72 70797420 6f662065     ol wrong type fo
    c7f8:	6f732072 74656b63 636f5300 2074656b     r socket.Socket 
    c808:	7265706f 6f697461 6e6f206e 6e6f6e20     operation on non
    c818:	636f732d 0074656b 746f7250 6c6f636f     -socket.Protocol
    c828:	746f6e20 61766120 62616c69 4300656c      not available.C
    c838:	656e6e6f 6f697463 6572206e 65737566     onnection refuse
    c848:	64410064 73657264 6c612073 64616572     d.Address alread
    c858:	6e692079 65737520 666f5300 72617774     y in use.Softwar
    c868:	61632065 64657375 6e6f6320 7463656e     e caused connect
    c878:	206e6f69 726f6261 6f530074 74656b63     ion abort.Socket
    c888:	20736920 20746f6e 6e6e6f63 65746365      is not connecte
    c898:	6f530064 74656b63 20736920 65726c61     d.Socket is alre
    c8a8:	20796461 6e6e6f63 65746365 704f0064     ady connected.Op
    c8b8:	74617265 206e6f69 636e6163 64656c65     eration canceled
    c8c8:	61745300 6e206574 7220746f 766f6365     .State not recov
    c8d8:	62617265 5000656c 69766572 2073756f     erable.Previous 
    c8e8:	656e776f 69642072 4f006465 61726570     owner died.Opera
    c8f8:	6e6f6974 746f6e20 70757320 74726f70     tion not support
    c908:	6f206465 6f73206e 74656b63 73654d00     ed on socket.Mes
    c918:	65676173 6f6f7420 6e6f6c20 6f430067     sage too long.Co
    c928:	63656e6e 6e6f6974 6d697420 6f206465     nnection timed o
    c938:	23007475 202b302d 4c6c6800 67666500     ut.#-0+ .hlL.efg
    c948:	00474645 33323130 37363534 42413938     EFG.0123456789AB
    c958:	46454443 32313000 36353433 61393837     CDEF.0123456789a
    c968:	65646362 00000066 0000c98e 0000c991     bcdef...........
    c978:	0000c994 61462d41 3938662d 33323130     ....A-Fa-f890123
    c988:	37363534 2d2b005d 00303000 00005878              4567].+-.00.xX.

0000c997 <_ctype_>:
    c997:	20202000 20202020 28282020 20282828     .         ((((( 
    c9a7:	20202020 20202020 20202020 20202020                     
    c9b7:	10108820 10101010 10101010 10101010      ...............
    c9c7:	04040410 04040404 10040404 10101010     ................
    c9d7:	41411010 41414141 01010101 01010101     ..AAAAAA........
    c9e7:	01010101 01010101 01010101 10101010     ................
    c9f7:	42421010 42424242 02020202 02020202     ..BBBBBB........
    ca07:	02020202 02020202 02020202 10101010     ................
    ca17:	00000020 00000000 00000000 00000000      ...............
	...

0000ca98 <__EH_FRAME_BEGIN__>:
    ca98:	00000000                                ....
