
LPC11U24/USBMouse.elf:     file format elf32-littlearm
architecture: arm, flags 0x00000112:
EXEC_P, HAS_SYMS, D_PAGED
start address 0x000000c1


Disassembly of section .text:

00000000 <__isr_vector>:
       0:	10002000 	.word	0x10002000
       4:	000000c1 	.word	0x000000c1
       8:	0000194d 	.word	0x0000194d
       c:	0000194f 	.word	0x0000194f
	...
      2c:	00001951 	.word	0x00001951
	...
      38:	00001953 	.word	0x00001953
      3c:	00001955 	.word	0x00001955
      40:	00001957 	.word	0x00001957
      44:	00001957 	.word	0x00001957
      48:	00001957 	.word	0x00001957
      4c:	00001957 	.word	0x00001957
      50:	00001957 	.word	0x00001957
      54:	00001957 	.word	0x00001957
      58:	00001957 	.word	0x00001957
      5c:	00001957 	.word	0x00001957
      60:	00001957 	.word	0x00001957
      64:	00001957 	.word	0x00001957
      68:	00001957 	.word	0x00001957
      6c:	00001957 	.word	0x00001957
      70:	00001957 	.word	0x00001957
      74:	00001957 	.word	0x00001957
      78:	00001957 	.word	0x00001957
      7c:	00001957 	.word	0x00001957
      80:	00001957 	.word	0x00001957
      84:	00001957 	.word	0x00001957
      88:	00001957 	.word	0x00001957
      8c:	00001957 	.word	0x00001957
      90:	00001957 	.word	0x00001957
      94:	00001957 	.word	0x00001957
      98:	00001957 	.word	0x00001957
      9c:	00001957 	.word	0x00001957
      a0:	00001957 	.word	0x00001957
      a4:	00001957 	.word	0x00001957
      a8:	00001957 	.word	0x00001957
      ac:	00001957 	.word	0x00001957
      b0:	00001957 	.word	0x00001957
      b4:	00001957 	.word	0x00001957
      b8:	00001957 	.word	0x00001957
      bc:	00001957 	.word	0x00001957

000000c0 <Reset_Handler>:
      c0:	4907      	ldr	r1, [pc, #28]	; (e0 <Reset_Handler+0x20>)
      c2:	4a08      	ldr	r2, [pc, #32]	; (e4 <Reset_Handler+0x24>)
      c4:	4b08      	ldr	r3, [pc, #32]	; (e8 <Reset_Handler+0x28>)
      c6:	1a9b      	subs	r3, r3, r2
      c8:	dd05      	ble.n	d6 <Reset_Handler+0x16>
      ca:	2400      	movs	r4, #0
      cc:	5908      	ldr	r0, [r1, r4]
      ce:	5110      	str	r0, [r2, r4]
      d0:	3404      	adds	r4, #4
      d2:	429c      	cmp	r4, r3
      d4:	dbfa      	blt.n	cc <Reset_Handler+0xc>
      d6:	4805      	ldr	r0, [pc, #20]	; (ec <Reset_Handler+0x2c>)
      d8:	4780      	blx	r0
      da:	4805      	ldr	r0, [pc, #20]	; (f0 <Reset_Handler+0x30>)
      dc:	4700      	bx	r0
      de:	0000      	.short	0x0000
      e0:	0000686c 	.word	0x0000686c
      e4:	100000c0 	.word	0x100000c0
      e8:	100002bc 	.word	0x100002bc
      ec:	000000f5 	.word	0x000000f5
      f0:	0000037d 	.word	0x0000037d

000000f4 <SystemInit>:
      f4:	b510      	push	{r4, lr}
      f6:	4b34      	ldr	r3, [pc, #208]	; (1c8 <SystemInit+0xd4>)
      f8:	228e      	movs	r2, #142	; 0x8e
      fa:	0092      	lsls	r2, r2, #2
      fc:	5899      	ldr	r1, [r3, r2]
      fe:	2020      	movs	r0, #32
     100:	4381      	bics	r1, r0
     102:	5099      	str	r1, [r3, r2]
     104:	b082      	sub	sp, #8
     106:	2200      	movs	r2, #0
     108:	621a      	str	r2, [r3, #32]
     10a:	9201      	str	r2, [sp, #4]
     10c:	9b01      	ldr	r3, [sp, #4]
     10e:	2bc7      	cmp	r3, #199	; 0xc7
     110:	d806      	bhi.n	120 <SystemInit+0x2c>
     112:	46c0      	nop			; (mov r8, r8)
     114:	9b01      	ldr	r3, [sp, #4]
     116:	3301      	adds	r3, #1
     118:	9301      	str	r3, [sp, #4]
     11a:	9b01      	ldr	r3, [sp, #4]
     11c:	2bc7      	cmp	r3, #199	; 0xc7
     11e:	d9f8      	bls.n	112 <SystemInit+0x1e>
     120:	4829      	ldr	r0, [pc, #164]	; (1c8 <SystemInit+0xd4>)
     122:	2301      	movs	r3, #1
     124:	2200      	movs	r2, #0
     126:	6403      	str	r3, [r0, #64]	; 0x40
     128:	2101      	movs	r1, #1
     12a:	6443      	str	r3, [r0, #68]	; 0x44
     12c:	6442      	str	r2, [r0, #68]	; 0x44
     12e:	6443      	str	r3, [r0, #68]	; 0x44
     130:	6c43      	ldr	r3, [r0, #68]	; 0x44
     132:	4a25      	ldr	r2, [pc, #148]	; (1c8 <SystemInit+0xd4>)
     134:	4219      	tst	r1, r3
     136:	d0fb      	beq.n	130 <SystemInit+0x3c>
     138:	2323      	movs	r3, #35	; 0x23
     13a:	6093      	str	r3, [r2, #8]
     13c:	238e      	movs	r3, #142	; 0x8e
     13e:	009b      	lsls	r3, r3, #2
     140:	58d1      	ldr	r1, [r2, r3]
     142:	2080      	movs	r0, #128	; 0x80
     144:	4381      	bics	r1, r0
     146:	50d1      	str	r1, [r2, r3]
     148:	1c14      	adds	r4, r2, #0
     14a:	2001      	movs	r0, #1
     14c:	68e3      	ldr	r3, [r4, #12]
     14e:	4a1e      	ldr	r2, [pc, #120]	; (1c8 <SystemInit+0xd4>)
     150:	2101      	movs	r1, #1
     152:	4218      	tst	r0, r3
     154:	d0fa      	beq.n	14c <SystemInit+0x58>
     156:	2303      	movs	r3, #3
     158:	6713      	str	r3, [r2, #112]	; 0x70
     15a:	2300      	movs	r3, #0
     15c:	6751      	str	r1, [r2, #116]	; 0x74
     15e:	1c14      	adds	r4, r2, #0
     160:	6753      	str	r3, [r2, #116]	; 0x74
     162:	2001      	movs	r0, #1
     164:	6751      	str	r1, [r2, #116]	; 0x74
     166:	6f63      	ldr	r3, [r4, #116]	; 0x74
     168:	4a17      	ldr	r2, [pc, #92]	; (1c8 <SystemInit+0xd4>)
     16a:	2101      	movs	r1, #1
     16c:	4218      	tst	r0, r3
     16e:	d0fa      	beq.n	166 <SystemInit+0x72>
     170:	238e      	movs	r3, #142	; 0x8e
     172:	6791      	str	r1, [r2, #120]	; 0x78
     174:	009b      	lsls	r3, r3, #2
     176:	58d4      	ldr	r4, [r2, r3]
     178:	4814      	ldr	r0, [pc, #80]	; (1cc <SystemInit+0xd8>)
     17a:	4020      	ands	r0, r4
     17c:	50d0      	str	r0, [r2, r3]
     17e:	58d4      	ldr	r4, [r2, r3]
     180:	4813      	ldr	r0, [pc, #76]	; (1d0 <SystemInit+0xdc>)
     182:	4020      	ands	r0, r4
     184:	50d0      	str	r0, [r2, r3]
     186:	2300      	movs	r3, #0
     188:	6491      	str	r1, [r2, #72]	; 0x48
     18a:	2001      	movs	r0, #1
     18c:	64d1      	str	r1, [r2, #76]	; 0x4c
     18e:	64d3      	str	r3, [r2, #76]	; 0x4c
     190:	64d1      	str	r1, [r2, #76]	; 0x4c
     192:	6cd3      	ldr	r3, [r2, #76]	; 0x4c
     194:	490c      	ldr	r1, [pc, #48]	; (1c8 <SystemInit+0xd4>)
     196:	4218      	tst	r0, r3
     198:	d0fb      	beq.n	192 <SystemInit+0x9e>
     19a:	2323      	movs	r3, #35	; 0x23
     19c:	610b      	str	r3, [r1, #16]
     19e:	2001      	movs	r0, #1
     1a0:	694b      	ldr	r3, [r1, #20]
     1a2:	4a09      	ldr	r2, [pc, #36]	; (1c8 <SystemInit+0xd4>)
     1a4:	4218      	tst	r0, r3
     1a6:	d0fb      	beq.n	1a0 <SystemInit+0xac>
     1a8:	23c0      	movs	r3, #192	; 0xc0
     1aa:	2100      	movs	r1, #0
     1ac:	50d1      	str	r1, [r2, r3]
     1ae:	50d1      	str	r1, [r2, r3]
     1b0:	23c8      	movs	r3, #200	; 0xc8
     1b2:	2101      	movs	r1, #1
     1b4:	50d1      	str	r1, [r2, r3]
     1b6:	2380      	movs	r3, #128	; 0x80
     1b8:	58d0      	ldr	r0, [r2, r3]
     1ba:	2180      	movs	r1, #128	; 0x80
     1bc:	0249      	lsls	r1, r1, #9
     1be:	4301      	orrs	r1, r0
     1c0:	50d1      	str	r1, [r2, r3]
     1c2:	b002      	add	sp, #8
     1c4:	bd10      	pop	{r4, pc}
     1c6:	46c0      	nop			; (mov r8, r8)
     1c8:	40048000 	.word	0x40048000
     1cc:	fffffbff 	.word	0xfffffbff
     1d0:	fffffeff 	.word	0xfffffeff
	...

00000200 <__do_global_dtors_aux>:
     200:	b510      	push	{r4, lr}
     202:	4c06      	ldr	r4, [pc, #24]	; (21c <__do_global_dtors_aux+0x1c>)
     204:	7823      	ldrb	r3, [r4, #0]
     206:	2b00      	cmp	r3, #0
     208:	d107      	bne.n	21a <__do_global_dtors_aux+0x1a>
     20a:	4b05      	ldr	r3, [pc, #20]	; (220 <__do_global_dtors_aux+0x20>)
     20c:	2b00      	cmp	r3, #0
     20e:	d002      	beq.n	216 <__do_global_dtors_aux+0x16>
     210:	4804      	ldr	r0, [pc, #16]	; (224 <__do_global_dtors_aux+0x24>)
     212:	e000      	b.n	216 <__do_global_dtors_aux+0x16>
     214:	bf00      	nop
     216:	2301      	movs	r3, #1
     218:	7023      	strb	r3, [r4, #0]
     21a:	bd10      	pop	{r4, pc}
     21c:	100002bc 	.word	0x100002bc
     220:	00000000 	.word	0x00000000
     224:	00006868 	.word	0x00006868

00000228 <frame_dummy>:
     228:	b508      	push	{r3, lr}
     22a:	4b08      	ldr	r3, [pc, #32]	; (24c <frame_dummy+0x24>)
     22c:	2b00      	cmp	r3, #0
     22e:	d003      	beq.n	238 <frame_dummy+0x10>
     230:	4807      	ldr	r0, [pc, #28]	; (250 <frame_dummy+0x28>)
     232:	4908      	ldr	r1, [pc, #32]	; (254 <frame_dummy+0x2c>)
     234:	e000      	b.n	238 <frame_dummy+0x10>
     236:	bf00      	nop
     238:	4807      	ldr	r0, [pc, #28]	; (258 <frame_dummy+0x30>)
     23a:	6803      	ldr	r3, [r0, #0]
     23c:	2b00      	cmp	r3, #0
     23e:	d003      	beq.n	248 <frame_dummy+0x20>
     240:	4b06      	ldr	r3, [pc, #24]	; (25c <frame_dummy+0x34>)
     242:	2b00      	cmp	r3, #0
     244:	d000      	beq.n	248 <frame_dummy+0x20>
     246:	4798      	blx	r3
     248:	bd08      	pop	{r3, pc}
     24a:	46c0      	nop			; (mov r8, r8)
     24c:	00000000 	.word	0x00000000
     250:	00006868 	.word	0x00006868
     254:	100002c0 	.word	0x100002c0
     258:	100002bc 	.word	0x100002bc
     25c:	00000000 	.word	0x00000000

00000260 <USBMouse::~USBMouse()>:
     260:	b510      	push	{r4, lr}
     262:	4b03      	ldr	r3, [pc, #12]	; (270 <USBMouse::~USBMouse()+0x10>)
     264:	1c04      	adds	r4, r0, #0
     266:	6003      	str	r3, [r0, #0]
     268:	f000 fcbe 	bl	be8 <USBHAL::~USBHAL()>
     26c:	1c20      	adds	r0, r4, #0
     26e:	bd10      	pop	{r4, pc}
     270:	000062b8 	.word	0x000062b8
     274:	00000000 	.word	0x00000000

00000278 <main>:
     278:	b5f8      	push	{r3, r4, r5, r6, r7, lr}
     27a:	4d20      	ldr	r5, [pc, #128]	; (2fc <main+0x84>)
     27c:	4c1e      	ldr	r4, [pc, #120]	; (2f8 <main+0x80>)
     27e:	2300      	movs	r3, #0
     280:	4646      	mov	r6, r8
     282:	4698      	mov	r8, r3
     284:	4b26      	ldr	r3, [pc, #152]	; (320 <main+0xa8>)
     286:	464f      	mov	r7, r9
     288:	4699      	mov	r9, r3
     28a:	b4c0      	push	{r6, r7}
     28c:	4e1c      	ldr	r6, [pc, #112]	; (300 <main+0x88>)
     28e:	4f1d      	ldr	r7, [pc, #116]	; (304 <main+0x8c>)
     290:	4a1d      	ldr	r2, [pc, #116]	; (308 <main+0x90>)
     292:	4b1e      	ldr	r3, [pc, #120]	; (30c <main+0x94>)
     294:	1c30      	adds	r0, r6, #0
     296:	1c39      	adds	r1, r7, #0
     298:	f002 fb12 	bl	28c0 <__aeabi_dmul>
     29c:	f002 fda0 	bl	2de0 <__aeabi_d2iz>
     2a0:	4a19      	ldr	r2, [pc, #100]	; (308 <main+0x90>)
     2a2:	4b1a      	ldr	r3, [pc, #104]	; (30c <main+0x94>)
     2a4:	b206      	sxth	r6, r0
     2a6:	1c29      	adds	r1, r5, #0
     2a8:	1c20      	adds	r0, r4, #0
     2aa:	f002 fb09 	bl	28c0 <__aeabi_dmul>
     2ae:	f002 fd97 	bl	2de0 <__aeabi_d2iz>
     2b2:	1c31      	adds	r1, r6, #0
     2b4:	b202      	sxth	r2, r0
     2b6:	4648      	mov	r0, r9
     2b8:	f001 fa12 	bl	16e0 <USBMouse::move(short, short)>
     2bc:	2303      	movs	r3, #3
     2be:	4498      	add	r8, r3
     2c0:	4818      	ldr	r0, [pc, #96]	; (324 <main+0xac>)
     2c2:	f001 fa73 	bl	17ac <wait>
     2c6:	4640      	mov	r0, r8
     2c8:	f002 fdbe 	bl	2e48 <__aeabi_i2d>
     2cc:	4a10      	ldr	r2, [pc, #64]	; (310 <main+0x98>)
     2ce:	4b11      	ldr	r3, [pc, #68]	; (314 <main+0x9c>)
     2d0:	f002 faf6 	bl	28c0 <__aeabi_dmul>
     2d4:	4a10      	ldr	r2, [pc, #64]	; (318 <main+0xa0>)
     2d6:	4b11      	ldr	r3, [pc, #68]	; (31c <main+0xa4>)
     2d8:	f001 ffce 	bl	2278 <__aeabi_ddiv>
     2dc:	1c04      	adds	r4, r0, #0
     2de:	1c0d      	adds	r5, r1, #0
     2e0:	f003 fd6e 	bl	3dc0 <cos>
     2e4:	1c06      	adds	r6, r0, #0
     2e6:	1c0f      	adds	r7, r1, #0
     2e8:	1c20      	adds	r0, r4, #0
     2ea:	1c29      	adds	r1, r5, #0
     2ec:	f003 fdbc 	bl	3e68 <sin>
     2f0:	1c04      	adds	r4, r0, #0
     2f2:	1c0d      	adds	r5, r1, #0
     2f4:	e7cc      	b.n	290 <main+0x18>
     2f6:	46c0      	nop			; (mov r8, r8)
	...
     304:	3ff00000 	.word	0x3ff00000
     308:	00000000 	.word	0x00000000
     30c:	40240000 	.word	0x40240000
     310:	51eb851f 	.word	0x51eb851f
     314:	40091eb8 	.word	0x40091eb8
     318:	00000000 	.word	0x00000000
     31c:	40668000 	.word	0x40668000
     320:	100002d8 	.word	0x100002d8
     324:	3a83126f 	.word	0x3a83126f

00000328 <_GLOBAL__sub_I_mouse>:
     328:	b570      	push	{r4, r5, r6, lr}
     32a:	4c0f      	ldr	r4, [pc, #60]	; (368 <_GLOBAL__sub_I_mouse+0x40>)
     32c:	b084      	sub	sp, #16
     32e:	2501      	movs	r5, #1
     330:	2600      	movs	r6, #0
     332:	2200      	movs	r2, #0
     334:	9500      	str	r5, [sp, #0]
     336:	9501      	str	r5, [sp, #4]
     338:	9602      	str	r6, [sp, #8]
     33a:	1c20      	adds	r0, r4, #0
     33c:	2100      	movs	r1, #0
     33e:	4b0b      	ldr	r3, [pc, #44]	; (36c <_GLOBAL__sub_I_mouse+0x44>)
     340:	f001 f8b4 	bl	14ac <USBHID::USBHID(unsigned char, unsigned char, unsigned short, unsigned short, unsigned short, bool)>
     344:	4b0a      	ldr	r3, [pc, #40]	; (370 <_GLOBAL__sub_I_mouse+0x48>)
     346:	1c20      	adds	r0, r4, #0
     348:	6023      	str	r3, [r4, #0]
     34a:	23b7      	movs	r3, #183	; 0xb7
     34c:	54e6      	strb	r6, [r4, r3]
     34e:	2101      	movs	r1, #1
     350:	23b6      	movs	r3, #182	; 0xb6
     352:	54e5      	strb	r5, [r4, r3]
     354:	f000 fb28 	bl	9a8 <USBDevice::connect(bool)>
     358:	1c20      	adds	r0, r4, #0
     35a:	4906      	ldr	r1, [pc, #24]	; (374 <_GLOBAL__sub_I_mouse+0x4c>)
     35c:	4a06      	ldr	r2, [pc, #24]	; (378 <_GLOBAL__sub_I_mouse+0x50>)
     35e:	f001 fdd7 	bl	1f10 <__aeabi_atexit>
     362:	b004      	add	sp, #16
     364:	bd70      	pop	{r4, r5, r6, pc}
     366:	46c0      	nop			; (mov r8, r8)
     368:	100002d8 	.word	0x100002d8
     36c:	00001234 	.word	0x00001234
     370:	00006408 	.word	0x00006408
     374:	00000261 	.word	0x00000261
     378:	100000c0 	.word	0x100000c0

0000037c <_start>:
     37c:	4807      	ldr	r0, [pc, #28]	; (39c <_start+0x20>)
     37e:	4a08      	ldr	r2, [pc, #32]	; (3a0 <_start+0x24>)
     380:	b508      	push	{r3, lr}
     382:	1a12      	subs	r2, r2, r0
     384:	2100      	movs	r1, #0
     386:	f002 ffb0 	bl	32ea <memset>
     38a:	e000      	b.n	38e <_start+0x12>
     38c:	bf00      	nop
     38e:	f002 ff7d 	bl	328c <__libc_init_array>
     392:	f7ff ff71 	bl	278 <main>
     396:	f001 f9cd 	bl	1734 <exit>
     39a:	46c0      	nop			; (mov r8, r8)
     39c:	100002bc 	.word	0x100002bc
     3a0:	10000580 	.word	0x10000580

000003a4 <__wrap__isatty>:
     3a4:	b508      	push	{r3, lr}
     3a6:	2301      	movs	r3, #1
     3a8:	2802      	cmp	r0, #2
     3aa:	dd02      	ble.n	3b2 <__wrap__isatty+0xe>
     3ac:	f001 fa82 	bl	18b4 <_isatty>
     3b0:	1c03      	adds	r3, r0, #0
     3b2:	1c18      	adds	r0, r3, #0
     3b4:	bd08      	pop	{r3, pc}
     3b6:	46c0      	nop			; (mov r8, r8)

000003b8 <abort>:
     3b8:	b508      	push	{r3, lr}
     3ba:	2001      	movs	r0, #1
     3bc:	f001 f9ba 	bl	1734 <exit>

000003c0 <USBHAL::SOF(int)>:
     3c0:	4770      	bx	lr
     3c2:	46c0      	nop			; (mov r8, r8)

000003c4 <USBHAL::EP1_OUT_callback()>:
     3c4:	2000      	movs	r0, #0
     3c6:	4770      	bx	lr

000003c8 <USBHAL::EP1_IN_callback()>:
     3c8:	2000      	movs	r0, #0
     3ca:	4770      	bx	lr

000003cc <USBHAL::EP2_OUT_callback()>:
     3cc:	2000      	movs	r0, #0
     3ce:	4770      	bx	lr

000003d0 <USBHAL::EP2_IN_callback()>:
     3d0:	2000      	movs	r0, #0
     3d2:	4770      	bx	lr

000003d4 <USBHAL::EP3_OUT_callback()>:
     3d4:	2000      	movs	r0, #0
     3d6:	4770      	bx	lr

000003d8 <USBHAL::EP3_IN_callback()>:
     3d8:	2000      	movs	r0, #0
     3da:	4770      	bx	lr

000003dc <USBHAL::EP4_OUT_callback()>:
     3dc:	2000      	movs	r0, #0
     3de:	4770      	bx	lr

000003e0 <USBHAL::EP4_IN_callback()>:
     3e0:	2000      	movs	r0, #0
     3e2:	4770      	bx	lr

000003e4 <USBDevice::USBCallback_busReset()>:
     3e4:	4770      	bx	lr
     3e6:	46c0      	nop			; (mov r8, r8)

000003e8 <USBDevice::USBCallback_request()>:
     3e8:	2000      	movs	r0, #0
     3ea:	4770      	bx	lr

000003ec <USBDevice::USBCallback_requestCompleted(unsigned char*, unsigned long)>:
     3ec:	4770      	bx	lr
     3ee:	46c0      	nop			; (mov r8, r8)

000003f0 <USBDevice::USBCallback_setConfiguration(unsigned char)>:
     3f0:	2000      	movs	r0, #0
     3f2:	4770      	bx	lr

000003f4 <USBDevice::USBCallback_setInterface(unsigned short, unsigned char)>:
     3f4:	2000      	movs	r0, #0
     3f6:	4770      	bx	lr

000003f8 <USBDevice::configurationDesc()>:
     3f8:	2000      	movs	r0, #0
     3fa:	4770      	bx	lr

000003fc <USBDevice::reportDescLength()>:
     3fc:	2000      	movs	r0, #0
     3fe:	4770      	bx	lr

00000400 <USBDevice::busReset()>:
     400:	b508      	push	{r3, lr}
     402:	2202      	movs	r2, #2
     404:	2364      	movs	r3, #100	; 0x64
     406:	54c2      	strb	r2, [r0, r3]
     408:	2300      	movs	r3, #0
     40a:	2265      	movs	r2, #101	; 0x65
     40c:	5483      	strb	r3, [r0, r2]
     40e:	2266      	movs	r2, #102	; 0x66
     410:	5483      	strb	r3, [r0, r2]
     412:	6803      	ldr	r3, [r0, #0]
     414:	6bdb      	ldr	r3, [r3, #60]	; 0x3c
     416:	4798      	blx	r3
     418:	bd08      	pop	{r3, pc}
     41a:	46c0      	nop			; (mov r8, r8)

0000041c <USBDevice::connectStateChanged(unsigned int)>:
     41c:	4770      	bx	lr
     41e:	46c0      	nop			; (mov r8, r8)

00000420 <USBDevice::suspendStateChanged(unsigned int)>:
     420:	4770      	bx	lr
     422:	46c0      	nop			; (mov r8, r8)

00000424 <USBDevice::stringLangidDesc()>:
     424:	4800      	ldr	r0, [pc, #0]	; (428 <USBDevice::stringLangidDesc()+0x4>)
     426:	4770      	bx	lr
     428:	100000fc 	.word	0x100000fc

0000042c <USBDevice::stringImanufacturerDesc()>:
     42c:	4800      	ldr	r0, [pc, #0]	; (430 <USBDevice::stringImanufacturerDesc()+0x4>)
     42e:	4770      	bx	lr
     430:	100000cc 	.word	0x100000cc

00000434 <USBDevice::stringIserialDesc()>:
     434:	4800      	ldr	r0, [pc, #0]	; (438 <USBDevice::stringIserialDesc()+0x4>)
     436:	4770      	bx	lr
     438:	10000118 	.word	0x10000118

0000043c <USBDevice::stringIConfigurationDesc()>:
     43c:	4800      	ldr	r0, [pc, #0]	; (440 <USBDevice::stringIConfigurationDesc()+0x4>)
     43e:	4770      	bx	lr
     440:	100000f4 	.word	0x100000f4

00000444 <USBDevice::stringIinterfaceDesc()>:
     444:	4800      	ldr	r0, [pc, #0]	; (448 <USBDevice::stringIinterfaceDesc()+0x4>)
     446:	4770      	bx	lr
     448:	100000c4 	.word	0x100000c4

0000044c <USBDevice::stringIproductDesc()>:
     44c:	4800      	ldr	r0, [pc, #0]	; (450 <USBDevice::stringIproductDesc()+0x4>)
     44e:	4770      	bx	lr
     450:	10000100 	.word	0x10000100

00000454 <USBDevice::deviceDesc()>:
     454:	b570      	push	{r4, r5, r6, lr}
     456:	4d10      	ldr	r5, [pc, #64]	; (498 <USBDevice::deviceDesc()+0x44>)
     458:	1c06      	adds	r6, r0, #0
     45a:	682b      	ldr	r3, [r5, #0]
     45c:	07db      	lsls	r3, r3, #31
     45e:	d502      	bpl.n	466 <USBDevice::deviceDesc()+0x12>
     460:	4c0e      	ldr	r4, [pc, #56]	; (49c <USBDevice::deviceDesc()+0x48>)
     462:	1c20      	adds	r0, r4, #0
     464:	bd70      	pop	{r4, r5, r6, pc}
     466:	1c28      	adds	r0, r5, #0
     468:	f001 fd59 	bl	1f1e <__cxa_guard_acquire>
     46c:	2800      	cmp	r0, #0
     46e:	d0f7      	beq.n	460 <USBDevice::deviceDesc()+0xc>
     470:	2344      	movs	r3, #68	; 0x44
     472:	5af3      	ldrh	r3, [r6, r3]
     474:	4c09      	ldr	r4, [pc, #36]	; (49c <USBDevice::deviceDesc()+0x48>)
     476:	1c28      	adds	r0, r5, #0
     478:	7223      	strb	r3, [r4, #8]
     47a:	0a1b      	lsrs	r3, r3, #8
     47c:	7263      	strb	r3, [r4, #9]
     47e:	2346      	movs	r3, #70	; 0x46
     480:	5af3      	ldrh	r3, [r6, r3]
     482:	72a3      	strb	r3, [r4, #10]
     484:	0a1b      	lsrs	r3, r3, #8
     486:	72e3      	strb	r3, [r4, #11]
     488:	2348      	movs	r3, #72	; 0x48
     48a:	5af3      	ldrh	r3, [r6, r3]
     48c:	7323      	strb	r3, [r4, #12]
     48e:	0a1b      	lsrs	r3, r3, #8
     490:	7363      	strb	r3, [r4, #13]
     492:	f001 fd53 	bl	1f3c <__cxa_guard_release>
     496:	e7e4      	b.n	462 <USBDevice::deviceDesc()+0xe>
     498:	10000394 	.word	0x10000394
     49c:	100000e0 	.word	0x100000e0

000004a0 <USBDevice::requestGetDescriptor()>:
     4a0:	b570      	push	{r4, r5, r6, lr}
     4a2:	2350      	movs	r3, #80	; 0x50
     4a4:	5ac2      	ldrh	r2, [r0, r3]
     4a6:	1c04      	adds	r4, r0, #0
     4a8:	1213      	asrs	r3, r2, #8
     4aa:	2b02      	cmp	r3, #2
     4ac:	d02a      	beq.n	504 <USBDevice::requestGetDescriptor()+0x64>
     4ae:	2b03      	cmp	r3, #3
     4b0:	d020      	beq.n	4f4 <USBDevice::requestGetDescriptor()+0x54>
     4b2:	2b01      	cmp	r3, #1
     4b4:	d001      	beq.n	4ba <USBDevice::requestGetDescriptor()+0x1a>
     4b6:	2000      	movs	r0, #0
     4b8:	bd70      	pop	{r4, r5, r6, pc}
     4ba:	6803      	ldr	r3, [r0, #0]
     4bc:	6d1b      	ldr	r3, [r3, #80]	; 0x50
     4be:	4798      	blx	r3
     4c0:	2800      	cmp	r0, #0
     4c2:	d0f8      	beq.n	4b6 <USBDevice::requestGetDescriptor()+0x16>
     4c4:	6823      	ldr	r3, [r4, #0]
     4c6:	1c20      	adds	r0, r4, #0
     4c8:	6d1b      	ldr	r3, [r3, #80]	; 0x50
     4ca:	4798      	blx	r3
     4cc:	7805      	ldrb	r5, [r0, #0]
     4ce:	2d12      	cmp	r5, #18
     4d0:	d1f1      	bne.n	4b6 <USBDevice::requestGetDescriptor()+0x16>
     4d2:	6823      	ldr	r3, [r4, #0]
     4d4:	1c20      	adds	r0, r4, #0
     4d6:	6d1b      	ldr	r3, [r3, #80]	; 0x50
     4d8:	4798      	blx	r3
     4da:	7846      	ldrb	r6, [r0, #1]
     4dc:	2e01      	cmp	r6, #1
     4de:	d1ea      	bne.n	4b6 <USBDevice::requestGetDescriptor()+0x16>
     4e0:	6823      	ldr	r3, [r4, #0]
     4e2:	65e5      	str	r5, [r4, #92]	; 0x5c
     4e4:	6d1b      	ldr	r3, [r3, #80]	; 0x50
     4e6:	1c20      	adds	r0, r4, #0
     4e8:	4798      	blx	r3
     4ea:	2360      	movs	r3, #96	; 0x60
     4ec:	65a0      	str	r0, [r4, #88]	; 0x58
     4ee:	54e6      	strb	r6, [r4, r3]
     4f0:	2001      	movs	r0, #1
     4f2:	e7e1      	b.n	4b8 <USBDevice::requestGetDescriptor()+0x18>
     4f4:	23ff      	movs	r3, #255	; 0xff
     4f6:	401a      	ands	r2, r3
     4f8:	2a05      	cmp	r2, #5
     4fa:	d8dc      	bhi.n	4b6 <USBDevice::requestGetDescriptor()+0x16>
     4fc:	4b2e      	ldr	r3, [pc, #184]	; (5b8 <USBDevice::requestGetDescriptor()+0x118>)
     4fe:	0092      	lsls	r2, r2, #2
     500:	589b      	ldr	r3, [r3, r2]
     502:	469f      	mov	pc, r3
     504:	6803      	ldr	r3, [r0, #0]
     506:	6d5b      	ldr	r3, [r3, #84]	; 0x54
     508:	4798      	blx	r3
     50a:	2800      	cmp	r0, #0
     50c:	d0d3      	beq.n	4b6 <USBDevice::requestGetDescriptor()+0x16>
     50e:	6823      	ldr	r3, [r4, #0]
     510:	1c20      	adds	r0, r4, #0
     512:	6d5b      	ldr	r3, [r3, #84]	; 0x54
     514:	4798      	blx	r3
     516:	7803      	ldrb	r3, [r0, #0]
     518:	2b09      	cmp	r3, #9
     51a:	d1cc      	bne.n	4b6 <USBDevice::requestGetDescriptor()+0x16>
     51c:	6823      	ldr	r3, [r4, #0]
     51e:	1c20      	adds	r0, r4, #0
     520:	6d5b      	ldr	r3, [r3, #84]	; 0x54
     522:	4798      	blx	r3
     524:	7843      	ldrb	r3, [r0, #1]
     526:	2b02      	cmp	r3, #2
     528:	d1c5      	bne.n	4b6 <USBDevice::requestGetDescriptor()+0x16>
     52a:	6823      	ldr	r3, [r4, #0]
     52c:	1c20      	adds	r0, r4, #0
     52e:	6d5b      	ldr	r3, [r3, #84]	; 0x54
     530:	4798      	blx	r3
     532:	6823      	ldr	r3, [r4, #0]
     534:	7885      	ldrb	r5, [r0, #2]
     536:	6d5b      	ldr	r3, [r3, #84]	; 0x54
     538:	1c20      	adds	r0, r4, #0
     53a:	4798      	blx	r3
     53c:	78c3      	ldrb	r3, [r0, #3]
     53e:	021b      	lsls	r3, r3, #8
     540:	431d      	orrs	r5, r3
     542:	6823      	ldr	r3, [r4, #0]
     544:	65e5      	str	r5, [r4, #92]	; 0x5c
     546:	6d5b      	ldr	r3, [r3, #84]	; 0x54
     548:	e006      	b.n	558 <USBDevice::requestGetDescriptor()+0xb8>
     54a:	6803      	ldr	r3, [r0, #0]
     54c:	6e5b      	ldr	r3, [r3, #100]	; 0x64
     54e:	4798      	blx	r3
     550:	7803      	ldrb	r3, [r0, #0]
     552:	65e3      	str	r3, [r4, #92]	; 0x5c
     554:	6823      	ldr	r3, [r4, #0]
     556:	6e5b      	ldr	r3, [r3, #100]	; 0x64
     558:	1c20      	adds	r0, r4, #0
     55a:	4798      	blx	r3
     55c:	2201      	movs	r2, #1
     55e:	2360      	movs	r3, #96	; 0x60
     560:	65a0      	str	r0, [r4, #88]	; 0x58
     562:	54e2      	strb	r2, [r4, r3]
     564:	2001      	movs	r0, #1
     566:	e7a7      	b.n	4b8 <USBDevice::requestGetDescriptor()+0x18>
     568:	6803      	ldr	r3, [r0, #0]
     56a:	6d9b      	ldr	r3, [r3, #88]	; 0x58
     56c:	4798      	blx	r3
     56e:	7803      	ldrb	r3, [r0, #0]
     570:	65e3      	str	r3, [r4, #92]	; 0x5c
     572:	6823      	ldr	r3, [r4, #0]
     574:	6d9b      	ldr	r3, [r3, #88]	; 0x58
     576:	e7ef      	b.n	558 <USBDevice::requestGetDescriptor()+0xb8>
     578:	6803      	ldr	r3, [r0, #0]
     57a:	6ddb      	ldr	r3, [r3, #92]	; 0x5c
     57c:	4798      	blx	r3
     57e:	7803      	ldrb	r3, [r0, #0]
     580:	65e3      	str	r3, [r4, #92]	; 0x5c
     582:	6823      	ldr	r3, [r4, #0]
     584:	6ddb      	ldr	r3, [r3, #92]	; 0x5c
     586:	e7e7      	b.n	558 <USBDevice::requestGetDescriptor()+0xb8>
     588:	6803      	ldr	r3, [r0, #0]
     58a:	6edb      	ldr	r3, [r3, #108]	; 0x6c
     58c:	4798      	blx	r3
     58e:	7803      	ldrb	r3, [r0, #0]
     590:	65e3      	str	r3, [r4, #92]	; 0x5c
     592:	6823      	ldr	r3, [r4, #0]
     594:	6edb      	ldr	r3, [r3, #108]	; 0x6c
     596:	e7df      	b.n	558 <USBDevice::requestGetDescriptor()+0xb8>
     598:	6803      	ldr	r3, [r0, #0]
     59a:	6e9b      	ldr	r3, [r3, #104]	; 0x68
     59c:	4798      	blx	r3
     59e:	7803      	ldrb	r3, [r0, #0]
     5a0:	65e3      	str	r3, [r4, #92]	; 0x5c
     5a2:	6823      	ldr	r3, [r4, #0]
     5a4:	6e9b      	ldr	r3, [r3, #104]	; 0x68
     5a6:	e7d7      	b.n	558 <USBDevice::requestGetDescriptor()+0xb8>
     5a8:	6803      	ldr	r3, [r0, #0]
     5aa:	6e1b      	ldr	r3, [r3, #96]	; 0x60
     5ac:	4798      	blx	r3
     5ae:	7803      	ldrb	r3, [r0, #0]
     5b0:	65e3      	str	r3, [r4, #92]	; 0x5c
     5b2:	6823      	ldr	r3, [r4, #0]
     5b4:	6e1b      	ldr	r3, [r3, #96]	; 0x60
     5b6:	e7cf      	b.n	558 <USBDevice::requestGetDescriptor()+0xb8>
     5b8:	00006264 	.word	0x00006264

000005bc <USBDevice::decodeSetupPacket(unsigned char*, SETUP_PACKET*)>:
     5bc:	780b      	ldrb	r3, [r1, #0]
     5be:	201f      	movs	r0, #31
     5c0:	09db      	lsrs	r3, r3, #7
     5c2:	7013      	strb	r3, [r2, #0]
     5c4:	780b      	ldrb	r3, [r1, #0]
     5c6:	065b      	lsls	r3, r3, #25
     5c8:	0f9b      	lsrs	r3, r3, #30
     5ca:	7053      	strb	r3, [r2, #1]
     5cc:	780b      	ldrb	r3, [r1, #0]
     5ce:	4003      	ands	r3, r0
     5d0:	7093      	strb	r3, [r2, #2]
     5d2:	784b      	ldrb	r3, [r1, #1]
     5d4:	70d3      	strb	r3, [r2, #3]
     5d6:	78cb      	ldrb	r3, [r1, #3]
     5d8:	7888      	ldrb	r0, [r1, #2]
     5da:	021b      	lsls	r3, r3, #8
     5dc:	4303      	orrs	r3, r0
     5de:	8093      	strh	r3, [r2, #4]
     5e0:	794b      	ldrb	r3, [r1, #5]
     5e2:	7908      	ldrb	r0, [r1, #4]
     5e4:	021b      	lsls	r3, r3, #8
     5e6:	4303      	orrs	r3, r0
     5e8:	80d3      	strh	r3, [r2, #6]
     5ea:	79cb      	ldrb	r3, [r1, #7]
     5ec:	7989      	ldrb	r1, [r1, #6]
     5ee:	021b      	lsls	r3, r3, #8
     5f0:	430b      	orrs	r3, r1
     5f2:	8113      	strh	r3, [r2, #8]
     5f4:	4770      	bx	lr
     5f6:	46c0      	nop			; (mov r8, r8)

000005f8 <USBDevice::controlOut()>:
     5f8:	b570      	push	{r4, r5, r6, lr}
     5fa:	2360      	movs	r3, #96	; 0x60
     5fc:	5cc3      	ldrb	r3, [r0, r3]
     5fe:	b090      	sub	sp, #64	; 0x40
     600:	1c04      	adds	r4, r0, #0
     602:	2b00      	cmp	r3, #0
     604:	d002      	beq.n	60c <USBDevice::controlOut()+0x14>
     606:	2000      	movs	r0, #0
     608:	b010      	add	sp, #64	; 0x40
     60a:	bd70      	pop	{r4, r5, r6, pc}
     60c:	4669      	mov	r1, sp
     60e:	f000 fb37 	bl	c80 <USBHAL::EP0getReadResult(unsigned char*)>
     612:	6de3      	ldr	r3, [r4, #92]	; 0x5c
     614:	1e02      	subs	r2, r0, #0
     616:	429a      	cmp	r2, r3
     618:	d8f5      	bhi.n	606 <USBDevice::controlOut()+0xe>
     61a:	6da0      	ldr	r0, [r4, #88]	; 0x58
     61c:	1a9d      	subs	r5, r3, r2
     61e:	1881      	adds	r1, r0, r2
     620:	65a1      	str	r1, [r4, #88]	; 0x58
     622:	65e5      	str	r5, [r4, #92]	; 0x5c
     624:	2d00      	cmp	r5, #0
     626:	d110      	bne.n	64a <USBDevice::controlOut()+0x52>
     628:	2662      	movs	r6, #98	; 0x62
     62a:	5da3      	ldrb	r3, [r4, r6]
     62c:	2b00      	cmp	r3, #0
     62e:	d005      	beq.n	63c <USBDevice::controlOut()+0x44>
     630:	6823      	ldr	r3, [r4, #0]
     632:	1c20      	adds	r0, r4, #0
     634:	6c5b      	ldr	r3, [r3, #68]	; 0x44
     636:	4669      	mov	r1, sp
     638:	4798      	blx	r3
     63a:	55a5      	strb	r5, [r4, r6]
     63c:	1c20      	adds	r0, r4, #0
     63e:	2100      	movs	r1, #0
     640:	2200      	movs	r2, #0
     642:	f000 fb39 	bl	cb8 <USBHAL::EP0write(unsigned char*, unsigned long)>
     646:	2001      	movs	r0, #1
     648:	e7de      	b.n	608 <USBDevice::controlOut()+0x10>
     64a:	1c20      	adds	r0, r4, #0
     64c:	f000 fb02 	bl	c54 <USBHAL::EP0read()>
     650:	2001      	movs	r0, #1
     652:	e7d9      	b.n	608 <USBDevice::controlOut()+0x10>

00000654 <USBDevice::EP0out()>:
     654:	b510      	push	{r4, lr}
     656:	1c04      	adds	r4, r0, #0
     658:	f7ff ffce 	bl	5f8 <USBDevice::controlOut()>
     65c:	2800      	cmp	r0, #0
     65e:	d102      	bne.n	666 <USBDevice::EP0out()+0x12>
     660:	1c20      	adds	r0, r4, #0
     662:	f000 fb7f 	bl	d64 <USBHAL::EP0stall()>
     666:	bd10      	pop	{r4, pc}

00000668 <USBDevice::controlIn()>:
     668:	b570      	push	{r4, r5, r6, lr}
     66a:	6dc5      	ldr	r5, [r0, #92]	; 0x5c
     66c:	1c04      	adds	r4, r0, #0
     66e:	2d00      	cmp	r5, #0
     670:	d10f      	bne.n	692 <USBDevice::controlIn()+0x2a>
     672:	2661      	movs	r6, #97	; 0x61
     674:	5d83      	ldrb	r3, [r0, r6]
     676:	2b00      	cmp	r3, #0
     678:	d129      	bne.n	6ce <USBDevice::controlIn()+0x66>
     67a:	2562      	movs	r5, #98	; 0x62
     67c:	5d63      	ldrb	r3, [r4, r5]
     67e:	2b00      	cmp	r3, #0
     680:	d11c      	bne.n	6bc <USBDevice::controlIn()+0x54>
     682:	1c20      	adds	r0, r4, #0
     684:	f000 fae6 	bl	c54 <USBHAL::EP0read()>
     688:	1c20      	adds	r0, r4, #0
     68a:	f000 fb13 	bl	cb4 <USBHAL::EP0readStage()>
     68e:	2001      	movs	r0, #1
     690:	bd70      	pop	{r4, r5, r6, pc}
     692:	2360      	movs	r3, #96	; 0x60
     694:	5cc3      	ldrb	r3, [r0, r3]
     696:	2000      	movs	r0, #0
     698:	2b01      	cmp	r3, #1
     69a:	d1f9      	bne.n	690 <USBDevice::controlIn()+0x28>
     69c:	2d40      	cmp	r5, #64	; 0x40
     69e:	d900      	bls.n	6a2 <USBDevice::controlIn()+0x3a>
     6a0:	2540      	movs	r5, #64	; 0x40
     6a2:	1c2a      	adds	r2, r5, #0
     6a4:	1c20      	adds	r0, r4, #0
     6a6:	6da1      	ldr	r1, [r4, #88]	; 0x58
     6a8:	f000 fb06 	bl	cb8 <USBHAL::EP0write(unsigned char*, unsigned long)>
     6ac:	6da2      	ldr	r2, [r4, #88]	; 0x58
     6ae:	2001      	movs	r0, #1
     6b0:	1953      	adds	r3, r2, r5
     6b2:	65a3      	str	r3, [r4, #88]	; 0x58
     6b4:	6de3      	ldr	r3, [r4, #92]	; 0x5c
     6b6:	1b5d      	subs	r5, r3, r5
     6b8:	65e5      	str	r5, [r4, #92]	; 0x5c
     6ba:	e7e9      	b.n	690 <USBDevice::controlIn()+0x28>
     6bc:	6823      	ldr	r3, [r4, #0]
     6be:	1c20      	adds	r0, r4, #0
     6c0:	6c5b      	ldr	r3, [r3, #68]	; 0x44
     6c2:	2100      	movs	r1, #0
     6c4:	2200      	movs	r2, #0
     6c6:	4798      	blx	r3
     6c8:	2300      	movs	r3, #0
     6ca:	5563      	strb	r3, [r4, r5]
     6cc:	e7d9      	b.n	682 <USBDevice::controlIn()+0x1a>
     6ce:	2100      	movs	r1, #0
     6d0:	2200      	movs	r2, #0
     6d2:	f000 faf1 	bl	cb8 <USBHAL::EP0write(unsigned char*, unsigned long)>
     6d6:	55a5      	strb	r5, [r4, r6]
     6d8:	2562      	movs	r5, #98	; 0x62
     6da:	5d63      	ldrb	r3, [r4, r5]
     6dc:	2b00      	cmp	r3, #0
     6de:	d0d0      	beq.n	682 <USBDevice::controlIn()+0x1a>
     6e0:	e7ec      	b.n	6bc <USBDevice::controlIn()+0x54>
     6e2:	46c0      	nop			; (mov r8, r8)

000006e4 <USBDevice::EP0in()>:
     6e4:	b510      	push	{r4, lr}
     6e6:	1c04      	adds	r4, r0, #0
     6e8:	f7ff ffbe 	bl	668 <USBDevice::controlIn()>
     6ec:	2800      	cmp	r0, #0
     6ee:	d102      	bne.n	6f6 <USBDevice::EP0in()+0x12>
     6f0:	1c20      	adds	r0, r4, #0
     6f2:	f000 fb37 	bl	d64 <USBHAL::EP0stall()>
     6f6:	bd10      	pop	{r4, pc}

000006f8 <USBDevice::requestSetConfiguration()>:
     6f8:	b510      	push	{r4, lr}
     6fa:	2350      	movs	r3, #80	; 0x50
     6fc:	5cc1      	ldrb	r1, [r0, r3]
     6fe:	2365      	movs	r3, #101	; 0x65
     700:	1c04      	adds	r4, r0, #0
     702:	54c1      	strb	r1, [r0, r3]
     704:	2900      	cmp	r1, #0
     706:	d00f      	beq.n	728 <USBDevice::requestSetConfiguration()+0x30>
     708:	6803      	ldr	r3, [r0, #0]
     70a:	6c9b      	ldr	r3, [r3, #72]	; 0x48
     70c:	4798      	blx	r3
     70e:	1c03      	adds	r3, r0, #0
     710:	2000      	movs	r0, #0
     712:	2b00      	cmp	r3, #0
     714:	d100      	bne.n	718 <USBDevice::requestSetConfiguration()+0x20>
     716:	bd10      	pop	{r4, pc}
     718:	1c20      	adds	r0, r4, #0
     71a:	f000 fa8b 	bl	c34 <USBHAL::configureDevice()>
     71e:	2204      	movs	r2, #4
     720:	2364      	movs	r3, #100	; 0x64
     722:	54e2      	strb	r2, [r4, r3]
     724:	2001      	movs	r0, #1
     726:	e7f6      	b.n	716 <USBDevice::requestSetConfiguration()+0x1e>
     728:	f000 fa86 	bl	c38 <USBHAL::unconfigureDevice()>
     72c:	2203      	movs	r2, #3
     72e:	2364      	movs	r3, #100	; 0x64
     730:	54e2      	strb	r2, [r4, r3]
     732:	2001      	movs	r0, #1
     734:	e7ef      	b.n	716 <USBDevice::requestSetConfiguration()+0x1e>
     736:	46c0      	nop			; (mov r8, r8)

00000738 <USBDevice::requestSetFeature()>:
     738:	b508      	push	{r3, lr}
     73a:	2364      	movs	r3, #100	; 0x64
     73c:	5cc3      	ldrb	r3, [r0, r3]
     73e:	2b04      	cmp	r3, #4
     740:	d004      	beq.n	74c <USBDevice::requestSetFeature()+0x14>
     742:	2352      	movs	r3, #82	; 0x52
     744:	5ac2      	ldrh	r2, [r0, r3]
     746:	2300      	movs	r3, #0
     748:	2a00      	cmp	r2, #0
     74a:	d113      	bne.n	774 <USBDevice::requestSetFeature()+0x3c>
     74c:	234e      	movs	r3, #78	; 0x4e
     74e:	5cc3      	ldrb	r3, [r0, r3]
     750:	2b02      	cmp	r3, #2
     752:	d111      	bne.n	778 <USBDevice::requestSetFeature()+0x40>
     754:	2350      	movs	r3, #80	; 0x50
     756:	5ac2      	ldrh	r2, [r0, r3]
     758:	2300      	movs	r3, #0
     75a:	2a00      	cmp	r2, #0
     75c:	d10a      	bne.n	774 <USBDevice::requestSetFeature()+0x3c>
     75e:	2352      	movs	r3, #82	; 0x52
     760:	5ac3      	ldrh	r3, [r0, r3]
     762:	210f      	movs	r1, #15
     764:	4019      	ands	r1, r3
     766:	061b      	lsls	r3, r3, #24
     768:	0fdb      	lsrs	r3, r3, #31
     76a:	0049      	lsls	r1, r1, #1
     76c:	18c9      	adds	r1, r1, r3
     76e:	f000 fbbd 	bl	eec <USBHAL::stallEndpoint(unsigned char)>
     772:	2301      	movs	r3, #1
     774:	1c18      	adds	r0, r3, #0
     776:	bd08      	pop	{r3, pc}
     778:	2300      	movs	r3, #0
     77a:	e7fb      	b.n	774 <USBDevice::requestSetFeature()+0x3c>

0000077c <USBDevice::requestClearFeature()>:
     77c:	b508      	push	{r3, lr}
     77e:	2364      	movs	r3, #100	; 0x64
     780:	5cc3      	ldrb	r3, [r0, r3]
     782:	2b04      	cmp	r3, #4
     784:	d004      	beq.n	790 <USBDevice::requestClearFeature()+0x14>
     786:	2352      	movs	r3, #82	; 0x52
     788:	5ac2      	ldrh	r2, [r0, r3]
     78a:	2300      	movs	r3, #0
     78c:	2a00      	cmp	r2, #0
     78e:	d113      	bne.n	7b8 <USBDevice::requestClearFeature()+0x3c>
     790:	234e      	movs	r3, #78	; 0x4e
     792:	5cc3      	ldrb	r3, [r0, r3]
     794:	2b02      	cmp	r3, #2
     796:	d111      	bne.n	7bc <USBDevice::requestClearFeature()+0x40>
     798:	2350      	movs	r3, #80	; 0x50
     79a:	5ac2      	ldrh	r2, [r0, r3]
     79c:	2300      	movs	r3, #0
     79e:	2a00      	cmp	r2, #0
     7a0:	d10a      	bne.n	7b8 <USBDevice::requestClearFeature()+0x3c>
     7a2:	2352      	movs	r3, #82	; 0x52
     7a4:	5ac3      	ldrh	r3, [r0, r3]
     7a6:	210f      	movs	r1, #15
     7a8:	4019      	ands	r1, r3
     7aa:	061b      	lsls	r3, r3, #24
     7ac:	0fdb      	lsrs	r3, r3, #31
     7ae:	0049      	lsls	r1, r1, #1
     7b0:	18c9      	adds	r1, r1, r3
     7b2:	f000 fbf7 	bl	fa4 <USBHAL::unstallEndpoint(unsigned char)>
     7b6:	2301      	movs	r3, #1
     7b8:	1c18      	adds	r0, r3, #0
     7ba:	bd08      	pop	{r3, pc}
     7bc:	2300      	movs	r3, #0
     7be:	e7fb      	b.n	7b8 <USBDevice::requestClearFeature()+0x3c>

000007c0 <USBDevice::requestGetStatus()>:
     7c0:	b538      	push	{r3, r4, r5, lr}
     7c2:	2364      	movs	r3, #100	; 0x64
     7c4:	5cc3      	ldrb	r3, [r0, r3]
     7c6:	1c04      	adds	r4, r0, #0
     7c8:	2b04      	cmp	r3, #4
     7ca:	d004      	beq.n	7d6 <USBDevice::requestGetStatus()+0x16>
     7cc:	2352      	movs	r3, #82	; 0x52
     7ce:	5ac3      	ldrh	r3, [r0, r3]
     7d0:	2000      	movs	r0, #0
     7d2:	2b00      	cmp	r3, #0
     7d4:	d11e      	bne.n	814 <USBDevice::requestGetStatus()+0x54>
     7d6:	234e      	movs	r3, #78	; 0x4e
     7d8:	5ce3      	ldrb	r3, [r4, r3]
     7da:	2b01      	cmp	r3, #1
     7dc:	d021      	beq.n	822 <USBDevice::requestGetStatus()+0x62>
     7de:	2b00      	cmp	r3, #0
     7e0:	d01b      	beq.n	81a <USBDevice::requestGetStatus()+0x5a>
     7e2:	2b02      	cmp	r3, #2
     7e4:	d117      	bne.n	816 <USBDevice::requestGetStatus()+0x56>
     7e6:	2352      	movs	r3, #82	; 0x52
     7e8:	5ae3      	ldrh	r3, [r4, r3]
     7ea:	220f      	movs	r2, #15
     7ec:	09d9      	lsrs	r1, r3, #7
     7ee:	2501      	movs	r5, #1
     7f0:	4013      	ands	r3, r2
     7f2:	005b      	lsls	r3, r3, #1
     7f4:	4029      	ands	r1, r5
     7f6:	18c9      	adds	r1, r1, r3
     7f8:	1c20      	adds	r0, r4, #0
     7fa:	f000 fc2f 	bl	105c <USBHAL::getEndpointStallState(unsigned char)>
     7fe:	4b0c      	ldr	r3, [pc, #48]	; (830 <USBDevice::requestGetStatus()+0x70>)
     800:	2800      	cmp	r0, #0
     802:	d012      	beq.n	82a <USBDevice::requestGetStatus()+0x6a>
     804:	801d      	strh	r5, [r3, #0]
     806:	65a3      	str	r3, [r4, #88]	; 0x58
     808:	2302      	movs	r3, #2
     80a:	65e3      	str	r3, [r4, #92]	; 0x5c
     80c:	2201      	movs	r2, #1
     80e:	2360      	movs	r3, #96	; 0x60
     810:	54e2      	strb	r2, [r4, r3]
     812:	2001      	movs	r0, #1
     814:	bd38      	pop	{r3, r4, r5, pc}
     816:	2000      	movs	r0, #0
     818:	e7fc      	b.n	814 <USBDevice::requestGetStatus()+0x54>
     81a:	4b05      	ldr	r3, [pc, #20]	; (830 <USBDevice::requestGetStatus()+0x70>)
     81c:	2201      	movs	r2, #1
     81e:	801a      	strh	r2, [r3, #0]
     820:	e7f1      	b.n	806 <USBDevice::requestGetStatus()+0x46>
     822:	4b03      	ldr	r3, [pc, #12]	; (830 <USBDevice::requestGetStatus()+0x70>)
     824:	2200      	movs	r2, #0
     826:	801a      	strh	r2, [r3, #0]
     828:	e7ed      	b.n	806 <USBDevice::requestGetStatus()+0x46>
     82a:	8018      	strh	r0, [r3, #0]
     82c:	e7eb      	b.n	806 <USBDevice::requestGetStatus()+0x46>
     82e:	46c0      	nop			; (mov r8, r8)
     830:	10000390 	.word	0x10000390

00000834 <USBDevice::requestSetup()>:
     834:	b570      	push	{r4, r5, r6, lr}
     836:	234d      	movs	r3, #77	; 0x4d
     838:	5cc3      	ldrb	r3, [r0, r3]
     83a:	1c04      	adds	r4, r0, #0
     83c:	2b00      	cmp	r3, #0
     83e:	d10b      	bne.n	858 <USBDevice::requestSetup()+0x24>
     840:	234f      	movs	r3, #79	; 0x4f
     842:	5cc3      	ldrb	r3, [r0, r3]
     844:	2b0b      	cmp	r3, #11
     846:	d807      	bhi.n	858 <USBDevice::requestSetup()+0x24>
     848:	4a25      	ldr	r2, [pc, #148]	; (8e0 <USBDevice::requestSetup()+0xac>)
     84a:	009b      	lsls	r3, r3, #2
     84c:	58d3      	ldr	r3, [r2, r3]
     84e:	469f      	mov	pc, r3
     850:	2364      	movs	r3, #100	; 0x64
     852:	5cc3      	ldrb	r3, [r0, r3]
     854:	2b04      	cmp	r3, #4
     856:	d03b      	beq.n	8d0 <USBDevice::requestSetup()+0x9c>
     858:	2000      	movs	r0, #0
     85a:	bd70      	pop	{r4, r5, r6, pc}
     85c:	f7ff ffb0 	bl	7c0 <USBDevice::requestGetStatus()>
     860:	e7fb      	b.n	85a <USBDevice::requestSetup()+0x26>
     862:	f7ff ff8b 	bl	77c <USBDevice::requestClearFeature()>
     866:	e7f8      	b.n	85a <USBDevice::requestSetup()+0x26>
     868:	f7ff ff66 	bl	738 <USBDevice::requestSetFeature()>
     86c:	e7f5      	b.n	85a <USBDevice::requestSetup()+0x26>
     86e:	2550      	movs	r5, #80	; 0x50
     870:	5d41      	ldrb	r1, [r0, r5]
     872:	f000 fa87 	bl	d84 <USBHAL::setAddress(unsigned char)>
     876:	5b63      	ldrh	r3, [r4, r5]
     878:	2b00      	cmp	r3, #0
     87a:	d124      	bne.n	8c6 <USBDevice::requestSetup()+0x92>
     87c:	2202      	movs	r2, #2
     87e:	2364      	movs	r3, #100	; 0x64
     880:	54e2      	strb	r2, [r4, r3]
     882:	2001      	movs	r0, #1
     884:	e7e9      	b.n	85a <USBDevice::requestSetup()+0x26>
     886:	f7ff fe0b 	bl	4a0 <USBDevice::requestGetDescriptor()>
     88a:	e7e6      	b.n	85a <USBDevice::requestSetup()+0x26>
     88c:	6803      	ldr	r3, [r0, #0]
     88e:	2652      	movs	r6, #82	; 0x52
     890:	2550      	movs	r5, #80	; 0x50
     892:	5b81      	ldrh	r1, [r0, r6]
     894:	5d42      	ldrb	r2, [r0, r5]
     896:	6cdb      	ldr	r3, [r3, #76]	; 0x4c
     898:	4798      	blx	r3
     89a:	2800      	cmp	r0, #0
     89c:	d0dc      	beq.n	858 <USBDevice::requestSetup()+0x24>
     89e:	5ba2      	ldrh	r2, [r4, r6]
     8a0:	2368      	movs	r3, #104	; 0x68
     8a2:	52e2      	strh	r2, [r4, r3]
     8a4:	5b62      	ldrh	r2, [r4, r5]
     8a6:	236a      	movs	r3, #106	; 0x6a
     8a8:	54e2      	strb	r2, [r4, r3]
     8aa:	2001      	movs	r0, #1
     8ac:	e7d5      	b.n	85a <USBDevice::requestSetup()+0x26>
     8ae:	1c03      	adds	r3, r0, #0
     8b0:	3365      	adds	r3, #101	; 0x65
     8b2:	65a3      	str	r3, [r4, #88]	; 0x58
     8b4:	2260      	movs	r2, #96	; 0x60
     8b6:	2301      	movs	r3, #1
     8b8:	65e3      	str	r3, [r4, #92]	; 0x5c
     8ba:	2001      	movs	r0, #1
     8bc:	54a3      	strb	r3, [r4, r2]
     8be:	e7cc      	b.n	85a <USBDevice::requestSetup()+0x26>
     8c0:	f7ff ff1a 	bl	6f8 <USBDevice::requestSetConfiguration()>
     8c4:	e7c9      	b.n	85a <USBDevice::requestSetup()+0x26>
     8c6:	2203      	movs	r2, #3
     8c8:	2364      	movs	r3, #100	; 0x64
     8ca:	54e2      	strb	r2, [r4, r3]
     8cc:	2001      	movs	r0, #1
     8ce:	e7c4      	b.n	85a <USBDevice::requestSetup()+0x26>
     8d0:	2368      	movs	r3, #104	; 0x68
     8d2:	5ac2      	ldrh	r2, [r0, r3]
     8d4:	2352      	movs	r3, #82	; 0x52
     8d6:	52c2      	strh	r2, [r0, r3]
     8d8:	1c03      	adds	r3, r0, #0
     8da:	336a      	adds	r3, #106	; 0x6a
     8dc:	e7e9      	b.n	8b2 <USBDevice::requestSetup()+0x7e>
     8de:	46c0      	nop			; (mov r8, r8)
     8e0:	0000627c 	.word	0x0000627c

000008e4 <USBDevice::controlSetup()>:
     8e4:	b510      	push	{r4, lr}
     8e6:	b090      	sub	sp, #64	; 0x40
     8e8:	1c04      	adds	r4, r0, #0
     8ea:	4669      	mov	r1, sp
     8ec:	f000 f9a6 	bl	c3c <USBHAL::EP0setup(unsigned char*)>
     8f0:	1c22      	adds	r2, r4, #0
     8f2:	324c      	adds	r2, #76	; 0x4c
     8f4:	1c20      	adds	r0, r4, #0
     8f6:	4669      	mov	r1, sp
     8f8:	f7ff fe60 	bl	5bc <USBDevice::decodeSetupPacket(unsigned char*, SETUP_PACKET*)>
     8fc:	2300      	movs	r3, #0
     8fe:	2260      	movs	r2, #96	; 0x60
     900:	65a3      	str	r3, [r4, #88]	; 0x58
     902:	65e3      	str	r3, [r4, #92]	; 0x5c
     904:	54a3      	strb	r3, [r4, r2]
     906:	2261      	movs	r2, #97	; 0x61
     908:	54a3      	strb	r3, [r4, r2]
     90a:	2262      	movs	r2, #98	; 0x62
     90c:	54a3      	strb	r3, [r4, r2]
     90e:	6823      	ldr	r3, [r4, #0]
     910:	1c20      	adds	r0, r4, #0
     912:	6c1b      	ldr	r3, [r3, #64]	; 0x40
     914:	4798      	blx	r3
     916:	2800      	cmp	r0, #0
     918:	d024      	beq.n	964 <USBDevice::controlSetup()+0x80>
     91a:	2354      	movs	r3, #84	; 0x54
     91c:	5ae3      	ldrh	r3, [r4, r3]
     91e:	2b00      	cmp	r3, #0
     920:	d10a      	bne.n	938 <USBDevice::controlSetup()+0x54>
     922:	6de3      	ldr	r3, [r4, #92]	; 0x5c
     924:	2b00      	cmp	r3, #0
     926:	d11b      	bne.n	960 <USBDevice::controlSetup()+0x7c>
     928:	1c20      	adds	r0, r4, #0
     92a:	2100      	movs	r1, #0
     92c:	2200      	movs	r2, #0
     92e:	f000 f9c3 	bl	cb8 <USBHAL::EP0write(unsigned char*, unsigned long)>
     932:	2001      	movs	r0, #1
     934:	b010      	add	sp, #64	; 0x40
     936:	bd10      	pop	{r4, pc}
     938:	224c      	movs	r2, #76	; 0x4c
     93a:	5ca2      	ldrb	r2, [r4, r2]
     93c:	2a01      	cmp	r2, #1
     93e:	d00b      	beq.n	958 <USBDevice::controlSetup()+0x74>
     940:	2260      	movs	r2, #96	; 0x60
     942:	5ca2      	ldrb	r2, [r4, r2]
     944:	2a00      	cmp	r2, #0
     946:	d10b      	bne.n	960 <USBDevice::controlSetup()+0x7c>
     948:	6de2      	ldr	r2, [r4, #92]	; 0x5c
     94a:	429a      	cmp	r2, r3
     94c:	d108      	bne.n	960 <USBDevice::controlSetup()+0x7c>
     94e:	1c20      	adds	r0, r4, #0
     950:	f000 f980 	bl	c54 <USBHAL::EP0read()>
     954:	2001      	movs	r0, #1
     956:	e7ed      	b.n	934 <USBDevice::controlSetup()+0x50>
     958:	2260      	movs	r2, #96	; 0x60
     95a:	5ca1      	ldrb	r1, [r4, r2]
     95c:	2901      	cmp	r1, #1
     95e:	d008      	beq.n	972 <USBDevice::controlSetup()+0x8e>
     960:	2000      	movs	r0, #0
     962:	e7e7      	b.n	934 <USBDevice::controlSetup()+0x50>
     964:	1c20      	adds	r0, r4, #0
     966:	f7ff ff65 	bl	834 <USBDevice::requestSetup()>
     96a:	2800      	cmp	r0, #0
     96c:	d1d5      	bne.n	91a <USBDevice::controlSetup()+0x36>
     96e:	2000      	movs	r0, #0
     970:	e7e0      	b.n	934 <USBDevice::controlSetup()+0x50>
     972:	6de2      	ldr	r2, [r4, #92]	; 0x5c
     974:	429a      	cmp	r2, r3
     976:	d905      	bls.n	984 <USBDevice::controlSetup()+0xa0>
     978:	65e3      	str	r3, [r4, #92]	; 0x5c
     97a:	1c20      	adds	r0, r4, #0
     97c:	f7ff fe74 	bl	668 <USBDevice::controlIn()>
     980:	2001      	movs	r0, #1
     982:	e7d7      	b.n	934 <USBDevice::controlSetup()+0x50>
     984:	429a      	cmp	r2, r3
     986:	d2f8      	bcs.n	97a <USBDevice::controlSetup()+0x96>
     988:	0693      	lsls	r3, r2, #26
     98a:	d1f6      	bne.n	97a <USBDevice::controlSetup()+0x96>
     98c:	2361      	movs	r3, #97	; 0x61
     98e:	54e1      	strb	r1, [r4, r3]
     990:	e7f3      	b.n	97a <USBDevice::controlSetup()+0x96>
     992:	46c0      	nop			; (mov r8, r8)

00000994 <USBDevice::EP0setupCallback()>:
     994:	b510      	push	{r4, lr}
     996:	1c04      	adds	r4, r0, #0
     998:	f7ff ffa4 	bl	8e4 <USBDevice::controlSetup()>
     99c:	2800      	cmp	r0, #0
     99e:	d102      	bne.n	9a6 <USBDevice::EP0setupCallback()+0x12>
     9a0:	1c20      	adds	r0, r4, #0
     9a2:	f000 f9df 	bl	d64 <USBHAL::EP0stall()>
     9a6:	bd10      	pop	{r4, pc}

000009a8 <USBDevice::connect(bool)>:
     9a8:	b538      	push	{r3, r4, r5, lr}
     9aa:	1c0d      	adds	r5, r1, #0
     9ac:	1c04      	adds	r4, r0, #0
     9ae:	f000 f92d 	bl	c0c <USBHAL::connect()>
     9b2:	2d00      	cmp	r5, #0
     9b4:	d003      	beq.n	9be <USBDevice::connect(bool)+0x16>
     9b6:	2264      	movs	r2, #100	; 0x64
     9b8:	5ca3      	ldrb	r3, [r4, r2]
     9ba:	2b04      	cmp	r3, #4
     9bc:	d1fc      	bne.n	9b8 <USBDevice::connect(bool)+0x10>
     9be:	bd38      	pop	{r3, r4, r5, pc}

000009c0 <USBDevice::getTransferPtr()>:
     9c0:	304c      	adds	r0, #76	; 0x4c
     9c2:	4770      	bx	lr

000009c4 <USBDevice::addEndpoint(unsigned char, unsigned long)>:
     9c4:	b508      	push	{r3, lr}
     9c6:	2300      	movs	r3, #0
     9c8:	f000 fb78 	bl	10bc <USBHAL::realiseEndpoint(unsigned char, unsigned long, unsigned long)>
     9cc:	bd08      	pop	{r3, pc}
     9ce:	46c0      	nop			; (mov r8, r8)

000009d0 <USBDevice::findDescriptor(unsigned char)>:
     9d0:	b5f8      	push	{r3, r4, r5, r6, r7, lr}
     9d2:	6803      	ldr	r3, [r0, #0]
     9d4:	1c05      	adds	r5, r0, #0
     9d6:	6d5b      	ldr	r3, [r3, #84]	; 0x54
     9d8:	1c0e      	adds	r6, r1, #0
     9da:	4798      	blx	r3
     9dc:	2800      	cmp	r0, #0
     9de:	d006      	beq.n	9ee <USBDevice::findDescriptor(unsigned char)+0x1e>
     9e0:	682b      	ldr	r3, [r5, #0]
     9e2:	1c28      	adds	r0, r5, #0
     9e4:	6d5b      	ldr	r3, [r3, #84]	; 0x54
     9e6:	4798      	blx	r3
     9e8:	7803      	ldrb	r3, [r0, #0]
     9ea:	2b09      	cmp	r3, #9
     9ec:	d001      	beq.n	9f2 <USBDevice::findDescriptor(unsigned char)+0x22>
     9ee:	2000      	movs	r0, #0
     9f0:	bdf8      	pop	{r3, r4, r5, r6, r7, pc}
     9f2:	682b      	ldr	r3, [r5, #0]
     9f4:	1c28      	adds	r0, r5, #0
     9f6:	6d5b      	ldr	r3, [r3, #84]	; 0x54
     9f8:	4798      	blx	r3
     9fa:	7843      	ldrb	r3, [r0, #1]
     9fc:	2b02      	cmp	r3, #2
     9fe:	d1f6      	bne.n	9ee <USBDevice::findDescriptor(unsigned char)+0x1e>
     a00:	682b      	ldr	r3, [r5, #0]
     a02:	1c28      	adds	r0, r5, #0
     a04:	6d5b      	ldr	r3, [r3, #84]	; 0x54
     a06:	4798      	blx	r3
     a08:	682b      	ldr	r3, [r5, #0]
     a0a:	7884      	ldrb	r4, [r0, #2]
     a0c:	6d5b      	ldr	r3, [r3, #84]	; 0x54
     a0e:	1c28      	adds	r0, r5, #0
     a10:	4798      	blx	r3
     a12:	78c7      	ldrb	r7, [r0, #3]
     a14:	023f      	lsls	r7, r7, #8
     a16:	4327      	orrs	r7, r4
     a18:	2f0b      	cmp	r7, #11
     a1a:	d9e8      	bls.n	9ee <USBDevice::findDescriptor(unsigned char)+0x1e>
     a1c:	682b      	ldr	r3, [r5, #0]
     a1e:	1c28      	adds	r0, r5, #0
     a20:	6d5b      	ldr	r3, [r3, #84]	; 0x54
     a22:	4798      	blx	r3
     a24:	1c04      	adds	r4, r0, #0
     a26:	3409      	adds	r4, #9
     a28:	e008      	b.n	a3c <USBDevice::findDescriptor(unsigned char)+0x6c>
     a2a:	7823      	ldrb	r3, [r4, #0]
     a2c:	1c28      	adds	r0, r5, #0
     a2e:	18e4      	adds	r4, r4, r3
     a30:	682b      	ldr	r3, [r5, #0]
     a32:	6d5b      	ldr	r3, [r3, #84]	; 0x54
     a34:	4798      	blx	r3
     a36:	19c0      	adds	r0, r0, r7
     a38:	4284      	cmp	r4, r0
     a3a:	d2d8      	bcs.n	9ee <USBDevice::findDescriptor(unsigned char)+0x1e>
     a3c:	7863      	ldrb	r3, [r4, #1]
     a3e:	42b3      	cmp	r3, r6
     a40:	d1f3      	bne.n	a2a <USBDevice::findDescriptor(unsigned char)+0x5a>
     a42:	1c20      	adds	r0, r4, #0
     a44:	e7d4      	b.n	9f0 <USBDevice::findDescriptor(unsigned char)+0x20>
     a46:	46c0      	nop			; (mov r8, r8)

00000a48 <USBDevice::USBDevice(unsigned short, unsigned short, unsigned short)>:
     a48:	b5f8      	push	{r3, r4, r5, r6, r7, lr}
     a4a:	1c04      	adds	r4, r0, #0
     a4c:	1c16      	adds	r6, r2, #0
     a4e:	1c1d      	adds	r5, r3, #0
     a50:	1c0f      	adds	r7, r1, #0
     a52:	f000 f853 	bl	afc <USBHAL::USBHAL()>
     a56:	4b09      	ldr	r3, [pc, #36]	; (a7c <USBDevice::USBDevice(unsigned short, unsigned short, unsigned short)+0x34>)
     a58:	2201      	movs	r2, #1
     a5a:	3308      	adds	r3, #8
     a5c:	6023      	str	r3, [r4, #0]
     a5e:	2344      	movs	r3, #68	; 0x44
     a60:	52e7      	strh	r7, [r4, r3]
     a62:	2346      	movs	r3, #70	; 0x46
     a64:	52e6      	strh	r6, [r4, r3]
     a66:	2348      	movs	r3, #72	; 0x48
     a68:	52e5      	strh	r5, [r4, r3]
     a6a:	2364      	movs	r3, #100	; 0x64
     a6c:	54e2      	strb	r2, [r4, r3]
     a6e:	2300      	movs	r3, #0
     a70:	2265      	movs	r2, #101	; 0x65
     a72:	54a3      	strb	r3, [r4, r2]
     a74:	2266      	movs	r2, #102	; 0x66
     a76:	1c20      	adds	r0, r4, #0
     a78:	54a3      	strb	r3, [r4, r2]
     a7a:	bdf8      	pop	{r3, r4, r5, r6, r7, pc}
     a7c:	000062b0 	.word	0x000062b0

00000a80 <USBDevice::readStart(unsigned char, unsigned long)>:
     a80:	b508      	push	{r3, lr}
     a82:	f000 f939 	bl	cf8 <USBHAL::endpointRead(unsigned char, unsigned long)>
     a86:	3801      	subs	r0, #1
     a88:	4243      	negs	r3, r0
     a8a:	4158      	adcs	r0, r3
     a8c:	b2c0      	uxtb	r0, r0
     a8e:	bd08      	pop	{r3, pc}

00000a90 <USBDevice::write(unsigned char, unsigned char*, unsigned long, unsigned long)>:
     a90:	b570      	push	{r4, r5, r6, lr}
     a92:	1c0d      	adds	r5, r1, #0
     a94:	9904      	ldr	r1, [sp, #16]
     a96:	1c04      	adds	r4, r0, #0
     a98:	428b      	cmp	r3, r1
     a9a:	d803      	bhi.n	aa4 <USBDevice::write(unsigned char, unsigned char*, unsigned long, unsigned long)+0x14>
     a9c:	2064      	movs	r0, #100	; 0x64
     a9e:	5c20      	ldrb	r0, [r4, r0]
     aa0:	2804      	cmp	r0, #4
     aa2:	d001      	beq.n	aa8 <USBDevice::write(unsigned char, unsigned char*, unsigned long, unsigned long)+0x18>
     aa4:	2000      	movs	r0, #0
     aa6:	bd70      	pop	{r4, r5, r6, pc}
     aa8:	1c20      	adds	r0, r4, #0
     aaa:	1c29      	adds	r1, r5, #0
     aac:	f000 f97c 	bl	da8 <USBHAL::endpointWrite(unsigned char, unsigned char*, unsigned long)>
     ab0:	2801      	cmp	r0, #1
     ab2:	d1f7      	bne.n	aa4 <USBDevice::write(unsigned char, unsigned char*, unsigned long, unsigned long)+0x14>
     ab4:	2664      	movs	r6, #100	; 0x64
     ab6:	1c20      	adds	r0, r4, #0
     ab8:	1c29      	adds	r1, r5, #0
     aba:	f000 f9e7 	bl	e8c <USBHAL::endpointWriteResult(unsigned char)>
     abe:	2801      	cmp	r0, #1
     ac0:	d003      	beq.n	aca <USBDevice::write(unsigned char, unsigned char*, unsigned long, unsigned long)+0x3a>
     ac2:	4243      	negs	r3, r0
     ac4:	4158      	adcs	r0, r3
     ac6:	b2c0      	uxtb	r0, r0
     ac8:	e7ed      	b.n	aa6 <USBDevice::write(unsigned char, unsigned char*, unsigned long, unsigned long)+0x16>
     aca:	5da3      	ldrb	r3, [r4, r6]
     acc:	2b04      	cmp	r3, #4
     ace:	d1f8      	bne.n	ac2 <USBDevice::write(unsigned char, unsigned char*, unsigned long, unsigned long)+0x32>
     ad0:	e7f1      	b.n	ab6 <USBDevice::write(unsigned char, unsigned char*, unsigned long, unsigned long)+0x26>
     ad2:	46c0      	nop			; (mov r8, r8)

00000ad4 <USBHAL::busReset()>:
     ad4:	4770      	bx	lr
     ad6:	46c0      	nop			; (mov r8, r8)

00000ad8 <USBHAL::EP0setupCallback()>:
     ad8:	4770      	bx	lr
     ada:	46c0      	nop			; (mov r8, r8)

00000adc <USBHAL::EP0out()>:
     adc:	4770      	bx	lr
     ade:	46c0      	nop			; (mov r8, r8)

00000ae0 <USBHAL::EP0in()>:
     ae0:	4770      	bx	lr
     ae2:	46c0      	nop			; (mov r8, r8)

00000ae4 <USBHAL::connectStateChanged(unsigned int)>:
     ae4:	4770      	bx	lr
     ae6:	46c0      	nop			; (mov r8, r8)

00000ae8 <USBHAL::suspendStateChanged(unsigned int)>:
     ae8:	4770      	bx	lr
     aea:	46c0      	nop			; (mov r8, r8)

00000aec <USBMemCopy(unsigned char*, unsigned char*, unsigned long) [clone .part.0]>:
     aec:	b510      	push	{r4, lr}
     aee:	2300      	movs	r3, #0
     af0:	5ccc      	ldrb	r4, [r1, r3]
     af2:	54c4      	strb	r4, [r0, r3]
     af4:	3301      	adds	r3, #1
     af6:	4293      	cmp	r3, r2
     af8:	d1fa      	bne.n	af0 <USBMemCopy(unsigned char*, unsigned char*, unsigned long) [clone .part.0]+0x4>
     afa:	bd10      	pop	{r4, pc}

00000afc <USBHAL::USBHAL()>:
     afc:	4b2b      	ldr	r3, [pc, #172]	; (bac <USBHAL::USBHAL()+0xb0>)
     afe:	b570      	push	{r4, r5, r6, lr}
     b00:	2180      	movs	r1, #128	; 0x80
     b02:	6003      	str	r3, [r0, #0]
     b04:	4b2a      	ldr	r3, [pc, #168]	; (bb0 <USBHAL::USBHAL()+0xb4>)
     b06:	2280      	movs	r2, #128	; 0x80
     b08:	03c9      	lsls	r1, r1, #15
     b0a:	5099      	str	r1, [r3, r2]
     b0c:	2120      	movs	r1, #32
     b0e:	60c1      	str	r1, [r0, #12]
     b10:	2124      	movs	r1, #36	; 0x24
     b12:	6141      	str	r1, [r0, #20]
     b14:	2128      	movs	r1, #40	; 0x28
     b16:	61c1      	str	r1, [r0, #28]
     b18:	212c      	movs	r1, #44	; 0x2c
     b1a:	6241      	str	r1, [r0, #36]	; 0x24
     b1c:	2130      	movs	r1, #48	; 0x30
     b1e:	62c1      	str	r1, [r0, #44]	; 0x2c
     b20:	2134      	movs	r1, #52	; 0x34
     b22:	6341      	str	r1, [r0, #52]	; 0x34
     b24:	2138      	movs	r1, #56	; 0x38
     b26:	63c1      	str	r1, [r0, #60]	; 0x3c
     b28:	231c      	movs	r3, #28
     b2a:	4922      	ldr	r1, [pc, #136]	; (bb4 <USBHAL::USBHAL()+0xb8>)
     b2c:	6043      	str	r3, [r0, #4]
     b2e:	2301      	movs	r3, #1
     b30:	6083      	str	r3, [r0, #8]
     b32:	6103      	str	r3, [r0, #16]
     b34:	6183      	str	r3, [r0, #24]
     b36:	6203      	str	r3, [r0, #32]
     b38:	6283      	str	r3, [r0, #40]	; 0x28
     b3a:	6303      	str	r3, [r0, #48]	; 0x30
     b3c:	6383      	str	r3, [r0, #56]	; 0x38
     b3e:	6403      	str	r3, [r0, #64]	; 0x40
     b40:	618b      	str	r3, [r1, #24]
     b42:	4b1d      	ldr	r3, [pc, #116]	; (bb8 <USBHAL::USBHAL()+0xbc>)
     b44:	1c04      	adds	r4, r0, #0
     b46:	5899      	ldr	r1, [r3, r2]
     b48:	481c      	ldr	r0, [pc, #112]	; (bbc <USBHAL::USBHAL()+0xc0>)
     b4a:	4d1d      	ldr	r5, [pc, #116]	; (bc0 <USBHAL::USBHAL()+0xc4>)
     b4c:	2600      	movs	r6, #0
     b4e:	4301      	orrs	r1, r0
     b50:	5099      	str	r1, [r3, r2]
     b52:	481c      	ldr	r0, [pc, #112]	; (bc4 <USBHAL::USBHAL()+0xc8>)
     b54:	602e      	str	r6, [r5, #0]
     b56:	f000 fe29 	bl	17ac <wait>
     b5a:	491b      	ldr	r1, [pc, #108]	; (bc8 <USBHAL::USBHAL()+0xcc>)
     b5c:	4a1b      	ldr	r2, [pc, #108]	; (bcc <USBHAL::USBHAL()+0xd0>)
     b5e:	680b      	ldr	r3, [r1, #0]
     b60:	481b      	ldr	r0, [pc, #108]	; (bd0 <USBHAL::USBHAL()+0xd4>)
     b62:	33ff      	adds	r3, #255	; 0xff
     b64:	0a1b      	lsrs	r3, r3, #8
     b66:	021b      	lsls	r3, r3, #8
     b68:	6013      	str	r3, [r2, #0]
     b6a:	1c1a      	adds	r2, r3, #0
     b6c:	3280      	adds	r2, #128	; 0x80
     b6e:	60ab      	str	r3, [r5, #8]
     b70:	6002      	str	r2, [r0, #0]
     b72:	1c10      	adds	r0, r2, #0
     b74:	3088      	adds	r0, #136	; 0x88
     b76:	6008      	str	r0, [r1, #0]
     b78:	0d91      	lsrs	r1, r2, #22
     b7a:	3280      	adds	r2, #128	; 0x80
     b7c:	0292      	lsls	r2, r2, #10
     b7e:	0589      	lsls	r1, r1, #22
     b80:	0c12      	lsrs	r2, r2, #16
     b82:	60e9      	str	r1, [r5, #12]
     b84:	601e      	str	r6, [r3, #0]
     b86:	609e      	str	r6, [r3, #8]
     b88:	605a      	str	r2, [r3, #4]
     b8a:	4b12      	ldr	r3, [pc, #72]	; (bd4 <USBHAL::USBHAL()+0xd8>)
     b8c:	4a12      	ldr	r2, [pc, #72]	; (bd8 <USBHAL::USBHAL()+0xdc>)
     b8e:	62ee      	str	r6, [r5, #44]	; 0x2c
     b90:	601a      	str	r2, [r3, #0]
     b92:	681b      	ldr	r3, [r3, #0]
     b94:	2016      	movs	r0, #22
     b96:	602b      	str	r3, [r5, #0]
     b98:	4b10      	ldr	r3, [pc, #64]	; (bdc <USBHAL::USBHAL()+0xe0>)
     b9a:	4911      	ldr	r1, [pc, #68]	; (be0 <USBHAL::USBHAL()+0xe4>)
     b9c:	626b      	str	r3, [r5, #36]	; 0x24
     b9e:	4b11      	ldr	r3, [pc, #68]	; (be4 <USBHAL::USBHAL()+0xe8>)
     ba0:	601c      	str	r4, [r3, #0]
     ba2:	f000 fda7 	bl	16f4 <NVIC_SetVector>
     ba6:	1c20      	adds	r0, r4, #0
     ba8:	bd70      	pop	{r4, r5, r6, pc}
     baa:	46c0      	nop			; (mov r8, r8)
     bac:	00006338 	.word	0x00006338
     bb0:	e000e100 	.word	0xe000e100
     bb4:	40044000 	.word	0x40044000
     bb8:	40048000 	.word	0x40048000
     bbc:	08004000 	.word	0x08004000
     bc0:	40080000 	.word	0x40080000
     bc4:	3e99999a 	.word	0x3e99999a
     bc8:	10000130 	.word	0x10000130
     bcc:	1000044c 	.word	0x1000044c
     bd0:	10000440 	.word	0x10000440
     bd4:	10000444 	.word	0x10000444
     bd8:	00020080 	.word	0x00020080
     bdc:	c0000003 	.word	0xc0000003
     be0:	00001321 	.word	0x00001321
     be4:	10000398 	.word	0x10000398

00000be8 <USBHAL::~USBHAL()>:
     be8:	4b05      	ldr	r3, [pc, #20]	; (c00 <USBHAL::~USBHAL()+0x18>)
     bea:	2200      	movs	r2, #0
     bec:	6003      	str	r3, [r0, #0]
     bee:	4b05      	ldr	r3, [pc, #20]	; (c04 <USBHAL::~USBHAL()+0x1c>)
     bf0:	2180      	movs	r1, #128	; 0x80
     bf2:	601a      	str	r2, [r3, #0]
     bf4:	4a04      	ldr	r2, [pc, #16]	; (c08 <USBHAL::~USBHAL()+0x20>)
     bf6:	03c9      	lsls	r1, r1, #15
     bf8:	2380      	movs	r3, #128	; 0x80
     bfa:	50d1      	str	r1, [r2, r3]
     bfc:	4770      	bx	lr
     bfe:	46c0      	nop			; (mov r8, r8)
     c00:	00006338 	.word	0x00006338
     c04:	40080000 	.word	0x40080000
     c08:	e000e100 	.word	0xe000e100

00000c0c <USBHAL::connect()>:
     c0c:	4b06      	ldr	r3, [pc, #24]	; (c28 <USBHAL::connect()+0x1c>)
     c0e:	2280      	movs	r2, #128	; 0x80
     c10:	03d2      	lsls	r2, r2, #15
     c12:	601a      	str	r2, [r3, #0]
     c14:	4b05      	ldr	r3, [pc, #20]	; (c2c <USBHAL::connect()+0x20>)
     c16:	2280      	movs	r2, #128	; 0x80
     c18:	6819      	ldr	r1, [r3, #0]
     c1a:	0252      	lsls	r2, r2, #9
     c1c:	430a      	orrs	r2, r1
     c1e:	601a      	str	r2, [r3, #0]
     c20:	681a      	ldr	r2, [r3, #0]
     c22:	4b03      	ldr	r3, [pc, #12]	; (c30 <USBHAL::connect()+0x24>)
     c24:	601a      	str	r2, [r3, #0]
     c26:	4770      	bx	lr
     c28:	e000e100 	.word	0xe000e100
     c2c:	10000444 	.word	0x10000444
     c30:	40080000 	.word	0x40080000

00000c34 <USBHAL::configureDevice()>:
     c34:	4770      	bx	lr
     c36:	46c0      	nop			; (mov r8, r8)

00000c38 <USBHAL::unconfigureDevice()>:
     c38:	4770      	bx	lr
     c3a:	46c0      	nop			; (mov r8, r8)

00000c3c <USBHAL::EP0setup(unsigned char*)>:
     c3c:	b508      	push	{r3, lr}
     c3e:	4b04      	ldr	r3, [pc, #16]	; (c50 <USBHAL::EP0setup(unsigned char*)+0x14>)
     c40:	1c08      	adds	r0, r1, #0
     c42:	6819      	ldr	r1, [r3, #0]
     c44:	2208      	movs	r2, #8
     c46:	3180      	adds	r1, #128	; 0x80
     c48:	f7ff ff50 	bl	aec <USBMemCopy(unsigned char*, unsigned char*, unsigned long) [clone .part.0]>
     c4c:	bd08      	pop	{r3, pc}
     c4e:	46c0      	nop			; (mov r8, r8)
     c50:	10000440 	.word	0x10000440

00000c54 <USBHAL::EP0read()>:
     c54:	4a07      	ldr	r2, [pc, #28]	; (c74 <USBHAL::EP0read()+0x20>)
     c56:	4b08      	ldr	r3, [pc, #32]	; (c78 <USBHAL::EP0read()+0x24>)
     c58:	6812      	ldr	r2, [r2, #0]
     c5a:	4908      	ldr	r1, [pc, #32]	; (c7c <USBHAL::EP0read()+0x28>)
     c5c:	0292      	lsls	r2, r2, #10
     c5e:	0c12      	lsrs	r2, r2, #16
     c60:	681b      	ldr	r3, [r3, #0]
     c62:	430a      	orrs	r2, r1
     c64:	0a11      	lsrs	r1, r2, #8
     c66:	701a      	strb	r2, [r3, #0]
     c68:	7059      	strb	r1, [r3, #1]
     c6a:	0c11      	lsrs	r1, r2, #16
     c6c:	0e12      	lsrs	r2, r2, #24
     c6e:	7099      	strb	r1, [r3, #2]
     c70:	70da      	strb	r2, [r3, #3]
     c72:	4770      	bx	lr
     c74:	10000440 	.word	0x10000440
     c78:	1000044c 	.word	0x1000044c
     c7c:	80400000 	.word	0x80400000

00000c80 <USBHAL::EP0getReadResult(unsigned char*)>:
     c80:	4b0a      	ldr	r3, [pc, #40]	; (cac <USBHAL::EP0getReadResult(unsigned char*)+0x2c>)
     c82:	b510      	push	{r4, lr}
     c84:	681b      	ldr	r3, [r3, #0]
     c86:	789c      	ldrb	r4, [r3, #2]
     c88:	78db      	ldrb	r3, [r3, #3]
     c8a:	0424      	lsls	r4, r4, #16
     c8c:	061b      	lsls	r3, r3, #24
     c8e:	431c      	orrs	r4, r3
     c90:	01a4      	lsls	r4, r4, #6
     c92:	2340      	movs	r3, #64	; 0x40
     c94:	0da4      	lsrs	r4, r4, #22
     c96:	1b1c      	subs	r4, r3, r4
     c98:	4b05      	ldr	r3, [pc, #20]	; (cb0 <USBHAL::EP0getReadResult(unsigned char*)+0x30>)
     c9a:	681b      	ldr	r3, [r3, #0]
     c9c:	d004      	beq.n	ca8 <USBHAL::EP0getReadResult(unsigned char*)+0x28>
     c9e:	1c08      	adds	r0, r1, #0
     ca0:	1c22      	adds	r2, r4, #0
     ca2:	1c19      	adds	r1, r3, #0
     ca4:	f7ff ff22 	bl	aec <USBMemCopy(unsigned char*, unsigned char*, unsigned long) [clone .part.0]>
     ca8:	1c20      	adds	r0, r4, #0
     caa:	bd10      	pop	{r4, pc}
     cac:	1000044c 	.word	0x1000044c
     cb0:	10000440 	.word	0x10000440

00000cb4 <USBHAL::EP0readStage()>:
     cb4:	4770      	bx	lr
     cb6:	46c0      	nop			; (mov r8, r8)

00000cb8 <USBHAL::EP0write(unsigned char*, unsigned long)>:
     cb8:	b538      	push	{r3, r4, r5, lr}
     cba:	4b0d      	ldr	r3, [pc, #52]	; (cf0 <USBHAL::EP0write(unsigned char*, unsigned long)+0x38>)
     cbc:	1c14      	adds	r4, r2, #0
     cbe:	681d      	ldr	r5, [r3, #0]
     cc0:	3540      	adds	r5, #64	; 0x40
     cc2:	2a00      	cmp	r2, #0
     cc4:	d002      	beq.n	ccc <USBHAL::EP0write(unsigned char*, unsigned long)+0x14>
     cc6:	1c28      	adds	r0, r5, #0
     cc8:	f7ff ff10 	bl	aec <USBMemCopy(unsigned char*, unsigned char*, unsigned long) [clone .part.0]>
     ccc:	02ad      	lsls	r5, r5, #10
     cce:	2280      	movs	r2, #128	; 0x80
     cd0:	0c2d      	lsrs	r5, r5, #16
     cd2:	4b08      	ldr	r3, [pc, #32]	; (cf4 <USBHAL::EP0write(unsigned char*, unsigned long)+0x3c>)
     cd4:	0612      	lsls	r2, r2, #24
     cd6:	05a4      	lsls	r4, r4, #22
     cd8:	432a      	orrs	r2, r5
     cda:	09a4      	lsrs	r4, r4, #6
     cdc:	681b      	ldr	r3, [r3, #0]
     cde:	4322      	orrs	r2, r4
     ce0:	0a11      	lsrs	r1, r2, #8
     ce2:	721a      	strb	r2, [r3, #8]
     ce4:	7259      	strb	r1, [r3, #9]
     ce6:	0c11      	lsrs	r1, r2, #16
     ce8:	0e12      	lsrs	r2, r2, #24
     cea:	7299      	strb	r1, [r3, #10]
     cec:	72da      	strb	r2, [r3, #11]
     cee:	bd38      	pop	{r3, r4, r5, pc}
     cf0:	10000440 	.word	0x10000440
     cf4:	1000044c 	.word	0x1000044c

00000cf8 <USBHAL::endpointRead(unsigned char, unsigned long)>:
     cf8:	b530      	push	{r4, r5, lr}
     cfa:	4c16      	ldr	r4, [pc, #88]	; (d54 <USBHAL::endpointRead(unsigned char, unsigned long)+0x5c>)
     cfc:	2301      	movs	r3, #1
     cfe:	69e5      	ldr	r5, [r4, #28]
     d00:	2000      	movs	r0, #0
     d02:	40cd      	lsrs	r5, r1
     d04:	422b      	tst	r3, r5
     d06:	d002      	beq.n	d0e <USBHAL::endpointRead(unsigned char, unsigned long)+0x16>
     d08:	69a0      	ldr	r0, [r4, #24]
     d0a:	40c8      	lsrs	r0, r1
     d0c:	4018      	ands	r0, r3
     d0e:	4c12      	ldr	r4, [pc, #72]	; (d58 <USBHAL::endpointRead(unsigned char, unsigned long)+0x60>)
     d10:	010b      	lsls	r3, r1, #4
     d12:	18e3      	adds	r3, r4, r3
     d14:	68dc      	ldr	r4, [r3, #12]
     d16:	4b11      	ldr	r3, [pc, #68]	; (d5c <USBHAL::endpointRead(unsigned char, unsigned long)+0x64>)
     d18:	1049      	asrs	r1, r1, #1
     d1a:	681d      	ldr	r5, [r3, #0]
     d1c:	0080      	lsls	r0, r0, #2
     d1e:	010b      	lsls	r3, r1, #4
     d20:	1829      	adds	r1, r5, r0
     d22:	480f      	ldr	r0, [pc, #60]	; (d60 <USBHAL::endpointRead(unsigned char, unsigned long)+0x68>)
     d24:	2580      	movs	r5, #128	; 0x80
     d26:	6800      	ldr	r0, [r0, #0]
     d28:	062d      	lsls	r5, r5, #24
     d2a:	0280      	lsls	r0, r0, #10
     d2c:	0c00      	lsrs	r0, r0, #16
     d2e:	4305      	orrs	r5, r0
     d30:	07a4      	lsls	r4, r4, #30
     d32:	0590      	lsls	r0, r2, #22
     d34:	0980      	lsrs	r0, r0, #6
     d36:	1c2a      	adds	r2, r5, #0
     d38:	0fe4      	lsrs	r4, r4, #31
     d3a:	06a4      	lsls	r4, r4, #26
     d3c:	4302      	orrs	r2, r0
     d3e:	4322      	orrs	r2, r4
     d40:	54ca      	strb	r2, [r1, r3]
     d42:	0a10      	lsrs	r0, r2, #8
     d44:	18c9      	adds	r1, r1, r3
     d46:	0c13      	lsrs	r3, r2, #16
     d48:	0e12      	lsrs	r2, r2, #24
     d4a:	7048      	strb	r0, [r1, #1]
     d4c:	708b      	strb	r3, [r1, #2]
     d4e:	2001      	movs	r0, #1
     d50:	70ca      	strb	r2, [r1, #3]
     d52:	bd30      	pop	{r4, r5, pc}
     d54:	40080000 	.word	0x40080000
     d58:	1000039c 	.word	0x1000039c
     d5c:	1000044c 	.word	0x1000044c
     d60:	10000440 	.word	0x10000440

00000d64 <USBHAL::EP0stall()>:
     d64:	4b06      	ldr	r3, [pc, #24]	; (d80 <USBHAL::EP0stall()+0x1c>)
     d66:	2200      	movs	r2, #0
     d68:	681b      	ldr	r3, [r3, #0]
     d6a:	2120      	movs	r1, #32
     d6c:	721a      	strb	r2, [r3, #8]
     d6e:	725a      	strb	r2, [r3, #9]
     d70:	729a      	strb	r2, [r3, #10]
     d72:	72d9      	strb	r1, [r3, #11]
     d74:	701a      	strb	r2, [r3, #0]
     d76:	705a      	strb	r2, [r3, #1]
     d78:	709a      	strb	r2, [r3, #2]
     d7a:	70d9      	strb	r1, [r3, #3]
     d7c:	4770      	bx	lr
     d7e:	46c0      	nop			; (mov r8, r8)
     d80:	1000044c 	.word	0x1000044c

00000d84 <USBHAL::setAddress(unsigned char)>:
     d84:	4b06      	ldr	r3, [pc, #24]	; (da0 <USBHAL::setAddress(unsigned char)+0x1c>)
     d86:	227f      	movs	r2, #127	; 0x7f
     d88:	6818      	ldr	r0, [r3, #0]
     d8a:	4390      	bics	r0, r2
     d8c:	6018      	str	r0, [r3, #0]
     d8e:	6818      	ldr	r0, [r3, #0]
     d90:	400a      	ands	r2, r1
     d92:	4302      	orrs	r2, r0
     d94:	601a      	str	r2, [r3, #0]
     d96:	681a      	ldr	r2, [r3, #0]
     d98:	4b02      	ldr	r3, [pc, #8]	; (da4 <USBHAL::setAddress(unsigned char)+0x20>)
     d9a:	601a      	str	r2, [r3, #0]
     d9c:	4770      	bx	lr
     d9e:	46c0      	nop			; (mov r8, r8)
     da0:	10000444 	.word	0x10000444
     da4:	40080000 	.word	0x40080000

00000da8 <USBHAL::endpointWrite(unsigned char, unsigned char*, unsigned long)>:
     da8:	b5f8      	push	{r3, r4, r5, r6, r7, lr}
     daa:	464f      	mov	r7, r9
     dac:	4646      	mov	r6, r8
     dae:	b4c0      	push	{r6, r7}
     db0:	1c1c      	adds	r4, r3, #0
     db2:	2a00      	cmp	r2, #0
     db4:	d00c      	beq.n	dd0 <USBHAL::endpointWrite(unsigned char, unsigned char*, unsigned long)+0x28>
     db6:	1e8b      	subs	r3, r1, #2
     db8:	2002      	movs	r0, #2
     dba:	2b07      	cmp	r3, #7
     dbc:	d804      	bhi.n	dc8 <USBHAL::endpointWrite(unsigned char, unsigned char*, unsigned long)+0x20>
     dbe:	4d30      	ldr	r5, [pc, #192]	; (e80 <USBHAL::endpointWrite(unsigned char, unsigned char*, unsigned long)+0xd8>)
     dc0:	010e      	lsls	r6, r1, #4
     dc2:	59ab      	ldr	r3, [r5, r6]
     dc4:	42a3      	cmp	r3, r4
     dc6:	d205      	bcs.n	dd4 <USBHAL::endpointWrite(unsigned char, unsigned char*, unsigned long)+0x2c>
     dc8:	bc0c      	pop	{r2, r3}
     dca:	4690      	mov	r8, r2
     dcc:	4699      	mov	r9, r3
     dce:	bdf8      	pop	{r3, r4, r5, r6, r7, pc}
     dd0:	2002      	movs	r0, #2
     dd2:	e7f9      	b.n	dc8 <USBHAL::endpointWrite(unsigned char, unsigned char*, unsigned long)+0x20>
     dd4:	482b      	ldr	r0, [pc, #172]	; (e84 <USBHAL::endpointWrite(unsigned char, unsigned char*, unsigned long)+0xdc>)
     dd6:	2301      	movs	r3, #1
     dd8:	69c7      	ldr	r7, [r0, #28]
     dda:	40cf      	lsrs	r7, r1
     ddc:	46bc      	mov	r12, r7
     dde:	2700      	movs	r7, #0
     de0:	46b8      	mov	r8, r7
     de2:	4667      	mov	r7, r12
     de4:	423b      	tst	r3, r7
     de6:	d003      	beq.n	df0 <USBHAL::endpointWrite(unsigned char, unsigned char*, unsigned long)+0x48>
     de8:	6980      	ldr	r0, [r0, #24]
     dea:	40c8      	lsrs	r0, r1
     dec:	4003      	ands	r3, r0
     dee:	4698      	mov	r8, r3
     df0:	4b25      	ldr	r3, [pc, #148]	; (e88 <USBHAL::endpointWrite(unsigned char, unsigned char*, unsigned long)+0xe0>)
     df2:	104f      	asrs	r7, r1, #1
     df4:	681b      	ldr	r3, [r3, #0]
     df6:	4640      	mov	r0, r8
     df8:	013f      	lsls	r7, r7, #4
     dfa:	19df      	adds	r7, r3, r7
     dfc:	0083      	lsls	r3, r0, #2
     dfe:	18ff      	adds	r7, r7, r3
     e00:	7a7b      	ldrb	r3, [r7, #9]
     e02:	7a38      	ldrb	r0, [r7, #8]
     e04:	021b      	lsls	r3, r3, #8
     e06:	4303      	orrs	r3, r0
     e08:	7ab8      	ldrb	r0, [r7, #10]
     e0a:	0400      	lsls	r0, r0, #16
     e0c:	4303      	orrs	r3, r0
     e0e:	7af8      	ldrb	r0, [r7, #11]
     e10:	0600      	lsls	r0, r0, #24
     e12:	4303      	orrs	r3, r0
     e14:	2002      	movs	r0, #2
     e16:	2b00      	cmp	r3, #0
     e18:	dbd6      	blt.n	dc8 <USBHAL::endpointWrite(unsigned char, unsigned char*, unsigned long)+0x20>
     e1a:	2003      	movs	r0, #3
     e1c:	009b      	lsls	r3, r3, #2
     e1e:	d4d3      	bmi.n	dc8 <USBHAL::endpointWrite(unsigned char, unsigned char*, unsigned long)+0x20>
     e20:	0089      	lsls	r1, r1, #2
     e22:	1c0b      	adds	r3, r1, #0
     e24:	4443      	add	r3, r8
     e26:	009b      	lsls	r3, r3, #2
     e28:	18eb      	adds	r3, r5, r3
     e2a:	4689      	mov	r9, r1
     e2c:	6858      	ldr	r0, [r3, #4]
     e2e:	2c00      	cmp	r4, #0
     e30:	d121      	bne.n	e76 <USBHAL::endpointWrite(unsigned char, unsigned char*, unsigned long)+0xce>
     e32:	19ae      	adds	r6, r5, r6
     e34:	68f2      	ldr	r2, [r6, #12]
     e36:	68f3      	ldr	r3, [r6, #12]
     e38:	0752      	lsls	r2, r2, #29
     e3a:	0fd2      	lsrs	r2, r2, #31
     e3c:	06d2      	lsls	r2, r2, #27
     e3e:	0798      	lsls	r0, r3, #30
     e40:	d502      	bpl.n	e48 <USBHAL::endpointWrite(unsigned char, unsigned char*, unsigned long)+0xa0>
     e42:	2380      	movs	r3, #128	; 0x80
     e44:	04db      	lsls	r3, r3, #19
     e46:	431a      	orrs	r2, r3
     e48:	464b      	mov	r3, r9
     e4a:	4443      	add	r3, r8
     e4c:	009b      	lsls	r3, r3, #2
     e4e:	18ed      	adds	r5, r5, r3
     e50:	6869      	ldr	r1, [r5, #4]
     e52:	05a4      	lsls	r4, r4, #22
     e54:	2380      	movs	r3, #128	; 0x80
     e56:	09a4      	lsrs	r4, r4, #6
     e58:	061b      	lsls	r3, r3, #24
     e5a:	0289      	lsls	r1, r1, #10
     e5c:	4323      	orrs	r3, r4
     e5e:	0c09      	lsrs	r1, r1, #16
     e60:	430b      	orrs	r3, r1
     e62:	4313      	orrs	r3, r2
     e64:	0a1a      	lsrs	r2, r3, #8
     e66:	723b      	strb	r3, [r7, #8]
     e68:	727a      	strb	r2, [r7, #9]
     e6a:	0c1a      	lsrs	r2, r3, #16
     e6c:	0e1b      	lsrs	r3, r3, #24
     e6e:	72ba      	strb	r2, [r7, #10]
     e70:	72fb      	strb	r3, [r7, #11]
     e72:	2001      	movs	r0, #1
     e74:	e7a8      	b.n	dc8 <USBHAL::endpointWrite(unsigned char, unsigned char*, unsigned long)+0x20>
     e76:	1c11      	adds	r1, r2, #0
     e78:	1c22      	adds	r2, r4, #0
     e7a:	f7ff fe37 	bl	aec <USBMemCopy(unsigned char*, unsigned char*, unsigned long) [clone .part.0]>
     e7e:	e7d8      	b.n	e32 <USBHAL::endpointWrite(unsigned char, unsigned char*, unsigned long)+0x8a>
     e80:	1000039c 	.word	0x1000039c
     e84:	40080000 	.word	0x40080000
     e88:	1000044c 	.word	0x1000044c

00000e8c <USBHAL::endpointWriteResult(unsigned char)>:
     e8c:	b510      	push	{r4, lr}
     e8e:	2002      	movs	r0, #2
     e90:	2909      	cmp	r1, #9
     e92:	d900      	bls.n	e96 <USBHAL::endpointWriteResult(unsigned char)+0xa>
     e94:	bd10      	pop	{r4, pc}
     e96:	2301      	movs	r3, #1
     e98:	420b      	tst	r3, r1
     e9a:	d0fb      	beq.n	e94 <USBHAL::endpointWriteResult(unsigned char)+0x8>
     e9c:	4811      	ldr	r0, [pc, #68]	; (ee4 <USBHAL::endpointWriteResult(unsigned char)+0x58>)
     e9e:	2200      	movs	r2, #0
     ea0:	69c4      	ldr	r4, [r0, #28]
     ea2:	40cc      	lsrs	r4, r1
     ea4:	4223      	tst	r3, r4
     ea6:	d002      	beq.n	eae <USBHAL::endpointWriteResult(unsigned char)+0x22>
     ea8:	6982      	ldr	r2, [r0, #24]
     eaa:	40ca      	lsrs	r2, r1
     eac:	401a      	ands	r2, r3
     eae:	4b0e      	ldr	r3, [pc, #56]	; (ee8 <USBHAL::endpointWriteResult(unsigned char)+0x5c>)
     eb0:	3202      	adds	r2, #2
     eb2:	6818      	ldr	r0, [r3, #0]
     eb4:	1049      	asrs	r1, r1, #1
     eb6:	0092      	lsls	r2, r2, #2
     eb8:	010b      	lsls	r3, r1, #4
     eba:	1881      	adds	r1, r0, r2
     ebc:	5cca      	ldrb	r2, [r1, r3]
     ebe:	18c9      	adds	r1, r1, r3
     ec0:	784b      	ldrb	r3, [r1, #1]
     ec2:	021b      	lsls	r3, r3, #8
     ec4:	4313      	orrs	r3, r2
     ec6:	788a      	ldrb	r2, [r1, #2]
     ec8:	0412      	lsls	r2, r2, #16
     eca:	4313      	orrs	r3, r2
     ecc:	78ca      	ldrb	r2, [r1, #3]
     ece:	0612      	lsls	r2, r2, #24
     ed0:	4313      	orrs	r3, r2
     ed2:	d405      	bmi.n	ee0 <USBHAL::endpointWriteResult(unsigned char)+0x54>
     ed4:	009a      	lsls	r2, r3, #2
     ed6:	d501      	bpl.n	edc <USBHAL::endpointWriteResult(unsigned char)+0x50>
     ed8:	2003      	movs	r0, #3
     eda:	e7db      	b.n	e94 <USBHAL::endpointWriteResult(unsigned char)+0x8>
     edc:	2000      	movs	r0, #0
     ede:	e7d9      	b.n	e94 <USBHAL::endpointWriteResult(unsigned char)+0x8>
     ee0:	2001      	movs	r0, #1
     ee2:	e7d7      	b.n	e94 <USBHAL::endpointWriteResult(unsigned char)+0x8>
     ee4:	40080000 	.word	0x40080000
     ee8:	1000044c 	.word	0x1000044c

00000eec <USBHAL::stallEndpoint(unsigned char)>:
     eec:	07cb      	lsls	r3, r1, #31
     eee:	d42b      	bmi.n	f48 <USBHAL::stallEndpoint(unsigned char)+0x5c>
     ef0:	4b2b      	ldr	r3, [pc, #172]	; (fa0 <USBHAL::stallEndpoint(unsigned char)+0xb4>)
     ef2:	1049      	asrs	r1, r1, #1
     ef4:	681b      	ldr	r3, [r3, #0]
     ef6:	0109      	lsls	r1, r1, #4
     ef8:	1859      	adds	r1, r3, r1
     efa:	784a      	ldrb	r2, [r1, #1]
     efc:	780b      	ldrb	r3, [r1, #0]
     efe:	0212      	lsls	r2, r2, #8
     f00:	431a      	orrs	r2, r3
     f02:	788b      	ldrb	r3, [r1, #2]
     f04:	2080      	movs	r0, #128	; 0x80
     f06:	041b      	lsls	r3, r3, #16
     f08:	431a      	orrs	r2, r3
     f0a:	78cb      	ldrb	r3, [r1, #3]
     f0c:	0580      	lsls	r0, r0, #22
     f0e:	061b      	lsls	r3, r3, #24
     f10:	431a      	orrs	r2, r3
     f12:	4302      	orrs	r2, r0
     f14:	0a13      	lsrs	r3, r2, #8
     f16:	704b      	strb	r3, [r1, #1]
     f18:	0c13      	lsrs	r3, r2, #16
     f1a:	700a      	strb	r2, [r1, #0]
     f1c:	708b      	strb	r3, [r1, #2]
     f1e:	0e12      	lsrs	r2, r2, #24
     f20:	794b      	ldrb	r3, [r1, #5]
     f22:	70ca      	strb	r2, [r1, #3]
     f24:	790a      	ldrb	r2, [r1, #4]
     f26:	021b      	lsls	r3, r3, #8
     f28:	4313      	orrs	r3, r2
     f2a:	798a      	ldrb	r2, [r1, #6]
     f2c:	0412      	lsls	r2, r2, #16
     f2e:	4313      	orrs	r3, r2
     f30:	79ca      	ldrb	r2, [r1, #7]
     f32:	0612      	lsls	r2, r2, #24
     f34:	4313      	orrs	r3, r2
     f36:	4303      	orrs	r3, r0
     f38:	0a1a      	lsrs	r2, r3, #8
     f3a:	710b      	strb	r3, [r1, #4]
     f3c:	714a      	strb	r2, [r1, #5]
     f3e:	0c1a      	lsrs	r2, r3, #16
     f40:	0e1b      	lsrs	r3, r3, #24
     f42:	718a      	strb	r2, [r1, #6]
     f44:	71cb      	strb	r3, [r1, #7]
     f46:	4770      	bx	lr
     f48:	4b15      	ldr	r3, [pc, #84]	; (fa0 <USBHAL::stallEndpoint(unsigned char)+0xb4>)
     f4a:	1049      	asrs	r1, r1, #1
     f4c:	681b      	ldr	r3, [r3, #0]
     f4e:	0109      	lsls	r1, r1, #4
     f50:	185b      	adds	r3, r3, r1
     f52:	7a59      	ldrb	r1, [r3, #9]
     f54:	7a1a      	ldrb	r2, [r3, #8]
     f56:	0209      	lsls	r1, r1, #8
     f58:	4311      	orrs	r1, r2
     f5a:	7a9a      	ldrb	r2, [r3, #10]
     f5c:	2080      	movs	r0, #128	; 0x80
     f5e:	0412      	lsls	r2, r2, #16
     f60:	4311      	orrs	r1, r2
     f62:	7ada      	ldrb	r2, [r3, #11]
     f64:	0580      	lsls	r0, r0, #22
     f66:	0612      	lsls	r2, r2, #24
     f68:	4311      	orrs	r1, r2
     f6a:	4301      	orrs	r1, r0
     f6c:	0a0a      	lsrs	r2, r1, #8
     f6e:	725a      	strb	r2, [r3, #9]
     f70:	0c0a      	lsrs	r2, r1, #16
     f72:	7219      	strb	r1, [r3, #8]
     f74:	729a      	strb	r2, [r3, #10]
     f76:	0e09      	lsrs	r1, r1, #24
     f78:	7b5a      	ldrb	r2, [r3, #13]
     f7a:	72d9      	strb	r1, [r3, #11]
     f7c:	7b19      	ldrb	r1, [r3, #12]
     f7e:	0212      	lsls	r2, r2, #8
     f80:	430a      	orrs	r2, r1
     f82:	7b99      	ldrb	r1, [r3, #14]
     f84:	0409      	lsls	r1, r1, #16
     f86:	430a      	orrs	r2, r1
     f88:	7bd9      	ldrb	r1, [r3, #15]
     f8a:	0609      	lsls	r1, r1, #24
     f8c:	430a      	orrs	r2, r1
     f8e:	4302      	orrs	r2, r0
     f90:	0a11      	lsrs	r1, r2, #8
     f92:	731a      	strb	r2, [r3, #12]
     f94:	7359      	strb	r1, [r3, #13]
     f96:	0c11      	lsrs	r1, r2, #16
     f98:	0e12      	lsrs	r2, r2, #24
     f9a:	7399      	strb	r1, [r3, #14]
     f9c:	73da      	strb	r2, [r3, #15]
     f9e:	e7d2      	b.n	f46 <USBHAL::stallEndpoint(unsigned char)+0x5a>
     fa0:	1000044c 	.word	0x1000044c

00000fa4 <USBHAL::unstallEndpoint(unsigned char)>:
     fa4:	b530      	push	{r4, r5, lr}
     fa6:	4c2b      	ldr	r4, [pc, #172]	; (1054 <USBHAL::unstallEndpoint(unsigned char)+0xb0>)
     fa8:	2301      	movs	r3, #1
     faa:	69e2      	ldr	r2, [r4, #28]
     fac:	40ca      	lsrs	r2, r1
     fae:	401a      	ands	r2, r3
     fb0:	d017      	beq.n	fe2 <USBHAL::unstallEndpoint(unsigned char)+0x3e>
     fb2:	1c1a      	adds	r2, r3, #0
     fb4:	400a      	ands	r2, r1
     fb6:	d022      	beq.n	ffe <USBHAL::unstallEndpoint(unsigned char)+0x5a>
     fb8:	4827      	ldr	r0, [pc, #156]	; (1058 <USBHAL::unstallEndpoint(unsigned char)+0xb4>)
     fba:	104a      	asrs	r2, r1, #1
     fbc:	6800      	ldr	r0, [r0, #0]
     fbe:	0112      	lsls	r2, r2, #4
     fc0:	1882      	adds	r2, r0, r2
     fc2:	2000      	movs	r0, #0
     fc4:	7210      	strb	r0, [r2, #8]
     fc6:	7250      	strb	r0, [r2, #9]
     fc8:	7290      	strb	r0, [r2, #10]
     fca:	72d0      	strb	r0, [r2, #11]
     fcc:	7310      	strb	r0, [r2, #12]
     fce:	7350      	strb	r0, [r2, #13]
     fd0:	7390      	strb	r0, [r2, #14]
     fd2:	73d0      	strb	r0, [r2, #15]
     fd4:	69a4      	ldr	r4, [r4, #24]
     fd6:	40cc      	lsrs	r4, r1
     fd8:	4023      	ands	r3, r4
     fda:	d02e      	beq.n	103a <USBHAL::unstallEndpoint(unsigned char)+0x96>
     fdc:	2310      	movs	r3, #16
     fde:	73d3      	strb	r3, [r2, #15]
     fe0:	e00c      	b.n	ffc <USBHAL::unstallEndpoint(unsigned char)+0x58>
     fe2:	400b      	ands	r3, r1
     fe4:	1049      	asrs	r1, r1, #1
     fe6:	2b00      	cmp	r3, #0
     fe8:	d11d      	bne.n	1026 <USBHAL::unstallEndpoint(unsigned char)+0x82>
     fea:	4a1b      	ldr	r2, [pc, #108]	; (1058 <USBHAL::unstallEndpoint(unsigned char)+0xb4>)
     fec:	0109      	lsls	r1, r1, #4
     fee:	6812      	ldr	r2, [r2, #0]
     ff0:	548b      	strb	r3, [r1, r2]
     ff2:	1851      	adds	r1, r2, r1
     ff4:	704b      	strb	r3, [r1, #1]
     ff6:	708b      	strb	r3, [r1, #2]
     ff8:	2310      	movs	r3, #16
     ffa:	70cb      	strb	r3, [r1, #3]
     ffc:	bd30      	pop	{r4, r5, pc}
     ffe:	4d16      	ldr	r5, [pc, #88]	; (1058 <USBHAL::unstallEndpoint(unsigned char)+0xb4>)
    1000:	1048      	asrs	r0, r1, #1
    1002:	682d      	ldr	r5, [r5, #0]
    1004:	0100      	lsls	r0, r0, #4
    1006:	1828      	adds	r0, r5, r0
    1008:	7002      	strb	r2, [r0, #0]
    100a:	7042      	strb	r2, [r0, #1]
    100c:	7082      	strb	r2, [r0, #2]
    100e:	70c2      	strb	r2, [r0, #3]
    1010:	7102      	strb	r2, [r0, #4]
    1012:	7142      	strb	r2, [r0, #5]
    1014:	7182      	strb	r2, [r0, #6]
    1016:	71c2      	strb	r2, [r0, #7]
    1018:	69a4      	ldr	r4, [r4, #24]
    101a:	40cc      	lsrs	r4, r1
    101c:	4023      	ands	r3, r4
    101e:	d012      	beq.n	1046 <USBHAL::unstallEndpoint(unsigned char)+0xa2>
    1020:	2310      	movs	r3, #16
    1022:	71c3      	strb	r3, [r0, #7]
    1024:	e7ea      	b.n	ffc <USBHAL::unstallEndpoint(unsigned char)+0x58>
    1026:	4b0c      	ldr	r3, [pc, #48]	; (1058 <USBHAL::unstallEndpoint(unsigned char)+0xb4>)
    1028:	0109      	lsls	r1, r1, #4
    102a:	681b      	ldr	r3, [r3, #0]
    102c:	1859      	adds	r1, r3, r1
    102e:	2310      	movs	r3, #16
    1030:	720a      	strb	r2, [r1, #8]
    1032:	724a      	strb	r2, [r1, #9]
    1034:	728a      	strb	r2, [r1, #10]
    1036:	72cb      	strb	r3, [r1, #11]
    1038:	e7e0      	b.n	ffc <USBHAL::unstallEndpoint(unsigned char)+0x58>
    103a:	7213      	strb	r3, [r2, #8]
    103c:	7253      	strb	r3, [r2, #9]
    103e:	7293      	strb	r3, [r2, #10]
    1040:	2310      	movs	r3, #16
    1042:	72d3      	strb	r3, [r2, #11]
    1044:	e7da      	b.n	ffc <USBHAL::unstallEndpoint(unsigned char)+0x58>
    1046:	7003      	strb	r3, [r0, #0]
    1048:	7043      	strb	r3, [r0, #1]
    104a:	7083      	strb	r3, [r0, #2]
    104c:	2310      	movs	r3, #16
    104e:	70c3      	strb	r3, [r0, #3]
    1050:	e7d4      	b.n	ffc <USBHAL::unstallEndpoint(unsigned char)+0x58>
    1052:	46c0      	nop			; (mov r8, r8)
    1054:	40080000 	.word	0x40080000
    1058:	1000044c 	.word	0x1000044c

0000105c <USBHAL::getEndpointStallState(unsigned char)>:
    105c:	4a15      	ldr	r2, [pc, #84]	; (10b4 <USBHAL::getEndpointStallState(unsigned char)+0x58>)
    105e:	2301      	movs	r3, #1
    1060:	6992      	ldr	r2, [r2, #24]
    1062:	40ca      	lsrs	r2, r1
    1064:	420b      	tst	r3, r1
    1066:	d00a      	beq.n	107e <USBHAL::getEndpointStallState(unsigned char)+0x22>
    1068:	1049      	asrs	r1, r1, #1
    106a:	4213      	tst	r3, r2
    106c:	d01a      	beq.n	10a4 <USBHAL::getEndpointStallState(unsigned char)+0x48>
    106e:	4a12      	ldr	r2, [pc, #72]	; (10b8 <USBHAL::getEndpointStallState(unsigned char)+0x5c>)
    1070:	0109      	lsls	r1, r1, #4
    1072:	6812      	ldr	r2, [r2, #0]
    1074:	1851      	adds	r1, r2, r1
    1076:	7bc8      	ldrb	r0, [r1, #15]
    1078:	0940      	lsrs	r0, r0, #5
    107a:	4018      	ands	r0, r3
    107c:	e009      	b.n	1092 <USBHAL::getEndpointStallState(unsigned char)+0x36>
    107e:	1049      	asrs	r1, r1, #1
    1080:	4213      	tst	r3, r2
    1082:	d107      	bne.n	1094 <USBHAL::getEndpointStallState(unsigned char)+0x38>
    1084:	4a0c      	ldr	r2, [pc, #48]	; (10b8 <USBHAL::getEndpointStallState(unsigned char)+0x5c>)
    1086:	0109      	lsls	r1, r1, #4
    1088:	6812      	ldr	r2, [r2, #0]
    108a:	1851      	adds	r1, r2, r1
    108c:	78c8      	ldrb	r0, [r1, #3]
    108e:	0940      	lsrs	r0, r0, #5
    1090:	4018      	ands	r0, r3
    1092:	4770      	bx	lr
    1094:	4a08      	ldr	r2, [pc, #32]	; (10b8 <USBHAL::getEndpointStallState(unsigned char)+0x5c>)
    1096:	0109      	lsls	r1, r1, #4
    1098:	6812      	ldr	r2, [r2, #0]
    109a:	1851      	adds	r1, r2, r1
    109c:	79c8      	ldrb	r0, [r1, #7]
    109e:	0940      	lsrs	r0, r0, #5
    10a0:	4018      	ands	r0, r3
    10a2:	e7f6      	b.n	1092 <USBHAL::getEndpointStallState(unsigned char)+0x36>
    10a4:	4a04      	ldr	r2, [pc, #16]	; (10b8 <USBHAL::getEndpointStallState(unsigned char)+0x5c>)
    10a6:	0109      	lsls	r1, r1, #4
    10a8:	6812      	ldr	r2, [r2, #0]
    10aa:	1851      	adds	r1, r2, r1
    10ac:	7ac8      	ldrb	r0, [r1, #11]
    10ae:	0940      	lsrs	r0, r0, #5
    10b0:	4018      	ands	r0, r3
    10b2:	e7ee      	b.n	1092 <USBHAL::getEndpointStallState(unsigned char)+0x36>
    10b4:	40080000 	.word	0x40080000
    10b8:	1000044c 	.word	0x1000044c

000010bc <USBHAL::realiseEndpoint(unsigned char, unsigned long, unsigned long)>:
    10bc:	b5f0      	push	{r4, r5, r6, r7, lr}
    10be:	4644      	mov	r4, r8
    10c0:	465f      	mov	r7, r11
    10c2:	4656      	mov	r6, r10
    10c4:	464d      	mov	r5, r9
    10c6:	b4f0      	push	{r4, r5, r6, r7}
    10c8:	1e8c      	subs	r4, r1, #2
    10ca:	b083      	sub	sp, #12
    10cc:	2c07      	cmp	r4, #7
    10ce:	d82d      	bhi.n	112c <USBHAL::realiseEndpoint(unsigned char, unsigned long, unsigned long)+0x70>
    10d0:	4e24      	ldr	r6, [pc, #144]	; (1164 <USBHAL::realiseEndpoint(unsigned char, unsigned long, unsigned long)+0xa8>)
    10d2:	4f25      	ldr	r7, [pc, #148]	; (1168 <USBHAL::realiseEndpoint(unsigned char, unsigned long, unsigned long)+0xac>)
    10d4:	6834      	ldr	r4, [r6, #0]
    10d6:	46bb      	mov	r11, r7
    10d8:	343f      	adds	r4, #63	; 0x3f
    10da:	09a4      	lsrs	r4, r4, #6
    10dc:	01a4      	lsls	r4, r4, #6
    10de:	1915      	adds	r5, r2, r4
    10e0:	42bd      	cmp	r5, r7
    10e2:	d823      	bhi.n	112c <USBHAL::realiseEndpoint(unsigned char, unsigned long, unsigned long)+0x70>
    10e4:	4f21      	ldr	r7, [pc, #132]	; (116c <USBHAL::realiseEndpoint(unsigned char, unsigned long, unsigned long)+0xb0>)
    10e6:	46b8      	mov	r8, r7
    10e8:	010f      	lsls	r7, r1, #4
    10ea:	46b9      	mov	r9, r7
    10ec:	46c4      	mov	r12, r8
    10ee:	44cc      	add	r12, r9
    10f0:	4667      	mov	r7, r12
    10f2:	607c      	str	r4, [r7, #4]
    10f4:	2401      	movs	r4, #1
    10f6:	421c      	tst	r4, r3
    10f8:	d120      	bne.n	113c <USBHAL::realiseEndpoint(unsigned char, unsigned long, unsigned long)+0x80>
    10fa:	353f      	adds	r5, #63	; 0x3f
    10fc:	09ad      	lsrs	r5, r5, #6
    10fe:	01ad      	lsls	r5, r5, #6
    1100:	46aa      	mov	r10, r5
    1102:	18ad      	adds	r5, r5, r2
    1104:	9501      	str	r5, [sp, #4]
    1106:	455d      	cmp	r5, r11
    1108:	d810      	bhi.n	112c <USBHAL::realiseEndpoint(unsigned char, unsigned long, unsigned long)+0x70>
    110a:	2504      	movs	r5, #4
    110c:	46ab      	mov	r11, r5
    110e:	44e3      	add	r11, r12
    1110:	4657      	mov	r7, r10
    1112:	465d      	mov	r5, r11
    1114:	606f      	str	r7, [r5, #4]
    1116:	9f01      	ldr	r7, [sp, #4]
    1118:	4665      	mov	r5, r12
    111a:	602a      	str	r2, [r5, #0]
    111c:	60eb      	str	r3, [r5, #12]
    111e:	4b14      	ldr	r3, [pc, #80]	; (1170 <USBHAL::realiseEndpoint(unsigned char, unsigned long, unsigned long)+0xb4>)
    1120:	6037      	str	r7, [r6, #0]
    1122:	69da      	ldr	r2, [r3, #28]
    1124:	408c      	lsls	r4, r1
    1126:	4322      	orrs	r2, r4
    1128:	61da      	str	r2, [r3, #28]
    112a:	e012      	b.n	1152 <USBHAL::realiseEndpoint(unsigned char, unsigned long, unsigned long)+0x96>
    112c:	2000      	movs	r0, #0
    112e:	b003      	add	sp, #12
    1130:	bc3c      	pop	{r2, r3, r4, r5}
    1132:	4690      	mov	r8, r2
    1134:	4699      	mov	r9, r3
    1136:	46a2      	mov	r10, r4
    1138:	46ab      	mov	r11, r5
    113a:	bdf0      	pop	{r4, r5, r6, r7, pc}
    113c:	464f      	mov	r7, r9
    113e:	4447      	add	r7, r8
    1140:	603a      	str	r2, [r7, #0]
    1142:	4662      	mov	r2, r12
    1144:	60d3      	str	r3, [r2, #12]
    1146:	4b0a      	ldr	r3, [pc, #40]	; (1170 <USBHAL::realiseEndpoint(unsigned char, unsigned long, unsigned long)+0xb4>)
    1148:	6035      	str	r5, [r6, #0]
    114a:	69da      	ldr	r2, [r3, #28]
    114c:	408c      	lsls	r4, r1
    114e:	43a2      	bics	r2, r4
    1150:	61da      	str	r2, [r3, #28]
    1152:	4b07      	ldr	r3, [pc, #28]	; (1170 <USBHAL::realiseEndpoint(unsigned char, unsigned long, unsigned long)+0xb4>)
    1154:	6a5a      	ldr	r2, [r3, #36]	; 0x24
    1156:	4314      	orrs	r4, r2
    1158:	625c      	str	r4, [r3, #36]	; 0x24
    115a:	f7ff ff23 	bl	fa4 <USBHAL::unstallEndpoint(unsigned char)>
    115e:	2001      	movs	r0, #1
    1160:	e7e5      	b.n	112e <USBHAL::realiseEndpoint(unsigned char, unsigned long, unsigned long)+0x72>
    1162:	46c0      	nop			; (mov r8, r8)
    1164:	1000043c 	.word	0x1000043c
    1168:	20004800 	.word	0x20004800
    116c:	1000039c 	.word	0x1000039c
    1170:	40080000 	.word	0x40080000

00001174 <USBHAL::usbisr()>:
    1174:	b5f8      	push	{r3, r4, r5, r6, r7, lr}
    1176:	4b63      	ldr	r3, [pc, #396]	; (1304 <USBHAL::usbisr()+0x190>)
    1178:	2280      	movs	r2, #128	; 0x80
    117a:	6a19      	ldr	r1, [r3, #32]
    117c:	464f      	mov	r7, r9
    117e:	4646      	mov	r6, r8
    1180:	05d2      	lsls	r2, r2, #23
    1182:	b4c0      	push	{r6, r7}
    1184:	1c05      	adds	r5, r0, #0
    1186:	4211      	tst	r1, r2
    1188:	d168      	bne.n	125c <USBHAL::usbisr()+0xe8>
    118a:	4b5e      	ldr	r3, [pc, #376]	; (1304 <USBHAL::usbisr()+0x190>)
    118c:	6a1a      	ldr	r2, [r3, #32]
    118e:	2a00      	cmp	r2, #0
    1190:	da00      	bge.n	1194 <USBHAL::usbisr()+0x20>
    1192:	e06f      	b.n	1274 <USBHAL::usbisr()+0x100>
    1194:	4b5b      	ldr	r3, [pc, #364]	; (1304 <USBHAL::usbisr()+0x190>)
    1196:	2201      	movs	r2, #1
    1198:	6a19      	ldr	r1, [r3, #32]
    119a:	420a      	tst	r2, r1
    119c:	d01a      	beq.n	11d4 <USBHAL::usbisr()+0x60>
    119e:	621a      	str	r2, [r3, #32]
    11a0:	2080      	movs	r0, #128	; 0x80
    11a2:	681a      	ldr	r2, [r3, #0]
    11a4:	0040      	lsls	r0, r0, #1
    11a6:	4202      	tst	r2, r0
    11a8:	d049      	beq.n	123e <USBHAL::usbisr()+0xca>
    11aa:	4a57      	ldr	r2, [pc, #348]	; (1308 <USBHAL::usbisr()+0x194>)
    11ac:	2100      	movs	r1, #0
    11ae:	6812      	ldr	r2, [r2, #0]
    11b0:	7011      	strb	r1, [r2, #0]
    11b2:	7051      	strb	r1, [r2, #1]
    11b4:	7091      	strb	r1, [r2, #2]
    11b6:	70d1      	strb	r1, [r2, #3]
    11b8:	7211      	strb	r1, [r2, #8]
    11ba:	7251      	strb	r1, [r2, #9]
    11bc:	7291      	strb	r1, [r2, #10]
    11be:	72d1      	strb	r1, [r2, #11]
    11c0:	2202      	movs	r2, #2
    11c2:	621a      	str	r2, [r3, #32]
    11c4:	4a51      	ldr	r2, [pc, #324]	; (130c <USBHAL::usbisr()+0x198>)
    11c6:	6812      	ldr	r2, [r2, #0]
    11c8:	4310      	orrs	r0, r2
    11ca:	6018      	str	r0, [r3, #0]
    11cc:	682b      	ldr	r3, [r5, #0]
    11ce:	1c28      	adds	r0, r5, #0
    11d0:	685b      	ldr	r3, [r3, #4]
    11d2:	4798      	blx	r3
    11d4:	4b4b      	ldr	r3, [pc, #300]	; (1304 <USBHAL::usbisr()+0x190>)
    11d6:	2202      	movs	r2, #2
    11d8:	6a19      	ldr	r1, [r3, #32]
    11da:	420a      	tst	r2, r1
    11dc:	d138      	bne.n	1250 <USBHAL::usbisr()+0xdc>
    11de:	4f4c      	ldr	r7, [pc, #304]	; (1310 <USBHAL::usbisr()+0x19c>)
    11e0:	2402      	movs	r4, #2
    11e2:	4e4c      	ldr	r6, [pc, #304]	; (1314 <USBHAL::usbisr()+0x1a0>)
    11e4:	46b8      	mov	r8, r7
    11e6:	e00f      	b.n	1208 <USBHAL::usbisr()+0x94>
    11e8:	4642      	mov	r2, r8
    11ea:	6812      	ldr	r2, [r2, #0]
    11ec:	1040      	asrs	r0, r0, #1
    11ee:	686b      	ldr	r3, [r5, #4]
    11f0:	1810      	adds	r0, r2, r0
    11f2:	4798      	blx	r3
    11f4:	2800      	cmp	r0, #0
    11f6:	d003      	beq.n	1200 <USBHAL::usbisr()+0x8c>
    11f8:	6833      	ldr	r3, [r6, #0]
    11fa:	4649      	mov	r1, r9
    11fc:	438b      	bics	r3, r1
    11fe:	6033      	str	r3, [r6, #0]
    1200:	3401      	adds	r4, #1
    1202:	3508      	adds	r5, #8
    1204:	2c0a      	cmp	r4, #10
    1206:	d016      	beq.n	1236 <USBHAL::usbisr()+0xc2>
    1208:	4a3e      	ldr	r2, [pc, #248]	; (1304 <USBHAL::usbisr()+0x190>)
    120a:	2301      	movs	r3, #1
    120c:	6a11      	ldr	r1, [r2, #32]
    120e:	40e1      	lsrs	r1, r4
    1210:	420b      	tst	r3, r1
    1212:	d0f5      	beq.n	1200 <USBHAL::usbisr()+0x8c>
    1214:	1c19      	adds	r1, r3, #0
    1216:	40a1      	lsls	r1, r4
    1218:	6211      	str	r1, [r2, #32]
    121a:	6832      	ldr	r2, [r6, #0]
    121c:	68a8      	ldr	r0, [r5, #8]
    121e:	430a      	orrs	r2, r1
    1220:	4689      	mov	r9, r1
    1222:	6032      	str	r2, [r6, #0]
    1224:	4203      	tst	r3, r0
    1226:	d0df      	beq.n	11e8 <USBHAL::usbisr()+0x74>
    1228:	683b      	ldr	r3, [r7, #0]
    122a:	1040      	asrs	r0, r0, #1
    122c:	1818      	adds	r0, r3, r0
    122e:	6801      	ldr	r1, [r0, #0]
    1230:	686a      	ldr	r2, [r5, #4]
    1232:	588b      	ldr	r3, [r1, r2]
    1234:	e7dd      	b.n	11f2 <USBHAL::usbisr()+0x7e>
    1236:	bc0c      	pop	{r2, r3}
    1238:	4690      	mov	r8, r2
    123a:	4699      	mov	r9, r3
    123c:	bdf8      	pop	{r3, r4, r5, r6, r7, pc}
    123e:	682b      	ldr	r3, [r5, #0]
    1240:	1c28      	adds	r0, r5, #0
    1242:	689b      	ldr	r3, [r3, #8]
    1244:	4798      	blx	r3
    1246:	4b2f      	ldr	r3, [pc, #188]	; (1304 <USBHAL::usbisr()+0x190>)
    1248:	2202      	movs	r2, #2
    124a:	6a19      	ldr	r1, [r3, #32]
    124c:	420a      	tst	r2, r1
    124e:	d0c6      	beq.n	11de <USBHAL::usbisr()+0x6a>
    1250:	621a      	str	r2, [r3, #32]
    1252:	682b      	ldr	r3, [r5, #0]
    1254:	1c28      	adds	r0, r5, #0
    1256:	68db      	ldr	r3, [r3, #12]
    1258:	4798      	blx	r3
    125a:	e7c0      	b.n	11de <USBHAL::usbisr()+0x6a>
    125c:	621a      	str	r2, [r3, #32]
    125e:	6859      	ldr	r1, [r3, #4]
    1260:	6803      	ldr	r3, [r0, #0]
    1262:	0549      	lsls	r1, r1, #21
    1264:	699b      	ldr	r3, [r3, #24]
    1266:	0d49      	lsrs	r1, r1, #21
    1268:	4798      	blx	r3
    126a:	4b26      	ldr	r3, [pc, #152]	; (1304 <USBHAL::usbisr()+0x190>)
    126c:	6a1a      	ldr	r2, [r3, #32]
    126e:	2a00      	cmp	r2, #0
    1270:	db00      	blt.n	1274 <USBHAL::usbisr()+0x100>
    1272:	e78f      	b.n	1194 <USBHAL::usbisr()+0x20>
    1274:	2280      	movs	r2, #128	; 0x80
    1276:	0612      	lsls	r2, r2, #24
    1278:	621a      	str	r2, [r3, #32]
    127a:	6819      	ldr	r1, [r3, #0]
    127c:	2280      	movs	r2, #128	; 0x80
    127e:	0492      	lsls	r2, r2, #18
    1280:	4211      	tst	r1, r2
    1282:	d006      	beq.n	1292 <USBHAL::usbisr()+0x11e>
    1284:	4921      	ldr	r1, [pc, #132]	; (130c <USBHAL::usbisr()+0x198>)
    1286:	6809      	ldr	r1, [r1, #0]
    1288:	430a      	orrs	r2, r1
    128a:	601a      	str	r2, [r3, #0]
    128c:	681b      	ldr	r3, [r3, #0]
    128e:	0399      	lsls	r1, r3, #14
    1290:	d432      	bmi.n	12f8 <USBHAL::usbisr()+0x184>
    1292:	4b1c      	ldr	r3, [pc, #112]	; (1304 <USBHAL::usbisr()+0x190>)
    1294:	2280      	movs	r2, #128	; 0x80
    1296:	6819      	ldr	r1, [r3, #0]
    1298:	04d2      	lsls	r2, r2, #19
    129a:	4211      	tst	r1, r2
    129c:	d100      	bne.n	12a0 <USBHAL::usbisr()+0x12c>
    129e:	e779      	b.n	1194 <USBHAL::usbisr()+0x20>
    12a0:	491a      	ldr	r1, [pc, #104]	; (130c <USBHAL::usbisr()+0x198>)
    12a2:	1c28      	adds	r0, r5, #0
    12a4:	6809      	ldr	r1, [r1, #0]
    12a6:	430a      	orrs	r2, r1
    12a8:	601a      	str	r2, [r3, #0]
    12aa:	682b      	ldr	r3, [r5, #0]
    12ac:	2100      	movs	r1, #0
    12ae:	695b      	ldr	r3, [r3, #20]
    12b0:	4798      	blx	r3
    12b2:	4b15      	ldr	r3, [pc, #84]	; (1308 <USBHAL::usbisr()+0x194>)
    12b4:	2000      	movs	r0, #0
    12b6:	681c      	ldr	r4, [r3, #0]
    12b8:	2200      	movs	r2, #0
    12ba:	3410      	adds	r4, #16
    12bc:	2140      	movs	r1, #64	; 0x40
    12be:	1823      	adds	r3, r4, r0
    12c0:	3010      	adds	r0, #16
    12c2:	701a      	strb	r2, [r3, #0]
    12c4:	705a      	strb	r2, [r3, #1]
    12c6:	709a      	strb	r2, [r3, #2]
    12c8:	70d9      	strb	r1, [r3, #3]
    12ca:	711a      	strb	r2, [r3, #4]
    12cc:	715a      	strb	r2, [r3, #5]
    12ce:	719a      	strb	r2, [r3, #6]
    12d0:	71d9      	strb	r1, [r3, #7]
    12d2:	721a      	strb	r2, [r3, #8]
    12d4:	725a      	strb	r2, [r3, #9]
    12d6:	729a      	strb	r2, [r3, #10]
    12d8:	72d9      	strb	r1, [r3, #11]
    12da:	731a      	strb	r2, [r3, #12]
    12dc:	735a      	strb	r2, [r3, #13]
    12de:	739a      	strb	r2, [r3, #14]
    12e0:	73d9      	strb	r1, [r3, #15]
    12e2:	2840      	cmp	r0, #64	; 0x40
    12e4:	d1eb      	bne.n	12be <USBHAL::usbisr()+0x14a>
    12e6:	4b0c      	ldr	r3, [pc, #48]	; (1318 <USBHAL::usbisr()+0x1a4>)
    12e8:	1c28      	adds	r0, r5, #0
    12ea:	681a      	ldr	r2, [r3, #0]
    12ec:	4b0b      	ldr	r3, [pc, #44]	; (131c <USBHAL::usbisr()+0x1a8>)
    12ee:	601a      	str	r2, [r3, #0]
    12f0:	682b      	ldr	r3, [r5, #0]
    12f2:	681b      	ldr	r3, [r3, #0]
    12f4:	4798      	blx	r3
    12f6:	e74d      	b.n	1194 <USBHAL::usbisr()+0x20>
    12f8:	682b      	ldr	r3, [r5, #0]
    12fa:	1c28      	adds	r0, r5, #0
    12fc:	695b      	ldr	r3, [r3, #20]
    12fe:	2101      	movs	r1, #1
    1300:	4798      	blx	r3
    1302:	e7c6      	b.n	1292 <USBHAL::usbisr()+0x11e>
    1304:	40080000 	.word	0x40080000
    1308:	1000044c 	.word	0x1000044c
    130c:	10000444 	.word	0x10000444
    1310:	10000398 	.word	0x10000398
    1314:	10000448 	.word	0x10000448
    1318:	10000130 	.word	0x10000130
    131c:	1000043c 	.word	0x1000043c

00001320 <USBHAL::_usbisr()>:
    1320:	b508      	push	{r3, lr}
    1322:	4b02      	ldr	r3, [pc, #8]	; (132c <USBHAL::_usbisr()+0xc>)
    1324:	6818      	ldr	r0, [r3, #0]
    1326:	f7ff ff25 	bl	1174 <USBHAL::usbisr()>
    132a:	bd08      	pop	{r3, pc}
    132c:	10000398 	.word	0x10000398

00001330 <USBHID::HID_callbackSetReport(HID_REPORT*)>:
    1330:	4770      	bx	lr
    1332:	46c0      	nop			; (mov r8, r8)

00001334 <USBHID::reportDescLength()>:
    1334:	b510      	push	{r4, lr}
    1336:	6803      	ldr	r3, [r0, #0]
    1338:	1c04      	adds	r4, r0, #0
    133a:	6f5b      	ldr	r3, [r3, #116]	; 0x74
    133c:	4798      	blx	r3
    133e:	236c      	movs	r3, #108	; 0x6c
    1340:	5ae0      	ldrh	r0, [r4, r3]
    1342:	bd10      	pop	{r4, pc}

00001344 <USBHID::stringIinterfaceDesc()>:
    1344:	4800      	ldr	r0, [pc, #0]	; (1348 <USBHID::stringIinterfaceDesc()+0x4>)
    1346:	4770      	bx	lr
    1348:	10000194 	.word	0x10000194

0000134c <USBHID::stringIproductDesc()>:
    134c:	4800      	ldr	r0, [pc, #0]	; (1350 <USBHID::stringIproductDesc()+0x4>)
    134e:	4770      	bx	lr
    1350:	1000017c 	.word	0x1000017c

00001354 <USBHID::USBCallback_request()>:
    1354:	b538      	push	{r3, r4, r5, lr}
    1356:	1c05      	adds	r5, r0, #0
    1358:	f7ff fb32 	bl	9c0 <USBDevice::getTransferPtr()>
    135c:	7843      	ldrb	r3, [r0, #1]
    135e:	1c04      	adds	r4, r0, #0
    1360:	2b00      	cmp	r3, #0
    1362:	d11e      	bne.n	13a2 <USBHID::USBCallback_request()+0x4e>
    1364:	78c3      	ldrb	r3, [r0, #3]
    1366:	2b06      	cmp	r3, #6
    1368:	d130      	bne.n	13cc <USBHID::USBCallback_request()+0x78>
    136a:	8883      	ldrh	r3, [r0, #4]
    136c:	121b      	asrs	r3, r3, #8
    136e:	2b21      	cmp	r3, #33	; 0x21
    1370:	d02e      	beq.n	13d0 <USBHID::USBCallback_request()+0x7c>
    1372:	2b22      	cmp	r3, #34	; 0x22
    1374:	d12a      	bne.n	13cc <USBHID::USBCallback_request()+0x78>
    1376:	682b      	ldr	r3, [r5, #0]
    1378:	1c28      	adds	r0, r5, #0
    137a:	6f5b      	ldr	r3, [r3, #116]	; 0x74
    137c:	4798      	blx	r3
    137e:	2800      	cmp	r0, #0
    1380:	d034      	beq.n	13ec <USBHID::USBCallback_request()+0x98>
    1382:	682b      	ldr	r3, [r5, #0]
    1384:	1c28      	adds	r0, r5, #0
    1386:	6f1b      	ldr	r3, [r3, #112]	; 0x70
    1388:	4798      	blx	r3
    138a:	2800      	cmp	r0, #0
    138c:	d02e      	beq.n	13ec <USBHID::USBCallback_request()+0x98>
    138e:	682b      	ldr	r3, [r5, #0]
    1390:	1c28      	adds	r0, r5, #0
    1392:	6f1b      	ldr	r3, [r3, #112]	; 0x70
    1394:	4798      	blx	r3
    1396:	682b      	ldr	r3, [r5, #0]
    1398:	6120      	str	r0, [r4, #16]
    139a:	6f5b      	ldr	r3, [r3, #116]	; 0x74
    139c:	1c28      	adds	r0, r5, #0
    139e:	4798      	blx	r3
    13a0:	e01e      	b.n	13e0 <USBHID::USBCallback_request()+0x8c>
    13a2:	2000      	movs	r0, #0
    13a4:	2b01      	cmp	r3, #1
    13a6:	d110      	bne.n	13ca <USBHID::USBCallback_request()+0x76>
    13a8:	78e2      	ldrb	r2, [r4, #3]
    13aa:	2a09      	cmp	r2, #9
    13ac:	d10d      	bne.n	13ca <USBHID::USBCallback_request()+0x76>
    13ae:	88a1      	ldrh	r1, [r4, #4]
    13b0:	2274      	movs	r2, #116	; 0x74
    13b2:	54a9      	strb	r1, [r5, r2]
    13b4:	8922      	ldrh	r2, [r4, #8]
    13b6:	2001      	movs	r0, #1
    13b8:	3201      	adds	r2, #1
    13ba:	672a      	str	r2, [r5, #112]	; 0x70
    13bc:	223f      	movs	r2, #63	; 0x3f
    13be:	6122      	str	r2, [r4, #16]
    13c0:	3575      	adds	r5, #117	; 0x75
    13c2:	2200      	movs	r2, #0
    13c4:	60e5      	str	r5, [r4, #12]
    13c6:	7522      	strb	r2, [r4, #20]
    13c8:	75a3      	strb	r3, [r4, #22]
    13ca:	bd38      	pop	{r3, r4, r5, pc}
    13cc:	2000      	movs	r0, #0
    13ce:	e7fc      	b.n	13ca <USBHID::USBCallback_request()+0x76>
    13d0:	1c28      	adds	r0, r5, #0
    13d2:	2121      	movs	r1, #33	; 0x21
    13d4:	f7ff fafc 	bl	9d0 <USBDevice::findDescriptor(unsigned char)>
    13d8:	2800      	cmp	r0, #0
    13da:	d00a      	beq.n	13f2 <USBHID::USBCallback_request()+0x9e>
    13dc:	2309      	movs	r3, #9
    13de:	6123      	str	r3, [r4, #16]
    13e0:	2301      	movs	r3, #1
    13e2:	60e0      	str	r0, [r4, #12]
    13e4:	7523      	strb	r3, [r4, #20]
    13e6:	2001      	movs	r0, #1
    13e8:	7863      	ldrb	r3, [r4, #1]
    13ea:	e7db      	b.n	13a4 <USBHID::USBCallback_request()+0x50>
    13ec:	7863      	ldrb	r3, [r4, #1]
    13ee:	2000      	movs	r0, #0
    13f0:	e7d8      	b.n	13a4 <USBHID::USBCallback_request()+0x50>
    13f2:	7863      	ldrb	r3, [r4, #1]
    13f4:	e7d6      	b.n	13a4 <USBHID::USBCallback_request()+0x50>
    13f6:	46c0      	nop			; (mov r8, r8)

000013f8 <USBHID::reportDesc()>:
    13f8:	b570      	push	{r4, r5, r6, lr}
    13fa:	4c0d      	ldr	r4, [pc, #52]	; (1430 <USBHID::reportDesc()+0x38>)
    13fc:	1c05      	adds	r5, r0, #0
    13fe:	6823      	ldr	r3, [r4, #0]
    1400:	07db      	lsls	r3, r3, #31
    1402:	d505      	bpl.n	1410 <USBHID::reportDesc()+0x18>
    1404:	4e0b      	ldr	r6, [pc, #44]	; (1434 <USBHID::reportDesc()+0x3c>)
    1406:	221c      	movs	r2, #28
    1408:	236c      	movs	r3, #108	; 0x6c
    140a:	1c30      	adds	r0, r6, #0
    140c:	52ea      	strh	r2, [r5, r3]
    140e:	bd70      	pop	{r4, r5, r6, pc}
    1410:	1c20      	adds	r0, r4, #0
    1412:	f000 fd84 	bl	1f1e <__cxa_guard_acquire>
    1416:	4e07      	ldr	r6, [pc, #28]	; (1434 <USBHID::reportDesc()+0x3c>)
    1418:	2800      	cmp	r0, #0
    141a:	d0f4      	beq.n	1406 <USBHID::reportDesc()+0xe>
    141c:	23b5      	movs	r3, #181	; 0xb5
    141e:	5ceb      	ldrb	r3, [r5, r3]
    1420:	1c20      	adds	r0, r4, #0
    1422:	7433      	strb	r3, [r6, #16]
    1424:	23b4      	movs	r3, #180	; 0xb4
    1426:	5ceb      	ldrb	r3, [r5, r3]
    1428:	75b3      	strb	r3, [r6, #22]
    142a:	f000 fd87 	bl	1f3c <__cxa_guard_release>
    142e:	e7ea      	b.n	1406 <USBHID::reportDesc()+0xe>
    1430:	10000454 	.word	0x10000454
    1434:	10000134 	.word	0x10000134

00001438 <USBHID::USBCallback_setConfiguration(unsigned char)>:
    1438:	b510      	push	{r4, lr}
    143a:	1c04      	adds	r4, r0, #0
    143c:	2000      	movs	r0, #0
    143e:	2901      	cmp	r1, #1
    1440:	d000      	beq.n	1444 <USBHID::USBCallback_setConfiguration(unsigned char)+0xc>
    1442:	bd10      	pop	{r4, pc}
    1444:	2103      	movs	r1, #3
    1446:	2240      	movs	r2, #64	; 0x40
    1448:	1c20      	adds	r0, r4, #0
    144a:	f7ff fabb 	bl	9c4 <USBDevice::addEndpoint(unsigned char, unsigned long)>
    144e:	2102      	movs	r1, #2
    1450:	2240      	movs	r2, #64	; 0x40
    1452:	1c20      	adds	r0, r4, #0
    1454:	f7ff fab6 	bl	9c4 <USBDevice::addEndpoint(unsigned char, unsigned long)>
    1458:	1c20      	adds	r0, r4, #0
    145a:	2102      	movs	r1, #2
    145c:	2240      	movs	r2, #64	; 0x40
    145e:	f7ff fb0f 	bl	a80 <USBDevice::readStart(unsigned char, unsigned long)>
    1462:	2001      	movs	r0, #1
    1464:	e7ed      	b.n	1442 <USBHID::USBCallback_setConfiguration(unsigned char)+0xa>
    1466:	46c0      	nop			; (mov r8, r8)

00001468 <USBHID::configurationDesc()>:
    1468:	b570      	push	{r4, r5, r6, lr}
    146a:	4c0e      	ldr	r4, [pc, #56]	; (14a4 <USBHID::configurationDesc()+0x3c>)
    146c:	1c06      	adds	r6, r0, #0
    146e:	6823      	ldr	r3, [r4, #0]
    1470:	07db      	lsls	r3, r3, #31
    1472:	d502      	bpl.n	147a <USBHID::configurationDesc()+0x12>
    1474:	4d0c      	ldr	r5, [pc, #48]	; (14a8 <USBHID::configurationDesc()+0x40>)
    1476:	1c28      	adds	r0, r5, #0
    1478:	bd70      	pop	{r4, r5, r6, pc}
    147a:	1c20      	adds	r0, r4, #0
    147c:	f000 fd4f 	bl	1f1e <__cxa_guard_acquire>
    1480:	2800      	cmp	r0, #0
    1482:	d0f7      	beq.n	1474 <USBHID::configurationDesc()+0xc>
    1484:	6833      	ldr	r3, [r6, #0]
    1486:	1c30      	adds	r0, r6, #0
    1488:	6f1b      	ldr	r3, [r3, #112]	; 0x70
    148a:	4798      	blx	r3
    148c:	4d06      	ldr	r5, [pc, #24]	; (14a8 <USBHID::configurationDesc()+0x40>)
    148e:	7668      	strb	r0, [r5, #25]
    1490:	6833      	ldr	r3, [r6, #0]
    1492:	1c30      	adds	r0, r6, #0
    1494:	6f1b      	ldr	r3, [r3, #112]	; 0x70
    1496:	4798      	blx	r3
    1498:	0a00      	lsrs	r0, r0, #8
    149a:	76a8      	strb	r0, [r5, #26]
    149c:	1c20      	adds	r0, r4, #0
    149e:	f000 fd4d 	bl	1f3c <__cxa_guard_release>
    14a2:	e7e8      	b.n	1476 <USBHID::configurationDesc()+0xe>
    14a4:	10000450 	.word	0x10000450
    14a8:	10000150 	.word	0x10000150

000014ac <USBHID::USBHID(unsigned char, unsigned char, unsigned short, unsigned short, unsigned short, bool)>:
    14ac:	b5f8      	push	{r3, r4, r5, r6, r7, lr}
    14ae:	1c0f      	adds	r7, r1, #0
    14b0:	1c19      	adds	r1, r3, #0
    14b2:	ab06      	add	r3, sp, #24
    14b4:	1c04      	adds	r4, r0, #0
    14b6:	1c16      	adds	r6, r2, #0
    14b8:	a808      	add	r0, sp, #32
    14ba:	881a      	ldrh	r2, [r3, #0]
    14bc:	ab07      	add	r3, sp, #28
    14be:	881b      	ldrh	r3, [r3, #0]
    14c0:	7805      	ldrb	r5, [r0, #0]
    14c2:	1c20      	adds	r0, r4, #0
    14c4:	f7ff fac0 	bl	a48 <USBDevice::USBDevice(unsigned short, unsigned short, unsigned short)>
    14c8:	4b07      	ldr	r3, [pc, #28]	; (14e8 <USBHID::USBHID(unsigned char, unsigned char, unsigned short, unsigned short, unsigned short, bool)+0x3c>)
    14ca:	3308      	adds	r3, #8
    14cc:	6023      	str	r3, [r4, #0]
    14ce:	23b4      	movs	r3, #180	; 0xb4
    14d0:	54e7      	strb	r7, [r4, r3]
    14d2:	23b5      	movs	r3, #181	; 0xb5
    14d4:	54e6      	strb	r6, [r4, r3]
    14d6:	2d00      	cmp	r5, #0
    14d8:	d003      	beq.n	14e2 <USBHID::USBHID(unsigned char, unsigned char, unsigned short, unsigned short, unsigned short, bool)+0x36>
    14da:	1c20      	adds	r0, r4, #0
    14dc:	2101      	movs	r1, #1
    14de:	f7ff fa63 	bl	9a8 <USBDevice::connect(bool)>
    14e2:	1c20      	adds	r0, r4, #0
    14e4:	bdf8      	pop	{r3, r4, r5, r6, r7, pc}
    14e6:	46c0      	nop			; (mov r8, r8)
    14e8:	00006378 	.word	0x00006378

000014ec <USBHID::send(HID_REPORT*)>:
    14ec:	b500      	push	{lr}
    14ee:	680b      	ldr	r3, [r1, #0]
    14f0:	b083      	sub	sp, #12
    14f2:	1d0a      	adds	r2, r1, #4
    14f4:	2140      	movs	r1, #64	; 0x40
    14f6:	9100      	str	r1, [sp, #0]
    14f8:	2103      	movs	r1, #3
    14fa:	f7ff fac9 	bl	a90 <USBDevice::write(unsigned char, unsigned char*, unsigned long, unsigned long)>
    14fe:	b003      	add	sp, #12
    1500:	bd00      	pop	{pc}
    1502:	46c0      	nop			; (mov r8, r8)

00001504 <USBMouse::reportDesc()>:
    1504:	23b6      	movs	r3, #182	; 0xb6
    1506:	5cc3      	ldrb	r3, [r0, r3]
    1508:	2b01      	cmp	r3, #1
    150a:	d006      	beq.n	151a <USBMouse::reportDesc()+0x16>
    150c:	2b00      	cmp	r3, #0
    150e:	d109      	bne.n	1524 <USBMouse::reportDesc()+0x20>
    1510:	2241      	movs	r2, #65	; 0x41
    1512:	236c      	movs	r3, #108	; 0x6c
    1514:	52c2      	strh	r2, [r0, r3]
    1516:	4804      	ldr	r0, [pc, #16]	; (1528 <USBMouse::reportDesc()+0x24>)
    1518:	4770      	bx	lr
    151a:	2234      	movs	r2, #52	; 0x34
    151c:	236c      	movs	r3, #108	; 0x6c
    151e:	52c2      	strh	r2, [r0, r3]
    1520:	4802      	ldr	r0, [pc, #8]	; (152c <USBMouse::reportDesc()+0x28>)
    1522:	e7f9      	b.n	1518 <USBMouse::reportDesc()+0x14>
    1524:	2000      	movs	r0, #0
    1526:	e7f7      	b.n	1518 <USBMouse::reportDesc()+0x14>
    1528:	1000019c 	.word	0x1000019c
    152c:	1000020c 	.word	0x1000020c

00001530 <USBMouse::configurationDesc()>:
    1530:	b570      	push	{r4, r5, r6, lr}
    1532:	4c0e      	ldr	r4, [pc, #56]	; (156c <USBMouse::configurationDesc()+0x3c>)
    1534:	1c06      	adds	r6, r0, #0
    1536:	6823      	ldr	r3, [r4, #0]
    1538:	07db      	lsls	r3, r3, #31
    153a:	d502      	bpl.n	1542 <USBMouse::configurationDesc()+0x12>
    153c:	4d0c      	ldr	r5, [pc, #48]	; (1570 <USBMouse::configurationDesc()+0x40>)
    153e:	1c28      	adds	r0, r5, #0
    1540:	bd70      	pop	{r4, r5, r6, pc}
    1542:	1c20      	adds	r0, r4, #0
    1544:	f000 fceb 	bl	1f1e <__cxa_guard_acquire>
    1548:	2800      	cmp	r0, #0
    154a:	d0f7      	beq.n	153c <USBMouse::configurationDesc()+0xc>
    154c:	6833      	ldr	r3, [r6, #0]
    154e:	1c30      	adds	r0, r6, #0
    1550:	6f1b      	ldr	r3, [r3, #112]	; 0x70
    1552:	4798      	blx	r3
    1554:	4d06      	ldr	r5, [pc, #24]	; (1570 <USBMouse::configurationDesc()+0x40>)
    1556:	7668      	strb	r0, [r5, #25]
    1558:	6833      	ldr	r3, [r6, #0]
    155a:	1c30      	adds	r0, r6, #0
    155c:	6f1b      	ldr	r3, [r3, #112]	; 0x70
    155e:	4798      	blx	r3
    1560:	0a00      	lsrs	r0, r0, #8
    1562:	76a8      	strb	r0, [r5, #26]
    1564:	1c20      	adds	r0, r4, #0
    1566:	f000 fce9 	bl	1f3c <__cxa_guard_release>
    156a:	e7e8      	b.n	153e <USBMouse::configurationDesc()+0xe>
    156c:	10000458 	.word	0x10000458
    1570:	100001e0 	.word	0x100001e0

00001574 <USBMouse::update(short, short, unsigned char, signed char)>:
    1574:	b5f0      	push	{r4, r5, r6, r7, lr}
    1576:	464d      	mov	r5, r9
    1578:	465f      	mov	r7, r11
    157a:	4656      	mov	r6, r10
    157c:	4644      	mov	r4, r8
    157e:	b4f0      	push	{r4, r5, r6, r7}
    1580:	b093      	sub	sp, #76	; 0x4c
    1582:	4691      	mov	r9, r2
    1584:	2700      	movs	r7, #0
    1586:	aa1c      	add	r2, sp, #112	; 0x70
    1588:	57d7      	ldrsb	r7, [r2, r7]
    158a:	22b6      	movs	r2, #182	; 0xb6
    158c:	5c82      	ldrb	r2, [r0, r2]
    158e:	1c06      	adds	r6, r0, #0
    1590:	1c0d      	adds	r5, r1, #0
    1592:	2a00      	cmp	r2, #0
    1594:	d029      	beq.n	15ea <USBMouse::update(short, short, unsigned char, signed char)+0x76>
    1596:	2a01      	cmp	r2, #1
    1598:	d11f      	bne.n	15da <USBMouse::update(short, short, unsigned char, signed char)+0x66>
    159a:	2207      	movs	r2, #7
    159c:	401a      	ands	r2, r3
    159e:	427f      	negs	r7, r7
    15a0:	4690      	mov	r8, r2
    15a2:	b2ff      	uxtb	r7, r7
    15a4:	ac01      	add	r4, sp, #4
    15a6:	297f      	cmp	r1, #127	; 0x7f
    15a8:	dd33      	ble.n	1612 <USBMouse::update(short, short, unsigned char, signed char)+0x9e>
    15aa:	207f      	movs	r0, #127	; 0x7f
    15ac:	2200      	movs	r2, #0
    15ae:	4683      	mov	r11, r0
    15b0:	4692      	mov	r10, r2
    15b2:	e003      	b.n	15bc <USBMouse::update(short, short, unsigned char, signed char)+0x48>
    15b4:	3d7f      	subs	r5, #127	; 0x7f
    15b6:	b22d      	sxth	r5, r5
    15b8:	2d7f      	cmp	r5, #127	; 0x7f
    15ba:	dd2a      	ble.n	1612 <USBMouse::update(short, short, unsigned char, signed char)+0x9e>
    15bc:	4643      	mov	r3, r8
    15be:	4658      	mov	r0, r11
    15c0:	7123      	strb	r3, [r4, #4]
    15c2:	7160      	strb	r0, [r4, #5]
    15c4:	4652      	mov	r2, r10
    15c6:	2304      	movs	r3, #4
    15c8:	1c30      	adds	r0, r6, #0
    15ca:	1c21      	adds	r1, r4, #0
    15cc:	71a2      	strb	r2, [r4, #6]
    15ce:	71e7      	strb	r7, [r4, #7]
    15d0:	6023      	str	r3, [r4, #0]
    15d2:	f7ff ff8b 	bl	14ec <USBHID::send(HID_REPORT*)>
    15d6:	2800      	cmp	r0, #0
    15d8:	d1ec      	bne.n	15b4 <USBMouse::update(short, short, unsigned char, signed char)+0x40>
    15da:	2000      	movs	r0, #0
    15dc:	b013      	add	sp, #76	; 0x4c
    15de:	bc3c      	pop	{r2, r3, r4, r5}
    15e0:	4690      	mov	r8, r2
    15e2:	4699      	mov	r9, r3
    15e4:	46a2      	mov	r10, r4
    15e6:	46ab      	mov	r11, r5
    15e8:	bdf0      	pop	{r4, r5, r6, r7, pc}
    15ea:	a901      	add	r1, sp, #4
    15ec:	4648      	mov	r0, r9
    15ee:	7188      	strb	r0, [r1, #6]
    15f0:	4648      	mov	r0, r9
    15f2:	1202      	asrs	r2, r0, #8
    15f4:	71ca      	strb	r2, [r1, #7]
    15f6:	2207      	movs	r2, #7
    15f8:	4013      	ands	r3, r2
    15fa:	710d      	strb	r5, [r1, #4]
    15fc:	427f      	negs	r7, r7
    15fe:	122d      	asrs	r5, r5, #8
    1600:	724b      	strb	r3, [r1, #9]
    1602:	1c30      	adds	r0, r6, #0
    1604:	2306      	movs	r3, #6
    1606:	714d      	strb	r5, [r1, #5]
    1608:	720f      	strb	r7, [r1, #8]
    160a:	9301      	str	r3, [sp, #4]
    160c:	f7ff ff6e 	bl	14ec <USBHID::send(HID_REPORT*)>
    1610:	e7e4      	b.n	15dc <USBMouse::update(short, short, unsigned char, signed char)+0x68>
    1612:	1c28      	adds	r0, r5, #0
    1614:	3080      	adds	r0, #128	; 0x80
    1616:	da19      	bge.n	164c <USBMouse::update(short, short, unsigned char, signed char)+0xd8>
    1618:	2280      	movs	r2, #128	; 0x80
    161a:	2300      	movs	r3, #0
    161c:	4693      	mov	r11, r2
    161e:	469a      	mov	r10, r3
    1620:	e004      	b.n	162c <USBMouse::update(short, short, unsigned char, signed char)+0xb8>
    1622:	3580      	adds	r5, #128	; 0x80
    1624:	b22d      	sxth	r5, r5
    1626:	1c2a      	adds	r2, r5, #0
    1628:	3280      	adds	r2, #128	; 0x80
    162a:	da0f      	bge.n	164c <USBMouse::update(short, short, unsigned char, signed char)+0xd8>
    162c:	4640      	mov	r0, r8
    162e:	7120      	strb	r0, [r4, #4]
    1630:	2004      	movs	r0, #4
    1632:	465a      	mov	r2, r11
    1634:	4653      	mov	r3, r10
    1636:	6020      	str	r0, [r4, #0]
    1638:	1c21      	adds	r1, r4, #0
    163a:	1c30      	adds	r0, r6, #0
    163c:	7162      	strb	r2, [r4, #5]
    163e:	71a3      	strb	r3, [r4, #6]
    1640:	71e7      	strb	r7, [r4, #7]
    1642:	f7ff ff53 	bl	14ec <USBHID::send(HID_REPORT*)>
    1646:	2800      	cmp	r0, #0
    1648:	d1eb      	bne.n	1622 <USBMouse::update(short, short, unsigned char, signed char)+0xae>
    164a:	e7c6      	b.n	15da <USBMouse::update(short, short, unsigned char, signed char)+0x66>
    164c:	464b      	mov	r3, r9
    164e:	2b7f      	cmp	r3, #127	; 0x7f
    1650:	dd1a      	ble.n	1688 <USBMouse::update(short, short, unsigned char, signed char)+0x114>
    1652:	2000      	movs	r0, #0
    1654:	227f      	movs	r2, #127	; 0x7f
    1656:	4683      	mov	r11, r0
    1658:	4692      	mov	r10, r2
    165a:	e005      	b.n	1668 <USBMouse::update(short, short, unsigned char, signed char)+0xf4>
    165c:	464b      	mov	r3, r9
    165e:	3b7f      	subs	r3, #127	; 0x7f
    1660:	b218      	sxth	r0, r3
    1662:	4681      	mov	r9, r0
    1664:	287f      	cmp	r0, #127	; 0x7f
    1666:	dd0f      	ble.n	1688 <USBMouse::update(short, short, unsigned char, signed char)+0x114>
    1668:	4643      	mov	r3, r8
    166a:	4658      	mov	r0, r11
    166c:	7123      	strb	r3, [r4, #4]
    166e:	7160      	strb	r0, [r4, #5]
    1670:	4652      	mov	r2, r10
    1672:	2304      	movs	r3, #4
    1674:	1c30      	adds	r0, r6, #0
    1676:	1c21      	adds	r1, r4, #0
    1678:	71a2      	strb	r2, [r4, #6]
    167a:	71e7      	strb	r7, [r4, #7]
    167c:	6023      	str	r3, [r4, #0]
    167e:	f7ff ff35 	bl	14ec <USBHID::send(HID_REPORT*)>
    1682:	2800      	cmp	r0, #0
    1684:	d1ea      	bne.n	165c <USBMouse::update(short, short, unsigned char, signed char)+0xe8>
    1686:	e7a8      	b.n	15da <USBMouse::update(short, short, unsigned char, signed char)+0x66>
    1688:	464a      	mov	r2, r9
    168a:	3280      	adds	r2, #128	; 0x80
    168c:	da1a      	bge.n	16c4 <USBMouse::update(short, short, unsigned char, signed char)+0x150>
    168e:	2300      	movs	r3, #0
    1690:	2080      	movs	r0, #128	; 0x80
    1692:	469b      	mov	r11, r3
    1694:	4682      	mov	r10, r0
    1696:	e005      	b.n	16a4 <USBMouse::update(short, short, unsigned char, signed char)+0x130>
    1698:	464b      	mov	r3, r9
    169a:	3380      	adds	r3, #128	; 0x80
    169c:	b218      	sxth	r0, r3
    169e:	4681      	mov	r9, r0
    16a0:	3080      	adds	r0, #128	; 0x80
    16a2:	da0f      	bge.n	16c4 <USBMouse::update(short, short, unsigned char, signed char)+0x150>
    16a4:	4642      	mov	r2, r8
    16a6:	4650      	mov	r0, r10
    16a8:	7122      	strb	r2, [r4, #4]
    16aa:	465b      	mov	r3, r11
    16ac:	71a0      	strb	r0, [r4, #6]
    16ae:	2204      	movs	r2, #4
    16b0:	1c30      	adds	r0, r6, #0
    16b2:	1c21      	adds	r1, r4, #0
    16b4:	7163      	strb	r3, [r4, #5]
    16b6:	71e7      	strb	r7, [r4, #7]
    16b8:	6022      	str	r2, [r4, #0]
    16ba:	f7ff ff17 	bl	14ec <USBHID::send(HID_REPORT*)>
    16be:	2800      	cmp	r0, #0
    16c0:	d1ea      	bne.n	1698 <USBMouse::update(short, short, unsigned char, signed char)+0x124>
    16c2:	e78a      	b.n	15da <USBMouse::update(short, short, unsigned char, signed char)+0x66>
    16c4:	464b      	mov	r3, r9
    16c6:	4642      	mov	r2, r8
    16c8:	71a3      	strb	r3, [r4, #6]
    16ca:	1c30      	adds	r0, r6, #0
    16cc:	2304      	movs	r3, #4
    16ce:	1c21      	adds	r1, r4, #0
    16d0:	7122      	strb	r2, [r4, #4]
    16d2:	7165      	strb	r5, [r4, #5]
    16d4:	71e7      	strb	r7, [r4, #7]
    16d6:	9301      	str	r3, [sp, #4]
    16d8:	f7ff ff08 	bl	14ec <USBHID::send(HID_REPORT*)>
    16dc:	e77e      	b.n	15dc <USBMouse::update(short, short, unsigned char, signed char)+0x68>
    16de:	46c0      	nop			; (mov r8, r8)

000016e0 <USBMouse::move(short, short)>:
    16e0:	b510      	push	{r4, lr}
    16e2:	23b7      	movs	r3, #183	; 0xb7
    16e4:	b082      	sub	sp, #8
    16e6:	2400      	movs	r4, #0
    16e8:	5cc3      	ldrb	r3, [r0, r3]
    16ea:	9400      	str	r4, [sp, #0]
    16ec:	f7ff ff42 	bl	1574 <USBMouse::update(short, short, unsigned char, signed char)>
    16f0:	b002      	add	sp, #8
    16f2:	bd10      	pop	{r4, pc}

000016f4 <NVIC_SetVector>:
    16f4:	4b0c      	ldr	r3, [pc, #48]	; (1728 <NVIC_SetVector+0x34>)
    16f6:	2203      	movs	r2, #3
    16f8:	681b      	ldr	r3, [r3, #0]
    16fa:	b530      	push	{r4, r5, lr}
    16fc:	4013      	ands	r3, r2
    16fe:	2b01      	cmp	r3, #1
    1700:	d00c      	beq.n	171c <NVIC_SetVector+0x28>
    1702:	2380      	movs	r3, #128	; 0x80
    1704:	4c09      	ldr	r4, [pc, #36]	; (172c <NVIC_SetVector+0x38>)
    1706:	055b      	lsls	r3, r3, #21
    1708:	25f0      	movs	r5, #240	; 0xf0
    170a:	062d      	lsls	r5, r5, #24
    170c:	195a      	adds	r2, r3, r5
    170e:	6812      	ldr	r2, [r2, #0]
    1710:	c304      	stmia	r3!, {r2}
    1712:	42a3      	cmp	r3, r4
    1714:	d1f8      	bne.n	1708 <NVIC_SetVector+0x14>
    1716:	4b04      	ldr	r3, [pc, #16]	; (1728 <NVIC_SetVector+0x34>)
    1718:	2201      	movs	r2, #1
    171a:	601a      	str	r2, [r3, #0]
    171c:	4b04      	ldr	r3, [pc, #16]	; (1730 <NVIC_SetVector+0x3c>)
    171e:	0080      	lsls	r0, r0, #2
    1720:	18c0      	adds	r0, r0, r3
    1722:	6001      	str	r1, [r0, #0]
    1724:	bd30      	pop	{r4, r5, pc}
    1726:	46c0      	nop			; (mov r8, r8)
    1728:	40048000 	.word	0x40048000
    172c:	100000c0 	.word	0x100000c0
    1730:	10000040 	.word	0x10000040

00001734 <exit>:
    1734:	b538      	push	{r3, r4, r5, lr}
    1736:	4c0b      	ldr	r4, [pc, #44]	; (1764 <exit+0x30>)
    1738:	1c05      	adds	r5, r0, #0
    173a:	6823      	ldr	r3, [r4, #0]
    173c:	6898      	ldr	r0, [r3, #8]
    173e:	f001 fcab 	bl	3098 <fflush>
    1742:	6823      	ldr	r3, [r4, #0]
    1744:	68d8      	ldr	r0, [r3, #12]
    1746:	f001 fca7 	bl	3098 <fflush>
    174a:	f000 f80d 	bl	1768 <mbed_interface_connected>
    174e:	2800      	cmp	r0, #0
    1750:	d105      	bne.n	175e <exit+0x2a>
    1752:	2d00      	cmp	r5, #0
    1754:	d100      	bne.n	1758 <exit+0x24>
    1756:	e7fe      	b.n	1756 <exit+0x22>
    1758:	f000 fa80 	bl	1c5c <mbed_die>
    175c:	e7fb      	b.n	1756 <exit+0x22>
    175e:	f000 f807 	bl	1770 <semihost_exit>
    1762:	e7f6      	b.n	1752 <exit+0x1e>
    1764:	100002ac 	.word	0x100002ac

00001768 <mbed_interface_connected>:
    1768:	b508      	push	{r3, lr}
    176a:	f000 f80d 	bl	1788 <semihost_connected>
    176e:	bd08      	pop	{r3, pc}

00001770 <semihost_exit>:
    1770:	b530      	push	{r4, r5, lr}
    1772:	b085      	sub	sp, #20
    1774:	466d      	mov	r5, sp
    1776:	2418      	movs	r4, #24
    1778:	1c20      	adds	r0, r4, #0
    177a:	1c29      	adds	r1, r5, #0
    177c:	beab      	bkpt	0x00ab
    177e:	1c04      	adds	r4, r0, #0
    1780:	1c20      	adds	r0, r4, #0
    1782:	b005      	add	sp, #20
    1784:	bd30      	pop	{r4, r5, pc}
    1786:	46c0      	nop			; (mov r8, r8)

00001788 <semihost_connected>:
    1788:	4b01      	ldr	r3, [pc, #4]	; (1790 <semihost_connected+0x8>)
    178a:	6818      	ldr	r0, [r3, #0]
    178c:	4770      	bx	lr
    178e:	46c0      	nop			; (mov r8, r8)
    1790:	10000240 	.word	0x10000240

00001794 <wait_us>:
    1794:	b538      	push	{r3, r4, r5, lr}
    1796:	1c05      	adds	r5, r0, #0
    1798:	f000 fa3a 	bl	1c10 <us_ticker_read>
    179c:	1c04      	adds	r4, r0, #0
    179e:	f000 fa37 	bl	1c10 <us_ticker_read>
    17a2:	1b03      	subs	r3, r0, r4
    17a4:	42ab      	cmp	r3, r5
    17a6:	d3fa      	bcc.n	179e <wait_us+0xa>
    17a8:	bd38      	pop	{r3, r4, r5, pc}
    17aa:	46c0      	nop			; (mov r8, r8)

000017ac <wait>:
    17ac:	b508      	push	{r3, lr}
    17ae:	4904      	ldr	r1, [pc, #16]	; (17c0 <wait+0x14>)
    17b0:	f000 fc18 	bl	1fe4 <__aeabi_fmul>
    17b4:	f000 fd40 	bl	2238 <__aeabi_f2iz>
    17b8:	f7ff ffec 	bl	1794 <wait_us>
    17bc:	bd08      	pop	{r3, pc}
    17be:	46c0      	nop			; (mov r8, r8)
    17c0:	49742400 	.word	0x49742400

000017c4 <wait_ms>:
    17c4:	b508      	push	{r3, lr}
    17c6:	23fa      	movs	r3, #250	; 0xfa
    17c8:	009b      	lsls	r3, r3, #2
    17ca:	4358      	muls	r0, r3
    17cc:	f7ff ffe2 	bl	1794 <wait_us>
    17d0:	bd08      	pop	{r3, pc}
    17d2:	46c0      	nop			; (mov r8, r8)

000017d4 <init_serial() [clone .part.0]>:
    17d4:	b508      	push	{r3, lr}
    17d6:	4803      	ldr	r0, [pc, #12]	; (17e4 <init_serial() [clone .part.0]+0x10>)
    17d8:	2113      	movs	r1, #19
    17da:	2212      	movs	r2, #18
    17dc:	f000 f97a 	bl	1ad4 <serial_init>
    17e0:	bd08      	pop	{r3, pc}
    17e2:	46c0      	nop			; (mov r8, r8)
    17e4:	10000574 	.word	0x10000574

000017e8 <_close>:
    17e8:	b508      	push	{r3, lr}
    17ea:	2300      	movs	r3, #0
    17ec:	2802      	cmp	r0, #2
    17ee:	dd0a      	ble.n	1806 <_close+0x1e>
    17f0:	3803      	subs	r0, #3
    17f2:	4a07      	ldr	r2, [pc, #28]	; (1810 <_close+0x28>)
    17f4:	0081      	lsls	r1, r0, #2
    17f6:	5888      	ldr	r0, [r1, r2]
    17f8:	508b      	str	r3, [r1, r2]
    17fa:	2800      	cmp	r0, #0
    17fc:	d005      	beq.n	180a <_close+0x22>
    17fe:	6803      	ldr	r3, [r0, #0]
    1800:	685b      	ldr	r3, [r3, #4]
    1802:	4798      	blx	r3
    1804:	1c03      	adds	r3, r0, #0
    1806:	1c18      	adds	r0, r3, #0
    1808:	bd08      	pop	{r3, pc}
    180a:	2301      	movs	r3, #1
    180c:	425b      	negs	r3, r3
    180e:	e7fa      	b.n	1806 <_close+0x1e>
    1810:	1000045c 	.word	0x1000045c

00001814 <_write>:
    1814:	b5f8      	push	{r3, r4, r5, r6, r7, lr}
    1816:	1c0c      	adds	r4, r1, #0
    1818:	1c17      	adds	r7, r2, #0
    181a:	2802      	cmp	r0, #2
    181c:	dc12      	bgt.n	1844 <_write+0x30>
    181e:	4b10      	ldr	r3, [pc, #64]	; (1860 <_write+0x4c>)
    1820:	681b      	ldr	r3, [r3, #0]
    1822:	2b00      	cmp	r3, #0
    1824:	d101      	bne.n	182a <_write+0x16>
    1826:	f7ff ffd5 	bl	17d4 <init_serial() [clone .part.0]>
    182a:	2f00      	cmp	r7, #0
    182c:	d008      	beq.n	1840 <_write+0x2c>
    182e:	4d0d      	ldr	r5, [pc, #52]	; (1864 <_write+0x50>)
    1830:	19e6      	adds	r6, r4, r7
    1832:	7821      	ldrb	r1, [r4, #0]
    1834:	1c28      	adds	r0, r5, #0
    1836:	3401      	adds	r4, #1
    1838:	f000 f9b2 	bl	1ba0 <serial_putc>
    183c:	42b4      	cmp	r4, r6
    183e:	d1f8      	bne.n	1832 <_write+0x1e>
    1840:	1c38      	adds	r0, r7, #0
    1842:	bdf8      	pop	{r3, r4, r5, r6, r7, pc}
    1844:	3803      	subs	r0, #3
    1846:	4b08      	ldr	r3, [pc, #32]	; (1868 <_write+0x54>)
    1848:	0080      	lsls	r0, r0, #2
    184a:	58c0      	ldr	r0, [r0, r3]
    184c:	2800      	cmp	r0, #0
    184e:	d003      	beq.n	1858 <_write+0x44>
    1850:	6803      	ldr	r3, [r0, #0]
    1852:	681b      	ldr	r3, [r3, #0]
    1854:	4798      	blx	r3
    1856:	e7f4      	b.n	1842 <_write+0x2e>
    1858:	2001      	movs	r0, #1
    185a:	4240      	negs	r0, r0
    185c:	e7f1      	b.n	1842 <_write+0x2e>
    185e:	46c0      	nop			; (mov r8, r8)
    1860:	1000055c 	.word	0x1000055c
    1864:	10000574 	.word	0x10000574
    1868:	1000045c 	.word	0x1000045c

0000186c <_read>:
    186c:	b510      	push	{r4, lr}
    186e:	1c0c      	adds	r4, r1, #0
    1870:	2802      	cmp	r0, #2
    1872:	dc09      	bgt.n	1888 <_read+0x1c>
    1874:	4b0c      	ldr	r3, [pc, #48]	; (18a8 <_read+0x3c>)
    1876:	681b      	ldr	r3, [r3, #0]
    1878:	2b00      	cmp	r3, #0
    187a:	d00f      	beq.n	189c <_read+0x30>
    187c:	480b      	ldr	r0, [pc, #44]	; (18ac <_read+0x40>)
    187e:	f000 f987 	bl	1b90 <serial_getc>
    1882:	7020      	strb	r0, [r4, #0]
    1884:	2001      	movs	r0, #1
    1886:	bd10      	pop	{r4, pc}
    1888:	3803      	subs	r0, #3
    188a:	4b09      	ldr	r3, [pc, #36]	; (18b0 <_read+0x44>)
    188c:	0080      	lsls	r0, r0, #2
    188e:	58c0      	ldr	r0, [r0, r3]
    1890:	2800      	cmp	r0, #0
    1892:	d006      	beq.n	18a2 <_read+0x36>
    1894:	6803      	ldr	r3, [r0, #0]
    1896:	689b      	ldr	r3, [r3, #8]
    1898:	4798      	blx	r3
    189a:	e7f4      	b.n	1886 <_read+0x1a>
    189c:	f7ff ff9a 	bl	17d4 <init_serial() [clone .part.0]>
    18a0:	e7ec      	b.n	187c <_read+0x10>
    18a2:	2001      	movs	r0, #1
    18a4:	4240      	negs	r0, r0
    18a6:	e7ee      	b.n	1886 <_read+0x1a>
    18a8:	1000055c 	.word	0x1000055c
    18ac:	10000574 	.word	0x10000574
    18b0:	1000045c 	.word	0x1000045c

000018b4 <_isatty>:
    18b4:	b508      	push	{r3, lr}
    18b6:	1c03      	adds	r3, r0, #0
    18b8:	2001      	movs	r0, #1
    18ba:	2b02      	cmp	r3, #2
    18bc:	dd08      	ble.n	18d0 <_isatty+0x1c>
    18be:	3b03      	subs	r3, #3
    18c0:	4a05      	ldr	r2, [pc, #20]	; (18d8 <_isatty+0x24>)
    18c2:	009b      	lsls	r3, r3, #2
    18c4:	5898      	ldr	r0, [r3, r2]
    18c6:	2800      	cmp	r0, #0
    18c8:	d003      	beq.n	18d2 <_isatty+0x1e>
    18ca:	6803      	ldr	r3, [r0, #0]
    18cc:	68db      	ldr	r3, [r3, #12]
    18ce:	4798      	blx	r3
    18d0:	bd08      	pop	{r3, pc}
    18d2:	2001      	movs	r0, #1
    18d4:	4240      	negs	r0, r0
    18d6:	e7fb      	b.n	18d0 <_isatty+0x1c>
    18d8:	1000045c 	.word	0x1000045c

000018dc <_lseek>:
    18dc:	b508      	push	{r3, lr}
    18de:	1c03      	adds	r3, r0, #0
    18e0:	2000      	movs	r0, #0
    18e2:	2b02      	cmp	r3, #2
    18e4:	dd08      	ble.n	18f8 <_lseek+0x1c>
    18e6:	3b03      	subs	r3, #3
    18e8:	4805      	ldr	r0, [pc, #20]	; (1900 <_lseek+0x24>)
    18ea:	009b      	lsls	r3, r3, #2
    18ec:	5818      	ldr	r0, [r3, r0]
    18ee:	2800      	cmp	r0, #0
    18f0:	d003      	beq.n	18fa <_lseek+0x1e>
    18f2:	6803      	ldr	r3, [r0, #0]
    18f4:	691b      	ldr	r3, [r3, #16]
    18f6:	4798      	blx	r3
    18f8:	bd08      	pop	{r3, pc}
    18fa:	2001      	movs	r0, #1
    18fc:	4240      	negs	r0, r0
    18fe:	e7fb      	b.n	18f8 <_lseek+0x1c>
    1900:	1000045c 	.word	0x1000045c

00001904 <_fstat>:
    1904:	b508      	push	{r3, lr}
    1906:	2802      	cmp	r0, #2
    1908:	d804      	bhi.n	1914 <_fstat+0x10>
    190a:	2380      	movs	r3, #128	; 0x80
    190c:	019b      	lsls	r3, r3, #6
    190e:	604b      	str	r3, [r1, #4]
    1910:	2000      	movs	r0, #0
    1912:	bd08      	pop	{r3, pc}
    1914:	f001 fb04 	bl	2f20 <__errno>
    1918:	2309      	movs	r3, #9
    191a:	6003      	str	r3, [r0, #0]
    191c:	2001      	movs	r0, #1
    191e:	4240      	negs	r0, r0
    1920:	e7f7      	b.n	1912 <_fstat+0xe>
    1922:	46c0      	nop			; (mov r8, r8)

00001924 <_sbrk>:
    1924:	4a07      	ldr	r2, [pc, #28]	; (1944 <_sbrk+0x20>)
    1926:	6813      	ldr	r3, [r2, #0]
    1928:	1818      	adds	r0, r3, r0
    192a:	f3ef 8108 	mrs	r1, MSP
    192e:	4288      	cmp	r0, r1
    1930:	d202      	bcs.n	1938 <_sbrk+0x14>
    1932:	6010      	str	r0, [r2, #0]
    1934:	1c18      	adds	r0, r3, #0
    1936:	4770      	bx	lr
    1938:	4b03      	ldr	r3, [pc, #12]	; (1948 <_sbrk+0x24>)
    193a:	220c      	movs	r2, #12
    193c:	2001      	movs	r0, #1
    193e:	601a      	str	r2, [r3, #0]
    1940:	4240      	negs	r0, r0
    1942:	e7f8      	b.n	1936 <_sbrk+0x12>
    1944:	10000244 	.word	0x10000244
    1948:	1000057c 	.word	0x1000057c

0000194c <NMI_Handler>:
    194c:	e7fe      	b.n	194c <NMI_Handler>

0000194e <HardFault_Handler>:
    194e:	e7fe      	b.n	194e <HardFault_Handler>

00001950 <SVC_Handler>:
    1950:	e7fe      	b.n	1950 <SVC_Handler>

00001952 <PendSV_Handler>:
    1952:	e7fe      	b.n	1952 <PendSV_Handler>

00001954 <SysTick_Handler>:
    1954:	e7fe      	b.n	1954 <SysTick_Handler>

00001956 <ADC_IRQHandler>:
    1956:	e7fe      	b.n	1956 <ADC_IRQHandler>

00001958 <serial_baud>:
    1958:	b5f0      	push	{r4, r5, r6, r7, lr}
    195a:	4644      	mov	r4, r8
    195c:	465f      	mov	r7, r11
    195e:	4656      	mov	r6, r10
    1960:	464d      	mov	r5, r9
    1962:	b4f0      	push	{r4, r5, r6, r7}
    1964:	4a59      	ldr	r2, [pc, #356]	; (1acc <serial_baud+0x174>)
    1966:	b08d      	sub	sp, #52	; 0x34
    1968:	4688      	mov	r8, r1
    196a:	2398      	movs	r3, #152	; 0x98
    196c:	2101      	movs	r1, #1
    196e:	900b      	str	r0, [sp, #44]	; 0x2c
    1970:	50d1      	str	r1, [r2, r3]
    1972:	4b57      	ldr	r3, [pc, #348]	; (1ad0 <serial_baud+0x178>)
    1974:	4641      	mov	r1, r8
    1976:	681b      	ldr	r3, [r3, #0]
    1978:	010c      	lsls	r4, r1, #4
    197a:	1c18      	adds	r0, r3, #0
    197c:	1c21      	adds	r1, r4, #0
    197e:	9308      	str	r3, [sp, #32]
    1980:	f000 fae0 	bl	1f44 <__aeabi_uidiv>
    1984:	b280      	uxth	r0, r0
    1986:	9004      	str	r0, [sp, #16]
    1988:	1c21      	adds	r1, r4, #0
    198a:	9808      	ldr	r0, [sp, #32]
    198c:	f000 fb1e 	bl	1fcc <__aeabi_uidivmod>
    1990:	2010      	movs	r0, #16
    1992:	2900      	cmp	r1, #0
    1994:	d067      	beq.n	1a66 <serial_baud+0x10e>
    1996:	9c08      	ldr	r4, [sp, #32]
    1998:	46c3      	mov	r11, r8
    199a:	0064      	lsls	r4, r4, #1
    199c:	940a      	str	r4, [sp, #40]	; 0x28
    199e:	9c08      	ldr	r4, [sp, #32]
    19a0:	00a4      	lsls	r4, r4, #2
    19a2:	9409      	str	r4, [sp, #36]	; 0x24
    19a4:	4644      	mov	r4, r8
    19a6:	9407      	str	r4, [sp, #28]
    19a8:	9c09      	ldr	r4, [sp, #36]	; 0x24
    19aa:	9403      	str	r4, [sp, #12]
    19ac:	9c0a      	ldr	r4, [sp, #40]	; 0x28
    19ae:	9400      	str	r4, [sp, #0]
    19b0:	9c08      	ldr	r4, [sp, #32]
    19b2:	9402      	str	r4, [sp, #8]
    19b4:	2401      	movs	r4, #1
    19b6:	9401      	str	r4, [sp, #4]
    19b8:	9406      	str	r4, [sp, #24]
    19ba:	2400      	movs	r4, #0
    19bc:	9405      	str	r4, [sp, #20]
    19be:	9c01      	ldr	r4, [sp, #4]
    19c0:	9f07      	ldr	r7, [sp, #28]
    19c2:	b2e4      	uxtb	r4, r4
    19c4:	46a2      	mov	r10, r4
    19c6:	2500      	movs	r5, #0
    19c8:	2600      	movs	r6, #0
    19ca:	9c00      	ldr	r4, [sp, #0]
    19cc:	2c00      	cmp	r4, #0
    19ce:	db69      	blt.n	1aa4 <serial_baud+0x14c>
    19d0:	9803      	ldr	r0, [sp, #12]
    19d2:	1c39      	adds	r1, r7, #0
    19d4:	f000 fab6 	bl	1f44 <__aeabi_uidiv>
    19d8:	9c01      	ldr	r4, [sp, #4]
    19da:	1964      	adds	r4, r4, r5
    19dc:	46a1      	mov	r9, r4
    19de:	0944      	lsrs	r4, r0, #5
    19e0:	3401      	adds	r4, #1
    19e2:	0864      	lsrs	r4, r4, #1
    19e4:	b2a4      	uxth	r4, r4
    19e6:	2c00      	cmp	r4, #0
    19e8:	d155      	bne.n	1a96 <serial_baud+0x13e>
    19ea:	2102      	movs	r1, #2
    19ec:	2402      	movs	r4, #2
    19ee:	2e00      	cmp	r6, #0
    19f0:	d101      	bne.n	19f6 <serial_baud+0x9e>
    19f2:	2401      	movs	r4, #1
    19f4:	1c21      	adds	r1, r4, #0
    19f6:	464a      	mov	r2, r9
    19f8:	4351      	muls	r1, r2
    19fa:	9802      	ldr	r0, [sp, #8]
    19fc:	00c9      	lsls	r1, r1, #3
    19fe:	f000 faa1 	bl	1f44 <__aeabi_uidiv>
    1a02:	3001      	adds	r0, #1
    1a04:	0840      	lsrs	r0, r0, #1
    1a06:	4643      	mov	r3, r8
    1a08:	1ac0      	subs	r0, r0, r3
    1a0a:	17c1      	asrs	r1, r0, #31
    1a0c:	1840      	adds	r0, r0, r1
    1a0e:	4048      	eors	r0, r1
    1a10:	4558      	cmp	r0, r11
    1a12:	da06      	bge.n	1a22 <serial_baud+0xca>
    1a14:	4540      	cmp	r0, r8
    1a16:	d051      	beq.n	1abc <serial_baud+0x164>
    1a18:	4653      	mov	r3, r10
    1a1a:	4683      	mov	r11, r0
    1a1c:	9306      	str	r3, [sp, #24]
    1a1e:	9605      	str	r6, [sp, #20]
    1a20:	9404      	str	r4, [sp, #16]
    1a22:	3501      	adds	r5, #1
    1a24:	b2ee      	uxtb	r6, r5
    1a26:	4447      	add	r7, r8
    1a28:	45b2      	cmp	r10, r6
    1a2a:	d8ce      	bhi.n	19ca <serial_baud+0x72>
    1a2c:	2300      	movs	r3, #0
    1a2e:	9c01      	ldr	r4, [sp, #4]
    1a30:	2c0f      	cmp	r4, #15
    1a32:	d014      	beq.n	1a5e <serial_baud+0x106>
    1a34:	9c02      	ldr	r4, [sp, #8]
    1a36:	9908      	ldr	r1, [sp, #32]
    1a38:	9a07      	ldr	r2, [sp, #28]
    1a3a:	1864      	adds	r4, r4, r1
    1a3c:	9402      	str	r4, [sp, #8]
    1a3e:	9c01      	ldr	r4, [sp, #4]
    1a40:	990a      	ldr	r1, [sp, #40]	; 0x28
    1a42:	3401      	adds	r4, #1
    1a44:	9401      	str	r4, [sp, #4]
    1a46:	9c00      	ldr	r4, [sp, #0]
    1a48:	1864      	adds	r4, r4, r1
    1a4a:	9400      	str	r4, [sp, #0]
    1a4c:	9909      	ldr	r1, [sp, #36]	; 0x24
    1a4e:	9c03      	ldr	r4, [sp, #12]
    1a50:	1864      	adds	r4, r4, r1
    1a52:	9403      	str	r4, [sp, #12]
    1a54:	1c14      	adds	r4, r2, #0
    1a56:	4444      	add	r4, r8
    1a58:	9407      	str	r4, [sp, #28]
    1a5a:	2b00      	cmp	r3, #0
    1a5c:	d0af      	beq.n	19be <serial_baud+0x66>
    1a5e:	9c06      	ldr	r4, [sp, #24]
    1a60:	0120      	lsls	r0, r4, #4
    1a62:	9c05      	ldr	r4, [sp, #20]
    1a64:	4320      	orrs	r0, r4
    1a66:	9c0b      	ldr	r4, [sp, #44]	; 0x2c
    1a68:	2280      	movs	r2, #128	; 0x80
    1a6a:	6823      	ldr	r3, [r4, #0]
    1a6c:	9c04      	ldr	r4, [sp, #16]
    1a6e:	68d9      	ldr	r1, [r3, #12]
    1a70:	4311      	orrs	r1, r2
    1a72:	60d9      	str	r1, [r3, #12]
    1a74:	0a21      	lsrs	r1, r4, #8
    1a76:	b289      	uxth	r1, r1
    1a78:	6059      	str	r1, [r3, #4]
    1a7a:	21ff      	movs	r1, #255	; 0xff
    1a7c:	4021      	ands	r1, r4
    1a7e:	6019      	str	r1, [r3, #0]
    1a80:	6298      	str	r0, [r3, #40]	; 0x28
    1a82:	68d9      	ldr	r1, [r3, #12]
    1a84:	4391      	bics	r1, r2
    1a86:	60d9      	str	r1, [r3, #12]
    1a88:	b00d      	add	sp, #52	; 0x34
    1a8a:	bc3c      	pop	{r2, r3, r4, r5}
    1a8c:	4690      	mov	r8, r2
    1a8e:	4699      	mov	r9, r3
    1a90:	46a2      	mov	r10, r4
    1a92:	46ab      	mov	r11, r5
    1a94:	bdf0      	pop	{r4, r5, r6, r7, pc}
    1a96:	2e00      	cmp	r6, #0
    1a98:	d0ac      	beq.n	19f4 <serial_baud+0x9c>
    1a9a:	2c01      	cmp	r4, #1
    1a9c:	d8aa      	bhi.n	19f4 <serial_baud+0x9c>
    1a9e:	2102      	movs	r1, #2
    1aa0:	2402      	movs	r4, #2
    1aa2:	e7a8      	b.n	19f6 <serial_baud+0x9e>
    1aa4:	9800      	ldr	r0, [sp, #0]
    1aa6:	1c39      	adds	r1, r7, #0
    1aa8:	f000 fa4c 	bl	1f44 <__aeabi_uidiv>
    1aac:	9c01      	ldr	r4, [sp, #4]
    1aae:	1964      	adds	r4, r4, r5
    1ab0:	46a1      	mov	r9, r4
    1ab2:	0904      	lsrs	r4, r0, #4
    1ab4:	3401      	adds	r4, #1
    1ab6:	0864      	lsrs	r4, r4, #1
    1ab8:	b2a4      	uxth	r4, r4
    1aba:	e794      	b.n	19e6 <serial_baud+0x8e>
    1abc:	4652      	mov	r2, r10
    1abe:	46c3      	mov	r11, r8
    1ac0:	9206      	str	r2, [sp, #24]
    1ac2:	9605      	str	r6, [sp, #20]
    1ac4:	9404      	str	r4, [sp, #16]
    1ac6:	2301      	movs	r3, #1
    1ac8:	e7b1      	b.n	1a2e <serial_baud+0xd6>
    1aca:	46c0      	nop			; (mov r8, r8)
    1acc:	40048000 	.word	0x40048000
    1ad0:	10000248 	.word	0x10000248

00001ad4 <serial_init>:
    1ad4:	b5f8      	push	{r3, r4, r5, r6, r7, lr}
    1ad6:	4b28      	ldr	r3, [pc, #160]	; (1b78 <serial_init+0xa4>)
    1ad8:	464f      	mov	r7, r9
    1ada:	4646      	mov	r6, r8
    1adc:	b4c0      	push	{r6, r7}
    1ade:	1c04      	adds	r4, r0, #0
    1ae0:	1c0f      	adds	r7, r1, #0
    1ae2:	1c08      	adds	r0, r1, #0
    1ae4:	1c19      	adds	r1, r3, #0
    1ae6:	1c16      	adds	r6, r2, #0
    1ae8:	4699      	mov	r9, r3
    1aea:	f000 f93d 	bl	1d68 <pinmap_peripheral>
    1aee:	4b23      	ldr	r3, [pc, #140]	; (1b7c <serial_init+0xa8>)
    1af0:	1c05      	adds	r5, r0, #0
    1af2:	1c19      	adds	r1, r3, #0
    1af4:	1c30      	adds	r0, r6, #0
    1af6:	4698      	mov	r8, r3
    1af8:	f000 f936 	bl	1d68 <pinmap_peripheral>
    1afc:	1c01      	adds	r1, r0, #0
    1afe:	1c28      	adds	r0, r5, #0
    1b00:	f000 f920 	bl	1d44 <pinmap_merge>
    1b04:	4a1e      	ldr	r2, [pc, #120]	; (1b80 <serial_init+0xac>)
    1b06:	2380      	movs	r3, #128	; 0x80
    1b08:	6020      	str	r0, [r4, #0]
    1b0a:	1c05      	adds	r5, r0, #0
    1b0c:	2180      	movs	r1, #128	; 0x80
    1b0e:	58d0      	ldr	r0, [r2, r3]
    1b10:	0149      	lsls	r1, r1, #5
    1b12:	4301      	orrs	r1, r0
    1b14:	50d1      	str	r1, [r2, r3]
    1b16:	2301      	movs	r3, #1
    1b18:	60ab      	str	r3, [r5, #8]
    1b1a:	2196      	movs	r1, #150	; 0x96
    1b1c:	2300      	movs	r3, #0
    1b1e:	606b      	str	r3, [r5, #4]
    1b20:	1c20      	adds	r0, r4, #0
    1b22:	0189      	lsls	r1, r1, #6
    1b24:	f7ff ff18 	bl	1958 <serial_baud>
    1b28:	6823      	ldr	r3, [r4, #0]
    1b2a:	2203      	movs	r2, #3
    1b2c:	60da      	str	r2, [r3, #12]
    1b2e:	1c38      	adds	r0, r7, #0
    1b30:	4649      	mov	r1, r9
    1b32:	f000 f8eb 	bl	1d0c <pinmap_pinout>
    1b36:	1c30      	adds	r0, r6, #0
    1b38:	4641      	mov	r1, r8
    1b3a:	f000 f8e7 	bl	1d0c <pinmap_pinout>
    1b3e:	1c7b      	adds	r3, r7, #1
    1b40:	d003      	beq.n	1b4a <serial_init+0x76>
    1b42:	1c38      	adds	r0, r7, #0
    1b44:	2102      	movs	r1, #2
    1b46:	f000 f9c3 	bl	1ed0 <pin_mode>
    1b4a:	1c73      	adds	r3, r6, #1
    1b4c:	d003      	beq.n	1b56 <serial_init+0x82>
    1b4e:	1c30      	adds	r0, r6, #0
    1b50:	2102      	movs	r1, #2
    1b52:	f000 f9bd 	bl	1ed0 <pin_mode>
    1b56:	4b0b      	ldr	r3, [pc, #44]	; (1b84 <serial_init+0xb0>)
    1b58:	429d      	cmp	r5, r3
    1b5a:	d109      	bne.n	1b70 <serial_init+0x9c>
    1b5c:	2300      	movs	r3, #0
    1b5e:	6063      	str	r3, [r4, #4]
    1b60:	4b09      	ldr	r3, [pc, #36]	; (1b88 <serial_init+0xb4>)
    1b62:	2201      	movs	r2, #1
    1b64:	601a      	str	r2, [r3, #0]
    1b66:	4809      	ldr	r0, [pc, #36]	; (1b8c <serial_init+0xb8>)
    1b68:	1c21      	adds	r1, r4, #0
    1b6a:	2208      	movs	r2, #8
    1b6c:	f001 fbb4 	bl	32d8 <memcpy>
    1b70:	bc0c      	pop	{r2, r3}
    1b72:	4690      	mov	r8, r2
    1b74:	4699      	mov	r9, r3
    1b76:	bdf8      	pop	{r3, r4, r5, r6, r7, pc}
    1b78:	000064b8 	.word	0x000064b8
    1b7c:	00006488 	.word	0x00006488
    1b80:	40048000 	.word	0x40048000
    1b84:	40008000 	.word	0x40008000
    1b88:	1000055c 	.word	0x1000055c
    1b8c:	10000574 	.word	0x10000574

00001b90 <serial_getc>:
    1b90:	6802      	ldr	r2, [r0, #0]
    1b92:	2101      	movs	r1, #1
    1b94:	6953      	ldr	r3, [r2, #20]
    1b96:	4219      	tst	r1, r3
    1b98:	d0fc      	beq.n	1b94 <serial_getc+0x4>
    1b9a:	6810      	ldr	r0, [r2, #0]
    1b9c:	4770      	bx	lr
    1b9e:	46c0      	nop			; (mov r8, r8)

00001ba0 <serial_putc>:
    1ba0:	6802      	ldr	r2, [r0, #0]
    1ba2:	2020      	movs	r0, #32
    1ba4:	6953      	ldr	r3, [r2, #20]
    1ba6:	4218      	tst	r0, r3
    1ba8:	d0fc      	beq.n	1ba4 <serial_putc+0x4>
    1baa:	6011      	str	r1, [r2, #0]
    1bac:	4770      	bx	lr
    1bae:	46c0      	nop			; (mov r8, r8)

00001bb0 <us_ticker_init>:
    1bb0:	b538      	push	{r3, r4, r5, lr}
    1bb2:	4b10      	ldr	r3, [pc, #64]	; (1bf4 <us_ticker_init+0x44>)
    1bb4:	681a      	ldr	r2, [r3, #0]
    1bb6:	2a00      	cmp	r2, #0
    1bb8:	d11b      	bne.n	1bf2 <us_ticker_init+0x42>
    1bba:	4a0f      	ldr	r2, [pc, #60]	; (1bf8 <us_ticker_init+0x48>)
    1bbc:	2501      	movs	r5, #1
    1bbe:	601d      	str	r5, [r3, #0]
    1bc0:	2380      	movs	r3, #128	; 0x80
    1bc2:	58d0      	ldr	r0, [r2, r3]
    1bc4:	2180      	movs	r1, #128	; 0x80
    1bc6:	00c9      	lsls	r1, r1, #3
    1bc8:	4301      	orrs	r1, r0
    1bca:	50d1      	str	r1, [r2, r3]
    1bcc:	4b0b      	ldr	r3, [pc, #44]	; (1bfc <us_ticker_init+0x4c>)
    1bce:	4c0c      	ldr	r4, [pc, #48]	; (1c00 <us_ticker_init+0x50>)
    1bd0:	6818      	ldr	r0, [r3, #0]
    1bd2:	2302      	movs	r3, #2
    1bd4:	6063      	str	r3, [r4, #4]
    1bd6:	490b      	ldr	r1, [pc, #44]	; (1c04 <us_ticker_init+0x54>)
    1bd8:	f000 f9b4 	bl	1f44 <__aeabi_uidiv>
    1bdc:	3801      	subs	r0, #1
    1bde:	60e0      	str	r0, [r4, #12]
    1be0:	4909      	ldr	r1, [pc, #36]	; (1c08 <us_ticker_init+0x58>)
    1be2:	6065      	str	r5, [r4, #4]
    1be4:	2013      	movs	r0, #19
    1be6:	f7ff fd85 	bl	16f4 <NVIC_SetVector>
    1bea:	2280      	movs	r2, #128	; 0x80
    1bec:	4b07      	ldr	r3, [pc, #28]	; (1c0c <us_ticker_init+0x5c>)
    1bee:	0312      	lsls	r2, r2, #12
    1bf0:	601a      	str	r2, [r3, #0]
    1bf2:	bd38      	pop	{r3, r4, r5, pc}
    1bf4:	10000560 	.word	0x10000560
    1bf8:	40048000 	.word	0x40048000
    1bfc:	10000248 	.word	0x10000248
    1c00:	40018000 	.word	0x40018000
    1c04:	000f4240 	.word	0x000f4240
    1c08:	00001d99 	.word	0x00001d99
    1c0c:	e000e100 	.word	0xe000e100

00001c10 <us_ticker_read>:
    1c10:	b508      	push	{r3, lr}
    1c12:	4b04      	ldr	r3, [pc, #16]	; (1c24 <us_ticker_read+0x14>)
    1c14:	681b      	ldr	r3, [r3, #0]
    1c16:	2b00      	cmp	r3, #0
    1c18:	d101      	bne.n	1c1e <us_ticker_read+0xe>
    1c1a:	f7ff ffc9 	bl	1bb0 <us_ticker_init>
    1c1e:	4b02      	ldr	r3, [pc, #8]	; (1c28 <us_ticker_read+0x18>)
    1c20:	6898      	ldr	r0, [r3, #8]
    1c22:	bd08      	pop	{r3, pc}
    1c24:	10000560 	.word	0x10000560
    1c28:	40018000 	.word	0x40018000

00001c2c <us_ticker_set_interrupt>:
    1c2c:	4b03      	ldr	r3, [pc, #12]	; (1c3c <us_ticker_set_interrupt+0x10>)
    1c2e:	2201      	movs	r2, #1
    1c30:	6198      	str	r0, [r3, #24]
    1c32:	6959      	ldr	r1, [r3, #20]
    1c34:	430a      	orrs	r2, r1
    1c36:	615a      	str	r2, [r3, #20]
    1c38:	4770      	bx	lr
    1c3a:	46c0      	nop			; (mov r8, r8)
    1c3c:	40018000 	.word	0x40018000

00001c40 <us_ticker_disable_interrupt>:
    1c40:	4b02      	ldr	r3, [pc, #8]	; (1c4c <us_ticker_disable_interrupt+0xc>)
    1c42:	2101      	movs	r1, #1
    1c44:	695a      	ldr	r2, [r3, #20]
    1c46:	438a      	bics	r2, r1
    1c48:	615a      	str	r2, [r3, #20]
    1c4a:	4770      	bx	lr
    1c4c:	40018000 	.word	0x40018000

00001c50 <us_ticker_clear_interrupt>:
    1c50:	4b01      	ldr	r3, [pc, #4]	; (1c58 <us_ticker_clear_interrupt+0x8>)
    1c52:	2201      	movs	r2, #1
    1c54:	601a      	str	r2, [r3, #0]
    1c56:	4770      	bx	lr
    1c58:	40018000 	.word	0x40018000

00001c5c <mbed_die>:
    1c5c:	b500      	push	{lr}
    1c5e:	b099      	sub	sp, #100	; 0x64
    1c60:	b672      	cpsid	i
    1c62:	2128      	movs	r1, #40	; 0x28
    1c64:	4668      	mov	r0, sp
    1c66:	f000 f83d 	bl	1ce4 <gpio_init_out>
    1c6a:	a806      	add	r0, sp, #24
    1c6c:	2129      	movs	r1, #41	; 0x29
    1c6e:	f000 f839 	bl	1ce4 <gpio_init_out>
    1c72:	a80c      	add	r0, sp, #48	; 0x30
    1c74:	212a      	movs	r1, #42	; 0x2a
    1c76:	f000 f835 	bl	1ce4 <gpio_init_out>
    1c7a:	a812      	add	r0, sp, #72	; 0x48
    1c7c:	212b      	movs	r1, #43	; 0x2b
    1c7e:	f000 f831 	bl	1ce4 <gpio_init_out>
    1c82:	9b03      	ldr	r3, [sp, #12]
    1c84:	9a01      	ldr	r2, [sp, #4]
    1c86:	2096      	movs	r0, #150	; 0x96
    1c88:	601a      	str	r2, [r3, #0]
    1c8a:	9a07      	ldr	r2, [sp, #28]
    1c8c:	9b0a      	ldr	r3, [sp, #40]	; 0x28
    1c8e:	601a      	str	r2, [r3, #0]
    1c90:	9a0d      	ldr	r2, [sp, #52]	; 0x34
    1c92:	9b10      	ldr	r3, [sp, #64]	; 0x40
    1c94:	601a      	str	r2, [r3, #0]
    1c96:	9a13      	ldr	r2, [sp, #76]	; 0x4c
    1c98:	9b15      	ldr	r3, [sp, #84]	; 0x54
    1c9a:	601a      	str	r2, [r3, #0]
    1c9c:	f7ff fd92 	bl	17c4 <wait_ms>
    1ca0:	9b04      	ldr	r3, [sp, #16]
    1ca2:	9a01      	ldr	r2, [sp, #4]
    1ca4:	2096      	movs	r0, #150	; 0x96
    1ca6:	601a      	str	r2, [r3, #0]
    1ca8:	9a07      	ldr	r2, [sp, #28]
    1caa:	9b09      	ldr	r3, [sp, #36]	; 0x24
    1cac:	601a      	str	r2, [r3, #0]
    1cae:	9a0d      	ldr	r2, [sp, #52]	; 0x34
    1cb0:	9b0f      	ldr	r3, [sp, #60]	; 0x3c
    1cb2:	601a      	str	r2, [r3, #0]
    1cb4:	9a13      	ldr	r2, [sp, #76]	; 0x4c
    1cb6:	9b16      	ldr	r3, [sp, #88]	; 0x58
    1cb8:	601a      	str	r2, [r3, #0]
    1cba:	f7ff fd83 	bl	17c4 <wait_ms>
    1cbe:	e7e0      	b.n	1c82 <mbed_die+0x26>

00001cc0 <error>:
    1cc0:	b40f      	push	{r0, r1, r2, r3}
    1cc2:	b500      	push	{lr}
    1cc4:	b083      	sub	sp, #12
    1cc6:	aa04      	add	r2, sp, #16
    1cc8:	ca08      	ldmia	r2!, {r3}
    1cca:	4b05      	ldr	r3, [pc, #20]	; (1ce0 <error+0x20>)
    1ccc:	9904      	ldr	r1, [sp, #16]
    1cce:	681b      	ldr	r3, [r3, #0]
    1cd0:	9201      	str	r2, [sp, #4]
    1cd2:	68d8      	ldr	r0, [r3, #12]
    1cd4:	f001 fd42 	bl	375c <vfiprintf>
    1cd8:	2001      	movs	r0, #1
    1cda:	f7ff fd2b 	bl	1734 <exit>
    1cde:	46c0      	nop			; (mov r8, r8)
    1ce0:	100002ac 	.word	0x100002ac

00001ce4 <gpio_init_out>:
    1ce4:	b538      	push	{r3, r4, r5, lr}
    1ce6:	1c0d      	adds	r5, r1, #0
    1ce8:	1c04      	adds	r4, r0, #0
    1cea:	f000 f8a1 	bl	1e30 <gpio_init>
    1cee:	3501      	adds	r5, #1
    1cf0:	d00a      	beq.n	1d08 <gpio_init_out+0x24>
    1cf2:	6923      	ldr	r3, [r4, #16]
    1cf4:	6862      	ldr	r2, [r4, #4]
    1cf6:	1c20      	adds	r0, r4, #0
    1cf8:	2101      	movs	r1, #1
    1cfa:	601a      	str	r2, [r3, #0]
    1cfc:	f000 f8c0 	bl	1e80 <gpio_dir>
    1d00:	1c20      	adds	r0, r4, #0
    1d02:	2100      	movs	r1, #0
    1d04:	f000 f8b6 	bl	1e74 <gpio_mode>
    1d08:	bd38      	pop	{r3, r4, r5, pc}
    1d0a:	46c0      	nop			; (mov r8, r8)

00001d0c <pinmap_pinout>:
    1d0c:	b510      	push	{r4, lr}
    1d0e:	1c04      	adds	r4, r0, #0
    1d10:	1c42      	adds	r2, r0, #1
    1d12:	d103      	bne.n	1d1c <pinmap_pinout+0x10>
    1d14:	e009      	b.n	1d2a <pinmap_pinout+0x1e>
    1d16:	429c      	cmp	r4, r3
    1d18:	d008      	beq.n	1d2c <pinmap_pinout+0x20>
    1d1a:	310c      	adds	r1, #12
    1d1c:	2300      	movs	r3, #0
    1d1e:	56cb      	ldrsb	r3, [r1, r3]
    1d20:	1c5a      	adds	r2, r3, #1
    1d22:	d1f8      	bne.n	1d16 <pinmap_pinout+0xa>
    1d24:	4806      	ldr	r0, [pc, #24]	; (1d40 <pinmap_pinout+0x34>)
    1d26:	f7ff ffcb 	bl	1cc0 <error>
    1d2a:	bd10      	pop	{r4, pc}
    1d2c:	1c20      	adds	r0, r4, #0
    1d2e:	6889      	ldr	r1, [r1, #8]
    1d30:	f000 f8b6 	bl	1ea0 <pin_function>
    1d34:	1c20      	adds	r0, r4, #0
    1d36:	2100      	movs	r1, #0
    1d38:	f000 f8ca 	bl	1ed0 <pin_mode>
    1d3c:	e7f5      	b.n	1d2a <pinmap_pinout+0x1e>
    1d3e:	46c0      	nop			; (mov r8, r8)
    1d40:	000064e8 	.word	0x000064e8

00001d44 <pinmap_merge>:
    1d44:	b508      	push	{r3, lr}
    1d46:	4288      	cmp	r0, r1
    1d48:	d008      	beq.n	1d5c <pinmap_merge+0x18>
    1d4a:	1c43      	adds	r3, r0, #1
    1d4c:	d007      	beq.n	1d5e <pinmap_merge+0x1a>
    1d4e:	3101      	adds	r1, #1
    1d50:	d004      	beq.n	1d5c <pinmap_merge+0x18>
    1d52:	4804      	ldr	r0, [pc, #16]	; (1d64 <pinmap_merge+0x20>)
    1d54:	f7ff ffb4 	bl	1cc0 <error>
    1d58:	2001      	movs	r0, #1
    1d5a:	4240      	negs	r0, r0
    1d5c:	bd08      	pop	{r3, pc}
    1d5e:	1c08      	adds	r0, r1, #0
    1d60:	e7fc      	b.n	1d5c <pinmap_merge+0x18>
    1d62:	46c0      	nop			; (mov r8, r8)
    1d64:	000064fc 	.word	0x000064fc

00001d68 <pinmap_peripheral>:
    1d68:	1c02      	adds	r2, r0, #0
    1d6a:	b508      	push	{r3, lr}
    1d6c:	1c53      	adds	r3, r2, #1
    1d6e:	d103      	bne.n	1d78 <pinmap_peripheral+0x10>
    1d70:	e00b      	b.n	1d8a <pinmap_peripheral+0x22>
    1d72:	429a      	cmp	r2, r3
    1d74:	d00a      	beq.n	1d8c <pinmap_peripheral+0x24>
    1d76:	310c      	adds	r1, #12
    1d78:	2300      	movs	r3, #0
    1d7a:	56cb      	ldrsb	r3, [r1, r3]
    1d7c:	1c58      	adds	r0, r3, #1
    1d7e:	d1f8      	bne.n	1d72 <pinmap_peripheral+0xa>
    1d80:	4804      	ldr	r0, [pc, #16]	; (1d94 <pinmap_peripheral+0x2c>)
    1d82:	f7ff ff9d 	bl	1cc0 <error>
    1d86:	2001      	movs	r0, #1
    1d88:	4240      	negs	r0, r0
    1d8a:	bd08      	pop	{r3, pc}
    1d8c:	6848      	ldr	r0, [r1, #4]
    1d8e:	1c43      	adds	r3, r0, #1
    1d90:	d1fb      	bne.n	1d8a <pinmap_peripheral+0x22>
    1d92:	e7f5      	b.n	1d80 <pinmap_peripheral+0x18>
    1d94:	00006510 	.word	0x00006510

00001d98 <us_ticker_irq_handler>:
    1d98:	b5f8      	push	{r3, r4, r5, r6, r7, lr}
    1d9a:	464f      	mov	r7, r9
    1d9c:	4646      	mov	r6, r8
    1d9e:	b4c0      	push	{r6, r7}
    1da0:	f7ff ff56 	bl	1c50 <us_ticker_clear_interrupt>
    1da4:	4816      	ldr	r0, [pc, #88]	; (1e00 <us_ticker_irq_handler+0x68>)
    1da6:	4a17      	ldr	r2, [pc, #92]	; (1e04 <us_ticker_irq_handler+0x6c>)
    1da8:	4680      	mov	r8, r0
    1daa:	4691      	mov	r9, r2
    1dac:	4640      	mov	r0, r8
    1dae:	6803      	ldr	r3, [r0, #0]
    1db0:	e012      	b.n	1dd8 <us_ticker_irq_handler+0x40>
    1db2:	681c      	ldr	r4, [r3, #0]
    1db4:	685d      	ldr	r5, [r3, #4]
    1db6:	f7ff ff2b 	bl	1c10 <us_ticker_read>
    1dba:	2700      	movs	r7, #0
    1dbc:	1c06      	adds	r6, r0, #0
    1dbe:	1ba4      	subs	r4, r4, r6
    1dc0:	41bd      	sbcs	r5, r7
    1dc2:	2d00      	cmp	r5, #0
    1dc4:	dc12      	bgt.n	1dec <us_ticker_irq_handler+0x54>
    1dc6:	d00f      	beq.n	1de8 <us_ticker_irq_handler+0x50>
    1dc8:	4642      	mov	r2, r8
    1dca:	6811      	ldr	r1, [r2, #0]
    1dcc:	4648      	mov	r0, r9
    1dce:	68cb      	ldr	r3, [r1, #12]
    1dd0:	6013      	str	r3, [r2, #0]
    1dd2:	6802      	ldr	r2, [r0, #0]
    1dd4:	2a00      	cmp	r2, #0
    1dd6:	d110      	bne.n	1dfa <us_ticker_irq_handler+0x62>
    1dd8:	2b00      	cmp	r3, #0
    1dda:	d1ea      	bne.n	1db2 <us_ticker_irq_handler+0x1a>
    1ddc:	f7ff ff30 	bl	1c40 <us_ticker_disable_interrupt>
    1de0:	bc0c      	pop	{r2, r3}
    1de2:	4690      	mov	r8, r2
    1de4:	4699      	mov	r9, r3
    1de6:	bdf8      	pop	{r3, r4, r5, r6, r7, pc}
    1de8:	2c00      	cmp	r4, #0
    1dea:	d0ed      	beq.n	1dc8 <us_ticker_irq_handler+0x30>
    1dec:	4642      	mov	r2, r8
    1dee:	6813      	ldr	r3, [r2, #0]
    1df0:	6818      	ldr	r0, [r3, #0]
    1df2:	6859      	ldr	r1, [r3, #4]
    1df4:	f7ff ff1a 	bl	1c2c <us_ticker_set_interrupt>
    1df8:	e7f2      	b.n	1de0 <us_ticker_irq_handler+0x48>
    1dfa:	6888      	ldr	r0, [r1, #8]
    1dfc:	4790      	blx	r2
    1dfe:	e7d5      	b.n	1dac <us_ticker_irq_handler+0x14>
    1e00:	10000564 	.word	0x10000564
    1e04:	10000568 	.word	0x10000568

00001e08 <gpio_set>:
    1e08:	b510      	push	{r4, lr}
    1e0a:	2800      	cmp	r0, #0
    1e0c:	d006      	beq.n	1e1c <gpio_set+0x14>
    1e0e:	b2c4      	uxtb	r4, r0
    1e10:	1c23      	adds	r3, r4, #0
    1e12:	3b0a      	subs	r3, #10
    1e14:	2b05      	cmp	r3, #5
    1e16:	d902      	bls.n	1e1e <gpio_set+0x16>
    1e18:	2100      	movs	r1, #0
    1e1a:	e001      	b.n	1e20 <gpio_set+0x18>
    1e1c:	2400      	movs	r4, #0
    1e1e:	2101      	movs	r1, #1
    1e20:	f000 f83e 	bl	1ea0 <pin_function>
    1e24:	201f      	movs	r0, #31
    1e26:	4004      	ands	r4, r0
    1e28:	2001      	movs	r0, #1
    1e2a:	40a0      	lsls	r0, r4
    1e2c:	bd10      	pop	{r4, pc}
    1e2e:	46c0      	nop			; (mov r8, r8)

00001e30 <gpio_init>:
    1e30:	b538      	push	{r3, r4, r5, lr}
    1e32:	1c04      	adds	r4, r0, #0
    1e34:	1c0d      	adds	r5, r1, #0
    1e36:	7021      	strb	r1, [r4, #0]
    1e38:	1c4a      	adds	r2, r1, #1
    1e3a:	d011      	beq.n	1e60 <gpio_init+0x30>
    1e3c:	1c08      	adds	r0, r1, #0
    1e3e:	f7ff ffe3 	bl	1e08 <gpio_set>
    1e42:	096d      	lsrs	r5, r5, #5
    1e44:	4a07      	ldr	r2, [pc, #28]	; (1e64 <gpio_init+0x34>)
    1e46:	00ad      	lsls	r5, r5, #2
    1e48:	18ab      	adds	r3, r5, r2
    1e4a:	4a07      	ldr	r2, [pc, #28]	; (1e68 <gpio_init+0x38>)
    1e4c:	60e3      	str	r3, [r4, #12]
    1e4e:	18ab      	adds	r3, r5, r2
    1e50:	4a06      	ldr	r2, [pc, #24]	; (1e6c <gpio_init+0x3c>)
    1e52:	6123      	str	r3, [r4, #16]
    1e54:	18ab      	adds	r3, r5, r2
    1e56:	6163      	str	r3, [r4, #20]
    1e58:	4b05      	ldr	r3, [pc, #20]	; (1e70 <gpio_init+0x40>)
    1e5a:	6060      	str	r0, [r4, #4]
    1e5c:	18ed      	adds	r5, r5, r3
    1e5e:	60a5      	str	r5, [r4, #8]
    1e60:	bd38      	pop	{r3, r4, r5, pc}
    1e62:	46c0      	nop			; (mov r8, r8)
    1e64:	50002200 	.word	0x50002200
    1e68:	50002280 	.word	0x50002280
    1e6c:	50002100 	.word	0x50002100
    1e70:	50002000 	.word	0x50002000

00001e74 <gpio_mode>:
    1e74:	b508      	push	{r3, lr}
    1e76:	7800      	ldrb	r0, [r0, #0]
    1e78:	b240      	sxtb	r0, r0
    1e7a:	f000 f829 	bl	1ed0 <pin_mode>
    1e7e:	bd08      	pop	{r3, pc}

00001e80 <gpio_dir>:
    1e80:	2900      	cmp	r1, #0
    1e82:	d007      	beq.n	1e94 <gpio_dir+0x14>
    1e84:	2901      	cmp	r1, #1
    1e86:	d104      	bne.n	1e92 <gpio_dir+0x12>
    1e88:	6883      	ldr	r3, [r0, #8]
    1e8a:	6842      	ldr	r2, [r0, #4]
    1e8c:	6819      	ldr	r1, [r3, #0]
    1e8e:	430a      	orrs	r2, r1
    1e90:	601a      	str	r2, [r3, #0]
    1e92:	4770      	bx	lr
    1e94:	6883      	ldr	r3, [r0, #8]
    1e96:	6841      	ldr	r1, [r0, #4]
    1e98:	681a      	ldr	r2, [r3, #0]
    1e9a:	438a      	bics	r2, r1
    1e9c:	601a      	str	r2, [r3, #0]
    1e9e:	e7f8      	b.n	1e92 <gpio_dir+0x12>

00001ea0 <pin_function>:
    1ea0:	1c43      	adds	r3, r0, #1
    1ea2:	d00b      	beq.n	1ebc <pin_function+0x1c>
    1ea4:	281f      	cmp	r0, #31
    1ea6:	d90a      	bls.n	1ebe <pin_function+0x1e>
    1ea8:	4b07      	ldr	r3, [pc, #28]	; (1ec8 <pin_function+0x28>)
    1eaa:	18c0      	adds	r0, r0, r3
    1eac:	0080      	lsls	r0, r0, #2
    1eae:	6802      	ldr	r2, [r0, #0]
    1eb0:	2307      	movs	r3, #7
    1eb2:	439a      	bics	r2, r3
    1eb4:	4019      	ands	r1, r3
    1eb6:	1c13      	adds	r3, r2, #0
    1eb8:	430b      	orrs	r3, r1
    1eba:	6003      	str	r3, [r0, #0]
    1ebc:	4770      	bx	lr
    1ebe:	4b03      	ldr	r3, [pc, #12]	; (1ecc <pin_function+0x2c>)
    1ec0:	18c0      	adds	r0, r0, r3
    1ec2:	0080      	lsls	r0, r0, #2
    1ec4:	e7f3      	b.n	1eae <pin_function+0xe>
    1ec6:	46c0      	nop			; (mov r8, r8)
    1ec8:	10010ff8 	.word	0x10010ff8
    1ecc:	10011000 	.word	0x10011000

00001ed0 <pin_mode>:
    1ed0:	074b      	lsls	r3, r1, #29
    1ed2:	b510      	push	{r4, lr}
    1ed4:	0fdb      	lsrs	r3, r3, #31
    1ed6:	281f      	cmp	r0, #31
    1ed8:	d910      	bls.n	1efc <pin_mode+0x2c>
    1eda:	4a0a      	ldr	r2, [pc, #40]	; (1f04 <pin_mode+0x34>)
    1edc:	1880      	adds	r0, r0, r2
    1ede:	0080      	lsls	r0, r0, #2
    1ee0:	6804      	ldr	r4, [r0, #0]
    1ee2:	2218      	movs	r2, #24
    1ee4:	4394      	bics	r4, r2
    1ee6:	2203      	movs	r2, #3
    1ee8:	4011      	ands	r1, r2
    1eea:	00ca      	lsls	r2, r1, #3
    1eec:	1c21      	adds	r1, r4, #0
    1eee:	4311      	orrs	r1, r2
    1ef0:	4a05      	ldr	r2, [pc, #20]	; (1f08 <pin_mode+0x38>)
    1ef2:	029b      	lsls	r3, r3, #10
    1ef4:	4011      	ands	r1, r2
    1ef6:	4319      	orrs	r1, r3
    1ef8:	6001      	str	r1, [r0, #0]
    1efa:	bd10      	pop	{r4, pc}
    1efc:	4a03      	ldr	r2, [pc, #12]	; (1f0c <pin_mode+0x3c>)
    1efe:	1880      	adds	r0, r0, r2
    1f00:	0080      	lsls	r0, r0, #2
    1f02:	e7ed      	b.n	1ee0 <pin_mode+0x10>
    1f04:	10010ff8 	.word	0x10010ff8
    1f08:	fffffbff 	.word	0xfffffbff
    1f0c:	10011000 	.word	0x10011000

00001f10 <__aeabi_atexit>:
    1f10:	b508      	push	{r3, lr}
    1f12:	1c03      	adds	r3, r0, #0
    1f14:	1c08      	adds	r0, r1, #0
    1f16:	1c19      	adds	r1, r3, #0
    1f18:	f000 fff2 	bl	2f00 <__cxa_atexit>
    1f1c:	bd08      	pop	{r3, pc}

00001f1e <__cxa_guard_acquire>:
    1f1e:	6802      	ldr	r2, [r0, #0]
    1f20:	b508      	push	{r3, lr}
    1f22:	2301      	movs	r3, #1
    1f24:	421a      	tst	r2, r3
    1f26:	d107      	bne.n	1f38 <__cxa_guard_acquire+0x1a>
    1f28:	7842      	ldrb	r2, [r0, #1]
    1f2a:	2a00      	cmp	r2, #0
    1f2c:	d001      	beq.n	1f32 <__cxa_guard_acquire+0x14>
    1f2e:	f7fe fa43 	bl	3b8 <abort>
    1f32:	7043      	strb	r3, [r0, #1]
    1f34:	1c18      	adds	r0, r3, #0
    1f36:	e000      	b.n	1f3a <__cxa_guard_acquire+0x1c>
    1f38:	2000      	movs	r0, #0
    1f3a:	bd08      	pop	{r3, pc}

00001f3c <__cxa_guard_release>:
    1f3c:	2301      	movs	r3, #1
    1f3e:	6003      	str	r3, [r0, #0]
    1f40:	4770      	bx	lr
	...

00001f44 <__aeabi_uidiv>:
    1f44:	2900      	cmp	r1, #0
    1f46:	d034      	beq.n	1fb2 <.udivsi3_skip_div0_test+0x6a>

00001f48 <.udivsi3_skip_div0_test>:
    1f48:	2301      	movs	r3, #1
    1f4a:	2200      	movs	r2, #0
    1f4c:	b410      	push	{r4}
    1f4e:	4288      	cmp	r0, r1
    1f50:	d32c      	bcc.n	1fac <.udivsi3_skip_div0_test+0x64>
    1f52:	2401      	movs	r4, #1
    1f54:	0724      	lsls	r4, r4, #28
    1f56:	42a1      	cmp	r1, r4
    1f58:	d204      	bcs.n	1f64 <.udivsi3_skip_div0_test+0x1c>
    1f5a:	4281      	cmp	r1, r0
    1f5c:	d202      	bcs.n	1f64 <.udivsi3_skip_div0_test+0x1c>
    1f5e:	0109      	lsls	r1, r1, #4
    1f60:	011b      	lsls	r3, r3, #4
    1f62:	e7f8      	b.n	1f56 <.udivsi3_skip_div0_test+0xe>
    1f64:	00e4      	lsls	r4, r4, #3
    1f66:	42a1      	cmp	r1, r4
    1f68:	d204      	bcs.n	1f74 <.udivsi3_skip_div0_test+0x2c>
    1f6a:	4281      	cmp	r1, r0
    1f6c:	d202      	bcs.n	1f74 <.udivsi3_skip_div0_test+0x2c>
    1f6e:	0049      	lsls	r1, r1, #1
    1f70:	005b      	lsls	r3, r3, #1
    1f72:	e7f8      	b.n	1f66 <.udivsi3_skip_div0_test+0x1e>
    1f74:	4288      	cmp	r0, r1
    1f76:	d301      	bcc.n	1f7c <.udivsi3_skip_div0_test+0x34>
    1f78:	1a40      	subs	r0, r0, r1
    1f7a:	431a      	orrs	r2, r3
    1f7c:	084c      	lsrs	r4, r1, #1
    1f7e:	42a0      	cmp	r0, r4
    1f80:	d302      	bcc.n	1f88 <.udivsi3_skip_div0_test+0x40>
    1f82:	1b00      	subs	r0, r0, r4
    1f84:	085c      	lsrs	r4, r3, #1
    1f86:	4322      	orrs	r2, r4
    1f88:	088c      	lsrs	r4, r1, #2
    1f8a:	42a0      	cmp	r0, r4
    1f8c:	d302      	bcc.n	1f94 <.udivsi3_skip_div0_test+0x4c>
    1f8e:	1b00      	subs	r0, r0, r4
    1f90:	089c      	lsrs	r4, r3, #2
    1f92:	4322      	orrs	r2, r4
    1f94:	08cc      	lsrs	r4, r1, #3
    1f96:	42a0      	cmp	r0, r4
    1f98:	d302      	bcc.n	1fa0 <.udivsi3_skip_div0_test+0x58>
    1f9a:	1b00      	subs	r0, r0, r4
    1f9c:	08dc      	lsrs	r4, r3, #3
    1f9e:	4322      	orrs	r2, r4
    1fa0:	2800      	cmp	r0, #0
    1fa2:	d003      	beq.n	1fac <.udivsi3_skip_div0_test+0x64>
    1fa4:	091b      	lsrs	r3, r3, #4
    1fa6:	d001      	beq.n	1fac <.udivsi3_skip_div0_test+0x64>
    1fa8:	0909      	lsrs	r1, r1, #4
    1faa:	e7e3      	b.n	1f74 <.udivsi3_skip_div0_test+0x2c>
    1fac:	1c10      	adds	r0, r2, #0
    1fae:	bc10      	pop	{r4}
    1fb0:	4770      	bx	lr
    1fb2:	2800      	cmp	r0, #0
    1fb4:	d001      	beq.n	1fba <.udivsi3_skip_div0_test+0x72>
    1fb6:	2000      	movs	r0, #0
    1fb8:	43c0      	mvns	r0, r0
    1fba:	b407      	push	{r0, r1, r2}
    1fbc:	4802      	ldr	r0, [pc, #8]	; (1fc8 <.udivsi3_skip_div0_test+0x80>)
    1fbe:	a102      	add	r1, pc, #8	; (adr r1, 1fc8 <.udivsi3_skip_div0_test+0x80>)
    1fc0:	1840      	adds	r0, r0, r1
    1fc2:	9002      	str	r0, [sp, #8]
    1fc4:	bd03      	pop	{r0, r1, pc}
    1fc6:	46c0      	nop			; (mov r8, r8)
    1fc8:	00000019 	.word	0x00000019

00001fcc <__aeabi_uidivmod>:
    1fcc:	2900      	cmp	r1, #0
    1fce:	d0f0      	beq.n	1fb2 <.udivsi3_skip_div0_test+0x6a>
    1fd0:	b503      	push	{r0, r1, lr}
    1fd2:	f7ff ffb9 	bl	1f48 <.udivsi3_skip_div0_test>
    1fd6:	bc0e      	pop	{r1, r2, r3}
    1fd8:	4342      	muls	r2, r0
    1fda:	1a89      	subs	r1, r1, r2
    1fdc:	4718      	bx	r3
    1fde:	46c0      	nop			; (mov r8, r8)

00001fe0 <__aeabi_idiv0>:
    1fe0:	4770      	bx	lr
    1fe2:	46c0      	nop			; (mov r8, r8)

00001fe4 <__aeabi_fmul>:
    1fe4:	b5f0      	push	{r4, r5, r6, r7, lr}
    1fe6:	465f      	mov	r7, r11
    1fe8:	4656      	mov	r6, r10
    1fea:	464d      	mov	r5, r9
    1fec:	4644      	mov	r4, r8
    1fee:	b4f0      	push	{r4, r5, r6, r7}
    1ff0:	0244      	lsls	r4, r0, #9
    1ff2:	0046      	lsls	r6, r0, #1
    1ff4:	b083      	sub	sp, #12
    1ff6:	1c0f      	adds	r7, r1, #0
    1ff8:	0a64      	lsrs	r4, r4, #9
    1ffa:	0e36      	lsrs	r6, r6, #24
    1ffc:	0fc5      	lsrs	r5, r0, #31
    1ffe:	2e00      	cmp	r6, #0
    2000:	d041      	beq.n	2086 <__aeabi_fmul+0xa2>
    2002:	2eff      	cmp	r6, #255	; 0xff
    2004:	d022      	beq.n	204c <__aeabi_fmul+0x68>
    2006:	2380      	movs	r3, #128	; 0x80
    2008:	041b      	lsls	r3, r3, #16
    200a:	2000      	movs	r0, #0
    200c:	431c      	orrs	r4, r3
    200e:	00e4      	lsls	r4, r4, #3
    2010:	3e7f      	subs	r6, #127	; 0x7f
    2012:	4682      	mov	r10, r0
    2014:	4680      	mov	r8, r0
    2016:	1c39      	adds	r1, r7, #0
    2018:	004b      	lsls	r3, r1, #1
    201a:	027f      	lsls	r7, r7, #9
    201c:	0fc9      	lsrs	r1, r1, #31
    201e:	0a7f      	lsrs	r7, r7, #9
    2020:	0e1b      	lsrs	r3, r3, #24
    2022:	468b      	mov	r11, r1
    2024:	d03b      	beq.n	209e <__aeabi_fmul+0xba>
    2026:	2bff      	cmp	r3, #255	; 0xff
    2028:	d034      	beq.n	2094 <__aeabi_fmul+0xb0>
    202a:	2280      	movs	r2, #128	; 0x80
    202c:	0412      	lsls	r2, r2, #16
    202e:	4317      	orrs	r7, r2
    2030:	00ff      	lsls	r7, r7, #3
    2032:	3b7f      	subs	r3, #127	; 0x7f
    2034:	2100      	movs	r1, #0
    2036:	465a      	mov	r2, r11
    2038:	406a      	eors	r2, r5
    203a:	9201      	str	r2, [sp, #4]
    203c:	4652      	mov	r2, r10
    203e:	430a      	orrs	r2, r1
    2040:	2a0f      	cmp	r2, #15
    2042:	d863      	bhi.n	210c <__aeabi_fmul+0x128>
    2044:	487a      	ldr	r0, [pc, #488]	; (2230 <__aeabi_fmul+0x24c>)
    2046:	0092      	lsls	r2, r2, #2
    2048:	5882      	ldr	r2, [r0, r2]
    204a:	4697      	mov	pc, r2
    204c:	2c00      	cmp	r4, #0
    204e:	d13f      	bne.n	20d0 <__aeabi_fmul+0xec>
    2050:	2208      	movs	r2, #8
    2052:	2302      	movs	r3, #2
    2054:	4692      	mov	r10, r2
    2056:	4698      	mov	r8, r3
    2058:	e7dd      	b.n	2016 <__aeabi_fmul+0x32>
    205a:	9501      	str	r5, [sp, #4]
    205c:	4640      	mov	r0, r8
    205e:	2802      	cmp	r0, #2
    2060:	d12a      	bne.n	20b8 <__aeabi_fmul+0xd4>
    2062:	9a01      	ldr	r2, [sp, #4]
    2064:	2501      	movs	r5, #1
    2066:	4015      	ands	r5, r2
    2068:	23ff      	movs	r3, #255	; 0xff
    206a:	2400      	movs	r4, #0
    206c:	0264      	lsls	r4, r4, #9
    206e:	05db      	lsls	r3, r3, #23
    2070:	0a60      	lsrs	r0, r4, #9
    2072:	07ed      	lsls	r5, r5, #31
    2074:	4318      	orrs	r0, r3
    2076:	4328      	orrs	r0, r5
    2078:	b003      	add	sp, #12
    207a:	bc3c      	pop	{r2, r3, r4, r5}
    207c:	4690      	mov	r8, r2
    207e:	4699      	mov	r9, r3
    2080:	46a2      	mov	r10, r4
    2082:	46ab      	mov	r11, r5
    2084:	bdf0      	pop	{r4, r5, r6, r7, pc}
    2086:	2c00      	cmp	r4, #0
    2088:	d127      	bne.n	20da <__aeabi_fmul+0xf6>
    208a:	2004      	movs	r0, #4
    208c:	2201      	movs	r2, #1
    208e:	4682      	mov	r10, r0
    2090:	4690      	mov	r8, r2
    2092:	e7c0      	b.n	2016 <__aeabi_fmul+0x32>
    2094:	1c39      	adds	r1, r7, #0
    2096:	1e4a      	subs	r2, r1, #1
    2098:	4191      	sbcs	r1, r2
    209a:	3102      	adds	r1, #2
    209c:	e7cb      	b.n	2036 <__aeabi_fmul+0x52>
    209e:	2101      	movs	r1, #1
    20a0:	2f00      	cmp	r7, #0
    20a2:	d0c8      	beq.n	2036 <__aeabi_fmul+0x52>
    20a4:	1c38      	adds	r0, r7, #0
    20a6:	f000 ff0d 	bl	2ec4 <__clzsi2>
    20aa:	1f43      	subs	r3, r0, #5
    20ac:	409f      	lsls	r7, r3
    20ae:	2376      	movs	r3, #118	; 0x76
    20b0:	425b      	negs	r3, r3
    20b2:	1a1b      	subs	r3, r3, r0
    20b4:	2100      	movs	r1, #0
    20b6:	e7be      	b.n	2036 <__aeabi_fmul+0x52>
    20b8:	2803      	cmp	r0, #3
    20ba:	d100      	bne.n	20be <__aeabi_fmul+0xda>
    20bc:	e0ae      	b.n	221c <__aeabi_fmul+0x238>
    20be:	2801      	cmp	r0, #1
    20c0:	d14f      	bne.n	2162 <__aeabi_fmul+0x17e>
    20c2:	9801      	ldr	r0, [sp, #4]
    20c4:	4642      	mov	r2, r8
    20c6:	4010      	ands	r0, r2
    20c8:	b2c5      	uxtb	r5, r0
    20ca:	2300      	movs	r3, #0
    20cc:	2400      	movs	r4, #0
    20ce:	e7cd      	b.n	206c <__aeabi_fmul+0x88>
    20d0:	230c      	movs	r3, #12
    20d2:	2003      	movs	r0, #3
    20d4:	469a      	mov	r10, r3
    20d6:	4680      	mov	r8, r0
    20d8:	e79d      	b.n	2016 <__aeabi_fmul+0x32>
    20da:	1c20      	adds	r0, r4, #0
    20dc:	f000 fef2 	bl	2ec4 <__clzsi2>
    20e0:	2676      	movs	r6, #118	; 0x76
    20e2:	1f43      	subs	r3, r0, #5
    20e4:	409c      	lsls	r4, r3
    20e6:	4276      	negs	r6, r6
    20e8:	2300      	movs	r3, #0
    20ea:	1a36      	subs	r6, r6, r0
    20ec:	469a      	mov	r10, r3
    20ee:	4698      	mov	r8, r3
    20f0:	e791      	b.n	2016 <__aeabi_fmul+0x32>
    20f2:	2480      	movs	r4, #128	; 0x80
    20f4:	2500      	movs	r5, #0
    20f6:	03e4      	lsls	r4, r4, #15
    20f8:	23ff      	movs	r3, #255	; 0xff
    20fa:	e7b7      	b.n	206c <__aeabi_fmul+0x88>
    20fc:	465b      	mov	r3, r11
    20fe:	1c3c      	adds	r4, r7, #0
    2100:	9301      	str	r3, [sp, #4]
    2102:	4688      	mov	r8, r1
    2104:	e7aa      	b.n	205c <__aeabi_fmul+0x78>
    2106:	1c3c      	adds	r4, r7, #0
    2108:	4688      	mov	r8, r1
    210a:	e7a7      	b.n	205c <__aeabi_fmul+0x78>
    210c:	0c25      	lsrs	r5, r4, #16
    210e:	0424      	lsls	r4, r4, #16
    2110:	0c3a      	lsrs	r2, r7, #16
    2112:	0c24      	lsrs	r4, r4, #16
    2114:	043f      	lsls	r7, r7, #16
    2116:	18f6      	adds	r6, r6, r3
    2118:	0c3f      	lsrs	r7, r7, #16
    211a:	1c21      	adds	r1, r4, #0
    211c:	1c23      	adds	r3, r4, #0
    211e:	4379      	muls	r1, r7
    2120:	4353      	muls	r3, r2
    2122:	436f      	muls	r7, r5
    2124:	4355      	muls	r5, r2
    2126:	18fb      	adds	r3, r7, r3
    2128:	0c0a      	lsrs	r2, r1, #16
    212a:	189b      	adds	r3, r3, r2
    212c:	46b1      	mov	r9, r6
    212e:	429f      	cmp	r7, r3
    2130:	d902      	bls.n	2138 <__aeabi_fmul+0x154>
    2132:	2280      	movs	r2, #128	; 0x80
    2134:	0252      	lsls	r2, r2, #9
    2136:	18ad      	adds	r5, r5, r2
    2138:	0409      	lsls	r1, r1, #16
    213a:	041a      	lsls	r2, r3, #16
    213c:	0c09      	lsrs	r1, r1, #16
    213e:	1852      	adds	r2, r2, r1
    2140:	0194      	lsls	r4, r2, #6
    2142:	0c1b      	lsrs	r3, r3, #16
    2144:	1e61      	subs	r1, r4, #1
    2146:	418c      	sbcs	r4, r1
    2148:	0e92      	lsrs	r2, r2, #26
    214a:	18ed      	adds	r5, r5, r3
    214c:	4314      	orrs	r4, r2
    214e:	01ad      	lsls	r5, r5, #6
    2150:	432c      	orrs	r4, r5
    2152:	0123      	lsls	r3, r4, #4
    2154:	d505      	bpl.n	2162 <__aeabi_fmul+0x17e>
    2156:	2201      	movs	r2, #1
    2158:	0863      	lsrs	r3, r4, #1
    215a:	2001      	movs	r0, #1
    215c:	4014      	ands	r4, r2
    215e:	4481      	add	r9, r0
    2160:	431c      	orrs	r4, r3
    2162:	464b      	mov	r3, r9
    2164:	337f      	adds	r3, #127	; 0x7f
    2166:	2b00      	cmp	r3, #0
    2168:	dd2d      	ble.n	21c6 <__aeabi_fmul+0x1e2>
    216a:	0760      	lsls	r0, r4, #29
    216c:	d004      	beq.n	2178 <__aeabi_fmul+0x194>
    216e:	220f      	movs	r2, #15
    2170:	4022      	ands	r2, r4
    2172:	2a04      	cmp	r2, #4
    2174:	d000      	beq.n	2178 <__aeabi_fmul+0x194>
    2176:	3404      	adds	r4, #4
    2178:	0122      	lsls	r2, r4, #4
    217a:	d503      	bpl.n	2184 <__aeabi_fmul+0x1a0>
    217c:	4b2d      	ldr	r3, [pc, #180]	; (2234 <__aeabi_fmul+0x250>)
    217e:	401c      	ands	r4, r3
    2180:	464b      	mov	r3, r9
    2182:	3380      	adds	r3, #128	; 0x80
    2184:	2bfe      	cmp	r3, #254	; 0xfe
    2186:	dd17      	ble.n	21b8 <__aeabi_fmul+0x1d4>
    2188:	9b01      	ldr	r3, [sp, #4]
    218a:	2501      	movs	r5, #1
    218c:	401d      	ands	r5, r3
    218e:	2400      	movs	r4, #0
    2190:	23ff      	movs	r3, #255	; 0xff
    2192:	e76b      	b.n	206c <__aeabi_fmul+0x88>
    2194:	2080      	movs	r0, #128	; 0x80
    2196:	03c0      	lsls	r0, r0, #15
    2198:	4204      	tst	r4, r0
    219a:	d008      	beq.n	21ae <__aeabi_fmul+0x1ca>
    219c:	4207      	tst	r7, r0
    219e:	d106      	bne.n	21ae <__aeabi_fmul+0x1ca>
    21a0:	1c04      	adds	r4, r0, #0
    21a2:	433c      	orrs	r4, r7
    21a4:	0264      	lsls	r4, r4, #9
    21a6:	0a64      	lsrs	r4, r4, #9
    21a8:	465d      	mov	r5, r11
    21aa:	23ff      	movs	r3, #255	; 0xff
    21ac:	e75e      	b.n	206c <__aeabi_fmul+0x88>
    21ae:	4304      	orrs	r4, r0
    21b0:	0264      	lsls	r4, r4, #9
    21b2:	0a64      	lsrs	r4, r4, #9
    21b4:	23ff      	movs	r3, #255	; 0xff
    21b6:	e759      	b.n	206c <__aeabi_fmul+0x88>
    21b8:	9801      	ldr	r0, [sp, #4]
    21ba:	01a4      	lsls	r4, r4, #6
    21bc:	2501      	movs	r5, #1
    21be:	0a64      	lsrs	r4, r4, #9
    21c0:	b2db      	uxtb	r3, r3
    21c2:	4005      	ands	r5, r0
    21c4:	e752      	b.n	206c <__aeabi_fmul+0x88>
    21c6:	237e      	movs	r3, #126	; 0x7e
    21c8:	425b      	negs	r3, r3
    21ca:	464a      	mov	r2, r9
    21cc:	1a9b      	subs	r3, r3, r2
    21ce:	2b1b      	cmp	r3, #27
    21d0:	dd05      	ble.n	21de <__aeabi_fmul+0x1fa>
    21d2:	9b01      	ldr	r3, [sp, #4]
    21d4:	2501      	movs	r5, #1
    21d6:	401d      	ands	r5, r3
    21d8:	2400      	movs	r4, #0
    21da:	2300      	movs	r3, #0
    21dc:	e746      	b.n	206c <__aeabi_fmul+0x88>
    21de:	1c22      	adds	r2, r4, #0
    21e0:	40da      	lsrs	r2, r3
    21e2:	464b      	mov	r3, r9
    21e4:	339e      	adds	r3, #158	; 0x9e
    21e6:	409c      	lsls	r4, r3
    21e8:	1c23      	adds	r3, r4, #0
    21ea:	1e5c      	subs	r4, r3, #1
    21ec:	41a3      	sbcs	r3, r4
    21ee:	4313      	orrs	r3, r2
    21f0:	0758      	lsls	r0, r3, #29
    21f2:	d004      	beq.n	21fe <__aeabi_fmul+0x21a>
    21f4:	220f      	movs	r2, #15
    21f6:	401a      	ands	r2, r3
    21f8:	2a04      	cmp	r2, #4
    21fa:	d000      	beq.n	21fe <__aeabi_fmul+0x21a>
    21fc:	3304      	adds	r3, #4
    21fe:	015a      	lsls	r2, r3, #5
    2200:	d505      	bpl.n	220e <__aeabi_fmul+0x22a>
    2202:	9b01      	ldr	r3, [sp, #4]
    2204:	2501      	movs	r5, #1
    2206:	401d      	ands	r5, r3
    2208:	2400      	movs	r4, #0
    220a:	2301      	movs	r3, #1
    220c:	e72e      	b.n	206c <__aeabi_fmul+0x88>
    220e:	9801      	ldr	r0, [sp, #4]
    2210:	019c      	lsls	r4, r3, #6
    2212:	2501      	movs	r5, #1
    2214:	0a64      	lsrs	r4, r4, #9
    2216:	4005      	ands	r5, r0
    2218:	2300      	movs	r3, #0
    221a:	e727      	b.n	206c <__aeabi_fmul+0x88>
    221c:	2780      	movs	r7, #128	; 0x80
    221e:	03ff      	lsls	r7, r7, #15
    2220:	9b01      	ldr	r3, [sp, #4]
    2222:	433c      	orrs	r4, r7
    2224:	0264      	lsls	r4, r4, #9
    2226:	2501      	movs	r5, #1
    2228:	401d      	ands	r5, r3
    222a:	0a64      	lsrs	r4, r4, #9
    222c:	23ff      	movs	r3, #255	; 0xff
    222e:	e71d      	b.n	206c <__aeabi_fmul+0x88>
    2230:	00006530 	.word	0x00006530
    2234:	f7ffffff 	.word	0xf7ffffff

00002238 <__aeabi_f2iz>:
    2238:	0243      	lsls	r3, r0, #9
    223a:	0a59      	lsrs	r1, r3, #9
    223c:	0043      	lsls	r3, r0, #1
    223e:	0fc2      	lsrs	r2, r0, #31
    2240:	0e1b      	lsrs	r3, r3, #24
    2242:	2000      	movs	r0, #0
    2244:	2b7e      	cmp	r3, #126	; 0x7e
    2246:	dd0d      	ble.n	2264 <__aeabi_f2iz+0x2c>
    2248:	2b9d      	cmp	r3, #157	; 0x9d
    224a:	dc0c      	bgt.n	2266 <__aeabi_f2iz+0x2e>
    224c:	2080      	movs	r0, #128	; 0x80
    224e:	0400      	lsls	r0, r0, #16
    2250:	4301      	orrs	r1, r0
    2252:	2b95      	cmp	r3, #149	; 0x95
    2254:	dc0a      	bgt.n	226c <__aeabi_f2iz+0x34>
    2256:	2096      	movs	r0, #150	; 0x96
    2258:	1ac3      	subs	r3, r0, r3
    225a:	40d9      	lsrs	r1, r3
    225c:	4248      	negs	r0, r1
    225e:	2a00      	cmp	r2, #0
    2260:	d100      	bne.n	2264 <__aeabi_f2iz+0x2c>
    2262:	1c08      	adds	r0, r1, #0
    2264:	4770      	bx	lr
    2266:	4b03      	ldr	r3, [pc, #12]	; (2274 <__aeabi_f2iz+0x3c>)
    2268:	18d0      	adds	r0, r2, r3
    226a:	e7fb      	b.n	2264 <__aeabi_f2iz+0x2c>
    226c:	3b96      	subs	r3, #150	; 0x96
    226e:	4099      	lsls	r1, r3
    2270:	e7f4      	b.n	225c <__aeabi_f2iz+0x24>
    2272:	46c0      	nop			; (mov r8, r8)
    2274:	7fffffff 	.word	0x7fffffff

00002278 <__aeabi_ddiv>:
    2278:	b5f0      	push	{r4, r5, r6, r7, lr}
    227a:	4656      	mov	r6, r10
    227c:	4644      	mov	r4, r8
    227e:	465f      	mov	r7, r11
    2280:	464d      	mov	r5, r9
    2282:	b4f0      	push	{r4, r5, r6, r7}
    2284:	1c1f      	adds	r7, r3, #0
    2286:	030b      	lsls	r3, r1, #12
    2288:	0b1b      	lsrs	r3, r3, #12
    228a:	4698      	mov	r8, r3
    228c:	004b      	lsls	r3, r1, #1
    228e:	b087      	sub	sp, #28
    2290:	1c04      	adds	r4, r0, #0
    2292:	4681      	mov	r9, r0
    2294:	0d5b      	lsrs	r3, r3, #21
    2296:	0fc8      	lsrs	r0, r1, #31
    2298:	1c16      	adds	r6, r2, #0
    229a:	469a      	mov	r10, r3
    229c:	9000      	str	r0, [sp, #0]
    229e:	2b00      	cmp	r3, #0
    22a0:	d051      	beq.n	2346 <__aeabi_ddiv+0xce>
    22a2:	4b6a      	ldr	r3, [pc, #424]	; (244c <__aeabi_ddiv+0x1d4>)
    22a4:	459a      	cmp	r10, r3
    22a6:	d031      	beq.n	230c <__aeabi_ddiv+0x94>
    22a8:	2280      	movs	r2, #128	; 0x80
    22aa:	4641      	mov	r1, r8
    22ac:	0352      	lsls	r2, r2, #13
    22ae:	430a      	orrs	r2, r1
    22b0:	0f63      	lsrs	r3, r4, #29
    22b2:	00d2      	lsls	r2, r2, #3
    22b4:	431a      	orrs	r2, r3
    22b6:	4b66      	ldr	r3, [pc, #408]	; (2450 <__aeabi_ddiv+0x1d8>)
    22b8:	4690      	mov	r8, r2
    22ba:	2500      	movs	r5, #0
    22bc:	00e2      	lsls	r2, r4, #3
    22be:	4691      	mov	r9, r2
    22c0:	449a      	add	r10, r3
    22c2:	2400      	movs	r4, #0
    22c4:	9502      	str	r5, [sp, #8]
    22c6:	033b      	lsls	r3, r7, #12
    22c8:	0b1b      	lsrs	r3, r3, #12
    22ca:	469b      	mov	r11, r3
    22cc:	0ffd      	lsrs	r5, r7, #31
    22ce:	007b      	lsls	r3, r7, #1
    22d0:	1c31      	adds	r1, r6, #0
    22d2:	0d5b      	lsrs	r3, r3, #21
    22d4:	9501      	str	r5, [sp, #4]
    22d6:	d060      	beq.n	239a <__aeabi_ddiv+0x122>
    22d8:	4a5c      	ldr	r2, [pc, #368]	; (244c <__aeabi_ddiv+0x1d4>)
    22da:	4293      	cmp	r3, r2
    22dc:	d054      	beq.n	2388 <__aeabi_ddiv+0x110>
    22de:	2180      	movs	r1, #128	; 0x80
    22e0:	4658      	mov	r0, r11
    22e2:	0349      	lsls	r1, r1, #13
    22e4:	4301      	orrs	r1, r0
    22e6:	0f72      	lsrs	r2, r6, #29
    22e8:	00c9      	lsls	r1, r1, #3
    22ea:	4311      	orrs	r1, r2
    22ec:	4a58      	ldr	r2, [pc, #352]	; (2450 <__aeabi_ddiv+0x1d8>)
    22ee:	468b      	mov	r11, r1
    22f0:	189b      	adds	r3, r3, r2
    22f2:	00f1      	lsls	r1, r6, #3
    22f4:	2000      	movs	r0, #0
    22f6:	9a00      	ldr	r2, [sp, #0]
    22f8:	4304      	orrs	r4, r0
    22fa:	406a      	eors	r2, r5
    22fc:	9203      	str	r2, [sp, #12]
    22fe:	2c0f      	cmp	r4, #15
    2300:	d900      	bls.n	2304 <__aeabi_ddiv+0x8c>
    2302:	e0ad      	b.n	2460 <__aeabi_ddiv+0x1e8>
    2304:	4e53      	ldr	r6, [pc, #332]	; (2454 <__aeabi_ddiv+0x1dc>)
    2306:	00a4      	lsls	r4, r4, #2
    2308:	5934      	ldr	r4, [r6, r4]
    230a:	46a7      	mov	pc, r4
    230c:	4640      	mov	r0, r8
    230e:	4304      	orrs	r4, r0
    2310:	d16e      	bne.n	23f0 <__aeabi_ddiv+0x178>
    2312:	2100      	movs	r1, #0
    2314:	2502      	movs	r5, #2
    2316:	2408      	movs	r4, #8
    2318:	4688      	mov	r8, r1
    231a:	4689      	mov	r9, r1
    231c:	9502      	str	r5, [sp, #8]
    231e:	e7d2      	b.n	22c6 <__aeabi_ddiv+0x4e>
    2320:	9c00      	ldr	r4, [sp, #0]
    2322:	9802      	ldr	r0, [sp, #8]
    2324:	46c3      	mov	r11, r8
    2326:	4649      	mov	r1, r9
    2328:	9401      	str	r4, [sp, #4]
    232a:	2802      	cmp	r0, #2
    232c:	d064      	beq.n	23f8 <__aeabi_ddiv+0x180>
    232e:	2803      	cmp	r0, #3
    2330:	d100      	bne.n	2334 <__aeabi_ddiv+0xbc>
    2332:	e2ab      	b.n	288c <__aeabi_ddiv+0x614>
    2334:	2801      	cmp	r0, #1
    2336:	d000      	beq.n	233a <__aeabi_ddiv+0xc2>
    2338:	e238      	b.n	27ac <__aeabi_ddiv+0x534>
    233a:	9a01      	ldr	r2, [sp, #4]
    233c:	2400      	movs	r4, #0
    233e:	4002      	ands	r2, r0
    2340:	2500      	movs	r5, #0
    2342:	46a1      	mov	r9, r4
    2344:	e060      	b.n	2408 <__aeabi_ddiv+0x190>
    2346:	4643      	mov	r3, r8
    2348:	4323      	orrs	r3, r4
    234a:	d04a      	beq.n	23e2 <__aeabi_ddiv+0x16a>
    234c:	4640      	mov	r0, r8
    234e:	2800      	cmp	r0, #0
    2350:	d100      	bne.n	2354 <__aeabi_ddiv+0xdc>
    2352:	e1c0      	b.n	26d6 <__aeabi_ddiv+0x45e>
    2354:	f000 fdb6 	bl	2ec4 <__clzsi2>
    2358:	1e03      	subs	r3, r0, #0
    235a:	2b27      	cmp	r3, #39	; 0x27
    235c:	dd00      	ble.n	2360 <__aeabi_ddiv+0xe8>
    235e:	e1b3      	b.n	26c8 <__aeabi_ddiv+0x450>
    2360:	2128      	movs	r1, #40	; 0x28
    2362:	1a0d      	subs	r5, r1, r0
    2364:	1c21      	adds	r1, r4, #0
    2366:	3b08      	subs	r3, #8
    2368:	4642      	mov	r2, r8
    236a:	40e9      	lsrs	r1, r5
    236c:	409a      	lsls	r2, r3
    236e:	1c0d      	adds	r5, r1, #0
    2370:	4315      	orrs	r5, r2
    2372:	1c22      	adds	r2, r4, #0
    2374:	409a      	lsls	r2, r3
    2376:	46a8      	mov	r8, r5
    2378:	4691      	mov	r9, r2
    237a:	4b37      	ldr	r3, [pc, #220]	; (2458 <__aeabi_ddiv+0x1e0>)
    237c:	2500      	movs	r5, #0
    237e:	1a1b      	subs	r3, r3, r0
    2380:	469a      	mov	r10, r3
    2382:	2400      	movs	r4, #0
    2384:	9502      	str	r5, [sp, #8]
    2386:	e79e      	b.n	22c6 <__aeabi_ddiv+0x4e>
    2388:	465a      	mov	r2, r11
    238a:	4316      	orrs	r6, r2
    238c:	2003      	movs	r0, #3
    238e:	2e00      	cmp	r6, #0
    2390:	d1b1      	bne.n	22f6 <__aeabi_ddiv+0x7e>
    2392:	46b3      	mov	r11, r6
    2394:	2100      	movs	r1, #0
    2396:	2002      	movs	r0, #2
    2398:	e7ad      	b.n	22f6 <__aeabi_ddiv+0x7e>
    239a:	465a      	mov	r2, r11
    239c:	4332      	orrs	r2, r6
    239e:	d01b      	beq.n	23d8 <__aeabi_ddiv+0x160>
    23a0:	465b      	mov	r3, r11
    23a2:	2b00      	cmp	r3, #0
    23a4:	d100      	bne.n	23a8 <__aeabi_ddiv+0x130>
    23a6:	e18a      	b.n	26be <__aeabi_ddiv+0x446>
    23a8:	4658      	mov	r0, r11
    23aa:	f000 fd8b 	bl	2ec4 <__clzsi2>
    23ae:	2827      	cmp	r0, #39	; 0x27
    23b0:	dd00      	ble.n	23b4 <__aeabi_ddiv+0x13c>
    23b2:	e17d      	b.n	26b0 <__aeabi_ddiv+0x438>
    23b4:	2228      	movs	r2, #40	; 0x28
    23b6:	1a17      	subs	r7, r2, r0
    23b8:	1c01      	adds	r1, r0, #0
    23ba:	1c32      	adds	r2, r6, #0
    23bc:	3908      	subs	r1, #8
    23be:	465b      	mov	r3, r11
    23c0:	40fa      	lsrs	r2, r7
    23c2:	408b      	lsls	r3, r1
    23c4:	1c17      	adds	r7, r2, #0
    23c6:	431f      	orrs	r7, r3
    23c8:	1c33      	adds	r3, r6, #0
    23ca:	408b      	lsls	r3, r1
    23cc:	46bb      	mov	r11, r7
    23ce:	1c19      	adds	r1, r3, #0
    23d0:	4b21      	ldr	r3, [pc, #132]	; (2458 <__aeabi_ddiv+0x1e0>)
    23d2:	1a1b      	subs	r3, r3, r0
    23d4:	2000      	movs	r0, #0
    23d6:	e78e      	b.n	22f6 <__aeabi_ddiv+0x7e>
    23d8:	2700      	movs	r7, #0
    23da:	46bb      	mov	r11, r7
    23dc:	2100      	movs	r1, #0
    23de:	2001      	movs	r0, #1
    23e0:	e789      	b.n	22f6 <__aeabi_ddiv+0x7e>
    23e2:	2000      	movs	r0, #0
    23e4:	2501      	movs	r5, #1
    23e6:	2404      	movs	r4, #4
    23e8:	4680      	mov	r8, r0
    23ea:	4681      	mov	r9, r0
    23ec:	9502      	str	r5, [sp, #8]
    23ee:	e76a      	b.n	22c6 <__aeabi_ddiv+0x4e>
    23f0:	2503      	movs	r5, #3
    23f2:	240c      	movs	r4, #12
    23f4:	9502      	str	r5, [sp, #8]
    23f6:	e766      	b.n	22c6 <__aeabi_ddiv+0x4e>
    23f8:	9c01      	ldr	r4, [sp, #4]
    23fa:	9403      	str	r4, [sp, #12]
    23fc:	9d03      	ldr	r5, [sp, #12]
    23fe:	2201      	movs	r2, #1
    2400:	402a      	ands	r2, r5
    2402:	2400      	movs	r4, #0
    2404:	4d11      	ldr	r5, [pc, #68]	; (244c <__aeabi_ddiv+0x1d4>)
    2406:	46a1      	mov	r9, r4
    2408:	2000      	movs	r0, #0
    240a:	2100      	movs	r1, #0
    240c:	0324      	lsls	r4, r4, #12
    240e:	0b26      	lsrs	r6, r4, #12
    2410:	0d0c      	lsrs	r4, r1, #20
    2412:	0524      	lsls	r4, r4, #20
    2414:	4b11      	ldr	r3, [pc, #68]	; (245c <__aeabi_ddiv+0x1e4>)
    2416:	4334      	orrs	r4, r6
    2418:	052d      	lsls	r5, r5, #20
    241a:	4023      	ands	r3, r4
    241c:	432b      	orrs	r3, r5
    241e:	005b      	lsls	r3, r3, #1
    2420:	085b      	lsrs	r3, r3, #1
    2422:	07d2      	lsls	r2, r2, #31
    2424:	1c19      	adds	r1, r3, #0
    2426:	4648      	mov	r0, r9
    2428:	4311      	orrs	r1, r2
    242a:	b007      	add	sp, #28
    242c:	bc3c      	pop	{r2, r3, r4, r5}
    242e:	4690      	mov	r8, r2
    2430:	4699      	mov	r9, r3
    2432:	46a2      	mov	r10, r4
    2434:	46ab      	mov	r11, r5
    2436:	bdf0      	pop	{r4, r5, r6, r7, pc}
    2438:	2200      	movs	r2, #0
    243a:	2480      	movs	r4, #128	; 0x80
    243c:	0324      	lsls	r4, r4, #12
    243e:	4691      	mov	r9, r2
    2440:	4d02      	ldr	r5, [pc, #8]	; (244c <__aeabi_ddiv+0x1d4>)
    2442:	e7e1      	b.n	2408 <__aeabi_ddiv+0x190>
    2444:	2400      	movs	r4, #0
    2446:	2500      	movs	r5, #0
    2448:	46a1      	mov	r9, r4
    244a:	e7dd      	b.n	2408 <__aeabi_ddiv+0x190>
    244c:	000007ff 	.word	0x000007ff
    2450:	fffffc01 	.word	0xfffffc01
    2454:	00006570 	.word	0x00006570
    2458:	fffffc0d 	.word	0xfffffc0d
    245c:	800fffff 	.word	0x800fffff
    2460:	4655      	mov	r5, r10
    2462:	1aed      	subs	r5, r5, r3
    2464:	9504      	str	r5, [sp, #16]
    2466:	45d8      	cmp	r8, r11
    2468:	d900      	bls.n	246c <__aeabi_ddiv+0x1f4>
    246a:	e153      	b.n	2714 <__aeabi_ddiv+0x49c>
    246c:	d100      	bne.n	2470 <__aeabi_ddiv+0x1f8>
    246e:	e14e      	b.n	270e <__aeabi_ddiv+0x496>
    2470:	9c04      	ldr	r4, [sp, #16]
    2472:	2500      	movs	r5, #0
    2474:	3c01      	subs	r4, #1
    2476:	464e      	mov	r6, r9
    2478:	9404      	str	r4, [sp, #16]
    247a:	4647      	mov	r7, r8
    247c:	46a9      	mov	r9, r5
    247e:	4658      	mov	r0, r11
    2480:	0203      	lsls	r3, r0, #8
    2482:	0e0c      	lsrs	r4, r1, #24
    2484:	431c      	orrs	r4, r3
    2486:	0209      	lsls	r1, r1, #8
    2488:	0c25      	lsrs	r5, r4, #16
    248a:	0423      	lsls	r3, r4, #16
    248c:	0c1b      	lsrs	r3, r3, #16
    248e:	9100      	str	r1, [sp, #0]
    2490:	1c38      	adds	r0, r7, #0
    2492:	1c29      	adds	r1, r5, #0
    2494:	9301      	str	r3, [sp, #4]
    2496:	f7ff fd55 	bl	1f44 <__aeabi_uidiv>
    249a:	9901      	ldr	r1, [sp, #4]
    249c:	4683      	mov	r11, r0
    249e:	4341      	muls	r1, r0
    24a0:	1c38      	adds	r0, r7, #0
    24a2:	468a      	mov	r10, r1
    24a4:	1c29      	adds	r1, r5, #0
    24a6:	f7ff fd91 	bl	1fcc <__aeabi_uidivmod>
    24aa:	0c33      	lsrs	r3, r6, #16
    24ac:	0409      	lsls	r1, r1, #16
    24ae:	4319      	orrs	r1, r3
    24b0:	458a      	cmp	r10, r1
    24b2:	d90c      	bls.n	24ce <__aeabi_ddiv+0x256>
    24b4:	465b      	mov	r3, r11
    24b6:	1909      	adds	r1, r1, r4
    24b8:	3b01      	subs	r3, #1
    24ba:	428c      	cmp	r4, r1
    24bc:	d900      	bls.n	24c0 <__aeabi_ddiv+0x248>
    24be:	e147      	b.n	2750 <__aeabi_ddiv+0x4d8>
    24c0:	458a      	cmp	r10, r1
    24c2:	d800      	bhi.n	24c6 <__aeabi_ddiv+0x24e>
    24c4:	e144      	b.n	2750 <__aeabi_ddiv+0x4d8>
    24c6:	2202      	movs	r2, #2
    24c8:	4252      	negs	r2, r2
    24ca:	4493      	add	r11, r2
    24cc:	1909      	adds	r1, r1, r4
    24ce:	4653      	mov	r3, r10
    24d0:	1acb      	subs	r3, r1, r3
    24d2:	1c18      	adds	r0, r3, #0
    24d4:	1c29      	adds	r1, r5, #0
    24d6:	4698      	mov	r8, r3
    24d8:	f7ff fd34 	bl	1f44 <__aeabi_uidiv>
    24dc:	1c07      	adds	r7, r0, #0
    24de:	9801      	ldr	r0, [sp, #4]
    24e0:	1c29      	adds	r1, r5, #0
    24e2:	4378      	muls	r0, r7
    24e4:	4682      	mov	r10, r0
    24e6:	4640      	mov	r0, r8
    24e8:	f7ff fd70 	bl	1fcc <__aeabi_uidivmod>
    24ec:	0436      	lsls	r6, r6, #16
    24ee:	040b      	lsls	r3, r1, #16
    24f0:	0c36      	lsrs	r6, r6, #16
    24f2:	4333      	orrs	r3, r6
    24f4:	459a      	cmp	r10, r3
    24f6:	d909      	bls.n	250c <__aeabi_ddiv+0x294>
    24f8:	191b      	adds	r3, r3, r4
    24fa:	1e7a      	subs	r2, r7, #1
    24fc:	429c      	cmp	r4, r3
    24fe:	d900      	bls.n	2502 <__aeabi_ddiv+0x28a>
    2500:	e124      	b.n	274c <__aeabi_ddiv+0x4d4>
    2502:	459a      	cmp	r10, r3
    2504:	d800      	bhi.n	2508 <__aeabi_ddiv+0x290>
    2506:	e121      	b.n	274c <__aeabi_ddiv+0x4d4>
    2508:	3f02      	subs	r7, #2
    250a:	191b      	adds	r3, r3, r4
    250c:	465e      	mov	r6, r11
    250e:	0432      	lsls	r2, r6, #16
    2510:	4317      	orrs	r7, r2
    2512:	0c38      	lsrs	r0, r7, #16
    2514:	46bb      	mov	r11, r7
    2516:	9e00      	ldr	r6, [sp, #0]
    2518:	9f00      	ldr	r7, [sp, #0]
    251a:	4651      	mov	r1, r10
    251c:	0c3f      	lsrs	r7, r7, #16
    251e:	0432      	lsls	r2, r6, #16
    2520:	1a5b      	subs	r3, r3, r1
    2522:	4659      	mov	r1, r11
    2524:	46ba      	mov	r10, r7
    2526:	0c12      	lsrs	r2, r2, #16
    2528:	040f      	lsls	r7, r1, #16
    252a:	0c3f      	lsrs	r7, r7, #16
    252c:	4690      	mov	r8, r2
    252e:	4651      	mov	r1, r10
    2530:	437a      	muls	r2, r7
    2532:	434f      	muls	r7, r1
    2534:	4641      	mov	r1, r8
    2536:	4341      	muls	r1, r0
    2538:	4656      	mov	r6, r10
    253a:	4370      	muls	r0, r6
    253c:	19cf      	adds	r7, r1, r7
    253e:	0c16      	lsrs	r6, r2, #16
    2540:	19be      	adds	r6, r7, r6
    2542:	42b1      	cmp	r1, r6
    2544:	d902      	bls.n	254c <__aeabi_ddiv+0x2d4>
    2546:	2780      	movs	r7, #128	; 0x80
    2548:	027f      	lsls	r7, r7, #9
    254a:	19c0      	adds	r0, r0, r7
    254c:	0c31      	lsrs	r1, r6, #16
    254e:	0412      	lsls	r2, r2, #16
    2550:	0436      	lsls	r6, r6, #16
    2552:	0c12      	lsrs	r2, r2, #16
    2554:	1840      	adds	r0, r0, r1
    2556:	18b6      	adds	r6, r6, r2
    2558:	4283      	cmp	r3, r0
    255a:	d200      	bcs.n	255e <__aeabi_ddiv+0x2e6>
    255c:	e0c4      	b.n	26e8 <__aeabi_ddiv+0x470>
    255e:	d100      	bne.n	2562 <__aeabi_ddiv+0x2ea>
    2560:	e0be      	b.n	26e0 <__aeabi_ddiv+0x468>
    2562:	1a19      	subs	r1, r3, r0
    2564:	4648      	mov	r0, r9
    2566:	1b86      	subs	r6, r0, r6
    2568:	45b1      	cmp	r9, r6
    256a:	41bf      	sbcs	r7, r7
    256c:	427f      	negs	r7, r7
    256e:	1bcf      	subs	r7, r1, r7
    2570:	42a7      	cmp	r7, r4
    2572:	d100      	bne.n	2576 <__aeabi_ddiv+0x2fe>
    2574:	e113      	b.n	279e <__aeabi_ddiv+0x526>
    2576:	1c29      	adds	r1, r5, #0
    2578:	1c38      	adds	r0, r7, #0
    257a:	f7ff fce3 	bl	1f44 <__aeabi_uidiv>
    257e:	9901      	ldr	r1, [sp, #4]
    2580:	9002      	str	r0, [sp, #8]
    2582:	4341      	muls	r1, r0
    2584:	1c38      	adds	r0, r7, #0
    2586:	4689      	mov	r9, r1
    2588:	1c29      	adds	r1, r5, #0
    258a:	f7ff fd1f 	bl	1fcc <__aeabi_uidivmod>
    258e:	0c33      	lsrs	r3, r6, #16
    2590:	0409      	lsls	r1, r1, #16
    2592:	4319      	orrs	r1, r3
    2594:	4589      	cmp	r9, r1
    2596:	d90c      	bls.n	25b2 <__aeabi_ddiv+0x33a>
    2598:	9b02      	ldr	r3, [sp, #8]
    259a:	1909      	adds	r1, r1, r4
    259c:	3b01      	subs	r3, #1
    259e:	428c      	cmp	r4, r1
    25a0:	d900      	bls.n	25a4 <__aeabi_ddiv+0x32c>
    25a2:	e0ff      	b.n	27a4 <__aeabi_ddiv+0x52c>
    25a4:	4589      	cmp	r9, r1
    25a6:	d800      	bhi.n	25aa <__aeabi_ddiv+0x332>
    25a8:	e0fc      	b.n	27a4 <__aeabi_ddiv+0x52c>
    25aa:	9f02      	ldr	r7, [sp, #8]
    25ac:	1909      	adds	r1, r1, r4
    25ae:	3f02      	subs	r7, #2
    25b0:	9702      	str	r7, [sp, #8]
    25b2:	464f      	mov	r7, r9
    25b4:	1bcf      	subs	r7, r1, r7
    25b6:	1c38      	adds	r0, r7, #0
    25b8:	1c29      	adds	r1, r5, #0
    25ba:	9705      	str	r7, [sp, #20]
    25bc:	f7ff fcc2 	bl	1f44 <__aeabi_uidiv>
    25c0:	1c07      	adds	r7, r0, #0
    25c2:	9801      	ldr	r0, [sp, #4]
    25c4:	1c29      	adds	r1, r5, #0
    25c6:	4378      	muls	r0, r7
    25c8:	4681      	mov	r9, r0
    25ca:	9805      	ldr	r0, [sp, #20]
    25cc:	f7ff fcfe 	bl	1fcc <__aeabi_uidivmod>
    25d0:	0436      	lsls	r6, r6, #16
    25d2:	0409      	lsls	r1, r1, #16
    25d4:	0c36      	lsrs	r6, r6, #16
    25d6:	430e      	orrs	r6, r1
    25d8:	45b1      	cmp	r9, r6
    25da:	d909      	bls.n	25f0 <__aeabi_ddiv+0x378>
    25dc:	1936      	adds	r6, r6, r4
    25de:	1e7b      	subs	r3, r7, #1
    25e0:	42b4      	cmp	r4, r6
    25e2:	d900      	bls.n	25e6 <__aeabi_ddiv+0x36e>
    25e4:	e0e0      	b.n	27a8 <__aeabi_ddiv+0x530>
    25e6:	45b1      	cmp	r9, r6
    25e8:	d800      	bhi.n	25ec <__aeabi_ddiv+0x374>
    25ea:	e0dd      	b.n	27a8 <__aeabi_ddiv+0x530>
    25ec:	3f02      	subs	r7, #2
    25ee:	1936      	adds	r6, r6, r4
    25f0:	9d02      	ldr	r5, [sp, #8]
    25f2:	4649      	mov	r1, r9
    25f4:	1a76      	subs	r6, r6, r1
    25f6:	0429      	lsls	r1, r5, #16
    25f8:	4339      	orrs	r1, r7
    25fa:	040b      	lsls	r3, r1, #16
    25fc:	4657      	mov	r7, r10
    25fe:	0c0a      	lsrs	r2, r1, #16
    2600:	0c1b      	lsrs	r3, r3, #16
    2602:	4640      	mov	r0, r8
    2604:	4645      	mov	r5, r8
    2606:	4358      	muls	r0, r3
    2608:	4355      	muls	r5, r2
    260a:	437b      	muls	r3, r7
    260c:	437a      	muls	r2, r7
    260e:	18eb      	adds	r3, r5, r3
    2610:	0c07      	lsrs	r7, r0, #16
    2612:	19db      	adds	r3, r3, r7
    2614:	429d      	cmp	r5, r3
    2616:	d902      	bls.n	261e <__aeabi_ddiv+0x3a6>
    2618:	2580      	movs	r5, #128	; 0x80
    261a:	026d      	lsls	r5, r5, #9
    261c:	1952      	adds	r2, r2, r5
    261e:	0c1d      	lsrs	r5, r3, #16
    2620:	0400      	lsls	r0, r0, #16
    2622:	041b      	lsls	r3, r3, #16
    2624:	0c00      	lsrs	r0, r0, #16
    2626:	1952      	adds	r2, r2, r5
    2628:	181b      	adds	r3, r3, r0
    262a:	4296      	cmp	r6, r2
    262c:	d335      	bcc.n	269a <__aeabi_ddiv+0x422>
    262e:	d100      	bne.n	2632 <__aeabi_ddiv+0x3ba>
    2630:	e0fc      	b.n	282c <__aeabi_ddiv+0x5b4>
    2632:	2301      	movs	r3, #1
    2634:	4319      	orrs	r1, r3
    2636:	9e04      	ldr	r6, [sp, #16]
    2638:	4f99      	ldr	r7, [pc, #612]	; (28a0 <__aeabi_ddiv+0x628>)
    263a:	19f5      	adds	r5, r6, r7
    263c:	2d00      	cmp	r5, #0
    263e:	dc00      	bgt.n	2642 <__aeabi_ddiv+0x3ca>
    2640:	e0a1      	b.n	2786 <__aeabi_ddiv+0x50e>
    2642:	0748      	lsls	r0, r1, #29
    2644:	d009      	beq.n	265a <__aeabi_ddiv+0x3e2>
    2646:	230f      	movs	r3, #15
    2648:	400b      	ands	r3, r1
    264a:	2b04      	cmp	r3, #4
    264c:	d005      	beq.n	265a <__aeabi_ddiv+0x3e2>
    264e:	1d0b      	adds	r3, r1, #4
    2650:	428b      	cmp	r3, r1
    2652:	4189      	sbcs	r1, r1
    2654:	4249      	negs	r1, r1
    2656:	448b      	add	r11, r1
    2658:	1c19      	adds	r1, r3, #0
    265a:	465a      	mov	r2, r11
    265c:	01d2      	lsls	r2, r2, #7
    265e:	d507      	bpl.n	2670 <__aeabi_ddiv+0x3f8>
    2660:	4b90      	ldr	r3, [pc, #576]	; (28a4 <__aeabi_ddiv+0x62c>)
    2662:	465c      	mov	r4, r11
    2664:	9e04      	ldr	r6, [sp, #16]
    2666:	2780      	movs	r7, #128	; 0x80
    2668:	401c      	ands	r4, r3
    266a:	00ff      	lsls	r7, r7, #3
    266c:	46a3      	mov	r11, r4
    266e:	19f5      	adds	r5, r6, r7
    2670:	4b8d      	ldr	r3, [pc, #564]	; (28a8 <__aeabi_ddiv+0x630>)
    2672:	429d      	cmp	r5, r3
    2674:	dd7a      	ble.n	276c <__aeabi_ddiv+0x4f4>
    2676:	9c03      	ldr	r4, [sp, #12]
    2678:	2201      	movs	r2, #1
    267a:	4022      	ands	r2, r4
    267c:	2400      	movs	r4, #0
    267e:	4d8b      	ldr	r5, [pc, #556]	; (28ac <__aeabi_ddiv+0x634>)
    2680:	46a1      	mov	r9, r4
    2682:	e6c1      	b.n	2408 <__aeabi_ddiv+0x190>
    2684:	2480      	movs	r4, #128	; 0x80
    2686:	0324      	lsls	r4, r4, #12
    2688:	4647      	mov	r7, r8
    268a:	4227      	tst	r7, r4
    268c:	d14c      	bne.n	2728 <__aeabi_ddiv+0x4b0>
    268e:	433c      	orrs	r4, r7
    2690:	0324      	lsls	r4, r4, #12
    2692:	0b24      	lsrs	r4, r4, #12
    2694:	9a00      	ldr	r2, [sp, #0]
    2696:	4d85      	ldr	r5, [pc, #532]	; (28ac <__aeabi_ddiv+0x634>)
    2698:	e6b6      	b.n	2408 <__aeabi_ddiv+0x190>
    269a:	1936      	adds	r6, r6, r4
    269c:	1e48      	subs	r0, r1, #1
    269e:	42b4      	cmp	r4, r6
    26a0:	d95e      	bls.n	2760 <__aeabi_ddiv+0x4e8>
    26a2:	1c01      	adds	r1, r0, #0
    26a4:	4296      	cmp	r6, r2
    26a6:	d1c4      	bne.n	2632 <__aeabi_ddiv+0x3ba>
    26a8:	9e00      	ldr	r6, [sp, #0]
    26aa:	429e      	cmp	r6, r3
    26ac:	d1c1      	bne.n	2632 <__aeabi_ddiv+0x3ba>
    26ae:	e7c2      	b.n	2636 <__aeabi_ddiv+0x3be>
    26b0:	1c03      	adds	r3, r0, #0
    26b2:	3b28      	subs	r3, #40	; 0x28
    26b4:	1c31      	adds	r1, r6, #0
    26b6:	4099      	lsls	r1, r3
    26b8:	468b      	mov	r11, r1
    26ba:	2100      	movs	r1, #0
    26bc:	e688      	b.n	23d0 <__aeabi_ddiv+0x158>
    26be:	1c30      	adds	r0, r6, #0
    26c0:	f000 fc00 	bl	2ec4 <__clzsi2>
    26c4:	3020      	adds	r0, #32
    26c6:	e672      	b.n	23ae <__aeabi_ddiv+0x136>
    26c8:	3b28      	subs	r3, #40	; 0x28
    26ca:	1c21      	adds	r1, r4, #0
    26cc:	4099      	lsls	r1, r3
    26ce:	2200      	movs	r2, #0
    26d0:	4688      	mov	r8, r1
    26d2:	4691      	mov	r9, r2
    26d4:	e651      	b.n	237a <__aeabi_ddiv+0x102>
    26d6:	1c20      	adds	r0, r4, #0
    26d8:	f000 fbf4 	bl	2ec4 <__clzsi2>
    26dc:	3020      	adds	r0, #32
    26de:	e63b      	b.n	2358 <__aeabi_ddiv+0xe0>
    26e0:	2100      	movs	r1, #0
    26e2:	45b1      	cmp	r9, r6
    26e4:	d300      	bcc.n	26e8 <__aeabi_ddiv+0x470>
    26e6:	e73d      	b.n	2564 <__aeabi_ddiv+0x2ec>
    26e8:	9f00      	ldr	r7, [sp, #0]
    26ea:	465a      	mov	r2, r11
    26ec:	44b9      	add	r9, r7
    26ee:	45b9      	cmp	r9, r7
    26f0:	41bf      	sbcs	r7, r7
    26f2:	427f      	negs	r7, r7
    26f4:	193f      	adds	r7, r7, r4
    26f6:	18fb      	adds	r3, r7, r3
    26f8:	3a01      	subs	r2, #1
    26fa:	429c      	cmp	r4, r3
    26fc:	d21e      	bcs.n	273c <__aeabi_ddiv+0x4c4>
    26fe:	4298      	cmp	r0, r3
    2700:	d900      	bls.n	2704 <__aeabi_ddiv+0x48c>
    2702:	e07e      	b.n	2802 <__aeabi_ddiv+0x58a>
    2704:	d100      	bne.n	2708 <__aeabi_ddiv+0x490>
    2706:	e0b5      	b.n	2874 <__aeabi_ddiv+0x5fc>
    2708:	1a19      	subs	r1, r3, r0
    270a:	4693      	mov	r11, r2
    270c:	e72a      	b.n	2564 <__aeabi_ddiv+0x2ec>
    270e:	4589      	cmp	r9, r1
    2710:	d800      	bhi.n	2714 <__aeabi_ddiv+0x49c>
    2712:	e6ad      	b.n	2470 <__aeabi_ddiv+0x1f8>
    2714:	4648      	mov	r0, r9
    2716:	4646      	mov	r6, r8
    2718:	4642      	mov	r2, r8
    271a:	0877      	lsrs	r7, r6, #1
    271c:	07d3      	lsls	r3, r2, #31
    271e:	0846      	lsrs	r6, r0, #1
    2720:	07c0      	lsls	r0, r0, #31
    2722:	431e      	orrs	r6, r3
    2724:	4681      	mov	r9, r0
    2726:	e6aa      	b.n	247e <__aeabi_ddiv+0x206>
    2728:	4658      	mov	r0, r11
    272a:	4220      	tst	r0, r4
    272c:	d112      	bne.n	2754 <__aeabi_ddiv+0x4dc>
    272e:	4304      	orrs	r4, r0
    2730:	0324      	lsls	r4, r4, #12
    2732:	1c2a      	adds	r2, r5, #0
    2734:	0b24      	lsrs	r4, r4, #12
    2736:	4689      	mov	r9, r1
    2738:	4d5c      	ldr	r5, [pc, #368]	; (28ac <__aeabi_ddiv+0x634>)
    273a:	e665      	b.n	2408 <__aeabi_ddiv+0x190>
    273c:	42a3      	cmp	r3, r4
    273e:	d1e3      	bne.n	2708 <__aeabi_ddiv+0x490>
    2740:	9f00      	ldr	r7, [sp, #0]
    2742:	454f      	cmp	r7, r9
    2744:	d9db      	bls.n	26fe <__aeabi_ddiv+0x486>
    2746:	1a21      	subs	r1, r4, r0
    2748:	4693      	mov	r11, r2
    274a:	e70b      	b.n	2564 <__aeabi_ddiv+0x2ec>
    274c:	1c17      	adds	r7, r2, #0
    274e:	e6dd      	b.n	250c <__aeabi_ddiv+0x294>
    2750:	469b      	mov	r11, r3
    2752:	e6bc      	b.n	24ce <__aeabi_ddiv+0x256>
    2754:	433c      	orrs	r4, r7
    2756:	0324      	lsls	r4, r4, #12
    2758:	0b24      	lsrs	r4, r4, #12
    275a:	9a00      	ldr	r2, [sp, #0]
    275c:	4d53      	ldr	r5, [pc, #332]	; (28ac <__aeabi_ddiv+0x634>)
    275e:	e653      	b.n	2408 <__aeabi_ddiv+0x190>
    2760:	42b2      	cmp	r2, r6
    2762:	d859      	bhi.n	2818 <__aeabi_ddiv+0x5a0>
    2764:	d100      	bne.n	2768 <__aeabi_ddiv+0x4f0>
    2766:	e08a      	b.n	287e <__aeabi_ddiv+0x606>
    2768:	1c01      	adds	r1, r0, #0
    276a:	e762      	b.n	2632 <__aeabi_ddiv+0x3ba>
    276c:	465f      	mov	r7, r11
    276e:	08c9      	lsrs	r1, r1, #3
    2770:	077b      	lsls	r3, r7, #29
    2772:	9e03      	ldr	r6, [sp, #12]
    2774:	430b      	orrs	r3, r1
    2776:	027c      	lsls	r4, r7, #9
    2778:	056d      	lsls	r5, r5, #21
    277a:	2201      	movs	r2, #1
    277c:	4699      	mov	r9, r3
    277e:	0b24      	lsrs	r4, r4, #12
    2780:	0d6d      	lsrs	r5, r5, #21
    2782:	4032      	ands	r2, r6
    2784:	e640      	b.n	2408 <__aeabi_ddiv+0x190>
    2786:	4b4a      	ldr	r3, [pc, #296]	; (28b0 <__aeabi_ddiv+0x638>)
    2788:	9f04      	ldr	r7, [sp, #16]
    278a:	1bdb      	subs	r3, r3, r7
    278c:	2b38      	cmp	r3, #56	; 0x38
    278e:	dd10      	ble.n	27b2 <__aeabi_ddiv+0x53a>
    2790:	9c03      	ldr	r4, [sp, #12]
    2792:	2201      	movs	r2, #1
    2794:	4022      	ands	r2, r4
    2796:	2400      	movs	r4, #0
    2798:	2500      	movs	r5, #0
    279a:	46a1      	mov	r9, r4
    279c:	e634      	b.n	2408 <__aeabi_ddiv+0x190>
    279e:	2101      	movs	r1, #1
    27a0:	4249      	negs	r1, r1
    27a2:	e748      	b.n	2636 <__aeabi_ddiv+0x3be>
    27a4:	9302      	str	r3, [sp, #8]
    27a6:	e704      	b.n	25b2 <__aeabi_ddiv+0x33a>
    27a8:	1c1f      	adds	r7, r3, #0
    27aa:	e721      	b.n	25f0 <__aeabi_ddiv+0x378>
    27ac:	9c01      	ldr	r4, [sp, #4]
    27ae:	9403      	str	r4, [sp, #12]
    27b0:	e741      	b.n	2636 <__aeabi_ddiv+0x3be>
    27b2:	2b1f      	cmp	r3, #31
    27b4:	dc40      	bgt.n	2838 <__aeabi_ddiv+0x5c0>
    27b6:	483f      	ldr	r0, [pc, #252]	; (28b4 <__aeabi_ddiv+0x63c>)
    27b8:	9f04      	ldr	r7, [sp, #16]
    27ba:	1c0c      	adds	r4, r1, #0
    27bc:	183a      	adds	r2, r7, r0
    27be:	4658      	mov	r0, r11
    27c0:	4091      	lsls	r1, r2
    27c2:	40dc      	lsrs	r4, r3
    27c4:	4090      	lsls	r0, r2
    27c6:	4320      	orrs	r0, r4
    27c8:	1c0a      	adds	r2, r1, #0
    27ca:	1e51      	subs	r1, r2, #1
    27cc:	418a      	sbcs	r2, r1
    27ce:	1c01      	adds	r1, r0, #0
    27d0:	4311      	orrs	r1, r2
    27d2:	465a      	mov	r2, r11
    27d4:	40da      	lsrs	r2, r3
    27d6:	1c13      	adds	r3, r2, #0
    27d8:	0748      	lsls	r0, r1, #29
    27da:	d009      	beq.n	27f0 <__aeabi_ddiv+0x578>
    27dc:	220f      	movs	r2, #15
    27de:	400a      	ands	r2, r1
    27e0:	2a04      	cmp	r2, #4
    27e2:	d005      	beq.n	27f0 <__aeabi_ddiv+0x578>
    27e4:	1d0a      	adds	r2, r1, #4
    27e6:	428a      	cmp	r2, r1
    27e8:	4189      	sbcs	r1, r1
    27ea:	4249      	negs	r1, r1
    27ec:	185b      	adds	r3, r3, r1
    27ee:	1c11      	adds	r1, r2, #0
    27f0:	021a      	lsls	r2, r3, #8
    27f2:	d534      	bpl.n	285e <__aeabi_ddiv+0x5e6>
    27f4:	9c03      	ldr	r4, [sp, #12]
    27f6:	2201      	movs	r2, #1
    27f8:	4022      	ands	r2, r4
    27fa:	2400      	movs	r4, #0
    27fc:	2501      	movs	r5, #1
    27fe:	46a1      	mov	r9, r4
    2800:	e602      	b.n	2408 <__aeabi_ddiv+0x190>
    2802:	9f00      	ldr	r7, [sp, #0]
    2804:	2102      	movs	r1, #2
    2806:	4249      	negs	r1, r1
    2808:	44b9      	add	r9, r7
    280a:	448b      	add	r11, r1
    280c:	45b9      	cmp	r9, r7
    280e:	4189      	sbcs	r1, r1
    2810:	4249      	negs	r1, r1
    2812:	1909      	adds	r1, r1, r4
    2814:	18cb      	adds	r3, r1, r3
    2816:	e6a4      	b.n	2562 <__aeabi_ddiv+0x2ea>
    2818:	9d00      	ldr	r5, [sp, #0]
    281a:	1e88      	subs	r0, r1, #2
    281c:	0069      	lsls	r1, r5, #1
    281e:	42a9      	cmp	r1, r5
    2820:	41ad      	sbcs	r5, r5
    2822:	426d      	negs	r5, r5
    2824:	192c      	adds	r4, r5, r4
    2826:	1936      	adds	r6, r6, r4
    2828:	9100      	str	r1, [sp, #0]
    282a:	e73a      	b.n	26a2 <__aeabi_ddiv+0x42a>
    282c:	2b00      	cmp	r3, #0
    282e:	d000      	beq.n	2832 <__aeabi_ddiv+0x5ba>
    2830:	e733      	b.n	269a <__aeabi_ddiv+0x422>
    2832:	2400      	movs	r4, #0
    2834:	9400      	str	r4, [sp, #0]
    2836:	e737      	b.n	26a8 <__aeabi_ddiv+0x430>
    2838:	4a1f      	ldr	r2, [pc, #124]	; (28b8 <__aeabi_ddiv+0x640>)
    283a:	9c04      	ldr	r4, [sp, #16]
    283c:	465d      	mov	r5, r11
    283e:	1b12      	subs	r2, r2, r4
    2840:	40d5      	lsrs	r5, r2
    2842:	1c2a      	adds	r2, r5, #0
    2844:	2b20      	cmp	r3, #32
    2846:	d01f      	beq.n	2888 <__aeabi_ddiv+0x610>
    2848:	4e1c      	ldr	r6, [pc, #112]	; (28bc <__aeabi_ddiv+0x644>)
    284a:	465f      	mov	r7, r11
    284c:	19a3      	adds	r3, r4, r6
    284e:	409f      	lsls	r7, r3
    2850:	1c3b      	adds	r3, r7, #0
    2852:	4319      	orrs	r1, r3
    2854:	1e4b      	subs	r3, r1, #1
    2856:	4199      	sbcs	r1, r3
    2858:	4311      	orrs	r1, r2
    285a:	2300      	movs	r3, #0
    285c:	e7bc      	b.n	27d8 <__aeabi_ddiv+0x560>
    285e:	075a      	lsls	r2, r3, #29
    2860:	08c9      	lsrs	r1, r1, #3
    2862:	430a      	orrs	r2, r1
    2864:	9f03      	ldr	r7, [sp, #12]
    2866:	4691      	mov	r9, r2
    2868:	025b      	lsls	r3, r3, #9
    286a:	2201      	movs	r2, #1
    286c:	0b1c      	lsrs	r4, r3, #12
    286e:	403a      	ands	r2, r7
    2870:	2500      	movs	r5, #0
    2872:	e5c9      	b.n	2408 <__aeabi_ddiv+0x190>
    2874:	454e      	cmp	r6, r9
    2876:	d8c4      	bhi.n	2802 <__aeabi_ddiv+0x58a>
    2878:	4693      	mov	r11, r2
    287a:	2100      	movs	r1, #0
    287c:	e672      	b.n	2564 <__aeabi_ddiv+0x2ec>
    287e:	9f00      	ldr	r7, [sp, #0]
    2880:	429f      	cmp	r7, r3
    2882:	d3c9      	bcc.n	2818 <__aeabi_ddiv+0x5a0>
    2884:	1c01      	adds	r1, r0, #0
    2886:	e70f      	b.n	26a8 <__aeabi_ddiv+0x430>
    2888:	2300      	movs	r3, #0
    288a:	e7e2      	b.n	2852 <__aeabi_ddiv+0x5da>
    288c:	2480      	movs	r4, #128	; 0x80
    288e:	0324      	lsls	r4, r4, #12
    2890:	465f      	mov	r7, r11
    2892:	433c      	orrs	r4, r7
    2894:	0324      	lsls	r4, r4, #12
    2896:	0b24      	lsrs	r4, r4, #12
    2898:	9a01      	ldr	r2, [sp, #4]
    289a:	4689      	mov	r9, r1
    289c:	4d03      	ldr	r5, [pc, #12]	; (28ac <__aeabi_ddiv+0x634>)
    289e:	e5b3      	b.n	2408 <__aeabi_ddiv+0x190>
    28a0:	000003ff 	.word	0x000003ff
    28a4:	feffffff 	.word	0xfeffffff
    28a8:	000007fe 	.word	0x000007fe
    28ac:	000007ff 	.word	0x000007ff
    28b0:	fffffc02 	.word	0xfffffc02
    28b4:	0000041e 	.word	0x0000041e
    28b8:	fffffbe2 	.word	0xfffffbe2
    28bc:	0000043e 	.word	0x0000043e

000028c0 <__aeabi_dmul>:
    28c0:	b5f0      	push	{r4, r5, r6, r7, lr}
    28c2:	4656      	mov	r6, r10
    28c4:	4644      	mov	r4, r8
    28c6:	465f      	mov	r7, r11
    28c8:	464d      	mov	r5, r9
    28ca:	b4f0      	push	{r4, r5, r6, r7}
    28cc:	1c1f      	adds	r7, r3, #0
    28ce:	030b      	lsls	r3, r1, #12
    28d0:	0b1b      	lsrs	r3, r3, #12
    28d2:	469a      	mov	r10, r3
    28d4:	004b      	lsls	r3, r1, #1
    28d6:	b087      	sub	sp, #28
    28d8:	1c04      	adds	r4, r0, #0
    28da:	4680      	mov	r8, r0
    28dc:	0d5b      	lsrs	r3, r3, #21
    28de:	0fc8      	lsrs	r0, r1, #31
    28e0:	1c16      	adds	r6, r2, #0
    28e2:	9302      	str	r3, [sp, #8]
    28e4:	4681      	mov	r9, r0
    28e6:	2b00      	cmp	r3, #0
    28e8:	d068      	beq.n	29bc <__aeabi_dmul+0xfc>
    28ea:	4b69      	ldr	r3, [pc, #420]	; (2a90 <__aeabi_dmul+0x1d0>)
    28ec:	9902      	ldr	r1, [sp, #8]
    28ee:	4299      	cmp	r1, r3
    28f0:	d032      	beq.n	2958 <__aeabi_dmul+0x98>
    28f2:	2280      	movs	r2, #128	; 0x80
    28f4:	4653      	mov	r3, r10
    28f6:	0352      	lsls	r2, r2, #13
    28f8:	431a      	orrs	r2, r3
    28fa:	00d2      	lsls	r2, r2, #3
    28fc:	0f63      	lsrs	r3, r4, #29
    28fe:	431a      	orrs	r2, r3
    2900:	4692      	mov	r10, r2
    2902:	4a64      	ldr	r2, [pc, #400]	; (2a94 <__aeabi_dmul+0x1d4>)
    2904:	00e0      	lsls	r0, r4, #3
    2906:	1889      	adds	r1, r1, r2
    2908:	4680      	mov	r8, r0
    290a:	9102      	str	r1, [sp, #8]
    290c:	2400      	movs	r4, #0
    290e:	2500      	movs	r5, #0
    2910:	033b      	lsls	r3, r7, #12
    2912:	0b1b      	lsrs	r3, r3, #12
    2914:	469b      	mov	r11, r3
    2916:	0078      	lsls	r0, r7, #1
    2918:	0ffb      	lsrs	r3, r7, #31
    291a:	1c32      	adds	r2, r6, #0
    291c:	0d40      	lsrs	r0, r0, #21
    291e:	9303      	str	r3, [sp, #12]
    2920:	d100      	bne.n	2924 <__aeabi_dmul+0x64>
    2922:	e075      	b.n	2a10 <__aeabi_dmul+0x150>
    2924:	4b5a      	ldr	r3, [pc, #360]	; (2a90 <__aeabi_dmul+0x1d0>)
    2926:	4298      	cmp	r0, r3
    2928:	d069      	beq.n	29fe <__aeabi_dmul+0x13e>
    292a:	2280      	movs	r2, #128	; 0x80
    292c:	4659      	mov	r1, r11
    292e:	0352      	lsls	r2, r2, #13
    2930:	430a      	orrs	r2, r1
    2932:	0f73      	lsrs	r3, r6, #29
    2934:	00d2      	lsls	r2, r2, #3
    2936:	431a      	orrs	r2, r3
    2938:	4b56      	ldr	r3, [pc, #344]	; (2a94 <__aeabi_dmul+0x1d4>)
    293a:	4693      	mov	r11, r2
    293c:	18c0      	adds	r0, r0, r3
    293e:	00f2      	lsls	r2, r6, #3
    2940:	2300      	movs	r3, #0
    2942:	9903      	ldr	r1, [sp, #12]
    2944:	464e      	mov	r6, r9
    2946:	4071      	eors	r1, r6
    2948:	431c      	orrs	r4, r3
    294a:	2c0f      	cmp	r4, #15
    294c:	d900      	bls.n	2950 <__aeabi_dmul+0x90>
    294e:	e0a9      	b.n	2aa4 <__aeabi_dmul+0x1e4>
    2950:	4e51      	ldr	r6, [pc, #324]	; (2a98 <__aeabi_dmul+0x1d8>)
    2952:	00a4      	lsls	r4, r4, #2
    2954:	5934      	ldr	r4, [r6, r4]
    2956:	46a7      	mov	pc, r4
    2958:	4653      	mov	r3, r10
    295a:	431c      	orrs	r4, r3
    295c:	d000      	beq.n	2960 <__aeabi_dmul+0xa0>
    295e:	e087      	b.n	2a70 <__aeabi_dmul+0x1b0>
    2960:	2500      	movs	r5, #0
    2962:	46aa      	mov	r10, r5
    2964:	46a8      	mov	r8, r5
    2966:	2408      	movs	r4, #8
    2968:	2502      	movs	r5, #2
    296a:	e7d1      	b.n	2910 <__aeabi_dmul+0x50>
    296c:	4649      	mov	r1, r9
    296e:	2d02      	cmp	r5, #2
    2970:	d06c      	beq.n	2a4c <__aeabi_dmul+0x18c>
    2972:	2d03      	cmp	r5, #3
    2974:	d100      	bne.n	2978 <__aeabi_dmul+0xb8>
    2976:	e217      	b.n	2da8 <__aeabi_dmul+0x4e8>
    2978:	2d01      	cmp	r5, #1
    297a:	d000      	beq.n	297e <__aeabi_dmul+0xbe>
    297c:	e158      	b.n	2c30 <__aeabi_dmul+0x370>
    297e:	400d      	ands	r5, r1
    2980:	b2ed      	uxtb	r5, r5
    2982:	2400      	movs	r4, #0
    2984:	46a9      	mov	r9, r5
    2986:	2300      	movs	r3, #0
    2988:	46a0      	mov	r8, r4
    298a:	2000      	movs	r0, #0
    298c:	2100      	movs	r1, #0
    298e:	0325      	lsls	r5, r4, #12
    2990:	0d0a      	lsrs	r2, r1, #20
    2992:	051c      	lsls	r4, r3, #20
    2994:	0b2d      	lsrs	r5, r5, #12
    2996:	0512      	lsls	r2, r2, #20
    2998:	4b40      	ldr	r3, [pc, #256]	; (2a9c <__aeabi_dmul+0x1dc>)
    299a:	432a      	orrs	r2, r5
    299c:	4013      	ands	r3, r2
    299e:	4323      	orrs	r3, r4
    29a0:	005b      	lsls	r3, r3, #1
    29a2:	464c      	mov	r4, r9
    29a4:	085b      	lsrs	r3, r3, #1
    29a6:	07e2      	lsls	r2, r4, #31
    29a8:	1c19      	adds	r1, r3, #0
    29aa:	4640      	mov	r0, r8
    29ac:	4311      	orrs	r1, r2
    29ae:	b007      	add	sp, #28
    29b0:	bc3c      	pop	{r2, r3, r4, r5}
    29b2:	4690      	mov	r8, r2
    29b4:	4699      	mov	r9, r3
    29b6:	46a2      	mov	r10, r4
    29b8:	46ab      	mov	r11, r5
    29ba:	bdf0      	pop	{r4, r5, r6, r7, pc}
    29bc:	4653      	mov	r3, r10
    29be:	4323      	orrs	r3, r4
    29c0:	d050      	beq.n	2a64 <__aeabi_dmul+0x1a4>
    29c2:	4653      	mov	r3, r10
    29c4:	2b00      	cmp	r3, #0
    29c6:	d100      	bne.n	29ca <__aeabi_dmul+0x10a>
    29c8:	e184      	b.n	2cd4 <__aeabi_dmul+0x414>
    29ca:	4650      	mov	r0, r10
    29cc:	f000 fa7a 	bl	2ec4 <__clzsi2>
    29d0:	1e03      	subs	r3, r0, #0
    29d2:	2b27      	cmp	r3, #39	; 0x27
    29d4:	dd00      	ble.n	29d8 <__aeabi_dmul+0x118>
    29d6:	e176      	b.n	2cc6 <__aeabi_dmul+0x406>
    29d8:	2128      	movs	r1, #40	; 0x28
    29da:	1a0d      	subs	r5, r1, r0
    29dc:	1c21      	adds	r1, r4, #0
    29de:	3b08      	subs	r3, #8
    29e0:	4652      	mov	r2, r10
    29e2:	40e9      	lsrs	r1, r5
    29e4:	409a      	lsls	r2, r3
    29e6:	1c0d      	adds	r5, r1, #0
    29e8:	4315      	orrs	r5, r2
    29ea:	1c22      	adds	r2, r4, #0
    29ec:	409a      	lsls	r2, r3
    29ee:	46aa      	mov	r10, r5
    29f0:	4690      	mov	r8, r2
    29f2:	4b2b      	ldr	r3, [pc, #172]	; (2aa0 <__aeabi_dmul+0x1e0>)
    29f4:	2400      	movs	r4, #0
    29f6:	1a1b      	subs	r3, r3, r0
    29f8:	9302      	str	r3, [sp, #8]
    29fa:	2500      	movs	r5, #0
    29fc:	e788      	b.n	2910 <__aeabi_dmul+0x50>
    29fe:	465b      	mov	r3, r11
    2a00:	431e      	orrs	r6, r3
    2a02:	2303      	movs	r3, #3
    2a04:	2e00      	cmp	r6, #0
    2a06:	d19c      	bne.n	2942 <__aeabi_dmul+0x82>
    2a08:	46b3      	mov	r11, r6
    2a0a:	2200      	movs	r2, #0
    2a0c:	2302      	movs	r3, #2
    2a0e:	e798      	b.n	2942 <__aeabi_dmul+0x82>
    2a10:	465b      	mov	r3, r11
    2a12:	4333      	orrs	r3, r6
    2a14:	d021      	beq.n	2a5a <__aeabi_dmul+0x19a>
    2a16:	4658      	mov	r0, r11
    2a18:	2800      	cmp	r0, #0
    2a1a:	d100      	bne.n	2a1e <__aeabi_dmul+0x15e>
    2a1c:	e14e      	b.n	2cbc <__aeabi_dmul+0x3fc>
    2a1e:	f000 fa51 	bl	2ec4 <__clzsi2>
    2a22:	2827      	cmp	r0, #39	; 0x27
    2a24:	dd00      	ble.n	2a28 <__aeabi_dmul+0x168>
    2a26:	e142      	b.n	2cae <__aeabi_dmul+0x3ee>
    2a28:	2128      	movs	r1, #40	; 0x28
    2a2a:	1a0f      	subs	r7, r1, r0
    2a2c:	1c02      	adds	r2, r0, #0
    2a2e:	1c31      	adds	r1, r6, #0
    2a30:	3a08      	subs	r2, #8
    2a32:	465b      	mov	r3, r11
    2a34:	40f9      	lsrs	r1, r7
    2a36:	4093      	lsls	r3, r2
    2a38:	1c0f      	adds	r7, r1, #0
    2a3a:	431f      	orrs	r7, r3
    2a3c:	1c33      	adds	r3, r6, #0
    2a3e:	4093      	lsls	r3, r2
    2a40:	46bb      	mov	r11, r7
    2a42:	1c1a      	adds	r2, r3, #0
    2a44:	4b16      	ldr	r3, [pc, #88]	; (2aa0 <__aeabi_dmul+0x1e0>)
    2a46:	1a18      	subs	r0, r3, r0
    2a48:	2300      	movs	r3, #0
    2a4a:	e77a      	b.n	2942 <__aeabi_dmul+0x82>
    2a4c:	2301      	movs	r3, #1
    2a4e:	400b      	ands	r3, r1
    2a50:	2400      	movs	r4, #0
    2a52:	4699      	mov	r9, r3
    2a54:	46a0      	mov	r8, r4
    2a56:	4b0e      	ldr	r3, [pc, #56]	; (2a90 <__aeabi_dmul+0x1d0>)
    2a58:	e797      	b.n	298a <__aeabi_dmul+0xca>
    2a5a:	2700      	movs	r7, #0
    2a5c:	46bb      	mov	r11, r7
    2a5e:	2200      	movs	r2, #0
    2a60:	2301      	movs	r3, #1
    2a62:	e76e      	b.n	2942 <__aeabi_dmul+0x82>
    2a64:	2100      	movs	r1, #0
    2a66:	2404      	movs	r4, #4
    2a68:	468a      	mov	r10, r1
    2a6a:	4688      	mov	r8, r1
    2a6c:	2501      	movs	r5, #1
    2a6e:	e74f      	b.n	2910 <__aeabi_dmul+0x50>
    2a70:	240c      	movs	r4, #12
    2a72:	2503      	movs	r5, #3
    2a74:	e74c      	b.n	2910 <__aeabi_dmul+0x50>
    2a76:	2500      	movs	r5, #0
    2a78:	2480      	movs	r4, #128	; 0x80
    2a7a:	46a9      	mov	r9, r5
    2a7c:	0324      	lsls	r4, r4, #12
    2a7e:	46a8      	mov	r8, r5
    2a80:	4b03      	ldr	r3, [pc, #12]	; (2a90 <__aeabi_dmul+0x1d0>)
    2a82:	e782      	b.n	298a <__aeabi_dmul+0xca>
    2a84:	46da      	mov	r10, r11
    2a86:	4690      	mov	r8, r2
    2a88:	9903      	ldr	r1, [sp, #12]
    2a8a:	1c1d      	adds	r5, r3, #0
    2a8c:	e76f      	b.n	296e <__aeabi_dmul+0xae>
    2a8e:	46c0      	nop			; (mov r8, r8)
    2a90:	000007ff 	.word	0x000007ff
    2a94:	fffffc01 	.word	0xfffffc01
    2a98:	000065b0 	.word	0x000065b0
    2a9c:	800fffff 	.word	0x800fffff
    2aa0:	fffffc0d 	.word	0xfffffc0d
    2aa4:	9f02      	ldr	r7, [sp, #8]
    2aa6:	0c16      	lsrs	r6, r2, #16
    2aa8:	1838      	adds	r0, r7, r0
    2aaa:	9004      	str	r0, [sp, #16]
    2aac:	4640      	mov	r0, r8
    2aae:	0c07      	lsrs	r7, r0, #16
    2ab0:	0400      	lsls	r0, r0, #16
    2ab2:	0c00      	lsrs	r0, r0, #16
    2ab4:	0412      	lsls	r2, r2, #16
    2ab6:	0c12      	lsrs	r2, r2, #16
    2ab8:	1c03      	adds	r3, r0, #0
    2aba:	4353      	muls	r3, r2
    2abc:	1c04      	adds	r4, r0, #0
    2abe:	1c3d      	adds	r5, r7, #0
    2ac0:	4374      	muls	r4, r6
    2ac2:	4355      	muls	r5, r2
    2ac4:	4698      	mov	r8, r3
    2ac6:	1c3b      	adds	r3, r7, #0
    2ac8:	4373      	muls	r3, r6
    2aca:	1964      	adds	r4, r4, r5
    2acc:	46a4      	mov	r12, r4
    2ace:	4644      	mov	r4, r8
    2ad0:	9302      	str	r3, [sp, #8]
    2ad2:	0c23      	lsrs	r3, r4, #16
    2ad4:	4463      	add	r3, r12
    2ad6:	429d      	cmp	r5, r3
    2ad8:	d904      	bls.n	2ae4 <__aeabi_dmul+0x224>
    2ada:	9d02      	ldr	r5, [sp, #8]
    2adc:	2480      	movs	r4, #128	; 0x80
    2ade:	0264      	lsls	r4, r4, #9
    2ae0:	192d      	adds	r5, r5, r4
    2ae2:	9502      	str	r5, [sp, #8]
    2ae4:	0c1d      	lsrs	r5, r3, #16
    2ae6:	9503      	str	r5, [sp, #12]
    2ae8:	4645      	mov	r5, r8
    2aea:	042c      	lsls	r4, r5, #16
    2aec:	041b      	lsls	r3, r3, #16
    2aee:	0c24      	lsrs	r4, r4, #16
    2af0:	191c      	adds	r4, r3, r4
    2af2:	9405      	str	r4, [sp, #20]
    2af4:	465c      	mov	r4, r11
    2af6:	0c23      	lsrs	r3, r4, #16
    2af8:	1c05      	adds	r5, r0, #0
    2afa:	4358      	muls	r0, r3
    2afc:	0424      	lsls	r4, r4, #16
    2afe:	0c24      	lsrs	r4, r4, #16
    2b00:	4684      	mov	r12, r0
    2b02:	1c38      	adds	r0, r7, #0
    2b04:	4360      	muls	r0, r4
    2b06:	4365      	muls	r5, r4
    2b08:	435f      	muls	r7, r3
    2b0a:	4681      	mov	r9, r0
    2b0c:	44cc      	add	r12, r9
    2b0e:	0c28      	lsrs	r0, r5, #16
    2b10:	4460      	add	r0, r12
    2b12:	46bb      	mov	r11, r7
    2b14:	4581      	cmp	r9, r0
    2b16:	d902      	bls.n	2b1e <__aeabi_dmul+0x25e>
    2b18:	2780      	movs	r7, #128	; 0x80
    2b1a:	027f      	lsls	r7, r7, #9
    2b1c:	44bb      	add	r11, r7
    2b1e:	042d      	lsls	r5, r5, #16
    2b20:	0c07      	lsrs	r7, r0, #16
    2b22:	0c2d      	lsrs	r5, r5, #16
    2b24:	0400      	lsls	r0, r0, #16
    2b26:	1940      	adds	r0, r0, r5
    2b28:	4655      	mov	r5, r10
    2b2a:	46bc      	mov	r12, r7
    2b2c:	042f      	lsls	r7, r5, #16
    2b2e:	44e3      	add	r11, r12
    2b30:	4684      	mov	r12, r0
    2b32:	0c28      	lsrs	r0, r5, #16
    2b34:	0c3d      	lsrs	r5, r7, #16
    2b36:	1c2f      	adds	r7, r5, #0
    2b38:	4357      	muls	r7, r2
    2b3a:	46b8      	mov	r8, r7
    2b3c:	1c2f      	adds	r7, r5, #0
    2b3e:	4377      	muls	r7, r6
    2b40:	4342      	muls	r2, r0
    2b42:	46b9      	mov	r9, r7
    2b44:	4647      	mov	r7, r8
    2b46:	0c3f      	lsrs	r7, r7, #16
    2b48:	4491      	add	r9, r2
    2b4a:	46ba      	mov	r10, r7
    2b4c:	44d1      	add	r9, r10
    2b4e:	4346      	muls	r6, r0
    2b50:	454a      	cmp	r2, r9
    2b52:	d902      	bls.n	2b5a <__aeabi_dmul+0x29a>
    2b54:	2280      	movs	r2, #128	; 0x80
    2b56:	0252      	lsls	r2, r2, #9
    2b58:	18b6      	adds	r6, r6, r2
    2b5a:	464f      	mov	r7, r9
    2b5c:	0c3a      	lsrs	r2, r7, #16
    2b5e:	18b6      	adds	r6, r6, r2
    2b60:	043a      	lsls	r2, r7, #16
    2b62:	4647      	mov	r7, r8
    2b64:	043f      	lsls	r7, r7, #16
    2b66:	0c3f      	lsrs	r7, r7, #16
    2b68:	46b8      	mov	r8, r7
    2b6a:	1c2f      	adds	r7, r5, #0
    2b6c:	4367      	muls	r7, r4
    2b6e:	435d      	muls	r5, r3
    2b70:	4344      	muls	r4, r0
    2b72:	4358      	muls	r0, r3
    2b74:	1965      	adds	r5, r4, r5
    2b76:	9001      	str	r0, [sp, #4]
    2b78:	0c38      	lsrs	r0, r7, #16
    2b7a:	182d      	adds	r5, r5, r0
    2b7c:	4442      	add	r2, r8
    2b7e:	46b8      	mov	r8, r7
    2b80:	42ac      	cmp	r4, r5
    2b82:	d904      	bls.n	2b8e <__aeabi_dmul+0x2ce>
    2b84:	9801      	ldr	r0, [sp, #4]
    2b86:	2380      	movs	r3, #128	; 0x80
    2b88:	025b      	lsls	r3, r3, #9
    2b8a:	18c0      	adds	r0, r0, r3
    2b8c:	9001      	str	r0, [sp, #4]
    2b8e:	9c03      	ldr	r4, [sp, #12]
    2b90:	9f02      	ldr	r7, [sp, #8]
    2b92:	1c20      	adds	r0, r4, #0
    2b94:	4460      	add	r0, r12
    2b96:	19c0      	adds	r0, r0, r7
    2b98:	4560      	cmp	r0, r12
    2b9a:	41a4      	sbcs	r4, r4
    2b9c:	4647      	mov	r7, r8
    2b9e:	4264      	negs	r4, r4
    2ba0:	46a4      	mov	r12, r4
    2ba2:	042b      	lsls	r3, r5, #16
    2ba4:	043c      	lsls	r4, r7, #16
    2ba6:	4699      	mov	r9, r3
    2ba8:	0c24      	lsrs	r4, r4, #16
    2baa:	444c      	add	r4, r9
    2bac:	46a0      	mov	r8, r4
    2bae:	44d8      	add	r8, r11
    2bb0:	1880      	adds	r0, r0, r2
    2bb2:	46c2      	mov	r10, r8
    2bb4:	44e2      	add	r10, r12
    2bb6:	4290      	cmp	r0, r2
    2bb8:	4192      	sbcs	r2, r2
    2bba:	4657      	mov	r7, r10
    2bbc:	4252      	negs	r2, r2
    2bbe:	4691      	mov	r9, r2
    2bc0:	19f2      	adds	r2, r6, r7
    2bc2:	45e2      	cmp	r10, r12
    2bc4:	41bf      	sbcs	r7, r7
    2bc6:	427f      	negs	r7, r7
    2bc8:	464b      	mov	r3, r9
    2bca:	46bc      	mov	r12, r7
    2bcc:	45d8      	cmp	r8, r11
    2bce:	41bf      	sbcs	r7, r7
    2bd0:	18d4      	adds	r4, r2, r3
    2bd2:	427f      	negs	r7, r7
    2bd4:	4663      	mov	r3, r12
    2bd6:	431f      	orrs	r7, r3
    2bd8:	0c2d      	lsrs	r5, r5, #16
    2bda:	197f      	adds	r7, r7, r5
    2bdc:	42b2      	cmp	r2, r6
    2bde:	4192      	sbcs	r2, r2
    2be0:	454c      	cmp	r4, r9
    2be2:	41ad      	sbcs	r5, r5
    2be4:	4252      	negs	r2, r2
    2be6:	426d      	negs	r5, r5
    2be8:	4315      	orrs	r5, r2
    2bea:	9e01      	ldr	r6, [sp, #4]
    2bec:	197d      	adds	r5, r7, r5
    2bee:	19ab      	adds	r3, r5, r6
    2bf0:	0de2      	lsrs	r2, r4, #23
    2bf2:	025b      	lsls	r3, r3, #9
    2bf4:	9f05      	ldr	r7, [sp, #20]
    2bf6:	4313      	orrs	r3, r2
    2bf8:	0242      	lsls	r2, r0, #9
    2bfa:	433a      	orrs	r2, r7
    2bfc:	469a      	mov	r10, r3
    2bfe:	1e53      	subs	r3, r2, #1
    2c00:	419a      	sbcs	r2, r3
    2c02:	0dc3      	lsrs	r3, r0, #23
    2c04:	1c10      	adds	r0, r2, #0
    2c06:	4318      	orrs	r0, r3
    2c08:	0264      	lsls	r4, r4, #9
    2c0a:	4320      	orrs	r0, r4
    2c0c:	4680      	mov	r8, r0
    2c0e:	4650      	mov	r0, r10
    2c10:	01c0      	lsls	r0, r0, #7
    2c12:	d50d      	bpl.n	2c30 <__aeabi_dmul+0x370>
    2c14:	4645      	mov	r5, r8
    2c16:	2201      	movs	r2, #1
    2c18:	4656      	mov	r6, r10
    2c1a:	9c04      	ldr	r4, [sp, #16]
    2c1c:	086b      	lsrs	r3, r5, #1
    2c1e:	402a      	ands	r2, r5
    2c20:	431a      	orrs	r2, r3
    2c22:	07f3      	lsls	r3, r6, #31
    2c24:	3401      	adds	r4, #1
    2c26:	431a      	orrs	r2, r3
    2c28:	0876      	lsrs	r6, r6, #1
    2c2a:	9404      	str	r4, [sp, #16]
    2c2c:	4690      	mov	r8, r2
    2c2e:	46b2      	mov	r10, r6
    2c30:	9e04      	ldr	r6, [sp, #16]
    2c32:	4f63      	ldr	r7, [pc, #396]	; (2dc0 <__aeabi_dmul+0x500>)
    2c34:	19f3      	adds	r3, r6, r7
    2c36:	2b00      	cmp	r3, #0
    2c38:	dd61      	ble.n	2cfe <__aeabi_dmul+0x43e>
    2c3a:	4640      	mov	r0, r8
    2c3c:	0740      	lsls	r0, r0, #29
    2c3e:	d00b      	beq.n	2c58 <__aeabi_dmul+0x398>
    2c40:	220f      	movs	r2, #15
    2c42:	4644      	mov	r4, r8
    2c44:	4022      	ands	r2, r4
    2c46:	2a04      	cmp	r2, #4
    2c48:	d006      	beq.n	2c58 <__aeabi_dmul+0x398>
    2c4a:	4642      	mov	r2, r8
    2c4c:	3204      	adds	r2, #4
    2c4e:	4542      	cmp	r2, r8
    2c50:	4180      	sbcs	r0, r0
    2c52:	4240      	negs	r0, r0
    2c54:	4482      	add	r10, r0
    2c56:	4690      	mov	r8, r2
    2c58:	4655      	mov	r5, r10
    2c5a:	01ed      	lsls	r5, r5, #7
    2c5c:	d507      	bpl.n	2c6e <__aeabi_dmul+0x3ae>
    2c5e:	4b59      	ldr	r3, [pc, #356]	; (2dc4 <__aeabi_dmul+0x504>)
    2c60:	4656      	mov	r6, r10
    2c62:	9f04      	ldr	r7, [sp, #16]
    2c64:	2080      	movs	r0, #128	; 0x80
    2c66:	401e      	ands	r6, r3
    2c68:	00c0      	lsls	r0, r0, #3
    2c6a:	46b2      	mov	r10, r6
    2c6c:	183b      	adds	r3, r7, r0
    2c6e:	4a56      	ldr	r2, [pc, #344]	; (2dc8 <__aeabi_dmul+0x508>)
    2c70:	4293      	cmp	r3, r2
    2c72:	dd00      	ble.n	2c76 <__aeabi_dmul+0x3b6>
    2c74:	e6ea      	b.n	2a4c <__aeabi_dmul+0x18c>
    2c76:	4644      	mov	r4, r8
    2c78:	4655      	mov	r5, r10
    2c7a:	08e2      	lsrs	r2, r4, #3
    2c7c:	0768      	lsls	r0, r5, #29
    2c7e:	4310      	orrs	r0, r2
    2c80:	2201      	movs	r2, #1
    2c82:	026c      	lsls	r4, r5, #9
    2c84:	055b      	lsls	r3, r3, #21
    2c86:	400a      	ands	r2, r1
    2c88:	4680      	mov	r8, r0
    2c8a:	0b24      	lsrs	r4, r4, #12
    2c8c:	0d5b      	lsrs	r3, r3, #21
    2c8e:	4691      	mov	r9, r2
    2c90:	e67b      	b.n	298a <__aeabi_dmul+0xca>
    2c92:	46da      	mov	r10, r11
    2c94:	4690      	mov	r8, r2
    2c96:	1c1d      	adds	r5, r3, #0
    2c98:	e669      	b.n	296e <__aeabi_dmul+0xae>
    2c9a:	2480      	movs	r4, #128	; 0x80
    2c9c:	0324      	lsls	r4, r4, #12
    2c9e:	4657      	mov	r7, r10
    2ca0:	4227      	tst	r7, r4
    2ca2:	d11c      	bne.n	2cde <__aeabi_dmul+0x41e>
    2ca4:	433c      	orrs	r4, r7
    2ca6:	0324      	lsls	r4, r4, #12
    2ca8:	0b24      	lsrs	r4, r4, #12
    2caa:	4b48      	ldr	r3, [pc, #288]	; (2dcc <__aeabi_dmul+0x50c>)
    2cac:	e66d      	b.n	298a <__aeabi_dmul+0xca>
    2cae:	1c03      	adds	r3, r0, #0
    2cb0:	3b28      	subs	r3, #40	; 0x28
    2cb2:	1c31      	adds	r1, r6, #0
    2cb4:	4099      	lsls	r1, r3
    2cb6:	468b      	mov	r11, r1
    2cb8:	2200      	movs	r2, #0
    2cba:	e6c3      	b.n	2a44 <__aeabi_dmul+0x184>
    2cbc:	1c30      	adds	r0, r6, #0
    2cbe:	f000 f901 	bl	2ec4 <__clzsi2>
    2cc2:	3020      	adds	r0, #32
    2cc4:	e6ad      	b.n	2a22 <__aeabi_dmul+0x162>
    2cc6:	3b28      	subs	r3, #40	; 0x28
    2cc8:	1c21      	adds	r1, r4, #0
    2cca:	4099      	lsls	r1, r3
    2ccc:	2200      	movs	r2, #0
    2cce:	468a      	mov	r10, r1
    2cd0:	4690      	mov	r8, r2
    2cd2:	e68e      	b.n	29f2 <__aeabi_dmul+0x132>
    2cd4:	1c20      	adds	r0, r4, #0
    2cd6:	f000 f8f5 	bl	2ec4 <__clzsi2>
    2cda:	3020      	adds	r0, #32
    2cdc:	e678      	b.n	29d0 <__aeabi_dmul+0x110>
    2cde:	4658      	mov	r0, r11
    2ce0:	4220      	tst	r0, r4
    2ce2:	d107      	bne.n	2cf4 <__aeabi_dmul+0x434>
    2ce4:	4304      	orrs	r4, r0
    2ce6:	9903      	ldr	r1, [sp, #12]
    2ce8:	0324      	lsls	r4, r4, #12
    2cea:	0b24      	lsrs	r4, r4, #12
    2cec:	4689      	mov	r9, r1
    2cee:	4690      	mov	r8, r2
    2cf0:	4b36      	ldr	r3, [pc, #216]	; (2dcc <__aeabi_dmul+0x50c>)
    2cf2:	e64a      	b.n	298a <__aeabi_dmul+0xca>
    2cf4:	433c      	orrs	r4, r7
    2cf6:	0324      	lsls	r4, r4, #12
    2cf8:	0b24      	lsrs	r4, r4, #12
    2cfa:	4b34      	ldr	r3, [pc, #208]	; (2dcc <__aeabi_dmul+0x50c>)
    2cfc:	e645      	b.n	298a <__aeabi_dmul+0xca>
    2cfe:	4b34      	ldr	r3, [pc, #208]	; (2dd0 <__aeabi_dmul+0x510>)
    2d00:	9e04      	ldr	r6, [sp, #16]
    2d02:	1b9b      	subs	r3, r3, r6
    2d04:	2b38      	cmp	r3, #56	; 0x38
    2d06:	dd06      	ble.n	2d16 <__aeabi_dmul+0x456>
    2d08:	2301      	movs	r3, #1
    2d0a:	400b      	ands	r3, r1
    2d0c:	2400      	movs	r4, #0
    2d0e:	4699      	mov	r9, r3
    2d10:	46a0      	mov	r8, r4
    2d12:	2300      	movs	r3, #0
    2d14:	e639      	b.n	298a <__aeabi_dmul+0xca>
    2d16:	2b1f      	cmp	r3, #31
    2d18:	dc25      	bgt.n	2d66 <__aeabi_dmul+0x4a6>
    2d1a:	9c04      	ldr	r4, [sp, #16]
    2d1c:	4d2d      	ldr	r5, [pc, #180]	; (2dd4 <__aeabi_dmul+0x514>)
    2d1e:	4646      	mov	r6, r8
    2d20:	1960      	adds	r0, r4, r5
    2d22:	4652      	mov	r2, r10
    2d24:	4644      	mov	r4, r8
    2d26:	4086      	lsls	r6, r0
    2d28:	40dc      	lsrs	r4, r3
    2d2a:	4082      	lsls	r2, r0
    2d2c:	4657      	mov	r7, r10
    2d2e:	1c30      	adds	r0, r6, #0
    2d30:	4322      	orrs	r2, r4
    2d32:	40df      	lsrs	r7, r3
    2d34:	1e44      	subs	r4, r0, #1
    2d36:	41a0      	sbcs	r0, r4
    2d38:	4302      	orrs	r2, r0
    2d3a:	1c3b      	adds	r3, r7, #0
    2d3c:	0754      	lsls	r4, r2, #29
    2d3e:	d009      	beq.n	2d54 <__aeabi_dmul+0x494>
    2d40:	200f      	movs	r0, #15
    2d42:	4010      	ands	r0, r2
    2d44:	2804      	cmp	r0, #4
    2d46:	d005      	beq.n	2d54 <__aeabi_dmul+0x494>
    2d48:	1d10      	adds	r0, r2, #4
    2d4a:	4290      	cmp	r0, r2
    2d4c:	4192      	sbcs	r2, r2
    2d4e:	4252      	negs	r2, r2
    2d50:	189b      	adds	r3, r3, r2
    2d52:	1c02      	adds	r2, r0, #0
    2d54:	021d      	lsls	r5, r3, #8
    2d56:	d51a      	bpl.n	2d8e <__aeabi_dmul+0x4ce>
    2d58:	2301      	movs	r3, #1
    2d5a:	400b      	ands	r3, r1
    2d5c:	2400      	movs	r4, #0
    2d5e:	4699      	mov	r9, r3
    2d60:	46a0      	mov	r8, r4
    2d62:	2301      	movs	r3, #1
    2d64:	e611      	b.n	298a <__aeabi_dmul+0xca>
    2d66:	481c      	ldr	r0, [pc, #112]	; (2dd8 <__aeabi_dmul+0x518>)
    2d68:	9c04      	ldr	r4, [sp, #16]
    2d6a:	4655      	mov	r5, r10
    2d6c:	1b00      	subs	r0, r0, r4
    2d6e:	40c5      	lsrs	r5, r0
    2d70:	1c28      	adds	r0, r5, #0
    2d72:	2b20      	cmp	r3, #32
    2d74:	d016      	beq.n	2da4 <__aeabi_dmul+0x4e4>
    2d76:	4e19      	ldr	r6, [pc, #100]	; (2ddc <__aeabi_dmul+0x51c>)
    2d78:	4657      	mov	r7, r10
    2d7a:	19a2      	adds	r2, r4, r6
    2d7c:	4097      	lsls	r7, r2
    2d7e:	1c3a      	adds	r2, r7, #0
    2d80:	4643      	mov	r3, r8
    2d82:	431a      	orrs	r2, r3
    2d84:	1e53      	subs	r3, r2, #1
    2d86:	419a      	sbcs	r2, r3
    2d88:	4302      	orrs	r2, r0
    2d8a:	2300      	movs	r3, #0
    2d8c:	e7d6      	b.n	2d3c <__aeabi_dmul+0x47c>
    2d8e:	0758      	lsls	r0, r3, #29
    2d90:	025b      	lsls	r3, r3, #9
    2d92:	08d2      	lsrs	r2, r2, #3
    2d94:	0b1c      	lsrs	r4, r3, #12
    2d96:	2301      	movs	r3, #1
    2d98:	400b      	ands	r3, r1
    2d9a:	4310      	orrs	r0, r2
    2d9c:	4699      	mov	r9, r3
    2d9e:	4680      	mov	r8, r0
    2da0:	2300      	movs	r3, #0
    2da2:	e5f2      	b.n	298a <__aeabi_dmul+0xca>
    2da4:	2200      	movs	r2, #0
    2da6:	e7eb      	b.n	2d80 <__aeabi_dmul+0x4c0>
    2da8:	2480      	movs	r4, #128	; 0x80
    2daa:	0324      	lsls	r4, r4, #12
    2dac:	4650      	mov	r0, r10
    2dae:	2301      	movs	r3, #1
    2db0:	4304      	orrs	r4, r0
    2db2:	4019      	ands	r1, r3
    2db4:	0324      	lsls	r4, r4, #12
    2db6:	0b24      	lsrs	r4, r4, #12
    2db8:	4689      	mov	r9, r1
    2dba:	4b04      	ldr	r3, [pc, #16]	; (2dcc <__aeabi_dmul+0x50c>)
    2dbc:	e5e5      	b.n	298a <__aeabi_dmul+0xca>
    2dbe:	46c0      	nop			; (mov r8, r8)
    2dc0:	000003ff 	.word	0x000003ff
    2dc4:	feffffff 	.word	0xfeffffff
    2dc8:	000007fe 	.word	0x000007fe
    2dcc:	000007ff 	.word	0x000007ff
    2dd0:	fffffc02 	.word	0xfffffc02
    2dd4:	0000041e 	.word	0x0000041e
    2dd8:	fffffbe2 	.word	0xfffffbe2
    2ddc:	0000043e 	.word	0x0000043e

00002de0 <__aeabi_d2iz>:
    2de0:	b570      	push	{r4, r5, r6, lr}
    2de2:	1c0b      	adds	r3, r1, #0
    2de4:	4c12      	ldr	r4, [pc, #72]	; (2e30 <__aeabi_d2iz+0x50>)
    2de6:	0309      	lsls	r1, r1, #12
    2de8:	0b0e      	lsrs	r6, r1, #12
    2dea:	0059      	lsls	r1, r3, #1
    2dec:	1c02      	adds	r2, r0, #0
    2dee:	0d49      	lsrs	r1, r1, #21
    2df0:	0fdd      	lsrs	r5, r3, #31
    2df2:	2000      	movs	r0, #0
    2df4:	42a1      	cmp	r1, r4
    2df6:	dd11      	ble.n	2e1c <__aeabi_d2iz+0x3c>
    2df8:	480e      	ldr	r0, [pc, #56]	; (2e34 <__aeabi_d2iz+0x54>)
    2dfa:	4281      	cmp	r1, r0
    2dfc:	dc0f      	bgt.n	2e1e <__aeabi_d2iz+0x3e>
    2dfe:	2080      	movs	r0, #128	; 0x80
    2e00:	0340      	lsls	r0, r0, #13
    2e02:	4306      	orrs	r6, r0
    2e04:	480c      	ldr	r0, [pc, #48]	; (2e38 <__aeabi_d2iz+0x58>)
    2e06:	1a40      	subs	r0, r0, r1
    2e08:	281f      	cmp	r0, #31
    2e0a:	dd0b      	ble.n	2e24 <__aeabi_d2iz+0x44>
    2e0c:	4a0b      	ldr	r2, [pc, #44]	; (2e3c <__aeabi_d2iz+0x5c>)
    2e0e:	1a52      	subs	r2, r2, r1
    2e10:	40d6      	lsrs	r6, r2
    2e12:	1c32      	adds	r2, r6, #0
    2e14:	4250      	negs	r0, r2
    2e16:	2d00      	cmp	r5, #0
    2e18:	d100      	bne.n	2e1c <__aeabi_d2iz+0x3c>
    2e1a:	1c10      	adds	r0, r2, #0
    2e1c:	bd70      	pop	{r4, r5, r6, pc}
    2e1e:	4b08      	ldr	r3, [pc, #32]	; (2e40 <__aeabi_d2iz+0x60>)
    2e20:	18e8      	adds	r0, r5, r3
    2e22:	e7fb      	b.n	2e1c <__aeabi_d2iz+0x3c>
    2e24:	4b07      	ldr	r3, [pc, #28]	; (2e44 <__aeabi_d2iz+0x64>)
    2e26:	40c2      	lsrs	r2, r0
    2e28:	18c9      	adds	r1, r1, r3
    2e2a:	408e      	lsls	r6, r1
    2e2c:	4332      	orrs	r2, r6
    2e2e:	e7f1      	b.n	2e14 <__aeabi_d2iz+0x34>
    2e30:	000003fe 	.word	0x000003fe
    2e34:	0000041d 	.word	0x0000041d
    2e38:	00000433 	.word	0x00000433
    2e3c:	00000413 	.word	0x00000413
    2e40:	7fffffff 	.word	0x7fffffff
    2e44:	fffffbed 	.word	0xfffffbed

00002e48 <__aeabi_i2d>:
    2e48:	b5f8      	push	{r3, r4, r5, r6, r7, lr}
    2e4a:	1e04      	subs	r4, r0, #0
    2e4c:	d031      	beq.n	2eb2 <__aeabi_i2d+0x6a>
    2e4e:	0fc7      	lsrs	r7, r0, #31
    2e50:	d000      	beq.n	2e54 <__aeabi_i2d+0xc>
    2e52:	4244      	negs	r4, r0
    2e54:	1c20      	adds	r0, r4, #0
    2e56:	f000 f835 	bl	2ec4 <__clzsi2>
    2e5a:	4d18      	ldr	r5, [pc, #96]	; (2ebc <__aeabi_i2d+0x74>)
    2e5c:	1a2d      	subs	r5, r5, r0
    2e5e:	280a      	cmp	r0, #10
    2e60:	dd19      	ble.n	2e96 <__aeabi_i2d+0x4e>
    2e62:	380b      	subs	r0, #11
    2e64:	4084      	lsls	r4, r0
    2e66:	0324      	lsls	r4, r4, #12
    2e68:	056d      	lsls	r5, r5, #21
    2e6a:	0b24      	lsrs	r4, r4, #12
    2e6c:	0d6d      	lsrs	r5, r5, #21
    2e6e:	1c3a      	adds	r2, r7, #0
    2e70:	2600      	movs	r6, #0
    2e72:	2000      	movs	r0, #0
    2e74:	2100      	movs	r1, #0
    2e76:	0d0b      	lsrs	r3, r1, #20
    2e78:	0324      	lsls	r4, r4, #12
    2e7a:	0b24      	lsrs	r4, r4, #12
    2e7c:	051b      	lsls	r3, r3, #20
    2e7e:	4323      	orrs	r3, r4
    2e80:	4c0f      	ldr	r4, [pc, #60]	; (2ec0 <__aeabi_i2d+0x78>)
    2e82:	052d      	lsls	r5, r5, #20
    2e84:	401c      	ands	r4, r3
    2e86:	432c      	orrs	r4, r5
    2e88:	0064      	lsls	r4, r4, #1
    2e8a:	0864      	lsrs	r4, r4, #1
    2e8c:	07d3      	lsls	r3, r2, #31
    2e8e:	1c21      	adds	r1, r4, #0
    2e90:	1c30      	adds	r0, r6, #0
    2e92:	4319      	orrs	r1, r3
    2e94:	bdf8      	pop	{r3, r4, r5, r6, r7, pc}
    2e96:	1c06      	adds	r6, r0, #0
    2e98:	3615      	adds	r6, #21
    2e9a:	1c23      	adds	r3, r4, #0
    2e9c:	40b3      	lsls	r3, r6
    2e9e:	1c1e      	adds	r6, r3, #0
    2ea0:	230b      	movs	r3, #11
    2ea2:	1a18      	subs	r0, r3, r0
    2ea4:	40c4      	lsrs	r4, r0
    2ea6:	0324      	lsls	r4, r4, #12
    2ea8:	056d      	lsls	r5, r5, #21
    2eaa:	0b24      	lsrs	r4, r4, #12
    2eac:	0d6d      	lsrs	r5, r5, #21
    2eae:	1c3a      	adds	r2, r7, #0
    2eb0:	e7df      	b.n	2e72 <__aeabi_i2d+0x2a>
    2eb2:	2200      	movs	r2, #0
    2eb4:	2500      	movs	r5, #0
    2eb6:	2400      	movs	r4, #0
    2eb8:	2600      	movs	r6, #0
    2eba:	e7da      	b.n	2e72 <__aeabi_i2d+0x2a>
    2ebc:	0000041e 	.word	0x0000041e
    2ec0:	800fffff 	.word	0x800fffff

00002ec4 <__clzsi2>:
    2ec4:	211c      	movs	r1, #28
    2ec6:	2301      	movs	r3, #1
    2ec8:	041b      	lsls	r3, r3, #16
    2eca:	4298      	cmp	r0, r3
    2ecc:	d301      	bcc.n	2ed2 <__clzsi2+0xe>
    2ece:	0c00      	lsrs	r0, r0, #16
    2ed0:	3910      	subs	r1, #16
    2ed2:	0a1b      	lsrs	r3, r3, #8
    2ed4:	4298      	cmp	r0, r3
    2ed6:	d301      	bcc.n	2edc <__clzsi2+0x18>
    2ed8:	0a00      	lsrs	r0, r0, #8
    2eda:	3908      	subs	r1, #8
    2edc:	091b      	lsrs	r3, r3, #4
    2ede:	4298      	cmp	r0, r3
    2ee0:	d301      	bcc.n	2ee6 <__clzsi2+0x22>
    2ee2:	0900      	lsrs	r0, r0, #4
    2ee4:	3904      	subs	r1, #4
    2ee6:	a202      	add	r2, pc, #8	; (adr r2, 2ef0 <__clzsi2+0x2c>)
    2ee8:	5c10      	ldrb	r0, [r2, r0]
    2eea:	1840      	adds	r0, r0, r1
    2eec:	4770      	bx	lr
    2eee:	46c0      	nop			; (mov r8, r8)
    2ef0:	02020304 	.word	0x02020304
    2ef4:	01010101 	.word	0x01010101
	...

00002f00 <__cxa_atexit>:
    2f00:	b538      	push	{r3, r4, r5, lr}
    2f02:	1c05      	adds	r5, r0, #0
    2f04:	4805      	ldr	r0, [pc, #20]	; (2f1c <__cxa_atexit+0x1c>)
    2f06:	1c0c      	adds	r4, r1, #0
    2f08:	1c13      	adds	r3, r2, #0
    2f0a:	2800      	cmp	r0, #0
    2f0c:	d004      	beq.n	2f18 <__cxa_atexit+0x18>
    2f0e:	2002      	movs	r0, #2
    2f10:	1c29      	adds	r1, r5, #0
    2f12:	1c22      	adds	r2, r4, #0
    2f14:	e000      	b.n	2f18 <__cxa_atexit+0x18>
    2f16:	bf00      	nop
    2f18:	bd38      	pop	{r3, r4, r5, pc}
    2f1a:	46c0      	nop			; (mov r8, r8)
    2f1c:	00000000 	.word	0x00000000

00002f20 <__errno>:
    2f20:	4b01      	ldr	r3, [pc, #4]	; (2f28 <__errno+0x8>)
    2f22:	6818      	ldr	r0, [r3, #0]
    2f24:	4770      	bx	lr
    2f26:	46c0      	nop			; (mov r8, r8)
    2f28:	100002ac 	.word	0x100002ac

00002f2c <__sflush_r>:
    2f2c:	b5f7      	push	{r0, r1, r2, r4, r5, r6, r7, lr}
    2f2e:	898b      	ldrh	r3, [r1, #12]
    2f30:	1c05      	adds	r5, r0, #0
    2f32:	1c0c      	adds	r4, r1, #0
    2f34:	0719      	lsls	r1, r3, #28
    2f36:	d45e      	bmi.n	2ff6 <__sflush_r+0xca>
    2f38:	6862      	ldr	r2, [r4, #4]
    2f3a:	2a00      	cmp	r2, #0
    2f3c:	dc02      	bgt.n	2f44 <__sflush_r+0x18>
    2f3e:	6c27      	ldr	r7, [r4, #64]	; 0x40
    2f40:	2f00      	cmp	r7, #0
    2f42:	dd1a      	ble.n	2f7a <__sflush_r+0x4e>
    2f44:	6ae7      	ldr	r7, [r4, #44]	; 0x2c
    2f46:	2f00      	cmp	r7, #0
    2f48:	d017      	beq.n	2f7a <__sflush_r+0x4e>
    2f4a:	2200      	movs	r2, #0
    2f4c:	682e      	ldr	r6, [r5, #0]
    2f4e:	602a      	str	r2, [r5, #0]
    2f50:	2280      	movs	r2, #128	; 0x80
    2f52:	0152      	lsls	r2, r2, #5
    2f54:	401a      	ands	r2, r3
    2f56:	d001      	beq.n	2f5c <__sflush_r+0x30>
    2f58:	6d62      	ldr	r2, [r4, #84]	; 0x54
    2f5a:	e015      	b.n	2f88 <__sflush_r+0x5c>
    2f5c:	1c28      	adds	r0, r5, #0
    2f5e:	6a21      	ldr	r1, [r4, #32]
    2f60:	2301      	movs	r3, #1
    2f62:	47b8      	blx	r7
    2f64:	1c02      	adds	r2, r0, #0
    2f66:	1c41      	adds	r1, r0, #1
    2f68:	d10e      	bne.n	2f88 <__sflush_r+0x5c>
    2f6a:	682b      	ldr	r3, [r5, #0]
    2f6c:	2b00      	cmp	r3, #0
    2f6e:	d00b      	beq.n	2f88 <__sflush_r+0x5c>
    2f70:	2b1d      	cmp	r3, #29
    2f72:	d001      	beq.n	2f78 <__sflush_r+0x4c>
    2f74:	2b16      	cmp	r3, #22
    2f76:	d102      	bne.n	2f7e <__sflush_r+0x52>
    2f78:	602e      	str	r6, [r5, #0]
    2f7a:	2000      	movs	r0, #0
    2f7c:	e05e      	b.n	303c <__sflush_r+0x110>
    2f7e:	89a3      	ldrh	r3, [r4, #12]
    2f80:	2140      	movs	r1, #64	; 0x40
    2f82:	430b      	orrs	r3, r1
    2f84:	81a3      	strh	r3, [r4, #12]
    2f86:	e059      	b.n	303c <__sflush_r+0x110>
    2f88:	89a3      	ldrh	r3, [r4, #12]
    2f8a:	075f      	lsls	r7, r3, #29
    2f8c:	d506      	bpl.n	2f9c <__sflush_r+0x70>
    2f8e:	6861      	ldr	r1, [r4, #4]
    2f90:	6b63      	ldr	r3, [r4, #52]	; 0x34
    2f92:	1a52      	subs	r2, r2, r1
    2f94:	2b00      	cmp	r3, #0
    2f96:	d001      	beq.n	2f9c <__sflush_r+0x70>
    2f98:	6c27      	ldr	r7, [r4, #64]	; 0x40
    2f9a:	1bd2      	subs	r2, r2, r7
    2f9c:	1c28      	adds	r0, r5, #0
    2f9e:	6a21      	ldr	r1, [r4, #32]
    2fa0:	2300      	movs	r3, #0
    2fa2:	6ae7      	ldr	r7, [r4, #44]	; 0x2c
    2fa4:	47b8      	blx	r7
    2fa6:	89a2      	ldrh	r2, [r4, #12]
    2fa8:	1c41      	adds	r1, r0, #1
    2faa:	d106      	bne.n	2fba <__sflush_r+0x8e>
    2fac:	682b      	ldr	r3, [r5, #0]
    2fae:	2b00      	cmp	r3, #0
    2fb0:	d003      	beq.n	2fba <__sflush_r+0x8e>
    2fb2:	2b1d      	cmp	r3, #29
    2fb4:	d001      	beq.n	2fba <__sflush_r+0x8e>
    2fb6:	2b16      	cmp	r3, #22
    2fb8:	d119      	bne.n	2fee <__sflush_r+0xc2>
    2fba:	2300      	movs	r3, #0
    2fbc:	6063      	str	r3, [r4, #4]
    2fbe:	6923      	ldr	r3, [r4, #16]
    2fc0:	6023      	str	r3, [r4, #0]
    2fc2:	04d7      	lsls	r7, r2, #19
    2fc4:	d505      	bpl.n	2fd2 <__sflush_r+0xa6>
    2fc6:	1c41      	adds	r1, r0, #1
    2fc8:	d102      	bne.n	2fd0 <__sflush_r+0xa4>
    2fca:	682a      	ldr	r2, [r5, #0]
    2fcc:	2a00      	cmp	r2, #0
    2fce:	d100      	bne.n	2fd2 <__sflush_r+0xa6>
    2fd0:	6560      	str	r0, [r4, #84]	; 0x54
    2fd2:	6b61      	ldr	r1, [r4, #52]	; 0x34
    2fd4:	602e      	str	r6, [r5, #0]
    2fd6:	2900      	cmp	r1, #0
    2fd8:	d0cf      	beq.n	2f7a <__sflush_r+0x4e>
    2fda:	1c23      	adds	r3, r4, #0
    2fdc:	3344      	adds	r3, #68	; 0x44
    2fde:	4299      	cmp	r1, r3
    2fe0:	d002      	beq.n	2fe8 <__sflush_r+0xbc>
    2fe2:	1c28      	adds	r0, r5, #0
    2fe4:	f000 f98a 	bl	32fc <_free_r>
    2fe8:	2000      	movs	r0, #0
    2fea:	6360      	str	r0, [r4, #52]	; 0x34
    2fec:	e026      	b.n	303c <__sflush_r+0x110>
    2fee:	2340      	movs	r3, #64	; 0x40
    2ff0:	431a      	orrs	r2, r3
    2ff2:	81a2      	strh	r2, [r4, #12]
    2ff4:	e022      	b.n	303c <__sflush_r+0x110>
    2ff6:	6926      	ldr	r6, [r4, #16]
    2ff8:	2e00      	cmp	r6, #0
    2ffa:	d0be      	beq.n	2f7a <__sflush_r+0x4e>
    2ffc:	6827      	ldr	r7, [r4, #0]
    2ffe:	2200      	movs	r2, #0
    3000:	1bbf      	subs	r7, r7, r6
    3002:	9701      	str	r7, [sp, #4]
    3004:	6026      	str	r6, [r4, #0]
    3006:	0799      	lsls	r1, r3, #30
    3008:	d100      	bne.n	300c <__sflush_r+0xe0>
    300a:	6962      	ldr	r2, [r4, #20]
    300c:	60a2      	str	r2, [r4, #8]
    300e:	9f01      	ldr	r7, [sp, #4]
    3010:	2f00      	cmp	r7, #0
    3012:	ddb2      	ble.n	2f7a <__sflush_r+0x4e>
    3014:	1c28      	adds	r0, r5, #0
    3016:	6a21      	ldr	r1, [r4, #32]
    3018:	1c32      	adds	r2, r6, #0
    301a:	9b01      	ldr	r3, [sp, #4]
    301c:	6aa7      	ldr	r7, [r4, #40]	; 0x28
    301e:	47b8      	blx	r7
    3020:	2800      	cmp	r0, #0
    3022:	dc06      	bgt.n	3032 <__sflush_r+0x106>
    3024:	89a3      	ldrh	r3, [r4, #12]
    3026:	2240      	movs	r2, #64	; 0x40
    3028:	4313      	orrs	r3, r2
    302a:	2001      	movs	r0, #1
    302c:	81a3      	strh	r3, [r4, #12]
    302e:	4240      	negs	r0, r0
    3030:	e004      	b.n	303c <__sflush_r+0x110>
    3032:	9f01      	ldr	r7, [sp, #4]
    3034:	1836      	adds	r6, r6, r0
    3036:	1a3f      	subs	r7, r7, r0
    3038:	9701      	str	r7, [sp, #4]
    303a:	e7e8      	b.n	300e <__sflush_r+0xe2>
    303c:	bdfe      	pop	{r1, r2, r3, r4, r5, r6, r7, pc}
	...

00003040 <_fflush_r>:
    3040:	690a      	ldr	r2, [r1, #16]
    3042:	b538      	push	{r3, r4, r5, lr}
    3044:	1c05      	adds	r5, r0, #0
    3046:	1c0c      	adds	r4, r1, #0
    3048:	2a00      	cmp	r2, #0
    304a:	d101      	bne.n	3050 <_fflush_r+0x10>
    304c:	2000      	movs	r0, #0
    304e:	e01c      	b.n	308a <_fflush_r+0x4a>
    3050:	2800      	cmp	r0, #0
    3052:	d004      	beq.n	305e <_fflush_r+0x1e>
    3054:	6983      	ldr	r3, [r0, #24]
    3056:	2b00      	cmp	r3, #0
    3058:	d101      	bne.n	305e <_fflush_r+0x1e>
    305a:	f000 f885 	bl	3168 <__sinit>
    305e:	4b0b      	ldr	r3, [pc, #44]	; (308c <_fflush_r+0x4c>)
    3060:	429c      	cmp	r4, r3
    3062:	d101      	bne.n	3068 <_fflush_r+0x28>
    3064:	686c      	ldr	r4, [r5, #4]
    3066:	e008      	b.n	307a <_fflush_r+0x3a>
    3068:	4b09      	ldr	r3, [pc, #36]	; (3090 <_fflush_r+0x50>)
    306a:	429c      	cmp	r4, r3
    306c:	d101      	bne.n	3072 <_fflush_r+0x32>
    306e:	68ac      	ldr	r4, [r5, #8]
    3070:	e003      	b.n	307a <_fflush_r+0x3a>
    3072:	4b08      	ldr	r3, [pc, #32]	; (3094 <_fflush_r+0x54>)
    3074:	429c      	cmp	r4, r3
    3076:	d100      	bne.n	307a <_fflush_r+0x3a>
    3078:	68ec      	ldr	r4, [r5, #12]
    307a:	220c      	movs	r2, #12
    307c:	5ea3      	ldrsh	r3, [r4, r2]
    307e:	2b00      	cmp	r3, #0
    3080:	d0e4      	beq.n	304c <_fflush_r+0xc>
    3082:	1c28      	adds	r0, r5, #0
    3084:	1c21      	adds	r1, r4, #0
    3086:	f7ff ff51 	bl	2f2c <__sflush_r>
    308a:	bd38      	pop	{r3, r4, r5, pc}
    308c:	000065f0 	.word	0x000065f0
    3090:	00006610 	.word	0x00006610
    3094:	00006630 	.word	0x00006630

00003098 <fflush>:
    3098:	b508      	push	{r3, lr}
    309a:	1e01      	subs	r1, r0, #0
    309c:	d105      	bne.n	30aa <fflush+0x12>
    309e:	4b05      	ldr	r3, [pc, #20]	; (30b4 <fflush+0x1c>)
    30a0:	4905      	ldr	r1, [pc, #20]	; (30b8 <fflush+0x20>)
    30a2:	6818      	ldr	r0, [r3, #0]
    30a4:	f000 f8d0 	bl	3248 <_fwalk_reent>
    30a8:	e003      	b.n	30b2 <fflush+0x1a>
    30aa:	4b04      	ldr	r3, [pc, #16]	; (30bc <fflush+0x24>)
    30ac:	6818      	ldr	r0, [r3, #0]
    30ae:	f7ff ffc7 	bl	3040 <_fflush_r>
    30b2:	bd08      	pop	{r3, pc}
    30b4:	00006654 	.word	0x00006654
    30b8:	00003041 	.word	0x00003041
    30bc:	100002ac 	.word	0x100002ac

000030c0 <_cleanup_r>:
    30c0:	b5f8      	push	{r3, r4, r5, r6, r7, lr}
    30c2:	1c04      	adds	r4, r0, #0
    30c4:	1c07      	adds	r7, r0, #0
    30c6:	3448      	adds	r4, #72	; 0x48
    30c8:	2c00      	cmp	r4, #0
    30ca:	d012      	beq.n	30f2 <_cleanup_r+0x32>
    30cc:	68a5      	ldr	r5, [r4, #8]
    30ce:	6866      	ldr	r6, [r4, #4]
    30d0:	3e01      	subs	r6, #1
    30d2:	d40c      	bmi.n	30ee <_cleanup_r+0x2e>
    30d4:	89ab      	ldrh	r3, [r5, #12]
    30d6:	2b01      	cmp	r3, #1
    30d8:	d907      	bls.n	30ea <_cleanup_r+0x2a>
    30da:	220e      	movs	r2, #14
    30dc:	5eab      	ldrsh	r3, [r5, r2]
    30de:	3301      	adds	r3, #1
    30e0:	d003      	beq.n	30ea <_cleanup_r+0x2a>
    30e2:	1c38      	adds	r0, r7, #0
    30e4:	1c29      	adds	r1, r5, #0
    30e6:	f7ff ffab 	bl	3040 <_fflush_r>
    30ea:	3568      	adds	r5, #104	; 0x68
    30ec:	e7f0      	b.n	30d0 <_cleanup_r+0x10>
    30ee:	6824      	ldr	r4, [r4, #0]
    30f0:	e7ea      	b.n	30c8 <_cleanup_r+0x8>
    30f2:	bdf8      	pop	{r3, r4, r5, r6, r7, pc}

000030f4 <std.isra.0>:
    30f4:	2300      	movs	r3, #0
    30f6:	b510      	push	{r4, lr}
    30f8:	1c04      	adds	r4, r0, #0
    30fa:	6003      	str	r3, [r0, #0]
    30fc:	6043      	str	r3, [r0, #4]
    30fe:	6083      	str	r3, [r0, #8]
    3100:	8181      	strh	r1, [r0, #12]
    3102:	6643      	str	r3, [r0, #100]	; 0x64
    3104:	81c2      	strh	r2, [r0, #14]
    3106:	6103      	str	r3, [r0, #16]
    3108:	6143      	str	r3, [r0, #20]
    310a:	6183      	str	r3, [r0, #24]
    310c:	1c19      	adds	r1, r3, #0
    310e:	2208      	movs	r2, #8
    3110:	305c      	adds	r0, #92	; 0x5c
    3112:	f000 f8ea 	bl	32ea <memset>
    3116:	4b05      	ldr	r3, [pc, #20]	; (312c <std.isra.0+0x38>)
    3118:	6224      	str	r4, [r4, #32]
    311a:	6263      	str	r3, [r4, #36]	; 0x24
    311c:	4b04      	ldr	r3, [pc, #16]	; (3130 <std.isra.0+0x3c>)
    311e:	62a3      	str	r3, [r4, #40]	; 0x28
    3120:	4b04      	ldr	r3, [pc, #16]	; (3134 <std.isra.0+0x40>)
    3122:	62e3      	str	r3, [r4, #44]	; 0x2c
    3124:	4b04      	ldr	r3, [pc, #16]	; (3138 <std.isra.0+0x44>)
    3126:	6323      	str	r3, [r4, #48]	; 0x30
    3128:	bd10      	pop	{r4, pc}
    312a:	46c0      	nop			; (mov r8, r8)
    312c:	00003459 	.word	0x00003459
    3130:	00003481 	.word	0x00003481
    3134:	000034b9 	.word	0x000034b9
    3138:	000034e5 	.word	0x000034e5

0000313c <__sfmoreglue>:
    313c:	b570      	push	{r4, r5, r6, lr}
    313e:	1e4b      	subs	r3, r1, #1
    3140:	2568      	movs	r5, #104	; 0x68
    3142:	435d      	muls	r5, r3
    3144:	1c0e      	adds	r6, r1, #0
    3146:	1c29      	adds	r1, r5, #0
    3148:	3174      	adds	r1, #116	; 0x74
    314a:	f000 f91f 	bl	338c <_malloc_r>
    314e:	1e04      	subs	r4, r0, #0
    3150:	d008      	beq.n	3164 <__sfmoreglue+0x28>
    3152:	2100      	movs	r1, #0
    3154:	6001      	str	r1, [r0, #0]
    3156:	6046      	str	r6, [r0, #4]
    3158:	1c2a      	adds	r2, r5, #0
    315a:	300c      	adds	r0, #12
    315c:	60a0      	str	r0, [r4, #8]
    315e:	3268      	adds	r2, #104	; 0x68
    3160:	f000 f8c3 	bl	32ea <memset>
    3164:	1c20      	adds	r0, r4, #0
    3166:	bd70      	pop	{r4, r5, r6, pc}

00003168 <__sinit>:
    3168:	6983      	ldr	r3, [r0, #24]
    316a:	b513      	push	{r0, r1, r4, lr}
    316c:	1c04      	adds	r4, r0, #0
    316e:	2b00      	cmp	r3, #0
    3170:	d127      	bne.n	31c2 <__sinit+0x5a>
    3172:	6483      	str	r3, [r0, #72]	; 0x48
    3174:	64c3      	str	r3, [r0, #76]	; 0x4c
    3176:	6503      	str	r3, [r0, #80]	; 0x50
    3178:	4b12      	ldr	r3, [pc, #72]	; (31c4 <__sinit+0x5c>)
    317a:	4a13      	ldr	r2, [pc, #76]	; (31c8 <__sinit+0x60>)
    317c:	681b      	ldr	r3, [r3, #0]
    317e:	6282      	str	r2, [r0, #40]	; 0x28
    3180:	4298      	cmp	r0, r3
    3182:	d101      	bne.n	3188 <__sinit+0x20>
    3184:	2301      	movs	r3, #1
    3186:	6183      	str	r3, [r0, #24]
    3188:	1c20      	adds	r0, r4, #0
    318a:	f000 f81f 	bl	31cc <__sfp>
    318e:	6060      	str	r0, [r4, #4]
    3190:	1c20      	adds	r0, r4, #0
    3192:	f000 f81b 	bl	31cc <__sfp>
    3196:	60a0      	str	r0, [r4, #8]
    3198:	1c20      	adds	r0, r4, #0
    319a:	f000 f817 	bl	31cc <__sfp>
    319e:	2104      	movs	r1, #4
    31a0:	60e0      	str	r0, [r4, #12]
    31a2:	2200      	movs	r2, #0
    31a4:	6860      	ldr	r0, [r4, #4]
    31a6:	f7ff ffa5 	bl	30f4 <std.isra.0>
    31aa:	68a0      	ldr	r0, [r4, #8]
    31ac:	2109      	movs	r1, #9
    31ae:	2201      	movs	r2, #1
    31b0:	f7ff ffa0 	bl	30f4 <std.isra.0>
    31b4:	68e0      	ldr	r0, [r4, #12]
    31b6:	2112      	movs	r1, #18
    31b8:	2202      	movs	r2, #2
    31ba:	f7ff ff9b 	bl	30f4 <std.isra.0>
    31be:	2301      	movs	r3, #1
    31c0:	61a3      	str	r3, [r4, #24]
    31c2:	bd13      	pop	{r0, r1, r4, pc}
    31c4:	00006654 	.word	0x00006654
    31c8:	000030c1 	.word	0x000030c1

000031cc <__sfp>:
    31cc:	b5f8      	push	{r3, r4, r5, r6, r7, lr}
    31ce:	4b1d      	ldr	r3, [pc, #116]	; (3244 <__sfp+0x78>)
    31d0:	1c07      	adds	r7, r0, #0
    31d2:	681e      	ldr	r6, [r3, #0]
    31d4:	69b2      	ldr	r2, [r6, #24]
    31d6:	2a00      	cmp	r2, #0
    31d8:	d102      	bne.n	31e0 <__sfp+0x14>
    31da:	1c30      	adds	r0, r6, #0
    31dc:	f7ff ffc4 	bl	3168 <__sinit>
    31e0:	3648      	adds	r6, #72	; 0x48
    31e2:	68b4      	ldr	r4, [r6, #8]
    31e4:	6873      	ldr	r3, [r6, #4]
    31e6:	3b01      	subs	r3, #1
    31e8:	d405      	bmi.n	31f6 <__sfp+0x2a>
    31ea:	220c      	movs	r2, #12
    31ec:	5ea5      	ldrsh	r5, [r4, r2]
    31ee:	2d00      	cmp	r5, #0
    31f0:	d010      	beq.n	3214 <__sfp+0x48>
    31f2:	3468      	adds	r4, #104	; 0x68
    31f4:	e7f7      	b.n	31e6 <__sfp+0x1a>
    31f6:	6833      	ldr	r3, [r6, #0]
    31f8:	2b00      	cmp	r3, #0
    31fa:	d106      	bne.n	320a <__sfp+0x3e>
    31fc:	1c38      	adds	r0, r7, #0
    31fe:	2104      	movs	r1, #4
    3200:	f7ff ff9c 	bl	313c <__sfmoreglue>
    3204:	6030      	str	r0, [r6, #0]
    3206:	2800      	cmp	r0, #0
    3208:	d001      	beq.n	320e <__sfp+0x42>
    320a:	6836      	ldr	r6, [r6, #0]
    320c:	e7e9      	b.n	31e2 <__sfp+0x16>
    320e:	230c      	movs	r3, #12
    3210:	603b      	str	r3, [r7, #0]
    3212:	e016      	b.n	3242 <__sfp+0x76>
    3214:	2301      	movs	r3, #1
    3216:	425b      	negs	r3, r3
    3218:	81e3      	strh	r3, [r4, #14]
    321a:	1c20      	adds	r0, r4, #0
    321c:	2301      	movs	r3, #1
    321e:	81a3      	strh	r3, [r4, #12]
    3220:	6665      	str	r5, [r4, #100]	; 0x64
    3222:	6025      	str	r5, [r4, #0]
    3224:	60a5      	str	r5, [r4, #8]
    3226:	6065      	str	r5, [r4, #4]
    3228:	6125      	str	r5, [r4, #16]
    322a:	6165      	str	r5, [r4, #20]
    322c:	61a5      	str	r5, [r4, #24]
    322e:	305c      	adds	r0, #92	; 0x5c
    3230:	1c29      	adds	r1, r5, #0
    3232:	2208      	movs	r2, #8
    3234:	f000 f859 	bl	32ea <memset>
    3238:	6365      	str	r5, [r4, #52]	; 0x34
    323a:	63a5      	str	r5, [r4, #56]	; 0x38
    323c:	64a5      	str	r5, [r4, #72]	; 0x48
    323e:	64e5      	str	r5, [r4, #76]	; 0x4c
    3240:	1c20      	adds	r0, r4, #0
    3242:	bdf8      	pop	{r3, r4, r5, r6, r7, pc}
    3244:	00006654 	.word	0x00006654

00003248 <_fwalk_reent>:
    3248:	b5f7      	push	{r0, r1, r2, r4, r5, r6, r7, lr}
    324a:	1c04      	adds	r4, r0, #0
    324c:	1c07      	adds	r7, r0, #0
    324e:	9101      	str	r1, [sp, #4]
    3250:	3448      	adds	r4, #72	; 0x48
    3252:	2600      	movs	r6, #0
    3254:	2c00      	cmp	r4, #0
    3256:	d016      	beq.n	3286 <_fwalk_reent+0x3e>
    3258:	6862      	ldr	r2, [r4, #4]
    325a:	68a5      	ldr	r5, [r4, #8]
    325c:	9200      	str	r2, [sp, #0]
    325e:	9a00      	ldr	r2, [sp, #0]
    3260:	3a01      	subs	r2, #1
    3262:	9200      	str	r2, [sp, #0]
    3264:	d40d      	bmi.n	3282 <_fwalk_reent+0x3a>
    3266:	89ab      	ldrh	r3, [r5, #12]
    3268:	2b01      	cmp	r3, #1
    326a:	d908      	bls.n	327e <_fwalk_reent+0x36>
    326c:	220e      	movs	r2, #14
    326e:	5eab      	ldrsh	r3, [r5, r2]
    3270:	3301      	adds	r3, #1
    3272:	d004      	beq.n	327e <_fwalk_reent+0x36>
    3274:	1c38      	adds	r0, r7, #0
    3276:	1c29      	adds	r1, r5, #0
    3278:	9b01      	ldr	r3, [sp, #4]
    327a:	4798      	blx	r3
    327c:	4306      	orrs	r6, r0
    327e:	3568      	adds	r5, #104	; 0x68
    3280:	e7ed      	b.n	325e <_fwalk_reent+0x16>
    3282:	6824      	ldr	r4, [r4, #0]
    3284:	e7e6      	b.n	3254 <_fwalk_reent+0xc>
    3286:	1c30      	adds	r0, r6, #0
    3288:	bdfe      	pop	{r1, r2, r3, r4, r5, r6, r7, pc}
	...

0000328c <__libc_init_array>:
    328c:	b570      	push	{r4, r5, r6, lr}
    328e:	4b0e      	ldr	r3, [pc, #56]	; (32c8 <__libc_init_array+0x3c>)
    3290:	4d0e      	ldr	r5, [pc, #56]	; (32cc <__libc_init_array+0x40>)
    3292:	2400      	movs	r4, #0
    3294:	1aed      	subs	r5, r5, r3
    3296:	10ad      	asrs	r5, r5, #2
    3298:	1c1e      	adds	r6, r3, #0
    329a:	42ac      	cmp	r4, r5
    329c:	d004      	beq.n	32a8 <__libc_init_array+0x1c>
    329e:	00a3      	lsls	r3, r4, #2
    32a0:	58f3      	ldr	r3, [r6, r3]
    32a2:	4798      	blx	r3
    32a4:	3401      	adds	r4, #1
    32a6:	e7f8      	b.n	329a <__libc_init_array+0xe>
    32a8:	f002 ffd0 	bl	624c <_init>
    32ac:	4b08      	ldr	r3, [pc, #32]	; (32d0 <__libc_init_array+0x44>)
    32ae:	4d09      	ldr	r5, [pc, #36]	; (32d4 <__libc_init_array+0x48>)
    32b0:	2400      	movs	r4, #0
    32b2:	1aed      	subs	r5, r5, r3
    32b4:	10ad      	asrs	r5, r5, #2
    32b6:	1c1e      	adds	r6, r3, #0
    32b8:	42ac      	cmp	r4, r5
    32ba:	d004      	beq.n	32c6 <__libc_init_array+0x3a>
    32bc:	00a3      	lsls	r3, r4, #2
    32be:	58f3      	ldr	r3, [r6, r3]
    32c0:	4798      	blx	r3
    32c2:	3401      	adds	r4, #1
    32c4:	e7f8      	b.n	32b8 <__libc_init_array+0x2c>
    32c6:	bd70      	pop	{r4, r5, r6, pc}
    32c8:	100002b0 	.word	0x100002b0
    32cc:	100002b0 	.word	0x100002b0
    32d0:	100002b0 	.word	0x100002b0
    32d4:	100002b8 	.word	0x100002b8

000032d8 <memcpy>:
    32d8:	b510      	push	{r4, lr}
    32da:	2300      	movs	r3, #0
    32dc:	4293      	cmp	r3, r2
    32de:	d003      	beq.n	32e8 <memcpy+0x10>
    32e0:	5ccc      	ldrb	r4, [r1, r3]
    32e2:	54c4      	strb	r4, [r0, r3]
    32e4:	3301      	adds	r3, #1
    32e6:	e7f9      	b.n	32dc <memcpy+0x4>
    32e8:	bd10      	pop	{r4, pc}

000032ea <memset>:
    32ea:	1c03      	adds	r3, r0, #0
    32ec:	1882      	adds	r2, r0, r2
    32ee:	4293      	cmp	r3, r2
    32f0:	d002      	beq.n	32f8 <memset+0xe>
    32f2:	7019      	strb	r1, [r3, #0]
    32f4:	3301      	adds	r3, #1
    32f6:	e7fa      	b.n	32ee <memset+0x4>
    32f8:	4770      	bx	lr
	...

000032fc <_free_r>:
    32fc:	b530      	push	{r4, r5, lr}
    32fe:	2900      	cmp	r1, #0
    3300:	d040      	beq.n	3384 <_free_r+0x88>
    3302:	3904      	subs	r1, #4
    3304:	680b      	ldr	r3, [r1, #0]
    3306:	2b00      	cmp	r3, #0
    3308:	da00      	bge.n	330c <_free_r+0x10>
    330a:	18c9      	adds	r1, r1, r3
    330c:	4a1e      	ldr	r2, [pc, #120]	; (3388 <_free_r+0x8c>)
    330e:	6813      	ldr	r3, [r2, #0]
    3310:	1c14      	adds	r4, r2, #0
    3312:	2b00      	cmp	r3, #0
    3314:	d102      	bne.n	331c <_free_r+0x20>
    3316:	604b      	str	r3, [r1, #4]
    3318:	6011      	str	r1, [r2, #0]
    331a:	e033      	b.n	3384 <_free_r+0x88>
    331c:	4299      	cmp	r1, r3
    331e:	d20f      	bcs.n	3340 <_free_r+0x44>
    3320:	6808      	ldr	r0, [r1, #0]
    3322:	180a      	adds	r2, r1, r0
    3324:	429a      	cmp	r2, r3
    3326:	d105      	bne.n	3334 <_free_r+0x38>
    3328:	6813      	ldr	r3, [r2, #0]
    332a:	6852      	ldr	r2, [r2, #4]
    332c:	18c0      	adds	r0, r0, r3
    332e:	6008      	str	r0, [r1, #0]
    3330:	604a      	str	r2, [r1, #4]
    3332:	e000      	b.n	3336 <_free_r+0x3a>
    3334:	604b      	str	r3, [r1, #4]
    3336:	6021      	str	r1, [r4, #0]
    3338:	e024      	b.n	3384 <_free_r+0x88>
    333a:	428a      	cmp	r2, r1
    333c:	d803      	bhi.n	3346 <_free_r+0x4a>
    333e:	1c13      	adds	r3, r2, #0
    3340:	685a      	ldr	r2, [r3, #4]
    3342:	2a00      	cmp	r2, #0
    3344:	d1f9      	bne.n	333a <_free_r+0x3e>
    3346:	681d      	ldr	r5, [r3, #0]
    3348:	195c      	adds	r4, r3, r5
    334a:	428c      	cmp	r4, r1
    334c:	d10b      	bne.n	3366 <_free_r+0x6a>
    334e:	6809      	ldr	r1, [r1, #0]
    3350:	1869      	adds	r1, r5, r1
    3352:	1858      	adds	r0, r3, r1
    3354:	6019      	str	r1, [r3, #0]
    3356:	4290      	cmp	r0, r2
    3358:	d114      	bne.n	3384 <_free_r+0x88>
    335a:	6814      	ldr	r4, [r2, #0]
    335c:	6852      	ldr	r2, [r2, #4]
    335e:	1909      	adds	r1, r1, r4
    3360:	6019      	str	r1, [r3, #0]
    3362:	605a      	str	r2, [r3, #4]
    3364:	e00e      	b.n	3384 <_free_r+0x88>
    3366:	428c      	cmp	r4, r1
    3368:	d902      	bls.n	3370 <_free_r+0x74>
    336a:	230c      	movs	r3, #12
    336c:	6003      	str	r3, [r0, #0]
    336e:	e009      	b.n	3384 <_free_r+0x88>
    3370:	6808      	ldr	r0, [r1, #0]
    3372:	180c      	adds	r4, r1, r0
    3374:	4294      	cmp	r4, r2
    3376:	d103      	bne.n	3380 <_free_r+0x84>
    3378:	6814      	ldr	r4, [r2, #0]
    337a:	6852      	ldr	r2, [r2, #4]
    337c:	1900      	adds	r0, r0, r4
    337e:	6008      	str	r0, [r1, #0]
    3380:	604a      	str	r2, [r1, #4]
    3382:	6059      	str	r1, [r3, #4]
    3384:	bd30      	pop	{r4, r5, pc}
    3386:	46c0      	nop			; (mov r8, r8)
    3388:	10000570 	.word	0x10000570

0000338c <_malloc_r>:
    338c:	b570      	push	{r4, r5, r6, lr}
    338e:	2303      	movs	r3, #3
    3390:	1ccd      	adds	r5, r1, #3
    3392:	439d      	bics	r5, r3
    3394:	3508      	adds	r5, #8
    3396:	1c06      	adds	r6, r0, #0
    3398:	2d0c      	cmp	r5, #12
    339a:	d201      	bcs.n	33a0 <_malloc_r+0x14>
    339c:	250c      	movs	r5, #12
    339e:	e001      	b.n	33a4 <_malloc_r+0x18>
    33a0:	2d00      	cmp	r5, #0
    33a2:	db3f      	blt.n	3424 <_malloc_r+0x98>
    33a4:	428d      	cmp	r5, r1
    33a6:	d33d      	bcc.n	3424 <_malloc_r+0x98>
    33a8:	4b20      	ldr	r3, [pc, #128]	; (342c <_malloc_r+0xa0>)
    33aa:	681c      	ldr	r4, [r3, #0]
    33ac:	1c1a      	adds	r2, r3, #0
    33ae:	1c21      	adds	r1, r4, #0
    33b0:	2900      	cmp	r1, #0
    33b2:	d013      	beq.n	33dc <_malloc_r+0x50>
    33b4:	6808      	ldr	r0, [r1, #0]
    33b6:	1b43      	subs	r3, r0, r5
    33b8:	d40d      	bmi.n	33d6 <_malloc_r+0x4a>
    33ba:	2b0b      	cmp	r3, #11
    33bc:	d902      	bls.n	33c4 <_malloc_r+0x38>
    33be:	600b      	str	r3, [r1, #0]
    33c0:	18cc      	adds	r4, r1, r3
    33c2:	e01e      	b.n	3402 <_malloc_r+0x76>
    33c4:	428c      	cmp	r4, r1
    33c6:	d102      	bne.n	33ce <_malloc_r+0x42>
    33c8:	6863      	ldr	r3, [r4, #4]
    33ca:	6013      	str	r3, [r2, #0]
    33cc:	e01a      	b.n	3404 <_malloc_r+0x78>
    33ce:	6848      	ldr	r0, [r1, #4]
    33d0:	6060      	str	r0, [r4, #4]
    33d2:	1c0c      	adds	r4, r1, #0
    33d4:	e016      	b.n	3404 <_malloc_r+0x78>
    33d6:	1c0c      	adds	r4, r1, #0
    33d8:	6849      	ldr	r1, [r1, #4]
    33da:	e7e9      	b.n	33b0 <_malloc_r+0x24>
    33dc:	4c14      	ldr	r4, [pc, #80]	; (3430 <_malloc_r+0xa4>)
    33de:	6820      	ldr	r0, [r4, #0]
    33e0:	2800      	cmp	r0, #0
    33e2:	d103      	bne.n	33ec <_malloc_r+0x60>
    33e4:	1c30      	adds	r0, r6, #0
    33e6:	f000 f825 	bl	3434 <_sbrk_r>
    33ea:	6020      	str	r0, [r4, #0]
    33ec:	1c30      	adds	r0, r6, #0
    33ee:	1c29      	adds	r1, r5, #0
    33f0:	f000 f820 	bl	3434 <_sbrk_r>
    33f4:	1c43      	adds	r3, r0, #1
    33f6:	d015      	beq.n	3424 <_malloc_r+0x98>
    33f8:	1cc4      	adds	r4, r0, #3
    33fa:	2303      	movs	r3, #3
    33fc:	439c      	bics	r4, r3
    33fe:	4284      	cmp	r4, r0
    3400:	d10a      	bne.n	3418 <_malloc_r+0x8c>
    3402:	6025      	str	r5, [r4, #0]
    3404:	1c20      	adds	r0, r4, #0
    3406:	300b      	adds	r0, #11
    3408:	2207      	movs	r2, #7
    340a:	1d23      	adds	r3, r4, #4
    340c:	4390      	bics	r0, r2
    340e:	1ac3      	subs	r3, r0, r3
    3410:	d00b      	beq.n	342a <_malloc_r+0x9e>
    3412:	425a      	negs	r2, r3
    3414:	50e2      	str	r2, [r4, r3]
    3416:	e008      	b.n	342a <_malloc_r+0x9e>
    3418:	1a21      	subs	r1, r4, r0
    341a:	1c30      	adds	r0, r6, #0
    341c:	f000 f80a 	bl	3434 <_sbrk_r>
    3420:	3001      	adds	r0, #1
    3422:	d1ee      	bne.n	3402 <_malloc_r+0x76>
    3424:	230c      	movs	r3, #12
    3426:	6033      	str	r3, [r6, #0]
    3428:	2000      	movs	r0, #0
    342a:	bd70      	pop	{r4, r5, r6, pc}
    342c:	10000570 	.word	0x10000570
    3430:	1000056c 	.word	0x1000056c

00003434 <_sbrk_r>:
    3434:	b538      	push	{r3, r4, r5, lr}
    3436:	4c07      	ldr	r4, [pc, #28]	; (3454 <_sbrk_r+0x20>)
    3438:	2300      	movs	r3, #0
    343a:	1c05      	adds	r5, r0, #0
    343c:	1c08      	adds	r0, r1, #0
    343e:	6023      	str	r3, [r4, #0]
    3440:	f7fe fa70 	bl	1924 <_sbrk>
    3444:	1c43      	adds	r3, r0, #1
    3446:	d103      	bne.n	3450 <_sbrk_r+0x1c>
    3448:	6823      	ldr	r3, [r4, #0]
    344a:	2b00      	cmp	r3, #0
    344c:	d000      	beq.n	3450 <_sbrk_r+0x1c>
    344e:	602b      	str	r3, [r5, #0]
    3450:	bd38      	pop	{r3, r4, r5, pc}
    3452:	46c0      	nop			; (mov r8, r8)
    3454:	1000057c 	.word	0x1000057c

00003458 <__sread>:
    3458:	b538      	push	{r3, r4, r5, lr}
    345a:	1c0c      	adds	r4, r1, #0
    345c:	250e      	movs	r5, #14
    345e:	5f49      	ldrsh	r1, [r1, r5]
    3460:	f000 fc74 	bl	3d4c <_read_r>
    3464:	2800      	cmp	r0, #0
    3466:	db03      	blt.n	3470 <__sread+0x18>
    3468:	6d62      	ldr	r2, [r4, #84]	; 0x54
    346a:	1813      	adds	r3, r2, r0
    346c:	6563      	str	r3, [r4, #84]	; 0x54
    346e:	e003      	b.n	3478 <__sread+0x20>
    3470:	89a2      	ldrh	r2, [r4, #12]
    3472:	4b02      	ldr	r3, [pc, #8]	; (347c <__sread+0x24>)
    3474:	4013      	ands	r3, r2
    3476:	81a3      	strh	r3, [r4, #12]
    3478:	bd38      	pop	{r3, r4, r5, pc}
    347a:	46c0      	nop			; (mov r8, r8)
    347c:	ffffefff 	.word	0xffffefff

00003480 <__swrite>:
    3480:	b5f8      	push	{r3, r4, r5, r6, r7, lr}
    3482:	1c1e      	adds	r6, r3, #0
    3484:	898b      	ldrh	r3, [r1, #12]
    3486:	1c05      	adds	r5, r0, #0
    3488:	1c0c      	adds	r4, r1, #0
    348a:	1c17      	adds	r7, r2, #0
    348c:	05da      	lsls	r2, r3, #23
    348e:	d505      	bpl.n	349c <__swrite+0x1c>
    3490:	230e      	movs	r3, #14
    3492:	5ec9      	ldrsh	r1, [r1, r3]
    3494:	2200      	movs	r2, #0
    3496:	2302      	movs	r3, #2
    3498:	f000 fbe8 	bl	3c6c <_lseek_r>
    349c:	89a2      	ldrh	r2, [r4, #12]
    349e:	4b05      	ldr	r3, [pc, #20]	; (34b4 <__swrite+0x34>)
    34a0:	1c28      	adds	r0, r5, #0
    34a2:	4013      	ands	r3, r2
    34a4:	81a3      	strh	r3, [r4, #12]
    34a6:	220e      	movs	r2, #14
    34a8:	5ea1      	ldrsh	r1, [r4, r2]
    34aa:	1c33      	adds	r3, r6, #0
    34ac:	1c3a      	adds	r2, r7, #0
    34ae:	f000 fb45 	bl	3b3c <_write_r>
    34b2:	bdf8      	pop	{r3, r4, r5, r6, r7, pc}
    34b4:	ffffefff 	.word	0xffffefff

000034b8 <__sseek>:
    34b8:	b538      	push	{r3, r4, r5, lr}
    34ba:	1c0c      	adds	r4, r1, #0
    34bc:	250e      	movs	r5, #14
    34be:	5f49      	ldrsh	r1, [r1, r5]
    34c0:	f000 fbd4 	bl	3c6c <_lseek_r>
    34c4:	89a3      	ldrh	r3, [r4, #12]
    34c6:	1c42      	adds	r2, r0, #1
    34c8:	d103      	bne.n	34d2 <__sseek+0x1a>
    34ca:	4a05      	ldr	r2, [pc, #20]	; (34e0 <__sseek+0x28>)
    34cc:	4013      	ands	r3, r2
    34ce:	81a3      	strh	r3, [r4, #12]
    34d0:	e004      	b.n	34dc <__sseek+0x24>
    34d2:	2280      	movs	r2, #128	; 0x80
    34d4:	0152      	lsls	r2, r2, #5
    34d6:	4313      	orrs	r3, r2
    34d8:	81a3      	strh	r3, [r4, #12]
    34da:	6560      	str	r0, [r4, #84]	; 0x54
    34dc:	bd38      	pop	{r3, r4, r5, pc}
    34de:	46c0      	nop			; (mov r8, r8)
    34e0:	ffffefff 	.word	0xffffefff

000034e4 <__sclose>:
    34e4:	b508      	push	{r3, lr}
    34e6:	230e      	movs	r3, #14
    34e8:	5ec9      	ldrsh	r1, [r1, r3]
    34ea:	f000 fbad 	bl	3c48 <_close_r>
    34ee:	bd08      	pop	{r3, pc}

000034f0 <strlen>:
    34f0:	2300      	movs	r3, #0
    34f2:	5cc2      	ldrb	r2, [r0, r3]
    34f4:	3301      	adds	r3, #1
    34f6:	2a00      	cmp	r2, #0
    34f8:	d1fb      	bne.n	34f2 <strlen+0x2>
    34fa:	1e58      	subs	r0, r3, #1
    34fc:	4770      	bx	lr

000034fe <__sfputc_r>:
    34fe:	6893      	ldr	r3, [r2, #8]
    3500:	b510      	push	{r4, lr}
    3502:	3b01      	subs	r3, #1
    3504:	6093      	str	r3, [r2, #8]
    3506:	2b00      	cmp	r3, #0
    3508:	da05      	bge.n	3516 <__sfputc_r+0x18>
    350a:	6994      	ldr	r4, [r2, #24]
    350c:	42a3      	cmp	r3, r4
    350e:	db08      	blt.n	3522 <__sfputc_r+0x24>
    3510:	b2cb      	uxtb	r3, r1
    3512:	2b0a      	cmp	r3, #10
    3514:	d005      	beq.n	3522 <__sfputc_r+0x24>
    3516:	6813      	ldr	r3, [r2, #0]
    3518:	1c58      	adds	r0, r3, #1
    351a:	6010      	str	r0, [r2, #0]
    351c:	7019      	strb	r1, [r3, #0]
    351e:	b2c8      	uxtb	r0, r1
    3520:	e001      	b.n	3526 <__sfputc_r+0x28>
    3522:	f000 fab3 	bl	3a8c <__swbuf_r>
    3526:	bd10      	pop	{r4, pc}

00003528 <__sfputs_r>:
    3528:	b5f8      	push	{r3, r4, r5, r6, r7, lr}
    352a:	1c06      	adds	r6, r0, #0
    352c:	1c0f      	adds	r7, r1, #0
    352e:	1c14      	adds	r4, r2, #0
    3530:	18d5      	adds	r5, r2, r3
    3532:	42ac      	cmp	r4, r5
    3534:	d008      	beq.n	3548 <__sfputs_r+0x20>
    3536:	7821      	ldrb	r1, [r4, #0]
    3538:	1c30      	adds	r0, r6, #0
    353a:	1c3a      	adds	r2, r7, #0
    353c:	f7ff ffdf 	bl	34fe <__sfputc_r>
    3540:	3401      	adds	r4, #1
    3542:	1c43      	adds	r3, r0, #1
    3544:	d1f5      	bne.n	3532 <__sfputs_r+0xa>
    3546:	e000      	b.n	354a <__sfputs_r+0x22>
    3548:	2000      	movs	r0, #0
    354a:	bdf8      	pop	{r3, r4, r5, r6, r7, pc}

0000354c <_vfiprintf_r>:
    354c:	b5f0      	push	{r4, r5, r6, r7, lr}
    354e:	b09f      	sub	sp, #124	; 0x7c
    3550:	1c06      	adds	r6, r0, #0
    3552:	1c0f      	adds	r7, r1, #0
    3554:	9203      	str	r2, [sp, #12]
    3556:	9305      	str	r3, [sp, #20]
    3558:	2800      	cmp	r0, #0
    355a:	d004      	beq.n	3566 <_vfiprintf_r+0x1a>
    355c:	6981      	ldr	r1, [r0, #24]
    355e:	2900      	cmp	r1, #0
    3560:	d101      	bne.n	3566 <_vfiprintf_r+0x1a>
    3562:	f7ff fe01 	bl	3168 <__sinit>
    3566:	4b75      	ldr	r3, [pc, #468]	; (373c <_vfiprintf_r+0x1f0>)
    3568:	429f      	cmp	r7, r3
    356a:	d101      	bne.n	3570 <_vfiprintf_r+0x24>
    356c:	6877      	ldr	r7, [r6, #4]
    356e:	e008      	b.n	3582 <_vfiprintf_r+0x36>
    3570:	4b73      	ldr	r3, [pc, #460]	; (3740 <_vfiprintf_r+0x1f4>)
    3572:	429f      	cmp	r7, r3
    3574:	d101      	bne.n	357a <_vfiprintf_r+0x2e>
    3576:	68b7      	ldr	r7, [r6, #8]
    3578:	e003      	b.n	3582 <_vfiprintf_r+0x36>
    357a:	4b72      	ldr	r3, [pc, #456]	; (3744 <_vfiprintf_r+0x1f8>)
    357c:	429f      	cmp	r7, r3
    357e:	d100      	bne.n	3582 <_vfiprintf_r+0x36>
    3580:	68f7      	ldr	r7, [r6, #12]
    3582:	89bb      	ldrh	r3, [r7, #12]
    3584:	071a      	lsls	r2, r3, #28
    3586:	d50a      	bpl.n	359e <_vfiprintf_r+0x52>
    3588:	693b      	ldr	r3, [r7, #16]
    358a:	2b00      	cmp	r3, #0
    358c:	d007      	beq.n	359e <_vfiprintf_r+0x52>
    358e:	ad06      	add	r5, sp, #24
    3590:	2300      	movs	r3, #0
    3592:	616b      	str	r3, [r5, #20]
    3594:	2320      	movs	r3, #32
    3596:	766b      	strb	r3, [r5, #25]
    3598:	2330      	movs	r3, #48	; 0x30
    359a:	76ab      	strb	r3, [r5, #26]
    359c:	e03b      	b.n	3616 <_vfiprintf_r+0xca>
    359e:	1c30      	adds	r0, r6, #0
    35a0:	1c39      	adds	r1, r7, #0
    35a2:	f000 fadf 	bl	3b64 <__swsetup_r>
    35a6:	2800      	cmp	r0, #0
    35a8:	d0f1      	beq.n	358e <_vfiprintf_r+0x42>
    35aa:	2001      	movs	r0, #1
    35ac:	4240      	negs	r0, r0
    35ae:	e0c2      	b.n	3736 <_vfiprintf_r+0x1ea>
    35b0:	9a05      	ldr	r2, [sp, #20]
    35b2:	1d11      	adds	r1, r2, #4
    35b4:	6812      	ldr	r2, [r2, #0]
    35b6:	9105      	str	r1, [sp, #20]
    35b8:	2a00      	cmp	r2, #0
    35ba:	db76      	blt.n	36aa <_vfiprintf_r+0x15e>
    35bc:	9209      	str	r2, [sp, #36]	; 0x24
    35be:	3401      	adds	r4, #1
    35c0:	7823      	ldrb	r3, [r4, #0]
    35c2:	2b2e      	cmp	r3, #46	; 0x2e
    35c4:	d100      	bne.n	35c8 <_vfiprintf_r+0x7c>
    35c6:	e081      	b.n	36cc <_vfiprintf_r+0x180>
    35c8:	7821      	ldrb	r1, [r4, #0]
    35ca:	485f      	ldr	r0, [pc, #380]	; (3748 <_vfiprintf_r+0x1fc>)
    35cc:	2203      	movs	r2, #3
    35ce:	f000 fbb1 	bl	3d34 <memchr>
    35d2:	2800      	cmp	r0, #0
    35d4:	d007      	beq.n	35e6 <_vfiprintf_r+0x9a>
    35d6:	495c      	ldr	r1, [pc, #368]	; (3748 <_vfiprintf_r+0x1fc>)
    35d8:	682a      	ldr	r2, [r5, #0]
    35da:	1a43      	subs	r3, r0, r1
    35dc:	2040      	movs	r0, #64	; 0x40
    35de:	4098      	lsls	r0, r3
    35e0:	4310      	orrs	r0, r2
    35e2:	6028      	str	r0, [r5, #0]
    35e4:	3401      	adds	r4, #1
    35e6:	7821      	ldrb	r1, [r4, #0]
    35e8:	1c63      	adds	r3, r4, #1
    35ea:	4858      	ldr	r0, [pc, #352]	; (374c <_vfiprintf_r+0x200>)
    35ec:	2206      	movs	r2, #6
    35ee:	9303      	str	r3, [sp, #12]
    35f0:	7629      	strb	r1, [r5, #24]
    35f2:	f000 fb9f 	bl	3d34 <memchr>
    35f6:	2800      	cmp	r0, #0
    35f8:	d100      	bne.n	35fc <_vfiprintf_r+0xb0>
    35fa:	e08a      	b.n	3712 <_vfiprintf_r+0x1c6>
    35fc:	4b54      	ldr	r3, [pc, #336]	; (3750 <_vfiprintf_r+0x204>)
    35fe:	2b00      	cmp	r3, #0
    3600:	d17e      	bne.n	3700 <_vfiprintf_r+0x1b4>
    3602:	9b05      	ldr	r3, [sp, #20]
    3604:	2207      	movs	r2, #7
    3606:	3307      	adds	r3, #7
    3608:	4393      	bics	r3, r2
    360a:	3308      	adds	r3, #8
    360c:	9305      	str	r3, [sp, #20]
    360e:	696a      	ldr	r2, [r5, #20]
    3610:	9904      	ldr	r1, [sp, #16]
    3612:	1853      	adds	r3, r2, r1
    3614:	616b      	str	r3, [r5, #20]
    3616:	9c03      	ldr	r4, [sp, #12]
    3618:	7823      	ldrb	r3, [r4, #0]
    361a:	2b00      	cmp	r3, #0
    361c:	d104      	bne.n	3628 <_vfiprintf_r+0xdc>
    361e:	9903      	ldr	r1, [sp, #12]
    3620:	1a61      	subs	r1, r4, r1
    3622:	9102      	str	r1, [sp, #8]
    3624:	d010      	beq.n	3648 <_vfiprintf_r+0xfc>
    3626:	e003      	b.n	3630 <_vfiprintf_r+0xe4>
    3628:	2b25      	cmp	r3, #37	; 0x25
    362a:	d0f8      	beq.n	361e <_vfiprintf_r+0xd2>
    362c:	3401      	adds	r4, #1
    362e:	e7f3      	b.n	3618 <_vfiprintf_r+0xcc>
    3630:	1c30      	adds	r0, r6, #0
    3632:	1c39      	adds	r1, r7, #0
    3634:	9a03      	ldr	r2, [sp, #12]
    3636:	9b02      	ldr	r3, [sp, #8]
    3638:	f7ff ff76 	bl	3528 <__sfputs_r>
    363c:	3001      	adds	r0, #1
    363e:	d075      	beq.n	372c <_vfiprintf_r+0x1e0>
    3640:	696a      	ldr	r2, [r5, #20]
    3642:	9902      	ldr	r1, [sp, #8]
    3644:	1853      	adds	r3, r2, r1
    3646:	616b      	str	r3, [r5, #20]
    3648:	7823      	ldrb	r3, [r4, #0]
    364a:	2b00      	cmp	r3, #0
    364c:	d06e      	beq.n	372c <_vfiprintf_r+0x1e0>
    364e:	2201      	movs	r2, #1
    3650:	4252      	negs	r2, r2
    3652:	606a      	str	r2, [r5, #4]
    3654:	466a      	mov	r2, sp
    3656:	2300      	movs	r3, #0
    3658:	325b      	adds	r2, #91	; 0x5b
    365a:	3401      	adds	r4, #1
    365c:	602b      	str	r3, [r5, #0]
    365e:	60eb      	str	r3, [r5, #12]
    3660:	60ab      	str	r3, [r5, #8]
    3662:	7013      	strb	r3, [r2, #0]
    3664:	65ab      	str	r3, [r5, #88]	; 0x58
    3666:	7821      	ldrb	r1, [r4, #0]
    3668:	483a      	ldr	r0, [pc, #232]	; (3754 <_vfiprintf_r+0x208>)
    366a:	2205      	movs	r2, #5
    366c:	f000 fb62 	bl	3d34 <memchr>
    3670:	2800      	cmp	r0, #0
    3672:	d008      	beq.n	3686 <_vfiprintf_r+0x13a>
    3674:	4a37      	ldr	r2, [pc, #220]	; (3754 <_vfiprintf_r+0x208>)
    3676:	3401      	adds	r4, #1
    3678:	1a83      	subs	r3, r0, r2
    367a:	2001      	movs	r0, #1
    367c:	4098      	lsls	r0, r3
    367e:	682b      	ldr	r3, [r5, #0]
    3680:	4318      	orrs	r0, r3
    3682:	6028      	str	r0, [r5, #0]
    3684:	e7ef      	b.n	3666 <_vfiprintf_r+0x11a>
    3686:	682b      	ldr	r3, [r5, #0]
    3688:	06d9      	lsls	r1, r3, #27
    368a:	d503      	bpl.n	3694 <_vfiprintf_r+0x148>
    368c:	466a      	mov	r2, sp
    368e:	2120      	movs	r1, #32
    3690:	325b      	adds	r2, #91	; 0x5b
    3692:	7011      	strb	r1, [r2, #0]
    3694:	071a      	lsls	r2, r3, #28
    3696:	d503      	bpl.n	36a0 <_vfiprintf_r+0x154>
    3698:	466a      	mov	r2, sp
    369a:	212b      	movs	r1, #43	; 0x2b
    369c:	325b      	adds	r2, #91	; 0x5b
    369e:	7011      	strb	r1, [r2, #0]
    36a0:	7822      	ldrb	r2, [r4, #0]
    36a2:	2a2a      	cmp	r2, #42	; 0x2a
    36a4:	d084      	beq.n	35b0 <_vfiprintf_r+0x64>
    36a6:	9b09      	ldr	r3, [sp, #36]	; 0x24
    36a8:	e005      	b.n	36b6 <_vfiprintf_r+0x16a>
    36aa:	4252      	negs	r2, r2
    36ac:	60ea      	str	r2, [r5, #12]
    36ae:	2202      	movs	r2, #2
    36b0:	4313      	orrs	r3, r2
    36b2:	602b      	str	r3, [r5, #0]
    36b4:	e783      	b.n	35be <_vfiprintf_r+0x72>
    36b6:	7822      	ldrb	r2, [r4, #0]
    36b8:	3a30      	subs	r2, #48	; 0x30
    36ba:	2a09      	cmp	r2, #9
    36bc:	d804      	bhi.n	36c8 <_vfiprintf_r+0x17c>
    36be:	210a      	movs	r1, #10
    36c0:	434b      	muls	r3, r1
    36c2:	3401      	adds	r4, #1
    36c4:	189b      	adds	r3, r3, r2
    36c6:	e7f6      	b.n	36b6 <_vfiprintf_r+0x16a>
    36c8:	9309      	str	r3, [sp, #36]	; 0x24
    36ca:	e779      	b.n	35c0 <_vfiprintf_r+0x74>
    36cc:	7863      	ldrb	r3, [r4, #1]
    36ce:	2b2a      	cmp	r3, #42	; 0x2a
    36d0:	d109      	bne.n	36e6 <_vfiprintf_r+0x19a>
    36d2:	9b05      	ldr	r3, [sp, #20]
    36d4:	3402      	adds	r4, #2
    36d6:	1d1a      	adds	r2, r3, #4
    36d8:	681b      	ldr	r3, [r3, #0]
    36da:	9205      	str	r2, [sp, #20]
    36dc:	2b00      	cmp	r3, #0
    36de:	da0d      	bge.n	36fc <_vfiprintf_r+0x1b0>
    36e0:	2301      	movs	r3, #1
    36e2:	425b      	negs	r3, r3
    36e4:	e00a      	b.n	36fc <_vfiprintf_r+0x1b0>
    36e6:	3401      	adds	r4, #1
    36e8:	2300      	movs	r3, #0
    36ea:	7822      	ldrb	r2, [r4, #0]
    36ec:	3a30      	subs	r2, #48	; 0x30
    36ee:	2a09      	cmp	r2, #9
    36f0:	d804      	bhi.n	36fc <_vfiprintf_r+0x1b0>
    36f2:	210a      	movs	r1, #10
    36f4:	434b      	muls	r3, r1
    36f6:	3401      	adds	r4, #1
    36f8:	189b      	adds	r3, r3, r2
    36fa:	e7f6      	b.n	36ea <_vfiprintf_r+0x19e>
    36fc:	9307      	str	r3, [sp, #28]
    36fe:	e763      	b.n	35c8 <_vfiprintf_r+0x7c>
    3700:	ab05      	add	r3, sp, #20
    3702:	9300      	str	r3, [sp, #0]
    3704:	1c30      	adds	r0, r6, #0
    3706:	1c29      	adds	r1, r5, #0
    3708:	1c3a      	adds	r2, r7, #0
    370a:	4b13      	ldr	r3, [pc, #76]	; (3758 <_vfiprintf_r+0x20c>)
    370c:	e000      	b.n	3710 <_vfiprintf_r+0x1c4>
    370e:	bf00      	nop
    3710:	e007      	b.n	3722 <_vfiprintf_r+0x1d6>
    3712:	ab05      	add	r3, sp, #20
    3714:	9300      	str	r3, [sp, #0]
    3716:	1c30      	adds	r0, r6, #0
    3718:	1c29      	adds	r1, r5, #0
    371a:	1c3a      	adds	r2, r7, #0
    371c:	4b0e      	ldr	r3, [pc, #56]	; (3758 <_vfiprintf_r+0x20c>)
    371e:	f000 f89f 	bl	3860 <_printf_i>
    3722:	9004      	str	r0, [sp, #16]
    3724:	9904      	ldr	r1, [sp, #16]
    3726:	3101      	adds	r1, #1
    3728:	d000      	beq.n	372c <_vfiprintf_r+0x1e0>
    372a:	e770      	b.n	360e <_vfiprintf_r+0xc2>
    372c:	89bb      	ldrh	r3, [r7, #12]
    372e:	065a      	lsls	r2, r3, #25
    3730:	d500      	bpl.n	3734 <_vfiprintf_r+0x1e8>
    3732:	e73a      	b.n	35aa <_vfiprintf_r+0x5e>
    3734:	980b      	ldr	r0, [sp, #44]	; 0x2c
    3736:	b01f      	add	sp, #124	; 0x7c
    3738:	bdf0      	pop	{r4, r5, r6, r7, pc}
    373a:	46c0      	nop			; (mov r8, r8)
    373c:	000065f0 	.word	0x000065f0
    3740:	00006610 	.word	0x00006610
    3744:	00006630 	.word	0x00006630
    3748:	0000665e 	.word	0x0000665e
    374c:	00006662 	.word	0x00006662
    3750:	00000000 	.word	0x00000000
    3754:	00006658 	.word	0x00006658
    3758:	00003529 	.word	0x00003529

0000375c <vfiprintf>:
    375c:	b538      	push	{r3, r4, r5, lr}
    375e:	1c13      	adds	r3, r2, #0
    3760:	4a04      	ldr	r2, [pc, #16]	; (3774 <vfiprintf+0x18>)
    3762:	1c05      	adds	r5, r0, #0
    3764:	1c0c      	adds	r4, r1, #0
    3766:	6810      	ldr	r0, [r2, #0]
    3768:	1c29      	adds	r1, r5, #0
    376a:	1c22      	adds	r2, r4, #0
    376c:	f7ff feee 	bl	354c <_vfiprintf_r>
    3770:	bd38      	pop	{r3, r4, r5, pc}
    3772:	46c0      	nop			; (mov r8, r8)
    3774:	100002ac 	.word	0x100002ac

00003778 <_printf_common>:
    3778:	b5f7      	push	{r0, r1, r2, r4, r5, r6, r7, lr}
    377a:	1c15      	adds	r5, r2, #0
    377c:	9301      	str	r3, [sp, #4]
    377e:	690a      	ldr	r2, [r1, #16]
    3780:	688b      	ldr	r3, [r1, #8]
    3782:	1c06      	adds	r6, r0, #0
    3784:	1c0c      	adds	r4, r1, #0
    3786:	4293      	cmp	r3, r2
    3788:	da00      	bge.n	378c <_printf_common+0x14>
    378a:	1c13      	adds	r3, r2, #0
    378c:	1c22      	adds	r2, r4, #0
    378e:	602b      	str	r3, [r5, #0]
    3790:	3243      	adds	r2, #67	; 0x43
    3792:	7812      	ldrb	r2, [r2, #0]
    3794:	2a00      	cmp	r2, #0
    3796:	d001      	beq.n	379c <_printf_common+0x24>
    3798:	3301      	adds	r3, #1
    379a:	602b      	str	r3, [r5, #0]
    379c:	6820      	ldr	r0, [r4, #0]
    379e:	0680      	lsls	r0, r0, #26
    37a0:	d502      	bpl.n	37a8 <_printf_common+0x30>
    37a2:	682b      	ldr	r3, [r5, #0]
    37a4:	3302      	adds	r3, #2
    37a6:	602b      	str	r3, [r5, #0]
    37a8:	6821      	ldr	r1, [r4, #0]
    37aa:	2706      	movs	r7, #6
    37ac:	400f      	ands	r7, r1
    37ae:	d01f      	beq.n	37f0 <_printf_common+0x78>
    37b0:	1c23      	adds	r3, r4, #0
    37b2:	3343      	adds	r3, #67	; 0x43
    37b4:	781b      	ldrb	r3, [r3, #0]
    37b6:	1e5a      	subs	r2, r3, #1
    37b8:	4193      	sbcs	r3, r2
    37ba:	6822      	ldr	r2, [r4, #0]
    37bc:	0692      	lsls	r2, r2, #26
    37be:	d51f      	bpl.n	3800 <_printf_common+0x88>
    37c0:	18e1      	adds	r1, r4, r3
    37c2:	3140      	adds	r1, #64	; 0x40
    37c4:	2030      	movs	r0, #48	; 0x30
    37c6:	70c8      	strb	r0, [r1, #3]
    37c8:	1c21      	adds	r1, r4, #0
    37ca:	1c5a      	adds	r2, r3, #1
    37cc:	3145      	adds	r1, #69	; 0x45
    37ce:	7809      	ldrb	r1, [r1, #0]
    37d0:	18a2      	adds	r2, r4, r2
    37d2:	3240      	adds	r2, #64	; 0x40
    37d4:	3302      	adds	r3, #2
    37d6:	70d1      	strb	r1, [r2, #3]
    37d8:	e012      	b.n	3800 <_printf_common+0x88>
    37da:	1c22      	adds	r2, r4, #0
    37dc:	1c30      	adds	r0, r6, #0
    37de:	9901      	ldr	r1, [sp, #4]
    37e0:	3219      	adds	r2, #25
    37e2:	2301      	movs	r3, #1
    37e4:	9f08      	ldr	r7, [sp, #32]
    37e6:	47b8      	blx	r7
    37e8:	3001      	adds	r0, #1
    37ea:	d011      	beq.n	3810 <_printf_common+0x98>
    37ec:	9f00      	ldr	r7, [sp, #0]
    37ee:	3701      	adds	r7, #1
    37f0:	9700      	str	r7, [sp, #0]
    37f2:	68e0      	ldr	r0, [r4, #12]
    37f4:	6829      	ldr	r1, [r5, #0]
    37f6:	9f00      	ldr	r7, [sp, #0]
    37f8:	1a43      	subs	r3, r0, r1
    37fa:	429f      	cmp	r7, r3
    37fc:	dbed      	blt.n	37da <_printf_common+0x62>
    37fe:	e7d7      	b.n	37b0 <_printf_common+0x38>
    3800:	1c22      	adds	r2, r4, #0
    3802:	1c30      	adds	r0, r6, #0
    3804:	9901      	ldr	r1, [sp, #4]
    3806:	3243      	adds	r2, #67	; 0x43
    3808:	9f08      	ldr	r7, [sp, #32]
    380a:	47b8      	blx	r7
    380c:	3001      	adds	r0, #1
    380e:	d102      	bne.n	3816 <_printf_common+0x9e>
    3810:	2001      	movs	r0, #1
    3812:	4240      	negs	r0, r0
    3814:	e023      	b.n	385e <_printf_common+0xe6>
    3816:	6820      	ldr	r0, [r4, #0]
    3818:	2106      	movs	r1, #6
    381a:	682b      	ldr	r3, [r5, #0]
    381c:	68e2      	ldr	r2, [r4, #12]
    381e:	4001      	ands	r1, r0
    3820:	2500      	movs	r5, #0
    3822:	2904      	cmp	r1, #4
    3824:	d103      	bne.n	382e <_printf_common+0xb6>
    3826:	1ad5      	subs	r5, r2, r3
    3828:	43eb      	mvns	r3, r5
    382a:	17db      	asrs	r3, r3, #31
    382c:	401d      	ands	r5, r3
    382e:	68a2      	ldr	r2, [r4, #8]
    3830:	6923      	ldr	r3, [r4, #16]
    3832:	429a      	cmp	r2, r3
    3834:	dd01      	ble.n	383a <_printf_common+0xc2>
    3836:	1ad3      	subs	r3, r2, r3
    3838:	18ed      	adds	r5, r5, r3
    383a:	2700      	movs	r7, #0
    383c:	9700      	str	r7, [sp, #0]
    383e:	9f00      	ldr	r7, [sp, #0]
    3840:	42af      	cmp	r7, r5
    3842:	da0b      	bge.n	385c <_printf_common+0xe4>
    3844:	1c22      	adds	r2, r4, #0
    3846:	1c30      	adds	r0, r6, #0
    3848:	9901      	ldr	r1, [sp, #4]
    384a:	321a      	adds	r2, #26
    384c:	2301      	movs	r3, #1
    384e:	9f08      	ldr	r7, [sp, #32]
    3850:	47b8      	blx	r7
    3852:	3001      	adds	r0, #1
    3854:	d0dc      	beq.n	3810 <_printf_common+0x98>
    3856:	9f00      	ldr	r7, [sp, #0]
    3858:	3701      	adds	r7, #1
    385a:	e7ef      	b.n	383c <_printf_common+0xc4>
    385c:	2000      	movs	r0, #0
    385e:	bdfe      	pop	{r1, r2, r3, r4, r5, r6, r7, pc}

00003860 <_printf_i>:
    3860:	b5f0      	push	{r4, r5, r6, r7, lr}
    3862:	1c0d      	adds	r5, r1, #0
    3864:	b08b      	sub	sp, #44	; 0x2c
    3866:	3543      	adds	r5, #67	; 0x43
    3868:	9206      	str	r2, [sp, #24]
    386a:	9005      	str	r0, [sp, #20]
    386c:	9307      	str	r3, [sp, #28]
    386e:	9504      	str	r5, [sp, #16]
    3870:	7e0b      	ldrb	r3, [r1, #24]
    3872:	1c0c      	adds	r4, r1, #0
    3874:	9a10      	ldr	r2, [sp, #64]	; 0x40
    3876:	2b6e      	cmp	r3, #110	; 0x6e
    3878:	d100      	bne.n	387c <_printf_i+0x1c>
    387a:	e0a7      	b.n	39cc <_printf_i+0x16c>
    387c:	d811      	bhi.n	38a2 <_printf_i+0x42>
    387e:	2b63      	cmp	r3, #99	; 0x63
    3880:	d022      	beq.n	38c8 <_printf_i+0x68>
    3882:	d809      	bhi.n	3898 <_printf_i+0x38>
    3884:	2b00      	cmp	r3, #0
    3886:	d100      	bne.n	388a <_printf_i+0x2a>
    3888:	e0b0      	b.n	39ec <_printf_i+0x18c>
    388a:	2b58      	cmp	r3, #88	; 0x58
    388c:	d000      	beq.n	3890 <_printf_i+0x30>
    388e:	e0c0      	b.n	3a12 <_printf_i+0x1b2>
    3890:	3145      	adds	r1, #69	; 0x45
    3892:	700b      	strb	r3, [r1, #0]
    3894:	4d7b      	ldr	r5, [pc, #492]	; (3a84 <_printf_i+0x224>)
    3896:	e04e      	b.n	3936 <_printf_i+0xd6>
    3898:	2b64      	cmp	r3, #100	; 0x64
    389a:	d01c      	beq.n	38d6 <_printf_i+0x76>
    389c:	2b69      	cmp	r3, #105	; 0x69
    389e:	d01a      	beq.n	38d6 <_printf_i+0x76>
    38a0:	e0b7      	b.n	3a12 <_printf_i+0x1b2>
    38a2:	2b73      	cmp	r3, #115	; 0x73
    38a4:	d100      	bne.n	38a8 <_printf_i+0x48>
    38a6:	e0a5      	b.n	39f4 <_printf_i+0x194>
    38a8:	d809      	bhi.n	38be <_printf_i+0x5e>
    38aa:	2b6f      	cmp	r3, #111	; 0x6f
    38ac:	d029      	beq.n	3902 <_printf_i+0xa2>
    38ae:	2b70      	cmp	r3, #112	; 0x70
    38b0:	d000      	beq.n	38b4 <_printf_i+0x54>
    38b2:	e0ae      	b.n	3a12 <_printf_i+0x1b2>
    38b4:	680e      	ldr	r6, [r1, #0]
    38b6:	2320      	movs	r3, #32
    38b8:	4333      	orrs	r3, r6
    38ba:	600b      	str	r3, [r1, #0]
    38bc:	e036      	b.n	392c <_printf_i+0xcc>
    38be:	2b75      	cmp	r3, #117	; 0x75
    38c0:	d01f      	beq.n	3902 <_printf_i+0xa2>
    38c2:	2b78      	cmp	r3, #120	; 0x78
    38c4:	d032      	beq.n	392c <_printf_i+0xcc>
    38c6:	e0a4      	b.n	3a12 <_printf_i+0x1b2>
    38c8:	6813      	ldr	r3, [r2, #0]
    38ca:	1c0d      	adds	r5, r1, #0
    38cc:	1d19      	adds	r1, r3, #4
    38ce:	3542      	adds	r5, #66	; 0x42
    38d0:	6011      	str	r1, [r2, #0]
    38d2:	681b      	ldr	r3, [r3, #0]
    38d4:	e09f      	b.n	3a16 <_printf_i+0x1b6>
    38d6:	6821      	ldr	r1, [r4, #0]
    38d8:	6813      	ldr	r3, [r2, #0]
    38da:	060e      	lsls	r6, r1, #24
    38dc:	d503      	bpl.n	38e6 <_printf_i+0x86>
    38de:	1d19      	adds	r1, r3, #4
    38e0:	6011      	str	r1, [r2, #0]
    38e2:	681e      	ldr	r6, [r3, #0]
    38e4:	e005      	b.n	38f2 <_printf_i+0x92>
    38e6:	0648      	lsls	r0, r1, #25
    38e8:	d5f9      	bpl.n	38de <_printf_i+0x7e>
    38ea:	1d19      	adds	r1, r3, #4
    38ec:	6011      	str	r1, [r2, #0]
    38ee:	2100      	movs	r1, #0
    38f0:	5e5e      	ldrsh	r6, [r3, r1]
    38f2:	4b64      	ldr	r3, [pc, #400]	; (3a84 <_printf_i+0x224>)
    38f4:	2e00      	cmp	r6, #0
    38f6:	da3b      	bge.n	3970 <_printf_i+0x110>
    38f8:	9d04      	ldr	r5, [sp, #16]
    38fa:	222d      	movs	r2, #45	; 0x2d
    38fc:	4276      	negs	r6, r6
    38fe:	702a      	strb	r2, [r5, #0]
    3900:	e036      	b.n	3970 <_printf_i+0x110>
    3902:	6821      	ldr	r1, [r4, #0]
    3904:	6813      	ldr	r3, [r2, #0]
    3906:	060e      	lsls	r6, r1, #24
    3908:	d503      	bpl.n	3912 <_printf_i+0xb2>
    390a:	1d19      	adds	r1, r3, #4
    390c:	6011      	str	r1, [r2, #0]
    390e:	681e      	ldr	r6, [r3, #0]
    3910:	e004      	b.n	391c <_printf_i+0xbc>
    3912:	0648      	lsls	r0, r1, #25
    3914:	d5f9      	bpl.n	390a <_printf_i+0xaa>
    3916:	1d19      	adds	r1, r3, #4
    3918:	881e      	ldrh	r6, [r3, #0]
    391a:	6011      	str	r1, [r2, #0]
    391c:	4b59      	ldr	r3, [pc, #356]	; (3a84 <_printf_i+0x224>)
    391e:	7e22      	ldrb	r2, [r4, #24]
    3920:	9303      	str	r3, [sp, #12]
    3922:	2708      	movs	r7, #8
    3924:	2a6f      	cmp	r2, #111	; 0x6f
    3926:	d01e      	beq.n	3966 <_printf_i+0x106>
    3928:	270a      	movs	r7, #10
    392a:	e01c      	b.n	3966 <_printf_i+0x106>
    392c:	1c23      	adds	r3, r4, #0
    392e:	2178      	movs	r1, #120	; 0x78
    3930:	3345      	adds	r3, #69	; 0x45
    3932:	4d55      	ldr	r5, [pc, #340]	; (3a88 <_printf_i+0x228>)
    3934:	7019      	strb	r1, [r3, #0]
    3936:	6811      	ldr	r1, [r2, #0]
    3938:	6823      	ldr	r3, [r4, #0]
    393a:	1d08      	adds	r0, r1, #4
    393c:	9503      	str	r5, [sp, #12]
    393e:	6010      	str	r0, [r2, #0]
    3940:	061e      	lsls	r6, r3, #24
    3942:	d501      	bpl.n	3948 <_printf_i+0xe8>
    3944:	680e      	ldr	r6, [r1, #0]
    3946:	e002      	b.n	394e <_printf_i+0xee>
    3948:	0658      	lsls	r0, r3, #25
    394a:	d5fb      	bpl.n	3944 <_printf_i+0xe4>
    394c:	880e      	ldrh	r6, [r1, #0]
    394e:	07d9      	lsls	r1, r3, #31
    3950:	d502      	bpl.n	3958 <_printf_i+0xf8>
    3952:	2220      	movs	r2, #32
    3954:	4313      	orrs	r3, r2
    3956:	6023      	str	r3, [r4, #0]
    3958:	2710      	movs	r7, #16
    395a:	2e00      	cmp	r6, #0
    395c:	d103      	bne.n	3966 <_printf_i+0x106>
    395e:	6822      	ldr	r2, [r4, #0]
    3960:	2320      	movs	r3, #32
    3962:	439a      	bics	r2, r3
    3964:	6022      	str	r2, [r4, #0]
    3966:	1c23      	adds	r3, r4, #0
    3968:	2200      	movs	r2, #0
    396a:	3343      	adds	r3, #67	; 0x43
    396c:	701a      	strb	r2, [r3, #0]
    396e:	e001      	b.n	3974 <_printf_i+0x114>
    3970:	9303      	str	r3, [sp, #12]
    3972:	270a      	movs	r7, #10
    3974:	6863      	ldr	r3, [r4, #4]
    3976:	60a3      	str	r3, [r4, #8]
    3978:	2b00      	cmp	r3, #0
    397a:	db03      	blt.n	3984 <_printf_i+0x124>
    397c:	6825      	ldr	r5, [r4, #0]
    397e:	2204      	movs	r2, #4
    3980:	4395      	bics	r5, r2
    3982:	6025      	str	r5, [r4, #0]
    3984:	2e00      	cmp	r6, #0
    3986:	d102      	bne.n	398e <_printf_i+0x12e>
    3988:	9d04      	ldr	r5, [sp, #16]
    398a:	2b00      	cmp	r3, #0
    398c:	d00e      	beq.n	39ac <_printf_i+0x14c>
    398e:	9d04      	ldr	r5, [sp, #16]
    3990:	1c30      	adds	r0, r6, #0
    3992:	1c39      	adds	r1, r7, #0
    3994:	f7fe fb1a 	bl	1fcc <__aeabi_uidivmod>
    3998:	9803      	ldr	r0, [sp, #12]
    399a:	3d01      	subs	r5, #1
    399c:	5c43      	ldrb	r3, [r0, r1]
    399e:	1c30      	adds	r0, r6, #0
    39a0:	702b      	strb	r3, [r5, #0]
    39a2:	1c39      	adds	r1, r7, #0
    39a4:	f7fe face 	bl	1f44 <__aeabi_uidiv>
    39a8:	1e06      	subs	r6, r0, #0
    39aa:	d1f1      	bne.n	3990 <_printf_i+0x130>
    39ac:	2f08      	cmp	r7, #8
    39ae:	d109      	bne.n	39c4 <_printf_i+0x164>
    39b0:	6821      	ldr	r1, [r4, #0]
    39b2:	07c9      	lsls	r1, r1, #31
    39b4:	d506      	bpl.n	39c4 <_printf_i+0x164>
    39b6:	6862      	ldr	r2, [r4, #4]
    39b8:	6923      	ldr	r3, [r4, #16]
    39ba:	429a      	cmp	r2, r3
    39bc:	dc02      	bgt.n	39c4 <_printf_i+0x164>
    39be:	3d01      	subs	r5, #1
    39c0:	2330      	movs	r3, #48	; 0x30
    39c2:	702b      	strb	r3, [r5, #0]
    39c4:	9e04      	ldr	r6, [sp, #16]
    39c6:	1b73      	subs	r3, r6, r5
    39c8:	6123      	str	r3, [r4, #16]
    39ca:	e02a      	b.n	3a22 <_printf_i+0x1c2>
    39cc:	6808      	ldr	r0, [r1, #0]
    39ce:	6813      	ldr	r3, [r2, #0]
    39d0:	6949      	ldr	r1, [r1, #20]
    39d2:	0605      	lsls	r5, r0, #24
    39d4:	d504      	bpl.n	39e0 <_printf_i+0x180>
    39d6:	1d18      	adds	r0, r3, #4
    39d8:	6010      	str	r0, [r2, #0]
    39da:	681b      	ldr	r3, [r3, #0]
    39dc:	6019      	str	r1, [r3, #0]
    39de:	e005      	b.n	39ec <_printf_i+0x18c>
    39e0:	0646      	lsls	r6, r0, #25
    39e2:	d5f8      	bpl.n	39d6 <_printf_i+0x176>
    39e4:	1d18      	adds	r0, r3, #4
    39e6:	6010      	str	r0, [r2, #0]
    39e8:	681b      	ldr	r3, [r3, #0]
    39ea:	8019      	strh	r1, [r3, #0]
    39ec:	2300      	movs	r3, #0
    39ee:	6123      	str	r3, [r4, #16]
    39f0:	9d04      	ldr	r5, [sp, #16]
    39f2:	e016      	b.n	3a22 <_printf_i+0x1c2>
    39f4:	6813      	ldr	r3, [r2, #0]
    39f6:	1d19      	adds	r1, r3, #4
    39f8:	6011      	str	r1, [r2, #0]
    39fa:	681d      	ldr	r5, [r3, #0]
    39fc:	1c28      	adds	r0, r5, #0
    39fe:	f7ff fd77 	bl	34f0 <strlen>
    3a02:	6863      	ldr	r3, [r4, #4]
    3a04:	6120      	str	r0, [r4, #16]
    3a06:	4298      	cmp	r0, r3
    3a08:	d900      	bls.n	3a0c <_printf_i+0x1ac>
    3a0a:	6123      	str	r3, [r4, #16]
    3a0c:	6920      	ldr	r0, [r4, #16]
    3a0e:	6060      	str	r0, [r4, #4]
    3a10:	e004      	b.n	3a1c <_printf_i+0x1bc>
    3a12:	1c25      	adds	r5, r4, #0
    3a14:	3542      	adds	r5, #66	; 0x42
    3a16:	702b      	strb	r3, [r5, #0]
    3a18:	2301      	movs	r3, #1
    3a1a:	6123      	str	r3, [r4, #16]
    3a1c:	9e04      	ldr	r6, [sp, #16]
    3a1e:	2300      	movs	r3, #0
    3a20:	7033      	strb	r3, [r6, #0]
    3a22:	9e07      	ldr	r6, [sp, #28]
    3a24:	9805      	ldr	r0, [sp, #20]
    3a26:	9600      	str	r6, [sp, #0]
    3a28:	1c21      	adds	r1, r4, #0
    3a2a:	aa09      	add	r2, sp, #36	; 0x24
    3a2c:	9b06      	ldr	r3, [sp, #24]
    3a2e:	f7ff fea3 	bl	3778 <_printf_common>
    3a32:	3001      	adds	r0, #1
    3a34:	d102      	bne.n	3a3c <_printf_i+0x1dc>
    3a36:	2001      	movs	r0, #1
    3a38:	4240      	negs	r0, r0
    3a3a:	e021      	b.n	3a80 <_printf_i+0x220>
    3a3c:	1c2a      	adds	r2, r5, #0
    3a3e:	9805      	ldr	r0, [sp, #20]
    3a40:	9906      	ldr	r1, [sp, #24]
    3a42:	6923      	ldr	r3, [r4, #16]
    3a44:	9d07      	ldr	r5, [sp, #28]
    3a46:	47a8      	blx	r5
    3a48:	3001      	adds	r0, #1
    3a4a:	d0f4      	beq.n	3a36 <_printf_i+0x1d6>
    3a4c:	6826      	ldr	r6, [r4, #0]
    3a4e:	07b6      	lsls	r6, r6, #30
    3a50:	d405      	bmi.n	3a5e <_printf_i+0x1fe>
    3a52:	9b09      	ldr	r3, [sp, #36]	; 0x24
    3a54:	68e0      	ldr	r0, [r4, #12]
    3a56:	4298      	cmp	r0, r3
    3a58:	da12      	bge.n	3a80 <_printf_i+0x220>
    3a5a:	1c18      	adds	r0, r3, #0
    3a5c:	e010      	b.n	3a80 <_printf_i+0x220>
    3a5e:	2500      	movs	r5, #0
    3a60:	68e0      	ldr	r0, [r4, #12]
    3a62:	9909      	ldr	r1, [sp, #36]	; 0x24
    3a64:	1a43      	subs	r3, r0, r1
    3a66:	429d      	cmp	r5, r3
    3a68:	daf3      	bge.n	3a52 <_printf_i+0x1f2>
    3a6a:	1c22      	adds	r2, r4, #0
    3a6c:	9805      	ldr	r0, [sp, #20]
    3a6e:	9906      	ldr	r1, [sp, #24]
    3a70:	3219      	adds	r2, #25
    3a72:	2301      	movs	r3, #1
    3a74:	9e07      	ldr	r6, [sp, #28]
    3a76:	47b0      	blx	r6
    3a78:	3001      	adds	r0, #1
    3a7a:	d0dc      	beq.n	3a36 <_printf_i+0x1d6>
    3a7c:	3501      	adds	r5, #1
    3a7e:	e7ef      	b.n	3a60 <_printf_i+0x200>
    3a80:	b00b      	add	sp, #44	; 0x2c
    3a82:	bdf0      	pop	{r4, r5, r6, r7, pc}
    3a84:	00006669 	.word	0x00006669
    3a88:	0000667a 	.word	0x0000667a

00003a8c <__swbuf_r>:
    3a8c:	b570      	push	{r4, r5, r6, lr}
    3a8e:	1c05      	adds	r5, r0, #0
    3a90:	1c0e      	adds	r6, r1, #0
    3a92:	1c14      	adds	r4, r2, #0
    3a94:	2800      	cmp	r0, #0
    3a96:	d004      	beq.n	3aa2 <__swbuf_r+0x16>
    3a98:	6982      	ldr	r2, [r0, #24]
    3a9a:	2a00      	cmp	r2, #0
    3a9c:	d101      	bne.n	3aa2 <__swbuf_r+0x16>
    3a9e:	f7ff fb63 	bl	3168 <__sinit>
    3aa2:	4b23      	ldr	r3, [pc, #140]	; (3b30 <__swbuf_r+0xa4>)
    3aa4:	429c      	cmp	r4, r3
    3aa6:	d101      	bne.n	3aac <__swbuf_r+0x20>
    3aa8:	686c      	ldr	r4, [r5, #4]
    3aaa:	e008      	b.n	3abe <__swbuf_r+0x32>
    3aac:	4b21      	ldr	r3, [pc, #132]	; (3b34 <__swbuf_r+0xa8>)
    3aae:	429c      	cmp	r4, r3
    3ab0:	d101      	bne.n	3ab6 <__swbuf_r+0x2a>
    3ab2:	68ac      	ldr	r4, [r5, #8]
    3ab4:	e003      	b.n	3abe <__swbuf_r+0x32>
    3ab6:	4b20      	ldr	r3, [pc, #128]	; (3b38 <__swbuf_r+0xac>)
    3ab8:	429c      	cmp	r4, r3
    3aba:	d100      	bne.n	3abe <__swbuf_r+0x32>
    3abc:	68ec      	ldr	r4, [r5, #12]
    3abe:	69a3      	ldr	r3, [r4, #24]
    3ac0:	60a3      	str	r3, [r4, #8]
    3ac2:	89a3      	ldrh	r3, [r4, #12]
    3ac4:	071a      	lsls	r2, r3, #28
    3ac6:	d50a      	bpl.n	3ade <__swbuf_r+0x52>
    3ac8:	6923      	ldr	r3, [r4, #16]
    3aca:	2b00      	cmp	r3, #0
    3acc:	d007      	beq.n	3ade <__swbuf_r+0x52>
    3ace:	6822      	ldr	r2, [r4, #0]
    3ad0:	6923      	ldr	r3, [r4, #16]
    3ad2:	b2f6      	uxtb	r6, r6
    3ad4:	1ad0      	subs	r0, r2, r3
    3ad6:	6962      	ldr	r2, [r4, #20]
    3ad8:	4290      	cmp	r0, r2
    3ada:	db0f      	blt.n	3afc <__swbuf_r+0x70>
    3adc:	e008      	b.n	3af0 <__swbuf_r+0x64>
    3ade:	1c28      	adds	r0, r5, #0
    3ae0:	1c21      	adds	r1, r4, #0
    3ae2:	f000 f83f 	bl	3b64 <__swsetup_r>
    3ae6:	2800      	cmp	r0, #0
    3ae8:	d0f1      	beq.n	3ace <__swbuf_r+0x42>
    3aea:	2001      	movs	r0, #1
    3aec:	4240      	negs	r0, r0
    3aee:	e01d      	b.n	3b2c <__swbuf_r+0xa0>
    3af0:	1c28      	adds	r0, r5, #0
    3af2:	1c21      	adds	r1, r4, #0
    3af4:	f7ff faa4 	bl	3040 <_fflush_r>
    3af8:	2800      	cmp	r0, #0
    3afa:	d1f6      	bne.n	3aea <__swbuf_r+0x5e>
    3afc:	68a3      	ldr	r3, [r4, #8]
    3afe:	3001      	adds	r0, #1
    3b00:	3b01      	subs	r3, #1
    3b02:	60a3      	str	r3, [r4, #8]
    3b04:	6823      	ldr	r3, [r4, #0]
    3b06:	1c5a      	adds	r2, r3, #1
    3b08:	6022      	str	r2, [r4, #0]
    3b0a:	701e      	strb	r6, [r3, #0]
    3b0c:	6963      	ldr	r3, [r4, #20]
    3b0e:	4298      	cmp	r0, r3
    3b10:	d005      	beq.n	3b1e <__swbuf_r+0x92>
    3b12:	89a3      	ldrh	r3, [r4, #12]
    3b14:	1c30      	adds	r0, r6, #0
    3b16:	07da      	lsls	r2, r3, #31
    3b18:	d508      	bpl.n	3b2c <__swbuf_r+0xa0>
    3b1a:	2e0a      	cmp	r6, #10
    3b1c:	d106      	bne.n	3b2c <__swbuf_r+0xa0>
    3b1e:	1c28      	adds	r0, r5, #0
    3b20:	1c21      	adds	r1, r4, #0
    3b22:	f7ff fa8d 	bl	3040 <_fflush_r>
    3b26:	2800      	cmp	r0, #0
    3b28:	d1df      	bne.n	3aea <__swbuf_r+0x5e>
    3b2a:	1c30      	adds	r0, r6, #0
    3b2c:	bd70      	pop	{r4, r5, r6, pc}
    3b2e:	46c0      	nop			; (mov r8, r8)
    3b30:	000065f0 	.word	0x000065f0
    3b34:	00006610 	.word	0x00006610
    3b38:	00006630 	.word	0x00006630

00003b3c <_write_r>:
    3b3c:	b538      	push	{r3, r4, r5, lr}
    3b3e:	4c08      	ldr	r4, [pc, #32]	; (3b60 <_write_r+0x24>)
    3b40:	1c05      	adds	r5, r0, #0
    3b42:	2000      	movs	r0, #0
    3b44:	6020      	str	r0, [r4, #0]
    3b46:	1c08      	adds	r0, r1, #0
    3b48:	1c11      	adds	r1, r2, #0
    3b4a:	1c1a      	adds	r2, r3, #0
    3b4c:	f7fd fe62 	bl	1814 <_write>
    3b50:	1c43      	adds	r3, r0, #1
    3b52:	d103      	bne.n	3b5c <_write_r+0x20>
    3b54:	6823      	ldr	r3, [r4, #0]
    3b56:	2b00      	cmp	r3, #0
    3b58:	d000      	beq.n	3b5c <_write_r+0x20>
    3b5a:	602b      	str	r3, [r5, #0]
    3b5c:	bd38      	pop	{r3, r4, r5, pc}
    3b5e:	46c0      	nop			; (mov r8, r8)
    3b60:	1000057c 	.word	0x1000057c

00003b64 <__swsetup_r>:
    3b64:	4b34      	ldr	r3, [pc, #208]	; (3c38 <__swsetup_r+0xd4>)
    3b66:	b570      	push	{r4, r5, r6, lr}
    3b68:	681d      	ldr	r5, [r3, #0]
    3b6a:	1c06      	adds	r6, r0, #0
    3b6c:	1c0c      	adds	r4, r1, #0
    3b6e:	2d00      	cmp	r5, #0
    3b70:	d005      	beq.n	3b7e <__swsetup_r+0x1a>
    3b72:	69a9      	ldr	r1, [r5, #24]
    3b74:	2900      	cmp	r1, #0
    3b76:	d102      	bne.n	3b7e <__swsetup_r+0x1a>
    3b78:	1c28      	adds	r0, r5, #0
    3b7a:	f7ff faf5 	bl	3168 <__sinit>
    3b7e:	4b2f      	ldr	r3, [pc, #188]	; (3c3c <__swsetup_r+0xd8>)
    3b80:	429c      	cmp	r4, r3
    3b82:	d101      	bne.n	3b88 <__swsetup_r+0x24>
    3b84:	686c      	ldr	r4, [r5, #4]
    3b86:	e008      	b.n	3b9a <__swsetup_r+0x36>
    3b88:	4b2d      	ldr	r3, [pc, #180]	; (3c40 <__swsetup_r+0xdc>)
    3b8a:	429c      	cmp	r4, r3
    3b8c:	d101      	bne.n	3b92 <__swsetup_r+0x2e>
    3b8e:	68ac      	ldr	r4, [r5, #8]
    3b90:	e003      	b.n	3b9a <__swsetup_r+0x36>
    3b92:	4b2c      	ldr	r3, [pc, #176]	; (3c44 <__swsetup_r+0xe0>)
    3b94:	429c      	cmp	r4, r3
    3b96:	d100      	bne.n	3b9a <__swsetup_r+0x36>
    3b98:	68ec      	ldr	r4, [r5, #12]
    3b9a:	89a2      	ldrh	r2, [r4, #12]
    3b9c:	b293      	uxth	r3, r2
    3b9e:	0719      	lsls	r1, r3, #28
    3ba0:	d421      	bmi.n	3be6 <__swsetup_r+0x82>
    3ba2:	06d9      	lsls	r1, r3, #27
    3ba4:	d405      	bmi.n	3bb2 <__swsetup_r+0x4e>
    3ba6:	2309      	movs	r3, #9
    3ba8:	6033      	str	r3, [r6, #0]
    3baa:	2340      	movs	r3, #64	; 0x40
    3bac:	431a      	orrs	r2, r3
    3bae:	81a2      	strh	r2, [r4, #12]
    3bb0:	e03f      	b.n	3c32 <__swsetup_r+0xce>
    3bb2:	075a      	lsls	r2, r3, #29
    3bb4:	d513      	bpl.n	3bde <__swsetup_r+0x7a>
    3bb6:	6b61      	ldr	r1, [r4, #52]	; 0x34
    3bb8:	2900      	cmp	r1, #0
    3bba:	d008      	beq.n	3bce <__swsetup_r+0x6a>
    3bbc:	1c23      	adds	r3, r4, #0
    3bbe:	3344      	adds	r3, #68	; 0x44
    3bc0:	4299      	cmp	r1, r3
    3bc2:	d002      	beq.n	3bca <__swsetup_r+0x66>
    3bc4:	1c30      	adds	r0, r6, #0
    3bc6:	f7ff fb99 	bl	32fc <_free_r>
    3bca:	2300      	movs	r3, #0
    3bcc:	6363      	str	r3, [r4, #52]	; 0x34
    3bce:	89a3      	ldrh	r3, [r4, #12]
    3bd0:	2224      	movs	r2, #36	; 0x24
    3bd2:	4393      	bics	r3, r2
    3bd4:	81a3      	strh	r3, [r4, #12]
    3bd6:	2300      	movs	r3, #0
    3bd8:	6063      	str	r3, [r4, #4]
    3bda:	6923      	ldr	r3, [r4, #16]
    3bdc:	6023      	str	r3, [r4, #0]
    3bde:	89a3      	ldrh	r3, [r4, #12]
    3be0:	2208      	movs	r2, #8
    3be2:	4313      	orrs	r3, r2
    3be4:	81a3      	strh	r3, [r4, #12]
    3be6:	6921      	ldr	r1, [r4, #16]
    3be8:	2900      	cmp	r1, #0
    3bea:	d10b      	bne.n	3c04 <__swsetup_r+0xa0>
    3bec:	89a3      	ldrh	r3, [r4, #12]
    3bee:	22a0      	movs	r2, #160	; 0xa0
    3bf0:	0092      	lsls	r2, r2, #2
    3bf2:	401a      	ands	r2, r3
    3bf4:	2380      	movs	r3, #128	; 0x80
    3bf6:	009b      	lsls	r3, r3, #2
    3bf8:	429a      	cmp	r2, r3
    3bfa:	d003      	beq.n	3c04 <__swsetup_r+0xa0>
    3bfc:	1c30      	adds	r0, r6, #0
    3bfe:	1c21      	adds	r1, r4, #0
    3c00:	f000 f848 	bl	3c94 <__smakebuf_r>
    3c04:	89a3      	ldrh	r3, [r4, #12]
    3c06:	2201      	movs	r2, #1
    3c08:	401a      	ands	r2, r3
    3c0a:	d005      	beq.n	3c18 <__swsetup_r+0xb4>
    3c0c:	6961      	ldr	r1, [r4, #20]
    3c0e:	2200      	movs	r2, #0
    3c10:	60a2      	str	r2, [r4, #8]
    3c12:	424a      	negs	r2, r1
    3c14:	61a2      	str	r2, [r4, #24]
    3c16:	e003      	b.n	3c20 <__swsetup_r+0xbc>
    3c18:	0799      	lsls	r1, r3, #30
    3c1a:	d400      	bmi.n	3c1e <__swsetup_r+0xba>
    3c1c:	6962      	ldr	r2, [r4, #20]
    3c1e:	60a2      	str	r2, [r4, #8]
    3c20:	6922      	ldr	r2, [r4, #16]
    3c22:	2000      	movs	r0, #0
    3c24:	4282      	cmp	r2, r0
    3c26:	d106      	bne.n	3c36 <__swsetup_r+0xd2>
    3c28:	0619      	lsls	r1, r3, #24
    3c2a:	d504      	bpl.n	3c36 <__swsetup_r+0xd2>
    3c2c:	2240      	movs	r2, #64	; 0x40
    3c2e:	4313      	orrs	r3, r2
    3c30:	81a3      	strh	r3, [r4, #12]
    3c32:	2001      	movs	r0, #1
    3c34:	4240      	negs	r0, r0
    3c36:	bd70      	pop	{r4, r5, r6, pc}
    3c38:	100002ac 	.word	0x100002ac
    3c3c:	000065f0 	.word	0x000065f0
    3c40:	00006610 	.word	0x00006610
    3c44:	00006630 	.word	0x00006630

00003c48 <_close_r>:
    3c48:	b538      	push	{r3, r4, r5, lr}
    3c4a:	4c07      	ldr	r4, [pc, #28]	; (3c68 <_close_r+0x20>)
    3c4c:	2300      	movs	r3, #0
    3c4e:	1c05      	adds	r5, r0, #0
    3c50:	1c08      	adds	r0, r1, #0
    3c52:	6023      	str	r3, [r4, #0]
    3c54:	f7fd fdc8 	bl	17e8 <_close>
    3c58:	1c43      	adds	r3, r0, #1
    3c5a:	d103      	bne.n	3c64 <_close_r+0x1c>
    3c5c:	6823      	ldr	r3, [r4, #0]
    3c5e:	2b00      	cmp	r3, #0
    3c60:	d000      	beq.n	3c64 <_close_r+0x1c>
    3c62:	602b      	str	r3, [r5, #0]
    3c64:	bd38      	pop	{r3, r4, r5, pc}
    3c66:	46c0      	nop			; (mov r8, r8)
    3c68:	1000057c 	.word	0x1000057c

00003c6c <_lseek_r>:
    3c6c:	b538      	push	{r3, r4, r5, lr}
    3c6e:	4c08      	ldr	r4, [pc, #32]	; (3c90 <_lseek_r+0x24>)
    3c70:	1c05      	adds	r5, r0, #0
    3c72:	2000      	movs	r0, #0
    3c74:	6020      	str	r0, [r4, #0]
    3c76:	1c08      	adds	r0, r1, #0
    3c78:	1c11      	adds	r1, r2, #0
    3c7a:	1c1a      	adds	r2, r3, #0
    3c7c:	f7fd fe2e 	bl	18dc <_lseek>
    3c80:	1c43      	adds	r3, r0, #1
    3c82:	d103      	bne.n	3c8c <_lseek_r+0x20>
    3c84:	6823      	ldr	r3, [r4, #0]
    3c86:	2b00      	cmp	r3, #0
    3c88:	d000      	beq.n	3c8c <_lseek_r+0x20>
    3c8a:	602b      	str	r3, [r5, #0]
    3c8c:	bd38      	pop	{r3, r4, r5, pc}
    3c8e:	46c0      	nop			; (mov r8, r8)
    3c90:	1000057c 	.word	0x1000057c

00003c94 <__smakebuf_r>:
    3c94:	b5f0      	push	{r4, r5, r6, r7, lr}
    3c96:	898b      	ldrh	r3, [r1, #12]
    3c98:	b091      	sub	sp, #68	; 0x44
    3c9a:	1c05      	adds	r5, r0, #0
    3c9c:	1c0c      	adds	r4, r1, #0
    3c9e:	079a      	lsls	r2, r3, #30
    3ca0:	d425      	bmi.n	3cee <__smakebuf_r+0x5a>
    3ca2:	230e      	movs	r3, #14
    3ca4:	5ec9      	ldrsh	r1, [r1, r3]
    3ca6:	2900      	cmp	r1, #0
    3ca8:	da06      	bge.n	3cb8 <__smakebuf_r+0x24>
    3caa:	89a7      	ldrh	r7, [r4, #12]
    3cac:	2380      	movs	r3, #128	; 0x80
    3cae:	401f      	ands	r7, r3
    3cb0:	d00f      	beq.n	3cd2 <__smakebuf_r+0x3e>
    3cb2:	2700      	movs	r7, #0
    3cb4:	2640      	movs	r6, #64	; 0x40
    3cb6:	e00e      	b.n	3cd6 <__smakebuf_r+0x42>
    3cb8:	aa01      	add	r2, sp, #4
    3cba:	f000 f85b 	bl	3d74 <_fstat_r>
    3cbe:	2800      	cmp	r0, #0
    3cc0:	dbf3      	blt.n	3caa <__smakebuf_r+0x16>
    3cc2:	9b02      	ldr	r3, [sp, #8]
    3cc4:	27f0      	movs	r7, #240	; 0xf0
    3cc6:	023f      	lsls	r7, r7, #8
    3cc8:	4a18      	ldr	r2, [pc, #96]	; (3d2c <__smakebuf_r+0x98>)
    3cca:	401f      	ands	r7, r3
    3ccc:	18bf      	adds	r7, r7, r2
    3cce:	427b      	negs	r3, r7
    3cd0:	415f      	adcs	r7, r3
    3cd2:	2680      	movs	r6, #128	; 0x80
    3cd4:	00f6      	lsls	r6, r6, #3
    3cd6:	1c28      	adds	r0, r5, #0
    3cd8:	1c31      	adds	r1, r6, #0
    3cda:	f7ff fb57 	bl	338c <_malloc_r>
    3cde:	2800      	cmp	r0, #0
    3ce0:	d10c      	bne.n	3cfc <__smakebuf_r+0x68>
    3ce2:	89a3      	ldrh	r3, [r4, #12]
    3ce4:	059a      	lsls	r2, r3, #22
    3ce6:	d41f      	bmi.n	3d28 <__smakebuf_r+0x94>
    3ce8:	2202      	movs	r2, #2
    3cea:	4313      	orrs	r3, r2
    3cec:	81a3      	strh	r3, [r4, #12]
    3cee:	1c23      	adds	r3, r4, #0
    3cf0:	3347      	adds	r3, #71	; 0x47
    3cf2:	6023      	str	r3, [r4, #0]
    3cf4:	6123      	str	r3, [r4, #16]
    3cf6:	2301      	movs	r3, #1
    3cf8:	6163      	str	r3, [r4, #20]
    3cfa:	e015      	b.n	3d28 <__smakebuf_r+0x94>
    3cfc:	4b0c      	ldr	r3, [pc, #48]	; (3d30 <__smakebuf_r+0x9c>)
    3cfe:	2280      	movs	r2, #128	; 0x80
    3d00:	62ab      	str	r3, [r5, #40]	; 0x28
    3d02:	89a3      	ldrh	r3, [r4, #12]
    3d04:	6020      	str	r0, [r4, #0]
    3d06:	4313      	orrs	r3, r2
    3d08:	81a3      	strh	r3, [r4, #12]
    3d0a:	6120      	str	r0, [r4, #16]
    3d0c:	6166      	str	r6, [r4, #20]
    3d0e:	2f00      	cmp	r7, #0
    3d10:	d00a      	beq.n	3d28 <__smakebuf_r+0x94>
    3d12:	230e      	movs	r3, #14
    3d14:	5ee1      	ldrsh	r1, [r4, r3]
    3d16:	1c28      	adds	r0, r5, #0
    3d18:	f000 f83e 	bl	3d98 <_isatty_r>
    3d1c:	2800      	cmp	r0, #0
    3d1e:	d003      	beq.n	3d28 <__smakebuf_r+0x94>
    3d20:	89a3      	ldrh	r3, [r4, #12]
    3d22:	2201      	movs	r2, #1
    3d24:	4313      	orrs	r3, r2
    3d26:	81a3      	strh	r3, [r4, #12]
    3d28:	b011      	add	sp, #68	; 0x44
    3d2a:	bdf0      	pop	{r4, r5, r6, r7, pc}
    3d2c:	ffffe000 	.word	0xffffe000
    3d30:	000030c1 	.word	0x000030c1

00003d34 <memchr>:
    3d34:	b2c9      	uxtb	r1, r1
    3d36:	1882      	adds	r2, r0, r2
    3d38:	4290      	cmp	r0, r2
    3d3a:	d004      	beq.n	3d46 <memchr+0x12>
    3d3c:	7803      	ldrb	r3, [r0, #0]
    3d3e:	428b      	cmp	r3, r1
    3d40:	d002      	beq.n	3d48 <memchr+0x14>
    3d42:	3001      	adds	r0, #1
    3d44:	e7f8      	b.n	3d38 <memchr+0x4>
    3d46:	2000      	movs	r0, #0
    3d48:	4770      	bx	lr
	...

00003d4c <_read_r>:
    3d4c:	b538      	push	{r3, r4, r5, lr}
    3d4e:	4c08      	ldr	r4, [pc, #32]	; (3d70 <_read_r+0x24>)
    3d50:	1c05      	adds	r5, r0, #0
    3d52:	2000      	movs	r0, #0
    3d54:	6020      	str	r0, [r4, #0]
    3d56:	1c08      	adds	r0, r1, #0
    3d58:	1c11      	adds	r1, r2, #0
    3d5a:	1c1a      	adds	r2, r3, #0
    3d5c:	f7fd fd86 	bl	186c <_read>
    3d60:	1c43      	adds	r3, r0, #1
    3d62:	d103      	bne.n	3d6c <_read_r+0x20>
    3d64:	6823      	ldr	r3, [r4, #0]
    3d66:	2b00      	cmp	r3, #0
    3d68:	d000      	beq.n	3d6c <_read_r+0x20>
    3d6a:	602b      	str	r3, [r5, #0]
    3d6c:	bd38      	pop	{r3, r4, r5, pc}
    3d6e:	46c0      	nop			; (mov r8, r8)
    3d70:	1000057c 	.word	0x1000057c

00003d74 <_fstat_r>:
    3d74:	b538      	push	{r3, r4, r5, lr}
    3d76:	4c07      	ldr	r4, [pc, #28]	; (3d94 <_fstat_r+0x20>)
    3d78:	2300      	movs	r3, #0
    3d7a:	1c05      	adds	r5, r0, #0
    3d7c:	1c08      	adds	r0, r1, #0
    3d7e:	1c11      	adds	r1, r2, #0
    3d80:	6023      	str	r3, [r4, #0]
    3d82:	f7fd fdbf 	bl	1904 <_fstat>
    3d86:	1c43      	adds	r3, r0, #1
    3d88:	d103      	bne.n	3d92 <_fstat_r+0x1e>
    3d8a:	6823      	ldr	r3, [r4, #0]
    3d8c:	2b00      	cmp	r3, #0
    3d8e:	d000      	beq.n	3d92 <_fstat_r+0x1e>
    3d90:	602b      	str	r3, [r5, #0]
    3d92:	bd38      	pop	{r3, r4, r5, pc}
    3d94:	1000057c 	.word	0x1000057c

00003d98 <_isatty_r>:
    3d98:	b538      	push	{r3, r4, r5, lr}
    3d9a:	4c07      	ldr	r4, [pc, #28]	; (3db8 <_isatty_r+0x20>)
    3d9c:	2300      	movs	r3, #0
    3d9e:	1c05      	adds	r5, r0, #0
    3da0:	1c08      	adds	r0, r1, #0
    3da2:	6023      	str	r3, [r4, #0]
    3da4:	f7fc fafe 	bl	3a4 <__wrap__isatty>
    3da8:	1c43      	adds	r3, r0, #1
    3daa:	d103      	bne.n	3db4 <_isatty_r+0x1c>
    3dac:	6823      	ldr	r3, [r4, #0]
    3dae:	2b00      	cmp	r3, #0
    3db0:	d000      	beq.n	3db4 <_isatty_r+0x1c>
    3db2:	602b      	str	r3, [r5, #0]
    3db4:	bd38      	pop	{r3, r4, r5, pc}
    3db6:	46c0      	nop			; (mov r8, r8)
    3db8:	1000057c 	.word	0x1000057c
    3dbc:	00000000 	.word	0x00000000

00003dc0 <cos>:
    3dc0:	b510      	push	{r4, lr}
    3dc2:	1c02      	adds	r2, r0, #0
    3dc4:	4826      	ldr	r0, [pc, #152]	; (3e60 <cos+0xa0>)
    3dc6:	1c0b      	adds	r3, r1, #0
    3dc8:	0049      	lsls	r1, r1, #1
    3dca:	b086      	sub	sp, #24
    3dcc:	0849      	lsrs	r1, r1, #1
    3dce:	4281      	cmp	r1, r0
    3dd0:	dd1e      	ble.n	3e10 <cos+0x50>
    3dd2:	4824      	ldr	r0, [pc, #144]	; (3e64 <cos+0xa4>)
    3dd4:	4281      	cmp	r1, r0
    3dd6:	dd05      	ble.n	3de4 <cos+0x24>
    3dd8:	1c10      	adds	r0, r2, #0
    3dda:	1c19      	adds	r1, r3, #0
    3ddc:	f001 ff0c 	bl	5bf8 <__aeabi_dsub>
    3de0:	b006      	add	sp, #24
    3de2:	bd10      	pop	{r4, pc}
    3de4:	1c10      	adds	r0, r2, #0
    3de6:	1c19      	adds	r1, r3, #0
    3de8:	aa02      	add	r2, sp, #8
    3dea:	f000 f895 	bl	3f18 <__ieee754_rem_pio2>
    3dee:	2303      	movs	r3, #3
    3df0:	4018      	ands	r0, r3
    3df2:	2801      	cmp	r0, #1
    3df4:	d01d      	beq.n	3e32 <cos+0x72>
    3df6:	2802      	cmp	r0, #2
    3df8:	d011      	beq.n	3e1e <cos+0x5e>
    3dfa:	2800      	cmp	r0, #0
    3dfc:	d024      	beq.n	3e48 <cos+0x88>
    3dfe:	2401      	movs	r4, #1
    3e00:	9802      	ldr	r0, [sp, #8]
    3e02:	9903      	ldr	r1, [sp, #12]
    3e04:	9a04      	ldr	r2, [sp, #16]
    3e06:	9b05      	ldr	r3, [sp, #20]
    3e08:	9400      	str	r4, [sp, #0]
    3e0a:	f000 fffd 	bl	4e08 <__kernel_sin>
    3e0e:	e7e7      	b.n	3de0 <cos+0x20>
    3e10:	1c10      	adds	r0, r2, #0
    3e12:	1c19      	adds	r1, r3, #0
    3e14:	4b11      	ldr	r3, [pc, #68]	; (3e5c <cos+0x9c>)
    3e16:	4a10      	ldr	r2, [pc, #64]	; (3e58 <cos+0x98>)
    3e18:	f000 faba 	bl	4390 <__kernel_cos>
    3e1c:	e7e0      	b.n	3de0 <cos+0x20>
    3e1e:	9a04      	ldr	r2, [sp, #16]
    3e20:	9b05      	ldr	r3, [sp, #20]
    3e22:	9802      	ldr	r0, [sp, #8]
    3e24:	9903      	ldr	r1, [sp, #12]
    3e26:	f000 fab3 	bl	4390 <__kernel_cos>
    3e2a:	2380      	movs	r3, #128	; 0x80
    3e2c:	061b      	lsls	r3, r3, #24
    3e2e:	18c9      	adds	r1, r1, r3
    3e30:	e7d6      	b.n	3de0 <cos+0x20>
    3e32:	9a04      	ldr	r2, [sp, #16]
    3e34:	9b05      	ldr	r3, [sp, #20]
    3e36:	9000      	str	r0, [sp, #0]
    3e38:	9802      	ldr	r0, [sp, #8]
    3e3a:	9903      	ldr	r1, [sp, #12]
    3e3c:	f000 ffe4 	bl	4e08 <__kernel_sin>
    3e40:	2380      	movs	r3, #128	; 0x80
    3e42:	061b      	lsls	r3, r3, #24
    3e44:	18c9      	adds	r1, r1, r3
    3e46:	e7cb      	b.n	3de0 <cos+0x20>
    3e48:	9802      	ldr	r0, [sp, #8]
    3e4a:	9903      	ldr	r1, [sp, #12]
    3e4c:	9a04      	ldr	r2, [sp, #16]
    3e4e:	9b05      	ldr	r3, [sp, #20]
    3e50:	f000 fa9e 	bl	4390 <__kernel_cos>
    3e54:	e7c4      	b.n	3de0 <cos+0x20>
    3e56:	46c0      	nop			; (mov r8, r8)
	...
    3e60:	3fe921fb 	.word	0x3fe921fb
    3e64:	7fefffff 	.word	0x7fefffff

00003e68 <sin>:
    3e68:	b510      	push	{r4, lr}
    3e6a:	1c02      	adds	r2, r0, #0
    3e6c:	4828      	ldr	r0, [pc, #160]	; (3f10 <sin+0xa8>)
    3e6e:	1c0b      	adds	r3, r1, #0
    3e70:	0049      	lsls	r1, r1, #1
    3e72:	b086      	sub	sp, #24
    3e74:	0849      	lsrs	r1, r1, #1
    3e76:	4281      	cmp	r1, r0
    3e78:	dd1f      	ble.n	3eba <sin+0x52>
    3e7a:	4826      	ldr	r0, [pc, #152]	; (3f14 <sin+0xac>)
    3e7c:	4281      	cmp	r1, r0
    3e7e:	dd05      	ble.n	3e8c <sin+0x24>
    3e80:	1c10      	adds	r0, r2, #0
    3e82:	1c19      	adds	r1, r3, #0
    3e84:	f001 feb8 	bl	5bf8 <__aeabi_dsub>
    3e88:	b006      	add	sp, #24
    3e8a:	bd10      	pop	{r4, pc}
    3e8c:	1c10      	adds	r0, r2, #0
    3e8e:	1c19      	adds	r1, r3, #0
    3e90:	aa02      	add	r2, sp, #8
    3e92:	f000 f841 	bl	3f18 <__ieee754_rem_pio2>
    3e96:	2303      	movs	r3, #3
    3e98:	4018      	ands	r0, r3
    3e9a:	2801      	cmp	r0, #1
    3e9c:	d022      	beq.n	3ee4 <sin+0x7c>
    3e9e:	2802      	cmp	r0, #2
    3ea0:	d014      	beq.n	3ecc <sin+0x64>
    3ea2:	2800      	cmp	r0, #0
    3ea4:	d025      	beq.n	3ef2 <sin+0x8a>
    3ea6:	9a04      	ldr	r2, [sp, #16]
    3ea8:	9b05      	ldr	r3, [sp, #20]
    3eaa:	9802      	ldr	r0, [sp, #8]
    3eac:	9903      	ldr	r1, [sp, #12]
    3eae:	f000 fa6f 	bl	4390 <__kernel_cos>
    3eb2:	2380      	movs	r3, #128	; 0x80
    3eb4:	061b      	lsls	r3, r3, #24
    3eb6:	18c9      	adds	r1, r1, r3
    3eb8:	e7e6      	b.n	3e88 <sin+0x20>
    3eba:	2100      	movs	r1, #0
    3ebc:	9100      	str	r1, [sp, #0]
    3ebe:	1c10      	adds	r0, r2, #0
    3ec0:	1c19      	adds	r1, r3, #0
    3ec2:	4b12      	ldr	r3, [pc, #72]	; (3f0c <sin+0xa4>)
    3ec4:	4a10      	ldr	r2, [pc, #64]	; (3f08 <sin+0xa0>)
    3ec6:	f000 ff9f 	bl	4e08 <__kernel_sin>
    3eca:	e7dd      	b.n	3e88 <sin+0x20>
    3ecc:	2401      	movs	r4, #1
    3ece:	9a04      	ldr	r2, [sp, #16]
    3ed0:	9b05      	ldr	r3, [sp, #20]
    3ed2:	9802      	ldr	r0, [sp, #8]
    3ed4:	9903      	ldr	r1, [sp, #12]
    3ed6:	9400      	str	r4, [sp, #0]
    3ed8:	f000 ff96 	bl	4e08 <__kernel_sin>
    3edc:	2380      	movs	r3, #128	; 0x80
    3ede:	061b      	lsls	r3, r3, #24
    3ee0:	18c9      	adds	r1, r1, r3
    3ee2:	e7d1      	b.n	3e88 <sin+0x20>
    3ee4:	9a04      	ldr	r2, [sp, #16]
    3ee6:	9b05      	ldr	r3, [sp, #20]
    3ee8:	9802      	ldr	r0, [sp, #8]
    3eea:	9903      	ldr	r1, [sp, #12]
    3eec:	f000 fa50 	bl	4390 <__kernel_cos>
    3ef0:	e7ca      	b.n	3e88 <sin+0x20>
    3ef2:	2401      	movs	r4, #1
    3ef4:	9802      	ldr	r0, [sp, #8]
    3ef6:	9903      	ldr	r1, [sp, #12]
    3ef8:	9a04      	ldr	r2, [sp, #16]
    3efa:	9b05      	ldr	r3, [sp, #20]
    3efc:	9400      	str	r4, [sp, #0]
    3efe:	f000 ff83 	bl	4e08 <__kernel_sin>
    3f02:	e7c1      	b.n	3e88 <sin+0x20>
    3f04:	46c0      	nop			; (mov r8, r8)
    3f06:	46c0      	nop			; (mov r8, r8)
	...
    3f10:	3fe921fb 	.word	0x3fe921fb
    3f14:	7fefffff 	.word	0x7fefffff

00003f18 <__ieee754_rem_pio2>:
    3f18:	b5f0      	push	{r4, r5, r6, r7, lr}
    3f1a:	4656      	mov	r6, r10
    3f1c:	464d      	mov	r5, r9
    3f1e:	4644      	mov	r4, r8
    3f20:	465f      	mov	r7, r11
    3f22:	b4f0      	push	{r4, r5, r6, r7}
    3f24:	004b      	lsls	r3, r1, #1
    3f26:	085e      	lsrs	r6, r3, #1
    3f28:	4ba3      	ldr	r3, [pc, #652]	; (41b8 <__ieee754_rem_pio2+0x2a0>)
    3f2a:	b091      	sub	sp, #68	; 0x44
    3f2c:	1c04      	adds	r4, r0, #0
    3f2e:	1c0d      	adds	r5, r1, #0
    3f30:	4691      	mov	r9, r2
    3f32:	468a      	mov	r10, r1
    3f34:	429e      	cmp	r6, r3
    3f36:	dc00      	bgt.n	3f3a <__ieee754_rem_pio2+0x22>
    3f38:	e086      	b.n	4048 <__ieee754_rem_pio2+0x130>
    3f3a:	4ba0      	ldr	r3, [pc, #640]	; (41bc <__ieee754_rem_pio2+0x2a4>)
    3f3c:	429e      	cmp	r6, r3
    3f3e:	dc23      	bgt.n	3f88 <__ieee754_rem_pio2+0x70>
    3f40:	2900      	cmp	r1, #0
    3f42:	dc00      	bgt.n	3f46 <__ieee754_rem_pio2+0x2e>
    3f44:	e1ce      	b.n	42e4 <__ieee754_rem_pio2+0x3cc>
    3f46:	1c29      	adds	r1, r5, #0
    3f48:	4b8c      	ldr	r3, [pc, #560]	; (417c <__ieee754_rem_pio2+0x264>)
    3f4a:	4a8b      	ldr	r2, [pc, #556]	; (4178 <__ieee754_rem_pio2+0x260>)
    3f4c:	f001 fe54 	bl	5bf8 <__aeabi_dsub>
    3f50:	4b9b      	ldr	r3, [pc, #620]	; (41c0 <__ieee754_rem_pio2+0x2a8>)
    3f52:	1c04      	adds	r4, r0, #0
    3f54:	1c0d      	adds	r5, r1, #0
    3f56:	429e      	cmp	r6, r3
    3f58:	d100      	bne.n	3f5c <__ieee754_rem_pio2+0x44>
    3f5a:	e08f      	b.n	407c <__ieee754_rem_pio2+0x164>
    3f5c:	4a88      	ldr	r2, [pc, #544]	; (4180 <__ieee754_rem_pio2+0x268>)
    3f5e:	4b89      	ldr	r3, [pc, #548]	; (4184 <__ieee754_rem_pio2+0x26c>)
    3f60:	f001 fe4a 	bl	5bf8 <__aeabi_dsub>
    3f64:	1c02      	adds	r2, r0, #0
    3f66:	1c0b      	adds	r3, r1, #0
    3f68:	4649      	mov	r1, r9
    3f6a:	600a      	str	r2, [r1, #0]
    3f6c:	604b      	str	r3, [r1, #4]
    3f6e:	1c20      	adds	r0, r4, #0
    3f70:	1c29      	adds	r1, r5, #0
    3f72:	f001 fe41 	bl	5bf8 <__aeabi_dsub>
    3f76:	4a82      	ldr	r2, [pc, #520]	; (4180 <__ieee754_rem_pio2+0x268>)
    3f78:	4b82      	ldr	r3, [pc, #520]	; (4184 <__ieee754_rem_pio2+0x26c>)
    3f7a:	f001 fe3d 	bl	5bf8 <__aeabi_dsub>
    3f7e:	464a      	mov	r2, r9
    3f80:	6090      	str	r0, [r2, #8]
    3f82:	60d1      	str	r1, [r2, #12]
    3f84:	2001      	movs	r0, #1
    3f86:	e067      	b.n	4058 <__ieee754_rem_pio2+0x140>
    3f88:	4b8e      	ldr	r3, [pc, #568]	; (41c4 <__ieee754_rem_pio2+0x2ac>)
    3f8a:	429e      	cmp	r6, r3
    3f8c:	dc00      	bgt.n	3f90 <__ieee754_rem_pio2+0x78>
    3f8e:	e091      	b.n	40b4 <__ieee754_rem_pio2+0x19c>
    3f90:	4b8d      	ldr	r3, [pc, #564]	; (41c8 <__ieee754_rem_pio2+0x2b0>)
    3f92:	429e      	cmp	r6, r3
    3f94:	dc67      	bgt.n	4066 <__ieee754_rem_pio2+0x14e>
    3f96:	498d      	ldr	r1, [pc, #564]	; (41cc <__ieee754_rem_pio2+0x2b4>)
    3f98:	1533      	asrs	r3, r6, #20
    3f9a:	18c9      	adds	r1, r1, r3
    3f9c:	050b      	lsls	r3, r1, #20
    3f9e:	1af5      	subs	r5, r6, r3
    3fa0:	468b      	mov	r11, r1
    3fa2:	1c29      	adds	r1, r5, #0
    3fa4:	1c04      	adds	r4, r0, #0
    3fa6:	f7fe ff1b 	bl	2de0 <__aeabi_d2iz>
    3faa:	f7fe ff4d 	bl	2e48 <__aeabi_i2d>
    3fae:	1c02      	adds	r2, r0, #0
    3fb0:	1c0b      	adds	r3, r1, #0
    3fb2:	1c20      	adds	r0, r4, #0
    3fb4:	1c29      	adds	r1, r5, #0
    3fb6:	920a      	str	r2, [sp, #40]	; 0x28
    3fb8:	930b      	str	r3, [sp, #44]	; 0x2c
    3fba:	f001 fe1d 	bl	5bf8 <__aeabi_dsub>
    3fbe:	4a72      	ldr	r2, [pc, #456]	; (4188 <__ieee754_rem_pio2+0x270>)
    3fc0:	4b72      	ldr	r3, [pc, #456]	; (418c <__ieee754_rem_pio2+0x274>)
    3fc2:	f7fe fc7d 	bl	28c0 <__aeabi_dmul>
    3fc6:	1c0f      	adds	r7, r1, #0
    3fc8:	1c06      	adds	r6, r0, #0
    3fca:	f7fe ff09 	bl	2de0 <__aeabi_d2iz>
    3fce:	f7fe ff3b 	bl	2e48 <__aeabi_i2d>
    3fd2:	1c04      	adds	r4, r0, #0
    3fd4:	1c0d      	adds	r5, r1, #0
    3fd6:	1c22      	adds	r2, r4, #0
    3fd8:	1c2b      	adds	r3, r5, #0
    3fda:	1c30      	adds	r0, r6, #0
    3fdc:	1c39      	adds	r1, r7, #0
    3fde:	940c      	str	r4, [sp, #48]	; 0x30
    3fe0:	950d      	str	r5, [sp, #52]	; 0x34
    3fe2:	f001 fe09 	bl	5bf8 <__aeabi_dsub>
    3fe6:	4a68      	ldr	r2, [pc, #416]	; (4188 <__ieee754_rem_pio2+0x270>)
    3fe8:	4b68      	ldr	r3, [pc, #416]	; (418c <__ieee754_rem_pio2+0x274>)
    3fea:	f7fe fc69 	bl	28c0 <__aeabi_dmul>
    3fee:	4a68      	ldr	r2, [pc, #416]	; (4190 <__ieee754_rem_pio2+0x278>)
    3ff0:	4b68      	ldr	r3, [pc, #416]	; (4194 <__ieee754_rem_pio2+0x27c>)
    3ff2:	900e      	str	r0, [sp, #56]	; 0x38
    3ff4:	910f      	str	r1, [sp, #60]	; 0x3c
    3ff6:	f001 f96f 	bl	52d8 <__aeabi_dcmpeq>
    3ffa:	2800      	cmp	r0, #0
    3ffc:	d100      	bne.n	4000 <__ieee754_rem_pio2+0xe8>
    3ffe:	e192      	b.n	4326 <__ieee754_rem_pio2+0x40e>
    4000:	4a63      	ldr	r2, [pc, #396]	; (4190 <__ieee754_rem_pio2+0x278>)
    4002:	4b64      	ldr	r3, [pc, #400]	; (4194 <__ieee754_rem_pio2+0x27c>)
    4004:	1c20      	adds	r0, r4, #0
    4006:	1c29      	adds	r1, r5, #0
    4008:	f001 f966 	bl	52d8 <__aeabi_dcmpeq>
    400c:	1e43      	subs	r3, r0, #1
    400e:	4198      	sbcs	r0, r3
    4010:	2302      	movs	r3, #2
    4012:	1a1b      	subs	r3, r3, r0
    4014:	2202      	movs	r2, #2
    4016:	9200      	str	r2, [sp, #0]
    4018:	4a6d      	ldr	r2, [pc, #436]	; (41d0 <__ieee754_rem_pio2+0x2b8>)
    401a:	a80a      	add	r0, sp, #40	; 0x28
    401c:	9201      	str	r2, [sp, #4]
    401e:	4649      	mov	r1, r9
    4020:	465a      	mov	r2, r11
    4022:	f000 fad9 	bl	45d8 <__kernel_rem_pio2>
    4026:	4652      	mov	r2, r10
    4028:	2a00      	cmp	r2, #0
    402a:	da15      	bge.n	4058 <__ieee754_rem_pio2+0x140>
    402c:	464c      	mov	r4, r9
    402e:	6864      	ldr	r4, [r4, #4]
    4030:	2180      	movs	r1, #128	; 0x80
    4032:	0609      	lsls	r1, r1, #24
    4034:	1863      	adds	r3, r4, r1
    4036:	4649      	mov	r1, r9
    4038:	68ca      	ldr	r2, [r1, #12]
    403a:	2480      	movs	r4, #128	; 0x80
    403c:	0624      	lsls	r4, r4, #24
    403e:	604b      	str	r3, [r1, #4]
    4040:	1913      	adds	r3, r2, r4
    4042:	60cb      	str	r3, [r1, #12]
    4044:	4240      	negs	r0, r0
    4046:	e007      	b.n	4058 <__ieee754_rem_pio2+0x140>
    4048:	1c11      	adds	r1, r2, #0
    404a:	6014      	str	r4, [r2, #0]
    404c:	6055      	str	r5, [r2, #4]
    404e:	4a50      	ldr	r2, [pc, #320]	; (4190 <__ieee754_rem_pio2+0x278>)
    4050:	4b50      	ldr	r3, [pc, #320]	; (4194 <__ieee754_rem_pio2+0x27c>)
    4052:	608a      	str	r2, [r1, #8]
    4054:	60cb      	str	r3, [r1, #12]
    4056:	2000      	movs	r0, #0
    4058:	b011      	add	sp, #68	; 0x44
    405a:	bc3c      	pop	{r2, r3, r4, r5}
    405c:	4690      	mov	r8, r2
    405e:	4699      	mov	r9, r3
    4060:	46a2      	mov	r10, r4
    4062:	46ab      	mov	r11, r5
    4064:	bdf0      	pop	{r4, r5, r6, r7, pc}
    4066:	1c22      	adds	r2, r4, #0
    4068:	1c2b      	adds	r3, r5, #0
    406a:	f001 fdc5 	bl	5bf8 <__aeabi_dsub>
    406e:	464a      	mov	r2, r9
    4070:	6090      	str	r0, [r2, #8]
    4072:	60d1      	str	r1, [r2, #12]
    4074:	6010      	str	r0, [r2, #0]
    4076:	6051      	str	r1, [r2, #4]
    4078:	2000      	movs	r0, #0
    407a:	e7ed      	b.n	4058 <__ieee754_rem_pio2+0x140>
    407c:	4a46      	ldr	r2, [pc, #280]	; (4198 <__ieee754_rem_pio2+0x280>)
    407e:	4b47      	ldr	r3, [pc, #284]	; (419c <__ieee754_rem_pio2+0x284>)
    4080:	f001 fdba 	bl	5bf8 <__aeabi_dsub>
    4084:	4a46      	ldr	r2, [pc, #280]	; (41a0 <__ieee754_rem_pio2+0x288>)
    4086:	4b47      	ldr	r3, [pc, #284]	; (41a4 <__ieee754_rem_pio2+0x28c>)
    4088:	1c04      	adds	r4, r0, #0
    408a:	1c0d      	adds	r5, r1, #0
    408c:	f001 fdb4 	bl	5bf8 <__aeabi_dsub>
    4090:	1c02      	adds	r2, r0, #0
    4092:	1c0b      	adds	r3, r1, #0
    4094:	4649      	mov	r1, r9
    4096:	600a      	str	r2, [r1, #0]
    4098:	604b      	str	r3, [r1, #4]
    409a:	1c20      	adds	r0, r4, #0
    409c:	1c29      	adds	r1, r5, #0
    409e:	f001 fdab 	bl	5bf8 <__aeabi_dsub>
    40a2:	4a3f      	ldr	r2, [pc, #252]	; (41a0 <__ieee754_rem_pio2+0x288>)
    40a4:	4b3f      	ldr	r3, [pc, #252]	; (41a4 <__ieee754_rem_pio2+0x28c>)
    40a6:	f001 fda7 	bl	5bf8 <__aeabi_dsub>
    40aa:	464a      	mov	r2, r9
    40ac:	6090      	str	r0, [r2, #8]
    40ae:	60d1      	str	r1, [r2, #12]
    40b0:	2001      	movs	r0, #1
    40b2:	e7d1      	b.n	4058 <__ieee754_rem_pio2+0x140>
    40b4:	f000 ff54 	bl	4f60 <fabs>
    40b8:	4a3b      	ldr	r2, [pc, #236]	; (41a8 <__ieee754_rem_pio2+0x290>)
    40ba:	4b3c      	ldr	r3, [pc, #240]	; (41ac <__ieee754_rem_pio2+0x294>)
    40bc:	1c04      	adds	r4, r0, #0
    40be:	1c0d      	adds	r5, r1, #0
    40c0:	f7fe fbfe 	bl	28c0 <__aeabi_dmul>
    40c4:	4a3a      	ldr	r2, [pc, #232]	; (41b0 <__ieee754_rem_pio2+0x298>)
    40c6:	4b3b      	ldr	r3, [pc, #236]	; (41b4 <__ieee754_rem_pio2+0x29c>)
    40c8:	f001 f934 	bl	5334 <__aeabi_dadd>
    40cc:	f7fe fe88 	bl	2de0 <__aeabi_d2iz>
    40d0:	4683      	mov	r11, r0
    40d2:	f7fe feb9 	bl	2e48 <__aeabi_i2d>
    40d6:	4b29      	ldr	r3, [pc, #164]	; (417c <__ieee754_rem_pio2+0x264>)
    40d8:	4a27      	ldr	r2, [pc, #156]	; (4178 <__ieee754_rem_pio2+0x260>)
    40da:	9004      	str	r0, [sp, #16]
    40dc:	9105      	str	r1, [sp, #20]
    40de:	f7fe fbef 	bl	28c0 <__aeabi_dmul>
    40e2:	1c02      	adds	r2, r0, #0
    40e4:	1c0b      	adds	r3, r1, #0
    40e6:	1c20      	adds	r0, r4, #0
    40e8:	1c29      	adds	r1, r5, #0
    40ea:	f001 fd85 	bl	5bf8 <__aeabi_dsub>
    40ee:	4a24      	ldr	r2, [pc, #144]	; (4180 <__ieee754_rem_pio2+0x268>)
    40f0:	4b24      	ldr	r3, [pc, #144]	; (4184 <__ieee754_rem_pio2+0x26c>)
    40f2:	9002      	str	r0, [sp, #8]
    40f4:	9103      	str	r1, [sp, #12]
    40f6:	9804      	ldr	r0, [sp, #16]
    40f8:	9905      	ldr	r1, [sp, #20]
    40fa:	f7fe fbe1 	bl	28c0 <__aeabi_dmul>
    40fe:	465b      	mov	r3, r11
    4100:	9006      	str	r0, [sp, #24]
    4102:	9107      	str	r1, [sp, #28]
    4104:	9802      	ldr	r0, [sp, #8]
    4106:	9903      	ldr	r1, [sp, #12]
    4108:	2b1f      	cmp	r3, #31
    410a:	dc65      	bgt.n	41d8 <__ieee754_rem_pio2+0x2c0>
    410c:	465a      	mov	r2, r11
    410e:	3a01      	subs	r2, #1
    4110:	4b30      	ldr	r3, [pc, #192]	; (41d4 <__ieee754_rem_pio2+0x2bc>)
    4112:	0092      	lsls	r2, r2, #2
    4114:	58d3      	ldr	r3, [r2, r3]
    4116:	42b3      	cmp	r3, r6
    4118:	d05e      	beq.n	41d8 <__ieee754_rem_pio2+0x2c0>
    411a:	9a06      	ldr	r2, [sp, #24]
    411c:	9b07      	ldr	r3, [sp, #28]
    411e:	f001 fd6b 	bl	5bf8 <__aeabi_dsub>
    4122:	1c0d      	adds	r5, r1, #0
    4124:	1c0f      	adds	r7, r1, #0
    4126:	1c04      	adds	r4, r0, #0
    4128:	4649      	mov	r1, r9
    412a:	600c      	str	r4, [r1, #0]
    412c:	604d      	str	r5, [r1, #4]
    412e:	4680      	mov	r8, r0
    4130:	4642      	mov	r2, r8
    4132:	1c3b      	adds	r3, r7, #0
    4134:	9802      	ldr	r0, [sp, #8]
    4136:	9903      	ldr	r1, [sp, #12]
    4138:	f001 fd5e 	bl	5bf8 <__aeabi_dsub>
    413c:	9a06      	ldr	r2, [sp, #24]
    413e:	9b07      	ldr	r3, [sp, #28]
    4140:	f001 fd5a 	bl	5bf8 <__aeabi_dsub>
    4144:	464a      	mov	r2, r9
    4146:	1c04      	adds	r4, r0, #0
    4148:	1c0d      	adds	r5, r1, #0
    414a:	6094      	str	r4, [r2, #8]
    414c:	60d5      	str	r5, [r2, #12]
    414e:	4654      	mov	r4, r10
    4150:	1c03      	adds	r3, r0, #0
    4152:	4658      	mov	r0, r11
    4154:	2c00      	cmp	r4, #0
    4156:	db00      	blt.n	415a <__ieee754_rem_pio2+0x242>
    4158:	e77e      	b.n	4058 <__ieee754_rem_pio2+0x140>
    415a:	4644      	mov	r4, r8
    415c:	6014      	str	r4, [r2, #0]
    415e:	2280      	movs	r2, #128	; 0x80
    4160:	0612      	lsls	r2, r2, #24
    4162:	464c      	mov	r4, r9
    4164:	18bf      	adds	r7, r7, r2
    4166:	1889      	adds	r1, r1, r2
    4168:	6067      	str	r7, [r4, #4]
    416a:	60a3      	str	r3, [r4, #8]
    416c:	60e1      	str	r1, [r4, #12]
    416e:	4240      	negs	r0, r0
    4170:	e772      	b.n	4058 <__ieee754_rem_pio2+0x140>
    4172:	46c0      	nop			; (mov r8, r8)
    4174:	46c0      	nop			; (mov r8, r8)
    4176:	46c0      	nop			; (mov r8, r8)
    4178:	54400000 	.word	0x54400000
    417c:	3ff921fb 	.word	0x3ff921fb
    4180:	1a626331 	.word	0x1a626331
    4184:	3dd0b461 	.word	0x3dd0b461
    4188:	00000000 	.word	0x00000000
    418c:	41700000 	.word	0x41700000
	...
    4198:	1a600000 	.word	0x1a600000
    419c:	3dd0b461 	.word	0x3dd0b461
    41a0:	2e037073 	.word	0x2e037073
    41a4:	3ba3198a 	.word	0x3ba3198a
    41a8:	6dc9c883 	.word	0x6dc9c883
    41ac:	3fe45f30 	.word	0x3fe45f30
    41b0:	00000000 	.word	0x00000000
    41b4:	3fe00000 	.word	0x3fe00000
    41b8:	3fe921fb 	.word	0x3fe921fb
    41bc:	4002d97b 	.word	0x4002d97b
    41c0:	3ff921fb 	.word	0x3ff921fb
    41c4:	413921fb 	.word	0x413921fb
    41c8:	7fefffff 	.word	0x7fefffff
    41cc:	fffffbea 	.word	0xfffffbea
    41d0:	0000670c 	.word	0x0000670c
    41d4:	0000668c 	.word	0x0000668c
    41d8:	9a06      	ldr	r2, [sp, #24]
    41da:	9b07      	ldr	r3, [sp, #28]
    41dc:	f001 fd0c 	bl	5bf8 <__aeabi_dsub>
    41e0:	004b      	lsls	r3, r1, #1
    41e2:	1c04      	adds	r4, r0, #0
    41e4:	1c0d      	adds	r5, r1, #0
    41e6:	464a      	mov	r2, r9
    41e8:	1536      	asrs	r6, r6, #20
    41ea:	0d5b      	lsrs	r3, r3, #21
    41ec:	4680      	mov	r8, r0
    41ee:	1c0f      	adds	r7, r1, #0
    41f0:	6014      	str	r4, [r2, #0]
    41f2:	6055      	str	r5, [r2, #4]
    41f4:	1af3      	subs	r3, r6, r3
    41f6:	2b10      	cmp	r3, #16
    41f8:	dd9a      	ble.n	4130 <__ieee754_rem_pio2+0x218>
    41fa:	4b58      	ldr	r3, [pc, #352]	; (435c <__ieee754_rem_pio2+0x444>)
    41fc:	4a56      	ldr	r2, [pc, #344]	; (4358 <__ieee754_rem_pio2+0x440>)
    41fe:	9804      	ldr	r0, [sp, #16]
    4200:	9905      	ldr	r1, [sp, #20]
    4202:	f7fe fb5d 	bl	28c0 <__aeabi_dmul>
    4206:	1c04      	adds	r4, r0, #0
    4208:	1c0d      	adds	r5, r1, #0
    420a:	1c22      	adds	r2, r4, #0
    420c:	1c2b      	adds	r3, r5, #0
    420e:	9802      	ldr	r0, [sp, #8]
    4210:	9903      	ldr	r1, [sp, #12]
    4212:	f001 fcf1 	bl	5bf8 <__aeabi_dsub>
    4216:	9008      	str	r0, [sp, #32]
    4218:	9109      	str	r1, [sp, #36]	; 0x24
    421a:	9a08      	ldr	r2, [sp, #32]
    421c:	9b09      	ldr	r3, [sp, #36]	; 0x24
    421e:	9802      	ldr	r0, [sp, #8]
    4220:	9903      	ldr	r1, [sp, #12]
    4222:	f001 fce9 	bl	5bf8 <__aeabi_dsub>
    4226:	1c22      	adds	r2, r4, #0
    4228:	1c2b      	adds	r3, r5, #0
    422a:	f001 fce5 	bl	5bf8 <__aeabi_dsub>
    422e:	4a4c      	ldr	r2, [pc, #304]	; (4360 <__ieee754_rem_pio2+0x448>)
    4230:	4b4c      	ldr	r3, [pc, #304]	; (4364 <__ieee754_rem_pio2+0x44c>)
    4232:	1c04      	adds	r4, r0, #0
    4234:	1c0d      	adds	r5, r1, #0
    4236:	9804      	ldr	r0, [sp, #16]
    4238:	9905      	ldr	r1, [sp, #20]
    423a:	f7fe fb41 	bl	28c0 <__aeabi_dmul>
    423e:	1c22      	adds	r2, r4, #0
    4240:	1c2b      	adds	r3, r5, #0
    4242:	f001 fcd9 	bl	5bf8 <__aeabi_dsub>
    4246:	9006      	str	r0, [sp, #24]
    4248:	9107      	str	r1, [sp, #28]
    424a:	9a06      	ldr	r2, [sp, #24]
    424c:	9b07      	ldr	r3, [sp, #28]
    424e:	9808      	ldr	r0, [sp, #32]
    4250:	9909      	ldr	r1, [sp, #36]	; 0x24
    4252:	f001 fcd1 	bl	5bf8 <__aeabi_dsub>
    4256:	464b      	mov	r3, r9
    4258:	1c0d      	adds	r5, r1, #0
    425a:	1c04      	adds	r4, r0, #0
    425c:	601c      	str	r4, [r3, #0]
    425e:	605d      	str	r5, [r3, #4]
    4260:	004b      	lsls	r3, r1, #1
    4262:	0d5b      	lsrs	r3, r3, #21
    4264:	1c0f      	adds	r7, r1, #0
    4266:	4680      	mov	r8, r0
    4268:	9908      	ldr	r1, [sp, #32]
    426a:	9a09      	ldr	r2, [sp, #36]	; 0x24
    426c:	1af3      	subs	r3, r6, r3
    426e:	9102      	str	r1, [sp, #8]
    4270:	9203      	str	r2, [sp, #12]
    4272:	2b31      	cmp	r3, #49	; 0x31
    4274:	dc00      	bgt.n	4278 <__ieee754_rem_pio2+0x360>
    4276:	e75b      	b.n	4130 <__ieee754_rem_pio2+0x218>
    4278:	4a3b      	ldr	r2, [pc, #236]	; (4368 <__ieee754_rem_pio2+0x450>)
    427a:	4b3c      	ldr	r3, [pc, #240]	; (436c <__ieee754_rem_pio2+0x454>)
    427c:	9804      	ldr	r0, [sp, #16]
    427e:	9905      	ldr	r1, [sp, #20]
    4280:	f7fe fb1e 	bl	28c0 <__aeabi_dmul>
    4284:	1c04      	adds	r4, r0, #0
    4286:	1c0d      	adds	r5, r1, #0
    4288:	1c22      	adds	r2, r4, #0
    428a:	1c2b      	adds	r3, r5, #0
    428c:	9802      	ldr	r0, [sp, #8]
    428e:	9903      	ldr	r1, [sp, #12]
    4290:	f001 fcb2 	bl	5bf8 <__aeabi_dsub>
    4294:	9002      	str	r0, [sp, #8]
    4296:	9103      	str	r1, [sp, #12]
    4298:	9a02      	ldr	r2, [sp, #8]
    429a:	9b03      	ldr	r3, [sp, #12]
    429c:	9808      	ldr	r0, [sp, #32]
    429e:	9909      	ldr	r1, [sp, #36]	; 0x24
    42a0:	f001 fcaa 	bl	5bf8 <__aeabi_dsub>
    42a4:	1c22      	adds	r2, r4, #0
    42a6:	1c2b      	adds	r3, r5, #0
    42a8:	f001 fca6 	bl	5bf8 <__aeabi_dsub>
    42ac:	4a30      	ldr	r2, [pc, #192]	; (4370 <__ieee754_rem_pio2+0x458>)
    42ae:	4b31      	ldr	r3, [pc, #196]	; (4374 <__ieee754_rem_pio2+0x45c>)
    42b0:	1c04      	adds	r4, r0, #0
    42b2:	1c0d      	adds	r5, r1, #0
    42b4:	9804      	ldr	r0, [sp, #16]
    42b6:	9905      	ldr	r1, [sp, #20]
    42b8:	f7fe fb02 	bl	28c0 <__aeabi_dmul>
    42bc:	1c22      	adds	r2, r4, #0
    42be:	1c2b      	adds	r3, r5, #0
    42c0:	f001 fc9a 	bl	5bf8 <__aeabi_dsub>
    42c4:	9006      	str	r0, [sp, #24]
    42c6:	9107      	str	r1, [sp, #28]
    42c8:	9a06      	ldr	r2, [sp, #24]
    42ca:	9b07      	ldr	r3, [sp, #28]
    42cc:	9802      	ldr	r0, [sp, #8]
    42ce:	9903      	ldr	r1, [sp, #12]
    42d0:	f001 fc92 	bl	5bf8 <__aeabi_dsub>
    42d4:	464a      	mov	r2, r9
    42d6:	1c04      	adds	r4, r0, #0
    42d8:	1c0d      	adds	r5, r1, #0
    42da:	4680      	mov	r8, r0
    42dc:	1c0f      	adds	r7, r1, #0
    42de:	6014      	str	r4, [r2, #0]
    42e0:	6055      	str	r5, [r2, #4]
    42e2:	e725      	b.n	4130 <__ieee754_rem_pio2+0x218>
    42e4:	1c29      	adds	r1, r5, #0
    42e6:	4a24      	ldr	r2, [pc, #144]	; (4378 <__ieee754_rem_pio2+0x460>)
    42e8:	4b24      	ldr	r3, [pc, #144]	; (437c <__ieee754_rem_pio2+0x464>)
    42ea:	f001 f823 	bl	5334 <__aeabi_dadd>
    42ee:	4b26      	ldr	r3, [pc, #152]	; (4388 <__ieee754_rem_pio2+0x470>)
    42f0:	1c04      	adds	r4, r0, #0
    42f2:	1c0d      	adds	r5, r1, #0
    42f4:	429e      	cmp	r6, r3
    42f6:	d018      	beq.n	432a <__ieee754_rem_pio2+0x412>
    42f8:	4a21      	ldr	r2, [pc, #132]	; (4380 <__ieee754_rem_pio2+0x468>)
    42fa:	4b22      	ldr	r3, [pc, #136]	; (4384 <__ieee754_rem_pio2+0x46c>)
    42fc:	f001 f81a 	bl	5334 <__aeabi_dadd>
    4300:	1c02      	adds	r2, r0, #0
    4302:	1c0b      	adds	r3, r1, #0
    4304:	4649      	mov	r1, r9
    4306:	600a      	str	r2, [r1, #0]
    4308:	604b      	str	r3, [r1, #4]
    430a:	1c20      	adds	r0, r4, #0
    430c:	1c29      	adds	r1, r5, #0
    430e:	f001 fc73 	bl	5bf8 <__aeabi_dsub>
    4312:	4a1b      	ldr	r2, [pc, #108]	; (4380 <__ieee754_rem_pio2+0x468>)
    4314:	4b1b      	ldr	r3, [pc, #108]	; (4384 <__ieee754_rem_pio2+0x46c>)
    4316:	f001 f80d 	bl	5334 <__aeabi_dadd>
    431a:	464a      	mov	r2, r9
    431c:	6090      	str	r0, [r2, #8]
    431e:	60d1      	str	r1, [r2, #12]
    4320:	2001      	movs	r0, #1
    4322:	4240      	negs	r0, r0
    4324:	e698      	b.n	4058 <__ieee754_rem_pio2+0x140>
    4326:	2303      	movs	r3, #3
    4328:	e674      	b.n	4014 <__ieee754_rem_pio2+0xfc>
    432a:	4b0c      	ldr	r3, [pc, #48]	; (435c <__ieee754_rem_pio2+0x444>)
    432c:	4a0a      	ldr	r2, [pc, #40]	; (4358 <__ieee754_rem_pio2+0x440>)
    432e:	f001 f801 	bl	5334 <__aeabi_dadd>
    4332:	4a0b      	ldr	r2, [pc, #44]	; (4360 <__ieee754_rem_pio2+0x448>)
    4334:	4b0b      	ldr	r3, [pc, #44]	; (4364 <__ieee754_rem_pio2+0x44c>)
    4336:	1c04      	adds	r4, r0, #0
    4338:	1c0d      	adds	r5, r1, #0
    433a:	f000 fffb 	bl	5334 <__aeabi_dadd>
    433e:	1c02      	adds	r2, r0, #0
    4340:	1c0b      	adds	r3, r1, #0
    4342:	4649      	mov	r1, r9
    4344:	600a      	str	r2, [r1, #0]
    4346:	604b      	str	r3, [r1, #4]
    4348:	1c20      	adds	r0, r4, #0
    434a:	1c29      	adds	r1, r5, #0
    434c:	f001 fc54 	bl	5bf8 <__aeabi_dsub>
    4350:	4a03      	ldr	r2, [pc, #12]	; (4360 <__ieee754_rem_pio2+0x448>)
    4352:	4b04      	ldr	r3, [pc, #16]	; (4364 <__ieee754_rem_pio2+0x44c>)
    4354:	e7df      	b.n	4316 <__ieee754_rem_pio2+0x3fe>
    4356:	46c0      	nop			; (mov r8, r8)
    4358:	1a600000 	.word	0x1a600000
    435c:	3dd0b461 	.word	0x3dd0b461
    4360:	2e037073 	.word	0x2e037073
    4364:	3ba3198a 	.word	0x3ba3198a
    4368:	2e000000 	.word	0x2e000000
    436c:	3ba3198a 	.word	0x3ba3198a
    4370:	252049c1 	.word	0x252049c1
    4374:	397b839a 	.word	0x397b839a
    4378:	54400000 	.word	0x54400000
    437c:	3ff921fb 	.word	0x3ff921fb
    4380:	1a626331 	.word	0x1a626331
    4384:	3dd0b461 	.word	0x3dd0b461
    4388:	3ff921fb 	.word	0x3ff921fb
    438c:	46c0      	nop			; (mov r8, r8)
    438e:	46c0      	nop			; (mov r8, r8)

00004390 <__kernel_cos>:
    4390:	b5f0      	push	{r4, r5, r6, r7, lr}
    4392:	4647      	mov	r7, r8
    4394:	b480      	push	{r7}
    4396:	b088      	sub	sp, #32
    4398:	9202      	str	r2, [sp, #8]
    439a:	9303      	str	r3, [sp, #12]
    439c:	004b      	lsls	r3, r1, #1
    439e:	085b      	lsrs	r3, r3, #1
    43a0:	4698      	mov	r8, r3
    43a2:	4b89      	ldr	r3, [pc, #548]	; (45c8 <__kernel_cos+0x238>)
    43a4:	1c06      	adds	r6, r0, #0
    43a6:	1c0f      	adds	r7, r1, #0
    43a8:	4598      	cmp	r8, r3
    43aa:	dc63      	bgt.n	4474 <__kernel_cos+0xe4>
    43ac:	f7fe fd18 	bl	2de0 <__aeabi_d2iz>
    43b0:	2800      	cmp	r0, #0
    43b2:	d100      	bne.n	43b6 <__kernel_cos+0x26>
    43b4:	e0dd      	b.n	4572 <__kernel_cos+0x1e2>
    43b6:	1c32      	adds	r2, r6, #0
    43b8:	1c3b      	adds	r3, r7, #0
    43ba:	1c30      	adds	r0, r6, #0
    43bc:	1c39      	adds	r1, r7, #0
    43be:	f7fe fa7f 	bl	28c0 <__aeabi_dmul>
    43c2:	4b6e      	ldr	r3, [pc, #440]	; (457c <__kernel_cos+0x1ec>)
    43c4:	4a6c      	ldr	r2, [pc, #432]	; (4578 <__kernel_cos+0x1e8>)
    43c6:	1c04      	adds	r4, r0, #0
    43c8:	1c0d      	adds	r5, r1, #0
    43ca:	f7fe fa79 	bl	28c0 <__aeabi_dmul>
    43ce:	4a6c      	ldr	r2, [pc, #432]	; (4580 <__kernel_cos+0x1f0>)
    43d0:	4b6c      	ldr	r3, [pc, #432]	; (4584 <__kernel_cos+0x1f4>)
    43d2:	f000 ffaf 	bl	5334 <__aeabi_dadd>
    43d6:	1c22      	adds	r2, r4, #0
    43d8:	1c2b      	adds	r3, r5, #0
    43da:	f7fe fa71 	bl	28c0 <__aeabi_dmul>
    43de:	4a6a      	ldr	r2, [pc, #424]	; (4588 <__kernel_cos+0x1f8>)
    43e0:	4b6a      	ldr	r3, [pc, #424]	; (458c <__kernel_cos+0x1fc>)
    43e2:	f001 fc09 	bl	5bf8 <__aeabi_dsub>
    43e6:	1c22      	adds	r2, r4, #0
    43e8:	1c2b      	adds	r3, r5, #0
    43ea:	f7fe fa69 	bl	28c0 <__aeabi_dmul>
    43ee:	4a68      	ldr	r2, [pc, #416]	; (4590 <__kernel_cos+0x200>)
    43f0:	4b68      	ldr	r3, [pc, #416]	; (4594 <__kernel_cos+0x204>)
    43f2:	f000 ff9f 	bl	5334 <__aeabi_dadd>
    43f6:	1c22      	adds	r2, r4, #0
    43f8:	1c2b      	adds	r3, r5, #0
    43fa:	f7fe fa61 	bl	28c0 <__aeabi_dmul>
    43fe:	4a66      	ldr	r2, [pc, #408]	; (4598 <__kernel_cos+0x208>)
    4400:	4b66      	ldr	r3, [pc, #408]	; (459c <__kernel_cos+0x20c>)
    4402:	f001 fbf9 	bl	5bf8 <__aeabi_dsub>
    4406:	1c22      	adds	r2, r4, #0
    4408:	1c2b      	adds	r3, r5, #0
    440a:	f7fe fa59 	bl	28c0 <__aeabi_dmul>
    440e:	4a64      	ldr	r2, [pc, #400]	; (45a0 <__kernel_cos+0x210>)
    4410:	4b64      	ldr	r3, [pc, #400]	; (45a4 <__kernel_cos+0x214>)
    4412:	f000 ff8f 	bl	5334 <__aeabi_dadd>
    4416:	1c22      	adds	r2, r4, #0
    4418:	1c2b      	adds	r3, r5, #0
    441a:	f7fe fa51 	bl	28c0 <__aeabi_dmul>
    441e:	9004      	str	r0, [sp, #16]
    4420:	9105      	str	r1, [sp, #20]
    4422:	4a61      	ldr	r2, [pc, #388]	; (45a8 <__kernel_cos+0x218>)
    4424:	4b61      	ldr	r3, [pc, #388]	; (45ac <__kernel_cos+0x21c>)
    4426:	1c20      	adds	r0, r4, #0
    4428:	1c29      	adds	r1, r5, #0
    442a:	f7fe fa49 	bl	28c0 <__aeabi_dmul>
    442e:	9a04      	ldr	r2, [sp, #16]
    4430:	9b05      	ldr	r3, [sp, #20]
    4432:	9000      	str	r0, [sp, #0]
    4434:	9101      	str	r1, [sp, #4]
    4436:	1c20      	adds	r0, r4, #0
    4438:	1c29      	adds	r1, r5, #0
    443a:	f7fe fa41 	bl	28c0 <__aeabi_dmul>
    443e:	9a02      	ldr	r2, [sp, #8]
    4440:	9b03      	ldr	r3, [sp, #12]
    4442:	1c04      	adds	r4, r0, #0
    4444:	1c0d      	adds	r5, r1, #0
    4446:	1c30      	adds	r0, r6, #0
    4448:	1c39      	adds	r1, r7, #0
    444a:	f7fe fa39 	bl	28c0 <__aeabi_dmul>
    444e:	1c02      	adds	r2, r0, #0
    4450:	1c0b      	adds	r3, r1, #0
    4452:	1c20      	adds	r0, r4, #0
    4454:	1c29      	adds	r1, r5, #0
    4456:	f001 fbcf 	bl	5bf8 <__aeabi_dsub>
    445a:	1c02      	adds	r2, r0, #0
    445c:	1c0b      	adds	r3, r1, #0
    445e:	9800      	ldr	r0, [sp, #0]
    4460:	9901      	ldr	r1, [sp, #4]
    4462:	f001 fbc9 	bl	5bf8 <__aeabi_dsub>
    4466:	1c02      	adds	r2, r0, #0
    4468:	1c0b      	adds	r3, r1, #0
    446a:	4851      	ldr	r0, [pc, #324]	; (45b0 <__kernel_cos+0x220>)
    446c:	4951      	ldr	r1, [pc, #324]	; (45b4 <__kernel_cos+0x224>)
    446e:	f001 fbc3 	bl	5bf8 <__aeabi_dsub>
    4472:	e071      	b.n	4558 <__kernel_cos+0x1c8>
    4474:	1c32      	adds	r2, r6, #0
    4476:	1c3b      	adds	r3, r7, #0
    4478:	f7fe fa22 	bl	28c0 <__aeabi_dmul>
    447c:	4b3f      	ldr	r3, [pc, #252]	; (457c <__kernel_cos+0x1ec>)
    447e:	4a3e      	ldr	r2, [pc, #248]	; (4578 <__kernel_cos+0x1e8>)
    4480:	1c04      	adds	r4, r0, #0
    4482:	1c0d      	adds	r5, r1, #0
    4484:	f7fe fa1c 	bl	28c0 <__aeabi_dmul>
    4488:	4a3d      	ldr	r2, [pc, #244]	; (4580 <__kernel_cos+0x1f0>)
    448a:	4b3e      	ldr	r3, [pc, #248]	; (4584 <__kernel_cos+0x1f4>)
    448c:	f000 ff52 	bl	5334 <__aeabi_dadd>
    4490:	1c22      	adds	r2, r4, #0
    4492:	1c2b      	adds	r3, r5, #0
    4494:	f7fe fa14 	bl	28c0 <__aeabi_dmul>
    4498:	4a3b      	ldr	r2, [pc, #236]	; (4588 <__kernel_cos+0x1f8>)
    449a:	4b3c      	ldr	r3, [pc, #240]	; (458c <__kernel_cos+0x1fc>)
    449c:	f001 fbac 	bl	5bf8 <__aeabi_dsub>
    44a0:	1c22      	adds	r2, r4, #0
    44a2:	1c2b      	adds	r3, r5, #0
    44a4:	f7fe fa0c 	bl	28c0 <__aeabi_dmul>
    44a8:	4a39      	ldr	r2, [pc, #228]	; (4590 <__kernel_cos+0x200>)
    44aa:	4b3a      	ldr	r3, [pc, #232]	; (4594 <__kernel_cos+0x204>)
    44ac:	f000 ff42 	bl	5334 <__aeabi_dadd>
    44b0:	1c22      	adds	r2, r4, #0
    44b2:	1c2b      	adds	r3, r5, #0
    44b4:	f7fe fa04 	bl	28c0 <__aeabi_dmul>
    44b8:	4a37      	ldr	r2, [pc, #220]	; (4598 <__kernel_cos+0x208>)
    44ba:	4b38      	ldr	r3, [pc, #224]	; (459c <__kernel_cos+0x20c>)
    44bc:	f001 fb9c 	bl	5bf8 <__aeabi_dsub>
    44c0:	1c22      	adds	r2, r4, #0
    44c2:	1c2b      	adds	r3, r5, #0
    44c4:	f7fe f9fc 	bl	28c0 <__aeabi_dmul>
    44c8:	4a35      	ldr	r2, [pc, #212]	; (45a0 <__kernel_cos+0x210>)
    44ca:	4b36      	ldr	r3, [pc, #216]	; (45a4 <__kernel_cos+0x214>)
    44cc:	f000 ff32 	bl	5334 <__aeabi_dadd>
    44d0:	1c2b      	adds	r3, r5, #0
    44d2:	1c22      	adds	r2, r4, #0
    44d4:	f7fe f9f4 	bl	28c0 <__aeabi_dmul>
    44d8:	4b3c      	ldr	r3, [pc, #240]	; (45cc <__kernel_cos+0x23c>)
    44da:	9004      	str	r0, [sp, #16]
    44dc:	9105      	str	r1, [sp, #20]
    44de:	4598      	cmp	r8, r3
    44e0:	dd9f      	ble.n	4422 <__kernel_cos+0x92>
    44e2:	4b3b      	ldr	r3, [pc, #236]	; (45d0 <__kernel_cos+0x240>)
    44e4:	4598      	cmp	r8, r3
    44e6:	dc3b      	bgt.n	4560 <__kernel_cos+0x1d0>
    44e8:	493a      	ldr	r1, [pc, #232]	; (45d4 <__kernel_cos+0x244>)
    44ea:	2200      	movs	r2, #0
    44ec:	1c0b      	adds	r3, r1, #0
    44ee:	4443      	add	r3, r8
    44f0:	482f      	ldr	r0, [pc, #188]	; (45b0 <__kernel_cos+0x220>)
    44f2:	4930      	ldr	r1, [pc, #192]	; (45b4 <__kernel_cos+0x224>)
    44f4:	9200      	str	r2, [sp, #0]
    44f6:	9301      	str	r3, [sp, #4]
    44f8:	f001 fb7e 	bl	5bf8 <__aeabi_dsub>
    44fc:	9006      	str	r0, [sp, #24]
    44fe:	9107      	str	r1, [sp, #28]
    4500:	4a29      	ldr	r2, [pc, #164]	; (45a8 <__kernel_cos+0x218>)
    4502:	4b2a      	ldr	r3, [pc, #168]	; (45ac <__kernel_cos+0x21c>)
    4504:	1c20      	adds	r0, r4, #0
    4506:	1c29      	adds	r1, r5, #0
    4508:	f7fe f9da 	bl	28c0 <__aeabi_dmul>
    450c:	9a00      	ldr	r2, [sp, #0]
    450e:	9b01      	ldr	r3, [sp, #4]
    4510:	f001 fb72 	bl	5bf8 <__aeabi_dsub>
    4514:	9a04      	ldr	r2, [sp, #16]
    4516:	9b05      	ldr	r3, [sp, #20]
    4518:	9000      	str	r0, [sp, #0]
    451a:	9101      	str	r1, [sp, #4]
    451c:	1c20      	adds	r0, r4, #0
    451e:	1c29      	adds	r1, r5, #0
    4520:	f7fe f9ce 	bl	28c0 <__aeabi_dmul>
    4524:	9a02      	ldr	r2, [sp, #8]
    4526:	9b03      	ldr	r3, [sp, #12]
    4528:	1c04      	adds	r4, r0, #0
    452a:	1c0d      	adds	r5, r1, #0
    452c:	1c30      	adds	r0, r6, #0
    452e:	1c39      	adds	r1, r7, #0
    4530:	f7fe f9c6 	bl	28c0 <__aeabi_dmul>
    4534:	1c02      	adds	r2, r0, #0
    4536:	1c0b      	adds	r3, r1, #0
    4538:	1c20      	adds	r0, r4, #0
    453a:	1c29      	adds	r1, r5, #0
    453c:	f001 fb5c 	bl	5bf8 <__aeabi_dsub>
    4540:	1c02      	adds	r2, r0, #0
    4542:	1c0b      	adds	r3, r1, #0
    4544:	9800      	ldr	r0, [sp, #0]
    4546:	9901      	ldr	r1, [sp, #4]
    4548:	f001 fb56 	bl	5bf8 <__aeabi_dsub>
    454c:	1c02      	adds	r2, r0, #0
    454e:	1c0b      	adds	r3, r1, #0
    4550:	9806      	ldr	r0, [sp, #24]
    4552:	9907      	ldr	r1, [sp, #28]
    4554:	f001 fb50 	bl	5bf8 <__aeabi_dsub>
    4558:	b008      	add	sp, #32
    455a:	bc04      	pop	{r2}
    455c:	4690      	mov	r8, r2
    455e:	bdf0      	pop	{r4, r5, r6, r7, pc}
    4560:	4a15      	ldr	r2, [pc, #84]	; (45b8 <__kernel_cos+0x228>)
    4562:	4b16      	ldr	r3, [pc, #88]	; (45bc <__kernel_cos+0x22c>)
    4564:	9206      	str	r2, [sp, #24]
    4566:	9307      	str	r3, [sp, #28]
    4568:	4915      	ldr	r1, [pc, #84]	; (45c0 <__kernel_cos+0x230>)
    456a:	4a16      	ldr	r2, [pc, #88]	; (45c4 <__kernel_cos+0x234>)
    456c:	9100      	str	r1, [sp, #0]
    456e:	9201      	str	r2, [sp, #4]
    4570:	e7c6      	b.n	4500 <__kernel_cos+0x170>
    4572:	480f      	ldr	r0, [pc, #60]	; (45b0 <__kernel_cos+0x220>)
    4574:	490f      	ldr	r1, [pc, #60]	; (45b4 <__kernel_cos+0x224>)
    4576:	e7ef      	b.n	4558 <__kernel_cos+0x1c8>
    4578:	be8838d4 	.word	0xbe8838d4
    457c:	bda8fae9 	.word	0xbda8fae9
    4580:	bdb4b1c4 	.word	0xbdb4b1c4
    4584:	3e21ee9e 	.word	0x3e21ee9e
    4588:	809c52ad 	.word	0x809c52ad
    458c:	3e927e4f 	.word	0x3e927e4f
    4590:	19cb1590 	.word	0x19cb1590
    4594:	3efa01a0 	.word	0x3efa01a0
    4598:	16c15177 	.word	0x16c15177
    459c:	3f56c16c 	.word	0x3f56c16c
    45a0:	5555554c 	.word	0x5555554c
    45a4:	3fa55555 	.word	0x3fa55555
    45a8:	00000000 	.word	0x00000000
    45ac:	3fe00000 	.word	0x3fe00000
    45b0:	00000000 	.word	0x00000000
    45b4:	3ff00000 	.word	0x3ff00000
    45b8:	00000000 	.word	0x00000000
    45bc:	3fe70000 	.word	0x3fe70000
    45c0:	00000000 	.word	0x00000000
    45c4:	3fd20000 	.word	0x3fd20000
    45c8:	3e3fffff 	.word	0x3e3fffff
    45cc:	3fd33332 	.word	0x3fd33332
    45d0:	3fe90000 	.word	0x3fe90000
    45d4:	ffe00000 	.word	0xffe00000

000045d8 <__kernel_rem_pio2>:
    45d8:	b5f0      	push	{r4, r5, r6, r7, lr}
    45da:	4656      	mov	r6, r10
    45dc:	464d      	mov	r5, r9
    45de:	4644      	mov	r4, r8
    45e0:	465f      	mov	r7, r11
    45e2:	b4f0      	push	{r4, r5, r6, r7}
    45e4:	4c8e      	ldr	r4, [pc, #568]	; (4820 <__kernel_rem_pio2+0x248>)
    45e6:	4682      	mov	r10, r0
    45e8:	44a5      	add	sp, r4
    45ea:	9da8      	ldr	r5, [sp, #672]	; 0x2a0
    45ec:	9310      	str	r3, [sp, #64]	; 0x40
    45ee:	4b8d      	ldr	r3, [pc, #564]	; (4824 <__kernel_rem_pio2+0x24c>)
    45f0:	1c14      	adds	r4, r2, #0
    45f2:	00aa      	lsls	r2, r5, #2
    45f4:	9d10      	ldr	r5, [sp, #64]	; 0x40
    45f6:	58d2      	ldr	r2, [r2, r3]
    45f8:	910e      	str	r1, [sp, #56]	; 0x38
    45fa:	3d01      	subs	r5, #1
    45fc:	1ee0      	subs	r0, r4, #3
    45fe:	2118      	movs	r1, #24
    4600:	920c      	str	r2, [sp, #48]	; 0x30
    4602:	9506      	str	r5, [sp, #24]
    4604:	f000 fdf8 	bl	51f8 <__aeabi_idiv>
    4608:	43c3      	mvns	r3, r0
    460a:	17db      	asrs	r3, r3, #31
    460c:	4018      	ands	r0, r3
    460e:	43c3      	mvns	r3, r0
    4610:	005a      	lsls	r2, r3, #1
    4612:	18d3      	adds	r3, r2, r3
    4614:	00db      	lsls	r3, r3, #3
    4616:	191b      	adds	r3, r3, r4
    4618:	900f      	str	r0, [sp, #60]	; 0x3c
    461a:	1b44      	subs	r4, r0, r5
    461c:	980c      	ldr	r0, [sp, #48]	; 0x30
    461e:	930b      	str	r3, [sp, #44]	; 0x2c
    4620:	182f      	adds	r7, r5, r0
    4622:	d417      	bmi.n	4654 <__kernel_rem_pio2+0x7c>
    4624:	98a9      	ldr	r0, [sp, #676]	; 0x2a4
    4626:	00a5      	lsls	r5, r4, #2
    4628:	19e7      	adds	r7, r4, r7
    462a:	ae26      	add	r6, sp, #152	; 0x98
    462c:	1945      	adds	r5, r0, r5
    462e:	3701      	adds	r7, #1
    4630:	e007      	b.n	4642 <__kernel_rem_pio2+0x6a>
    4632:	6828      	ldr	r0, [r5, #0]
    4634:	f7fe fc08 	bl	2e48 <__aeabi_i2d>
    4638:	3401      	adds	r4, #1
    463a:	c603      	stmia	r6!, {r0, r1}
    463c:	3504      	adds	r5, #4
    463e:	42bc      	cmp	r4, r7
    4640:	d008      	beq.n	4654 <__kernel_rem_pio2+0x7c>
    4642:	2c00      	cmp	r4, #0
    4644:	daf5      	bge.n	4632 <__kernel_rem_pio2+0x5a>
    4646:	3401      	adds	r4, #1
    4648:	496c      	ldr	r1, [pc, #432]	; (47fc <__kernel_rem_pio2+0x224>)
    464a:	486b      	ldr	r0, [pc, #428]	; (47f8 <__kernel_rem_pio2+0x220>)
    464c:	3504      	adds	r5, #4
    464e:	c603      	stmia	r6!, {r0, r1}
    4650:	42bc      	cmp	r4, r7
    4652:	d1f6      	bne.n	4642 <__kernel_rem_pio2+0x6a>
    4654:	9c0c      	ldr	r4, [sp, #48]	; 0x30
    4656:	2c00      	cmp	r4, #0
    4658:	da00      	bge.n	465c <__kernel_rem_pio2+0x84>
    465a:	e3ad      	b.n	4db8 <__kernel_rem_pio2+0x7e0>
    465c:	9b0c      	ldr	r3, [sp, #48]	; 0x30
    465e:	9c10      	ldr	r4, [sp, #64]	; 0x40
    4660:	3301      	adds	r3, #1
    4662:	00db      	lsls	r3, r3, #3
    4664:	00e4      	lsls	r4, r4, #3
    4666:	ad9e      	add	r5, sp, #632	; 0x278
    4668:	46a3      	mov	r11, r4
    466a:	4699      	mov	r9, r3
    466c:	1c2b      	adds	r3, r5, #0
    466e:	445b      	add	r3, r11
    4670:	3be9      	subs	r3, #233	; 0xe9
    4672:	2000      	movs	r0, #0
    4674:	ac76      	add	r4, sp, #472	; 0x1d8
    4676:	3bff      	subs	r3, #255	; 0xff
    4678:	4680      	mov	r8, r0
    467a:	940d      	str	r4, [sp, #52]	; 0x34
    467c:	9304      	str	r3, [sp, #16]
    467e:	9d06      	ldr	r5, [sp, #24]
    4680:	2d00      	cmp	r5, #0
    4682:	da00      	bge.n	4686 <__kernel_rem_pio2+0xae>
    4684:	e1ac      	b.n	49e0 <__kernel_rem_pio2+0x408>
    4686:	9804      	ldr	r0, [sp, #16]
    4688:	2600      	movs	r6, #0
    468a:	1c07      	adds	r7, r0, #0
    468c:	4447      	add	r7, r8
    468e:	4d5b      	ldr	r5, [pc, #364]	; (47fc <__kernel_rem_pio2+0x224>)
    4690:	4c59      	ldr	r4, [pc, #356]	; (47f8 <__kernel_rem_pio2+0x220>)
    4692:	4650      	mov	r0, r10
    4694:	1983      	adds	r3, r0, r6
    4696:	6818      	ldr	r0, [r3, #0]
    4698:	6859      	ldr	r1, [r3, #4]
    469a:	683a      	ldr	r2, [r7, #0]
    469c:	687b      	ldr	r3, [r7, #4]
    469e:	f7fe f90f 	bl	28c0 <__aeabi_dmul>
    46a2:	1c02      	adds	r2, r0, #0
    46a4:	1c0b      	adds	r3, r1, #0
    46a6:	1c20      	adds	r0, r4, #0
    46a8:	1c29      	adds	r1, r5, #0
    46aa:	f000 fe43 	bl	5334 <__aeabi_dadd>
    46ae:	3608      	adds	r6, #8
    46b0:	1c04      	adds	r4, r0, #0
    46b2:	1c0d      	adds	r5, r1, #0
    46b4:	3f08      	subs	r7, #8
    46b6:	455e      	cmp	r6, r11
    46b8:	d1eb      	bne.n	4692 <__kernel_rem_pio2+0xba>
    46ba:	990d      	ldr	r1, [sp, #52]	; 0x34
    46bc:	2208      	movs	r2, #8
    46be:	1c0b      	adds	r3, r1, #0
    46c0:	4443      	add	r3, r8
    46c2:	4490      	add	r8, r2
    46c4:	601c      	str	r4, [r3, #0]
    46c6:	605d      	str	r5, [r3, #4]
    46c8:	45c8      	cmp	r8, r9
    46ca:	d1d8      	bne.n	467e <__kernel_rem_pio2+0xa6>
    46cc:	9d0c      	ldr	r5, [sp, #48]	; 0x30
    46ce:	ac11      	add	r4, sp, #68	; 0x44
    46d0:	00ab      	lsls	r3, r5, #2
    46d2:	9408      	str	r4, [sp, #32]
    46d4:	18e4      	adds	r4, r4, r3
    46d6:	9411      	str	r4, [sp, #68]	; 0x44
    46d8:	950a      	str	r5, [sp, #40]	; 0x28
    46da:	9c0a      	ldr	r4, [sp, #40]	; 0x28
    46dc:	9d0d      	ldr	r5, [sp, #52]	; 0x34
    46de:	00e3      	lsls	r3, r4, #3
    46e0:	18eb      	adds	r3, r5, r3
    46e2:	681e      	ldr	r6, [r3, #0]
    46e4:	685f      	ldr	r7, [r3, #4]
    46e6:	2c00      	cmp	r4, #0
    46e8:	dd38      	ble.n	475c <__kernel_rem_pio2+0x184>
    46ea:	1c23      	adds	r3, r4, #0
    46ec:	3b01      	subs	r3, #1
    46ee:	00db      	lsls	r3, r3, #3
    46f0:	18ed      	adds	r5, r5, r3
    46f2:	a812      	add	r0, sp, #72	; 0x48
    46f4:	00a3      	lsls	r3, r4, #2
    46f6:	46a8      	mov	r8, r5
    46f8:	18c4      	adds	r4, r0, r3
    46fa:	4655      	mov	r5, r10
    46fc:	4681      	mov	r9, r0
    46fe:	9504      	str	r5, [sp, #16]
    4700:	46a2      	mov	r10, r4
    4702:	4a3f      	ldr	r2, [pc, #252]	; (4800 <__kernel_rem_pio2+0x228>)
    4704:	4b3f      	ldr	r3, [pc, #252]	; (4804 <__kernel_rem_pio2+0x22c>)
    4706:	1c30      	adds	r0, r6, #0
    4708:	1c39      	adds	r1, r7, #0
    470a:	f7fe f8d9 	bl	28c0 <__aeabi_dmul>
    470e:	f7fe fb67 	bl	2de0 <__aeabi_d2iz>
    4712:	f7fe fb99 	bl	2e48 <__aeabi_i2d>
    4716:	4a3c      	ldr	r2, [pc, #240]	; (4808 <__kernel_rem_pio2+0x230>)
    4718:	4b3c      	ldr	r3, [pc, #240]	; (480c <__kernel_rem_pio2+0x234>)
    471a:	1c04      	adds	r4, r0, #0
    471c:	1c0d      	adds	r5, r1, #0
    471e:	f7fe f8cf 	bl	28c0 <__aeabi_dmul>
    4722:	1c02      	adds	r2, r0, #0
    4724:	1c0b      	adds	r3, r1, #0
    4726:	1c30      	adds	r0, r6, #0
    4728:	1c39      	adds	r1, r7, #0
    472a:	f001 fa65 	bl	5bf8 <__aeabi_dsub>
    472e:	f7fe fb57 	bl	2de0 <__aeabi_d2iz>
    4732:	4649      	mov	r1, r9
    4734:	3104      	adds	r1, #4
    4736:	4689      	mov	r9, r1
    4738:	3904      	subs	r1, #4
    473a:	c101      	stmia	r1!, {r0}
    473c:	1c20      	adds	r0, r4, #0
    473e:	4644      	mov	r4, r8
    4740:	1c29      	adds	r1, r5, #0
    4742:	6822      	ldr	r2, [r4, #0]
    4744:	6863      	ldr	r3, [r4, #4]
    4746:	f000 fdf5 	bl	5334 <__aeabi_dadd>
    474a:	2508      	movs	r5, #8
    474c:	426d      	negs	r5, r5
    474e:	1c06      	adds	r6, r0, #0
    4750:	1c0f      	adds	r7, r1, #0
    4752:	44a8      	add	r8, r5
    4754:	45d1      	cmp	r9, r10
    4756:	d1d4      	bne.n	4702 <__kernel_rem_pio2+0x12a>
    4758:	9804      	ldr	r0, [sp, #16]
    475a:	4682      	mov	r10, r0
    475c:	1c30      	adds	r0, r6, #0
    475e:	1c39      	adds	r1, r7, #0
    4760:	9a0b      	ldr	r2, [sp, #44]	; 0x2c
    4762:	f000 fcb9 	bl	50d8 <scalbn>
    4766:	4a2a      	ldr	r2, [pc, #168]	; (4810 <__kernel_rem_pio2+0x238>)
    4768:	4b2a      	ldr	r3, [pc, #168]	; (4814 <__kernel_rem_pio2+0x23c>)
    476a:	1c04      	adds	r4, r0, #0
    476c:	1c0d      	adds	r5, r1, #0
    476e:	f7fe f8a7 	bl	28c0 <__aeabi_dmul>
    4772:	f000 fbf9 	bl	4f68 <floor>
    4776:	4a28      	ldr	r2, [pc, #160]	; (4818 <__kernel_rem_pio2+0x240>)
    4778:	4b28      	ldr	r3, [pc, #160]	; (481c <__kernel_rem_pio2+0x244>)
    477a:	f7fe f8a1 	bl	28c0 <__aeabi_dmul>
    477e:	1c02      	adds	r2, r0, #0
    4780:	1c0b      	adds	r3, r1, #0
    4782:	1c20      	adds	r0, r4, #0
    4784:	1c29      	adds	r1, r5, #0
    4786:	f001 fa37 	bl	5bf8 <__aeabi_dsub>
    478a:	1c04      	adds	r4, r0, #0
    478c:	1c0d      	adds	r5, r1, #0
    478e:	f7fe fb27 	bl	2de0 <__aeabi_d2iz>
    4792:	4681      	mov	r9, r0
    4794:	f7fe fb58 	bl	2e48 <__aeabi_i2d>
    4798:	1c02      	adds	r2, r0, #0
    479a:	1c0b      	adds	r3, r1, #0
    479c:	1c20      	adds	r0, r4, #0
    479e:	1c29      	adds	r1, r5, #0
    47a0:	f001 fa2a 	bl	5bf8 <__aeabi_dsub>
    47a4:	9c0b      	ldr	r4, [sp, #44]	; 0x2c
    47a6:	1c06      	adds	r6, r0, #0
    47a8:	1c0f      	adds	r7, r1, #0
    47aa:	2c00      	cmp	r4, #0
    47ac:	dc00      	bgt.n	47b0 <__kernel_rem_pio2+0x1d8>
    47ae:	e0f9      	b.n	49a4 <__kernel_rem_pio2+0x3cc>
    47b0:	9a0a      	ldr	r2, [sp, #40]	; 0x28
    47b2:	ad12      	add	r5, sp, #72	; 0x48
    47b4:	3a01      	subs	r2, #1
    47b6:	0092      	lsls	r2, r2, #2
    47b8:	58ab      	ldr	r3, [r5, r2]
    47ba:	2118      	movs	r1, #24
    47bc:	1b09      	subs	r1, r1, r4
    47be:	1c18      	adds	r0, r3, #0
    47c0:	4108      	asrs	r0, r1
    47c2:	4481      	add	r9, r0
    47c4:	4088      	lsls	r0, r1
    47c6:	1a1b      	subs	r3, r3, r0
    47c8:	50ab      	str	r3, [r5, r2]
    47ca:	2517      	movs	r5, #23
    47cc:	1b2d      	subs	r5, r5, r4
    47ce:	412b      	asrs	r3, r5
    47d0:	9309      	str	r3, [sp, #36]	; 0x24
    47d2:	9d09      	ldr	r5, [sp, #36]	; 0x24
    47d4:	2d00      	cmp	r5, #0
    47d6:	dd50      	ble.n	487a <__kernel_rem_pio2+0x2a2>
    47d8:	9c0a      	ldr	r4, [sp, #40]	; 0x28
    47da:	2501      	movs	r5, #1
    47dc:	44a9      	add	r9, r5
    47de:	2c00      	cmp	r4, #0
    47e0:	dc00      	bgt.n	47e4 <__kernel_rem_pio2+0x20c>
    47e2:	e108      	b.n	49f6 <__kernel_rem_pio2+0x41e>
    47e4:	00a1      	lsls	r1, r4, #2
    47e6:	ab12      	add	r3, sp, #72	; 0x48
    47e8:	2280      	movs	r2, #128	; 0x80
    47ea:	1859      	adds	r1, r3, r1
    47ec:	2400      	movs	r4, #0
    47ee:	480e      	ldr	r0, [pc, #56]	; (4828 <__kernel_rem_pio2+0x250>)
    47f0:	0455      	lsls	r5, r2, #17
    47f2:	e023      	b.n	483c <__kernel_rem_pio2+0x264>
    47f4:	46c0      	nop			; (mov r8, r8)
    47f6:	46c0      	nop			; (mov r8, r8)
	...
    4804:	3e700000 	.word	0x3e700000
    4808:	00000000 	.word	0x00000000
    480c:	41700000 	.word	0x41700000
    4810:	00000000 	.word	0x00000000
    4814:	3fc00000 	.word	0x3fc00000
    4818:	00000000 	.word	0x00000000
    481c:	40200000 	.word	0x40200000
    4820:	fffffd84 	.word	0xfffffd84
    4824:	00006814 	.word	0x00006814
    4828:	00ffffff 	.word	0x00ffffff
    482c:	2a00      	cmp	r2, #0
    482e:	d002      	beq.n	4836 <__kernel_rem_pio2+0x25e>
    4830:	1aaa      	subs	r2, r5, r2
    4832:	601a      	str	r2, [r3, #0]
    4834:	2401      	movs	r4, #1
    4836:	3304      	adds	r3, #4
    4838:	428b      	cmp	r3, r1
    483a:	d008      	beq.n	484e <__kernel_rem_pio2+0x276>
    483c:	681a      	ldr	r2, [r3, #0]
    483e:	2c00      	cmp	r4, #0
    4840:	d0f4      	beq.n	482c <__kernel_rem_pio2+0x254>
    4842:	1a82      	subs	r2, r0, r2
    4844:	601a      	str	r2, [r3, #0]
    4846:	3304      	adds	r3, #4
    4848:	2401      	movs	r4, #1
    484a:	428b      	cmp	r3, r1
    484c:	d1f6      	bne.n	483c <__kernel_rem_pio2+0x264>
    484e:	9d0b      	ldr	r5, [sp, #44]	; 0x2c
    4850:	2d00      	cmp	r5, #0
    4852:	dd0e      	ble.n	4872 <__kernel_rem_pio2+0x29a>
    4854:	2d01      	cmp	r5, #1
    4856:	d100      	bne.n	485a <__kernel_rem_pio2+0x282>
    4858:	e0af      	b.n	49ba <__kernel_rem_pio2+0x3e2>
    485a:	2d02      	cmp	r5, #2
    485c:	d109      	bne.n	4872 <__kernel_rem_pio2+0x29a>
    485e:	9b0a      	ldr	r3, [sp, #40]	; 0x28
    4860:	aa12      	add	r2, sp, #72	; 0x48
    4862:	3b01      	subs	r3, #1
    4864:	009b      	lsls	r3, r3, #2
    4866:	58d2      	ldr	r2, [r2, r3]
    4868:	ad12      	add	r5, sp, #72	; 0x48
    486a:	9202      	str	r2, [sp, #8]
    486c:	0292      	lsls	r2, r2, #10
    486e:	0a92      	lsrs	r2, r2, #10
    4870:	50ea      	str	r2, [r5, r3]
    4872:	9d09      	ldr	r5, [sp, #36]	; 0x24
    4874:	2d02      	cmp	r5, #2
    4876:	d100      	bne.n	487a <__kernel_rem_pio2+0x2a2>
    4878:	e07b      	b.n	4972 <__kernel_rem_pio2+0x39a>
    487a:	1c30      	adds	r0, r6, #0
    487c:	1c39      	adds	r1, r7, #0
    487e:	4bcb      	ldr	r3, [pc, #812]	; (4bac <__kernel_rem_pio2+0x5d4>)
    4880:	4ac9      	ldr	r2, [pc, #804]	; (4ba8 <__kernel_rem_pio2+0x5d0>)
    4882:	f000 fd29 	bl	52d8 <__aeabi_dcmpeq>
    4886:	2800      	cmp	r0, #0
    4888:	d100      	bne.n	488c <__kernel_rem_pio2+0x2b4>
    488a:	e0b6      	b.n	49fa <__kernel_rem_pio2+0x422>
    488c:	980a      	ldr	r0, [sp, #40]	; 0x28
    488e:	9c0c      	ldr	r4, [sp, #48]	; 0x30
    4890:	3801      	subs	r0, #1
    4892:	4284      	cmp	r4, r0
    4894:	dc0c      	bgt.n	48b0 <__kernel_rem_pio2+0x2d8>
    4896:	0081      	lsls	r1, r0, #2
    4898:	ad12      	add	r5, sp, #72	; 0x48
    489a:	9c11      	ldr	r4, [sp, #68]	; 0x44
    489c:	186b      	adds	r3, r5, r1
    489e:	2200      	movs	r2, #0
    48a0:	681d      	ldr	r5, [r3, #0]
    48a2:	3b04      	subs	r3, #4
    48a4:	432a      	orrs	r2, r5
    48a6:	42a3      	cmp	r3, r4
    48a8:	d1fa      	bne.n	48a0 <__kernel_rem_pio2+0x2c8>
    48aa:	2a00      	cmp	r2, #0
    48ac:	d000      	beq.n	48b0 <__kernel_rem_pio2+0x2d8>
    48ae:	e267      	b.n	4d80 <__kernel_rem_pio2+0x7a8>
    48b0:	9b0c      	ldr	r3, [sp, #48]	; 0x30
    48b2:	a812      	add	r0, sp, #72	; 0x48
    48b4:	3b01      	subs	r3, #1
    48b6:	009b      	lsls	r3, r3, #2
    48b8:	58c3      	ldr	r3, [r0, r3]
    48ba:	2b00      	cmp	r3, #0
    48bc:	d000      	beq.n	48c0 <__kernel_rem_pio2+0x2e8>
    48be:	e279      	b.n	4db4 <__kernel_rem_pio2+0x7dc>
    48c0:	9b0c      	ldr	r3, [sp, #48]	; 0x30
    48c2:	2201      	movs	r2, #1
    48c4:	3b02      	subs	r3, #2
    48c6:	009b      	lsls	r3, r3, #2
    48c8:	18c3      	adds	r3, r0, r3
    48ca:	3b04      	subs	r3, #4
    48cc:	6859      	ldr	r1, [r3, #4]
    48ce:	3201      	adds	r2, #1
    48d0:	2900      	cmp	r1, #0
    48d2:	d0fa      	beq.n	48ca <__kernel_rem_pio2+0x2f2>
    48d4:	9b0a      	ldr	r3, [sp, #40]	; 0x28
    48d6:	9c0a      	ldr	r4, [sp, #40]	; 0x28
    48d8:	3301      	adds	r3, #1
    48da:	18a4      	adds	r4, r4, r2
    48dc:	940a      	str	r4, [sp, #40]	; 0x28
    48de:	42a3      	cmp	r3, r4
    48e0:	dd00      	ble.n	48e4 <__kernel_rem_pio2+0x30c>
    48e2:	e6fa      	b.n	46da <__kernel_rem_pio2+0x102>
    48e4:	9d0f      	ldr	r5, [sp, #60]	; 0x3c
    48e6:	9ca9      	ldr	r4, [sp, #676]	; 0x2a4
    48e8:	195a      	adds	r2, r3, r5
    48ea:	0092      	lsls	r2, r2, #2
    48ec:	18a4      	adds	r4, r4, r2
    48ee:	9d06      	ldr	r5, [sp, #24]
    48f0:	46a1      	mov	r9, r4
    48f2:	9c0d      	ldr	r4, [sp, #52]	; 0x34
    48f4:	18ea      	adds	r2, r5, r3
    48f6:	00db      	lsls	r3, r3, #3
    48f8:	18e3      	adds	r3, r4, r3
    48fa:	9d10      	ldr	r5, [sp, #64]	; 0x40
    48fc:	9c0a      	ldr	r4, [sp, #40]	; 0x28
    48fe:	9304      	str	r3, [sp, #16]
    4900:	192b      	adds	r3, r5, r4
    4902:	00d2      	lsls	r2, r2, #3
    4904:	a826      	add	r0, sp, #152	; 0x98
    4906:	00db      	lsls	r3, r3, #3
    4908:	ad26      	add	r5, sp, #152	; 0x98
    490a:	1880      	adds	r0, r0, r2
    490c:	195d      	adds	r5, r3, r5
    490e:	4680      	mov	r8, r0
    4910:	9509      	str	r5, [sp, #36]	; 0x24
    4912:	4649      	mov	r1, r9
    4914:	6808      	ldr	r0, [r1, #0]
    4916:	f7fe fa97 	bl	2e48 <__aeabi_i2d>
    491a:	9c06      	ldr	r4, [sp, #24]
    491c:	4642      	mov	r2, r8
    491e:	6010      	str	r0, [r2, #0]
    4920:	6051      	str	r1, [r2, #4]
    4922:	2c00      	cmp	r4, #0
    4924:	db22      	blt.n	496c <__kernel_rem_pio2+0x394>
    4926:	4647      	mov	r7, r8
    4928:	2600      	movs	r6, #0
    492a:	4da0      	ldr	r5, [pc, #640]	; (4bac <__kernel_rem_pio2+0x5d4>)
    492c:	4c9e      	ldr	r4, [pc, #632]	; (4ba8 <__kernel_rem_pio2+0x5d0>)
    492e:	4650      	mov	r0, r10
    4930:	1983      	adds	r3, r0, r6
    4932:	6818      	ldr	r0, [r3, #0]
    4934:	6859      	ldr	r1, [r3, #4]
    4936:	683a      	ldr	r2, [r7, #0]
    4938:	687b      	ldr	r3, [r7, #4]
    493a:	f7fd ffc1 	bl	28c0 <__aeabi_dmul>
    493e:	1c02      	adds	r2, r0, #0
    4940:	1c0b      	adds	r3, r1, #0
    4942:	1c20      	adds	r0, r4, #0
    4944:	1c29      	adds	r1, r5, #0
    4946:	f000 fcf5 	bl	5334 <__aeabi_dadd>
    494a:	3608      	adds	r6, #8
    494c:	1c04      	adds	r4, r0, #0
    494e:	1c0d      	adds	r5, r1, #0
    4950:	3f08      	subs	r7, #8
    4952:	455e      	cmp	r6, r11
    4954:	d1eb      	bne.n	492e <__kernel_rem_pio2+0x356>
    4956:	9904      	ldr	r1, [sp, #16]
    4958:	2308      	movs	r3, #8
    495a:	c130      	stmia	r1!, {r4, r5}
    495c:	9c09      	ldr	r4, [sp, #36]	; 0x24
    495e:	2204      	movs	r2, #4
    4960:	4498      	add	r8, r3
    4962:	9104      	str	r1, [sp, #16]
    4964:	4491      	add	r9, r2
    4966:	45a0      	cmp	r8, r4
    4968:	d1d3      	bne.n	4912 <__kernel_rem_pio2+0x33a>
    496a:	e6b6      	b.n	46da <__kernel_rem_pio2+0x102>
    496c:	4d8f      	ldr	r5, [pc, #572]	; (4bac <__kernel_rem_pio2+0x5d4>)
    496e:	4c8e      	ldr	r4, [pc, #568]	; (4ba8 <__kernel_rem_pio2+0x5d0>)
    4970:	e7f1      	b.n	4956 <__kernel_rem_pio2+0x37e>
    4972:	1c32      	adds	r2, r6, #0
    4974:	1c3b      	adds	r3, r7, #0
    4976:	488e      	ldr	r0, [pc, #568]	; (4bb0 <__kernel_rem_pio2+0x5d8>)
    4978:	498e      	ldr	r1, [pc, #568]	; (4bb4 <__kernel_rem_pio2+0x5dc>)
    497a:	f001 f93d 	bl	5bf8 <__aeabi_dsub>
    497e:	1c06      	adds	r6, r0, #0
    4980:	1c0f      	adds	r7, r1, #0
    4982:	2c00      	cmp	r4, #0
    4984:	d100      	bne.n	4988 <__kernel_rem_pio2+0x3b0>
    4986:	e778      	b.n	487a <__kernel_rem_pio2+0x2a2>
    4988:	9a0b      	ldr	r2, [sp, #44]	; 0x2c
    498a:	4889      	ldr	r0, [pc, #548]	; (4bb0 <__kernel_rem_pio2+0x5d8>)
    498c:	4989      	ldr	r1, [pc, #548]	; (4bb4 <__kernel_rem_pio2+0x5dc>)
    498e:	f000 fba3 	bl	50d8 <scalbn>
    4992:	1c02      	adds	r2, r0, #0
    4994:	1c0b      	adds	r3, r1, #0
    4996:	1c30      	adds	r0, r6, #0
    4998:	1c39      	adds	r1, r7, #0
    499a:	f001 f92d 	bl	5bf8 <__aeabi_dsub>
    499e:	1c06      	adds	r6, r0, #0
    49a0:	1c0f      	adds	r7, r1, #0
    49a2:	e76a      	b.n	487a <__kernel_rem_pio2+0x2a2>
    49a4:	9c0b      	ldr	r4, [sp, #44]	; 0x2c
    49a6:	2c00      	cmp	r4, #0
    49a8:	d111      	bne.n	49ce <__kernel_rem_pio2+0x3f6>
    49aa:	9b0a      	ldr	r3, [sp, #40]	; 0x28
    49ac:	a812      	add	r0, sp, #72	; 0x48
    49ae:	3b01      	subs	r3, #1
    49b0:	009b      	lsls	r3, r3, #2
    49b2:	58c5      	ldr	r5, [r0, r3]
    49b4:	15ed      	asrs	r5, r5, #23
    49b6:	9509      	str	r5, [sp, #36]	; 0x24
    49b8:	e70b      	b.n	47d2 <__kernel_rem_pio2+0x1fa>
    49ba:	9b0a      	ldr	r3, [sp, #40]	; 0x28
    49bc:	a812      	add	r0, sp, #72	; 0x48
    49be:	3b01      	subs	r3, #1
    49c0:	009b      	lsls	r3, r3, #2
    49c2:	58c0      	ldr	r0, [r0, r3]
    49c4:	a912      	add	r1, sp, #72	; 0x48
    49c6:	0242      	lsls	r2, r0, #9
    49c8:	0a52      	lsrs	r2, r2, #9
    49ca:	50ca      	str	r2, [r1, r3]
    49cc:	e751      	b.n	4872 <__kernel_rem_pio2+0x29a>
    49ce:	4a7a      	ldr	r2, [pc, #488]	; (4bb8 <__kernel_rem_pio2+0x5e0>)
    49d0:	4b7a      	ldr	r3, [pc, #488]	; (4bbc <__kernel_rem_pio2+0x5e4>)
    49d2:	f000 fca5 	bl	5320 <__aeabi_dcmpge>
    49d6:	2800      	cmp	r0, #0
    49d8:	d105      	bne.n	49e6 <__kernel_rem_pio2+0x40e>
    49da:	2400      	movs	r4, #0
    49dc:	9409      	str	r4, [sp, #36]	; 0x24
    49de:	e74c      	b.n	487a <__kernel_rem_pio2+0x2a2>
    49e0:	4d72      	ldr	r5, [pc, #456]	; (4bac <__kernel_rem_pio2+0x5d4>)
    49e2:	4c71      	ldr	r4, [pc, #452]	; (4ba8 <__kernel_rem_pio2+0x5d0>)
    49e4:	e669      	b.n	46ba <__kernel_rem_pio2+0xe2>
    49e6:	2402      	movs	r4, #2
    49e8:	9409      	str	r4, [sp, #36]	; 0x24
    49ea:	9c0a      	ldr	r4, [sp, #40]	; 0x28
    49ec:	2501      	movs	r5, #1
    49ee:	44a9      	add	r9, r5
    49f0:	2c00      	cmp	r4, #0
    49f2:	dd00      	ble.n	49f6 <__kernel_rem_pio2+0x41e>
    49f4:	e6f6      	b.n	47e4 <__kernel_rem_pio2+0x20c>
    49f6:	2400      	movs	r4, #0
    49f8:	e729      	b.n	484e <__kernel_rem_pio2+0x276>
    49fa:	9d0b      	ldr	r5, [sp, #44]	; 0x2c
    49fc:	464c      	mov	r4, r9
    49fe:	426a      	negs	r2, r5
    4a00:	1c30      	adds	r0, r6, #0
    4a02:	1c39      	adds	r1, r7, #0
    4a04:	940f      	str	r4, [sp, #60]	; 0x3c
    4a06:	f000 fb67 	bl	50d8 <scalbn>
    4a0a:	4a6d      	ldr	r2, [pc, #436]	; (4bc0 <__kernel_rem_pio2+0x5e8>)
    4a0c:	4b6d      	ldr	r3, [pc, #436]	; (4bc4 <__kernel_rem_pio2+0x5ec>)
    4a0e:	1c04      	adds	r4, r0, #0
    4a10:	1c0d      	adds	r5, r1, #0
    4a12:	f000 fc85 	bl	5320 <__aeabi_dcmpge>
    4a16:	2800      	cmp	r0, #0
    4a18:	d100      	bne.n	4a1c <__kernel_rem_pio2+0x444>
    4a1a:	e1d3      	b.n	4dc4 <__kernel_rem_pio2+0x7ec>
    4a1c:	4a6a      	ldr	r2, [pc, #424]	; (4bc8 <__kernel_rem_pio2+0x5f0>)
    4a1e:	4b6b      	ldr	r3, [pc, #428]	; (4bcc <__kernel_rem_pio2+0x5f4>)
    4a20:	1c20      	adds	r0, r4, #0
    4a22:	1c29      	adds	r1, r5, #0
    4a24:	f7fd ff4c 	bl	28c0 <__aeabi_dmul>
    4a28:	f7fe f9da 	bl	2de0 <__aeabi_d2iz>
    4a2c:	1c06      	adds	r6, r0, #0
    4a2e:	980a      	ldr	r0, [sp, #40]	; 0x28
    4a30:	0087      	lsls	r7, r0, #2
    4a32:	1c30      	adds	r0, r6, #0
    4a34:	f7fe fa08 	bl	2e48 <__aeabi_i2d>
    4a38:	4a61      	ldr	r2, [pc, #388]	; (4bc0 <__kernel_rem_pio2+0x5e8>)
    4a3a:	4b62      	ldr	r3, [pc, #392]	; (4bc4 <__kernel_rem_pio2+0x5ec>)
    4a3c:	f7fd ff40 	bl	28c0 <__aeabi_dmul>
    4a40:	1c02      	adds	r2, r0, #0
    4a42:	1c0b      	adds	r3, r1, #0
    4a44:	1c20      	adds	r0, r4, #0
    4a46:	1c29      	adds	r1, r5, #0
    4a48:	f001 f8d6 	bl	5bf8 <__aeabi_dsub>
    4a4c:	f7fe f9c8 	bl	2de0 <__aeabi_d2iz>
    4a50:	9a0a      	ldr	r2, [sp, #40]	; 0x28
    4a52:	9c0b      	ldr	r4, [sp, #44]	; 0x2c
    4a54:	4690      	mov	r8, r2
    4a56:	2201      	movs	r2, #1
    4a58:	4490      	add	r8, r2
    4a5a:	4645      	mov	r5, r8
    4a5c:	a912      	add	r1, sp, #72	; 0x48
    4a5e:	3418      	adds	r4, #24
    4a60:	00ab      	lsls	r3, r5, #2
    4a62:	51c8      	str	r0, [r1, r7]
    4a64:	940b      	str	r4, [sp, #44]	; 0x2c
    4a66:	50ce      	str	r6, [r1, r3]
    4a68:	4851      	ldr	r0, [pc, #324]	; (4bb0 <__kernel_rem_pio2+0x5d8>)
    4a6a:	4952      	ldr	r1, [pc, #328]	; (4bb4 <__kernel_rem_pio2+0x5dc>)
    4a6c:	9a0b      	ldr	r2, [sp, #44]	; 0x2c
    4a6e:	f000 fb33 	bl	50d8 <scalbn>
    4a72:	4643      	mov	r3, r8
    4a74:	1c04      	adds	r4, r0, #0
    4a76:	1c0d      	adds	r5, r1, #0
    4a78:	2b00      	cmp	r3, #0
    4a7a:	db5c      	blt.n	4b36 <__kernel_rem_pio2+0x55e>
    4a7c:	990d      	ldr	r1, [sp, #52]	; 0x34
    4a7e:	009e      	lsls	r6, r3, #2
    4a80:	00db      	lsls	r3, r3, #3
    4a82:	a812      	add	r0, sp, #72	; 0x48
    4a84:	469b      	mov	r11, r3
    4a86:	1c0f      	adds	r7, r1, #0
    4a88:	1986      	adds	r6, r0, r6
    4a8a:	445f      	add	r7, r11
    4a8c:	6830      	ldr	r0, [r6, #0]
    4a8e:	f7fe f9db 	bl	2e48 <__aeabi_i2d>
    4a92:	1c22      	adds	r2, r4, #0
    4a94:	1c2b      	adds	r3, r5, #0
    4a96:	f7fd ff13 	bl	28c0 <__aeabi_dmul>
    4a9a:	4a4b      	ldr	r2, [pc, #300]	; (4bc8 <__kernel_rem_pio2+0x5f0>)
    4a9c:	4b4b      	ldr	r3, [pc, #300]	; (4bcc <__kernel_rem_pio2+0x5f4>)
    4a9e:	6038      	str	r0, [r7, #0]
    4aa0:	6079      	str	r1, [r7, #4]
    4aa2:	1c20      	adds	r0, r4, #0
    4aa4:	1c29      	adds	r1, r5, #0
    4aa6:	f7fd ff0b 	bl	28c0 <__aeabi_dmul>
    4aaa:	9a08      	ldr	r2, [sp, #32]
    4aac:	3e04      	subs	r6, #4
    4aae:	1c04      	adds	r4, r0, #0
    4ab0:	1c0d      	adds	r5, r1, #0
    4ab2:	3f08      	subs	r7, #8
    4ab4:	4296      	cmp	r6, r2
    4ab6:	d1e9      	bne.n	4a8c <__kernel_rem_pio2+0x4b4>
    4ab8:	9b0d      	ldr	r3, [sp, #52]	; 0x34
    4aba:	4645      	mov	r5, r8
    4abc:	1c1c      	adds	r4, r3, #0
    4abe:	445c      	add	r4, r11
    4ac0:	9a0c      	ldr	r2, [sp, #48]	; 0x30
    4ac2:	9404      	str	r4, [sp, #16]
    4ac4:	3501      	adds	r5, #1
    4ac6:	2000      	movs	r0, #0
    4ac8:	a94e      	add	r1, sp, #312	; 0x138
    4aca:	4644      	mov	r4, r8
    4acc:	9506      	str	r5, [sp, #24]
    4ace:	4683      	mov	r11, r0
    4ad0:	4689      	mov	r9, r1
    4ad2:	4692      	mov	r10, r2
    4ad4:	940a      	str	r4, [sp, #40]	; 0x28
    4ad6:	4650      	mov	r0, r10
    4ad8:	2800      	cmp	r0, #0
    4ada:	db60      	blt.n	4b9e <__kernel_rem_pio2+0x5c6>
    4adc:	493c      	ldr	r1, [pc, #240]	; (4bd0 <__kernel_rem_pio2+0x5f8>)
    4ade:	9f04      	ldr	r7, [sp, #16]
    4ae0:	4688      	mov	r8, r1
    4ae2:	4d32      	ldr	r5, [pc, #200]	; (4bac <__kernel_rem_pio2+0x5d4>)
    4ae4:	4c30      	ldr	r4, [pc, #192]	; (4ba8 <__kernel_rem_pio2+0x5d0>)
    4ae6:	2600      	movs	r6, #0
    4ae8:	e004      	b.n	4af4 <__kernel_rem_pio2+0x51c>
    4aea:	2308      	movs	r3, #8
    4aec:	4498      	add	r8, r3
    4aee:	3708      	adds	r7, #8
    4af0:	455e      	cmp	r6, r11
    4af2:	dc11      	bgt.n	4b18 <__kernel_rem_pio2+0x540>
    4af4:	4642      	mov	r2, r8
    4af6:	6810      	ldr	r0, [r2, #0]
    4af8:	6851      	ldr	r1, [r2, #4]
    4afa:	683a      	ldr	r2, [r7, #0]
    4afc:	687b      	ldr	r3, [r7, #4]
    4afe:	f7fd fedf 	bl	28c0 <__aeabi_dmul>
    4b02:	1c02      	adds	r2, r0, #0
    4b04:	1c0b      	adds	r3, r1, #0
    4b06:	1c20      	adds	r0, r4, #0
    4b08:	1c29      	adds	r1, r5, #0
    4b0a:	f000 fc13 	bl	5334 <__aeabi_dadd>
    4b0e:	3601      	adds	r6, #1
    4b10:	1c04      	adds	r4, r0, #0
    4b12:	1c0d      	adds	r5, r1, #0
    4b14:	45b2      	cmp	r10, r6
    4b16:	dae8      	bge.n	4aea <__kernel_rem_pio2+0x512>
    4b18:	4658      	mov	r0, r11
    4b1a:	00c3      	lsls	r3, r0, #3
    4b1c:	444b      	add	r3, r9
    4b1e:	601c      	str	r4, [r3, #0]
    4b20:	605d      	str	r5, [r3, #4]
    4b22:	9c04      	ldr	r4, [sp, #16]
    4b24:	2101      	movs	r1, #1
    4b26:	9d06      	ldr	r5, [sp, #24]
    4b28:	3c08      	subs	r4, #8
    4b2a:	448b      	add	r11, r1
    4b2c:	9404      	str	r4, [sp, #16]
    4b2e:	45ab      	cmp	r11, r5
    4b30:	d1d1      	bne.n	4ad6 <__kernel_rem_pio2+0x4fe>
    4b32:	9a0a      	ldr	r2, [sp, #40]	; 0x28
    4b34:	4690      	mov	r8, r2
    4b36:	9ca8      	ldr	r4, [sp, #672]	; 0x2a0
    4b38:	2c02      	cmp	r4, #2
    4b3a:	dc4b      	bgt.n	4bd4 <__kernel_rem_pio2+0x5fc>
    4b3c:	2c00      	cmp	r4, #0
    4b3e:	dd00      	ble.n	4b42 <__kernel_rem_pio2+0x56a>
    4b40:	e0df      	b.n	4d02 <__kernel_rem_pio2+0x72a>
    4b42:	d120      	bne.n	4b86 <__kernel_rem_pio2+0x5ae>
    4b44:	4643      	mov	r3, r8
    4b46:	2b00      	cmp	r3, #0
    4b48:	da00      	bge.n	4b4c <__kernel_rem_pio2+0x574>
    4b4a:	e15a      	b.n	4e02 <__kernel_rem_pio2+0x82a>
    4b4c:	00dc      	lsls	r4, r3, #3
    4b4e:	ad4e      	add	r5, sp, #312	; 0x138
    4b50:	192c      	adds	r4, r5, r4
    4b52:	ae4c      	add	r6, sp, #304	; 0x130
    4b54:	2500      	movs	r5, #0
    4b56:	2300      	movs	r3, #0
    4b58:	1c28      	adds	r0, r5, #0
    4b5a:	1c19      	adds	r1, r3, #0
    4b5c:	6822      	ldr	r2, [r4, #0]
    4b5e:	6863      	ldr	r3, [r4, #4]
    4b60:	f000 fbe8 	bl	5334 <__aeabi_dadd>
    4b64:	3c08      	subs	r4, #8
    4b66:	1c05      	adds	r5, r0, #0
    4b68:	1c0b      	adds	r3, r1, #0
    4b6a:	42b4      	cmp	r4, r6
    4b6c:	d1f4      	bne.n	4b58 <__kernel_rem_pio2+0x580>
    4b6e:	9c09      	ldr	r4, [sp, #36]	; 0x24
    4b70:	1c19      	adds	r1, r3, #0
    4b72:	2c00      	cmp	r4, #0
    4b74:	d002      	beq.n	4b7c <__kernel_rem_pio2+0x5a4>
    4b76:	2080      	movs	r0, #128	; 0x80
    4b78:	0600      	lsls	r0, r0, #24
    4b7a:	1819      	adds	r1, r3, r0
    4b7c:	9c0e      	ldr	r4, [sp, #56]	; 0x38
    4b7e:	1c2a      	adds	r2, r5, #0
    4b80:	1c0b      	adds	r3, r1, #0
    4b82:	6022      	str	r2, [r4, #0]
    4b84:	6063      	str	r3, [r4, #4]
    4b86:	9c0f      	ldr	r4, [sp, #60]	; 0x3c
    4b88:	2007      	movs	r0, #7
    4b8a:	4020      	ands	r0, r4
    4b8c:	239f      	movs	r3, #159	; 0x9f
    4b8e:	009b      	lsls	r3, r3, #2
    4b90:	449d      	add	sp, r3
    4b92:	bc3c      	pop	{r2, r3, r4, r5}
    4b94:	4690      	mov	r8, r2
    4b96:	4699      	mov	r9, r3
    4b98:	46a2      	mov	r10, r4
    4b9a:	46ab      	mov	r11, r5
    4b9c:	bdf0      	pop	{r4, r5, r6, r7, pc}
    4b9e:	4d03      	ldr	r5, [pc, #12]	; (4bac <__kernel_rem_pio2+0x5d4>)
    4ba0:	4c01      	ldr	r4, [pc, #4]	; (4ba8 <__kernel_rem_pio2+0x5d0>)
    4ba2:	e7b9      	b.n	4b18 <__kernel_rem_pio2+0x540>
    4ba4:	46c0      	nop			; (mov r8, r8)
    4ba6:	46c0      	nop			; (mov r8, r8)
	...
    4bb4:	3ff00000 	.word	0x3ff00000
    4bb8:	00000000 	.word	0x00000000
    4bbc:	3fe00000 	.word	0x3fe00000
    4bc0:	00000000 	.word	0x00000000
    4bc4:	41700000 	.word	0x41700000
    4bc8:	00000000 	.word	0x00000000
    4bcc:	3e700000 	.word	0x3e700000
    4bd0:	00006828 	.word	0x00006828
    4bd4:	9da8      	ldr	r5, [sp, #672]	; 0x2a0
    4bd6:	2d03      	cmp	r5, #3
    4bd8:	d1d5      	bne.n	4b86 <__kernel_rem_pio2+0x5ae>
    4bda:	4640      	mov	r0, r8
    4bdc:	2800      	cmp	r0, #0
    4bde:	dc00      	bgt.n	4be2 <__kernel_rem_pio2+0x60a>
    4be0:	e10a      	b.n	4df8 <__kernel_rem_pio2+0x820>
    4be2:	4640      	mov	r0, r8
    4be4:	ad4e      	add	r5, sp, #312	; 0x138
    4be6:	00c0      	lsls	r0, r0, #3
    4be8:	4683      	mov	r11, r0
    4bea:	1c2b      	adds	r3, r5, #0
    4bec:	445b      	add	r3, r11
    4bee:	681e      	ldr	r6, [r3, #0]
    4bf0:	685f      	ldr	r7, [r3, #4]
    4bf2:	4643      	mov	r3, r8
    4bf4:	3b01      	subs	r3, #1
    4bf6:	46a9      	mov	r9, r5
    4bf8:	00db      	lsls	r3, r3, #3
    4bfa:	444b      	add	r3, r9
    4bfc:	ac4c      	add	r4, sp, #304	; 0x130
    4bfe:	9304      	str	r3, [sp, #16]
    4c00:	940a      	str	r4, [sp, #40]	; 0x28
    4c02:	469a      	mov	r10, r3
    4c04:	e001      	b.n	4c0a <__kernel_rem_pio2+0x632>
    4c06:	1c26      	adds	r6, r4, #0
    4c08:	1c2f      	adds	r7, r5, #0
    4c0a:	4655      	mov	r5, r10
    4c0c:	682c      	ldr	r4, [r5, #0]
    4c0e:	686d      	ldr	r5, [r5, #4]
    4c10:	1c32      	adds	r2, r6, #0
    4c12:	1c20      	adds	r0, r4, #0
    4c14:	1c29      	adds	r1, r5, #0
    4c16:	1c3b      	adds	r3, r7, #0
    4c18:	9406      	str	r4, [sp, #24]
    4c1a:	9507      	str	r5, [sp, #28]
    4c1c:	f000 fb8a 	bl	5334 <__aeabi_dadd>
    4c20:	1c04      	adds	r4, r0, #0
    4c22:	1c0d      	adds	r5, r1, #0
    4c24:	1c22      	adds	r2, r4, #0
    4c26:	1c2b      	adds	r3, r5, #0
    4c28:	9806      	ldr	r0, [sp, #24]
    4c2a:	9907      	ldr	r1, [sp, #28]
    4c2c:	f000 ffe4 	bl	5bf8 <__aeabi_dsub>
    4c30:	1c32      	adds	r2, r6, #0
    4c32:	1c3b      	adds	r3, r7, #0
    4c34:	f000 fb7e 	bl	5334 <__aeabi_dadd>
    4c38:	4652      	mov	r2, r10
    4c3a:	6090      	str	r0, [r2, #8]
    4c3c:	60d1      	str	r1, [r2, #12]
    4c3e:	2008      	movs	r0, #8
    4c40:	4240      	negs	r0, r0
    4c42:	990a      	ldr	r1, [sp, #40]	; 0x28
    4c44:	4482      	add	r10, r0
    4c46:	6014      	str	r4, [r2, #0]
    4c48:	6055      	str	r5, [r2, #4]
    4c4a:	458a      	cmp	r10, r1
    4c4c:	d1db      	bne.n	4c06 <__kernel_rem_pio2+0x62e>
    4c4e:	4642      	mov	r2, r8
    4c50:	2700      	movs	r7, #0
    4c52:	2600      	movs	r6, #0
    4c54:	2a01      	cmp	r2, #1
    4c56:	dd3a      	ble.n	4cce <__kernel_rem_pio2+0x6f6>
    4c58:	464b      	mov	r3, r9
    4c5a:	9d04      	ldr	r5, [sp, #16]
    4c5c:	445b      	add	r3, r11
    4c5e:	681e      	ldr	r6, [r3, #0]
    4c60:	685f      	ldr	r7, [r3, #4]
    4c62:	46a8      	mov	r8, r5
    4c64:	e001      	b.n	4c6a <__kernel_rem_pio2+0x692>
    4c66:	1c26      	adds	r6, r4, #0
    4c68:	1c2f      	adds	r7, r5, #0
    4c6a:	4645      	mov	r5, r8
    4c6c:	682c      	ldr	r4, [r5, #0]
    4c6e:	686d      	ldr	r5, [r5, #4]
    4c70:	1c32      	adds	r2, r6, #0
    4c72:	1c20      	adds	r0, r4, #0
    4c74:	1c29      	adds	r1, r5, #0
    4c76:	1c3b      	adds	r3, r7, #0
    4c78:	9404      	str	r4, [sp, #16]
    4c7a:	9505      	str	r5, [sp, #20]
    4c7c:	f000 fb5a 	bl	5334 <__aeabi_dadd>
    4c80:	1c04      	adds	r4, r0, #0
    4c82:	1c0d      	adds	r5, r1, #0
    4c84:	1c22      	adds	r2, r4, #0
    4c86:	1c2b      	adds	r3, r5, #0
    4c88:	9804      	ldr	r0, [sp, #16]
    4c8a:	9905      	ldr	r1, [sp, #20]
    4c8c:	f000 ffb4 	bl	5bf8 <__aeabi_dsub>
    4c90:	1c32      	adds	r2, r6, #0
    4c92:	1c3b      	adds	r3, r7, #0
    4c94:	f000 fb4e 	bl	5334 <__aeabi_dadd>
    4c98:	4642      	mov	r2, r8
    4c9a:	6090      	str	r0, [r2, #8]
    4c9c:	60d1      	str	r1, [r2, #12]
    4c9e:	2008      	movs	r0, #8
    4ca0:	4240      	negs	r0, r0
    4ca2:	4480      	add	r8, r0
    4ca4:	6014      	str	r4, [r2, #0]
    4ca6:	6055      	str	r5, [r2, #4]
    4ca8:	45c1      	cmp	r9, r8
    4caa:	d1dc      	bne.n	4c66 <__kernel_rem_pio2+0x68e>
    4cac:	464c      	mov	r4, r9
    4cae:	464d      	mov	r5, r9
    4cb0:	445c      	add	r4, r11
    4cb2:	3508      	adds	r5, #8
    4cb4:	2700      	movs	r7, #0
    4cb6:	2600      	movs	r6, #0
    4cb8:	1c38      	adds	r0, r7, #0
    4cba:	1c31      	adds	r1, r6, #0
    4cbc:	6822      	ldr	r2, [r4, #0]
    4cbe:	6863      	ldr	r3, [r4, #4]
    4cc0:	f000 fb38 	bl	5334 <__aeabi_dadd>
    4cc4:	3c08      	subs	r4, #8
    4cc6:	1c07      	adds	r7, r0, #0
    4cc8:	1c0e      	adds	r6, r1, #0
    4cca:	42ac      	cmp	r4, r5
    4ccc:	d1f4      	bne.n	4cb8 <__kernel_rem_pio2+0x6e0>
    4cce:	9c09      	ldr	r4, [sp, #36]	; 0x24
    4cd0:	2c00      	cmp	r4, #0
    4cd2:	d100      	bne.n	4cd6 <__kernel_rem_pio2+0x6fe>
    4cd4:	e081      	b.n	4dda <__kernel_rem_pio2+0x802>
    4cd6:	9c0e      	ldr	r4, [sp, #56]	; 0x38
    4cd8:	984e      	ldr	r0, [sp, #312]	; 0x138
    4cda:	464d      	mov	r5, r9
    4cdc:	6020      	str	r0, [r4, #0]
    4cde:	686d      	ldr	r5, [r5, #4]
    4ce0:	2080      	movs	r0, #128	; 0x80
    4ce2:	0600      	lsls	r0, r0, #24
    4ce4:	182b      	adds	r3, r5, r0
    4ce6:	4649      	mov	r1, r9
    4ce8:	6063      	str	r3, [r4, #4]
    4cea:	4648      	mov	r0, r9
    4cec:	68cb      	ldr	r3, [r1, #12]
    4cee:	2280      	movs	r2, #128	; 0x80
    4cf0:	0612      	lsls	r2, r2, #24
    4cf2:	6880      	ldr	r0, [r0, #8]
    4cf4:	189b      	adds	r3, r3, r2
    4cf6:	18b6      	adds	r6, r6, r2
    4cf8:	60a0      	str	r0, [r4, #8]
    4cfa:	60e3      	str	r3, [r4, #12]
    4cfc:	6127      	str	r7, [r4, #16]
    4cfe:	6166      	str	r6, [r4, #20]
    4d00:	e741      	b.n	4b86 <__kernel_rem_pio2+0x5ae>
    4d02:	4642      	mov	r2, r8
    4d04:	2500      	movs	r5, #0
    4d06:	2400      	movs	r4, #0
    4d08:	2a00      	cmp	r2, #0
    4d0a:	db10      	blt.n	4d2e <__kernel_rem_pio2+0x756>
    4d0c:	00d3      	lsls	r3, r2, #3
    4d0e:	a84e      	add	r0, sp, #312	; 0x138
    4d10:	18c6      	adds	r6, r0, r3
    4d12:	af4c      	add	r7, sp, #304	; 0x130
    4d14:	2500      	movs	r5, #0
    4d16:	2400      	movs	r4, #0
    4d18:	1c28      	adds	r0, r5, #0
    4d1a:	1c21      	adds	r1, r4, #0
    4d1c:	6832      	ldr	r2, [r6, #0]
    4d1e:	6873      	ldr	r3, [r6, #4]
    4d20:	f000 fb08 	bl	5334 <__aeabi_dadd>
    4d24:	3e08      	subs	r6, #8
    4d26:	1c05      	adds	r5, r0, #0
    4d28:	1c0c      	adds	r4, r1, #0
    4d2a:	42be      	cmp	r6, r7
    4d2c:	d1f4      	bne.n	4d18 <__kernel_rem_pio2+0x740>
    4d2e:	9a09      	ldr	r2, [sp, #36]	; 0x24
    4d30:	1c21      	adds	r1, r4, #0
    4d32:	2a00      	cmp	r2, #0
    4d34:	d002      	beq.n	4d3c <__kernel_rem_pio2+0x764>
    4d36:	2380      	movs	r3, #128	; 0x80
    4d38:	061b      	lsls	r3, r3, #24
    4d3a:	18e1      	adds	r1, r4, r3
    4d3c:	980e      	ldr	r0, [sp, #56]	; 0x38
    4d3e:	1c0b      	adds	r3, r1, #0
    4d40:	1c2a      	adds	r2, r5, #0
    4d42:	6002      	str	r2, [r0, #0]
    4d44:	6043      	str	r3, [r0, #4]
    4d46:	984e      	ldr	r0, [sp, #312]	; 0x138
    4d48:	994f      	ldr	r1, [sp, #316]	; 0x13c
    4d4a:	1c2a      	adds	r2, r5, #0
    4d4c:	1c23      	adds	r3, r4, #0
    4d4e:	f000 ff53 	bl	5bf8 <__aeabi_dsub>
    4d52:	4642      	mov	r2, r8
    4d54:	2a00      	cmp	r2, #0
    4d56:	dd07      	ble.n	4d68 <__kernel_rem_pio2+0x790>
    4d58:	ac50      	add	r4, sp, #320	; 0x140
    4d5a:	00d5      	lsls	r5, r2, #3
    4d5c:	1965      	adds	r5, r4, r5
    4d5e:	cc0c      	ldmia	r4!, {r2, r3}
    4d60:	f000 fae8 	bl	5334 <__aeabi_dadd>
    4d64:	42ac      	cmp	r4, r5
    4d66:	d1fa      	bne.n	4d5e <__kernel_rem_pio2+0x786>
    4d68:	9c09      	ldr	r4, [sp, #36]	; 0x24
    4d6a:	2c00      	cmp	r4, #0
    4d6c:	d002      	beq.n	4d74 <__kernel_rem_pio2+0x79c>
    4d6e:	2580      	movs	r5, #128	; 0x80
    4d70:	062d      	lsls	r5, r5, #24
    4d72:	1949      	adds	r1, r1, r5
    4d74:	9c0e      	ldr	r4, [sp, #56]	; 0x38
    4d76:	1c02      	adds	r2, r0, #0
    4d78:	1c0b      	adds	r3, r1, #0
    4d7a:	60a2      	str	r2, [r4, #8]
    4d7c:	60e3      	str	r3, [r4, #12]
    4d7e:	e702      	b.n	4b86 <__kernel_rem_pio2+0x5ae>
    4d80:	9d0b      	ldr	r5, [sp, #44]	; 0x2c
    4d82:	4680      	mov	r8, r0
    4d84:	a812      	add	r0, sp, #72	; 0x48
    4d86:	5843      	ldr	r3, [r0, r1]
    4d88:	464c      	mov	r4, r9
    4d8a:	3d18      	subs	r5, #24
    4d8c:	940f      	str	r4, [sp, #60]	; 0x3c
    4d8e:	950b      	str	r5, [sp, #44]	; 0x2c
    4d90:	2b00      	cmp	r3, #0
    4d92:	d000      	beq.n	4d96 <__kernel_rem_pio2+0x7be>
    4d94:	e668      	b.n	4a68 <__kernel_rem_pio2+0x490>
    4d96:	4642      	mov	r2, r8
    4d98:	3a01      	subs	r2, #1
    4d9a:	0093      	lsls	r3, r2, #2
    4d9c:	18c3      	adds	r3, r0, r3
    4d9e:	1c29      	adds	r1, r5, #0
    4da0:	e000      	b.n	4da4 <__kernel_rem_pio2+0x7cc>
    4da2:	3a01      	subs	r2, #1
    4da4:	3b04      	subs	r3, #4
    4da6:	685d      	ldr	r5, [r3, #4]
    4da8:	3918      	subs	r1, #24
    4daa:	2d00      	cmp	r5, #0
    4dac:	d0f9      	beq.n	4da2 <__kernel_rem_pio2+0x7ca>
    4dae:	4690      	mov	r8, r2
    4db0:	910b      	str	r1, [sp, #44]	; 0x2c
    4db2:	e659      	b.n	4a68 <__kernel_rem_pio2+0x490>
    4db4:	2201      	movs	r2, #1
    4db6:	e58d      	b.n	48d4 <__kernel_rem_pio2+0x2fc>
    4db8:	9d10      	ldr	r5, [sp, #64]	; 0x40
    4dba:	ac76      	add	r4, sp, #472	; 0x1d8
    4dbc:	00ed      	lsls	r5, r5, #3
    4dbe:	46ab      	mov	r11, r5
    4dc0:	940d      	str	r4, [sp, #52]	; 0x34
    4dc2:	e483      	b.n	46cc <__kernel_rem_pio2+0xf4>
    4dc4:	980a      	ldr	r0, [sp, #40]	; 0x28
    4dc6:	1c29      	adds	r1, r5, #0
    4dc8:	0086      	lsls	r6, r0, #2
    4dca:	1c20      	adds	r0, r4, #0
    4dcc:	f7fe f808 	bl	2de0 <__aeabi_d2iz>
    4dd0:	9a0a      	ldr	r2, [sp, #40]	; 0x28
    4dd2:	a912      	add	r1, sp, #72	; 0x48
    4dd4:	5188      	str	r0, [r1, r6]
    4dd6:	4690      	mov	r8, r2
    4dd8:	e646      	b.n	4a68 <__kernel_rem_pio2+0x490>
    4dda:	9c0e      	ldr	r4, [sp, #56]	; 0x38
    4ddc:	984e      	ldr	r0, [sp, #312]	; 0x138
    4dde:	994f      	ldr	r1, [sp, #316]	; 0x13c
    4de0:	1c3a      	adds	r2, r7, #0
    4de2:	6020      	str	r0, [r4, #0]
    4de4:	6061      	str	r1, [r4, #4]
    4de6:	1c33      	adds	r3, r6, #0
    4de8:	4649      	mov	r1, r9
    4dea:	6888      	ldr	r0, [r1, #8]
    4dec:	68c9      	ldr	r1, [r1, #12]
    4dee:	6122      	str	r2, [r4, #16]
    4df0:	6163      	str	r3, [r4, #20]
    4df2:	60a0      	str	r0, [r4, #8]
    4df4:	60e1      	str	r1, [r4, #12]
    4df6:	e6c6      	b.n	4b86 <__kernel_rem_pio2+0x5ae>
    4df8:	a94e      	add	r1, sp, #312	; 0x138
    4dfa:	2700      	movs	r7, #0
    4dfc:	2600      	movs	r6, #0
    4dfe:	4689      	mov	r9, r1
    4e00:	e765      	b.n	4cce <__kernel_rem_pio2+0x6f6>
    4e02:	2500      	movs	r5, #0
    4e04:	2300      	movs	r3, #0
    4e06:	e6b2      	b.n	4b6e <__kernel_rem_pio2+0x596>

00004e08 <__kernel_sin>:
    4e08:	b5f0      	push	{r4, r5, r6, r7, lr}
    4e0a:	b089      	sub	sp, #36	; 0x24
    4e0c:	9204      	str	r2, [sp, #16]
    4e0e:	9305      	str	r3, [sp, #20]
    4e10:	4b51      	ldr	r3, [pc, #324]	; (4f58 <__kernel_sin+0x150>)
    4e12:	004a      	lsls	r2, r1, #1
    4e14:	1c06      	adds	r6, r0, #0
    4e16:	1c0f      	adds	r7, r1, #0
    4e18:	0852      	lsrs	r2, r2, #1
    4e1a:	429a      	cmp	r2, r3
    4e1c:	dc06      	bgt.n	4e2c <__kernel_sin+0x24>
    4e1e:	f7fd ffdf 	bl	2de0 <__aeabi_d2iz>
    4e22:	1c39      	adds	r1, r7, #0
    4e24:	1c03      	adds	r3, r0, #0
    4e26:	1c30      	adds	r0, r6, #0
    4e28:	2b00      	cmp	r3, #0
    4e2a:	d064      	beq.n	4ef6 <__kernel_sin+0xee>
    4e2c:	1c32      	adds	r2, r6, #0
    4e2e:	1c3b      	adds	r3, r7, #0
    4e30:	1c30      	adds	r0, r6, #0
    4e32:	1c39      	adds	r1, r7, #0
    4e34:	f7fd fd44 	bl	28c0 <__aeabi_dmul>
    4e38:	1c32      	adds	r2, r6, #0
    4e3a:	1c3b      	adds	r3, r7, #0
    4e3c:	1c04      	adds	r4, r0, #0
    4e3e:	1c0d      	adds	r5, r1, #0
    4e40:	f7fd fd3e 	bl	28c0 <__aeabi_dmul>
    4e44:	4b37      	ldr	r3, [pc, #220]	; (4f24 <__kernel_sin+0x11c>)
    4e46:	4a36      	ldr	r2, [pc, #216]	; (4f20 <__kernel_sin+0x118>)
    4e48:	9002      	str	r0, [sp, #8]
    4e4a:	9103      	str	r1, [sp, #12]
    4e4c:	1c20      	adds	r0, r4, #0
    4e4e:	1c29      	adds	r1, r5, #0
    4e50:	f7fd fd36 	bl	28c0 <__aeabi_dmul>
    4e54:	4a34      	ldr	r2, [pc, #208]	; (4f28 <__kernel_sin+0x120>)
    4e56:	4b35      	ldr	r3, [pc, #212]	; (4f2c <__kernel_sin+0x124>)
    4e58:	f000 fece 	bl	5bf8 <__aeabi_dsub>
    4e5c:	1c22      	adds	r2, r4, #0
    4e5e:	1c2b      	adds	r3, r5, #0
    4e60:	f7fd fd2e 	bl	28c0 <__aeabi_dmul>
    4e64:	4a32      	ldr	r2, [pc, #200]	; (4f30 <__kernel_sin+0x128>)
    4e66:	4b33      	ldr	r3, [pc, #204]	; (4f34 <__kernel_sin+0x12c>)
    4e68:	f000 fa64 	bl	5334 <__aeabi_dadd>
    4e6c:	1c22      	adds	r2, r4, #0
    4e6e:	1c2b      	adds	r3, r5, #0
    4e70:	f7fd fd26 	bl	28c0 <__aeabi_dmul>
    4e74:	4a30      	ldr	r2, [pc, #192]	; (4f38 <__kernel_sin+0x130>)
    4e76:	4b31      	ldr	r3, [pc, #196]	; (4f3c <__kernel_sin+0x134>)
    4e78:	f000 febe 	bl	5bf8 <__aeabi_dsub>
    4e7c:	1c22      	adds	r2, r4, #0
    4e7e:	1c2b      	adds	r3, r5, #0
    4e80:	f7fd fd1e 	bl	28c0 <__aeabi_dmul>
    4e84:	4a2e      	ldr	r2, [pc, #184]	; (4f40 <__kernel_sin+0x138>)
    4e86:	4b2f      	ldr	r3, [pc, #188]	; (4f44 <__kernel_sin+0x13c>)
    4e88:	f000 fa54 	bl	5334 <__aeabi_dadd>
    4e8c:	9b0e      	ldr	r3, [sp, #56]	; 0x38
    4e8e:	9006      	str	r0, [sp, #24]
    4e90:	9107      	str	r1, [sp, #28]
    4e92:	2b00      	cmp	r3, #0
    4e94:	d031      	beq.n	4efa <__kernel_sin+0xf2>
    4e96:	4a2c      	ldr	r2, [pc, #176]	; (4f48 <__kernel_sin+0x140>)
    4e98:	4b2c      	ldr	r3, [pc, #176]	; (4f4c <__kernel_sin+0x144>)
    4e9a:	9804      	ldr	r0, [sp, #16]
    4e9c:	9905      	ldr	r1, [sp, #20]
    4e9e:	f7fd fd0f 	bl	28c0 <__aeabi_dmul>
    4ea2:	9a06      	ldr	r2, [sp, #24]
    4ea4:	9b07      	ldr	r3, [sp, #28]
    4ea6:	9000      	str	r0, [sp, #0]
    4ea8:	9101      	str	r1, [sp, #4]
    4eaa:	9802      	ldr	r0, [sp, #8]
    4eac:	9903      	ldr	r1, [sp, #12]
    4eae:	f7fd fd07 	bl	28c0 <__aeabi_dmul>
    4eb2:	1c02      	adds	r2, r0, #0
    4eb4:	1c0b      	adds	r3, r1, #0
    4eb6:	9800      	ldr	r0, [sp, #0]
    4eb8:	9901      	ldr	r1, [sp, #4]
    4eba:	f000 fe9d 	bl	5bf8 <__aeabi_dsub>
    4ebe:	1c22      	adds	r2, r4, #0
    4ec0:	1c2b      	adds	r3, r5, #0
    4ec2:	f7fd fcfd 	bl	28c0 <__aeabi_dmul>
    4ec6:	9a04      	ldr	r2, [sp, #16]
    4ec8:	9b05      	ldr	r3, [sp, #20]
    4eca:	f000 fe95 	bl	5bf8 <__aeabi_dsub>
    4ece:	4a20      	ldr	r2, [pc, #128]	; (4f50 <__kernel_sin+0x148>)
    4ed0:	4b20      	ldr	r3, [pc, #128]	; (4f54 <__kernel_sin+0x14c>)
    4ed2:	1c04      	adds	r4, r0, #0
    4ed4:	1c0d      	adds	r5, r1, #0
    4ed6:	9802      	ldr	r0, [sp, #8]
    4ed8:	9903      	ldr	r1, [sp, #12]
    4eda:	f7fd fcf1 	bl	28c0 <__aeabi_dmul>
    4ede:	1c02      	adds	r2, r0, #0
    4ee0:	1c0b      	adds	r3, r1, #0
    4ee2:	1c20      	adds	r0, r4, #0
    4ee4:	1c29      	adds	r1, r5, #0
    4ee6:	f000 fa25 	bl	5334 <__aeabi_dadd>
    4eea:	1c02      	adds	r2, r0, #0
    4eec:	1c0b      	adds	r3, r1, #0
    4eee:	1c30      	adds	r0, r6, #0
    4ef0:	1c39      	adds	r1, r7, #0
    4ef2:	f000 fe81 	bl	5bf8 <__aeabi_dsub>
    4ef6:	b009      	add	sp, #36	; 0x24
    4ef8:	bdf0      	pop	{r4, r5, r6, r7, pc}
    4efa:	9a06      	ldr	r2, [sp, #24]
    4efc:	9b07      	ldr	r3, [sp, #28]
    4efe:	1c20      	adds	r0, r4, #0
    4f00:	1c29      	adds	r1, r5, #0
    4f02:	f7fd fcdd 	bl	28c0 <__aeabi_dmul>
    4f06:	4a12      	ldr	r2, [pc, #72]	; (4f50 <__kernel_sin+0x148>)
    4f08:	4b12      	ldr	r3, [pc, #72]	; (4f54 <__kernel_sin+0x14c>)
    4f0a:	f000 fe75 	bl	5bf8 <__aeabi_dsub>
    4f0e:	9a02      	ldr	r2, [sp, #8]
    4f10:	9b03      	ldr	r3, [sp, #12]
    4f12:	f7fd fcd5 	bl	28c0 <__aeabi_dmul>
    4f16:	1c32      	adds	r2, r6, #0
    4f18:	1c3b      	adds	r3, r7, #0
    4f1a:	f000 fa0b 	bl	5334 <__aeabi_dadd>
    4f1e:	e7ea      	b.n	4ef6 <__kernel_sin+0xee>
    4f20:	5acfd57c 	.word	0x5acfd57c
    4f24:	3de5d93a 	.word	0x3de5d93a
    4f28:	8a2b9ceb 	.word	0x8a2b9ceb
    4f2c:	3e5ae5e6 	.word	0x3e5ae5e6
    4f30:	57b1fe7d 	.word	0x57b1fe7d
    4f34:	3ec71de3 	.word	0x3ec71de3
    4f38:	19c161d5 	.word	0x19c161d5
    4f3c:	3f2a01a0 	.word	0x3f2a01a0
    4f40:	1110f8a6 	.word	0x1110f8a6
    4f44:	3f811111 	.word	0x3f811111
    4f48:	00000000 	.word	0x00000000
    4f4c:	3fe00000 	.word	0x3fe00000
    4f50:	55555549 	.word	0x55555549
    4f54:	3fc55555 	.word	0x3fc55555
    4f58:	3e3fffff 	.word	0x3e3fffff
    4f5c:	46c0      	nop			; (mov r8, r8)
    4f5e:	46c0      	nop			; (mov r8, r8)

00004f60 <fabs>:
    4f60:	004b      	lsls	r3, r1, #1
    4f62:	0859      	lsrs	r1, r3, #1
    4f64:	4770      	bx	lr
    4f66:	46c0      	nop			; (mov r8, r8)

00004f68 <floor>:
    4f68:	b5f0      	push	{r4, r5, r6, r7, lr}
    4f6a:	4656      	mov	r6, r10
    4f6c:	464d      	mov	r5, r9
    4f6e:	4644      	mov	r4, r8
    4f70:	465f      	mov	r7, r11
    4f72:	b4f0      	push	{r4, r5, r6, r7}
    4f74:	4a52      	ldr	r2, [pc, #328]	; (50c0 <floor+0x158>)
    4f76:	004f      	lsls	r7, r1, #1
    4f78:	0d7f      	lsrs	r7, r7, #21
    4f7a:	b083      	sub	sp, #12
    4f7c:	18be      	adds	r6, r7, r2
    4f7e:	1c04      	adds	r4, r0, #0
    4f80:	1c0d      	adds	r5, r1, #0
    4f82:	4689      	mov	r9, r1
    4f84:	468a      	mov	r10, r1
    4f86:	4680      	mov	r8, r0
    4f88:	9701      	str	r7, [sp, #4]
    4f8a:	2e13      	cmp	r6, #19
    4f8c:	dc2a      	bgt.n	4fe4 <floor+0x7c>
    4f8e:	2e00      	cmp	r6, #0
    4f90:	db56      	blt.n	5040 <floor+0xd8>
    4f92:	4f4c      	ldr	r7, [pc, #304]	; (50c4 <floor+0x15c>)
    4f94:	1c02      	adds	r2, r0, #0
    4f96:	4137      	asrs	r7, r6
    4f98:	1c3b      	adds	r3, r7, #0
    4f9a:	400b      	ands	r3, r1
    4f9c:	4303      	orrs	r3, r0
    4f9e:	469c      	mov	r12, r3
    4fa0:	46bb      	mov	r11, r7
    4fa2:	4667      	mov	r7, r12
    4fa4:	1c0b      	adds	r3, r1, #0
    4fa6:	2f00      	cmp	r7, #0
    4fa8:	d013      	beq.n	4fd2 <floor+0x6a>
    4faa:	4b42      	ldr	r3, [pc, #264]	; (50b4 <floor+0x14c>)
    4fac:	4a40      	ldr	r2, [pc, #256]	; (50b0 <floor+0x148>)
    4fae:	f000 f9c1 	bl	5334 <__aeabi_dadd>
    4fb2:	4a41      	ldr	r2, [pc, #260]	; (50b8 <floor+0x150>)
    4fb4:	4b41      	ldr	r3, [pc, #260]	; (50bc <floor+0x154>)
    4fb6:	f000 f9a9 	bl	530c <__aeabi_dcmpgt>
    4fba:	2800      	cmp	r0, #0
    4fbc:	d007      	beq.n	4fce <floor+0x66>
    4fbe:	2d00      	cmp	r5, #0
    4fc0:	db4e      	blt.n	5060 <floor+0xf8>
    4fc2:	4653      	mov	r3, r10
    4fc4:	465f      	mov	r7, r11
    4fc6:	43bb      	bics	r3, r7
    4fc8:	2200      	movs	r2, #0
    4fca:	4699      	mov	r9, r3
    4fcc:	4690      	mov	r8, r2
    4fce:	464b      	mov	r3, r9
    4fd0:	4642      	mov	r2, r8
    4fd2:	1c10      	adds	r0, r2, #0
    4fd4:	1c19      	adds	r1, r3, #0
    4fd6:	b003      	add	sp, #12
    4fd8:	bc3c      	pop	{r2, r3, r4, r5}
    4fda:	4690      	mov	r8, r2
    4fdc:	4699      	mov	r9, r3
    4fde:	46a2      	mov	r10, r4
    4fe0:	46ab      	mov	r11, r5
    4fe2:	bdf0      	pop	{r4, r5, r6, r7, pc}
    4fe4:	2e33      	cmp	r6, #51	; 0x33
    4fe6:	dd0b      	ble.n	5000 <floor+0x98>
    4fe8:	1c0b      	adds	r3, r1, #0
    4fea:	2180      	movs	r1, #128	; 0x80
    4fec:	1c02      	adds	r2, r0, #0
    4fee:	00c9      	lsls	r1, r1, #3
    4ff0:	428e      	cmp	r6, r1
    4ff2:	d1ee      	bne.n	4fd2 <floor+0x6a>
    4ff4:	1c29      	adds	r1, r5, #0
    4ff6:	f000 f99d 	bl	5334 <__aeabi_dadd>
    4ffa:	1c02      	adds	r2, r0, #0
    4ffc:	1c0b      	adds	r3, r1, #0
    4ffe:	e7e8      	b.n	4fd2 <floor+0x6a>
    5000:	9f01      	ldr	r7, [sp, #4]
    5002:	4a31      	ldr	r2, [pc, #196]	; (50c8 <floor+0x160>)
    5004:	18bb      	adds	r3, r7, r2
    5006:	2201      	movs	r2, #1
    5008:	4252      	negs	r2, r2
    500a:	40da      	lsrs	r2, r3
    500c:	4693      	mov	r11, r2
    500e:	465f      	mov	r7, r11
    5010:	1c02      	adds	r2, r0, #0
    5012:	1c0b      	adds	r3, r1, #0
    5014:	4207      	tst	r7, r0
    5016:	d0dc      	beq.n	4fd2 <floor+0x6a>
    5018:	4b26      	ldr	r3, [pc, #152]	; (50b4 <floor+0x14c>)
    501a:	4a25      	ldr	r2, [pc, #148]	; (50b0 <floor+0x148>)
    501c:	f000 f98a 	bl	5334 <__aeabi_dadd>
    5020:	4a25      	ldr	r2, [pc, #148]	; (50b8 <floor+0x150>)
    5022:	4b26      	ldr	r3, [pc, #152]	; (50bc <floor+0x154>)
    5024:	f000 f972 	bl	530c <__aeabi_dcmpgt>
    5028:	2800      	cmp	r0, #0
    502a:	d0d0      	beq.n	4fce <floor+0x66>
    502c:	2d00      	cmp	r5, #0
    502e:	db1d      	blt.n	506c <floor+0x104>
    5030:	4642      	mov	r2, r8
    5032:	465b      	mov	r3, r11
    5034:	439a      	bics	r2, r3
    5036:	4690      	mov	r8, r2
    5038:	46d1      	mov	r9, r10
    503a:	464b      	mov	r3, r9
    503c:	4642      	mov	r2, r8
    503e:	e7c8      	b.n	4fd2 <floor+0x6a>
    5040:	4b1c      	ldr	r3, [pc, #112]	; (50b4 <floor+0x14c>)
    5042:	4a1b      	ldr	r2, [pc, #108]	; (50b0 <floor+0x148>)
    5044:	f000 f976 	bl	5334 <__aeabi_dadd>
    5048:	4a1b      	ldr	r2, [pc, #108]	; (50b8 <floor+0x150>)
    504a:	4b1c      	ldr	r3, [pc, #112]	; (50bc <floor+0x154>)
    504c:	f000 f95e 	bl	530c <__aeabi_dcmpgt>
    5050:	2800      	cmp	r0, #0
    5052:	d0bc      	beq.n	4fce <floor+0x66>
    5054:	2d00      	cmp	r5, #0
    5056:	db17      	blt.n	5088 <floor+0x120>
    5058:	2700      	movs	r7, #0
    505a:	46b8      	mov	r8, r7
    505c:	46b9      	mov	r9, r7
    505e:	e7b6      	b.n	4fce <floor+0x66>
    5060:	2380      	movs	r3, #128	; 0x80
    5062:	035b      	lsls	r3, r3, #13
    5064:	4133      	asrs	r3, r6
    5066:	195e      	adds	r6, r3, r5
    5068:	46b2      	mov	r10, r6
    506a:	e7aa      	b.n	4fc2 <floor+0x5a>
    506c:	2e14      	cmp	r6, #20
    506e:	d019      	beq.n	50a4 <floor+0x13c>
    5070:	4b16      	ldr	r3, [pc, #88]	; (50cc <floor+0x164>)
    5072:	9a01      	ldr	r2, [sp, #4]
    5074:	1a9f      	subs	r7, r3, r2
    5076:	2301      	movs	r3, #1
    5078:	40bb      	lsls	r3, r7
    507a:	191b      	adds	r3, r3, r4
    507c:	429c      	cmp	r4, r3
    507e:	d90f      	bls.n	50a0 <floor+0x138>
    5080:	1c6f      	adds	r7, r5, #1
    5082:	46ba      	mov	r10, r7
    5084:	4698      	mov	r8, r3
    5086:	e7d3      	b.n	5030 <floor+0xc8>
    5088:	006b      	lsls	r3, r5, #1
    508a:	085b      	lsrs	r3, r3, #1
    508c:	431c      	orrs	r4, r3
    508e:	d102      	bne.n	5096 <floor+0x12e>
    5090:	2700      	movs	r7, #0
    5092:	46b8      	mov	r8, r7
    5094:	e79b      	b.n	4fce <floor+0x66>
    5096:	4f0e      	ldr	r7, [pc, #56]	; (50d0 <floor+0x168>)
    5098:	2300      	movs	r3, #0
    509a:	4698      	mov	r8, r3
    509c:	46b9      	mov	r9, r7
    509e:	e796      	b.n	4fce <floor+0x66>
    50a0:	4698      	mov	r8, r3
    50a2:	e7c5      	b.n	5030 <floor+0xc8>
    50a4:	1c6b      	adds	r3, r5, #1
    50a6:	469a      	mov	r10, r3
    50a8:	e7c2      	b.n	5030 <floor+0xc8>
    50aa:	46c0      	nop			; (mov r8, r8)
    50ac:	46c0      	nop			; (mov r8, r8)
    50ae:	46c0      	nop			; (mov r8, r8)
    50b0:	8800759c 	.word	0x8800759c
    50b4:	7e37e43c 	.word	0x7e37e43c
	...
    50c0:	fffffc01 	.word	0xfffffc01
    50c4:	000fffff 	.word	0x000fffff
    50c8:	fffffbed 	.word	0xfffffbed
    50cc:	00000433 	.word	0x00000433
    50d0:	bff00000 	.word	0xbff00000
    50d4:	46c0      	nop			; (mov r8, r8)
    50d6:	46c0      	nop			; (mov r8, r8)

000050d8 <scalbn>:
    50d8:	b5f8      	push	{r3, r4, r5, r6, r7, lr}
    50da:	4e3d      	ldr	r6, [pc, #244]	; (51d0 <scalbn+0xf8>)
    50dc:	1c17      	adds	r7, r2, #0
    50de:	1c33      	adds	r3, r6, #0
    50e0:	400b      	ands	r3, r1
    50e2:	1c04      	adds	r4, r0, #0
    50e4:	1c0d      	adds	r5, r1, #0
    50e6:	1c0a      	adds	r2, r1, #0
    50e8:	151b      	asrs	r3, r3, #20
    50ea:	d125      	bne.n	5138 <scalbn+0x60>
    50ec:	004b      	lsls	r3, r1, #1
    50ee:	085b      	lsrs	r3, r3, #1
    50f0:	4318      	orrs	r0, r3
    50f2:	d01e      	beq.n	5132 <scalbn+0x5a>
    50f4:	1c20      	adds	r0, r4, #0
    50f6:	1c29      	adds	r1, r5, #0
    50f8:	4b2e      	ldr	r3, [pc, #184]	; (51b4 <scalbn+0xdc>)
    50fa:	4a2d      	ldr	r2, [pc, #180]	; (51b0 <scalbn+0xd8>)
    50fc:	f7fd fbe0 	bl	28c0 <__aeabi_dmul>
    5100:	4b34      	ldr	r3, [pc, #208]	; (51d4 <scalbn+0xfc>)
    5102:	1c04      	adds	r4, r0, #0
    5104:	1c0d      	adds	r5, r1, #0
    5106:	429f      	cmp	r7, r3
    5108:	db31      	blt.n	516e <scalbn+0x96>
    510a:	400e      	ands	r6, r1
    510c:	1533      	asrs	r3, r6, #20
    510e:	1c0a      	adds	r2, r1, #0
    5110:	3b36      	subs	r3, #54	; 0x36
    5112:	4931      	ldr	r1, [pc, #196]	; (51d8 <scalbn+0x100>)
    5114:	19db      	adds	r3, r3, r7
    5116:	428b      	cmp	r3, r1
    5118:	dd15      	ble.n	5146 <scalbn+0x6e>
    511a:	1c22      	adds	r2, r4, #0
    511c:	1c2b      	adds	r3, r5, #0
    511e:	4826      	ldr	r0, [pc, #152]	; (51b8 <scalbn+0xe0>)
    5120:	4926      	ldr	r1, [pc, #152]	; (51bc <scalbn+0xe4>)
    5122:	f000 f861 	bl	51e8 <copysign>
    5126:	4a24      	ldr	r2, [pc, #144]	; (51b8 <scalbn+0xe0>)
    5128:	4b24      	ldr	r3, [pc, #144]	; (51bc <scalbn+0xe4>)
    512a:	f7fd fbc9 	bl	28c0 <__aeabi_dmul>
    512e:	1c04      	adds	r4, r0, #0
    5130:	1c0d      	adds	r5, r1, #0
    5132:	1c29      	adds	r1, r5, #0
    5134:	1c20      	adds	r0, r4, #0
    5136:	bdf8      	pop	{r3, r4, r5, r6, r7, pc}
    5138:	4928      	ldr	r1, [pc, #160]	; (51dc <scalbn+0x104>)
    513a:	428b      	cmp	r3, r1
    513c:	d01e      	beq.n	517c <scalbn+0xa4>
    513e:	4926      	ldr	r1, [pc, #152]	; (51d8 <scalbn+0x100>)
    5140:	19db      	adds	r3, r3, r7
    5142:	428b      	cmp	r3, r1
    5144:	dce9      	bgt.n	511a <scalbn+0x42>
    5146:	2b00      	cmp	r3, #0
    5148:	dd05      	ble.n	5156 <scalbn+0x7e>
    514a:	4925      	ldr	r1, [pc, #148]	; (51e0 <scalbn+0x108>)
    514c:	051b      	lsls	r3, r3, #20
    514e:	400a      	ands	r2, r1
    5150:	1c1d      	adds	r5, r3, #0
    5152:	4315      	orrs	r5, r2
    5154:	e7ed      	b.n	5132 <scalbn+0x5a>
    5156:	1c19      	adds	r1, r3, #0
    5158:	3135      	adds	r1, #53	; 0x35
    515a:	da18      	bge.n	518e <scalbn+0xb6>
    515c:	4b21      	ldr	r3, [pc, #132]	; (51e4 <scalbn+0x10c>)
    515e:	429f      	cmp	r7, r3
    5160:	dcdb      	bgt.n	511a <scalbn+0x42>
    5162:	4817      	ldr	r0, [pc, #92]	; (51c0 <scalbn+0xe8>)
    5164:	4917      	ldr	r1, [pc, #92]	; (51c4 <scalbn+0xec>)
    5166:	1c22      	adds	r2, r4, #0
    5168:	1c2b      	adds	r3, r5, #0
    516a:	f000 f83d 	bl	51e8 <copysign>
    516e:	4a14      	ldr	r2, [pc, #80]	; (51c0 <scalbn+0xe8>)
    5170:	4b14      	ldr	r3, [pc, #80]	; (51c4 <scalbn+0xec>)
    5172:	f7fd fba5 	bl	28c0 <__aeabi_dmul>
    5176:	1c04      	adds	r4, r0, #0
    5178:	1c0d      	adds	r5, r1, #0
    517a:	e7da      	b.n	5132 <scalbn+0x5a>
    517c:	1c20      	adds	r0, r4, #0
    517e:	1c29      	adds	r1, r5, #0
    5180:	1c22      	adds	r2, r4, #0
    5182:	1c2b      	adds	r3, r5, #0
    5184:	f000 f8d6 	bl	5334 <__aeabi_dadd>
    5188:	1c04      	adds	r4, r0, #0
    518a:	1c0d      	adds	r5, r1, #0
    518c:	e7d1      	b.n	5132 <scalbn+0x5a>
    518e:	4914      	ldr	r1, [pc, #80]	; (51e0 <scalbn+0x108>)
    5190:	3336      	adds	r3, #54	; 0x36
    5192:	051b      	lsls	r3, r3, #20
    5194:	400a      	ands	r2, r1
    5196:	1c1d      	adds	r5, r3, #0
    5198:	4315      	orrs	r5, r2
    519a:	1c20      	adds	r0, r4, #0
    519c:	1c29      	adds	r1, r5, #0
    519e:	4a0a      	ldr	r2, [pc, #40]	; (51c8 <scalbn+0xf0>)
    51a0:	4b0a      	ldr	r3, [pc, #40]	; (51cc <scalbn+0xf4>)
    51a2:	f7fd fb8d 	bl	28c0 <__aeabi_dmul>
    51a6:	1c04      	adds	r4, r0, #0
    51a8:	1c0d      	adds	r5, r1, #0
    51aa:	e7c2      	b.n	5132 <scalbn+0x5a>
    51ac:	46c0      	nop			; (mov r8, r8)
    51ae:	46c0      	nop			; (mov r8, r8)
    51b0:	00000000 	.word	0x00000000
    51b4:	43500000 	.word	0x43500000
    51b8:	8800759c 	.word	0x8800759c
    51bc:	7e37e43c 	.word	0x7e37e43c
    51c0:	c2f8f359 	.word	0xc2f8f359
    51c4:	01a56e1f 	.word	0x01a56e1f
    51c8:	00000000 	.word	0x00000000
    51cc:	3c900000 	.word	0x3c900000
    51d0:	7ff00000 	.word	0x7ff00000
    51d4:	ffff3cb0 	.word	0xffff3cb0
    51d8:	000007fe 	.word	0x000007fe
    51dc:	000007ff 	.word	0x000007ff
    51e0:	800fffff 	.word	0x800fffff
    51e4:	0000c350 	.word	0x0000c350

000051e8 <copysign>:
    51e8:	b530      	push	{r4, r5, lr}
    51ea:	0fda      	lsrs	r2, r3, #31
    51ec:	07d2      	lsls	r2, r2, #31
    51ee:	004b      	lsls	r3, r1, #1
    51f0:	085b      	lsrs	r3, r3, #1
    51f2:	1c11      	adds	r1, r2, #0
    51f4:	4319      	orrs	r1, r3
    51f6:	bd30      	pop	{r4, r5, pc}

000051f8 <__aeabi_idiv>:
    51f8:	2900      	cmp	r1, #0
    51fa:	d041      	beq.n	5280 <.divsi3_skip_div0_test+0x84>

000051fc <.divsi3_skip_div0_test>:
    51fc:	b410      	push	{r4}
    51fe:	1c04      	adds	r4, r0, #0
    5200:	404c      	eors	r4, r1
    5202:	46a4      	mov	r12, r4
    5204:	2301      	movs	r3, #1
    5206:	2200      	movs	r2, #0
    5208:	2900      	cmp	r1, #0
    520a:	d500      	bpl.n	520e <.divsi3_skip_div0_test+0x12>
    520c:	4249      	negs	r1, r1
    520e:	2800      	cmp	r0, #0
    5210:	d500      	bpl.n	5214 <.divsi3_skip_div0_test+0x18>
    5212:	4240      	negs	r0, r0
    5214:	4288      	cmp	r0, r1
    5216:	d32c      	bcc.n	5272 <.divsi3_skip_div0_test+0x76>
    5218:	2401      	movs	r4, #1
    521a:	0724      	lsls	r4, r4, #28
    521c:	42a1      	cmp	r1, r4
    521e:	d204      	bcs.n	522a <.divsi3_skip_div0_test+0x2e>
    5220:	4281      	cmp	r1, r0
    5222:	d202      	bcs.n	522a <.divsi3_skip_div0_test+0x2e>
    5224:	0109      	lsls	r1, r1, #4
    5226:	011b      	lsls	r3, r3, #4
    5228:	e7f8      	b.n	521c <.divsi3_skip_div0_test+0x20>
    522a:	00e4      	lsls	r4, r4, #3
    522c:	42a1      	cmp	r1, r4
    522e:	d204      	bcs.n	523a <.divsi3_skip_div0_test+0x3e>
    5230:	4281      	cmp	r1, r0
    5232:	d202      	bcs.n	523a <.divsi3_skip_div0_test+0x3e>
    5234:	0049      	lsls	r1, r1, #1
    5236:	005b      	lsls	r3, r3, #1
    5238:	e7f8      	b.n	522c <.divsi3_skip_div0_test+0x30>
    523a:	4288      	cmp	r0, r1
    523c:	d301      	bcc.n	5242 <.divsi3_skip_div0_test+0x46>
    523e:	1a40      	subs	r0, r0, r1
    5240:	431a      	orrs	r2, r3
    5242:	084c      	lsrs	r4, r1, #1
    5244:	42a0      	cmp	r0, r4
    5246:	d302      	bcc.n	524e <.divsi3_skip_div0_test+0x52>
    5248:	1b00      	subs	r0, r0, r4
    524a:	085c      	lsrs	r4, r3, #1
    524c:	4322      	orrs	r2, r4
    524e:	088c      	lsrs	r4, r1, #2
    5250:	42a0      	cmp	r0, r4
    5252:	d302      	bcc.n	525a <.divsi3_skip_div0_test+0x5e>
    5254:	1b00      	subs	r0, r0, r4
    5256:	089c      	lsrs	r4, r3, #2
    5258:	4322      	orrs	r2, r4
    525a:	08cc      	lsrs	r4, r1, #3
    525c:	42a0      	cmp	r0, r4
    525e:	d302      	bcc.n	5266 <.divsi3_skip_div0_test+0x6a>
    5260:	1b00      	subs	r0, r0, r4
    5262:	08dc      	lsrs	r4, r3, #3
    5264:	4322      	orrs	r2, r4
    5266:	2800      	cmp	r0, #0
    5268:	d003      	beq.n	5272 <.divsi3_skip_div0_test+0x76>
    526a:	091b      	lsrs	r3, r3, #4
    526c:	d001      	beq.n	5272 <.divsi3_skip_div0_test+0x76>
    526e:	0909      	lsrs	r1, r1, #4
    5270:	e7e3      	b.n	523a <.divsi3_skip_div0_test+0x3e>
    5272:	1c10      	adds	r0, r2, #0
    5274:	4664      	mov	r4, r12
    5276:	2c00      	cmp	r4, #0
    5278:	d500      	bpl.n	527c <.divsi3_skip_div0_test+0x80>
    527a:	4240      	negs	r0, r0
    527c:	bc10      	pop	{r4}
    527e:	4770      	bx	lr
    5280:	2800      	cmp	r0, #0
    5282:	d006      	beq.n	5292 <.divsi3_skip_div0_test+0x96>
    5284:	db03      	blt.n	528e <.divsi3_skip_div0_test+0x92>
    5286:	2000      	movs	r0, #0
    5288:	43c0      	mvns	r0, r0
    528a:	0840      	lsrs	r0, r0, #1
    528c:	e001      	b.n	5292 <.divsi3_skip_div0_test+0x96>
    528e:	2080      	movs	r0, #128	; 0x80
    5290:	0600      	lsls	r0, r0, #24
    5292:	b407      	push	{r0, r1, r2}
    5294:	4802      	ldr	r0, [pc, #8]	; (52a0 <.divsi3_skip_div0_test+0xa4>)
    5296:	a102      	add	r1, pc, #8	; (adr r1, 52a0 <.divsi3_skip_div0_test+0xa4>)
    5298:	1840      	adds	r0, r0, r1
    529a:	9002      	str	r0, [sp, #8]
    529c:	bd03      	pop	{r0, r1, pc}
    529e:	46c0      	nop			; (mov r8, r8)
    52a0:	ffffcd41 	.word	0xffffcd41

000052a4 <__aeabi_idivmod>:
    52a4:	2900      	cmp	r1, #0
    52a6:	d0eb      	beq.n	5280 <.divsi3_skip_div0_test+0x84>
    52a8:	b503      	push	{r0, r1, lr}
    52aa:	f7ff ffa7 	bl	51fc <.divsi3_skip_div0_test>
    52ae:	bc0e      	pop	{r1, r2, r3}
    52b0:	4342      	muls	r2, r0
    52b2:	1a89      	subs	r1, r1, r2
    52b4:	4718      	bx	r3
    52b6:	46c0      	nop			; (mov r8, r8)

000052b8 <__aeabi_cdrcmple>:
    52b8:	4684      	mov	r12, r0
    52ba:	1c10      	adds	r0, r2, #0
    52bc:	4662      	mov	r2, r12
    52be:	468c      	mov	r12, r1
    52c0:	1c19      	adds	r1, r3, #0
    52c2:	4663      	mov	r3, r12
    52c4:	e000      	b.n	52c8 <__aeabi_cdcmpeq>
    52c6:	46c0      	nop			; (mov r8, r8)

000052c8 <__aeabi_cdcmpeq>:
    52c8:	b51f      	push	{r0, r1, r2, r3, r4, lr}
    52ca:	f000 fc17 	bl	5afc <__ledf2>
    52ce:	2800      	cmp	r0, #0
    52d0:	d401      	bmi.n	52d6 <__aeabi_cdcmpeq+0xe>
    52d2:	2100      	movs	r1, #0
    52d4:	42c8      	cmn	r0, r1
    52d6:	bd1f      	pop	{r0, r1, r2, r3, r4, pc}

000052d8 <__aeabi_dcmpeq>:
    52d8:	b510      	push	{r4, lr}
    52da:	f000 fb47 	bl	596c <__eqdf2>
    52de:	4240      	negs	r0, r0
    52e0:	3001      	adds	r0, #1
    52e2:	bd10      	pop	{r4, pc}

000052e4 <__aeabi_dcmplt>:
    52e4:	b510      	push	{r4, lr}
    52e6:	f000 fc09 	bl	5afc <__ledf2>
    52ea:	2800      	cmp	r0, #0
    52ec:	db01      	blt.n	52f2 <__aeabi_dcmplt+0xe>
    52ee:	2000      	movs	r0, #0
    52f0:	bd10      	pop	{r4, pc}
    52f2:	2001      	movs	r0, #1
    52f4:	bd10      	pop	{r4, pc}
    52f6:	46c0      	nop			; (mov r8, r8)

000052f8 <__aeabi_dcmple>:
    52f8:	b510      	push	{r4, lr}
    52fa:	f000 fbff 	bl	5afc <__ledf2>
    52fe:	2800      	cmp	r0, #0
    5300:	dd01      	ble.n	5306 <__aeabi_dcmple+0xe>
    5302:	2000      	movs	r0, #0
    5304:	bd10      	pop	{r4, pc}
    5306:	2001      	movs	r0, #1
    5308:	bd10      	pop	{r4, pc}
    530a:	46c0      	nop			; (mov r8, r8)

0000530c <__aeabi_dcmpgt>:
    530c:	b510      	push	{r4, lr}
    530e:	f000 fb77 	bl	5a00 <__gedf2>
    5312:	2800      	cmp	r0, #0
    5314:	dc01      	bgt.n	531a <__aeabi_dcmpgt+0xe>
    5316:	2000      	movs	r0, #0
    5318:	bd10      	pop	{r4, pc}
    531a:	2001      	movs	r0, #1
    531c:	bd10      	pop	{r4, pc}
    531e:	46c0      	nop			; (mov r8, r8)

00005320 <__aeabi_dcmpge>:
    5320:	b510      	push	{r4, lr}
    5322:	f000 fb6d 	bl	5a00 <__gedf2>
    5326:	2800      	cmp	r0, #0
    5328:	da01      	bge.n	532e <__aeabi_dcmpge+0xe>
    532a:	2000      	movs	r0, #0
    532c:	bd10      	pop	{r4, pc}
    532e:	2001      	movs	r0, #1
    5330:	bd10      	pop	{r4, pc}
    5332:	46c0      	nop			; (mov r8, r8)

00005334 <__aeabi_dadd>:
    5334:	b5f8      	push	{r3, r4, r5, r6, r7, lr}
    5336:	465f      	mov	r7, r11
    5338:	4656      	mov	r6, r10
    533a:	4644      	mov	r4, r8
    533c:	464d      	mov	r5, r9
    533e:	b4f0      	push	{r4, r5, r6, r7}
    5340:	030c      	lsls	r4, r1, #12
    5342:	004d      	lsls	r5, r1, #1
    5344:	0fce      	lsrs	r6, r1, #31
    5346:	0a61      	lsrs	r1, r4, #9
    5348:	0f44      	lsrs	r4, r0, #29
    534a:	4321      	orrs	r1, r4
    534c:	00c4      	lsls	r4, r0, #3
    534e:	0318      	lsls	r0, r3, #12
    5350:	4680      	mov	r8, r0
    5352:	0058      	lsls	r0, r3, #1
    5354:	0d40      	lsrs	r0, r0, #21
    5356:	4682      	mov	r10, r0
    5358:	0fd8      	lsrs	r0, r3, #31
    535a:	4684      	mov	r12, r0
    535c:	4640      	mov	r0, r8
    535e:	0a40      	lsrs	r0, r0, #9
    5360:	0f53      	lsrs	r3, r2, #29
    5362:	4303      	orrs	r3, r0
    5364:	00d0      	lsls	r0, r2, #3
    5366:	0d6d      	lsrs	r5, r5, #21
    5368:	1c37      	adds	r7, r6, #0
    536a:	4683      	mov	r11, r0
    536c:	4652      	mov	r2, r10
    536e:	4566      	cmp	r6, r12
    5370:	d100      	bne.n	5374 <__aeabi_dadd+0x40>
    5372:	e09d      	b.n	54b0 <__aeabi_dadd+0x17c>
    5374:	1aaf      	subs	r7, r5, r2
    5376:	2f00      	cmp	r7, #0
    5378:	dc00      	bgt.n	537c <__aeabi_dadd+0x48>
    537a:	e103      	b.n	5584 <__aeabi_dadd+0x250>
    537c:	2a00      	cmp	r2, #0
    537e:	d138      	bne.n	53f2 <__aeabi_dadd+0xbe>
    5380:	4318      	orrs	r0, r3
    5382:	d000      	beq.n	5386 <__aeabi_dadd+0x52>
    5384:	e0e4      	b.n	5550 <__aeabi_dadd+0x21c>
    5386:	0763      	lsls	r3, r4, #29
    5388:	d009      	beq.n	539e <__aeabi_dadd+0x6a>
    538a:	230f      	movs	r3, #15
    538c:	4023      	ands	r3, r4
    538e:	2b04      	cmp	r3, #4
    5390:	d005      	beq.n	539e <__aeabi_dadd+0x6a>
    5392:	1d23      	adds	r3, r4, #4
    5394:	42a3      	cmp	r3, r4
    5396:	41a4      	sbcs	r4, r4
    5398:	4264      	negs	r4, r4
    539a:	1909      	adds	r1, r1, r4
    539c:	1c1c      	adds	r4, r3, #0
    539e:	0208      	lsls	r0, r1, #8
    53a0:	d400      	bmi.n	53a4 <__aeabi_dadd+0x70>
    53a2:	e078      	b.n	5496 <__aeabi_dadd+0x162>
    53a4:	4bce      	ldr	r3, [pc, #824]	; (56e0 <__aeabi_dadd+0x3ac>)
    53a6:	1c6a      	adds	r2, r5, #1
    53a8:	429a      	cmp	r2, r3
    53aa:	d100      	bne.n	53ae <__aeabi_dadd+0x7a>
    53ac:	e105      	b.n	55ba <__aeabi_dadd+0x286>
    53ae:	4bcd      	ldr	r3, [pc, #820]	; (56e4 <__aeabi_dadd+0x3b0>)
    53b0:	08e4      	lsrs	r4, r4, #3
    53b2:	4019      	ands	r1, r3
    53b4:	0748      	lsls	r0, r1, #29
    53b6:	0552      	lsls	r2, r2, #21
    53b8:	0249      	lsls	r1, r1, #9
    53ba:	4304      	orrs	r4, r0
    53bc:	0b0b      	lsrs	r3, r1, #12
    53be:	0d52      	lsrs	r2, r2, #21
    53c0:	1c37      	adds	r7, r6, #0
    53c2:	2000      	movs	r0, #0
    53c4:	2100      	movs	r1, #0
    53c6:	031b      	lsls	r3, r3, #12
    53c8:	1c20      	adds	r0, r4, #0
    53ca:	0b1c      	lsrs	r4, r3, #12
    53cc:	0d0b      	lsrs	r3, r1, #20
    53ce:	051b      	lsls	r3, r3, #20
    53d0:	4dc5      	ldr	r5, [pc, #788]	; (56e8 <__aeabi_dadd+0x3b4>)
    53d2:	4323      	orrs	r3, r4
    53d4:	0552      	lsls	r2, r2, #21
    53d6:	0852      	lsrs	r2, r2, #1
    53d8:	401d      	ands	r5, r3
    53da:	4315      	orrs	r5, r2
    53dc:	006d      	lsls	r5, r5, #1
    53de:	086d      	lsrs	r5, r5, #1
    53e0:	07ff      	lsls	r7, r7, #31
    53e2:	1c29      	adds	r1, r5, #0
    53e4:	4339      	orrs	r1, r7
    53e6:	bc3c      	pop	{r2, r3, r4, r5}
    53e8:	4690      	mov	r8, r2
    53ea:	4699      	mov	r9, r3
    53ec:	46a2      	mov	r10, r4
    53ee:	46ab      	mov	r11, r5
    53f0:	bdf8      	pop	{r3, r4, r5, r6, r7, pc}
    53f2:	48bb      	ldr	r0, [pc, #748]	; (56e0 <__aeabi_dadd+0x3ac>)
    53f4:	4285      	cmp	r5, r0
    53f6:	d0c6      	beq.n	5386 <__aeabi_dadd+0x52>
    53f8:	2080      	movs	r0, #128	; 0x80
    53fa:	0400      	lsls	r0, r0, #16
    53fc:	4303      	orrs	r3, r0
    53fe:	2f38      	cmp	r7, #56	; 0x38
    5400:	dd00      	ble.n	5404 <__aeabi_dadd+0xd0>
    5402:	e0ec      	b.n	55de <__aeabi_dadd+0x2aa>
    5404:	2f1f      	cmp	r7, #31
    5406:	dd00      	ble.n	540a <__aeabi_dadd+0xd6>
    5408:	e120      	b.n	564c <__aeabi_dadd+0x318>
    540a:	2020      	movs	r0, #32
    540c:	1bc0      	subs	r0, r0, r7
    540e:	1c1a      	adds	r2, r3, #0
    5410:	4681      	mov	r9, r0
    5412:	4082      	lsls	r2, r0
    5414:	4658      	mov	r0, r11
    5416:	40f8      	lsrs	r0, r7
    5418:	4302      	orrs	r2, r0
    541a:	4694      	mov	r12, r2
    541c:	4658      	mov	r0, r11
    541e:	464a      	mov	r2, r9
    5420:	4090      	lsls	r0, r2
    5422:	1e42      	subs	r2, r0, #1
    5424:	4190      	sbcs	r0, r2
    5426:	40fb      	lsrs	r3, r7
    5428:	4662      	mov	r2, r12
    542a:	4302      	orrs	r2, r0
    542c:	1c1f      	adds	r7, r3, #0
    542e:	1aa2      	subs	r2, r4, r2
    5430:	4294      	cmp	r4, r2
    5432:	41a4      	sbcs	r4, r4
    5434:	4264      	negs	r4, r4
    5436:	1bc9      	subs	r1, r1, r7
    5438:	1b09      	subs	r1, r1, r4
    543a:	1c14      	adds	r4, r2, #0
    543c:	020b      	lsls	r3, r1, #8
    543e:	d5a2      	bpl.n	5386 <__aeabi_dadd+0x52>
    5440:	0249      	lsls	r1, r1, #9
    5442:	0a4f      	lsrs	r7, r1, #9
    5444:	2f00      	cmp	r7, #0
    5446:	d100      	bne.n	544a <__aeabi_dadd+0x116>
    5448:	e0c4      	b.n	55d4 <__aeabi_dadd+0x2a0>
    544a:	1c38      	adds	r0, r7, #0
    544c:	f7fd fd3a 	bl	2ec4 <__clzsi2>
    5450:	1c02      	adds	r2, r0, #0
    5452:	3a08      	subs	r2, #8
    5454:	2a1f      	cmp	r2, #31
    5456:	dd00      	ble.n	545a <__aeabi_dadd+0x126>
    5458:	e0b7      	b.n	55ca <__aeabi_dadd+0x296>
    545a:	2128      	movs	r1, #40	; 0x28
    545c:	1a09      	subs	r1, r1, r0
    545e:	1c20      	adds	r0, r4, #0
    5460:	4097      	lsls	r7, r2
    5462:	40c8      	lsrs	r0, r1
    5464:	4307      	orrs	r7, r0
    5466:	4094      	lsls	r4, r2
    5468:	4295      	cmp	r5, r2
    546a:	dd00      	ble.n	546e <__aeabi_dadd+0x13a>
    546c:	e0a9      	b.n	55c2 <__aeabi_dadd+0x28e>
    546e:	1b55      	subs	r5, r2, r5
    5470:	1c69      	adds	r1, r5, #1
    5472:	291f      	cmp	r1, #31
    5474:	dd00      	ble.n	5478 <__aeabi_dadd+0x144>
    5476:	e0d8      	b.n	562a <__aeabi_dadd+0x2f6>
    5478:	221f      	movs	r2, #31
    547a:	1b55      	subs	r5, r2, r5
    547c:	1c3b      	adds	r3, r7, #0
    547e:	1c22      	adds	r2, r4, #0
    5480:	40ab      	lsls	r3, r5
    5482:	40ca      	lsrs	r2, r1
    5484:	40ac      	lsls	r4, r5
    5486:	1e65      	subs	r5, r4, #1
    5488:	41ac      	sbcs	r4, r5
    548a:	4313      	orrs	r3, r2
    548c:	40cf      	lsrs	r7, r1
    548e:	431c      	orrs	r4, r3
    5490:	1c39      	adds	r1, r7, #0
    5492:	2500      	movs	r5, #0
    5494:	e777      	b.n	5386 <__aeabi_dadd+0x52>
    5496:	0748      	lsls	r0, r1, #29
    5498:	08e4      	lsrs	r4, r4, #3
    549a:	056a      	lsls	r2, r5, #21
    549c:	08c9      	lsrs	r1, r1, #3
    549e:	0d52      	lsrs	r2, r2, #21
    54a0:	1c37      	adds	r7, r6, #0
    54a2:	4304      	orrs	r4, r0
    54a4:	4b8e      	ldr	r3, [pc, #568]	; (56e0 <__aeabi_dadd+0x3ac>)
    54a6:	429d      	cmp	r5, r3
    54a8:	d048      	beq.n	553c <__aeabi_dadd+0x208>
    54aa:	0309      	lsls	r1, r1, #12
    54ac:	0b0b      	lsrs	r3, r1, #12
    54ae:	e788      	b.n	53c2 <__aeabi_dadd+0x8e>
    54b0:	1aaa      	subs	r2, r5, r2
    54b2:	4694      	mov	r12, r2
    54b4:	2a00      	cmp	r2, #0
    54b6:	dc00      	bgt.n	54ba <__aeabi_dadd+0x186>
    54b8:	e098      	b.n	55ec <__aeabi_dadd+0x2b8>
    54ba:	4650      	mov	r0, r10
    54bc:	2800      	cmp	r0, #0
    54be:	d053      	beq.n	5568 <__aeabi_dadd+0x234>
    54c0:	4887      	ldr	r0, [pc, #540]	; (56e0 <__aeabi_dadd+0x3ac>)
    54c2:	4285      	cmp	r5, r0
    54c4:	d100      	bne.n	54c8 <__aeabi_dadd+0x194>
    54c6:	e75e      	b.n	5386 <__aeabi_dadd+0x52>
    54c8:	2080      	movs	r0, #128	; 0x80
    54ca:	0400      	lsls	r0, r0, #16
    54cc:	4303      	orrs	r3, r0
    54ce:	4662      	mov	r2, r12
    54d0:	2a38      	cmp	r2, #56	; 0x38
    54d2:	dd00      	ble.n	54d6 <__aeabi_dadd+0x1a2>
    54d4:	e0fd      	b.n	56d2 <__aeabi_dadd+0x39e>
    54d6:	2a1f      	cmp	r2, #31
    54d8:	dd00      	ble.n	54dc <__aeabi_dadd+0x1a8>
    54da:	e14b      	b.n	5774 <__aeabi_dadd+0x440>
    54dc:	2220      	movs	r2, #32
    54de:	4660      	mov	r0, r12
    54e0:	1a10      	subs	r0, r2, r0
    54e2:	1c1a      	adds	r2, r3, #0
    54e4:	4082      	lsls	r2, r0
    54e6:	4682      	mov	r10, r0
    54e8:	4691      	mov	r9, r2
    54ea:	4658      	mov	r0, r11
    54ec:	4662      	mov	r2, r12
    54ee:	40d0      	lsrs	r0, r2
    54f0:	464a      	mov	r2, r9
    54f2:	4302      	orrs	r2, r0
    54f4:	4690      	mov	r8, r2
    54f6:	4658      	mov	r0, r11
    54f8:	4652      	mov	r2, r10
    54fa:	4090      	lsls	r0, r2
    54fc:	1e42      	subs	r2, r0, #1
    54fe:	4190      	sbcs	r0, r2
    5500:	4642      	mov	r2, r8
    5502:	4302      	orrs	r2, r0
    5504:	4660      	mov	r0, r12
    5506:	40c3      	lsrs	r3, r0
    5508:	1912      	adds	r2, r2, r4
    550a:	42a2      	cmp	r2, r4
    550c:	41a4      	sbcs	r4, r4
    550e:	4264      	negs	r4, r4
    5510:	1859      	adds	r1, r3, r1
    5512:	1909      	adds	r1, r1, r4
    5514:	1c14      	adds	r4, r2, #0
    5516:	0208      	lsls	r0, r1, #8
    5518:	d400      	bmi.n	551c <__aeabi_dadd+0x1e8>
    551a:	e734      	b.n	5386 <__aeabi_dadd+0x52>
    551c:	4b70      	ldr	r3, [pc, #448]	; (56e0 <__aeabi_dadd+0x3ac>)
    551e:	3501      	adds	r5, #1
    5520:	429d      	cmp	r5, r3
    5522:	d100      	bne.n	5526 <__aeabi_dadd+0x1f2>
    5524:	e124      	b.n	5770 <__aeabi_dadd+0x43c>
    5526:	4b6f      	ldr	r3, [pc, #444]	; (56e4 <__aeabi_dadd+0x3b0>)
    5528:	0860      	lsrs	r0, r4, #1
    552a:	4019      	ands	r1, r3
    552c:	2301      	movs	r3, #1
    552e:	4023      	ands	r3, r4
    5530:	1c1c      	adds	r4, r3, #0
    5532:	4304      	orrs	r4, r0
    5534:	07cb      	lsls	r3, r1, #31
    5536:	431c      	orrs	r4, r3
    5538:	0849      	lsrs	r1, r1, #1
    553a:	e724      	b.n	5386 <__aeabi_dadd+0x52>
    553c:	1c0b      	adds	r3, r1, #0
    553e:	4323      	orrs	r3, r4
    5540:	d100      	bne.n	5544 <__aeabi_dadd+0x210>
    5542:	e1c7      	b.n	58d4 <__aeabi_dadd+0x5a0>
    5544:	2380      	movs	r3, #128	; 0x80
    5546:	031b      	lsls	r3, r3, #12
    5548:	430b      	orrs	r3, r1
    554a:	031b      	lsls	r3, r3, #12
    554c:	0b1b      	lsrs	r3, r3, #12
    554e:	e738      	b.n	53c2 <__aeabi_dadd+0x8e>
    5550:	3f01      	subs	r7, #1
    5552:	2f00      	cmp	r7, #0
    5554:	d164      	bne.n	5620 <__aeabi_dadd+0x2ec>
    5556:	4658      	mov	r0, r11
    5558:	1a22      	subs	r2, r4, r0
    555a:	4294      	cmp	r4, r2
    555c:	41a4      	sbcs	r4, r4
    555e:	4264      	negs	r4, r4
    5560:	1ac9      	subs	r1, r1, r3
    5562:	1b09      	subs	r1, r1, r4
    5564:	1c14      	adds	r4, r2, #0
    5566:	e769      	b.n	543c <__aeabi_dadd+0x108>
    5568:	4658      	mov	r0, r11
    556a:	4318      	orrs	r0, r3
    556c:	d100      	bne.n	5570 <__aeabi_dadd+0x23c>
    556e:	e70a      	b.n	5386 <__aeabi_dadd+0x52>
    5570:	2201      	movs	r2, #1
    5572:	4252      	negs	r2, r2
    5574:	4494      	add	r12, r2
    5576:	4660      	mov	r0, r12
    5578:	2800      	cmp	r0, #0
    557a:	d000      	beq.n	557e <__aeabi_dadd+0x24a>
    557c:	e0c5      	b.n	570a <__aeabi_dadd+0x3d6>
    557e:	4658      	mov	r0, r11
    5580:	1902      	adds	r2, r0, r4
    5582:	e7c2      	b.n	550a <__aeabi_dadd+0x1d6>
    5584:	2f00      	cmp	r7, #0
    5586:	d172      	bne.n	566e <__aeabi_dadd+0x33a>
    5588:	1c68      	adds	r0, r5, #1
    558a:	0540      	lsls	r0, r0, #21
    558c:	0d40      	lsrs	r0, r0, #21
    558e:	2801      	cmp	r0, #1
    5590:	dc00      	bgt.n	5594 <__aeabi_dadd+0x260>
    5592:	e0de      	b.n	5752 <__aeabi_dadd+0x41e>
    5594:	465a      	mov	r2, r11
    5596:	1aa2      	subs	r2, r4, r2
    5598:	4294      	cmp	r4, r2
    559a:	41bf      	sbcs	r7, r7
    559c:	1ac8      	subs	r0, r1, r3
    559e:	427f      	negs	r7, r7
    55a0:	1bc7      	subs	r7, r0, r7
    55a2:	0238      	lsls	r0, r7, #8
    55a4:	d400      	bmi.n	55a8 <__aeabi_dadd+0x274>
    55a6:	e088      	b.n	56ba <__aeabi_dadd+0x386>
    55a8:	465a      	mov	r2, r11
    55aa:	1b14      	subs	r4, r2, r4
    55ac:	45a3      	cmp	r11, r4
    55ae:	4192      	sbcs	r2, r2
    55b0:	1a59      	subs	r1, r3, r1
    55b2:	4252      	negs	r2, r2
    55b4:	1a8f      	subs	r7, r1, r2
    55b6:	4666      	mov	r6, r12
    55b8:	e744      	b.n	5444 <__aeabi_dadd+0x110>
    55ba:	1c37      	adds	r7, r6, #0
    55bc:	2300      	movs	r3, #0
    55be:	2400      	movs	r4, #0
    55c0:	e6ff      	b.n	53c2 <__aeabi_dadd+0x8e>
    55c2:	4948      	ldr	r1, [pc, #288]	; (56e4 <__aeabi_dadd+0x3b0>)
    55c4:	1aad      	subs	r5, r5, r2
    55c6:	4039      	ands	r1, r7
    55c8:	e6dd      	b.n	5386 <__aeabi_dadd+0x52>
    55ca:	1c27      	adds	r7, r4, #0
    55cc:	3828      	subs	r0, #40	; 0x28
    55ce:	4087      	lsls	r7, r0
    55d0:	2400      	movs	r4, #0
    55d2:	e749      	b.n	5468 <__aeabi_dadd+0x134>
    55d4:	1c20      	adds	r0, r4, #0
    55d6:	f7fd fc75 	bl	2ec4 <__clzsi2>
    55da:	3020      	adds	r0, #32
    55dc:	e738      	b.n	5450 <__aeabi_dadd+0x11c>
    55de:	465a      	mov	r2, r11
    55e0:	431a      	orrs	r2, r3
    55e2:	1e53      	subs	r3, r2, #1
    55e4:	419a      	sbcs	r2, r3
    55e6:	b2d2      	uxtb	r2, r2
    55e8:	2700      	movs	r7, #0
    55ea:	e720      	b.n	542e <__aeabi_dadd+0xfa>
    55ec:	2a00      	cmp	r2, #0
    55ee:	d000      	beq.n	55f2 <__aeabi_dadd+0x2be>
    55f0:	e0dd      	b.n	57ae <__aeabi_dadd+0x47a>
    55f2:	1c68      	adds	r0, r5, #1
    55f4:	0542      	lsls	r2, r0, #21
    55f6:	0d52      	lsrs	r2, r2, #21
    55f8:	2a01      	cmp	r2, #1
    55fa:	dc00      	bgt.n	55fe <__aeabi_dadd+0x2ca>
    55fc:	e08e      	b.n	571c <__aeabi_dadd+0x3e8>
    55fe:	4d38      	ldr	r5, [pc, #224]	; (56e0 <__aeabi_dadd+0x3ac>)
    5600:	42a8      	cmp	r0, r5
    5602:	d100      	bne.n	5606 <__aeabi_dadd+0x2d2>
    5604:	e0b3      	b.n	576e <__aeabi_dadd+0x43a>
    5606:	465d      	mov	r5, r11
    5608:	192a      	adds	r2, r5, r4
    560a:	42a2      	cmp	r2, r4
    560c:	41a4      	sbcs	r4, r4
    560e:	4264      	negs	r4, r4
    5610:	1859      	adds	r1, r3, r1
    5612:	1909      	adds	r1, r1, r4
    5614:	07cc      	lsls	r4, r1, #31
    5616:	0852      	lsrs	r2, r2, #1
    5618:	4314      	orrs	r4, r2
    561a:	0849      	lsrs	r1, r1, #1
    561c:	1c05      	adds	r5, r0, #0
    561e:	e6b2      	b.n	5386 <__aeabi_dadd+0x52>
    5620:	482f      	ldr	r0, [pc, #188]	; (56e0 <__aeabi_dadd+0x3ac>)
    5622:	4285      	cmp	r5, r0
    5624:	d000      	beq.n	5628 <__aeabi_dadd+0x2f4>
    5626:	e6ea      	b.n	53fe <__aeabi_dadd+0xca>
    5628:	e6ad      	b.n	5386 <__aeabi_dadd+0x52>
    562a:	1c2b      	adds	r3, r5, #0
    562c:	3b1f      	subs	r3, #31
    562e:	1c3a      	adds	r2, r7, #0
    5630:	40da      	lsrs	r2, r3
    5632:	1c13      	adds	r3, r2, #0
    5634:	2920      	cmp	r1, #32
    5636:	d06d      	beq.n	5714 <__aeabi_dadd+0x3e0>
    5638:	223f      	movs	r2, #63	; 0x3f
    563a:	1b55      	subs	r5, r2, r5
    563c:	40af      	lsls	r7, r5
    563e:	433c      	orrs	r4, r7
    5640:	1e60      	subs	r0, r4, #1
    5642:	4184      	sbcs	r4, r0
    5644:	431c      	orrs	r4, r3
    5646:	2100      	movs	r1, #0
    5648:	2500      	movs	r5, #0
    564a:	e69c      	b.n	5386 <__aeabi_dadd+0x52>
    564c:	1c38      	adds	r0, r7, #0
    564e:	3820      	subs	r0, #32
    5650:	1c1a      	adds	r2, r3, #0
    5652:	40c2      	lsrs	r2, r0
    5654:	1c10      	adds	r0, r2, #0
    5656:	2f20      	cmp	r7, #32
    5658:	d05e      	beq.n	5718 <__aeabi_dadd+0x3e4>
    565a:	2240      	movs	r2, #64	; 0x40
    565c:	1bd7      	subs	r7, r2, r7
    565e:	40bb      	lsls	r3, r7
    5660:	465a      	mov	r2, r11
    5662:	431a      	orrs	r2, r3
    5664:	1e53      	subs	r3, r2, #1
    5666:	419a      	sbcs	r2, r3
    5668:	4302      	orrs	r2, r0
    566a:	2700      	movs	r7, #0
    566c:	e6df      	b.n	542e <__aeabi_dadd+0xfa>
    566e:	2d00      	cmp	r5, #0
    5670:	d03c      	beq.n	56ec <__aeabi_dadd+0x3b8>
    5672:	4d1b      	ldr	r5, [pc, #108]	; (56e0 <__aeabi_dadd+0x3ac>)
    5674:	45aa      	cmp	r10, r5
    5676:	d100      	bne.n	567a <__aeabi_dadd+0x346>
    5678:	e094      	b.n	57a4 <__aeabi_dadd+0x470>
    567a:	2580      	movs	r5, #128	; 0x80
    567c:	042d      	lsls	r5, r5, #16
    567e:	427f      	negs	r7, r7
    5680:	4329      	orrs	r1, r5
    5682:	2f38      	cmp	r7, #56	; 0x38
    5684:	dd00      	ble.n	5688 <__aeabi_dadd+0x354>
    5686:	e0ad      	b.n	57e4 <__aeabi_dadd+0x4b0>
    5688:	2f1f      	cmp	r7, #31
    568a:	dd00      	ble.n	568e <__aeabi_dadd+0x35a>
    568c:	e12c      	b.n	58e8 <__aeabi_dadd+0x5b4>
    568e:	2520      	movs	r5, #32
    5690:	1bed      	subs	r5, r5, r7
    5692:	1c08      	adds	r0, r1, #0
    5694:	1c26      	adds	r6, r4, #0
    5696:	40a8      	lsls	r0, r5
    5698:	40fe      	lsrs	r6, r7
    569a:	40ac      	lsls	r4, r5
    569c:	4306      	orrs	r6, r0
    569e:	1e65      	subs	r5, r4, #1
    56a0:	41ac      	sbcs	r4, r5
    56a2:	4334      	orrs	r4, r6
    56a4:	40f9      	lsrs	r1, r7
    56a6:	465d      	mov	r5, r11
    56a8:	1b2c      	subs	r4, r5, r4
    56aa:	45a3      	cmp	r11, r4
    56ac:	4192      	sbcs	r2, r2
    56ae:	1a5b      	subs	r3, r3, r1
    56b0:	4252      	negs	r2, r2
    56b2:	1a99      	subs	r1, r3, r2
    56b4:	4655      	mov	r5, r10
    56b6:	4666      	mov	r6, r12
    56b8:	e6c0      	b.n	543c <__aeabi_dadd+0x108>
    56ba:	1c13      	adds	r3, r2, #0
    56bc:	433b      	orrs	r3, r7
    56be:	1c14      	adds	r4, r2, #0
    56c0:	2b00      	cmp	r3, #0
    56c2:	d000      	beq.n	56c6 <__aeabi_dadd+0x392>
    56c4:	e6be      	b.n	5444 <__aeabi_dadd+0x110>
    56c6:	2700      	movs	r7, #0
    56c8:	2200      	movs	r2, #0
    56ca:	2500      	movs	r5, #0
    56cc:	2100      	movs	r1, #0
    56ce:	2400      	movs	r4, #0
    56d0:	e6e8      	b.n	54a4 <__aeabi_dadd+0x170>
    56d2:	465a      	mov	r2, r11
    56d4:	431a      	orrs	r2, r3
    56d6:	1e53      	subs	r3, r2, #1
    56d8:	419a      	sbcs	r2, r3
    56da:	b2d2      	uxtb	r2, r2
    56dc:	2300      	movs	r3, #0
    56de:	e713      	b.n	5508 <__aeabi_dadd+0x1d4>
    56e0:	000007ff 	.word	0x000007ff
    56e4:	ff7fffff 	.word	0xff7fffff
    56e8:	800fffff 	.word	0x800fffff
    56ec:	1c0d      	adds	r5, r1, #0
    56ee:	4325      	orrs	r5, r4
    56f0:	d058      	beq.n	57a4 <__aeabi_dadd+0x470>
    56f2:	43ff      	mvns	r7, r7
    56f4:	2f00      	cmp	r7, #0
    56f6:	d151      	bne.n	579c <__aeabi_dadd+0x468>
    56f8:	1b04      	subs	r4, r0, r4
    56fa:	45a3      	cmp	r11, r4
    56fc:	4192      	sbcs	r2, r2
    56fe:	1a59      	subs	r1, r3, r1
    5700:	4252      	negs	r2, r2
    5702:	1a89      	subs	r1, r1, r2
    5704:	4655      	mov	r5, r10
    5706:	4666      	mov	r6, r12
    5708:	e698      	b.n	543c <__aeabi_dadd+0x108>
    570a:	4896      	ldr	r0, [pc, #600]	; (5964 <__aeabi_dadd+0x630>)
    570c:	4285      	cmp	r5, r0
    570e:	d000      	beq.n	5712 <__aeabi_dadd+0x3de>
    5710:	e6dd      	b.n	54ce <__aeabi_dadd+0x19a>
    5712:	e638      	b.n	5386 <__aeabi_dadd+0x52>
    5714:	2700      	movs	r7, #0
    5716:	e792      	b.n	563e <__aeabi_dadd+0x30a>
    5718:	2300      	movs	r3, #0
    571a:	e7a1      	b.n	5660 <__aeabi_dadd+0x32c>
    571c:	1c08      	adds	r0, r1, #0
    571e:	4320      	orrs	r0, r4
    5720:	2d00      	cmp	r5, #0
    5722:	d000      	beq.n	5726 <__aeabi_dadd+0x3f2>
    5724:	e0c0      	b.n	58a8 <__aeabi_dadd+0x574>
    5726:	2800      	cmp	r0, #0
    5728:	d100      	bne.n	572c <__aeabi_dadd+0x3f8>
    572a:	e0fb      	b.n	5924 <__aeabi_dadd+0x5f0>
    572c:	4658      	mov	r0, r11
    572e:	4318      	orrs	r0, r3
    5730:	d100      	bne.n	5734 <__aeabi_dadd+0x400>
    5732:	e628      	b.n	5386 <__aeabi_dadd+0x52>
    5734:	4658      	mov	r0, r11
    5736:	1902      	adds	r2, r0, r4
    5738:	42a2      	cmp	r2, r4
    573a:	41a4      	sbcs	r4, r4
    573c:	4264      	negs	r4, r4
    573e:	1859      	adds	r1, r3, r1
    5740:	1909      	adds	r1, r1, r4
    5742:	1c14      	adds	r4, r2, #0
    5744:	020a      	lsls	r2, r1, #8
    5746:	d400      	bmi.n	574a <__aeabi_dadd+0x416>
    5748:	e61d      	b.n	5386 <__aeabi_dadd+0x52>
    574a:	4b87      	ldr	r3, [pc, #540]	; (5968 <__aeabi_dadd+0x634>)
    574c:	2501      	movs	r5, #1
    574e:	4019      	ands	r1, r3
    5750:	e619      	b.n	5386 <__aeabi_dadd+0x52>
    5752:	1c08      	adds	r0, r1, #0
    5754:	4320      	orrs	r0, r4
    5756:	2d00      	cmp	r5, #0
    5758:	d139      	bne.n	57ce <__aeabi_dadd+0x49a>
    575a:	2800      	cmp	r0, #0
    575c:	d16d      	bne.n	583a <__aeabi_dadd+0x506>
    575e:	4659      	mov	r1, r11
    5760:	4319      	orrs	r1, r3
    5762:	d100      	bne.n	5766 <__aeabi_dadd+0x432>
    5764:	e0bd      	b.n	58e2 <__aeabi_dadd+0x5ae>
    5766:	1c19      	adds	r1, r3, #0
    5768:	465c      	mov	r4, r11
    576a:	4666      	mov	r6, r12
    576c:	e60b      	b.n	5386 <__aeabi_dadd+0x52>
    576e:	1c05      	adds	r5, r0, #0
    5770:	1c2a      	adds	r2, r5, #0
    5772:	e7ab      	b.n	56cc <__aeabi_dadd+0x398>
    5774:	4660      	mov	r0, r12
    5776:	3820      	subs	r0, #32
    5778:	1c1a      	adds	r2, r3, #0
    577a:	40c2      	lsrs	r2, r0
    577c:	4660      	mov	r0, r12
    577e:	4691      	mov	r9, r2
    5780:	2820      	cmp	r0, #32
    5782:	d100      	bne.n	5786 <__aeabi_dadd+0x452>
    5784:	e0ab      	b.n	58de <__aeabi_dadd+0x5aa>
    5786:	2240      	movs	r2, #64	; 0x40
    5788:	1a12      	subs	r2, r2, r0
    578a:	4093      	lsls	r3, r2
    578c:	465a      	mov	r2, r11
    578e:	431a      	orrs	r2, r3
    5790:	1e53      	subs	r3, r2, #1
    5792:	419a      	sbcs	r2, r3
    5794:	464b      	mov	r3, r9
    5796:	431a      	orrs	r2, r3
    5798:	2300      	movs	r3, #0
    579a:	e6b5      	b.n	5508 <__aeabi_dadd+0x1d4>
    579c:	4d71      	ldr	r5, [pc, #452]	; (5964 <__aeabi_dadd+0x630>)
    579e:	45aa      	cmp	r10, r5
    57a0:	d000      	beq.n	57a4 <__aeabi_dadd+0x470>
    57a2:	e76e      	b.n	5682 <__aeabi_dadd+0x34e>
    57a4:	1c19      	adds	r1, r3, #0
    57a6:	465c      	mov	r4, r11
    57a8:	4655      	mov	r5, r10
    57aa:	4666      	mov	r6, r12
    57ac:	e5eb      	b.n	5386 <__aeabi_dadd+0x52>
    57ae:	2d00      	cmp	r5, #0
    57b0:	d11e      	bne.n	57f0 <__aeabi_dadd+0x4bc>
    57b2:	1c0d      	adds	r5, r1, #0
    57b4:	4325      	orrs	r5, r4
    57b6:	d073      	beq.n	58a0 <__aeabi_dadd+0x56c>
    57b8:	43d5      	mvns	r5, r2
    57ba:	2d00      	cmp	r5, #0
    57bc:	d16d      	bne.n	589a <__aeabi_dadd+0x566>
    57be:	445c      	add	r4, r11
    57c0:	455c      	cmp	r4, r11
    57c2:	4192      	sbcs	r2, r2
    57c4:	1859      	adds	r1, r3, r1
    57c6:	4252      	negs	r2, r2
    57c8:	1889      	adds	r1, r1, r2
    57ca:	4655      	mov	r5, r10
    57cc:	e6a3      	b.n	5516 <__aeabi_dadd+0x1e2>
    57ce:	2800      	cmp	r0, #0
    57d0:	d149      	bne.n	5866 <__aeabi_dadd+0x532>
    57d2:	4659      	mov	r1, r11
    57d4:	4319      	orrs	r1, r3
    57d6:	d100      	bne.n	57da <__aeabi_dadd+0x4a6>
    57d8:	e096      	b.n	5908 <__aeabi_dadd+0x5d4>
    57da:	1c19      	adds	r1, r3, #0
    57dc:	465c      	mov	r4, r11
    57de:	4666      	mov	r6, r12
    57e0:	4d60      	ldr	r5, [pc, #384]	; (5964 <__aeabi_dadd+0x630>)
    57e2:	e5d0      	b.n	5386 <__aeabi_dadd+0x52>
    57e4:	430c      	orrs	r4, r1
    57e6:	1e61      	subs	r1, r4, #1
    57e8:	418c      	sbcs	r4, r1
    57ea:	b2e4      	uxtb	r4, r4
    57ec:	2100      	movs	r1, #0
    57ee:	e75a      	b.n	56a6 <__aeabi_dadd+0x372>
    57f0:	4d5c      	ldr	r5, [pc, #368]	; (5964 <__aeabi_dadd+0x630>)
    57f2:	45aa      	cmp	r10, r5
    57f4:	d054      	beq.n	58a0 <__aeabi_dadd+0x56c>
    57f6:	4255      	negs	r5, r2
    57f8:	2280      	movs	r2, #128	; 0x80
    57fa:	0410      	lsls	r0, r2, #16
    57fc:	4301      	orrs	r1, r0
    57fe:	2d38      	cmp	r5, #56	; 0x38
    5800:	dd00      	ble.n	5804 <__aeabi_dadd+0x4d0>
    5802:	e085      	b.n	5910 <__aeabi_dadd+0x5dc>
    5804:	2d1f      	cmp	r5, #31
    5806:	dd00      	ble.n	580a <__aeabi_dadd+0x4d6>
    5808:	e095      	b.n	5936 <__aeabi_dadd+0x602>
    580a:	2220      	movs	r2, #32
    580c:	1b50      	subs	r0, r2, r5
    580e:	1c0a      	adds	r2, r1, #0
    5810:	4684      	mov	r12, r0
    5812:	4082      	lsls	r2, r0
    5814:	1c20      	adds	r0, r4, #0
    5816:	40e8      	lsrs	r0, r5
    5818:	4302      	orrs	r2, r0
    581a:	4690      	mov	r8, r2
    581c:	4662      	mov	r2, r12
    581e:	4094      	lsls	r4, r2
    5820:	1e60      	subs	r0, r4, #1
    5822:	4184      	sbcs	r4, r0
    5824:	4642      	mov	r2, r8
    5826:	4314      	orrs	r4, r2
    5828:	40e9      	lsrs	r1, r5
    582a:	445c      	add	r4, r11
    582c:	455c      	cmp	r4, r11
    582e:	4192      	sbcs	r2, r2
    5830:	18cb      	adds	r3, r1, r3
    5832:	4252      	negs	r2, r2
    5834:	1899      	adds	r1, r3, r2
    5836:	4655      	mov	r5, r10
    5838:	e66d      	b.n	5516 <__aeabi_dadd+0x1e2>
    583a:	4658      	mov	r0, r11
    583c:	4318      	orrs	r0, r3
    583e:	d100      	bne.n	5842 <__aeabi_dadd+0x50e>
    5840:	e5a1      	b.n	5386 <__aeabi_dadd+0x52>
    5842:	4658      	mov	r0, r11
    5844:	1a27      	subs	r7, r4, r0
    5846:	42bc      	cmp	r4, r7
    5848:	4192      	sbcs	r2, r2
    584a:	1ac8      	subs	r0, r1, r3
    584c:	4252      	negs	r2, r2
    584e:	1a80      	subs	r0, r0, r2
    5850:	0202      	lsls	r2, r0, #8
    5852:	d56a      	bpl.n	592a <__aeabi_dadd+0x5f6>
    5854:	4658      	mov	r0, r11
    5856:	1b04      	subs	r4, r0, r4
    5858:	45a3      	cmp	r11, r4
    585a:	4192      	sbcs	r2, r2
    585c:	1a59      	subs	r1, r3, r1
    585e:	4252      	negs	r2, r2
    5860:	1a89      	subs	r1, r1, r2
    5862:	4666      	mov	r6, r12
    5864:	e58f      	b.n	5386 <__aeabi_dadd+0x52>
    5866:	4658      	mov	r0, r11
    5868:	4318      	orrs	r0, r3
    586a:	d036      	beq.n	58da <__aeabi_dadd+0x5a6>
    586c:	0748      	lsls	r0, r1, #29
    586e:	08e4      	lsrs	r4, r4, #3
    5870:	4304      	orrs	r4, r0
    5872:	2080      	movs	r0, #128	; 0x80
    5874:	08c9      	lsrs	r1, r1, #3
    5876:	0300      	lsls	r0, r0, #12
    5878:	4201      	tst	r1, r0
    587a:	d008      	beq.n	588e <__aeabi_dadd+0x55a>
    587c:	08dd      	lsrs	r5, r3, #3
    587e:	4205      	tst	r5, r0
    5880:	d105      	bne.n	588e <__aeabi_dadd+0x55a>
    5882:	4659      	mov	r1, r11
    5884:	08ca      	lsrs	r2, r1, #3
    5886:	075c      	lsls	r4, r3, #29
    5888:	4314      	orrs	r4, r2
    588a:	1c29      	adds	r1, r5, #0
    588c:	4666      	mov	r6, r12
    588e:	0f63      	lsrs	r3, r4, #29
    5890:	00c9      	lsls	r1, r1, #3
    5892:	4319      	orrs	r1, r3
    5894:	00e4      	lsls	r4, r4, #3
    5896:	4d33      	ldr	r5, [pc, #204]	; (5964 <__aeabi_dadd+0x630>)
    5898:	e575      	b.n	5386 <__aeabi_dadd+0x52>
    589a:	4a32      	ldr	r2, [pc, #200]	; (5964 <__aeabi_dadd+0x630>)
    589c:	4592      	cmp	r10, r2
    589e:	d1ae      	bne.n	57fe <__aeabi_dadd+0x4ca>
    58a0:	1c19      	adds	r1, r3, #0
    58a2:	465c      	mov	r4, r11
    58a4:	4655      	mov	r5, r10
    58a6:	e56e      	b.n	5386 <__aeabi_dadd+0x52>
    58a8:	2800      	cmp	r0, #0
    58aa:	d037      	beq.n	591c <__aeabi_dadd+0x5e8>
    58ac:	4658      	mov	r0, r11
    58ae:	4318      	orrs	r0, r3
    58b0:	d013      	beq.n	58da <__aeabi_dadd+0x5a6>
    58b2:	2580      	movs	r5, #128	; 0x80
    58b4:	0748      	lsls	r0, r1, #29
    58b6:	08e4      	lsrs	r4, r4, #3
    58b8:	08c9      	lsrs	r1, r1, #3
    58ba:	032d      	lsls	r5, r5, #12
    58bc:	4304      	orrs	r4, r0
    58be:	4229      	tst	r1, r5
    58c0:	d0e5      	beq.n	588e <__aeabi_dadd+0x55a>
    58c2:	08d8      	lsrs	r0, r3, #3
    58c4:	4228      	tst	r0, r5
    58c6:	d1e2      	bne.n	588e <__aeabi_dadd+0x55a>
    58c8:	465d      	mov	r5, r11
    58ca:	08ea      	lsrs	r2, r5, #3
    58cc:	075c      	lsls	r4, r3, #29
    58ce:	4314      	orrs	r4, r2
    58d0:	1c01      	adds	r1, r0, #0
    58d2:	e7dc      	b.n	588e <__aeabi_dadd+0x55a>
    58d4:	2300      	movs	r3, #0
    58d6:	2400      	movs	r4, #0
    58d8:	e573      	b.n	53c2 <__aeabi_dadd+0x8e>
    58da:	4d22      	ldr	r5, [pc, #136]	; (5964 <__aeabi_dadd+0x630>)
    58dc:	e553      	b.n	5386 <__aeabi_dadd+0x52>
    58de:	2300      	movs	r3, #0
    58e0:	e754      	b.n	578c <__aeabi_dadd+0x458>
    58e2:	2700      	movs	r7, #0
    58e4:	2200      	movs	r2, #0
    58e6:	e6f1      	b.n	56cc <__aeabi_dadd+0x398>
    58e8:	1c3d      	adds	r5, r7, #0
    58ea:	3d20      	subs	r5, #32
    58ec:	1c0a      	adds	r2, r1, #0
    58ee:	40ea      	lsrs	r2, r5
    58f0:	1c15      	adds	r5, r2, #0
    58f2:	2f20      	cmp	r7, #32
    58f4:	d031      	beq.n	595a <__aeabi_dadd+0x626>
    58f6:	2640      	movs	r6, #64	; 0x40
    58f8:	1bf7      	subs	r7, r6, r7
    58fa:	40b9      	lsls	r1, r7
    58fc:	430c      	orrs	r4, r1
    58fe:	1e61      	subs	r1, r4, #1
    5900:	418c      	sbcs	r4, r1
    5902:	432c      	orrs	r4, r5
    5904:	2100      	movs	r1, #0
    5906:	e6ce      	b.n	56a6 <__aeabi_dadd+0x372>
    5908:	4a16      	ldr	r2, [pc, #88]	; (5964 <__aeabi_dadd+0x630>)
    590a:	2700      	movs	r7, #0
    590c:	1c15      	adds	r5, r2, #0
    590e:	e6dd      	b.n	56cc <__aeabi_dadd+0x398>
    5910:	430c      	orrs	r4, r1
    5912:	1e61      	subs	r1, r4, #1
    5914:	418c      	sbcs	r4, r1
    5916:	b2e4      	uxtb	r4, r4
    5918:	2100      	movs	r1, #0
    591a:	e786      	b.n	582a <__aeabi_dadd+0x4f6>
    591c:	1c19      	adds	r1, r3, #0
    591e:	465c      	mov	r4, r11
    5920:	4d10      	ldr	r5, [pc, #64]	; (5964 <__aeabi_dadd+0x630>)
    5922:	e530      	b.n	5386 <__aeabi_dadd+0x52>
    5924:	1c19      	adds	r1, r3, #0
    5926:	465c      	mov	r4, r11
    5928:	e52d      	b.n	5386 <__aeabi_dadd+0x52>
    592a:	1c03      	adds	r3, r0, #0
    592c:	433b      	orrs	r3, r7
    592e:	d0d8      	beq.n	58e2 <__aeabi_dadd+0x5ae>
    5930:	1c01      	adds	r1, r0, #0
    5932:	1c3c      	adds	r4, r7, #0
    5934:	e527      	b.n	5386 <__aeabi_dadd+0x52>
    5936:	2020      	movs	r0, #32
    5938:	4240      	negs	r0, r0
    593a:	1940      	adds	r0, r0, r5
    593c:	1c0a      	adds	r2, r1, #0
    593e:	40c2      	lsrs	r2, r0
    5940:	4690      	mov	r8, r2
    5942:	2d20      	cmp	r5, #32
    5944:	d00b      	beq.n	595e <__aeabi_dadd+0x62a>
    5946:	2040      	movs	r0, #64	; 0x40
    5948:	1b45      	subs	r5, r0, r5
    594a:	40a9      	lsls	r1, r5
    594c:	430c      	orrs	r4, r1
    594e:	1e61      	subs	r1, r4, #1
    5950:	418c      	sbcs	r4, r1
    5952:	4645      	mov	r5, r8
    5954:	432c      	orrs	r4, r5
    5956:	2100      	movs	r1, #0
    5958:	e767      	b.n	582a <__aeabi_dadd+0x4f6>
    595a:	2100      	movs	r1, #0
    595c:	e7ce      	b.n	58fc <__aeabi_dadd+0x5c8>
    595e:	2100      	movs	r1, #0
    5960:	e7f4      	b.n	594c <__aeabi_dadd+0x618>
    5962:	46c0      	nop			; (mov r8, r8)
    5964:	000007ff 	.word	0x000007ff
    5968:	ff7fffff 	.word	0xff7fffff

0000596c <__eqdf2>:
    596c:	b5f0      	push	{r4, r5, r6, r7, lr}
    596e:	465f      	mov	r7, r11
    5970:	4656      	mov	r6, r10
    5972:	464d      	mov	r5, r9
    5974:	4644      	mov	r4, r8
    5976:	b4f0      	push	{r4, r5, r6, r7}
    5978:	1c0d      	adds	r5, r1, #0
    597a:	1c04      	adds	r4, r0, #0
    597c:	4680      	mov	r8, r0
    597e:	0fe8      	lsrs	r0, r5, #31
    5980:	4681      	mov	r9, r0
    5982:	0318      	lsls	r0, r3, #12
    5984:	030f      	lsls	r7, r1, #12
    5986:	0b00      	lsrs	r0, r0, #12
    5988:	0b3f      	lsrs	r7, r7, #12
    598a:	b083      	sub	sp, #12
    598c:	4684      	mov	r12, r0
    598e:	481b      	ldr	r0, [pc, #108]	; (59fc <__eqdf2+0x90>)
    5990:	9700      	str	r7, [sp, #0]
    5992:	0049      	lsls	r1, r1, #1
    5994:	005e      	lsls	r6, r3, #1
    5996:	0fdf      	lsrs	r7, r3, #31
    5998:	0d49      	lsrs	r1, r1, #21
    599a:	4692      	mov	r10, r2
    599c:	0d76      	lsrs	r6, r6, #21
    599e:	46bb      	mov	r11, r7
    59a0:	4281      	cmp	r1, r0
    59a2:	d00c      	beq.n	59be <__eqdf2+0x52>
    59a4:	4815      	ldr	r0, [pc, #84]	; (59fc <__eqdf2+0x90>)
    59a6:	4286      	cmp	r6, r0
    59a8:	d010      	beq.n	59cc <__eqdf2+0x60>
    59aa:	2001      	movs	r0, #1
    59ac:	42b1      	cmp	r1, r6
    59ae:	d015      	beq.n	59dc <__eqdf2+0x70>
    59b0:	b003      	add	sp, #12
    59b2:	bc3c      	pop	{r2, r3, r4, r5}
    59b4:	4690      	mov	r8, r2
    59b6:	4699      	mov	r9, r3
    59b8:	46a2      	mov	r10, r4
    59ba:	46ab      	mov	r11, r5
    59bc:	bdf0      	pop	{r4, r5, r6, r7, pc}
    59be:	9f00      	ldr	r7, [sp, #0]
    59c0:	2001      	movs	r0, #1
    59c2:	4327      	orrs	r7, r4
    59c4:	d1f4      	bne.n	59b0 <__eqdf2+0x44>
    59c6:	480d      	ldr	r0, [pc, #52]	; (59fc <__eqdf2+0x90>)
    59c8:	4286      	cmp	r6, r0
    59ca:	d1ee      	bne.n	59aa <__eqdf2+0x3e>
    59cc:	4660      	mov	r0, r12
    59ce:	4302      	orrs	r2, r0
    59d0:	2001      	movs	r0, #1
    59d2:	2a00      	cmp	r2, #0
    59d4:	d1ec      	bne.n	59b0 <__eqdf2+0x44>
    59d6:	2001      	movs	r0, #1
    59d8:	42b1      	cmp	r1, r6
    59da:	d1e9      	bne.n	59b0 <__eqdf2+0x44>
    59dc:	9b00      	ldr	r3, [sp, #0]
    59de:	4563      	cmp	r3, r12
    59e0:	d1e6      	bne.n	59b0 <__eqdf2+0x44>
    59e2:	45d0      	cmp	r8, r10
    59e4:	d1e4      	bne.n	59b0 <__eqdf2+0x44>
    59e6:	45d9      	cmp	r9, r11
    59e8:	d006      	beq.n	59f8 <__eqdf2+0x8c>
    59ea:	2900      	cmp	r1, #0
    59ec:	d1e0      	bne.n	59b0 <__eqdf2+0x44>
    59ee:	431c      	orrs	r4, r3
    59f0:	1c20      	adds	r0, r4, #0
    59f2:	1e44      	subs	r4, r0, #1
    59f4:	41a0      	sbcs	r0, r4
    59f6:	e7db      	b.n	59b0 <__eqdf2+0x44>
    59f8:	2000      	movs	r0, #0
    59fa:	e7d9      	b.n	59b0 <__eqdf2+0x44>
    59fc:	000007ff 	.word	0x000007ff

00005a00 <__gedf2>:
    5a00:	b5f0      	push	{r4, r5, r6, r7, lr}
    5a02:	465f      	mov	r7, r11
    5a04:	4656      	mov	r6, r10
    5a06:	464d      	mov	r5, r9
    5a08:	4644      	mov	r4, r8
    5a0a:	b4f0      	push	{r4, r5, r6, r7}
    5a0c:	0fcd      	lsrs	r5, r1, #31
    5a0e:	0fde      	lsrs	r6, r3, #31
    5a10:	46ac      	mov	r12, r5
    5a12:	031d      	lsls	r5, r3, #12
    5a14:	0b2d      	lsrs	r5, r5, #12
    5a16:	46b1      	mov	r9, r6
    5a18:	4e37      	ldr	r6, [pc, #220]	; (5af8 <__gedf2+0xf8>)
    5a1a:	030f      	lsls	r7, r1, #12
    5a1c:	004c      	lsls	r4, r1, #1
    5a1e:	46ab      	mov	r11, r5
    5a20:	005d      	lsls	r5, r3, #1
    5a22:	4680      	mov	r8, r0
    5a24:	0b3f      	lsrs	r7, r7, #12
    5a26:	0d64      	lsrs	r4, r4, #21
    5a28:	4692      	mov	r10, r2
    5a2a:	0d6d      	lsrs	r5, r5, #21
    5a2c:	42b4      	cmp	r4, r6
    5a2e:	d032      	beq.n	5a96 <__gedf2+0x96>
    5a30:	4e31      	ldr	r6, [pc, #196]	; (5af8 <__gedf2+0xf8>)
    5a32:	42b5      	cmp	r5, r6
    5a34:	d035      	beq.n	5aa2 <__gedf2+0xa2>
    5a36:	2c00      	cmp	r4, #0
    5a38:	d10e      	bne.n	5a58 <__gedf2+0x58>
    5a3a:	4338      	orrs	r0, r7
    5a3c:	4241      	negs	r1, r0
    5a3e:	4141      	adcs	r1, r0
    5a40:	1c08      	adds	r0, r1, #0
    5a42:	2d00      	cmp	r5, #0
    5a44:	d00b      	beq.n	5a5e <__gedf2+0x5e>
    5a46:	2900      	cmp	r1, #0
    5a48:	d119      	bne.n	5a7e <__gedf2+0x7e>
    5a4a:	45cc      	cmp	r12, r9
    5a4c:	d02d      	beq.n	5aaa <__gedf2+0xaa>
    5a4e:	4665      	mov	r5, r12
    5a50:	4268      	negs	r0, r5
    5a52:	2301      	movs	r3, #1
    5a54:	4318      	orrs	r0, r3
    5a56:	e018      	b.n	5a8a <__gedf2+0x8a>
    5a58:	2d00      	cmp	r5, #0
    5a5a:	d1f6      	bne.n	5a4a <__gedf2+0x4a>
    5a5c:	1c28      	adds	r0, r5, #0
    5a5e:	4659      	mov	r1, r11
    5a60:	430a      	orrs	r2, r1
    5a62:	4253      	negs	r3, r2
    5a64:	4153      	adcs	r3, r2
    5a66:	2800      	cmp	r0, #0
    5a68:	d106      	bne.n	5a78 <__gedf2+0x78>
    5a6a:	2b00      	cmp	r3, #0
    5a6c:	d0ed      	beq.n	5a4a <__gedf2+0x4a>
    5a6e:	4663      	mov	r3, r12
    5a70:	4258      	negs	r0, r3
    5a72:	2301      	movs	r3, #1
    5a74:	4318      	orrs	r0, r3
    5a76:	e008      	b.n	5a8a <__gedf2+0x8a>
    5a78:	2000      	movs	r0, #0
    5a7a:	2b00      	cmp	r3, #0
    5a7c:	d105      	bne.n	5a8a <__gedf2+0x8a>
    5a7e:	464a      	mov	r2, r9
    5a80:	4250      	negs	r0, r2
    5a82:	4150      	adcs	r0, r2
    5a84:	4240      	negs	r0, r0
    5a86:	2301      	movs	r3, #1
    5a88:	4318      	orrs	r0, r3
    5a8a:	bc3c      	pop	{r2, r3, r4, r5}
    5a8c:	4690      	mov	r8, r2
    5a8e:	4699      	mov	r9, r3
    5a90:	46a2      	mov	r10, r4
    5a92:	46ab      	mov	r11, r5
    5a94:	bdf0      	pop	{r4, r5, r6, r7, pc}
    5a96:	1c3e      	adds	r6, r7, #0
    5a98:	4306      	orrs	r6, r0
    5a9a:	d0c9      	beq.n	5a30 <__gedf2+0x30>
    5a9c:	2002      	movs	r0, #2
    5a9e:	4240      	negs	r0, r0
    5aa0:	e7f3      	b.n	5a8a <__gedf2+0x8a>
    5aa2:	465e      	mov	r6, r11
    5aa4:	4316      	orrs	r6, r2
    5aa6:	d0c6      	beq.n	5a36 <__gedf2+0x36>
    5aa8:	e7f8      	b.n	5a9c <__gedf2+0x9c>
    5aaa:	42ac      	cmp	r4, r5
    5aac:	dc07      	bgt.n	5abe <__gedf2+0xbe>
    5aae:	da0b      	bge.n	5ac8 <__gedf2+0xc8>
    5ab0:	4661      	mov	r1, r12
    5ab2:	4248      	negs	r0, r1
    5ab4:	4148      	adcs	r0, r1
    5ab6:	4240      	negs	r0, r0
    5ab8:	2301      	movs	r3, #1
    5aba:	4318      	orrs	r0, r3
    5abc:	e7e5      	b.n	5a8a <__gedf2+0x8a>
    5abe:	4666      	mov	r6, r12
    5ac0:	4270      	negs	r0, r6
    5ac2:	2301      	movs	r3, #1
    5ac4:	4318      	orrs	r0, r3
    5ac6:	e7e0      	b.n	5a8a <__gedf2+0x8a>
    5ac8:	455f      	cmp	r7, r11
    5aca:	d80a      	bhi.n	5ae2 <__gedf2+0xe2>
    5acc:	d00e      	beq.n	5aec <__gedf2+0xec>
    5ace:	2000      	movs	r0, #0
    5ad0:	455f      	cmp	r7, r11
    5ad2:	d2da      	bcs.n	5a8a <__gedf2+0x8a>
    5ad4:	4665      	mov	r5, r12
    5ad6:	4268      	negs	r0, r5
    5ad8:	4168      	adcs	r0, r5
    5ada:	4240      	negs	r0, r0
    5adc:	2301      	movs	r3, #1
    5ade:	4318      	orrs	r0, r3
    5ae0:	e7d3      	b.n	5a8a <__gedf2+0x8a>
    5ae2:	4662      	mov	r2, r12
    5ae4:	4250      	negs	r0, r2
    5ae6:	2301      	movs	r3, #1
    5ae8:	4318      	orrs	r0, r3
    5aea:	e7ce      	b.n	5a8a <__gedf2+0x8a>
    5aec:	45d0      	cmp	r8, r10
    5aee:	d8f8      	bhi.n	5ae2 <__gedf2+0xe2>
    5af0:	2000      	movs	r0, #0
    5af2:	45d0      	cmp	r8, r10
    5af4:	d3ee      	bcc.n	5ad4 <__gedf2+0xd4>
    5af6:	e7c8      	b.n	5a8a <__gedf2+0x8a>
    5af8:	000007ff 	.word	0x000007ff

00005afc <__ledf2>:
    5afc:	b5f0      	push	{r4, r5, r6, r7, lr}
    5afe:	4656      	mov	r6, r10
    5b00:	464d      	mov	r5, r9
    5b02:	4644      	mov	r4, r8
    5b04:	465f      	mov	r7, r11
    5b06:	b4f0      	push	{r4, r5, r6, r7}
    5b08:	1c0d      	adds	r5, r1, #0
    5b0a:	b083      	sub	sp, #12
    5b0c:	1c04      	adds	r4, r0, #0
    5b0e:	9001      	str	r0, [sp, #4]
    5b10:	0fe8      	lsrs	r0, r5, #31
    5b12:	4681      	mov	r9, r0
    5b14:	0318      	lsls	r0, r3, #12
    5b16:	030f      	lsls	r7, r1, #12
    5b18:	0b00      	lsrs	r0, r0, #12
    5b1a:	0b3f      	lsrs	r7, r7, #12
    5b1c:	4684      	mov	r12, r0
    5b1e:	4835      	ldr	r0, [pc, #212]	; (5bf4 <__ledf2+0xf8>)
    5b20:	9700      	str	r7, [sp, #0]
    5b22:	0049      	lsls	r1, r1, #1
    5b24:	005e      	lsls	r6, r3, #1
    5b26:	0fdf      	lsrs	r7, r3, #31
    5b28:	0d49      	lsrs	r1, r1, #21
    5b2a:	4692      	mov	r10, r2
    5b2c:	0d76      	lsrs	r6, r6, #21
    5b2e:	46b8      	mov	r8, r7
    5b30:	4281      	cmp	r1, r0
    5b32:	d034      	beq.n	5b9e <__ledf2+0xa2>
    5b34:	482f      	ldr	r0, [pc, #188]	; (5bf4 <__ledf2+0xf8>)
    5b36:	4286      	cmp	r6, r0
    5b38:	d036      	beq.n	5ba8 <__ledf2+0xac>
    5b3a:	2900      	cmp	r1, #0
    5b3c:	d018      	beq.n	5b70 <__ledf2+0x74>
    5b3e:	2e00      	cmp	r6, #0
    5b40:	d11f      	bne.n	5b82 <__ledf2+0x86>
    5b42:	1c34      	adds	r4, r6, #0
    5b44:	4667      	mov	r7, r12
    5b46:	433a      	orrs	r2, r7
    5b48:	4253      	negs	r3, r2
    5b4a:	4153      	adcs	r3, r2
    5b4c:	2c00      	cmp	r4, #0
    5b4e:	d01f      	beq.n	5b90 <__ledf2+0x94>
    5b50:	2000      	movs	r0, #0
    5b52:	2b00      	cmp	r3, #0
    5b54:	d105      	bne.n	5b62 <__ledf2+0x66>
    5b56:	4642      	mov	r2, r8
    5b58:	4250      	negs	r0, r2
    5b5a:	4150      	adcs	r0, r2
    5b5c:	4240      	negs	r0, r0
    5b5e:	2301      	movs	r3, #1
    5b60:	4318      	orrs	r0, r3
    5b62:	b003      	add	sp, #12
    5b64:	bc3c      	pop	{r2, r3, r4, r5}
    5b66:	4690      	mov	r8, r2
    5b68:	4699      	mov	r9, r3
    5b6a:	46a2      	mov	r10, r4
    5b6c:	46ab      	mov	r11, r5
    5b6e:	bdf0      	pop	{r4, r5, r6, r7, pc}
    5b70:	9800      	ldr	r0, [sp, #0]
    5b72:	4304      	orrs	r4, r0
    5b74:	4260      	negs	r0, r4
    5b76:	4160      	adcs	r0, r4
    5b78:	1c04      	adds	r4, r0, #0
    5b7a:	2e00      	cmp	r6, #0
    5b7c:	d0e2      	beq.n	5b44 <__ledf2+0x48>
    5b7e:	2800      	cmp	r0, #0
    5b80:	d1e9      	bne.n	5b56 <__ledf2+0x5a>
    5b82:	45c1      	cmp	r9, r8
    5b84:	d015      	beq.n	5bb2 <__ledf2+0xb6>
    5b86:	464f      	mov	r7, r9
    5b88:	4278      	negs	r0, r7
    5b8a:	2301      	movs	r3, #1
    5b8c:	4318      	orrs	r0, r3
    5b8e:	e7e8      	b.n	5b62 <__ledf2+0x66>
    5b90:	2b00      	cmp	r3, #0
    5b92:	d0f6      	beq.n	5b82 <__ledf2+0x86>
    5b94:	464b      	mov	r3, r9
    5b96:	4258      	negs	r0, r3
    5b98:	2301      	movs	r3, #1
    5b9a:	4318      	orrs	r0, r3
    5b9c:	e7e1      	b.n	5b62 <__ledf2+0x66>
    5b9e:	9f00      	ldr	r7, [sp, #0]
    5ba0:	2002      	movs	r0, #2
    5ba2:	4327      	orrs	r7, r4
    5ba4:	d1dd      	bne.n	5b62 <__ledf2+0x66>
    5ba6:	e7c5      	b.n	5b34 <__ledf2+0x38>
    5ba8:	4667      	mov	r7, r12
    5baa:	2002      	movs	r0, #2
    5bac:	4317      	orrs	r7, r2
    5bae:	d1d8      	bne.n	5b62 <__ledf2+0x66>
    5bb0:	e7c3      	b.n	5b3a <__ledf2+0x3e>
    5bb2:	42b1      	cmp	r1, r6
    5bb4:	dd04      	ble.n	5bc0 <__ledf2+0xc4>
    5bb6:	464a      	mov	r2, r9
    5bb8:	4250      	negs	r0, r2
    5bba:	2301      	movs	r3, #1
    5bbc:	4318      	orrs	r0, r3
    5bbe:	e7d0      	b.n	5b62 <__ledf2+0x66>
    5bc0:	42b1      	cmp	r1, r6
    5bc2:	db07      	blt.n	5bd4 <__ledf2+0xd8>
    5bc4:	9800      	ldr	r0, [sp, #0]
    5bc6:	4560      	cmp	r0, r12
    5bc8:	d8e4      	bhi.n	5b94 <__ledf2+0x98>
    5bca:	d00a      	beq.n	5be2 <__ledf2+0xe6>
    5bcc:	9f00      	ldr	r7, [sp, #0]
    5bce:	2000      	movs	r0, #0
    5bd0:	4567      	cmp	r7, r12
    5bd2:	d2c6      	bcs.n	5b62 <__ledf2+0x66>
    5bd4:	464f      	mov	r7, r9
    5bd6:	4278      	negs	r0, r7
    5bd8:	4178      	adcs	r0, r7
    5bda:	4240      	negs	r0, r0
    5bdc:	2301      	movs	r3, #1
    5bde:	4318      	orrs	r0, r3
    5be0:	e7bf      	b.n	5b62 <__ledf2+0x66>
    5be2:	9a01      	ldr	r2, [sp, #4]
    5be4:	4552      	cmp	r2, r10
    5be6:	d8d5      	bhi.n	5b94 <__ledf2+0x98>
    5be8:	9a01      	ldr	r2, [sp, #4]
    5bea:	2000      	movs	r0, #0
    5bec:	4552      	cmp	r2, r10
    5bee:	d3f1      	bcc.n	5bd4 <__ledf2+0xd8>
    5bf0:	e7b7      	b.n	5b62 <__ledf2+0x66>
    5bf2:	46c0      	nop			; (mov r8, r8)
    5bf4:	000007ff 	.word	0x000007ff

00005bf8 <__aeabi_dsub>:
    5bf8:	b5f8      	push	{r3, r4, r5, r6, r7, lr}
    5bfa:	465f      	mov	r7, r11
    5bfc:	4656      	mov	r6, r10
    5bfe:	4644      	mov	r4, r8
    5c00:	464d      	mov	r5, r9
    5c02:	b4f0      	push	{r4, r5, r6, r7}
    5c04:	030c      	lsls	r4, r1, #12
    5c06:	004d      	lsls	r5, r1, #1
    5c08:	0fcf      	lsrs	r7, r1, #31
    5c0a:	0a61      	lsrs	r1, r4, #9
    5c0c:	0f44      	lsrs	r4, r0, #29
    5c0e:	4321      	orrs	r1, r4
    5c10:	00c4      	lsls	r4, r0, #3
    5c12:	0318      	lsls	r0, r3, #12
    5c14:	0fde      	lsrs	r6, r3, #31
    5c16:	4680      	mov	r8, r0
    5c18:	46b4      	mov	r12, r6
    5c1a:	4646      	mov	r6, r8
    5c1c:	0058      	lsls	r0, r3, #1
    5c1e:	0a76      	lsrs	r6, r6, #9
    5c20:	0f53      	lsrs	r3, r2, #29
    5c22:	4333      	orrs	r3, r6
    5c24:	00d6      	lsls	r6, r2, #3
    5c26:	4ac9      	ldr	r2, [pc, #804]	; (5f4c <__aeabi_dsub+0x354>)
    5c28:	0d6d      	lsrs	r5, r5, #21
    5c2a:	46ba      	mov	r10, r7
    5c2c:	0d40      	lsrs	r0, r0, #21
    5c2e:	46b3      	mov	r11, r6
    5c30:	4290      	cmp	r0, r2
    5c32:	d100      	bne.n	5c36 <__aeabi_dsub+0x3e>
    5c34:	e0eb      	b.n	5e0e <__aeabi_dsub+0x216>
    5c36:	4662      	mov	r2, r12
    5c38:	2601      	movs	r6, #1
    5c3a:	4072      	eors	r2, r6
    5c3c:	4694      	mov	r12, r2
    5c3e:	4567      	cmp	r7, r12
    5c40:	d100      	bne.n	5c44 <__aeabi_dsub+0x4c>
    5c42:	e0a1      	b.n	5d88 <__aeabi_dsub+0x190>
    5c44:	1a2f      	subs	r7, r5, r0
    5c46:	2f00      	cmp	r7, #0
    5c48:	dc00      	bgt.n	5c4c <__aeabi_dsub+0x54>
    5c4a:	e108      	b.n	5e5e <__aeabi_dsub+0x266>
    5c4c:	2800      	cmp	r0, #0
    5c4e:	d13b      	bne.n	5cc8 <__aeabi_dsub+0xd0>
    5c50:	4658      	mov	r0, r11
    5c52:	4318      	orrs	r0, r3
    5c54:	d000      	beq.n	5c58 <__aeabi_dsub+0x60>
    5c56:	e0e8      	b.n	5e2a <__aeabi_dsub+0x232>
    5c58:	0760      	lsls	r0, r4, #29
    5c5a:	d009      	beq.n	5c70 <__aeabi_dsub+0x78>
    5c5c:	230f      	movs	r3, #15
    5c5e:	4023      	ands	r3, r4
    5c60:	2b04      	cmp	r3, #4
    5c62:	d005      	beq.n	5c70 <__aeabi_dsub+0x78>
    5c64:	1d23      	adds	r3, r4, #4
    5c66:	42a3      	cmp	r3, r4
    5c68:	41a4      	sbcs	r4, r4
    5c6a:	4264      	negs	r4, r4
    5c6c:	1909      	adds	r1, r1, r4
    5c6e:	1c1c      	adds	r4, r3, #0
    5c70:	020a      	lsls	r2, r1, #8
    5c72:	d400      	bmi.n	5c76 <__aeabi_dsub+0x7e>
    5c74:	e079      	b.n	5d6a <__aeabi_dsub+0x172>
    5c76:	4bb5      	ldr	r3, [pc, #724]	; (5f4c <__aeabi_dsub+0x354>)
    5c78:	1c6a      	adds	r2, r5, #1
    5c7a:	429a      	cmp	r2, r3
    5c7c:	d100      	bne.n	5c80 <__aeabi_dsub+0x88>
    5c7e:	e109      	b.n	5e94 <__aeabi_dsub+0x29c>
    5c80:	4bb3      	ldr	r3, [pc, #716]	; (5f50 <__aeabi_dsub+0x358>)
    5c82:	08e4      	lsrs	r4, r4, #3
    5c84:	4019      	ands	r1, r3
    5c86:	0748      	lsls	r0, r1, #29
    5c88:	4304      	orrs	r4, r0
    5c8a:	0249      	lsls	r1, r1, #9
    5c8c:	0552      	lsls	r2, r2, #21
    5c8e:	2701      	movs	r7, #1
    5c90:	4650      	mov	r0, r10
    5c92:	0b0b      	lsrs	r3, r1, #12
    5c94:	0d52      	lsrs	r2, r2, #21
    5c96:	4007      	ands	r7, r0
    5c98:	2000      	movs	r0, #0
    5c9a:	2100      	movs	r1, #0
    5c9c:	031b      	lsls	r3, r3, #12
    5c9e:	1c20      	adds	r0, r4, #0
    5ca0:	0b1c      	lsrs	r4, r3, #12
    5ca2:	0d0b      	lsrs	r3, r1, #20
    5ca4:	051b      	lsls	r3, r3, #20
    5ca6:	4dab      	ldr	r5, [pc, #684]	; (5f54 <__aeabi_dsub+0x35c>)
    5ca8:	4323      	orrs	r3, r4
    5caa:	0552      	lsls	r2, r2, #21
    5cac:	0852      	lsrs	r2, r2, #1
    5cae:	401d      	ands	r5, r3
    5cb0:	4315      	orrs	r5, r2
    5cb2:	006d      	lsls	r5, r5, #1
    5cb4:	086d      	lsrs	r5, r5, #1
    5cb6:	07ff      	lsls	r7, r7, #31
    5cb8:	1c29      	adds	r1, r5, #0
    5cba:	4339      	orrs	r1, r7
    5cbc:	bc3c      	pop	{r2, r3, r4, r5}
    5cbe:	4690      	mov	r8, r2
    5cc0:	4699      	mov	r9, r3
    5cc2:	46a2      	mov	r10, r4
    5cc4:	46ab      	mov	r11, r5
    5cc6:	bdf8      	pop	{r3, r4, r5, r6, r7, pc}
    5cc8:	48a0      	ldr	r0, [pc, #640]	; (5f4c <__aeabi_dsub+0x354>)
    5cca:	4285      	cmp	r5, r0
    5ccc:	d0c4      	beq.n	5c58 <__aeabi_dsub+0x60>
    5cce:	2080      	movs	r0, #128	; 0x80
    5cd0:	0400      	lsls	r0, r0, #16
    5cd2:	4303      	orrs	r3, r0
    5cd4:	2f38      	cmp	r7, #56	; 0x38
    5cd6:	dd00      	ble.n	5cda <__aeabi_dsub+0xe2>
    5cd8:	e0f0      	b.n	5ebc <__aeabi_dsub+0x2c4>
    5cda:	2f1f      	cmp	r7, #31
    5cdc:	dd00      	ble.n	5ce0 <__aeabi_dsub+0xe8>
    5cde:	e124      	b.n	5f2a <__aeabi_dsub+0x332>
    5ce0:	2020      	movs	r0, #32
    5ce2:	1bc0      	subs	r0, r0, r7
    5ce4:	1c1a      	adds	r2, r3, #0
    5ce6:	465e      	mov	r6, r11
    5ce8:	4082      	lsls	r2, r0
    5cea:	40fe      	lsrs	r6, r7
    5cec:	4332      	orrs	r2, r6
    5cee:	4694      	mov	r12, r2
    5cf0:	465a      	mov	r2, r11
    5cf2:	4082      	lsls	r2, r0
    5cf4:	1c10      	adds	r0, r2, #0
    5cf6:	1e42      	subs	r2, r0, #1
    5cf8:	4190      	sbcs	r0, r2
    5cfa:	40fb      	lsrs	r3, r7
    5cfc:	4662      	mov	r2, r12
    5cfe:	4302      	orrs	r2, r0
    5d00:	1c1f      	adds	r7, r3, #0
    5d02:	1aa2      	subs	r2, r4, r2
    5d04:	4294      	cmp	r4, r2
    5d06:	41a4      	sbcs	r4, r4
    5d08:	4264      	negs	r4, r4
    5d0a:	1bc9      	subs	r1, r1, r7
    5d0c:	1b09      	subs	r1, r1, r4
    5d0e:	1c14      	adds	r4, r2, #0
    5d10:	020a      	lsls	r2, r1, #8
    5d12:	d5a1      	bpl.n	5c58 <__aeabi_dsub+0x60>
    5d14:	0249      	lsls	r1, r1, #9
    5d16:	0a4f      	lsrs	r7, r1, #9
    5d18:	2f00      	cmp	r7, #0
    5d1a:	d100      	bne.n	5d1e <__aeabi_dsub+0x126>
    5d1c:	e0c9      	b.n	5eb2 <__aeabi_dsub+0x2ba>
    5d1e:	1c38      	adds	r0, r7, #0
    5d20:	f7fd f8d0 	bl	2ec4 <__clzsi2>
    5d24:	1c02      	adds	r2, r0, #0
    5d26:	3a08      	subs	r2, #8
    5d28:	2a1f      	cmp	r2, #31
    5d2a:	dd00      	ble.n	5d2e <__aeabi_dsub+0x136>
    5d2c:	e0bc      	b.n	5ea8 <__aeabi_dsub+0x2b0>
    5d2e:	2128      	movs	r1, #40	; 0x28
    5d30:	1c23      	adds	r3, r4, #0
    5d32:	1a09      	subs	r1, r1, r0
    5d34:	4097      	lsls	r7, r2
    5d36:	40cb      	lsrs	r3, r1
    5d38:	431f      	orrs	r7, r3
    5d3a:	4094      	lsls	r4, r2
    5d3c:	4295      	cmp	r5, r2
    5d3e:	dd00      	ble.n	5d42 <__aeabi_dsub+0x14a>
    5d40:	e0ae      	b.n	5ea0 <__aeabi_dsub+0x2a8>
    5d42:	1b55      	subs	r5, r2, r5
    5d44:	1c69      	adds	r1, r5, #1
    5d46:	291f      	cmp	r1, #31
    5d48:	dd00      	ble.n	5d4c <__aeabi_dsub+0x154>
    5d4a:	e0dd      	b.n	5f08 <__aeabi_dsub+0x310>
    5d4c:	221f      	movs	r2, #31
    5d4e:	1b55      	subs	r5, r2, r5
    5d50:	1c3b      	adds	r3, r7, #0
    5d52:	1c22      	adds	r2, r4, #0
    5d54:	40ab      	lsls	r3, r5
    5d56:	40ca      	lsrs	r2, r1
    5d58:	40ac      	lsls	r4, r5
    5d5a:	1e65      	subs	r5, r4, #1
    5d5c:	41ac      	sbcs	r4, r5
    5d5e:	4313      	orrs	r3, r2
    5d60:	40cf      	lsrs	r7, r1
    5d62:	431c      	orrs	r4, r3
    5d64:	1c39      	adds	r1, r7, #0
    5d66:	2500      	movs	r5, #0
    5d68:	e776      	b.n	5c58 <__aeabi_dsub+0x60>
    5d6a:	0748      	lsls	r0, r1, #29
    5d6c:	08e4      	lsrs	r4, r4, #3
    5d6e:	056a      	lsls	r2, r5, #21
    5d70:	2701      	movs	r7, #1
    5d72:	4656      	mov	r6, r10
    5d74:	08c9      	lsrs	r1, r1, #3
    5d76:	0d52      	lsrs	r2, r2, #21
    5d78:	4037      	ands	r7, r6
    5d7a:	4304      	orrs	r4, r0
    5d7c:	4b73      	ldr	r3, [pc, #460]	; (5f4c <__aeabi_dsub+0x354>)
    5d7e:	429d      	cmp	r5, r3
    5d80:	d049      	beq.n	5e16 <__aeabi_dsub+0x21e>
    5d82:	0309      	lsls	r1, r1, #12
    5d84:	0b0b      	lsrs	r3, r1, #12
    5d86:	e787      	b.n	5c98 <__aeabi_dsub+0xa0>
    5d88:	1a2a      	subs	r2, r5, r0
    5d8a:	4694      	mov	r12, r2
    5d8c:	2a00      	cmp	r2, #0
    5d8e:	dc00      	bgt.n	5d92 <__aeabi_dsub+0x19a>
    5d90:	e09b      	b.n	5eca <__aeabi_dsub+0x2d2>
    5d92:	2800      	cmp	r0, #0
    5d94:	d055      	beq.n	5e42 <__aeabi_dsub+0x24a>
    5d96:	486d      	ldr	r0, [pc, #436]	; (5f4c <__aeabi_dsub+0x354>)
    5d98:	4285      	cmp	r5, r0
    5d9a:	d100      	bne.n	5d9e <__aeabi_dsub+0x1a6>
    5d9c:	e75c      	b.n	5c58 <__aeabi_dsub+0x60>
    5d9e:	2080      	movs	r0, #128	; 0x80
    5da0:	0400      	lsls	r0, r0, #16
    5da2:	4303      	orrs	r3, r0
    5da4:	4660      	mov	r0, r12
    5da6:	2838      	cmp	r0, #56	; 0x38
    5da8:	dd00      	ble.n	5dac <__aeabi_dsub+0x1b4>
    5daa:	e109      	b.n	5fc0 <__aeabi_dsub+0x3c8>
    5dac:	281f      	cmp	r0, #31
    5dae:	dd00      	ble.n	5db2 <__aeabi_dsub+0x1ba>
    5db0:	e150      	b.n	6054 <__aeabi_dsub+0x45c>
    5db2:	4662      	mov	r2, r12
    5db4:	2020      	movs	r0, #32
    5db6:	1a80      	subs	r0, r0, r2
    5db8:	1c1e      	adds	r6, r3, #0
    5dba:	4086      	lsls	r6, r0
    5dbc:	46b1      	mov	r9, r6
    5dbe:	465e      	mov	r6, r11
    5dc0:	40d6      	lsrs	r6, r2
    5dc2:	464a      	mov	r2, r9
    5dc4:	4332      	orrs	r2, r6
    5dc6:	465e      	mov	r6, r11
    5dc8:	4086      	lsls	r6, r0
    5dca:	4690      	mov	r8, r2
    5dcc:	1c30      	adds	r0, r6, #0
    5dce:	1e42      	subs	r2, r0, #1
    5dd0:	4190      	sbcs	r0, r2
    5dd2:	4642      	mov	r2, r8
    5dd4:	4302      	orrs	r2, r0
    5dd6:	4660      	mov	r0, r12
    5dd8:	40c3      	lsrs	r3, r0
    5dda:	1912      	adds	r2, r2, r4
    5ddc:	42a2      	cmp	r2, r4
    5dde:	41a4      	sbcs	r4, r4
    5de0:	4264      	negs	r4, r4
    5de2:	1859      	adds	r1, r3, r1
    5de4:	1909      	adds	r1, r1, r4
    5de6:	1c14      	adds	r4, r2, #0
    5de8:	0208      	lsls	r0, r1, #8
    5dea:	d400      	bmi.n	5dee <__aeabi_dsub+0x1f6>
    5dec:	e734      	b.n	5c58 <__aeabi_dsub+0x60>
    5dee:	4b57      	ldr	r3, [pc, #348]	; (5f4c <__aeabi_dsub+0x354>)
    5df0:	3501      	adds	r5, #1
    5df2:	429d      	cmp	r5, r3
    5df4:	d100      	bne.n	5df8 <__aeabi_dsub+0x200>
    5df6:	e142      	b.n	607e <__aeabi_dsub+0x486>
    5df8:	4b55      	ldr	r3, [pc, #340]	; (5f50 <__aeabi_dsub+0x358>)
    5dfa:	0860      	lsrs	r0, r4, #1
    5dfc:	4019      	ands	r1, r3
    5dfe:	2301      	movs	r3, #1
    5e00:	4023      	ands	r3, r4
    5e02:	1c1c      	adds	r4, r3, #0
    5e04:	4304      	orrs	r4, r0
    5e06:	07cb      	lsls	r3, r1, #31
    5e08:	431c      	orrs	r4, r3
    5e0a:	0849      	lsrs	r1, r1, #1
    5e0c:	e724      	b.n	5c58 <__aeabi_dsub+0x60>
    5e0e:	431e      	orrs	r6, r3
    5e10:	d000      	beq.n	5e14 <__aeabi_dsub+0x21c>
    5e12:	e714      	b.n	5c3e <__aeabi_dsub+0x46>
    5e14:	e70f      	b.n	5c36 <__aeabi_dsub+0x3e>
    5e16:	1c0b      	adds	r3, r1, #0
    5e18:	4323      	orrs	r3, r4
    5e1a:	d100      	bne.n	5e1e <__aeabi_dsub+0x226>
    5e1c:	e1cf      	b.n	61be <__aeabi_dsub+0x5c6>
    5e1e:	2380      	movs	r3, #128	; 0x80
    5e20:	031b      	lsls	r3, r3, #12
    5e22:	430b      	orrs	r3, r1
    5e24:	031b      	lsls	r3, r3, #12
    5e26:	0b1b      	lsrs	r3, r3, #12
    5e28:	e736      	b.n	5c98 <__aeabi_dsub+0xa0>
    5e2a:	3f01      	subs	r7, #1
    5e2c:	2f00      	cmp	r7, #0
    5e2e:	d166      	bne.n	5efe <__aeabi_dsub+0x306>
    5e30:	465e      	mov	r6, r11
    5e32:	1ba2      	subs	r2, r4, r6
    5e34:	4294      	cmp	r4, r2
    5e36:	41a4      	sbcs	r4, r4
    5e38:	4264      	negs	r4, r4
    5e3a:	1ac9      	subs	r1, r1, r3
    5e3c:	1b09      	subs	r1, r1, r4
    5e3e:	1c14      	adds	r4, r2, #0
    5e40:	e766      	b.n	5d10 <__aeabi_dsub+0x118>
    5e42:	4658      	mov	r0, r11
    5e44:	4318      	orrs	r0, r3
    5e46:	d100      	bne.n	5e4a <__aeabi_dsub+0x252>
    5e48:	e706      	b.n	5c58 <__aeabi_dsub+0x60>
    5e4a:	2601      	movs	r6, #1
    5e4c:	4276      	negs	r6, r6
    5e4e:	44b4      	add	r12, r6
    5e50:	4660      	mov	r0, r12
    5e52:	2800      	cmp	r0, #0
    5e54:	d000      	beq.n	5e58 <__aeabi_dsub+0x260>
    5e56:	e0ca      	b.n	5fee <__aeabi_dsub+0x3f6>
    5e58:	465e      	mov	r6, r11
    5e5a:	1932      	adds	r2, r6, r4
    5e5c:	e7be      	b.n	5ddc <__aeabi_dsub+0x1e4>
    5e5e:	2f00      	cmp	r7, #0
    5e60:	d17a      	bne.n	5f58 <__aeabi_dsub+0x360>
    5e62:	1c68      	adds	r0, r5, #1
    5e64:	0540      	lsls	r0, r0, #21
    5e66:	0d40      	lsrs	r0, r0, #21
    5e68:	2801      	cmp	r0, #1
    5e6a:	dc00      	bgt.n	5e6e <__aeabi_dsub+0x276>
    5e6c:	e0e3      	b.n	6036 <__aeabi_dsub+0x43e>
    5e6e:	465a      	mov	r2, r11
    5e70:	1aa2      	subs	r2, r4, r2
    5e72:	4294      	cmp	r4, r2
    5e74:	41bf      	sbcs	r7, r7
    5e76:	1ac8      	subs	r0, r1, r3
    5e78:	427f      	negs	r7, r7
    5e7a:	1bc7      	subs	r7, r0, r7
    5e7c:	023e      	lsls	r6, r7, #8
    5e7e:	d400      	bmi.n	5e82 <__aeabi_dsub+0x28a>
    5e80:	e092      	b.n	5fa8 <__aeabi_dsub+0x3b0>
    5e82:	4658      	mov	r0, r11
    5e84:	1b04      	subs	r4, r0, r4
    5e86:	45a3      	cmp	r11, r4
    5e88:	4192      	sbcs	r2, r2
    5e8a:	1a59      	subs	r1, r3, r1
    5e8c:	4252      	negs	r2, r2
    5e8e:	1a8f      	subs	r7, r1, r2
    5e90:	46e2      	mov	r10, r12
    5e92:	e741      	b.n	5d18 <__aeabi_dsub+0x120>
    5e94:	4653      	mov	r3, r10
    5e96:	2701      	movs	r7, #1
    5e98:	401f      	ands	r7, r3
    5e9a:	2400      	movs	r4, #0
    5e9c:	2300      	movs	r3, #0
    5e9e:	e6fb      	b.n	5c98 <__aeabi_dsub+0xa0>
    5ea0:	492b      	ldr	r1, [pc, #172]	; (5f50 <__aeabi_dsub+0x358>)
    5ea2:	1aad      	subs	r5, r5, r2
    5ea4:	4039      	ands	r1, r7
    5ea6:	e6d7      	b.n	5c58 <__aeabi_dsub+0x60>
    5ea8:	1c27      	adds	r7, r4, #0
    5eaa:	3828      	subs	r0, #40	; 0x28
    5eac:	4087      	lsls	r7, r0
    5eae:	2400      	movs	r4, #0
    5eb0:	e744      	b.n	5d3c <__aeabi_dsub+0x144>
    5eb2:	1c20      	adds	r0, r4, #0
    5eb4:	f7fd f806 	bl	2ec4 <__clzsi2>
    5eb8:	3020      	adds	r0, #32
    5eba:	e733      	b.n	5d24 <__aeabi_dsub+0x12c>
    5ebc:	465a      	mov	r2, r11
    5ebe:	431a      	orrs	r2, r3
    5ec0:	1e53      	subs	r3, r2, #1
    5ec2:	419a      	sbcs	r2, r3
    5ec4:	b2d2      	uxtb	r2, r2
    5ec6:	2700      	movs	r7, #0
    5ec8:	e71b      	b.n	5d02 <__aeabi_dsub+0x10a>
    5eca:	2a00      	cmp	r2, #0
    5ecc:	d000      	beq.n	5ed0 <__aeabi_dsub+0x2d8>
    5ece:	e0e1      	b.n	6094 <__aeabi_dsub+0x49c>
    5ed0:	1c68      	adds	r0, r5, #1
    5ed2:	0546      	lsls	r6, r0, #21
    5ed4:	0d76      	lsrs	r6, r6, #21
    5ed6:	2e01      	cmp	r6, #1
    5ed8:	dc00      	bgt.n	5edc <__aeabi_dsub+0x2e4>
    5eda:	e091      	b.n	6000 <__aeabi_dsub+0x408>
    5edc:	4d1b      	ldr	r5, [pc, #108]	; (5f4c <__aeabi_dsub+0x354>)
    5ede:	42a8      	cmp	r0, r5
    5ee0:	d100      	bne.n	5ee4 <__aeabi_dsub+0x2ec>
    5ee2:	e0f7      	b.n	60d4 <__aeabi_dsub+0x4dc>
    5ee4:	465e      	mov	r6, r11
    5ee6:	1932      	adds	r2, r6, r4
    5ee8:	42a2      	cmp	r2, r4
    5eea:	41a4      	sbcs	r4, r4
    5eec:	4264      	negs	r4, r4
    5eee:	1859      	adds	r1, r3, r1
    5ef0:	1909      	adds	r1, r1, r4
    5ef2:	07cc      	lsls	r4, r1, #31
    5ef4:	0852      	lsrs	r2, r2, #1
    5ef6:	4314      	orrs	r4, r2
    5ef8:	0849      	lsrs	r1, r1, #1
    5efa:	1c05      	adds	r5, r0, #0
    5efc:	e6ac      	b.n	5c58 <__aeabi_dsub+0x60>
    5efe:	4813      	ldr	r0, [pc, #76]	; (5f4c <__aeabi_dsub+0x354>)
    5f00:	4285      	cmp	r5, r0
    5f02:	d000      	beq.n	5f06 <__aeabi_dsub+0x30e>
    5f04:	e6e6      	b.n	5cd4 <__aeabi_dsub+0xdc>
    5f06:	e6a7      	b.n	5c58 <__aeabi_dsub+0x60>
    5f08:	1c2b      	adds	r3, r5, #0
    5f0a:	3b1f      	subs	r3, #31
    5f0c:	1c3e      	adds	r6, r7, #0
    5f0e:	40de      	lsrs	r6, r3
    5f10:	1c33      	adds	r3, r6, #0
    5f12:	2920      	cmp	r1, #32
    5f14:	d070      	beq.n	5ff8 <__aeabi_dsub+0x400>
    5f16:	223f      	movs	r2, #63	; 0x3f
    5f18:	1b55      	subs	r5, r2, r5
    5f1a:	40af      	lsls	r7, r5
    5f1c:	433c      	orrs	r4, r7
    5f1e:	1e60      	subs	r0, r4, #1
    5f20:	4184      	sbcs	r4, r0
    5f22:	431c      	orrs	r4, r3
    5f24:	2100      	movs	r1, #0
    5f26:	2500      	movs	r5, #0
    5f28:	e696      	b.n	5c58 <__aeabi_dsub+0x60>
    5f2a:	1c38      	adds	r0, r7, #0
    5f2c:	3820      	subs	r0, #32
    5f2e:	1c1e      	adds	r6, r3, #0
    5f30:	40c6      	lsrs	r6, r0
    5f32:	1c30      	adds	r0, r6, #0
    5f34:	2f20      	cmp	r7, #32
    5f36:	d061      	beq.n	5ffc <__aeabi_dsub+0x404>
    5f38:	2240      	movs	r2, #64	; 0x40
    5f3a:	1bd7      	subs	r7, r2, r7
    5f3c:	40bb      	lsls	r3, r7
    5f3e:	465a      	mov	r2, r11
    5f40:	431a      	orrs	r2, r3
    5f42:	1e53      	subs	r3, r2, #1
    5f44:	419a      	sbcs	r2, r3
    5f46:	4302      	orrs	r2, r0
    5f48:	2700      	movs	r7, #0
    5f4a:	e6da      	b.n	5d02 <__aeabi_dsub+0x10a>
    5f4c:	000007ff 	.word	0x000007ff
    5f50:	ff7fffff 	.word	0xff7fffff
    5f54:	800fffff 	.word	0x800fffff
    5f58:	2d00      	cmp	r5, #0
    5f5a:	d038      	beq.n	5fce <__aeabi_dsub+0x3d6>
    5f5c:	4db9      	ldr	r5, [pc, #740]	; (6244 <__aeabi_dsub+0x64c>)
    5f5e:	42a8      	cmp	r0, r5
    5f60:	d100      	bne.n	5f64 <__aeabi_dsub+0x36c>
    5f62:	e092      	b.n	608a <__aeabi_dsub+0x492>
    5f64:	2580      	movs	r5, #128	; 0x80
    5f66:	042d      	lsls	r5, r5, #16
    5f68:	427f      	negs	r7, r7
    5f6a:	4329      	orrs	r1, r5
    5f6c:	2f38      	cmp	r7, #56	; 0x38
    5f6e:	dd00      	ble.n	5f72 <__aeabi_dsub+0x37a>
    5f70:	e0aa      	b.n	60c8 <__aeabi_dsub+0x4d0>
    5f72:	2f1f      	cmp	r7, #31
    5f74:	dd00      	ble.n	5f78 <__aeabi_dsub+0x380>
    5f76:	e12c      	b.n	61d2 <__aeabi_dsub+0x5da>
    5f78:	2520      	movs	r5, #32
    5f7a:	1bed      	subs	r5, r5, r7
    5f7c:	1c0e      	adds	r6, r1, #0
    5f7e:	40ae      	lsls	r6, r5
    5f80:	46b0      	mov	r8, r6
    5f82:	1c26      	adds	r6, r4, #0
    5f84:	40fe      	lsrs	r6, r7
    5f86:	4642      	mov	r2, r8
    5f88:	40ac      	lsls	r4, r5
    5f8a:	4316      	orrs	r6, r2
    5f8c:	1e65      	subs	r5, r4, #1
    5f8e:	41ac      	sbcs	r4, r5
    5f90:	4334      	orrs	r4, r6
    5f92:	40f9      	lsrs	r1, r7
    5f94:	465a      	mov	r2, r11
    5f96:	1b14      	subs	r4, r2, r4
    5f98:	45a3      	cmp	r11, r4
    5f9a:	4192      	sbcs	r2, r2
    5f9c:	1a5b      	subs	r3, r3, r1
    5f9e:	4252      	negs	r2, r2
    5fa0:	1a99      	subs	r1, r3, r2
    5fa2:	1c05      	adds	r5, r0, #0
    5fa4:	46e2      	mov	r10, r12
    5fa6:	e6b3      	b.n	5d10 <__aeabi_dsub+0x118>
    5fa8:	1c13      	adds	r3, r2, #0
    5faa:	433b      	orrs	r3, r7
    5fac:	1c14      	adds	r4, r2, #0
    5fae:	2b00      	cmp	r3, #0
    5fb0:	d000      	beq.n	5fb4 <__aeabi_dsub+0x3bc>
    5fb2:	e6b1      	b.n	5d18 <__aeabi_dsub+0x120>
    5fb4:	2700      	movs	r7, #0
    5fb6:	2200      	movs	r2, #0
    5fb8:	2500      	movs	r5, #0
    5fba:	2100      	movs	r1, #0
    5fbc:	2400      	movs	r4, #0
    5fbe:	e6dd      	b.n	5d7c <__aeabi_dsub+0x184>
    5fc0:	465a      	mov	r2, r11
    5fc2:	431a      	orrs	r2, r3
    5fc4:	1e53      	subs	r3, r2, #1
    5fc6:	419a      	sbcs	r2, r3
    5fc8:	b2d2      	uxtb	r2, r2
    5fca:	2300      	movs	r3, #0
    5fcc:	e705      	b.n	5dda <__aeabi_dsub+0x1e2>
    5fce:	1c0d      	adds	r5, r1, #0
    5fd0:	4325      	orrs	r5, r4
    5fd2:	d05a      	beq.n	608a <__aeabi_dsub+0x492>
    5fd4:	43ff      	mvns	r7, r7
    5fd6:	2f00      	cmp	r7, #0
    5fd8:	d153      	bne.n	6082 <__aeabi_dsub+0x48a>
    5fda:	465a      	mov	r2, r11
    5fdc:	1b14      	subs	r4, r2, r4
    5fde:	45a3      	cmp	r11, r4
    5fe0:	4192      	sbcs	r2, r2
    5fe2:	1a59      	subs	r1, r3, r1
    5fe4:	4252      	negs	r2, r2
    5fe6:	1a89      	subs	r1, r1, r2
    5fe8:	1c05      	adds	r5, r0, #0
    5fea:	46e2      	mov	r10, r12
    5fec:	e690      	b.n	5d10 <__aeabi_dsub+0x118>
    5fee:	4895      	ldr	r0, [pc, #596]	; (6244 <__aeabi_dsub+0x64c>)
    5ff0:	4285      	cmp	r5, r0
    5ff2:	d000      	beq.n	5ff6 <__aeabi_dsub+0x3fe>
    5ff4:	e6d6      	b.n	5da4 <__aeabi_dsub+0x1ac>
    5ff6:	e62f      	b.n	5c58 <__aeabi_dsub+0x60>
    5ff8:	2700      	movs	r7, #0
    5ffa:	e78f      	b.n	5f1c <__aeabi_dsub+0x324>
    5ffc:	2300      	movs	r3, #0
    5ffe:	e79e      	b.n	5f3e <__aeabi_dsub+0x346>
    6000:	1c08      	adds	r0, r1, #0
    6002:	4320      	orrs	r0, r4
    6004:	2d00      	cmp	r5, #0
    6006:	d000      	beq.n	600a <__aeabi_dsub+0x412>
    6008:	e0c3      	b.n	6192 <__aeabi_dsub+0x59a>
    600a:	2800      	cmp	r0, #0
    600c:	d100      	bne.n	6010 <__aeabi_dsub+0x418>
    600e:	e0f6      	b.n	61fe <__aeabi_dsub+0x606>
    6010:	4658      	mov	r0, r11
    6012:	4318      	orrs	r0, r3
    6014:	d100      	bne.n	6018 <__aeabi_dsub+0x420>
    6016:	e61f      	b.n	5c58 <__aeabi_dsub+0x60>
    6018:	4658      	mov	r0, r11
    601a:	1902      	adds	r2, r0, r4
    601c:	42a2      	cmp	r2, r4
    601e:	41a4      	sbcs	r4, r4
    6020:	4264      	negs	r4, r4
    6022:	1859      	adds	r1, r3, r1
    6024:	1909      	adds	r1, r1, r4
    6026:	1c14      	adds	r4, r2, #0
    6028:	020a      	lsls	r2, r1, #8
    602a:	d400      	bmi.n	602e <__aeabi_dsub+0x436>
    602c:	e614      	b.n	5c58 <__aeabi_dsub+0x60>
    602e:	4b86      	ldr	r3, [pc, #536]	; (6248 <__aeabi_dsub+0x650>)
    6030:	2501      	movs	r5, #1
    6032:	4019      	ands	r1, r3
    6034:	e610      	b.n	5c58 <__aeabi_dsub+0x60>
    6036:	1c08      	adds	r0, r1, #0
    6038:	4320      	orrs	r0, r4
    603a:	2d00      	cmp	r5, #0
    603c:	d13a      	bne.n	60b4 <__aeabi_dsub+0x4bc>
    603e:	2800      	cmp	r0, #0
    6040:	d000      	beq.n	6044 <__aeabi_dsub+0x44c>
    6042:	e089      	b.n	6158 <__aeabi_dsub+0x560>
    6044:	4659      	mov	r1, r11
    6046:	4319      	orrs	r1, r3
    6048:	d100      	bne.n	604c <__aeabi_dsub+0x454>
    604a:	e0bf      	b.n	61cc <__aeabi_dsub+0x5d4>
    604c:	1c19      	adds	r1, r3, #0
    604e:	465c      	mov	r4, r11
    6050:	46e2      	mov	r10, r12
    6052:	e601      	b.n	5c58 <__aeabi_dsub+0x60>
    6054:	4660      	mov	r0, r12
    6056:	3820      	subs	r0, #32
    6058:	1c1a      	adds	r2, r3, #0
    605a:	40c2      	lsrs	r2, r0
    605c:	4666      	mov	r6, r12
    605e:	1c10      	adds	r0, r2, #0
    6060:	2e20      	cmp	r6, #32
    6062:	d100      	bne.n	6066 <__aeabi_dsub+0x46e>
    6064:	e0b0      	b.n	61c8 <__aeabi_dsub+0x5d0>
    6066:	2240      	movs	r2, #64	; 0x40
    6068:	1b92      	subs	r2, r2, r6
    606a:	4093      	lsls	r3, r2
    606c:	465a      	mov	r2, r11
    606e:	431a      	orrs	r2, r3
    6070:	1e53      	subs	r3, r2, #1
    6072:	419a      	sbcs	r2, r3
    6074:	4302      	orrs	r2, r0
    6076:	2300      	movs	r3, #0
    6078:	e6af      	b.n	5dda <__aeabi_dsub+0x1e2>
    607a:	4d72      	ldr	r5, [pc, #456]	; (6244 <__aeabi_dsub+0x64c>)
    607c:	2700      	movs	r7, #0
    607e:	1c2a      	adds	r2, r5, #0
    6080:	e79b      	b.n	5fba <__aeabi_dsub+0x3c2>
    6082:	4d70      	ldr	r5, [pc, #448]	; (6244 <__aeabi_dsub+0x64c>)
    6084:	42a8      	cmp	r0, r5
    6086:	d000      	beq.n	608a <__aeabi_dsub+0x492>
    6088:	e770      	b.n	5f6c <__aeabi_dsub+0x374>
    608a:	1c19      	adds	r1, r3, #0
    608c:	465c      	mov	r4, r11
    608e:	1c05      	adds	r5, r0, #0
    6090:	46e2      	mov	r10, r12
    6092:	e5e1      	b.n	5c58 <__aeabi_dsub+0x60>
    6094:	2d00      	cmp	r5, #0
    6096:	d120      	bne.n	60da <__aeabi_dsub+0x4e2>
    6098:	1c0d      	adds	r5, r1, #0
    609a:	4325      	orrs	r5, r4
    609c:	d075      	beq.n	618a <__aeabi_dsub+0x592>
    609e:	43d5      	mvns	r5, r2
    60a0:	2d00      	cmp	r5, #0
    60a2:	d16f      	bne.n	6184 <__aeabi_dsub+0x58c>
    60a4:	445c      	add	r4, r11
    60a6:	455c      	cmp	r4, r11
    60a8:	4192      	sbcs	r2, r2
    60aa:	1859      	adds	r1, r3, r1
    60ac:	4252      	negs	r2, r2
    60ae:	1889      	adds	r1, r1, r2
    60b0:	1c05      	adds	r5, r0, #0
    60b2:	e699      	b.n	5de8 <__aeabi_dsub+0x1f0>
    60b4:	2800      	cmp	r0, #0
    60b6:	d135      	bne.n	6124 <__aeabi_dsub+0x52c>
    60b8:	4659      	mov	r1, r11
    60ba:	4319      	orrs	r1, r3
    60bc:	d0dd      	beq.n	607a <__aeabi_dsub+0x482>
    60be:	1c19      	adds	r1, r3, #0
    60c0:	465c      	mov	r4, r11
    60c2:	46e2      	mov	r10, r12
    60c4:	4d5f      	ldr	r5, [pc, #380]	; (6244 <__aeabi_dsub+0x64c>)
    60c6:	e5c7      	b.n	5c58 <__aeabi_dsub+0x60>
    60c8:	430c      	orrs	r4, r1
    60ca:	1e61      	subs	r1, r4, #1
    60cc:	418c      	sbcs	r4, r1
    60ce:	b2e4      	uxtb	r4, r4
    60d0:	2100      	movs	r1, #0
    60d2:	e75f      	b.n	5f94 <__aeabi_dsub+0x39c>
    60d4:	1c05      	adds	r5, r0, #0
    60d6:	1c02      	adds	r2, r0, #0
    60d8:	e76f      	b.n	5fba <__aeabi_dsub+0x3c2>
    60da:	4d5a      	ldr	r5, [pc, #360]	; (6244 <__aeabi_dsub+0x64c>)
    60dc:	42a8      	cmp	r0, r5
    60de:	d054      	beq.n	618a <__aeabi_dsub+0x592>
    60e0:	4255      	negs	r5, r2
    60e2:	2280      	movs	r2, #128	; 0x80
    60e4:	0416      	lsls	r6, r2, #16
    60e6:	4331      	orrs	r1, r6
    60e8:	2d38      	cmp	r5, #56	; 0x38
    60ea:	dd00      	ble.n	60ee <__aeabi_dsub+0x4f6>
    60ec:	e081      	b.n	61f2 <__aeabi_dsub+0x5fa>
    60ee:	2d1f      	cmp	r5, #31
    60f0:	dd00      	ble.n	60f4 <__aeabi_dsub+0x4fc>
    60f2:	e091      	b.n	6218 <__aeabi_dsub+0x620>
    60f4:	2220      	movs	r2, #32
    60f6:	1b56      	subs	r6, r2, r5
    60f8:	1c0a      	adds	r2, r1, #0
    60fa:	46b4      	mov	r12, r6
    60fc:	40b2      	lsls	r2, r6
    60fe:	1c26      	adds	r6, r4, #0
    6100:	40ee      	lsrs	r6, r5
    6102:	4332      	orrs	r2, r6
    6104:	4690      	mov	r8, r2
    6106:	4662      	mov	r2, r12
    6108:	4094      	lsls	r4, r2
    610a:	1e66      	subs	r6, r4, #1
    610c:	41b4      	sbcs	r4, r6
    610e:	4642      	mov	r2, r8
    6110:	4314      	orrs	r4, r2
    6112:	40e9      	lsrs	r1, r5
    6114:	445c      	add	r4, r11
    6116:	455c      	cmp	r4, r11
    6118:	4192      	sbcs	r2, r2
    611a:	18cb      	adds	r3, r1, r3
    611c:	4252      	negs	r2, r2
    611e:	1899      	adds	r1, r3, r2
    6120:	1c05      	adds	r5, r0, #0
    6122:	e661      	b.n	5de8 <__aeabi_dsub+0x1f0>
    6124:	4658      	mov	r0, r11
    6126:	4318      	orrs	r0, r3
    6128:	d04c      	beq.n	61c4 <__aeabi_dsub+0x5cc>
    612a:	0748      	lsls	r0, r1, #29
    612c:	08e4      	lsrs	r4, r4, #3
    612e:	4304      	orrs	r4, r0
    6130:	2080      	movs	r0, #128	; 0x80
    6132:	08c9      	lsrs	r1, r1, #3
    6134:	0300      	lsls	r0, r0, #12
    6136:	4201      	tst	r1, r0
    6138:	d008      	beq.n	614c <__aeabi_dsub+0x554>
    613a:	08dd      	lsrs	r5, r3, #3
    613c:	4205      	tst	r5, r0
    613e:	d105      	bne.n	614c <__aeabi_dsub+0x554>
    6140:	4659      	mov	r1, r11
    6142:	08ca      	lsrs	r2, r1, #3
    6144:	075c      	lsls	r4, r3, #29
    6146:	4314      	orrs	r4, r2
    6148:	1c29      	adds	r1, r5, #0
    614a:	46e2      	mov	r10, r12
    614c:	0f63      	lsrs	r3, r4, #29
    614e:	00c9      	lsls	r1, r1, #3
    6150:	4319      	orrs	r1, r3
    6152:	00e4      	lsls	r4, r4, #3
    6154:	4d3b      	ldr	r5, [pc, #236]	; (6244 <__aeabi_dsub+0x64c>)
    6156:	e57f      	b.n	5c58 <__aeabi_dsub+0x60>
    6158:	4658      	mov	r0, r11
    615a:	4318      	orrs	r0, r3
    615c:	d100      	bne.n	6160 <__aeabi_dsub+0x568>
    615e:	e57b      	b.n	5c58 <__aeabi_dsub+0x60>
    6160:	465e      	mov	r6, r11
    6162:	1ba7      	subs	r7, r4, r6
    6164:	42bc      	cmp	r4, r7
    6166:	4192      	sbcs	r2, r2
    6168:	1ac8      	subs	r0, r1, r3
    616a:	4252      	negs	r2, r2
    616c:	1a80      	subs	r0, r0, r2
    616e:	0206      	lsls	r6, r0, #8
    6170:	d54c      	bpl.n	620c <__aeabi_dsub+0x614>
    6172:	4658      	mov	r0, r11
    6174:	1b04      	subs	r4, r0, r4
    6176:	45a3      	cmp	r11, r4
    6178:	4192      	sbcs	r2, r2
    617a:	1a59      	subs	r1, r3, r1
    617c:	4252      	negs	r2, r2
    617e:	1a89      	subs	r1, r1, r2
    6180:	46e2      	mov	r10, r12
    6182:	e569      	b.n	5c58 <__aeabi_dsub+0x60>
    6184:	4a2f      	ldr	r2, [pc, #188]	; (6244 <__aeabi_dsub+0x64c>)
    6186:	4290      	cmp	r0, r2
    6188:	d1ae      	bne.n	60e8 <__aeabi_dsub+0x4f0>
    618a:	1c19      	adds	r1, r3, #0
    618c:	465c      	mov	r4, r11
    618e:	1c05      	adds	r5, r0, #0
    6190:	e562      	b.n	5c58 <__aeabi_dsub+0x60>
    6192:	2800      	cmp	r0, #0
    6194:	d036      	beq.n	6204 <__aeabi_dsub+0x60c>
    6196:	4658      	mov	r0, r11
    6198:	4318      	orrs	r0, r3
    619a:	d013      	beq.n	61c4 <__aeabi_dsub+0x5cc>
    619c:	2580      	movs	r5, #128	; 0x80
    619e:	0748      	lsls	r0, r1, #29
    61a0:	08e4      	lsrs	r4, r4, #3
    61a2:	08c9      	lsrs	r1, r1, #3
    61a4:	032d      	lsls	r5, r5, #12
    61a6:	4304      	orrs	r4, r0
    61a8:	4229      	tst	r1, r5
    61aa:	d0cf      	beq.n	614c <__aeabi_dsub+0x554>
    61ac:	08d8      	lsrs	r0, r3, #3
    61ae:	4228      	tst	r0, r5
    61b0:	d1cc      	bne.n	614c <__aeabi_dsub+0x554>
    61b2:	465d      	mov	r5, r11
    61b4:	08ea      	lsrs	r2, r5, #3
    61b6:	075c      	lsls	r4, r3, #29
    61b8:	4314      	orrs	r4, r2
    61ba:	1c01      	adds	r1, r0, #0
    61bc:	e7c6      	b.n	614c <__aeabi_dsub+0x554>
    61be:	2300      	movs	r3, #0
    61c0:	2400      	movs	r4, #0
    61c2:	e569      	b.n	5c98 <__aeabi_dsub+0xa0>
    61c4:	4d1f      	ldr	r5, [pc, #124]	; (6244 <__aeabi_dsub+0x64c>)
    61c6:	e547      	b.n	5c58 <__aeabi_dsub+0x60>
    61c8:	2300      	movs	r3, #0
    61ca:	e74f      	b.n	606c <__aeabi_dsub+0x474>
    61cc:	2700      	movs	r7, #0
    61ce:	2200      	movs	r2, #0
    61d0:	e6f3      	b.n	5fba <__aeabi_dsub+0x3c2>
    61d2:	1c3d      	adds	r5, r7, #0
    61d4:	3d20      	subs	r5, #32
    61d6:	1c0e      	adds	r6, r1, #0
    61d8:	40ee      	lsrs	r6, r5
    61da:	1c35      	adds	r5, r6, #0
    61dc:	2f20      	cmp	r7, #32
    61de:	d02d      	beq.n	623c <__aeabi_dsub+0x644>
    61e0:	2640      	movs	r6, #64	; 0x40
    61e2:	1bf7      	subs	r7, r6, r7
    61e4:	40b9      	lsls	r1, r7
    61e6:	430c      	orrs	r4, r1
    61e8:	1e61      	subs	r1, r4, #1
    61ea:	418c      	sbcs	r4, r1
    61ec:	432c      	orrs	r4, r5
    61ee:	2100      	movs	r1, #0
    61f0:	e6d0      	b.n	5f94 <__aeabi_dsub+0x39c>
    61f2:	430c      	orrs	r4, r1
    61f4:	1e61      	subs	r1, r4, #1
    61f6:	418c      	sbcs	r4, r1
    61f8:	b2e4      	uxtb	r4, r4
    61fa:	2100      	movs	r1, #0
    61fc:	e78a      	b.n	6114 <__aeabi_dsub+0x51c>
    61fe:	1c19      	adds	r1, r3, #0
    6200:	465c      	mov	r4, r11
    6202:	e529      	b.n	5c58 <__aeabi_dsub+0x60>
    6204:	1c19      	adds	r1, r3, #0
    6206:	465c      	mov	r4, r11
    6208:	4d0e      	ldr	r5, [pc, #56]	; (6244 <__aeabi_dsub+0x64c>)
    620a:	e525      	b.n	5c58 <__aeabi_dsub+0x60>
    620c:	1c03      	adds	r3, r0, #0
    620e:	433b      	orrs	r3, r7
    6210:	d0dc      	beq.n	61cc <__aeabi_dsub+0x5d4>
    6212:	1c01      	adds	r1, r0, #0
    6214:	1c3c      	adds	r4, r7, #0
    6216:	e51f      	b.n	5c58 <__aeabi_dsub+0x60>
    6218:	2620      	movs	r6, #32
    621a:	4276      	negs	r6, r6
    621c:	1976      	adds	r6, r6, r5
    621e:	1c0a      	adds	r2, r1, #0
    6220:	40f2      	lsrs	r2, r6
    6222:	4690      	mov	r8, r2
    6224:	2d20      	cmp	r5, #32
    6226:	d00b      	beq.n	6240 <__aeabi_dsub+0x648>
    6228:	2640      	movs	r6, #64	; 0x40
    622a:	1b75      	subs	r5, r6, r5
    622c:	40a9      	lsls	r1, r5
    622e:	430c      	orrs	r4, r1
    6230:	1e61      	subs	r1, r4, #1
    6232:	418c      	sbcs	r4, r1
    6234:	4645      	mov	r5, r8
    6236:	432c      	orrs	r4, r5
    6238:	2100      	movs	r1, #0
    623a:	e76b      	b.n	6114 <__aeabi_dsub+0x51c>
    623c:	2100      	movs	r1, #0
    623e:	e7d2      	b.n	61e6 <__aeabi_dsub+0x5ee>
    6240:	2100      	movs	r1, #0
    6242:	e7f4      	b.n	622e <__aeabi_dsub+0x636>
    6244:	000007ff 	.word	0x000007ff
    6248:	ff7fffff 	.word	0xff7fffff

0000624c <_init>:
    624c:	b5f8      	push	{r3, r4, r5, r6, r7, lr}
    624e:	46c0      	nop			; (mov r8, r8)
    6250:	bcf8      	pop	{r3, r4, r5, r6, r7}
    6252:	bc08      	pop	{r3}
    6254:	469e      	mov	lr, r3
    6256:	4770      	bx	lr

00006258 <_fini>:
    6258:	b5f8      	push	{r3, r4, r5, r6, r7, lr}
    625a:	46c0      	nop			; (mov r8, r8)
    625c:	bcf8      	pop	{r3, r4, r5, r6, r7}
    625e:	bc08      	pop	{r3}
    6260:	469e      	mov	lr, r3
    6262:	4770      	bx	lr
    6264:	00000568 	.word	0x00000568
    6268:	00000578 	.word	0x00000578
    626c:	000005a8 	.word	0x000005a8
    6270:	0000054a 	.word	0x0000054a
    6274:	00000598 	.word	0x00000598
    6278:	00000588 	.word	0x00000588
    627c:	0000085c 	.word	0x0000085c
    6280:	00000862 	.word	0x00000862
    6284:	00000858 	.word	0x00000858
    6288:	00000868 	.word	0x00000868
    628c:	00000858 	.word	0x00000858
    6290:	0000086e 	.word	0x0000086e
    6294:	00000886 	.word	0x00000886
    6298:	00000858 	.word	0x00000858
    629c:	000008ae 	.word	0x000008ae
    62a0:	000008c0 	.word	0x000008c0
    62a4:	00000850 	.word	0x00000850
    62a8:	0000088c 	.word	0x0000088c
    62ac:	00000000 	.word	0x00000000

000062b0 <vtable for USBDevice>:
	...
    62b8:	00000401 00000995 00000655 000006e5     ........U.......
    62c8:	0000041d 00000421 000003c1 000003c5     ....!...........
    62d8:	000003c9 000003cd 000003d1 000003d5     ................
    62e8:	000003d9 000003dd 000003e1 000003e5     ................
    62f8:	000003e9 000003ed 000003f1 000003f5     ................
    6308:	00000455 000003f9 00000425 0000042d     U.......%...-...
    6318:	0000044d 00000435 0000043d 00000445     M...5...=...E...
    6328:	000003fd 00000000                       ........

00006330 <vtable for USBHAL>:
	...
    6338:	00000ad5 00000ad9 00000add 00000ae1     ................
    6348:	00000ae5 00000ae9 000003c1 000003c5     ................
    6358:	000003c9 000003cd 000003d1 000003d5     ................
    6368:	000003d9 000003dd 000003e1 00000000     ................

00006378 <vtable for USBHID>:
	...
    6380:	00000401 00000995 00000655 000006e5     ........U.......
    6390:	0000041d 00000421 000003c1 000003c5     ....!...........
    63a0:	000003c9 000003cd 000003d1 000003d5     ................
    63b0:	000003d9 000003dd 000003e1 000003e5     ................
    63c0:	00001355 000003ed 00001439 000003f5     U.......9.......
    63d0:	00000455 00001469 00000425 0000042d     U...i...%...-...
    63e0:	0000134d 00000435 0000043d 00001345     M...5...=...E...
    63f0:	00001335 000013f9 00001331 00000000     5.......1.......

00006400 <vtable for USBMouse>:
	...
    6408:	00000401 00000995 00000655 000006e5     ........U.......
    6418:	0000041d 00000421 000003c1 000003c5     ....!...........
    6428:	000003c9 000003cd 000003d1 000003d5     ................
    6438:	000003d9 000003dd 000003e1 000003e5     ................
    6448:	00001355 000003ed 00001439 000003f5     U.......9.......
    6458:	00000455 00001531 00000425 0000042d     U...1...%...-...
    6468:	0000134d 00000435 0000043d 00001345     M...5...=...E...
    6478:	00001335 00001505 00001331 00000000     5.......1.......

00006488 <PinMap_UART_RX>:
    6488:	00000012 40008000 00000001 0000002e     .......@........
    6498:	40008000 00000003 0000003a 40008000     ...@....:......@
    64a8:	00000002 000000ff ffffffff 00000000     ................

000064b8 <PinMap_UART_TX>:
    64b8:	00000013 40008000 00000001 0000002d     .......@....-...
    64c8:	40008000 00000003 0000003b 40008000     ...@....;......@
    64d8:	00000002 000000ff ffffffff 00000000     ................
    64e8:	6c756f63 6f6e2064 69702074 74756f6e     could not pinout
    64f8:	00000000 6d6e6970 6d207061 6d2d7369     ....pinmap mis-m
    6508:	68637461 00000000 6d6e6970 6e207061     atch....pinmap n
    6518:	6620746f 646e756f 726f6620 72657020     ot found for per
    6528:	65687069 006c6172 0000210c 00002106     ipheral..!...!..
    6538:	00002106 000020fc 0000205c 0000205c     .!... ..\ ..\ ..
    6548:	000020f2 000020fc 0000205c 000020f2     . ... ..\ ... ..
    6558:	0000205c 000020fc 0000205a 0000205a     \ ... ..Z ..Z ..
    6568:	0000205a 00002194 00002460 000023fc     Z ...!..`$...#..
    6578:	00002444 0000232a 00002444 00002438     D$..*#..D$..8$..
    6588:	00002444 0000232a 000023fc 000023fc     D$..*#...#...#..
    6598:	00002438 0000232a 00002320 00002320     8$..*#.. #.. #..
    65a8:	00002320 00002684 00002aa4 00002c92      #...&...*...,..
    65b8:	00002c92 00002a84 0000296e 0000296e     .,...*..n)..n)..
    65c8:	00002a76 00002a84 0000296e 00002a76     v*...*..n)..v*..
    65d8:	0000296e 00002a84 0000296c 0000296c     n)...*..l)..l)..
    65e8:	0000296c 00002c9a                       l)...,..

000065f0 <__sf_fake_stdin>:
	...

00006610 <__sf_fake_stdout>:
	...

00006630 <__sf_fake_stderr>:
	...
    6650:	00000043                                C...

00006654 <_global_impure_ptr>:
    6654:	1000024c 2b302d23 6c680020 6665004c     L...#-0+ .hlL.ef
    6664:	47464567 32313000 36353433 41393837     gEFG.0123456789A
    6674:	45444342 31300046 35343332 39383736     BCDEF.0123456789
    6684:	64636261 00006665                       abcdef..

0000668c <npio2_hw>:
    668c:	3ff921fb 400921fb 4012d97c 401921fb     .!.?.!.@|..@.!.@
    669c:	401f6a7a 4022d97c 4025fdbb 402921fb     zj.@|."@..%@.!)@
    66ac:	402c463a 402f6a7a 4031475c 4032d97c     :F,@zj/@\G1@|.2@
    66bc:	40346b9c 4035fdbb 40378fdb 403921fb     .k4@..5@..7@.!9@
    66cc:	403ab41b 403c463a 403dd85a 403f6a7a     ..:@:F<@Z.=@zj?@
    66dc:	40407e4c 4041475c 4042106c 4042d97c     L~@@\GA@l.B@|.B@
    66ec:	4043a28c 40446b9c 404534ac 4045fdbb     ..C@.kD@.4E@..E@
    66fc:	4046c6cb 40478fdb 404858eb 404921fb     ..F@..G@.XH@.!I@

0000670c <two_over_pi>:
    670c:	00a2f983 006e4e44 001529fc 002757d1     ....DNn..)...W'.
    671c:	00f534dd 00c0db62 0095993c 00439041     .4..b...<...A.C.
    672c:	00fe5163 00abdebb 00c561b7 00246e3a     cQ.......a..:n$.
    673c:	00424dd2 00e00649 002eea09 00d1921c     .MB.I...........
    674c:	00fe1deb 001cb129 00a73ee8 008235f5     ....)....>...5..
    675c:	002ebb44 0084e99c 007026b4 005f7e41     D........&p.A~_.
    676c:	003991d6 00398353 0039f49c 00845f8b     ..9.S.9...9.._..
    677c:	00bdf928 003b1ff8 0097ffde 0005980f     (.....;.........
    678c:	00ef2f11 008b5a0a 006d1f6d 00367ecf     ./...Z..m.m..~6.
    679c:	0027cb09 00b74f46 003f669e 005fea2d     ..'.FO...f?.-._.
    67ac:	007527ba 00c7ebe5 00f17b3d 000739f7     .'u.....={...9..
    67bc:	008a5292 00ea6bfb 005fb11f 008d5d08     .R...k...._..]..
    67cc:	00560330 0046fc7b 006babf0 00cfbc20     0.V.{.F...k. ...
    67dc:	009af436 001da9e3 0091615e 00e61b08     6.......^a......
    67ec:	00659985 005f14a0 0068408d 00ffd880     ..e..._..@h.....
    67fc:	004d7327 00310606 001556ca 0073a8c9     'sM...1..V....s.
    680c:	0060e27b 00c08c6b                       {.`.k...

00006814 <init_jk>:
    6814:	00000002 00000003 00000004 00000006     ................
    6824:	00000000                                ....

00006828 <PIo2>:
    6828:	40000000 3ff921fb 00000000 3e74442d     ...@.!.?....-Dt>
    6838:	80000000 3cf84698 60000000 3b78cc51     .....F.<...`Q.x;
    6848:	80000000 39f01b83 40000000 387a2520     .......9...@ %z8
    6858:	80000000 36e38222 00000000 3569f31d     ...."..6......i5

00006868 <__EH_FRAME_BEGIN__>:
    6868:	00000000                                ....
