
KL25Z/USBMouse.elf:     file format elf32-littlearm
architecture: arm, flags 0x00000112:
EXEC_P, HAS_SYMS, D_PAGED
start address 0x000000c1


Disassembly of section .isr_vector:

00000000 <__isr_vector>:
   0:	20003000 	.word	0x20003000
   4:	000000c1 	.word	0x000000c1
   8:	00001d01 	.word	0x00001d01
   c:	00001d03 	.word	0x00001d03
	...
  2c:	00001d05 	.word	0x00001d05
	...
  38:	00001d07 	.word	0x00001d07
  3c:	00001d09 	.word	0x00001d09
  40:	00001d0b 	.word	0x00001d0b
  44:	00001d0b 	.word	0x00001d0b
  48:	00001d0b 	.word	0x00001d0b
  4c:	00001d0b 	.word	0x00001d0b
  50:	00001d0b 	.word	0x00001d0b
  54:	00001d0b 	.word	0x00001d0b
  58:	00001d0b 	.word	0x00001d0b
  5c:	00001d0b 	.word	0x00001d0b
  60:	00001d0b 	.word	0x00001d0b
  64:	00001d0b 	.word	0x00001d0b
  68:	00001d0b 	.word	0x00001d0b
  6c:	00001d0b 	.word	0x00001d0b
  70:	00001d0b 	.word	0x00001d0b
  74:	00001d0b 	.word	0x00001d0b
  78:	00001d0b 	.word	0x00001d0b
  7c:	00001d0b 	.word	0x00001d0b
  80:	00001d0b 	.word	0x00001d0b
  84:	00001d0b 	.word	0x00001d0b
  88:	00001d0b 	.word	0x00001d0b
  8c:	00001d0b 	.word	0x00001d0b
  90:	00001d0b 	.word	0x00001d0b
  94:	00001d0b 	.word	0x00001d0b
  98:	00001d0b 	.word	0x00001d0b
  9c:	00001d0b 	.word	0x00001d0b
  a0:	00001d0b 	.word	0x00001d0b
  a4:	00001d0b 	.word	0x00001d0b
  a8:	00001d0b 	.word	0x00001d0b
  ac:	00001d0b 	.word	0x00001d0b
  b0:	00001d0b 	.word	0x00001d0b
  b4:	00001d0b 	.word	0x00001d0b
  b8:	00001d0b 	.word	0x00001d0b
  bc:	00001d0b 	.word	0x00001d0b

000000c0 <Reset_Handler>:
  c0:	4907      	ldr	r1, [pc, #28]	; (e0 <Reset_Handler+0x20>)
  c2:	4a08      	ldr	r2, [pc, #32]	; (e4 <Reset_Handler+0x24>)
  c4:	4b08      	ldr	r3, [pc, #32]	; (e8 <Reset_Handler+0x28>)
  c6:	1a9b      	subs	r3, r3, r2
  c8:	dd05      	ble.n	d6 <Reset_Handler+0x16>
  ca:	2400      	movs	r4, #0
  cc:	5908      	ldr	r0, [r1, r4]
  ce:	5110      	str	r0, [r2, r4]
  d0:	3404      	adds	r4, #4
  d2:	429c      	cmp	r4, r3
  d4:	dbfa      	blt.n	cc <Reset_Handler+0xc>
  d6:	4805      	ldr	r0, [pc, #20]	; (ec <Reset_Handler+0x2c>)
  d8:	4780      	blx	r0
  da:	4805      	ldr	r0, [pc, #20]	; (f0 <Reset_Handler+0x30>)
  dc:	4700      	bx	r0
  de:	0000      	.short	0x0000
  e0:	0000726c 	.word	0x0000726c
  e4:	1ffff0c0 	.word	0x1ffff0c0
  e8:	1ffff2bc 	.word	0x1ffff2bc
  ec:	00002449 	.word	0x00002449
  f0:	00000591 	.word	0x00000591

Disassembly of section .text:

00000410 <__do_global_dtors_aux>:
     410:	b510      	push	{r4, lr}
     412:	4c06      	ldr	r4, [pc, #24]	; (42c <__do_global_dtors_aux+0x1c>)
     414:	7823      	ldrb	r3, [r4, #0]
     416:	2b00      	cmp	r3, #0
     418:	d107      	bne.n	42a <__do_global_dtors_aux+0x1a>
     41a:	4b05      	ldr	r3, [pc, #20]	; (430 <__do_global_dtors_aux+0x20>)
     41c:	2b00      	cmp	r3, #0
     41e:	d002      	beq.n	426 <__do_global_dtors_aux+0x16>
     420:	4804      	ldr	r0, [pc, #16]	; (434 <__do_global_dtors_aux+0x24>)
     422:	e000      	b.n	426 <__do_global_dtors_aux+0x16>
     424:	bf00      	nop
     426:	2301      	movs	r3, #1
     428:	7023      	strb	r3, [r4, #0]
     42a:	bd10      	pop	{r4, pc}
     42c:	1ffff400 	.word	0x1ffff400
     430:	00000000 	.word	0x00000000
     434:	00007268 	.word	0x00007268

00000438 <frame_dummy>:
     438:	b508      	push	{r3, lr}
     43a:	4b08      	ldr	r3, [pc, #32]	; (45c <frame_dummy+0x24>)
     43c:	2b00      	cmp	r3, #0
     43e:	d003      	beq.n	448 <frame_dummy+0x10>
     440:	4807      	ldr	r0, [pc, #28]	; (460 <frame_dummy+0x28>)
     442:	4908      	ldr	r1, [pc, #32]	; (464 <frame_dummy+0x2c>)
     444:	e000      	b.n	448 <frame_dummy+0x10>
     446:	bf00      	nop
     448:	4807      	ldr	r0, [pc, #28]	; (468 <frame_dummy+0x30>)
     44a:	6803      	ldr	r3, [r0, #0]
     44c:	2b00      	cmp	r3, #0
     44e:	d003      	beq.n	458 <frame_dummy+0x20>
     450:	4b06      	ldr	r3, [pc, #24]	; (46c <frame_dummy+0x34>)
     452:	2b00      	cmp	r3, #0
     454:	d000      	beq.n	458 <frame_dummy+0x20>
     456:	4798      	blx	r3
     458:	bd08      	pop	{r3, pc}
     45a:	46c0      	nop			; (mov r8, r8)
     45c:	00000000 	.word	0x00000000
     460:	00007268 	.word	0x00007268
     464:	1ffff404 	.word	0x1ffff404
     468:	1ffff2bc 	.word	0x1ffff2bc
     46c:	00000000 	.word	0x00000000

00000470 <USBMouse::~USBMouse()>:
     470:	b510      	push	{r4, lr}
     472:	4b03      	ldr	r3, [pc, #12]	; (480 <USBMouse::~USBMouse()+0x10>)
     474:	1c04      	adds	r4, r0, #0
     476:	6003      	str	r3, [r0, #0]
     478:	f000 fe4a 	bl	1110 <USBHAL::~USBHAL()>
     47c:	1c20      	adds	r0, r4, #0
     47e:	bd10      	pop	{r4, pc}
     480:	00006ae0 	.word	0x00006ae0
     484:	00000000 	.word	0x00000000

00000488 <main>:
     488:	b5f8      	push	{r3, r4, r5, r6, r7, lr}
     48a:	4d20      	ldr	r5, [pc, #128]	; (50c <main+0x84>)
     48c:	4c1e      	ldr	r4, [pc, #120]	; (508 <main+0x80>)
     48e:	2300      	movs	r3, #0
     490:	4646      	mov	r6, r8
     492:	4698      	mov	r8, r3
     494:	4b26      	ldr	r3, [pc, #152]	; (530 <main+0xa8>)
     496:	464f      	mov	r7, r9
     498:	4699      	mov	r9, r3
     49a:	b4c0      	push	{r6, r7}
     49c:	4e1c      	ldr	r6, [pc, #112]	; (510 <main+0x88>)
     49e:	4f1d      	ldr	r7, [pc, #116]	; (514 <main+0x8c>)
     4a0:	4a1d      	ldr	r2, [pc, #116]	; (518 <main+0x90>)
     4a2:	4b1e      	ldr	r3, [pc, #120]	; (51c <main+0x94>)
     4a4:	1c30      	adds	r0, r6, #0
     4a6:	1c39      	adds	r1, r7, #0
     4a8:	f002 fe16 	bl	30d8 <__aeabi_dmul>
     4ac:	f003 f8a4 	bl	35f8 <__aeabi_d2iz>
     4b0:	4a19      	ldr	r2, [pc, #100]	; (518 <main+0x90>)
     4b2:	4b1a      	ldr	r3, [pc, #104]	; (51c <main+0x94>)
     4b4:	b206      	sxth	r6, r0
     4b6:	1c29      	adds	r1, r5, #0
     4b8:	1c20      	adds	r0, r4, #0
     4ba:	f002 fe0d 	bl	30d8 <__aeabi_dmul>
     4be:	f003 f89b 	bl	35f8 <__aeabi_d2iz>
     4c2:	1c31      	adds	r1, r6, #0
     4c4:	b202      	sxth	r2, r0
     4c6:	4648      	mov	r0, r9
     4c8:	f001 fae8 	bl	1a9c <USBMouse::move(short, short)>
     4cc:	2303      	movs	r3, #3
     4ce:	4498      	add	r8, r3
     4d0:	4818      	ldr	r0, [pc, #96]	; (534 <main+0xac>)
     4d2:	f001 fb45 	bl	1b60 <wait>
     4d6:	4640      	mov	r0, r8
     4d8:	f003 f8c2 	bl	3660 <__aeabi_i2d>
     4dc:	4a10      	ldr	r2, [pc, #64]	; (520 <main+0x98>)
     4de:	4b11      	ldr	r3, [pc, #68]	; (524 <main+0x9c>)
     4e0:	f002 fdfa 	bl	30d8 <__aeabi_dmul>
     4e4:	4a10      	ldr	r2, [pc, #64]	; (528 <main+0xa0>)
     4e6:	4b11      	ldr	r3, [pc, #68]	; (52c <main+0xa4>)
     4e8:	f002 fad2 	bl	2a90 <__aeabi_ddiv>
     4ec:	1c04      	adds	r4, r0, #0
     4ee:	1c0d      	adds	r5, r1, #0
     4f0:	f004 f87a 	bl	45e8 <cos>
     4f4:	1c06      	adds	r6, r0, #0
     4f6:	1c0f      	adds	r7, r1, #0
     4f8:	1c20      	adds	r0, r4, #0
     4fa:	1c29      	adds	r1, r5, #0
     4fc:	f004 f8c8 	bl	4690 <sin>
     500:	1c04      	adds	r4, r0, #0
     502:	1c0d      	adds	r5, r1, #0
     504:	e7cc      	b.n	4a0 <main+0x18>
     506:	46c0      	nop			; (mov r8, r8)
	...
     514:	3ff00000 	.word	0x3ff00000
     518:	00000000 	.word	0x00000000
     51c:	40240000 	.word	0x40240000
     520:	51eb851f 	.word	0x51eb851f
     524:	40091eb8 	.word	0x40091eb8
     528:	00000000 	.word	0x00000000
     52c:	40668000 	.word	0x40668000
     530:	1ffff41c 	.word	0x1ffff41c
     534:	3a83126f 	.word	0x3a83126f

00000538 <_GLOBAL__sub_I_mouse>:
     538:	b570      	push	{r4, r5, r6, lr}
     53a:	4c10      	ldr	r4, [pc, #64]	; (57c <_GLOBAL__sub_I_mouse+0x44>)
     53c:	b084      	sub	sp, #16
     53e:	2501      	movs	r5, #1
     540:	2600      	movs	r6, #0
     542:	2200      	movs	r2, #0
     544:	9500      	str	r5, [sp, #0]
     546:	9501      	str	r5, [sp, #4]
     548:	9602      	str	r6, [sp, #8]
     54a:	1c20      	adds	r0, r4, #0
     54c:	2100      	movs	r1, #0
     54e:	4b0c      	ldr	r3, [pc, #48]	; (580 <_GLOBAL__sub_I_mouse+0x48>)
     550:	f001 f982 	bl	1858 <USBHID::USBHID(unsigned char, unsigned char, unsigned short, unsigned short, unsigned short, bool)>
     554:	4b0b      	ldr	r3, [pc, #44]	; (584 <_GLOBAL__sub_I_mouse+0x4c>)
     556:	1c20      	adds	r0, r4, #0
     558:	6023      	str	r3, [r4, #0]
     55a:	2368      	movs	r3, #104	; 0x68
     55c:	33ff      	adds	r3, #255	; 0xff
     55e:	54e6      	strb	r6, [r4, r3]
     560:	23b3      	movs	r3, #179	; 0xb3
     562:	005b      	lsls	r3, r3, #1
     564:	2101      	movs	r1, #1
     566:	54e5      	strb	r5, [r4, r3]
     568:	f000 fba8 	bl	cbc <USBDevice::connect(bool)>
     56c:	1c20      	adds	r0, r4, #0
     56e:	4906      	ldr	r1, [pc, #24]	; (588 <_GLOBAL__sub_I_mouse+0x50>)
     570:	4a06      	ldr	r2, [pc, #24]	; (58c <_GLOBAL__sub_I_mouse+0x54>)
     572:	f002 f8d9 	bl	2728 <__aeabi_atexit>
     576:	b004      	add	sp, #16
     578:	bd70      	pop	{r4, r5, r6, pc}
     57a:	46c0      	nop			; (mov r8, r8)
     57c:	1ffff41c 	.word	0x1ffff41c
     580:	00001234 	.word	0x00001234
     584:	00006d38 	.word	0x00006d38
     588:	00000471 	.word	0x00000471
     58c:	1ffff0c0 	.word	0x1ffff0c0

00000590 <_start>:
     590:	4807      	ldr	r0, [pc, #28]	; (5b0 <_start+0x20>)
     592:	4a08      	ldr	r2, [pc, #32]	; (5b4 <_start+0x24>)
     594:	b508      	push	{r3, lr}
     596:	1a12      	subs	r2, r2, r0
     598:	2100      	movs	r1, #0
     59a:	f003 fabc 	bl	3b16 <memset>
     59e:	e000      	b.n	5a2 <_start+0x12>
     5a0:	bf00      	nop
     5a2:	f003 fa7f 	bl	3aa4 <__libc_init_array>
     5a6:	f7ff ff6f 	bl	488 <main>
     5aa:	f001 fa9d 	bl	1ae8 <exit>
     5ae:	46c0      	nop			; (mov r8, r8)
     5b0:	1ffff400 	.word	0x1ffff400
     5b4:	1ffffa44 	.word	0x1ffffa44

000005b8 <__wrap__isatty>:
     5b8:	b508      	push	{r3, lr}
     5ba:	2301      	movs	r3, #1
     5bc:	2802      	cmp	r0, #2
     5be:	dd02      	ble.n	5c6 <__wrap__isatty+0xe>
     5c0:	f001 fb52 	bl	1c68 <_isatty>
     5c4:	1c03      	adds	r3, r0, #0
     5c6:	1c18      	adds	r0, r3, #0
     5c8:	bd08      	pop	{r3, pc}
     5ca:	46c0      	nop			; (mov r8, r8)

000005cc <__wrap_malloc>:
     5cc:	b508      	push	{r3, lr}
     5ce:	f003 fa8f 	bl	3af0 <malloc>
     5d2:	bd08      	pop	{r3, pc}

000005d4 <abort>:
     5d4:	b508      	push	{r3, lr}
     5d6:	2001      	movs	r0, #1
     5d8:	f001 fa86 	bl	1ae8 <exit>

000005dc <USBHAL::SOF(int)>:
     5dc:	4770      	bx	lr
     5de:	46c0      	nop			; (mov r8, r8)

000005e0 <USBHAL::EP1_OUT_callback()>:
     5e0:	2000      	movs	r0, #0
     5e2:	4770      	bx	lr

000005e4 <USBHAL::EP1_IN_callback()>:
     5e4:	2000      	movs	r0, #0
     5e6:	4770      	bx	lr

000005e8 <USBHAL::EP2_OUT_callback()>:
     5e8:	2000      	movs	r0, #0
     5ea:	4770      	bx	lr

000005ec <USBHAL::EP2_IN_callback()>:
     5ec:	2000      	movs	r0, #0
     5ee:	4770      	bx	lr

000005f0 <USBHAL::EP3_OUT_callback()>:
     5f0:	2000      	movs	r0, #0
     5f2:	4770      	bx	lr

000005f4 <USBHAL::EP3_IN_callback()>:
     5f4:	2000      	movs	r0, #0
     5f6:	4770      	bx	lr

000005f8 <USBHAL::EP4_OUT_callback()>:
     5f8:	2000      	movs	r0, #0
     5fa:	4770      	bx	lr

000005fc <USBHAL::EP4_IN_callback()>:
     5fc:	2000      	movs	r0, #0
     5fe:	4770      	bx	lr

00000600 <USBHAL::EP5_OUT_callback()>:
     600:	2000      	movs	r0, #0
     602:	4770      	bx	lr

00000604 <USBHAL::EP5_IN_callback()>:
     604:	2000      	movs	r0, #0
     606:	4770      	bx	lr

00000608 <USBHAL::EP6_OUT_callback()>:
     608:	2000      	movs	r0, #0
     60a:	4770      	bx	lr

0000060c <USBHAL::EP6_IN_callback()>:
     60c:	2000      	movs	r0, #0
     60e:	4770      	bx	lr

00000610 <USBHAL::EP7_OUT_callback()>:
     610:	2000      	movs	r0, #0
     612:	4770      	bx	lr

00000614 <USBHAL::EP7_IN_callback()>:
     614:	2000      	movs	r0, #0
     616:	4770      	bx	lr

00000618 <USBHAL::EP8_OUT_callback()>:
     618:	2000      	movs	r0, #0
     61a:	4770      	bx	lr

0000061c <USBHAL::EP8_IN_callback()>:
     61c:	2000      	movs	r0, #0
     61e:	4770      	bx	lr

00000620 <USBHAL::EP9_OUT_callback()>:
     620:	2000      	movs	r0, #0
     622:	4770      	bx	lr

00000624 <USBHAL::EP9_IN_callback()>:
     624:	2000      	movs	r0, #0
     626:	4770      	bx	lr

00000628 <USBHAL::EP10_OUT_callback()>:
     628:	2000      	movs	r0, #0
     62a:	4770      	bx	lr

0000062c <USBHAL::EP10_IN_callback()>:
     62c:	2000      	movs	r0, #0
     62e:	4770      	bx	lr

00000630 <USBHAL::EP11_OUT_callback()>:
     630:	2000      	movs	r0, #0
     632:	4770      	bx	lr

00000634 <USBHAL::EP11_IN_callback()>:
     634:	2000      	movs	r0, #0
     636:	4770      	bx	lr

00000638 <USBHAL::EP12_OUT_callback()>:
     638:	2000      	movs	r0, #0
     63a:	4770      	bx	lr

0000063c <USBHAL::EP12_IN_callback()>:
     63c:	2000      	movs	r0, #0
     63e:	4770      	bx	lr

00000640 <USBHAL::EP13_OUT_callback()>:
     640:	2000      	movs	r0, #0
     642:	4770      	bx	lr

00000644 <USBHAL::EP13_IN_callback()>:
     644:	2000      	movs	r0, #0
     646:	4770      	bx	lr

00000648 <USBHAL::EP14_OUT_callback()>:
     648:	2000      	movs	r0, #0
     64a:	4770      	bx	lr

0000064c <USBHAL::EP14_IN_callback()>:
     64c:	2000      	movs	r0, #0
     64e:	4770      	bx	lr

00000650 <USBHAL::EP15_OUT_callback()>:
     650:	2000      	movs	r0, #0
     652:	4770      	bx	lr

00000654 <USBHAL::EP15_IN_callback()>:
     654:	2000      	movs	r0, #0
     656:	4770      	bx	lr

00000658 <USBDevice::USBCallback_busReset()>:
     658:	4770      	bx	lr
     65a:	46c0      	nop			; (mov r8, r8)

0000065c <USBDevice::USBCallback_request()>:
     65c:	2000      	movs	r0, #0
     65e:	4770      	bx	lr

00000660 <USBDevice::USBCallback_requestCompleted(unsigned char*, unsigned long)>:
     660:	4770      	bx	lr
     662:	46c0      	nop			; (mov r8, r8)

00000664 <USBDevice::USBCallback_setConfiguration(unsigned char)>:
     664:	2000      	movs	r0, #0
     666:	4770      	bx	lr

00000668 <USBDevice::USBCallback_setInterface(unsigned short, unsigned char)>:
     668:	2000      	movs	r0, #0
     66a:	4770      	bx	lr

0000066c <USBDevice::configurationDesc()>:
     66c:	2000      	movs	r0, #0
     66e:	4770      	bx	lr

00000670 <USBDevice::reportDescLength()>:
     670:	2000      	movs	r0, #0
     672:	4770      	bx	lr

00000674 <USBDevice::busReset()>:
     674:	b508      	push	{r3, lr}
     676:	238a      	movs	r3, #138	; 0x8a
     678:	2202      	movs	r2, #2
     67a:	005b      	lsls	r3, r3, #1
     67c:	54c2      	strb	r2, [r0, r3]
     67e:	2216      	movs	r2, #22
     680:	2300      	movs	r3, #0
     682:	32ff      	adds	r2, #255	; 0xff
     684:	5483      	strb	r3, [r0, r2]
     686:	228b      	movs	r2, #139	; 0x8b
     688:	0052      	lsls	r2, r2, #1
     68a:	5483      	strb	r3, [r0, r2]
     68c:	6802      	ldr	r2, [r0, #0]
     68e:	2394      	movs	r3, #148	; 0x94
     690:	58d3      	ldr	r3, [r2, r3]
     692:	4798      	blx	r3
     694:	bd08      	pop	{r3, pc}
     696:	46c0      	nop			; (mov r8, r8)

00000698 <USBDevice::connectStateChanged(unsigned int)>:
     698:	4770      	bx	lr
     69a:	46c0      	nop			; (mov r8, r8)

0000069c <USBDevice::suspendStateChanged(unsigned int)>:
     69c:	4770      	bx	lr
     69e:	46c0      	nop			; (mov r8, r8)

000006a0 <USBDevice::stringLangidDesc()>:
     6a0:	4800      	ldr	r0, [pc, #0]	; (6a4 <USBDevice::stringLangidDesc()+0x4>)
     6a2:	4770      	bx	lr
     6a4:	1ffff0fc 	.word	0x1ffff0fc

000006a8 <USBDevice::stringImanufacturerDesc()>:
     6a8:	4800      	ldr	r0, [pc, #0]	; (6ac <USBDevice::stringImanufacturerDesc()+0x4>)
     6aa:	4770      	bx	lr
     6ac:	1ffff0cc 	.word	0x1ffff0cc

000006b0 <USBDevice::stringIserialDesc()>:
     6b0:	4800      	ldr	r0, [pc, #0]	; (6b4 <USBDevice::stringIserialDesc()+0x4>)
     6b2:	4770      	bx	lr
     6b4:	1ffff118 	.word	0x1ffff118

000006b8 <USBDevice::stringIConfigurationDesc()>:
     6b8:	4800      	ldr	r0, [pc, #0]	; (6bc <USBDevice::stringIConfigurationDesc()+0x4>)
     6ba:	4770      	bx	lr
     6bc:	1ffff0f4 	.word	0x1ffff0f4

000006c0 <USBDevice::stringIinterfaceDesc()>:
     6c0:	4800      	ldr	r0, [pc, #0]	; (6c4 <USBDevice::stringIinterfaceDesc()+0x4>)
     6c2:	4770      	bx	lr
     6c4:	1ffff0c4 	.word	0x1ffff0c4

000006c8 <USBDevice::stringIproductDesc()>:
     6c8:	4800      	ldr	r0, [pc, #0]	; (6cc <USBDevice::stringIproductDesc()+0x4>)
     6ca:	4770      	bx	lr
     6cc:	1ffff100 	.word	0x1ffff100

000006d0 <USBDevice::deviceDesc()>:
     6d0:	b570      	push	{r4, r5, r6, lr}
     6d2:	4d10      	ldr	r5, [pc, #64]	; (714 <USBDevice::deviceDesc()+0x44>)
     6d4:	1c06      	adds	r6, r0, #0
     6d6:	682b      	ldr	r3, [r5, #0]
     6d8:	07db      	lsls	r3, r3, #31
     6da:	d502      	bpl.n	6e2 <USBDevice::deviceDesc()+0x12>
     6dc:	4c0e      	ldr	r4, [pc, #56]	; (718 <USBDevice::deviceDesc()+0x48>)
     6de:	1c20      	adds	r0, r4, #0
     6e0:	bd70      	pop	{r4, r5, r6, pc}
     6e2:	1c28      	adds	r0, r5, #0
     6e4:	f002 f827 	bl	2736 <__cxa_guard_acquire>
     6e8:	2800      	cmp	r0, #0
     6ea:	d0f7      	beq.n	6dc <USBDevice::deviceDesc()+0xc>
     6ec:	23f4      	movs	r3, #244	; 0xf4
     6ee:	5af3      	ldrh	r3, [r6, r3]
     6f0:	4c09      	ldr	r4, [pc, #36]	; (718 <USBDevice::deviceDesc()+0x48>)
     6f2:	1c28      	adds	r0, r5, #0
     6f4:	7223      	strb	r3, [r4, #8]
     6f6:	0a1b      	lsrs	r3, r3, #8
     6f8:	7263      	strb	r3, [r4, #9]
     6fa:	23f6      	movs	r3, #246	; 0xf6
     6fc:	5af3      	ldrh	r3, [r6, r3]
     6fe:	72a3      	strb	r3, [r4, #10]
     700:	0a1b      	lsrs	r3, r3, #8
     702:	72e3      	strb	r3, [r4, #11]
     704:	23f8      	movs	r3, #248	; 0xf8
     706:	5af3      	ldrh	r3, [r6, r3]
     708:	7323      	strb	r3, [r4, #12]
     70a:	0a1b      	lsrs	r3, r3, #8
     70c:	7363      	strb	r3, [r4, #13]
     70e:	f002 f821 	bl	2754 <__cxa_guard_release>
     712:	e7e4      	b.n	6de <USBDevice::deviceDesc()+0xe>
     714:	1ffff588 	.word	0x1ffff588
     718:	1ffff0e0 	.word	0x1ffff0e0

0000071c <USBDevice::requestGetDescriptor()>:
     71c:	b5f8      	push	{r3, r4, r5, r6, r7, lr}
     71e:	2380      	movs	r3, #128	; 0x80
     720:	005b      	lsls	r3, r3, #1
     722:	5ac2      	ldrh	r2, [r0, r3]
     724:	1c04      	adds	r4, r0, #0
     726:	1213      	asrs	r3, r2, #8
     728:	2b02      	cmp	r3, #2
     72a:	d030      	beq.n	78e <USBDevice::requestGetDescriptor()+0x72>
     72c:	2b03      	cmp	r3, #3
     72e:	d026      	beq.n	77e <USBDevice::requestGetDescriptor()+0x62>
     730:	2b01      	cmp	r3, #1
     732:	d001      	beq.n	738 <USBDevice::requestGetDescriptor()+0x1c>
     734:	2000      	movs	r0, #0
     736:	bdf8      	pop	{r3, r4, r5, r6, r7, pc}
     738:	6802      	ldr	r2, [r0, #0]
     73a:	25a8      	movs	r5, #168	; 0xa8
     73c:	5953      	ldr	r3, [r2, r5]
     73e:	4798      	blx	r3
     740:	2800      	cmp	r0, #0
     742:	d0f7      	beq.n	734 <USBDevice::requestGetDescriptor()+0x18>
     744:	6822      	ldr	r2, [r4, #0]
     746:	1c20      	adds	r0, r4, #0
     748:	5953      	ldr	r3, [r2, r5]
     74a:	4798      	blx	r3
     74c:	7806      	ldrb	r6, [r0, #0]
     74e:	2e12      	cmp	r6, #18
     750:	d1f0      	bne.n	734 <USBDevice::requestGetDescriptor()+0x18>
     752:	6822      	ldr	r2, [r4, #0]
     754:	1c20      	adds	r0, r4, #0
     756:	5953      	ldr	r3, [r2, r5]
     758:	4798      	blx	r3
     75a:	7847      	ldrb	r7, [r0, #1]
     75c:	2f01      	cmp	r7, #1
     75e:	d1e9      	bne.n	734 <USBDevice::requestGetDescriptor()+0x18>
     760:	6822      	ldr	r2, [r4, #0]
     762:	2386      	movs	r3, #134	; 0x86
     764:	005b      	lsls	r3, r3, #1
     766:	50e6      	str	r6, [r4, r3]
     768:	1c20      	adds	r0, r4, #0
     76a:	5953      	ldr	r3, [r2, r5]
     76c:	4798      	blx	r3
     76e:	2384      	movs	r3, #132	; 0x84
     770:	005b      	lsls	r3, r3, #1
     772:	50e0      	str	r0, [r4, r3]
     774:	2388      	movs	r3, #136	; 0x88
     776:	005b      	lsls	r3, r3, #1
     778:	54e7      	strb	r7, [r4, r3]
     77a:	2001      	movs	r0, #1
     77c:	e7db      	b.n	736 <USBDevice::requestGetDescriptor()+0x1a>
     77e:	23ff      	movs	r3, #255	; 0xff
     780:	401a      	ands	r2, r3
     782:	2a05      	cmp	r2, #5
     784:	d8d6      	bhi.n	734 <USBDevice::requestGetDescriptor()+0x18>
     786:	4b24      	ldr	r3, [pc, #144]	; (818 <USBDevice::requestGetDescriptor()+0xfc>)
     788:	0092      	lsls	r2, r2, #2
     78a:	589b      	ldr	r3, [r3, r2]
     78c:	469f      	mov	pc, r3
     78e:	6802      	ldr	r2, [r0, #0]
     790:	25ac      	movs	r5, #172	; 0xac
     792:	5953      	ldr	r3, [r2, r5]
     794:	4798      	blx	r3
     796:	2800      	cmp	r0, #0
     798:	d0cc      	beq.n	734 <USBDevice::requestGetDescriptor()+0x18>
     79a:	6822      	ldr	r2, [r4, #0]
     79c:	1c20      	adds	r0, r4, #0
     79e:	5953      	ldr	r3, [r2, r5]
     7a0:	4798      	blx	r3
     7a2:	7803      	ldrb	r3, [r0, #0]
     7a4:	2b09      	cmp	r3, #9
     7a6:	d1c5      	bne.n	734 <USBDevice::requestGetDescriptor()+0x18>
     7a8:	6822      	ldr	r2, [r4, #0]
     7aa:	1c20      	adds	r0, r4, #0
     7ac:	5953      	ldr	r3, [r2, r5]
     7ae:	4798      	blx	r3
     7b0:	7843      	ldrb	r3, [r0, #1]
     7b2:	2b02      	cmp	r3, #2
     7b4:	d1be      	bne.n	734 <USBDevice::requestGetDescriptor()+0x18>
     7b6:	6822      	ldr	r2, [r4, #0]
     7b8:	1c20      	adds	r0, r4, #0
     7ba:	5953      	ldr	r3, [r2, r5]
     7bc:	4798      	blx	r3
     7be:	6822      	ldr	r2, [r4, #0]
     7c0:	7886      	ldrb	r6, [r0, #2]
     7c2:	5953      	ldr	r3, [r2, r5]
     7c4:	1c20      	adds	r0, r4, #0
     7c6:	4798      	blx	r3
     7c8:	78c3      	ldrb	r3, [r0, #3]
     7ca:	021b      	lsls	r3, r3, #8
     7cc:	431e      	orrs	r6, r3
     7ce:	2386      	movs	r3, #134	; 0x86
     7d0:	005b      	lsls	r3, r3, #1
     7d2:	50e6      	str	r6, [r4, r3]
     7d4:	e008      	b.n	7e8 <USBDevice::requestGetDescriptor()+0xcc>
     7d6:	25bc      	movs	r5, #188	; 0xbc
     7d8:	6822      	ldr	r2, [r4, #0]
     7da:	1c20      	adds	r0, r4, #0
     7dc:	5953      	ldr	r3, [r2, r5]
     7de:	4798      	blx	r3
     7e0:	2386      	movs	r3, #134	; 0x86
     7e2:	7802      	ldrb	r2, [r0, #0]
     7e4:	005b      	lsls	r3, r3, #1
     7e6:	50e2      	str	r2, [r4, r3]
     7e8:	6822      	ldr	r2, [r4, #0]
     7ea:	1c20      	adds	r0, r4, #0
     7ec:	5953      	ldr	r3, [r2, r5]
     7ee:	4798      	blx	r3
     7f0:	2384      	movs	r3, #132	; 0x84
     7f2:	005b      	lsls	r3, r3, #1
     7f4:	50e0      	str	r0, [r4, r3]
     7f6:	2388      	movs	r3, #136	; 0x88
     7f8:	2201      	movs	r2, #1
     7fa:	005b      	lsls	r3, r3, #1
     7fc:	54e2      	strb	r2, [r4, r3]
     7fe:	2001      	movs	r0, #1
     800:	e799      	b.n	736 <USBDevice::requestGetDescriptor()+0x1a>
     802:	25b0      	movs	r5, #176	; 0xb0
     804:	e7e8      	b.n	7d8 <USBDevice::requestGetDescriptor()+0xbc>
     806:	25b4      	movs	r5, #180	; 0xb4
     808:	e7e6      	b.n	7d8 <USBDevice::requestGetDescriptor()+0xbc>
     80a:	25c4      	movs	r5, #196	; 0xc4
     80c:	e7e4      	b.n	7d8 <USBDevice::requestGetDescriptor()+0xbc>
     80e:	25c0      	movs	r5, #192	; 0xc0
     810:	e7e2      	b.n	7d8 <USBDevice::requestGetDescriptor()+0xbc>
     812:	25b8      	movs	r5, #184	; 0xb8
     814:	e7e0      	b.n	7d8 <USBDevice::requestGetDescriptor()+0xbc>
     816:	46c0      	nop			; (mov r8, r8)
     818:	00006a8c 	.word	0x00006a8c

0000081c <USBDevice::decodeSetupPacket(unsigned char*, SETUP_PACKET*)>:
     81c:	780b      	ldrb	r3, [r1, #0]
     81e:	201f      	movs	r0, #31
     820:	09db      	lsrs	r3, r3, #7
     822:	7013      	strb	r3, [r2, #0]
     824:	780b      	ldrb	r3, [r1, #0]
     826:	065b      	lsls	r3, r3, #25
     828:	0f9b      	lsrs	r3, r3, #30
     82a:	7053      	strb	r3, [r2, #1]
     82c:	780b      	ldrb	r3, [r1, #0]
     82e:	4003      	ands	r3, r0
     830:	7093      	strb	r3, [r2, #2]
     832:	784b      	ldrb	r3, [r1, #1]
     834:	70d3      	strb	r3, [r2, #3]
     836:	78cb      	ldrb	r3, [r1, #3]
     838:	7888      	ldrb	r0, [r1, #2]
     83a:	021b      	lsls	r3, r3, #8
     83c:	4303      	orrs	r3, r0
     83e:	8093      	strh	r3, [r2, #4]
     840:	794b      	ldrb	r3, [r1, #5]
     842:	7908      	ldrb	r0, [r1, #4]
     844:	021b      	lsls	r3, r3, #8
     846:	4303      	orrs	r3, r0
     848:	80d3      	strh	r3, [r2, #6]
     84a:	79cb      	ldrb	r3, [r1, #7]
     84c:	7989      	ldrb	r1, [r1, #6]
     84e:	021b      	lsls	r3, r3, #8
     850:	430b      	orrs	r3, r1
     852:	8113      	strh	r3, [r2, #8]
     854:	4770      	bx	lr
     856:	46c0      	nop			; (mov r8, r8)

00000858 <USBDevice::controlIn()>:
     858:	2386      	movs	r3, #134	; 0x86
     85a:	005b      	lsls	r3, r3, #1
     85c:	b570      	push	{r4, r5, r6, lr}
     85e:	58c5      	ldr	r5, [r0, r3]
     860:	1c04      	adds	r4, r0, #0
     862:	2d00      	cmp	r5, #0
     864:	d111      	bne.n	88a <USBDevice::controlIn()+0x32>
     866:	2612      	movs	r6, #18
     868:	36ff      	adds	r6, #255	; 0xff
     86a:	5d83      	ldrb	r3, [r0, r6]
     86c:	2b00      	cmp	r3, #0
     86e:	d130      	bne.n	8d2 <USBDevice::controlIn()+0x7a>
     870:	2589      	movs	r5, #137	; 0x89
     872:	006d      	lsls	r5, r5, #1
     874:	5d63      	ldrb	r3, [r4, r5]
     876:	2b00      	cmp	r3, #0
     878:	d121      	bne.n	8be <USBDevice::controlIn()+0x66>
     87a:	1c20      	adds	r0, r4, #0
     87c:	f000 fc84 	bl	1188 <USBHAL::EP0read()>
     880:	1c20      	adds	r0, r4, #0
     882:	f000 fc73 	bl	116c <USBHAL::EP0readStage()>
     886:	2001      	movs	r0, #1
     888:	bd70      	pop	{r4, r5, r6, pc}
     88a:	2388      	movs	r3, #136	; 0x88
     88c:	005b      	lsls	r3, r3, #1
     88e:	5cc3      	ldrb	r3, [r0, r3]
     890:	2000      	movs	r0, #0
     892:	2b01      	cmp	r3, #1
     894:	d1f8      	bne.n	888 <USBDevice::controlIn()+0x30>
     896:	2d40      	cmp	r5, #64	; 0x40
     898:	d900      	bls.n	89c <USBDevice::controlIn()+0x44>
     89a:	2540      	movs	r5, #64	; 0x40
     89c:	2684      	movs	r6, #132	; 0x84
     89e:	0076      	lsls	r6, r6, #1
     8a0:	1c2a      	adds	r2, r5, #0
     8a2:	1c20      	adds	r0, r4, #0
     8a4:	59a1      	ldr	r1, [r4, r6]
     8a6:	f000 fd83 	bl	13b0 <USBHAL::EP0write(unsigned char*, unsigned long)>
     8aa:	59a2      	ldr	r2, [r4, r6]
     8ac:	2001      	movs	r0, #1
     8ae:	1953      	adds	r3, r2, r5
     8b0:	51a3      	str	r3, [r4, r6]
     8b2:	2386      	movs	r3, #134	; 0x86
     8b4:	005b      	lsls	r3, r3, #1
     8b6:	58e2      	ldr	r2, [r4, r3]
     8b8:	1b55      	subs	r5, r2, r5
     8ba:	50e5      	str	r5, [r4, r3]
     8bc:	e7e4      	b.n	888 <USBDevice::controlIn()+0x30>
     8be:	6822      	ldr	r2, [r4, #0]
     8c0:	239c      	movs	r3, #156	; 0x9c
     8c2:	58d3      	ldr	r3, [r2, r3]
     8c4:	1c20      	adds	r0, r4, #0
     8c6:	2100      	movs	r1, #0
     8c8:	2200      	movs	r2, #0
     8ca:	4798      	blx	r3
     8cc:	2300      	movs	r3, #0
     8ce:	5563      	strb	r3, [r4, r5]
     8d0:	e7d3      	b.n	87a <USBDevice::controlIn()+0x22>
     8d2:	2100      	movs	r1, #0
     8d4:	2200      	movs	r2, #0
     8d6:	f000 fd6b 	bl	13b0 <USBHAL::EP0write(unsigned char*, unsigned long)>
     8da:	55a5      	strb	r5, [r4, r6]
     8dc:	2589      	movs	r5, #137	; 0x89
     8de:	006d      	lsls	r5, r5, #1
     8e0:	5d63      	ldrb	r3, [r4, r5]
     8e2:	2b00      	cmp	r3, #0
     8e4:	d0c9      	beq.n	87a <USBDevice::controlIn()+0x22>
     8e6:	e7ea      	b.n	8be <USBDevice::controlIn()+0x66>

000008e8 <USBDevice::controlOut()>:
     8e8:	b570      	push	{r4, r5, r6, lr}
     8ea:	2388      	movs	r3, #136	; 0x88
     8ec:	005b      	lsls	r3, r3, #1
     8ee:	5cc3      	ldrb	r3, [r0, r3]
     8f0:	b090      	sub	sp, #64	; 0x40
     8f2:	1c04      	adds	r4, r0, #0
     8f4:	2b00      	cmp	r3, #0
     8f6:	d11e      	bne.n	936 <USBDevice::controlOut()+0x4e>
     8f8:	4669      	mov	r1, sp
     8fa:	f000 fd09 	bl	1310 <USBHAL::EP0getReadResult(unsigned char*)>
     8fe:	2386      	movs	r3, #134	; 0x86
     900:	005b      	lsls	r3, r3, #1
     902:	58e1      	ldr	r1, [r4, r3]
     904:	1c02      	adds	r2, r0, #0
     906:	2000      	movs	r0, #0
     908:	428a      	cmp	r2, r1
     90a:	d812      	bhi.n	932 <USBDevice::controlOut()+0x4a>
     90c:	2084      	movs	r0, #132	; 0x84
     90e:	0040      	lsls	r0, r0, #1
     910:	5826      	ldr	r6, [r4, r0]
     912:	18b5      	adds	r5, r6, r2
     914:	5025      	str	r5, [r4, r0]
     916:	1a8d      	subs	r5, r1, r2
     918:	50e5      	str	r5, [r4, r3]
     91a:	d125      	bne.n	968 <USBDevice::controlOut()+0x80>
     91c:	2689      	movs	r6, #137	; 0x89
     91e:	0076      	lsls	r6, r6, #1
     920:	5da3      	ldrb	r3, [r4, r6]
     922:	2b00      	cmp	r3, #0
     924:	d112      	bne.n	94c <USBDevice::controlOut()+0x64>
     926:	1c20      	adds	r0, r4, #0
     928:	2100      	movs	r1, #0
     92a:	2200      	movs	r2, #0
     92c:	f000 fd40 	bl	13b0 <USBHAL::EP0write(unsigned char*, unsigned long)>
     930:	2001      	movs	r0, #1
     932:	b010      	add	sp, #64	; 0x40
     934:	bd70      	pop	{r4, r5, r6, pc}
     936:	2300      	movs	r3, #0
     938:	4669      	mov	r1, sp
     93a:	2200      	movs	r2, #0
     93c:	700b      	strb	r3, [r1, #0]
     93e:	f000 fd37 	bl	13b0 <USBHAL::EP0write(unsigned char*, unsigned long)>
     942:	1c20      	adds	r0, r4, #0
     944:	f7ff ff88 	bl	858 <USBDevice::controlIn()>
     948:	2001      	movs	r0, #1
     94a:	e7f2      	b.n	932 <USBDevice::controlOut()+0x4a>
     94c:	6821      	ldr	r1, [r4, #0]
     94e:	239c      	movs	r3, #156	; 0x9c
     950:	58cb      	ldr	r3, [r1, r3]
     952:	1c20      	adds	r0, r4, #0
     954:	4669      	mov	r1, sp
     956:	4798      	blx	r3
     958:	1c20      	adds	r0, r4, #0
     95a:	55a5      	strb	r5, [r4, r6]
     95c:	2100      	movs	r1, #0
     95e:	2200      	movs	r2, #0
     960:	f000 fd26 	bl	13b0 <USBHAL::EP0write(unsigned char*, unsigned long)>
     964:	2001      	movs	r0, #1
     966:	e7e4      	b.n	932 <USBDevice::controlOut()+0x4a>
     968:	1c20      	adds	r0, r4, #0
     96a:	f000 fc0d 	bl	1188 <USBHAL::EP0read()>
     96e:	2001      	movs	r0, #1
     970:	e7df      	b.n	932 <USBDevice::controlOut()+0x4a>
     972:	46c0      	nop			; (mov r8, r8)

00000974 <USBDevice::EP0out()>:
     974:	b510      	push	{r4, lr}
     976:	1c04      	adds	r4, r0, #0
     978:	f7ff ffb6 	bl	8e8 <USBDevice::controlOut()>
     97c:	2800      	cmp	r0, #0
     97e:	d102      	bne.n	986 <USBDevice::EP0out()+0x12>
     980:	1c20      	adds	r0, r4, #0
     982:	f000 fc07 	bl	1194 <USBHAL::EP0stall()>
     986:	bd10      	pop	{r4, pc}

00000988 <USBDevice::EP0in()>:
     988:	b510      	push	{r4, lr}
     98a:	1c04      	adds	r4, r0, #0
     98c:	f7ff ff64 	bl	858 <USBDevice::controlIn()>
     990:	2800      	cmp	r0, #0
     992:	d102      	bne.n	99a <USBDevice::EP0in()+0x12>
     994:	1c20      	adds	r0, r4, #0
     996:	f000 fbfd 	bl	1194 <USBHAL::EP0stall()>
     99a:	bd10      	pop	{r4, pc}

0000099c <USBDevice::requestSetConfiguration()>:
     99c:	b510      	push	{r4, lr}
     99e:	2380      	movs	r3, #128	; 0x80
     9a0:	005b      	lsls	r3, r3, #1
     9a2:	5cc1      	ldrb	r1, [r0, r3]
     9a4:	2316      	movs	r3, #22
     9a6:	33ff      	adds	r3, #255	; 0xff
     9a8:	1c04      	adds	r4, r0, #0
     9aa:	54c1      	strb	r1, [r0, r3]
     9ac:	2900      	cmp	r1, #0
     9ae:	d011      	beq.n	9d4 <USBDevice::requestSetConfiguration()+0x38>
     9b0:	6802      	ldr	r2, [r0, #0]
     9b2:	23a0      	movs	r3, #160	; 0xa0
     9b4:	58d3      	ldr	r3, [r2, r3]
     9b6:	4798      	blx	r3
     9b8:	1c03      	adds	r3, r0, #0
     9ba:	2000      	movs	r0, #0
     9bc:	2b00      	cmp	r3, #0
     9be:	d100      	bne.n	9c2 <USBDevice::requestSetConfiguration()+0x26>
     9c0:	bd10      	pop	{r4, pc}
     9c2:	1c20      	adds	r0, r4, #0
     9c4:	f000 fbba 	bl	113c <USBHAL::configureDevice()>
     9c8:	238a      	movs	r3, #138	; 0x8a
     9ca:	2204      	movs	r2, #4
     9cc:	005b      	lsls	r3, r3, #1
     9ce:	54e2      	strb	r2, [r4, r3]
     9d0:	2001      	movs	r0, #1
     9d2:	e7f5      	b.n	9c0 <USBDevice::requestSetConfiguration()+0x24>
     9d4:	f000 fbb4 	bl	1140 <USBHAL::unconfigureDevice()>
     9d8:	238a      	movs	r3, #138	; 0x8a
     9da:	2203      	movs	r2, #3
     9dc:	005b      	lsls	r3, r3, #1
     9de:	54e2      	strb	r2, [r4, r3]
     9e0:	2001      	movs	r0, #1
     9e2:	e7ed      	b.n	9c0 <USBDevice::requestSetConfiguration()+0x24>

000009e4 <USBDevice::requestSetFeature()>:
     9e4:	b508      	push	{r3, lr}
     9e6:	238a      	movs	r3, #138	; 0x8a
     9e8:	005b      	lsls	r3, r3, #1
     9ea:	5cc3      	ldrb	r3, [r0, r3]
     9ec:	2b04      	cmp	r3, #4
     9ee:	d005      	beq.n	9fc <USBDevice::requestSetFeature()+0x18>
     9f0:	2381      	movs	r3, #129	; 0x81
     9f2:	005b      	lsls	r3, r3, #1
     9f4:	5ac2      	ldrh	r2, [r0, r3]
     9f6:	2300      	movs	r3, #0
     9f8:	2a00      	cmp	r2, #0
     9fa:	d115      	bne.n	a28 <USBDevice::requestSetFeature()+0x44>
     9fc:	23fe      	movs	r3, #254	; 0xfe
     9fe:	5cc3      	ldrb	r3, [r0, r3]
     a00:	2b02      	cmp	r3, #2
     a02:	d113      	bne.n	a2c <USBDevice::requestSetFeature()+0x48>
     a04:	2380      	movs	r3, #128	; 0x80
     a06:	005b      	lsls	r3, r3, #1
     a08:	5ac2      	ldrh	r2, [r0, r3]
     a0a:	2300      	movs	r3, #0
     a0c:	2a00      	cmp	r2, #0
     a0e:	d10b      	bne.n	a28 <USBDevice::requestSetFeature()+0x44>
     a10:	2381      	movs	r3, #129	; 0x81
     a12:	005b      	lsls	r3, r3, #1
     a14:	5ac3      	ldrh	r3, [r0, r3]
     a16:	210f      	movs	r1, #15
     a18:	4019      	ands	r1, r3
     a1a:	061b      	lsls	r3, r3, #24
     a1c:	0fdb      	lsrs	r3, r3, #31
     a1e:	0049      	lsls	r1, r1, #1
     a20:	18c9      	adds	r1, r1, r3
     a22:	f000 fcdd 	bl	13e0 <USBHAL::stallEndpoint(unsigned char)>
     a26:	2301      	movs	r3, #1
     a28:	1c18      	adds	r0, r3, #0
     a2a:	bd08      	pop	{r3, pc}
     a2c:	2300      	movs	r3, #0
     a2e:	e7fb      	b.n	a28 <USBDevice::requestSetFeature()+0x44>

00000a30 <USBDevice::requestClearFeature()>:
     a30:	b508      	push	{r3, lr}
     a32:	238a      	movs	r3, #138	; 0x8a
     a34:	005b      	lsls	r3, r3, #1
     a36:	5cc3      	ldrb	r3, [r0, r3]
     a38:	2b04      	cmp	r3, #4
     a3a:	d005      	beq.n	a48 <USBDevice::requestClearFeature()+0x18>
     a3c:	2381      	movs	r3, #129	; 0x81
     a3e:	005b      	lsls	r3, r3, #1
     a40:	5ac2      	ldrh	r2, [r0, r3]
     a42:	2300      	movs	r3, #0
     a44:	2a00      	cmp	r2, #0
     a46:	d115      	bne.n	a74 <USBDevice::requestClearFeature()+0x44>
     a48:	23fe      	movs	r3, #254	; 0xfe
     a4a:	5cc3      	ldrb	r3, [r0, r3]
     a4c:	2b02      	cmp	r3, #2
     a4e:	d113      	bne.n	a78 <USBDevice::requestClearFeature()+0x48>
     a50:	2380      	movs	r3, #128	; 0x80
     a52:	005b      	lsls	r3, r3, #1
     a54:	5ac2      	ldrh	r2, [r0, r3]
     a56:	2300      	movs	r3, #0
     a58:	2a00      	cmp	r2, #0
     a5a:	d10b      	bne.n	a74 <USBDevice::requestClearFeature()+0x44>
     a5c:	2381      	movs	r3, #129	; 0x81
     a5e:	005b      	lsls	r3, r3, #1
     a60:	5ac3      	ldrh	r3, [r0, r3]
     a62:	210f      	movs	r1, #15
     a64:	4019      	ands	r1, r3
     a66:	061b      	lsls	r3, r3, #24
     a68:	0fdb      	lsrs	r3, r3, #31
     a6a:	0049      	lsls	r1, r1, #1
     a6c:	18c9      	adds	r1, r1, r3
     a6e:	f000 fcc3 	bl	13f8 <USBHAL::unstallEndpoint(unsigned char)>
     a72:	2301      	movs	r3, #1
     a74:	1c18      	adds	r0, r3, #0
     a76:	bd08      	pop	{r3, pc}
     a78:	2300      	movs	r3, #0
     a7a:	e7fb      	b.n	a74 <USBDevice::requestClearFeature()+0x44>

00000a7c <USBDevice::requestGetStatus()>:
     a7c:	b538      	push	{r3, r4, r5, lr}
     a7e:	238a      	movs	r3, #138	; 0x8a
     a80:	005b      	lsls	r3, r3, #1
     a82:	5cc3      	ldrb	r3, [r0, r3]
     a84:	1c04      	adds	r4, r0, #0
     a86:	2b04      	cmp	r3, #4
     a88:	d005      	beq.n	a96 <USBDevice::requestGetStatus()+0x1a>
     a8a:	2381      	movs	r3, #129	; 0x81
     a8c:	005b      	lsls	r3, r3, #1
     a8e:	5ac3      	ldrh	r3, [r0, r3]
     a90:	2000      	movs	r0, #0
     a92:	2b00      	cmp	r3, #0
     a94:	d124      	bne.n	ae0 <USBDevice::requestGetStatus()+0x64>
     a96:	23fe      	movs	r3, #254	; 0xfe
     a98:	5ce3      	ldrb	r3, [r4, r3]
     a9a:	2b01      	cmp	r3, #1
     a9c:	d027      	beq.n	aee <USBDevice::requestGetStatus()+0x72>
     a9e:	2b00      	cmp	r3, #0
     aa0:	d021      	beq.n	ae6 <USBDevice::requestGetStatus()+0x6a>
     aa2:	2b02      	cmp	r3, #2
     aa4:	d11d      	bne.n	ae2 <USBDevice::requestGetStatus()+0x66>
     aa6:	2381      	movs	r3, #129	; 0x81
     aa8:	005b      	lsls	r3, r3, #1
     aaa:	5ae3      	ldrh	r3, [r4, r3]
     aac:	220f      	movs	r2, #15
     aae:	09d9      	lsrs	r1, r3, #7
     ab0:	2501      	movs	r5, #1
     ab2:	4013      	ands	r3, r2
     ab4:	005b      	lsls	r3, r3, #1
     ab6:	4029      	ands	r1, r5
     ab8:	18c9      	adds	r1, r1, r3
     aba:	1c20      	adds	r0, r4, #0
     abc:	f000 fca8 	bl	1410 <USBHAL::getEndpointStallState(unsigned char)>
     ac0:	4b0e      	ldr	r3, [pc, #56]	; (afc <USBDevice::requestGetStatus()+0x80>)
     ac2:	2800      	cmp	r0, #0
     ac4:	d017      	beq.n	af6 <USBDevice::requestGetStatus()+0x7a>
     ac6:	801d      	strh	r5, [r3, #0]
     ac8:	2284      	movs	r2, #132	; 0x84
     aca:	0052      	lsls	r2, r2, #1
     acc:	50a3      	str	r3, [r4, r2]
     ace:	2386      	movs	r3, #134	; 0x86
     ad0:	2202      	movs	r2, #2
     ad2:	005b      	lsls	r3, r3, #1
     ad4:	50e2      	str	r2, [r4, r3]
     ad6:	2388      	movs	r3, #136	; 0x88
     ad8:	2201      	movs	r2, #1
     ada:	005b      	lsls	r3, r3, #1
     adc:	54e2      	strb	r2, [r4, r3]
     ade:	2001      	movs	r0, #1
     ae0:	bd38      	pop	{r3, r4, r5, pc}
     ae2:	2000      	movs	r0, #0
     ae4:	e7fc      	b.n	ae0 <USBDevice::requestGetStatus()+0x64>
     ae6:	4b05      	ldr	r3, [pc, #20]	; (afc <USBDevice::requestGetStatus()+0x80>)
     ae8:	2201      	movs	r2, #1
     aea:	801a      	strh	r2, [r3, #0]
     aec:	e7ec      	b.n	ac8 <USBDevice::requestGetStatus()+0x4c>
     aee:	4b03      	ldr	r3, [pc, #12]	; (afc <USBDevice::requestGetStatus()+0x80>)
     af0:	2200      	movs	r2, #0
     af2:	801a      	strh	r2, [r3, #0]
     af4:	e7e8      	b.n	ac8 <USBDevice::requestGetStatus()+0x4c>
     af6:	8018      	strh	r0, [r3, #0]
     af8:	e7e6      	b.n	ac8 <USBDevice::requestGetStatus()+0x4c>
     afa:	46c0      	nop			; (mov r8, r8)
     afc:	1ffff584 	.word	0x1ffff584

00000b00 <USBDevice::requestSetup()>:
     b00:	b570      	push	{r4, r5, r6, lr}
     b02:	23fd      	movs	r3, #253	; 0xfd
     b04:	5cc3      	ldrb	r3, [r0, r3]
     b06:	1c04      	adds	r4, r0, #0
     b08:	2b00      	cmp	r3, #0
     b0a:	d10c      	bne.n	b26 <USBDevice::requestSetup()+0x26>
     b0c:	23ff      	movs	r3, #255	; 0xff
     b0e:	5cc3      	ldrb	r3, [r0, r3]
     b10:	2b0b      	cmp	r3, #11
     b12:	d808      	bhi.n	b26 <USBDevice::requestSetup()+0x26>
     b14:	4a2e      	ldr	r2, [pc, #184]	; (bd0 <USBDevice::requestSetup()+0xd0>)
     b16:	009b      	lsls	r3, r3, #2
     b18:	58d3      	ldr	r3, [r2, r3]
     b1a:	469f      	mov	pc, r3
     b1c:	238a      	movs	r3, #138	; 0x8a
     b1e:	005b      	lsls	r3, r3, #1
     b20:	5cc3      	ldrb	r3, [r0, r3]
     b22:	2b04      	cmp	r3, #4
     b24:	d04a      	beq.n	bbc <USBDevice::requestSetup()+0xbc>
     b26:	2000      	movs	r0, #0
     b28:	bd70      	pop	{r4, r5, r6, pc}
     b2a:	f7ff ffa7 	bl	a7c <USBDevice::requestGetStatus()>
     b2e:	e7fb      	b.n	b28 <USBDevice::requestSetup()+0x28>
     b30:	f7ff ff7e 	bl	a30 <USBDevice::requestClearFeature()>
     b34:	e7f8      	b.n	b28 <USBDevice::requestSetup()+0x28>
     b36:	f7ff ff55 	bl	9e4 <USBDevice::requestSetFeature()>
     b3a:	e7f5      	b.n	b28 <USBDevice::requestSetup()+0x28>
     b3c:	2580      	movs	r5, #128	; 0x80
     b3e:	006d      	lsls	r5, r5, #1
     b40:	5d41      	ldrb	r1, [r0, r5]
     b42:	f000 faff 	bl	1144 <USBHAL::setAddress(unsigned char)>
     b46:	5b63      	ldrh	r3, [r4, r5]
     b48:	2b00      	cmp	r3, #0
     b4a:	d131      	bne.n	bb0 <USBDevice::requestSetup()+0xb0>
     b4c:	238a      	movs	r3, #138	; 0x8a
     b4e:	2202      	movs	r2, #2
     b50:	005b      	lsls	r3, r3, #1
     b52:	54e2      	strb	r2, [r4, r3]
     b54:	2001      	movs	r0, #1
     b56:	e7e7      	b.n	b28 <USBDevice::requestSetup()+0x28>
     b58:	f7ff fde0 	bl	71c <USBDevice::requestGetDescriptor()>
     b5c:	e7e4      	b.n	b28 <USBDevice::requestSetup()+0x28>
     b5e:	2681      	movs	r6, #129	; 0x81
     b60:	2580      	movs	r5, #128	; 0x80
     b62:	0076      	lsls	r6, r6, #1
     b64:	006d      	lsls	r5, r5, #1
     b66:	5b81      	ldrh	r1, [r0, r6]
     b68:	5d42      	ldrb	r2, [r0, r5]
     b6a:	6800      	ldr	r0, [r0, #0]
     b6c:	23a4      	movs	r3, #164	; 0xa4
     b6e:	58c3      	ldr	r3, [r0, r3]
     b70:	1c20      	adds	r0, r4, #0
     b72:	4798      	blx	r3
     b74:	2800      	cmp	r0, #0
     b76:	d0d6      	beq.n	b26 <USBDevice::requestSetup()+0x26>
     b78:	5ba2      	ldrh	r2, [r4, r6]
     b7a:	238c      	movs	r3, #140	; 0x8c
     b7c:	005b      	lsls	r3, r3, #1
     b7e:	52e2      	strh	r2, [r4, r3]
     b80:	5b62      	ldrh	r2, [r4, r5]
     b82:	238d      	movs	r3, #141	; 0x8d
     b84:	005b      	lsls	r3, r3, #1
     b86:	54e2      	strb	r2, [r4, r3]
     b88:	2001      	movs	r0, #1
     b8a:	e7cd      	b.n	b28 <USBDevice::requestSetup()+0x28>
     b8c:	2016      	movs	r0, #22
     b8e:	30ff      	adds	r0, #255	; 0xff
     b90:	1822      	adds	r2, r4, r0
     b92:	2384      	movs	r3, #132	; 0x84
     b94:	005b      	lsls	r3, r3, #1
     b96:	50e2      	str	r2, [r4, r3]
     b98:	2286      	movs	r2, #134	; 0x86
     b9a:	2301      	movs	r3, #1
     b9c:	0052      	lsls	r2, r2, #1
     b9e:	50a3      	str	r3, [r4, r2]
     ba0:	2288      	movs	r2, #136	; 0x88
     ba2:	0052      	lsls	r2, r2, #1
     ba4:	54a3      	strb	r3, [r4, r2]
     ba6:	2001      	movs	r0, #1
     ba8:	e7be      	b.n	b28 <USBDevice::requestSetup()+0x28>
     baa:	f7ff fef7 	bl	99c <USBDevice::requestSetConfiguration()>
     bae:	e7bb      	b.n	b28 <USBDevice::requestSetup()+0x28>
     bb0:	238a      	movs	r3, #138	; 0x8a
     bb2:	2203      	movs	r2, #3
     bb4:	005b      	lsls	r3, r3, #1
     bb6:	54e2      	strb	r2, [r4, r3]
     bb8:	2001      	movs	r0, #1
     bba:	e7b5      	b.n	b28 <USBDevice::requestSetup()+0x28>
     bbc:	238c      	movs	r3, #140	; 0x8c
     bbe:	005b      	lsls	r3, r3, #1
     bc0:	5ac2      	ldrh	r2, [r0, r3]
     bc2:	2381      	movs	r3, #129	; 0x81
     bc4:	005b      	lsls	r3, r3, #1
     bc6:	52c2      	strh	r2, [r0, r3]
     bc8:	238d      	movs	r3, #141	; 0x8d
     bca:	005b      	lsls	r3, r3, #1
     bcc:	18c2      	adds	r2, r0, r3
     bce:	e7e0      	b.n	b92 <USBDevice::requestSetup()+0x92>
     bd0:	00006aa4 	.word	0x00006aa4

00000bd4 <USBDevice::controlSetup()>:
     bd4:	b510      	push	{r4, lr}
     bd6:	b090      	sub	sp, #64	; 0x40
     bd8:	1c04      	adds	r4, r0, #0
     bda:	4669      	mov	r1, sp
     bdc:	f000 fb8e 	bl	12fc <USBHAL::EP0setup(unsigned char*)>
     be0:	1c22      	adds	r2, r4, #0
     be2:	32fc      	adds	r2, #252	; 0xfc
     be4:	1c20      	adds	r0, r4, #0
     be6:	4669      	mov	r1, sp
     be8:	f7ff fe18 	bl	81c <USBDevice::decodeSetupPacket(unsigned char*, SETUP_PACKET*)>
     bec:	2284      	movs	r2, #132	; 0x84
     bee:	2300      	movs	r3, #0
     bf0:	0052      	lsls	r2, r2, #1
     bf2:	50a3      	str	r3, [r4, r2]
     bf4:	2286      	movs	r2, #134	; 0x86
     bf6:	0052      	lsls	r2, r2, #1
     bf8:	50a3      	str	r3, [r4, r2]
     bfa:	2288      	movs	r2, #136	; 0x88
     bfc:	0052      	lsls	r2, r2, #1
     bfe:	54a3      	strb	r3, [r4, r2]
     c00:	2212      	movs	r2, #18
     c02:	32ff      	adds	r2, #255	; 0xff
     c04:	54a3      	strb	r3, [r4, r2]
     c06:	2289      	movs	r2, #137	; 0x89
     c08:	0052      	lsls	r2, r2, #1
     c0a:	54a3      	strb	r3, [r4, r2]
     c0c:	6822      	ldr	r2, [r4, #0]
     c0e:	2398      	movs	r3, #152	; 0x98
     c10:	58d3      	ldr	r3, [r2, r3]
     c12:	1c20      	adds	r0, r4, #0
     c14:	4798      	blx	r3
     c16:	2800      	cmp	r0, #0
     c18:	d02b      	beq.n	c72 <USBDevice::controlSetup()+0x9e>
     c1a:	2382      	movs	r3, #130	; 0x82
     c1c:	005b      	lsls	r3, r3, #1
     c1e:	5ae3      	ldrh	r3, [r4, r3]
     c20:	2b00      	cmp	r3, #0
     c22:	d10c      	bne.n	c3e <USBDevice::controlSetup()+0x6a>
     c24:	2386      	movs	r3, #134	; 0x86
     c26:	005b      	lsls	r3, r3, #1
     c28:	58e3      	ldr	r3, [r4, r3]
     c2a:	2b00      	cmp	r3, #0
     c2c:	d11f      	bne.n	c6e <USBDevice::controlSetup()+0x9a>
     c2e:	1c20      	adds	r0, r4, #0
     c30:	2100      	movs	r1, #0
     c32:	2200      	movs	r2, #0
     c34:	f000 fbbc 	bl	13b0 <USBHAL::EP0write(unsigned char*, unsigned long)>
     c38:	2001      	movs	r0, #1
     c3a:	b010      	add	sp, #64	; 0x40
     c3c:	bd10      	pop	{r4, pc}
     c3e:	22fc      	movs	r2, #252	; 0xfc
     c40:	5ca2      	ldrb	r2, [r4, r2]
     c42:	2a01      	cmp	r2, #1
     c44:	d00e      	beq.n	c64 <USBDevice::controlSetup()+0x90>
     c46:	2288      	movs	r2, #136	; 0x88
     c48:	0052      	lsls	r2, r2, #1
     c4a:	5ca2      	ldrb	r2, [r4, r2]
     c4c:	2a00      	cmp	r2, #0
     c4e:	d10e      	bne.n	c6e <USBDevice::controlSetup()+0x9a>
     c50:	2286      	movs	r2, #134	; 0x86
     c52:	0052      	lsls	r2, r2, #1
     c54:	58a2      	ldr	r2, [r4, r2]
     c56:	429a      	cmp	r2, r3
     c58:	d109      	bne.n	c6e <USBDevice::controlSetup()+0x9a>
     c5a:	1c20      	adds	r0, r4, #0
     c5c:	f000 fa94 	bl	1188 <USBHAL::EP0read()>
     c60:	2001      	movs	r0, #1
     c62:	e7ea      	b.n	c3a <USBDevice::controlSetup()+0x66>
     c64:	2288      	movs	r2, #136	; 0x88
     c66:	0052      	lsls	r2, r2, #1
     c68:	5ca1      	ldrb	r1, [r4, r2]
     c6a:	2901      	cmp	r1, #1
     c6c:	d008      	beq.n	c80 <USBDevice::controlSetup()+0xac>
     c6e:	2000      	movs	r0, #0
     c70:	e7e3      	b.n	c3a <USBDevice::controlSetup()+0x66>
     c72:	1c20      	adds	r0, r4, #0
     c74:	f7ff ff44 	bl	b00 <USBDevice::requestSetup()>
     c78:	2800      	cmp	r0, #0
     c7a:	d1ce      	bne.n	c1a <USBDevice::controlSetup()+0x46>
     c7c:	2000      	movs	r0, #0
     c7e:	e7dc      	b.n	c3a <USBDevice::controlSetup()+0x66>
     c80:	2086      	movs	r0, #134	; 0x86
     c82:	0040      	lsls	r0, r0, #1
     c84:	5822      	ldr	r2, [r4, r0]
     c86:	429a      	cmp	r2, r3
     c88:	d905      	bls.n	c96 <USBDevice::controlSetup()+0xc2>
     c8a:	5023      	str	r3, [r4, r0]
     c8c:	1c20      	adds	r0, r4, #0
     c8e:	f7ff fde3 	bl	858 <USBDevice::controlIn()>
     c92:	2001      	movs	r0, #1
     c94:	e7d1      	b.n	c3a <USBDevice::controlSetup()+0x66>
     c96:	429a      	cmp	r2, r3
     c98:	d2f8      	bcs.n	c8c <USBDevice::controlSetup()+0xb8>
     c9a:	0693      	lsls	r3, r2, #26
     c9c:	d1f6      	bne.n	c8c <USBDevice::controlSetup()+0xb8>
     c9e:	2312      	movs	r3, #18
     ca0:	33ff      	adds	r3, #255	; 0xff
     ca2:	54e1      	strb	r1, [r4, r3]
     ca4:	e7f2      	b.n	c8c <USBDevice::controlSetup()+0xb8>
     ca6:	46c0      	nop			; (mov r8, r8)

00000ca8 <USBDevice::EP0setupCallback()>:
     ca8:	b510      	push	{r4, lr}
     caa:	1c04      	adds	r4, r0, #0
     cac:	f7ff ff92 	bl	bd4 <USBDevice::controlSetup()>
     cb0:	2800      	cmp	r0, #0
     cb2:	d102      	bne.n	cba <USBDevice::EP0setupCallback()+0x12>
     cb4:	1c20      	adds	r0, r4, #0
     cb6:	f000 fa6d 	bl	1194 <USBHAL::EP0stall()>
     cba:	bd10      	pop	{r4, pc}

00000cbc <USBDevice::connect(bool)>:
     cbc:	b538      	push	{r3, r4, r5, lr}
     cbe:	1c0d      	adds	r5, r1, #0
     cc0:	1c04      	adds	r4, r0, #0
     cc2:	f000 fa2b 	bl	111c <USBHAL::connect()>
     cc6:	2d00      	cmp	r5, #0
     cc8:	d004      	beq.n	cd4 <USBDevice::connect(bool)+0x18>
     cca:	228a      	movs	r2, #138	; 0x8a
     ccc:	0052      	lsls	r2, r2, #1
     cce:	5ca3      	ldrb	r3, [r4, r2]
     cd0:	2b04      	cmp	r3, #4
     cd2:	d1fc      	bne.n	cce <USBDevice::connect(bool)+0x12>
     cd4:	bd38      	pop	{r3, r4, r5, pc}
     cd6:	46c0      	nop			; (mov r8, r8)

00000cd8 <USBDevice::getTransferPtr()>:
     cd8:	30fc      	adds	r0, #252	; 0xfc
     cda:	4770      	bx	lr

00000cdc <USBDevice::addEndpoint(unsigned char, unsigned long)>:
     cdc:	b508      	push	{r3, lr}
     cde:	2300      	movs	r3, #0
     ce0:	f000 fa3a 	bl	1158 <USBHAL::realiseEndpoint(unsigned char, unsigned long, unsigned long)>
     ce4:	bd08      	pop	{r3, pc}
     ce6:	46c0      	nop			; (mov r8, r8)

00000ce8 <USBDevice::findDescriptor(unsigned char)>:
     ce8:	b5f0      	push	{r4, r5, r6, r7, lr}
     cea:	6802      	ldr	r2, [r0, #0]
     cec:	4647      	mov	r7, r8
     cee:	24ac      	movs	r4, #172	; 0xac
     cf0:	b480      	push	{r7}
     cf2:	5913      	ldr	r3, [r2, r4]
     cf4:	1c05      	adds	r5, r0, #0
     cf6:	1c0e      	adds	r6, r1, #0
     cf8:	4798      	blx	r3
     cfa:	2800      	cmp	r0, #0
     cfc:	d006      	beq.n	d0c <USBDevice::findDescriptor(unsigned char)+0x24>
     cfe:	682a      	ldr	r2, [r5, #0]
     d00:	1c28      	adds	r0, r5, #0
     d02:	5913      	ldr	r3, [r2, r4]
     d04:	4798      	blx	r3
     d06:	7803      	ldrb	r3, [r0, #0]
     d08:	2b09      	cmp	r3, #9
     d0a:	d003      	beq.n	d14 <USBDevice::findDescriptor(unsigned char)+0x2c>
     d0c:	2000      	movs	r0, #0
     d0e:	bc04      	pop	{r2}
     d10:	4690      	mov	r8, r2
     d12:	bdf0      	pop	{r4, r5, r6, r7, pc}
     d14:	682a      	ldr	r2, [r5, #0]
     d16:	1c28      	adds	r0, r5, #0
     d18:	5913      	ldr	r3, [r2, r4]
     d1a:	4798      	blx	r3
     d1c:	7843      	ldrb	r3, [r0, #1]
     d1e:	2b02      	cmp	r3, #2
     d20:	d1f4      	bne.n	d0c <USBDevice::findDescriptor(unsigned char)+0x24>
     d22:	682a      	ldr	r2, [r5, #0]
     d24:	1c28      	adds	r0, r5, #0
     d26:	5913      	ldr	r3, [r2, r4]
     d28:	4798      	blx	r3
     d2a:	682a      	ldr	r2, [r5, #0]
     d2c:	7887      	ldrb	r7, [r0, #2]
     d2e:	5913      	ldr	r3, [r2, r4]
     d30:	1c28      	adds	r0, r5, #0
     d32:	4798      	blx	r3
     d34:	78c3      	ldrb	r3, [r0, #3]
     d36:	021b      	lsls	r3, r3, #8
     d38:	433b      	orrs	r3, r7
     d3a:	4698      	mov	r8, r3
     d3c:	2b0b      	cmp	r3, #11
     d3e:	d9e5      	bls.n	d0c <USBDevice::findDescriptor(unsigned char)+0x24>
     d40:	682a      	ldr	r2, [r5, #0]
     d42:	1c28      	adds	r0, r5, #0
     d44:	5913      	ldr	r3, [r2, r4]
     d46:	4798      	blx	r3
     d48:	1c04      	adds	r4, r0, #0
     d4a:	3409      	adds	r4, #9
     d4c:	27ac      	movs	r7, #172	; 0xac
     d4e:	e008      	b.n	d62 <USBDevice::findDescriptor(unsigned char)+0x7a>
     d50:	7823      	ldrb	r3, [r4, #0]
     d52:	682a      	ldr	r2, [r5, #0]
     d54:	18e4      	adds	r4, r4, r3
     d56:	1c28      	adds	r0, r5, #0
     d58:	59d3      	ldr	r3, [r2, r7]
     d5a:	4798      	blx	r3
     d5c:	4440      	add	r0, r8
     d5e:	4284      	cmp	r4, r0
     d60:	d2d4      	bcs.n	d0c <USBDevice::findDescriptor(unsigned char)+0x24>
     d62:	7863      	ldrb	r3, [r4, #1]
     d64:	42b3      	cmp	r3, r6
     d66:	d1f3      	bne.n	d50 <USBDevice::findDescriptor(unsigned char)+0x68>
     d68:	1c20      	adds	r0, r4, #0
     d6a:	e7d0      	b.n	d0e <USBDevice::findDescriptor(unsigned char)+0x26>

00000d6c <USBDevice::USBDevice(unsigned short, unsigned short, unsigned short)>:
     d6c:	b5f8      	push	{r3, r4, r5, r6, r7, lr}
     d6e:	1c04      	adds	r4, r0, #0
     d70:	1c16      	adds	r6, r2, #0
     d72:	1c1d      	adds	r5, r3, #0
     d74:	1c0f      	adds	r7, r1, #0
     d76:	f000 f8d5 	bl	f24 <USBHAL::USBHAL()>
     d7a:	4b0b      	ldr	r3, [pc, #44]	; (da8 <USBDevice::USBDevice(unsigned short, unsigned short, unsigned short)+0x3c>)
     d7c:	2201      	movs	r2, #1
     d7e:	3308      	adds	r3, #8
     d80:	6023      	str	r3, [r4, #0]
     d82:	23f4      	movs	r3, #244	; 0xf4
     d84:	52e7      	strh	r7, [r4, r3]
     d86:	23f6      	movs	r3, #246	; 0xf6
     d88:	52e6      	strh	r6, [r4, r3]
     d8a:	23f8      	movs	r3, #248	; 0xf8
     d8c:	52e5      	strh	r5, [r4, r3]
     d8e:	238a      	movs	r3, #138	; 0x8a
     d90:	005b      	lsls	r3, r3, #1
     d92:	54e2      	strb	r2, [r4, r3]
     d94:	2216      	movs	r2, #22
     d96:	2300      	movs	r3, #0
     d98:	32ff      	adds	r2, #255	; 0xff
     d9a:	54a3      	strb	r3, [r4, r2]
     d9c:	228b      	movs	r2, #139	; 0x8b
     d9e:	0052      	lsls	r2, r2, #1
     da0:	1c20      	adds	r0, r4, #0
     da2:	54a3      	strb	r3, [r4, r2]
     da4:	bdf8      	pop	{r3, r4, r5, r6, r7, pc}
     da6:	46c0      	nop			; (mov r8, r8)
     da8:	00006ad8 	.word	0x00006ad8

00000dac <USBDevice::readStart(unsigned char, unsigned long)>:
     dac:	b508      	push	{r3, lr}
     dae:	f000 f9fb 	bl	11a8 <USBHAL::endpointRead(unsigned char, unsigned long)>
     db2:	3801      	subs	r0, #1
     db4:	4243      	negs	r3, r0
     db6:	4158      	adcs	r0, r3
     db8:	b2c0      	uxtb	r0, r0
     dba:	bd08      	pop	{r3, pc}

00000dbc <USBDevice::write(unsigned char, unsigned char*, unsigned long, unsigned long)>:
     dbc:	b570      	push	{r4, r5, r6, lr}
     dbe:	1c0e      	adds	r6, r1, #0
     dc0:	9904      	ldr	r1, [sp, #16]
     dc2:	1c04      	adds	r4, r0, #0
     dc4:	428b      	cmp	r3, r1
     dc6:	d804      	bhi.n	dd2 <USBDevice::write(unsigned char, unsigned char*, unsigned long, unsigned long)+0x16>
     dc8:	258a      	movs	r5, #138	; 0x8a
     dca:	006d      	lsls	r5, r5, #1
     dcc:	5d40      	ldrb	r0, [r0, r5]
     dce:	2804      	cmp	r0, #4
     dd0:	d001      	beq.n	dd6 <USBDevice::write(unsigned char, unsigned char*, unsigned long, unsigned long)+0x1a>
     dd2:	2000      	movs	r0, #0
     dd4:	bd70      	pop	{r4, r5, r6, pc}
     dd6:	1c20      	adds	r0, r4, #0
     dd8:	1c31      	adds	r1, r6, #0
     dda:	f000 faa3 	bl	1324 <USBHAL::endpointWrite(unsigned char, unsigned char*, unsigned long)>
     dde:	2801      	cmp	r0, #1
     de0:	d1f7      	bne.n	dd2 <USBDevice::write(unsigned char, unsigned char*, unsigned long, unsigned long)+0x16>
     de2:	1c20      	adds	r0, r4, #0
     de4:	1c31      	adds	r1, r6, #0
     de6:	f000 faeb 	bl	13c0 <USBHAL::endpointWriteResult(unsigned char)>
     dea:	2801      	cmp	r0, #1
     dec:	d003      	beq.n	df6 <USBDevice::write(unsigned char, unsigned char*, unsigned long, unsigned long)+0x3a>
     dee:	4243      	negs	r3, r0
     df0:	4158      	adcs	r0, r3
     df2:	b2c0      	uxtb	r0, r0
     df4:	e7ee      	b.n	dd4 <USBDevice::write(unsigned char, unsigned char*, unsigned long, unsigned long)+0x18>
     df6:	5d63      	ldrb	r3, [r4, r5]
     df8:	2b04      	cmp	r3, #4
     dfa:	d1f8      	bne.n	dee <USBDevice::write(unsigned char, unsigned char*, unsigned long, unsigned long)+0x32>
     dfc:	e7f1      	b.n	de2 <USBDevice::write(unsigned char, unsigned char*, unsigned long, unsigned long)+0x26>
     dfe:	46c0      	nop			; (mov r8, r8)

00000e00 <USBHAL::busReset()>:
     e00:	4770      	bx	lr
     e02:	46c0      	nop			; (mov r8, r8)

00000e04 <USBHAL::EP0setupCallback()>:
     e04:	4770      	bx	lr
     e06:	46c0      	nop			; (mov r8, r8)

00000e08 <USBHAL::EP0out()>:
     e08:	4770      	bx	lr
     e0a:	46c0      	nop			; (mov r8, r8)

00000e0c <USBHAL::EP0in()>:
     e0c:	4770      	bx	lr
     e0e:	46c0      	nop			; (mov r8, r8)

00000e10 <USBHAL::connectStateChanged(unsigned int)>:
     e10:	4770      	bx	lr
     e12:	46c0      	nop			; (mov r8, r8)

00000e14 <USBHAL::suspendStateChanged(unsigned int)>:
     e14:	4770      	bx	lr
     e16:	46c0      	nop			; (mov r8, r8)

00000e18 <USBHAL::realiseEndpoint(unsigned char, unsigned long, unsigned long) [clone .part.0]>:
     e18:	b5f8      	push	{r3, r4, r5, r6, r7, lr}
     e1a:	4646      	mov	r6, r8
     e1c:	464f      	mov	r7, r9
     e1e:	b4c0      	push	{r6, r7}
     e20:	1c05      	adds	r5, r0, #0
     e22:	4688      	mov	r8, r1
     e24:	1046      	asrs	r6, r0, #1
     e26:	0791      	lsls	r1, r2, #30
     e28:	d40c      	bmi.n	e44 <USBHAL::realiseEndpoint(unsigned char, unsigned long, unsigned long) [clone .part.0]+0x2c>
     e2a:	00b4      	lsls	r4, r6, #2
     e2c:	07c2      	lsls	r2, r0, #31
     e2e:	d550      	bpl.n	ed2 <USBHAL::realiseEndpoint(unsigned char, unsigned long, unsigned long) [clone .part.0]+0xba>
     e30:	1ca6      	adds	r6, r4, #2
     e32:	4f36      	ldr	r7, [pc, #216]	; (f0c <USBHAL::realiseEndpoint(unsigned char, unsigned long, unsigned long) [clone .part.0]+0xf4>)
     e34:	00b3      	lsls	r3, r6, #2
     e36:	59d8      	ldr	r0, [r3, r7]
     e38:	4698      	mov	r8, r3
     e3a:	2800      	cmp	r0, #0
     e3c:	d05b      	beq.n	ef6 <USBHAL::realiseEndpoint(unsigned char, unsigned long, unsigned long) [clone .part.0]+0xde>
     e3e:	2201      	movs	r2, #1
     e40:	4691      	mov	r9, r2
     e42:	e00a      	b.n	e5a <USBHAL::realiseEndpoint(unsigned char, unsigned long, unsigned long) [clone .part.0]+0x42>
     e44:	2701      	movs	r7, #1
     e46:	4007      	ands	r7, r0
     e48:	4c31      	ldr	r4, [pc, #196]	; (f10 <USBHAL::realiseEndpoint(unsigned char, unsigned long, unsigned long) [clone .part.0]+0xf8>)
     e4a:	d028      	beq.n	e9e <USBHAL::realiseEndpoint(unsigned char, unsigned long, unsigned long) [clone .part.0]+0x86>
     e4c:	68a0      	ldr	r0, [r4, #8]
     e4e:	2800      	cmp	r0, #0
     e50:	d057      	beq.n	f02 <USBHAL::realiseEndpoint(unsigned char, unsigned long, unsigned long) [clone .part.0]+0xea>
     e52:	00b4      	lsls	r4, r6, #2
     e54:	2300      	movs	r3, #0
     e56:	1ca6      	adds	r6, r4, #2
     e58:	4699      	mov	r9, r3
     e5a:	4f2e      	ldr	r7, [pc, #184]	; (f14 <USBHAL::realiseEndpoint(unsigned char, unsigned long, unsigned long) [clone .part.0]+0xfc>)
     e5c:	23c0      	movs	r3, #192	; 0xc0
     e5e:	19e2      	adds	r2, r4, r7
     e60:	2704      	movs	r7, #4
     e62:	5cd1      	ldrb	r1, [r2, r3]
     e64:	46b8      	mov	r8, r7
     e66:	4647      	mov	r7, r8
     e68:	430f      	orrs	r7, r1
     e6a:	1c39      	adds	r1, r7, #0
     e6c:	464f      	mov	r7, r9
     e6e:	4339      	orrs	r1, r7
     e70:	b2c9      	uxtb	r1, r1
     e72:	54d1      	strb	r1, [r2, r3]
     e74:	3403      	adds	r4, #3
     e76:	4b28      	ldr	r3, [pc, #160]	; (f18 <USBHAL::realiseEndpoint(unsigned char, unsigned long, unsigned long) [clone .part.0]+0x100>)
     e78:	00f6      	lsls	r6, r6, #3
     e7a:	00e4      	lsls	r4, r4, #3
     e7c:	199e      	adds	r6, r3, r6
     e7e:	2200      	movs	r2, #0
     e80:	191b      	adds	r3, r3, r4
     e82:	6070      	str	r0, [r6, #4]
     e84:	605a      	str	r2, [r3, #4]
     e86:	4b25      	ldr	r3, [pc, #148]	; (f1c <USBHAL::realiseEndpoint(unsigned char, unsigned long, unsigned long) [clone .part.0]+0x104>)
     e88:	2201      	movs	r2, #1
     e8a:	681e      	ldr	r6, [r3, #0]
     e8c:	40aa      	lsls	r2, r5
     e8e:	1c15      	adds	r5, r2, #0
     e90:	4335      	orrs	r5, r6
     e92:	601d      	str	r5, [r3, #0]
     e94:	2001      	movs	r0, #1
     e96:	bc0c      	pop	{r2, r3}
     e98:	4690      	mov	r8, r2
     e9a:	4699      	mov	r9, r3
     e9c:	bdf8      	pop	{r3, r4, r5, r6, r7, pc}
     e9e:	6820      	ldr	r0, [r4, #0]
     ea0:	2800      	cmp	r0, #0
     ea2:	d023      	beq.n	eec <USBHAL::realiseEndpoint(unsigned char, unsigned long, unsigned long) [clone .part.0]+0xd4>
     ea4:	00b4      	lsls	r4, r6, #2
     ea6:	491b      	ldr	r1, [pc, #108]	; (f14 <USBHAL::realiseEndpoint(unsigned char, unsigned long, unsigned long) [clone .part.0]+0xfc>)
     ea8:	23c0      	movs	r3, #192	; 0xc0
     eaa:	1862      	adds	r2, r4, r1
     eac:	5cd6      	ldrb	r6, [r2, r3]
     eae:	2108      	movs	r1, #8
     eb0:	4331      	orrs	r1, r6
     eb2:	430f      	orrs	r7, r1
     eb4:	b2ff      	uxtb	r7, r7
     eb6:	54d7      	strb	r7, [r2, r3]
     eb8:	4b17      	ldr	r3, [pc, #92]	; (f18 <USBHAL::realiseEndpoint(unsigned char, unsigned long, unsigned long) [clone .part.0]+0x100>)
     eba:	00e2      	lsls	r2, r4, #3
     ebc:	1899      	adds	r1, r3, r2
     ebe:	4646      	mov	r6, r8
     ec0:	804e      	strh	r6, [r1, #2]
     ec2:	6048      	str	r0, [r1, #4]
     ec4:	3401      	adds	r4, #1
     ec6:	2188      	movs	r1, #136	; 0x88
     ec8:	54d1      	strb	r1, [r2, r3]
     eca:	00e4      	lsls	r4, r4, #3
     ecc:	2200      	movs	r2, #0
     ece:	54e2      	strb	r2, [r4, r3]
     ed0:	e7d9      	b.n	e86 <USBHAL::realiseEndpoint(unsigned char, unsigned long, unsigned long) [clone .part.0]+0x6e>
     ed2:	4f0e      	ldr	r7, [pc, #56]	; (f0c <USBHAL::realiseEndpoint(unsigned char, unsigned long, unsigned long) [clone .part.0]+0xf4>)
     ed4:	0136      	lsls	r6, r6, #4
     ed6:	59f0      	ldr	r0, [r6, r7]
     ed8:	2800      	cmp	r0, #0
     eda:	d001      	beq.n	ee0 <USBHAL::realiseEndpoint(unsigned char, unsigned long, unsigned long) [clone .part.0]+0xc8>
     edc:	2701      	movs	r7, #1
     ede:	e7e2      	b.n	ea6 <USBHAL::realiseEndpoint(unsigned char, unsigned long, unsigned long) [clone .part.0]+0x8e>
     ee0:	2080      	movs	r0, #128	; 0x80
     ee2:	f7ff fb73 	bl	5cc <__wrap_malloc>
     ee6:	51f0      	str	r0, [r6, r7]
     ee8:	2701      	movs	r7, #1
     eea:	e7dc      	b.n	ea6 <USBHAL::realiseEndpoint(unsigned char, unsigned long, unsigned long) [clone .part.0]+0x8e>
     eec:	480c      	ldr	r0, [pc, #48]	; (f20 <USBHAL::realiseEndpoint(unsigned char, unsigned long, unsigned long) [clone .part.0]+0x108>)
     eee:	f7ff fb6d 	bl	5cc <__wrap_malloc>
     ef2:	6020      	str	r0, [r4, #0]
     ef4:	e7d6      	b.n	ea4 <USBHAL::realiseEndpoint(unsigned char, unsigned long, unsigned long) [clone .part.0]+0x8c>
     ef6:	2080      	movs	r0, #128	; 0x80
     ef8:	f7ff fb68 	bl	5cc <__wrap_malloc>
     efc:	4641      	mov	r1, r8
     efe:	51c8      	str	r0, [r1, r7]
     f00:	e79d      	b.n	e3e <USBHAL::realiseEndpoint(unsigned char, unsigned long, unsigned long) [clone .part.0]+0x26>
     f02:	4807      	ldr	r0, [pc, #28]	; (f20 <USBHAL::realiseEndpoint(unsigned char, unsigned long, unsigned long) [clone .part.0]+0x108>)
     f04:	f7ff fb62 	bl	5cc <__wrap_malloc>
     f08:	60a0      	str	r0, [r4, #8]
     f0a:	e7a2      	b.n	e52 <USBHAL::realiseEndpoint(unsigned char, unsigned long, unsigned long) [clone .part.0]+0x3a>
     f0c:	1ffff804 	.word	0x1ffff804
     f10:	1ffff8f4 	.word	0x1ffff8f4
     f14:	40072000 	.word	0x40072000
     f18:	1ffff600 	.word	0x1ffff600
     f1c:	1ffff130 	.word	0x1ffff130
     f20:	000007fe 	.word	0x000007fe

00000f24 <USBHAL::USBHAL()>:
     f24:	b5f8      	push	{r3, r4, r5, r6, r7, lr}
     f26:	465f      	mov	r7, r11
     f28:	4656      	mov	r6, r10
     f2a:	4644      	mov	r4, r8
     f2c:	464d      	mov	r5, r9
     f2e:	b4f0      	push	{r4, r5, r6, r7}
     f30:	4b6e      	ldr	r3, [pc, #440]	; (10ec <USBHAL::USBHAL()+0x1c8>)
     f32:	4d6f      	ldr	r5, [pc, #444]	; (10f0 <USBHAL::USBHAL()+0x1cc>)
     f34:	2680      	movs	r6, #128	; 0x80
     f36:	2280      	movs	r2, #128	; 0x80
     f38:	0476      	lsls	r6, r6, #17
     f3a:	2120      	movs	r1, #32
     f3c:	6003      	str	r3, [r0, #0]
     f3e:	50ae      	str	r6, [r5, r2]
     f40:	60c1      	str	r1, [r0, #12]
     f42:	2124      	movs	r1, #36	; 0x24
     f44:	6141      	str	r1, [r0, #20]
     f46:	2128      	movs	r1, #40	; 0x28
     f48:	61c1      	str	r1, [r0, #28]
     f4a:	212c      	movs	r1, #44	; 0x2c
     f4c:	6241      	str	r1, [r0, #36]	; 0x24
     f4e:	2130      	movs	r1, #48	; 0x30
     f50:	62c1      	str	r1, [r0, #44]	; 0x2c
     f52:	2134      	movs	r1, #52	; 0x34
     f54:	6341      	str	r1, [r0, #52]	; 0x34
     f56:	2138      	movs	r1, #56	; 0x38
     f58:	63c1      	str	r1, [r0, #60]	; 0x3c
     f5a:	213c      	movs	r1, #60	; 0x3c
     f5c:	6441      	str	r1, [r0, #68]	; 0x44
     f5e:	2140      	movs	r1, #64	; 0x40
     f60:	64c1      	str	r1, [r0, #76]	; 0x4c
     f62:	2144      	movs	r1, #68	; 0x44
     f64:	6541      	str	r1, [r0, #84]	; 0x54
     f66:	2148      	movs	r1, #72	; 0x48
     f68:	65c1      	str	r1, [r0, #92]	; 0x5c
     f6a:	214c      	movs	r1, #76	; 0x4c
     f6c:	6641      	str	r1, [r0, #100]	; 0x64
     f6e:	231c      	movs	r3, #28
     f70:	2150      	movs	r1, #80	; 0x50
     f72:	6043      	str	r3, [r0, #4]
     f74:	66c1      	str	r1, [r0, #108]	; 0x6c
     f76:	2301      	movs	r3, #1
     f78:	2154      	movs	r1, #84	; 0x54
     f7a:	6083      	str	r3, [r0, #8]
     f7c:	6103      	str	r3, [r0, #16]
     f7e:	6183      	str	r3, [r0, #24]
     f80:	6203      	str	r3, [r0, #32]
     f82:	6283      	str	r3, [r0, #40]	; 0x28
     f84:	6303      	str	r3, [r0, #48]	; 0x30
     f86:	6383      	str	r3, [r0, #56]	; 0x38
     f88:	6403      	str	r3, [r0, #64]	; 0x40
     f8a:	6483      	str	r3, [r0, #72]	; 0x48
     f8c:	6503      	str	r3, [r0, #80]	; 0x50
     f8e:	6583      	str	r3, [r0, #88]	; 0x58
     f90:	6603      	str	r3, [r0, #96]	; 0x60
     f92:	6683      	str	r3, [r0, #104]	; 0x68
     f94:	6703      	str	r3, [r0, #112]	; 0x70
     f96:	6741      	str	r1, [r0, #116]	; 0x74
     f98:	2158      	movs	r1, #88	; 0x58
     f9a:	6783      	str	r3, [r0, #120]	; 0x78
     f9c:	67c1      	str	r1, [r0, #124]	; 0x7c
     f9e:	1c04      	adds	r4, r0, #0
     fa0:	5083      	str	r3, [r0, r2]
     fa2:	215c      	movs	r1, #92	; 0x5c
     fa4:	2084      	movs	r0, #132	; 0x84
     fa6:	5021      	str	r1, [r4, r0]
     fa8:	218c      	movs	r1, #140	; 0x8c
     faa:	468a      	mov	r10, r1
     fac:	4684      	mov	r12, r0
     fae:	2788      	movs	r7, #136	; 0x88
     fb0:	2160      	movs	r1, #96	; 0x60
     fb2:	4650      	mov	r0, r10
     fb4:	51e3      	str	r3, [r4, r7]
     fb6:	5021      	str	r1, [r4, r0]
     fb8:	2190      	movs	r1, #144	; 0x90
     fba:	2094      	movs	r0, #148	; 0x94
     fbc:	5063      	str	r3, [r4, r1]
     fbe:	4680      	mov	r8, r0
     fc0:	468b      	mov	r11, r1
     fc2:	2164      	movs	r1, #100	; 0x64
     fc4:	1c08      	adds	r0, r1, #0
     fc6:	4641      	mov	r1, r8
     fc8:	5060      	str	r0, [r4, r1]
     fca:	2198      	movs	r1, #152	; 0x98
     fcc:	209c      	movs	r0, #156	; 0x9c
     fce:	5063      	str	r3, [r4, r1]
     fd0:	4680      	mov	r8, r0
     fd2:	2168      	movs	r1, #104	; 0x68
     fd4:	1c08      	adds	r0, r1, #0
     fd6:	4641      	mov	r1, r8
     fd8:	5060      	str	r0, [r4, r1]
     fda:	21a0      	movs	r1, #160	; 0xa0
     fdc:	20a4      	movs	r0, #164	; 0xa4
     fde:	5063      	str	r3, [r4, r1]
     fe0:	4680      	mov	r8, r0
     fe2:	216c      	movs	r1, #108	; 0x6c
     fe4:	1c08      	adds	r0, r1, #0
     fe6:	4641      	mov	r1, r8
     fe8:	5060      	str	r0, [r4, r1]
     fea:	21a8      	movs	r1, #168	; 0xa8
     fec:	20ac      	movs	r0, #172	; 0xac
     fee:	5063      	str	r3, [r4, r1]
     ff0:	4680      	mov	r8, r0
     ff2:	2170      	movs	r1, #112	; 0x70
     ff4:	1c08      	adds	r0, r1, #0
     ff6:	4641      	mov	r1, r8
     ff8:	5060      	str	r0, [r4, r1]
     ffa:	21b0      	movs	r1, #176	; 0xb0
     ffc:	20b4      	movs	r0, #180	; 0xb4
     ffe:	5063      	str	r3, [r4, r1]
    1000:	4680      	mov	r8, r0
    1002:	2174      	movs	r1, #116	; 0x74
    1004:	1c08      	adds	r0, r1, #0
    1006:	4641      	mov	r1, r8
    1008:	5060      	str	r0, [r4, r1]
    100a:	21b8      	movs	r1, #184	; 0xb8
    100c:	20bc      	movs	r0, #188	; 0xbc
    100e:	5063      	str	r3, [r4, r1]
    1010:	4680      	mov	r8, r0
    1012:	2178      	movs	r1, #120	; 0x78
    1014:	1c08      	adds	r0, r1, #0
    1016:	4641      	mov	r1, r8
    1018:	5060      	str	r0, [r4, r1]
    101a:	21c0      	movs	r1, #192	; 0xc0
    101c:	20c4      	movs	r0, #196	; 0xc4
    101e:	5063      	str	r3, [r4, r1]
    1020:	4680      	mov	r8, r0
    1022:	217c      	movs	r1, #124	; 0x7c
    1024:	1c08      	adds	r0, r1, #0
    1026:	4641      	mov	r1, r8
    1028:	5060      	str	r0, [r4, r1]
    102a:	21c8      	movs	r1, #200	; 0xc8
    102c:	5063      	str	r3, [r4, r1]
    102e:	21cc      	movs	r1, #204	; 0xcc
    1030:	5062      	str	r2, [r4, r1]
    1032:	22d0      	movs	r2, #208	; 0xd0
    1034:	50a3      	str	r3, [r4, r2]
    1036:	4661      	mov	r1, r12
    1038:	22d4      	movs	r2, #212	; 0xd4
    103a:	50a1      	str	r1, [r4, r2]
    103c:	22d8      	movs	r2, #216	; 0xd8
    103e:	50a3      	str	r3, [r4, r2]
    1040:	22dc      	movs	r2, #220	; 0xdc
    1042:	50a7      	str	r7, [r4, r2]
    1044:	22e0      	movs	r2, #224	; 0xe0
    1046:	50a3      	str	r3, [r4, r2]
    1048:	4650      	mov	r0, r10
    104a:	22e4      	movs	r2, #228	; 0xe4
    104c:	50a0      	str	r0, [r4, r2]
    104e:	22e8      	movs	r2, #232	; 0xe8
    1050:	50a3      	str	r3, [r4, r2]
    1052:	4659      	mov	r1, r11
    1054:	22ec      	movs	r2, #236	; 0xec
    1056:	50a1      	str	r1, [r4, r2]
    1058:	22f0      	movs	r2, #240	; 0xf0
    105a:	50a3      	str	r3, [r4, r2]
    105c:	4b25      	ldr	r3, [pc, #148]	; (10f4 <USBHAL::USBHAL()+0x1d0>)
    105e:	4a26      	ldr	r2, [pc, #152]	; (10f8 <USBHAL::USBHAL()+0x1d4>)
    1060:	21a0      	movs	r1, #160	; 0xa0
    1062:	5898      	ldr	r0, [r3, r2]
    1064:	02c9      	lsls	r1, r1, #11
    1066:	4301      	orrs	r1, r0
    1068:	5099      	str	r1, [r3, r2]
    106a:	4a24      	ldr	r2, [pc, #144]	; (10fc <USBHAL::USBHAL()+0x1d8>)
    106c:	2180      	movs	r1, #128	; 0x80
    106e:	5898      	ldr	r0, [r3, r2]
    1070:	02c9      	lsls	r1, r1, #11
    1072:	4301      	orrs	r1, r0
    1074:	5099      	str	r1, [r3, r2]
    1076:	4b22      	ldr	r3, [pc, #136]	; (1100 <USBHAL::USBHAL()+0x1dc>)
    1078:	2018      	movs	r0, #24
    107a:	4922      	ldr	r1, [pc, #136]	; (1104 <USBHAL::USBHAL()+0x1e0>)
    107c:	601c      	str	r4, [r3, #0]
    107e:	f000 fd19 	bl	1ab4 <NVIC_SetVector>
    1082:	602e      	str	r6, [r5, #0]
    1084:	2086      	movs	r0, #134	; 0x86
    1086:	4d20      	ldr	r5, [pc, #128]	; (1108 <USBHAL::USBHAL()+0x1e4>)
    1088:	0040      	lsls	r0, r0, #1
    108a:	5c2a      	ldrb	r2, [r5, r0]
    108c:	2380      	movs	r3, #128	; 0x80
    108e:	4313      	orrs	r3, r2
    1090:	542b      	strb	r3, [r5, r0]
    1092:	2386      	movs	r3, #134	; 0x86
    1094:	0059      	lsls	r1, r3, #1
    1096:	5c2b      	ldrb	r3, [r5, r0]
    1098:	4a1b      	ldr	r2, [pc, #108]	; (1108 <USBHAL::USBHAL()+0x1e4>)
    109a:	b25b      	sxtb	r3, r3
    109c:	2b00      	cmp	r3, #0
    109e:	dbf8      	blt.n	1092 <USBHAL::USBHAL()+0x16e>
    10a0:	4b1a      	ldr	r3, [pc, #104]	; (110c <USBHAL::USBHAL()+0x1e8>)
    10a2:	209c      	movs	r0, #156	; 0x9c
    10a4:	0a1d      	lsrs	r5, r3, #8
    10a6:	b2ed      	uxtb	r5, r5
    10a8:	5415      	strb	r5, [r2, r0]
    10aa:	0c1d      	lsrs	r5, r3, #16
    10ac:	b2ed      	uxtb	r5, r5
    10ae:	20b0      	movs	r0, #176	; 0xb0
    10b0:	5415      	strb	r5, [r2, r0]
    10b2:	0e1b      	lsrs	r3, r3, #24
    10b4:	20b4      	movs	r0, #180	; 0xb4
    10b6:	5413      	strb	r3, [r2, r0]
    10b8:	20ff      	movs	r0, #255	; 0xff
    10ba:	2380      	movs	r3, #128	; 0x80
    10bc:	54d0      	strb	r0, [r2, r3]
    10be:	2384      	movs	r3, #132	; 0x84
    10c0:	5cd5      	ldrb	r5, [r2, r3]
    10c2:	200f      	movs	r0, #15
    10c4:	4328      	orrs	r0, r5
    10c6:	54d0      	strb	r0, [r2, r3]
    10c8:	2380      	movs	r3, #128	; 0x80
    10ca:	005b      	lsls	r3, r3, #1
    10cc:	5cd0      	ldrb	r0, [r2, r3]
    10ce:	253f      	movs	r5, #63	; 0x3f
    10d0:	4028      	ands	r0, r5
    10d2:	54d0      	strb	r0, [r2, r3]
    10d4:	5c50      	ldrb	r0, [r2, r1]
    10d6:	2340      	movs	r3, #64	; 0x40
    10d8:	4303      	orrs	r3, r0
    10da:	5453      	strb	r3, [r2, r1]
    10dc:	1c20      	adds	r0, r4, #0
    10de:	bc3c      	pop	{r2, r3, r4, r5}
    10e0:	4690      	mov	r8, r2
    10e2:	4699      	mov	r9, r3
    10e4:	46a2      	mov	r10, r4
    10e6:	46ab      	mov	r11, r5
    10e8:	bdf8      	pop	{r3, r4, r5, r6, r7, pc}
    10ea:	46c0      	nop			; (mov r8, r8)
    10ec:	00006bb8 	.word	0x00006bb8
    10f0:	e000e100 	.word	0xe000e100
    10f4:	40047000 	.word	0x40047000
    10f8:	00001004 	.word	0x00001004
    10fc:	00001034 	.word	0x00001034
    1100:	1ffff58c 	.word	0x1ffff58c
    1104:	000016b1 	.word	0x000016b1
    1108:	40072000 	.word	0x40072000
    110c:	1ffff600 	.word	0x1ffff600

00001110 <USBHAL::~USBHAL()>:
    1110:	4b01      	ldr	r3, [pc, #4]	; (1118 <USBHAL::~USBHAL()+0x8>)
    1112:	6003      	str	r3, [r0, #0]
    1114:	4770      	bx	lr
    1116:	46c0      	nop			; (mov r8, r8)
    1118:	00006bb8 	.word	0x00006bb8

0000111c <USBHAL::connect()>:
    111c:	4b06      	ldr	r3, [pc, #24]	; (1138 <USBHAL::connect()+0x1c>)
    111e:	2294      	movs	r2, #148	; 0x94
    1120:	5c98      	ldrb	r0, [r3, r2]
    1122:	2101      	movs	r1, #1
    1124:	4301      	orrs	r1, r0
    1126:	5499      	strb	r1, [r3, r2]
    1128:	2284      	movs	r2, #132	; 0x84
    112a:	0052      	lsls	r2, r2, #1
    112c:	5c98      	ldrb	r0, [r3, r2]
    112e:	2110      	movs	r1, #16
    1130:	4301      	orrs	r1, r0
    1132:	5499      	strb	r1, [r3, r2]
    1134:	4770      	bx	lr
    1136:	46c0      	nop			; (mov r8, r8)
    1138:	40072000 	.word	0x40072000

0000113c <USBHAL::configureDevice()>:
    113c:	4770      	bx	lr
    113e:	46c0      	nop			; (mov r8, r8)

00001140 <USBHAL::unconfigureDevice()>:
    1140:	4770      	bx	lr
    1142:	46c0      	nop			; (mov r8, r8)

00001144 <USBHAL::setAddress(unsigned char)>:
    1144:	4b02      	ldr	r3, [pc, #8]	; (1150 <USBHAL::setAddress(unsigned char)+0xc>)
    1146:	2201      	movs	r2, #1
    1148:	701a      	strb	r2, [r3, #0]
    114a:	4b02      	ldr	r3, [pc, #8]	; (1154 <USBHAL::setAddress(unsigned char)+0x10>)
    114c:	7019      	strb	r1, [r3, #0]
    114e:	4770      	bx	lr
    1150:	1ffff908 	.word	0x1ffff908
    1154:	1ffff800 	.word	0x1ffff800

00001158 <USBHAL::realiseEndpoint(unsigned char, unsigned long, unsigned long)>:
    1158:	b508      	push	{r3, lr}
    115a:	2000      	movs	r0, #0
    115c:	291f      	cmp	r1, #31
    115e:	d804      	bhi.n	116a <USBHAL::realiseEndpoint(unsigned char, unsigned long, unsigned long)+0x12>
    1160:	1c08      	adds	r0, r1, #0
    1162:	1c11      	adds	r1, r2, #0
    1164:	1c1a      	adds	r2, r3, #0
    1166:	f7ff fe57 	bl	e18 <USBHAL::realiseEndpoint(unsigned char, unsigned long, unsigned long) [clone .part.0]>
    116a:	bd08      	pop	{r3, pc}

0000116c <USBHAL::EP0readStage()>:
    116c:	4b04      	ldr	r3, [pc, #16]	; (1180 <USBHAL::EP0readStage()+0x14>)
    116e:	2201      	movs	r2, #1
    1170:	6819      	ldr	r1, [r3, #0]
    1172:	4391      	bics	r1, r2
    1174:	6019      	str	r1, [r3, #0]
    1176:	4b03      	ldr	r3, [pc, #12]	; (1184 <USBHAL::EP0readStage()+0x18>)
    1178:	2288      	movs	r2, #136	; 0x88
    117a:	701a      	strb	r2, [r3, #0]
    117c:	4770      	bx	lr
    117e:	46c0      	nop			; (mov r8, r8)
    1180:	1ffff130 	.word	0x1ffff130
    1184:	1ffff600 	.word	0x1ffff600

00001188 <USBHAL::EP0read()>:
    1188:	4b01      	ldr	r3, [pc, #4]	; (1190 <USBHAL::EP0read()+0x8>)
    118a:	2240      	movs	r2, #64	; 0x40
    118c:	805a      	strh	r2, [r3, #2]
    118e:	4770      	bx	lr
    1190:	1ffff600 	.word	0x1ffff600

00001194 <USBHAL::EP0stall()>:
    1194:	4a03      	ldr	r2, [pc, #12]	; (11a4 <USBHAL::EP0stall()+0x10>)
    1196:	23c0      	movs	r3, #192	; 0xc0
    1198:	5cd0      	ldrb	r0, [r2, r3]
    119a:	2102      	movs	r1, #2
    119c:	4301      	orrs	r1, r0
    119e:	54d1      	strb	r1, [r2, r3]
    11a0:	4770      	bx	lr
    11a2:	46c0      	nop			; (mov r8, r8)
    11a4:	40072000 	.word	0x40072000

000011a8 <USBHAL::endpointRead(unsigned char, unsigned long)>:
    11a8:	4b03      	ldr	r3, [pc, #12]	; (11b8 <USBHAL::endpointRead(unsigned char, unsigned long)+0x10>)
    11aa:	1049      	asrs	r1, r1, #1
    11ac:	0149      	lsls	r1, r1, #5
    11ae:	1859      	adds	r1, r3, r1
    11b0:	2001      	movs	r0, #1
    11b2:	804a      	strh	r2, [r1, #2]
    11b4:	4770      	bx	lr
    11b6:	46c0      	nop			; (mov r8, r8)
    11b8:	1ffff600 	.word	0x1ffff600

000011bc <USBHAL::endpointReadResult(unsigned char, unsigned char*, unsigned long*)>:
    11bc:	b5f0      	push	{r4, r5, r6, r7, lr}
    11be:	465f      	mov	r7, r11
    11c0:	4656      	mov	r6, r10
    11c2:	464d      	mov	r5, r9
    11c4:	4644      	mov	r4, r8
    11c6:	b4f0      	push	{r4, r5, r6, r7}
    11c8:	2002      	movs	r0, #2
    11ca:	b083      	sub	sp, #12
    11cc:	291f      	cmp	r1, #31
    11ce:	d906      	bls.n	11de <USBHAL::endpointReadResult(unsigned char, unsigned char*, unsigned long*)+0x22>
    11d0:	b003      	add	sp, #12
    11d2:	bc3c      	pop	{r2, r3, r4, r5}
    11d4:	4690      	mov	r8, r2
    11d6:	4699      	mov	r9, r3
    11d8:	46a2      	mov	r10, r4
    11da:	46ab      	mov	r11, r5
    11dc:	bdf0      	pop	{r4, r5, r6, r7, pc}
    11de:	2401      	movs	r4, #1
    11e0:	420c      	tst	r4, r1
    11e2:	d1f5      	bne.n	11d0 <USBHAL::endpointReadResult(unsigned char, unsigned char*, unsigned long*)+0x14>
    11e4:	1048      	asrs	r0, r1, #1
    11e6:	4f3f      	ldr	r7, [pc, #252]	; (12e4 <USBHAL::endpointReadResult(unsigned char, unsigned char*, unsigned long*)+0x128>)
    11e8:	0146      	lsls	r6, r0, #5
    11ea:	0085      	lsls	r5, r0, #2
    11ec:	46ac      	mov	r12, r5
    11ee:	46b2      	mov	r10, r6
    11f0:	19bd      	adds	r5, r7, r6
    11f2:	2630      	movs	r6, #48	; 0x30
    11f4:	1836      	adds	r6, r6, r0
    11f6:	00b6      	lsls	r6, r6, #2
    11f8:	46b1      	mov	r9, r6
    11fa:	4e3b      	ldr	r6, [pc, #236]	; (12e8 <USBHAL::endpointReadResult(unsigned char, unsigned char*, unsigned long*)+0x12c>)
    11fc:	886d      	ldrh	r5, [r5, #2]
    11fe:	46b0      	mov	r8, r6
    1200:	464e      	mov	r6, r9
    1202:	4446      	add	r6, r8
    1204:	7836      	ldrb	r6, [r6, #0]
    1206:	4026      	ands	r6, r4
    1208:	46b0      	mov	r8, r6
    120a:	2800      	cmp	r0, #0
    120c:	d10d      	bne.n	122a <USBHAL::endpointReadResult(unsigned char, unsigned char*, unsigned long*)+0x6e>
    120e:	4656      	mov	r6, r10
    1210:	5df0      	ldrb	r0, [r6, r7]
    1212:	4646      	mov	r6, r8
    1214:	0680      	lsls	r0, r0, #26
    1216:	0f00      	lsrs	r0, r0, #28
    1218:	380d      	subs	r0, #13
    121a:	4244      	negs	r4, r0
    121c:	4144      	adcs	r4, r0
    121e:	46a1      	mov	r9, r4
    1220:	2e00      	cmp	r6, #0
    1222:	d006      	beq.n	1232 <USBHAL::endpointReadResult(unsigned char, unsigned char*, unsigned long*)+0x76>
    1224:	4831      	ldr	r0, [pc, #196]	; (12ec <USBHAL::endpointReadResult(unsigned char, unsigned char*, unsigned long*)+0x130>)
    1226:	4680      	mov	r8, r0
    1228:	e047      	b.n	12ba <USBHAL::endpointReadResult(unsigned char, unsigned char*, unsigned long*)+0xfe>
    122a:	2e00      	cmp	r6, #0
    122c:	d13b      	bne.n	12a6 <USBHAL::endpointReadResult(unsigned char, unsigned char*, unsigned long*)+0xea>
    122e:	2000      	movs	r0, #0
    1230:	4681      	mov	r9, r0
    1232:	482f      	ldr	r0, [pc, #188]	; (12f0 <USBHAL::endpointReadResult(unsigned char, unsigned char*, unsigned long*)+0x134>)
    1234:	4c2d      	ldr	r4, [pc, #180]	; (12ec <USBHAL::endpointReadResult(unsigned char, unsigned char*, unsigned long*)+0x130>)
    1236:	6806      	ldr	r6, [r0, #0]
    1238:	46a0      	mov	r8, r4
    123a:	2000      	movs	r0, #0
    123c:	2d00      	cmp	r5, #0
    123e:	d004      	beq.n	124a <USBHAL::endpointReadResult(unsigned char, unsigned char*, unsigned long*)+0x8e>
    1240:	5c34      	ldrb	r4, [r6, r0]
    1242:	5414      	strb	r4, [r2, r0]
    1244:	3001      	adds	r0, #1
    1246:	4285      	cmp	r5, r0
    1248:	d8fa      	bhi.n	1240 <USBHAL::endpointReadResult(unsigned char, unsigned char*, unsigned long*)+0x84>
    124a:	4e2a      	ldr	r6, [pc, #168]	; (12f4 <USBHAL::endpointReadResult(unsigned char, unsigned char*, unsigned long*)+0x138>)
    124c:	2401      	movs	r4, #1
    124e:	6830      	ldr	r0, [r6, #0]
    1250:	46b2      	mov	r10, r6
    1252:	4666      	mov	r6, r12
    1254:	00f6      	lsls	r6, r6, #3
    1256:	9601      	str	r6, [sp, #4]
    1258:	5dbe      	ldrb	r6, [r7, r6]
    125a:	4683      	mov	r11, r0
    125c:	11b6      	asrs	r6, r6, #6
    125e:	40c8      	lsrs	r0, r1
    1260:	4046      	eors	r6, r0
    1262:	4234      	tst	r4, r6
    1264:	d132      	bne.n	12cc <USBHAL::endpointReadResult(unsigned char, unsigned char*, unsigned long*)+0x110>
    1266:	464e      	mov	r6, r9
    1268:	2e00      	cmp	r6, #0
    126a:	d032      	beq.n	12d2 <USBHAL::endpointReadResult(unsigned char, unsigned char*, unsigned long*)+0x116>
    126c:	7992      	ldrb	r2, [r2, #6]
    126e:	2a00      	cmp	r2, #0
    1270:	d12f      	bne.n	12d2 <USBHAL::endpointReadResult(unsigned char, unsigned char*, unsigned long*)+0x116>
    1272:	4658      	mov	r0, r11
    1274:	2201      	movs	r2, #1
    1276:	4390      	bics	r0, r2
    1278:	4654      	mov	r4, r10
    127a:	2601      	movs	r6, #1
    127c:	6020      	str	r0, [r4, #0]
    127e:	408e      	lsls	r6, r1
    1280:	40c8      	lsrs	r0, r1
    1282:	07c4      	lsls	r4, r0, #31
    1284:	d51e      	bpl.n	12c4 <USBHAL::endpointReadResult(unsigned char, unsigned char*, unsigned long*)+0x108>
    1286:	9801      	ldr	r0, [sp, #4]
    1288:	22c8      	movs	r2, #200	; 0xc8
    128a:	543a      	strb	r2, [r7, r0]
    128c:	4916      	ldr	r1, [pc, #88]	; (12e8 <USBHAL::endpointReadResult(unsigned char, unsigned char*, unsigned long*)+0x12c>)
    128e:	2294      	movs	r2, #148	; 0x94
    1290:	5c88      	ldrb	r0, [r1, r2]
    1292:	2420      	movs	r4, #32
    1294:	43a0      	bics	r0, r4
    1296:	5488      	strb	r0, [r1, r2]
    1298:	4642      	mov	r2, r8
    129a:	601d      	str	r5, [r3, #0]
    129c:	6813      	ldr	r3, [r2, #0]
    129e:	2000      	movs	r0, #0
    12a0:	43b3      	bics	r3, r6
    12a2:	6013      	str	r3, [r2, #0]
    12a4:	e794      	b.n	11d0 <USBHAL::endpointReadResult(unsigned char, unsigned char*, unsigned long*)+0x14>
    12a6:	4811      	ldr	r0, [pc, #68]	; (12ec <USBHAL::endpointReadResult(unsigned char, unsigned char*, unsigned long*)+0x130>)
    12a8:	6806      	ldr	r6, [r0, #0]
    12aa:	4680      	mov	r8, r0
    12ac:	410e      	asrs	r6, r1
    12ae:	2001      	movs	r0, #1
    12b0:	4234      	tst	r4, r6
    12b2:	d100      	bne.n	12b6 <USBHAL::endpointReadResult(unsigned char, unsigned char*, unsigned long*)+0xfa>
    12b4:	e78c      	b.n	11d0 <USBHAL::endpointReadResult(unsigned char, unsigned char*, unsigned long*)+0x14>
    12b6:	2400      	movs	r4, #0
    12b8:	46a1      	mov	r9, r4
    12ba:	4666      	mov	r6, r12
    12bc:	480e      	ldr	r0, [pc, #56]	; (12f8 <USBHAL::endpointReadResult(unsigned char, unsigned char*, unsigned long*)+0x13c>)
    12be:	00b4      	lsls	r4, r6, #2
    12c0:	5826      	ldr	r6, [r4, r0]
    12c2:	e7ba      	b.n	123a <USBHAL::endpointReadResult(unsigned char, unsigned char*, unsigned long*)+0x7e>
    12c4:	9901      	ldr	r1, [sp, #4]
    12c6:	2288      	movs	r2, #136	; 0x88
    12c8:	547a      	strb	r2, [r7, r1]
    12ca:	e7df      	b.n	128c <USBHAL::endpointReadResult(unsigned char, unsigned char*, unsigned long*)+0xd0>
    12cc:	2601      	movs	r6, #1
    12ce:	408e      	lsls	r6, r1
    12d0:	e7d7      	b.n	1282 <USBHAL::endpointReadResult(unsigned char, unsigned char*, unsigned long*)+0xc6>
    12d2:	2601      	movs	r6, #1
    12d4:	408e      	lsls	r6, r1
    12d6:	4658      	mov	r0, r11
    12d8:	4070      	eors	r0, r6
    12da:	4652      	mov	r2, r10
    12dc:	6010      	str	r0, [r2, #0]
    12de:	40c8      	lsrs	r0, r1
    12e0:	e7cf      	b.n	1282 <USBHAL::endpointReadResult(unsigned char, unsigned char*, unsigned long*)+0xc6>
    12e2:	46c0      	nop			; (mov r8, r8)
    12e4:	1ffff600 	.word	0x1ffff600
    12e8:	40072000 	.word	0x40072000
    12ec:	1ffff904 	.word	0x1ffff904
    12f0:	1ffff8f4 	.word	0x1ffff8f4
    12f4:	1ffff130 	.word	0x1ffff130
    12f8:	1ffff804 	.word	0x1ffff804

000012fc <USBHAL::EP0setup(unsigned char*)>:
    12fc:	b500      	push	{lr}
    12fe:	b083      	sub	sp, #12
    1300:	1c0a      	adds	r2, r1, #0
    1302:	ab01      	add	r3, sp, #4
    1304:	2100      	movs	r1, #0
    1306:	f7ff ff59 	bl	11bc <USBHAL::endpointReadResult(unsigned char, unsigned char*, unsigned long*)>
    130a:	b003      	add	sp, #12
    130c:	bd00      	pop	{pc}
    130e:	46c0      	nop			; (mov r8, r8)

00001310 <USBHAL::EP0getReadResult(unsigned char*)>:
    1310:	b500      	push	{lr}
    1312:	b083      	sub	sp, #12
    1314:	1c0a      	adds	r2, r1, #0
    1316:	ab01      	add	r3, sp, #4
    1318:	2100      	movs	r1, #0
    131a:	f7ff ff4f 	bl	11bc <USBHAL::endpointReadResult(unsigned char, unsigned char*, unsigned long*)>
    131e:	9801      	ldr	r0, [sp, #4]
    1320:	b003      	add	sp, #12
    1322:	bd00      	pop	{pc}

00001324 <USBHAL::endpointWrite(unsigned char, unsigned char*, unsigned long)>:
    1324:	b5f0      	push	{r4, r5, r6, r7, lr}
    1326:	4647      	mov	r7, r8
    1328:	b480      	push	{r7}
    132a:	2002      	movs	r0, #2
    132c:	291f      	cmp	r1, #31
    132e:	d902      	bls.n	1336 <USBHAL::endpointWrite(unsigned char, unsigned char*, unsigned long)+0x12>
    1330:	bc04      	pop	{r2}
    1332:	4690      	mov	r8, r2
    1334:	bdf0      	pop	{r4, r5, r6, r7, pc}
    1336:	2401      	movs	r4, #1
    1338:	420c      	tst	r4, r1
    133a:	d0f9      	beq.n	1330 <USBHAL::endpointWrite(unsigned char, unsigned char*, unsigned long)+0xc>
    133c:	1048      	asrs	r0, r1, #1
    133e:	0085      	lsls	r5, r0, #2
    1340:	3502      	adds	r5, #2
    1342:	4f16      	ldr	r7, [pc, #88]	; (139c <USBHAL::endpointWrite(unsigned char, unsigned char*, unsigned long)+0x78>)
    1344:	3030      	adds	r0, #48	; 0x30
    1346:	0080      	lsls	r0, r0, #2
    1348:	00ee      	lsls	r6, r5, #3
    134a:	4684      	mov	r12, r0
    134c:	46a8      	mov	r8, r5
    134e:	4814      	ldr	r0, [pc, #80]	; (13a0 <USBHAL::endpointWrite(unsigned char, unsigned char*, unsigned long)+0x7c>)
    1350:	19bd      	adds	r5, r7, r6
    1352:	806b      	strh	r3, [r5, #2]
    1354:	4665      	mov	r5, r12
    1356:	5c28      	ldrb	r0, [r5, r0]
    1358:	4204      	tst	r4, r0
    135a:	d019      	beq.n	1390 <USBHAL::endpointWrite(unsigned char, unsigned char*, unsigned long)+0x6c>
    135c:	4640      	mov	r0, r8
    135e:	0085      	lsls	r5, r0, #2
    1360:	4810      	ldr	r0, [pc, #64]	; (13a4 <USBHAL::endpointWrite(unsigned char, unsigned char*, unsigned long)+0x80>)
    1362:	582d      	ldr	r5, [r5, r0]
    1364:	2000      	movs	r0, #0
    1366:	2b00      	cmp	r3, #0
    1368:	d004      	beq.n	1374 <USBHAL::endpointWrite(unsigned char, unsigned char*, unsigned long)+0x50>
    136a:	5c14      	ldrb	r4, [r2, r0]
    136c:	542c      	strb	r4, [r5, r0]
    136e:	3001      	adds	r0, #1
    1370:	4298      	cmp	r0, r3
    1372:	d1fa      	bne.n	136a <USBHAL::endpointWrite(unsigned char, unsigned char*, unsigned long)+0x46>
    1374:	4b0c      	ldr	r3, [pc, #48]	; (13a8 <USBHAL::endpointWrite(unsigned char, unsigned char*, unsigned long)+0x84>)
    1376:	681a      	ldr	r2, [r3, #0]
    1378:	1c10      	adds	r0, r2, #0
    137a:	40c8      	lsrs	r0, r1
    137c:	07c4      	lsls	r4, r0, #31
    137e:	d50a      	bpl.n	1396 <USBHAL::endpointWrite(unsigned char, unsigned char*, unsigned long)+0x72>
    1380:	2088      	movs	r0, #136	; 0x88
    1382:	55b8      	strb	r0, [r7, r6]
    1384:	2001      	movs	r0, #1
    1386:	4088      	lsls	r0, r1
    1388:	4042      	eors	r2, r0
    138a:	601a      	str	r2, [r3, #0]
    138c:	2001      	movs	r0, #1
    138e:	e7cf      	b.n	1330 <USBHAL::endpointWrite(unsigned char, unsigned char*, unsigned long)+0xc>
    1390:	4806      	ldr	r0, [pc, #24]	; (13ac <USBHAL::endpointWrite(unsigned char, unsigned char*, unsigned long)+0x88>)
    1392:	6885      	ldr	r5, [r0, #8]
    1394:	e7e6      	b.n	1364 <USBHAL::endpointWrite(unsigned char, unsigned char*, unsigned long)+0x40>
    1396:	20c8      	movs	r0, #200	; 0xc8
    1398:	55b8      	strb	r0, [r7, r6]
    139a:	e7f3      	b.n	1384 <USBHAL::endpointWrite(unsigned char, unsigned char*, unsigned long)+0x60>
    139c:	1ffff600 	.word	0x1ffff600
    13a0:	40072000 	.word	0x40072000
    13a4:	1ffff804 	.word	0x1ffff804
    13a8:	1ffff130 	.word	0x1ffff130
    13ac:	1ffff8f4 	.word	0x1ffff8f4

000013b0 <USBHAL::EP0write(unsigned char*, unsigned long)>:
    13b0:	b510      	push	{r4, lr}
    13b2:	1c0c      	adds	r4, r1, #0
    13b4:	1c13      	adds	r3, r2, #0
    13b6:	2101      	movs	r1, #1
    13b8:	1c22      	adds	r2, r4, #0
    13ba:	f7ff ffb3 	bl	1324 <USBHAL::endpointWrite(unsigned char, unsigned char*, unsigned long)>
    13be:	bd10      	pop	{r4, pc}

000013c0 <USBHAL::endpointWriteResult(unsigned char)>:
    13c0:	4b06      	ldr	r3, [pc, #24]	; (13dc <USBHAL::endpointWriteResult(unsigned char)+0x1c>)
    13c2:	b510      	push	{r4, lr}
    13c4:	681a      	ldr	r2, [r3, #0]
    13c6:	2001      	movs	r0, #1
    13c8:	410a      	asrs	r2, r1
    13ca:	07d4      	lsls	r4, r2, #31
    13cc:	d504      	bpl.n	13d8 <USBHAL::endpointWriteResult(unsigned char)+0x18>
    13ce:	681a      	ldr	r2, [r3, #0]
    13d0:	4088      	lsls	r0, r1
    13d2:	4382      	bics	r2, r0
    13d4:	601a      	str	r2, [r3, #0]
    13d6:	2000      	movs	r0, #0
    13d8:	bd10      	pop	{r4, pc}
    13da:	46c0      	nop			; (mov r8, r8)
    13dc:	1ffff904 	.word	0x1ffff904

000013e0 <USBHAL::stallEndpoint(unsigned char)>:
    13e0:	4b04      	ldr	r3, [pc, #16]	; (13f4 <USBHAL::stallEndpoint(unsigned char)+0x14>)
    13e2:	1049      	asrs	r1, r1, #1
    13e4:	0089      	lsls	r1, r1, #2
    13e6:	18c9      	adds	r1, r1, r3
    13e8:	23c0      	movs	r3, #192	; 0xc0
    13ea:	5cc8      	ldrb	r0, [r1, r3]
    13ec:	2202      	movs	r2, #2
    13ee:	4302      	orrs	r2, r0
    13f0:	54ca      	strb	r2, [r1, r3]
    13f2:	4770      	bx	lr
    13f4:	40072000 	.word	0x40072000

000013f8 <USBHAL::unstallEndpoint(unsigned char)>:
    13f8:	4b04      	ldr	r3, [pc, #16]	; (140c <USBHAL::unstallEndpoint(unsigned char)+0x14>)
    13fa:	1049      	asrs	r1, r1, #1
    13fc:	0089      	lsls	r1, r1, #2
    13fe:	18c9      	adds	r1, r1, r3
    1400:	23c0      	movs	r3, #192	; 0xc0
    1402:	5cca      	ldrb	r2, [r1, r3]
    1404:	2002      	movs	r0, #2
    1406:	4382      	bics	r2, r0
    1408:	54ca      	strb	r2, [r1, r3]
    140a:	4770      	bx	lr
    140c:	40072000 	.word	0x40072000

00001410 <USBHAL::getEndpointStallState(unsigned char)>:
    1410:	1049      	asrs	r1, r1, #1
    1412:	4b03      	ldr	r3, [pc, #12]	; (1420 <USBHAL::getEndpointStallState(unsigned char)+0x10>)
    1414:	3130      	adds	r1, #48	; 0x30
    1416:	0089      	lsls	r1, r1, #2
    1418:	5cc8      	ldrb	r0, [r1, r3]
    141a:	0780      	lsls	r0, r0, #30
    141c:	0fc0      	lsrs	r0, r0, #31
    141e:	4770      	bx	lr
    1420:	40072000 	.word	0x40072000

00001424 <USBHAL::usbisr()>:
    1424:	b5f8      	push	{r3, r4, r5, r6, r7, lr}
    1426:	464d      	mov	r5, r9
    1428:	4644      	mov	r4, r8
    142a:	465f      	mov	r7, r11
    142c:	4656      	mov	r6, r10
    142e:	b4f0      	push	{r4, r5, r6, r7}
    1430:	4a97      	ldr	r2, [pc, #604]	; (1690 <USBHAL::usbisr()+0x26c>)
    1432:	2380      	movs	r3, #128	; 0x80
    1434:	5cd4      	ldrb	r4, [r2, r3]
    1436:	1c05      	adds	r5, r0, #0
    1438:	b2e4      	uxtb	r4, r4
    143a:	07e0      	lsls	r0, r4, #31
    143c:	d52c      	bpl.n	1498 <USBHAL::usbisr()+0x74>
    143e:	2300      	movs	r3, #0
    1440:	1c10      	adds	r0, r2, #0
    1442:	2100      	movs	r1, #0
    1444:	1c1a      	adds	r2, r3, #0
    1446:	3230      	adds	r2, #48	; 0x30
    1448:	0092      	lsls	r2, r2, #2
    144a:	3301      	adds	r3, #1
    144c:	4c90      	ldr	r4, [pc, #576]	; (1690 <USBHAL::usbisr()+0x26c>)
    144e:	5411      	strb	r1, [r2, r0]
    1450:	2b10      	cmp	r3, #16
    1452:	d1f7      	bne.n	1444 <USBHAL::usbisr()+0x20>
    1454:	2140      	movs	r1, #64	; 0x40
    1456:	2200      	movs	r2, #0
    1458:	2000      	movs	r0, #0
    145a:	f7ff fcdd 	bl	e18 <USBHAL::realiseEndpoint(unsigned char, unsigned long, unsigned long) [clone .part.0]>
    145e:	2140      	movs	r1, #64	; 0x40
    1460:	2200      	movs	r2, #0
    1462:	2001      	movs	r0, #1
    1464:	f7ff fcd8 	bl	e18 <USBHAL::realiseEndpoint(unsigned char, unsigned long, unsigned long) [clone .part.0]>
    1468:	4a8a      	ldr	r2, [pc, #552]	; (1694 <USBHAL::usbisr()+0x270>)
    146a:	4b8b      	ldr	r3, [pc, #556]	; (1698 <USBHAL::usbisr()+0x274>)
    146c:	601a      	str	r2, [r3, #0]
    146e:	2394      	movs	r3, #148	; 0x94
    1470:	5ce1      	ldrb	r1, [r4, r3]
    1472:	2202      	movs	r2, #2
    1474:	430a      	orrs	r2, r1
    1476:	54e2      	strb	r2, [r4, r3]
    1478:	23ff      	movs	r3, #255	; 0xff
    147a:	2280      	movs	r2, #128	; 0x80
    147c:	54a3      	strb	r3, [r4, r2]
    147e:	2288      	movs	r2, #136	; 0x88
    1480:	54a3      	strb	r3, [r4, r2]
    1482:	228c      	movs	r2, #140	; 0x8c
    1484:	54a3      	strb	r3, [r4, r2]
    1486:	2398      	movs	r3, #152	; 0x98
    1488:	2200      	movs	r2, #0
    148a:	54e2      	strb	r2, [r4, r3]
    148c:	bc3c      	pop	{r2, r3, r4, r5}
    148e:	4690      	mov	r8, r2
    1490:	4699      	mov	r9, r3
    1492:	46a2      	mov	r10, r4
    1494:	46ab      	mov	r11, r5
    1496:	bdf8      	pop	{r3, r4, r5, r6, r7, pc}
    1498:	2120      	movs	r1, #32
    149a:	4221      	tst	r1, r4
    149c:	d000      	beq.n	14a0 <USBHAL::usbisr()+0x7c>
    149e:	54d1      	strb	r1, [r2, r3]
    14a0:	2304      	movs	r3, #4
    14a2:	4223      	tst	r3, r4
    14a4:	d13d      	bne.n	1522 <USBHAL::usbisr()+0xfe>
    14a6:	b263      	sxtb	r3, r4
    14a8:	2b00      	cmp	r3, #0
    14aa:	db4c      	blt.n	1546 <USBHAL::usbisr()+0x122>
    14ac:	0721      	lsls	r1, r4, #28
    14ae:	d522      	bpl.n	14f6 <USBHAL::usbisr()+0xd2>
    14b0:	4a77      	ldr	r2, [pc, #476]	; (1690 <USBHAL::usbisr()+0x26c>)
    14b2:	2390      	movs	r3, #144	; 0x90
    14b4:	5cd6      	ldrb	r6, [r2, r3]
    14b6:	5cd0      	ldrb	r0, [r2, r3]
    14b8:	5cd3      	ldrb	r3, [r2, r3]
    14ba:	2101      	movs	r1, #1
    14bc:	08c0      	lsrs	r0, r0, #3
    14be:	089b      	lsrs	r3, r3, #2
    14c0:	4008      	ands	r0, r1
    14c2:	0936      	lsrs	r6, r6, #4
    14c4:	4019      	ands	r1, r3
    14c6:	2e00      	cmp	r6, #0
    14c8:	d04f      	beq.n	156a <USBHAL::usbisr()+0x146>
    14ca:	0073      	lsls	r3, r6, #1
    14cc:	18c0      	adds	r0, r0, r3
    14ce:	0040      	lsls	r0, r0, #1
    14d0:	1841      	adds	r1, r0, r1
    14d2:	4a72      	ldr	r2, [pc, #456]	; (169c <USBHAL::usbisr()+0x278>)
    14d4:	00c9      	lsls	r1, r1, #3
    14d6:	468a      	mov	r10, r1
    14d8:	1c10      	adds	r0, r2, #0
    14da:	4450      	add	r0, r10
    14dc:	7803      	ldrb	r3, [r0, #0]
    14de:	4693      	mov	r11, r2
    14e0:	069b      	lsls	r3, r3, #26
    14e2:	0f1b      	lsrs	r3, r3, #28
    14e4:	2b01      	cmp	r3, #1
    14e6:	d069      	beq.n	15bc <USBHAL::usbisr()+0x198>
    14e8:	2b09      	cmp	r3, #9
    14ea:	d100      	bne.n	14ee <USBHAL::usbisr()+0xca>
    14ec:	e0cb      	b.n	1686 <USBHAL::usbisr()+0x262>
    14ee:	4a68      	ldr	r2, [pc, #416]	; (1690 <USBHAL::usbisr()+0x26c>)
    14f0:	2108      	movs	r1, #8
    14f2:	2380      	movs	r3, #128	; 0x80
    14f4:	54d1      	strb	r1, [r2, r3]
    14f6:	06e3      	lsls	r3, r4, #27
    14f8:	d506      	bpl.n	1508 <USBHAL::usbisr()+0xe4>
    14fa:	4a65      	ldr	r2, [pc, #404]	; (1690 <USBHAL::usbisr()+0x26c>)
    14fc:	2380      	movs	r3, #128	; 0x80
    14fe:	5cd0      	ldrb	r0, [r2, r3]
    1500:	2110      	movs	r1, #16
    1502:	4301      	orrs	r1, r0
    1504:	b2c9      	uxtb	r1, r1
    1506:	54d1      	strb	r1, [r2, r3]
    1508:	07a0      	lsls	r0, r4, #30
    150a:	d5bf      	bpl.n	148c <USBHAL::usbisr()+0x68>
    150c:	4b60      	ldr	r3, [pc, #384]	; (1690 <USBHAL::usbisr()+0x26c>)
    150e:	21ff      	movs	r1, #255	; 0xff
    1510:	2288      	movs	r2, #136	; 0x88
    1512:	5499      	strb	r1, [r3, r2]
    1514:	2280      	movs	r2, #128	; 0x80
    1516:	5c98      	ldrb	r0, [r3, r2]
    1518:	2102      	movs	r1, #2
    151a:	4301      	orrs	r1, r0
    151c:	b2c9      	uxtb	r1, r1
    151e:	5499      	strb	r1, [r3, r2]
    1520:	e7b4      	b.n	148c <USBHAL::usbisr()+0x68>
    1522:	4a5b      	ldr	r2, [pc, #364]	; (1690 <USBHAL::usbisr()+0x26c>)
    1524:	2180      	movs	r1, #128	; 0x80
    1526:	5453      	strb	r3, [r2, r1]
    1528:	23a0      	movs	r3, #160	; 0xa0
    152a:	5cd0      	ldrb	r0, [r2, r3]
    152c:	23a4      	movs	r3, #164	; 0xa4
    152e:	5cd1      	ldrb	r1, [r2, r3]
    1530:	682b      	ldr	r3, [r5, #0]
    1532:	0209      	lsls	r1, r1, #8
    1534:	4301      	orrs	r1, r0
    1536:	0549      	lsls	r1, r1, #21
    1538:	699b      	ldr	r3, [r3, #24]
    153a:	0d49      	lsrs	r1, r1, #21
    153c:	1c28      	adds	r0, r5, #0
    153e:	4798      	blx	r3
    1540:	b263      	sxtb	r3, r4
    1542:	2b00      	cmp	r3, #0
    1544:	dab2      	bge.n	14ac <USBHAL::usbisr()+0x88>
    1546:	4a52      	ldr	r2, [pc, #328]	; (1690 <USBHAL::usbisr()+0x26c>)
    1548:	23c0      	movs	r3, #192	; 0xc0
    154a:	5cd0      	ldrb	r0, [r2, r3]
    154c:	2102      	movs	r1, #2
    154e:	4201      	tst	r1, r0
    1550:	d002      	beq.n	1558 <USBHAL::usbisr()+0x134>
    1552:	5cd0      	ldrb	r0, [r2, r3]
    1554:	4388      	bics	r0, r1
    1556:	54d0      	strb	r0, [r2, r3]
    1558:	4a4d      	ldr	r2, [pc, #308]	; (1690 <USBHAL::usbisr()+0x26c>)
    155a:	2380      	movs	r3, #128	; 0x80
    155c:	5cd0      	ldrb	r0, [r2, r3]
    155e:	2180      	movs	r1, #128	; 0x80
    1560:	4301      	orrs	r1, r0
    1562:	54d1      	strb	r1, [r2, r3]
    1564:	0721      	lsls	r1, r4, #28
    1566:	d5c6      	bpl.n	14f6 <USBHAL::usbisr()+0xd2>
    1568:	e7a2      	b.n	14b0 <USBHAL::usbisr()+0x8c>
    156a:	0040      	lsls	r0, r0, #1
    156c:	1841      	adds	r1, r0, r1
    156e:	4e4b      	ldr	r6, [pc, #300]	; (169c <USBHAL::usbisr()+0x278>)
    1570:	00cf      	lsls	r7, r1, #3
    1572:	5dbb      	ldrb	r3, [r7, r6]
    1574:	220f      	movs	r2, #15
    1576:	109b      	asrs	r3, r3, #2
    1578:	4690      	mov	r8, r2
    157a:	4013      	ands	r3, r2
    157c:	2b0d      	cmp	r3, #13
    157e:	d071      	beq.n	1664 <USBHAL::usbisr()+0x240>
    1580:	2b01      	cmp	r3, #1
    1582:	d107      	bne.n	1594 <USBHAL::usbisr()+0x170>
    1584:	682b      	ldr	r3, [r5, #0]
    1586:	1c28      	adds	r0, r5, #0
    1588:	689b      	ldr	r3, [r3, #8]
    158a:	4798      	blx	r3
    158c:	5dbb      	ldrb	r3, [r7, r6]
    158e:	4642      	mov	r2, r8
    1590:	109b      	asrs	r3, r3, #2
    1592:	4013      	ands	r3, r2
    1594:	2b09      	cmp	r3, #9
    1596:	d1aa      	bne.n	14ee <USBHAL::usbisr()+0xca>
    1598:	682b      	ldr	r3, [r5, #0]
    159a:	1c28      	adds	r0, r5, #0
    159c:	68db      	ldr	r3, [r3, #12]
    159e:	4798      	blx	r3
    15a0:	4b3f      	ldr	r3, [pc, #252]	; (16a0 <USBHAL::usbisr()+0x27c>)
    15a2:	781a      	ldrb	r2, [r3, #0]
    15a4:	2a01      	cmp	r2, #1
    15a6:	d1a2      	bne.n	14ee <USBHAL::usbisr()+0xca>
    15a8:	4a3e      	ldr	r2, [pc, #248]	; (16a4 <USBHAL::usbisr()+0x280>)
    15aa:	207f      	movs	r0, #127	; 0x7f
    15ac:	7812      	ldrb	r2, [r2, #0]
    15ae:	4938      	ldr	r1, [pc, #224]	; (1690 <USBHAL::usbisr()+0x26c>)
    15b0:	4010      	ands	r0, r2
    15b2:	2298      	movs	r2, #152	; 0x98
    15b4:	5488      	strb	r0, [r1, r2]
    15b6:	2200      	movs	r2, #0
    15b8:	701a      	strb	r2, [r3, #0]
    15ba:	e798      	b.n	14ee <USBHAL::usbisr()+0xca>
    15bc:	4f3a      	ldr	r7, [pc, #232]	; (16a8 <USBHAL::usbisr()+0x284>)
    15be:	1c1a      	adds	r2, r3, #0
    15c0:	40b2      	lsls	r2, r6
    15c2:	1c18      	adds	r0, r3, #0
    15c4:	4090      	lsls	r0, r2
    15c6:	6839      	ldr	r1, [r7, #0]
    15c8:	3a02      	subs	r2, #2
    15ca:	00d2      	lsls	r2, r2, #3
    15cc:	4301      	orrs	r1, r0
    15ce:	18aa      	adds	r2, r5, r2
    15d0:	6039      	str	r1, [r7, #0]
    15d2:	6891      	ldr	r1, [r2, #8]
    15d4:	4681      	mov	r9, r0
    15d6:	420b      	tst	r3, r1
    15d8:	d133      	bne.n	1642 <USBHAL::usbisr()+0x21e>
    15da:	6853      	ldr	r3, [r2, #4]
    15dc:	4a33      	ldr	r2, [pc, #204]	; (16ac <USBHAL::usbisr()+0x288>)
    15de:	1049      	asrs	r1, r1, #1
    15e0:	4690      	mov	r8, r2
    15e2:	6812      	ldr	r2, [r2, #0]
    15e4:	1850      	adds	r0, r2, r1
    15e6:	4798      	blx	r3
    15e8:	2800      	cmp	r0, #0
    15ea:	d003      	beq.n	15f4 <USBHAL::usbisr()+0x1d0>
    15ec:	683b      	ldr	r3, [r7, #0]
    15ee:	464a      	mov	r2, r9
    15f0:	4393      	bics	r3, r2
    15f2:	603b      	str	r3, [r7, #0]
    15f4:	4659      	mov	r1, r11
    15f6:	4451      	add	r1, r10
    15f8:	780b      	ldrb	r3, [r1, #0]
    15fa:	069b      	lsls	r3, r3, #26
    15fc:	0f1b      	lsrs	r3, r3, #28
    15fe:	2b09      	cmp	r3, #9
    1600:	d000      	beq.n	1604 <USBHAL::usbisr()+0x1e0>
    1602:	e774      	b.n	14ee <USBHAL::usbisr()+0xca>
    1604:	2301      	movs	r3, #1
    1606:	1c18      	adds	r0, r3, #0
    1608:	40b0      	lsls	r0, r6
    160a:	1c42      	adds	r2, r0, #1
    160c:	1c06      	adds	r6, r0, #0
    160e:	1c19      	adds	r1, r3, #0
    1610:	4091      	lsls	r1, r2
    1612:	3e01      	subs	r6, #1
    1614:	683a      	ldr	r2, [r7, #0]
    1616:	00f6      	lsls	r6, r6, #3
    1618:	430a      	orrs	r2, r1
    161a:	19ad      	adds	r5, r5, r6
    161c:	603a      	str	r2, [r7, #0]
    161e:	68aa      	ldr	r2, [r5, #8]
    1620:	4689      	mov	r9, r1
    1622:	4213      	tst	r3, r2
    1624:	d116      	bne.n	1654 <USBHAL::usbisr()+0x230>
    1626:	4641      	mov	r1, r8
    1628:	6808      	ldr	r0, [r1, #0]
    162a:	1052      	asrs	r2, r2, #1
    162c:	686b      	ldr	r3, [r5, #4]
    162e:	1880      	adds	r0, r0, r2
    1630:	4798      	blx	r3
    1632:	2800      	cmp	r0, #0
    1634:	d100      	bne.n	1638 <USBHAL::usbisr()+0x214>
    1636:	e75a      	b.n	14ee <USBHAL::usbisr()+0xca>
    1638:	683b      	ldr	r3, [r7, #0]
    163a:	464a      	mov	r2, r9
    163c:	4393      	bics	r3, r2
    163e:	603b      	str	r3, [r7, #0]
    1640:	e755      	b.n	14ee <USBHAL::usbisr()+0xca>
    1642:	4b1a      	ldr	r3, [pc, #104]	; (16ac <USBHAL::usbisr()+0x288>)
    1644:	1049      	asrs	r1, r1, #1
    1646:	4698      	mov	r8, r3
    1648:	681b      	ldr	r3, [r3, #0]
    164a:	1858      	adds	r0, r3, r1
    164c:	6801      	ldr	r1, [r0, #0]
    164e:	6853      	ldr	r3, [r2, #4]
    1650:	58cb      	ldr	r3, [r1, r3]
    1652:	e7c8      	b.n	15e6 <USBHAL::usbisr()+0x1c2>
    1654:	4643      	mov	r3, r8
    1656:	6818      	ldr	r0, [r3, #0]
    1658:	1052      	asrs	r2, r2, #1
    165a:	1880      	adds	r0, r0, r2
    165c:	686b      	ldr	r3, [r5, #4]
    165e:	6801      	ldr	r1, [r0, #0]
    1660:	58cb      	ldr	r3, [r1, r3]
    1662:	e7e5      	b.n	1630 <USBHAL::usbisr()+0x20c>
    1664:	4b0c      	ldr	r3, [pc, #48]	; (1698 <USBHAL::usbisr()+0x274>)
    1666:	2202      	movs	r2, #2
    1668:	6819      	ldr	r1, [r3, #0]
    166a:	1c28      	adds	r0, r5, #0
    166c:	4391      	bics	r1, r2
    166e:	6019      	str	r1, [r3, #0]
    1670:	7e32      	ldrb	r2, [r6, #24]
    1672:	237f      	movs	r3, #127	; 0x7f
    1674:	401a      	ands	r2, r3
    1676:	7632      	strb	r2, [r6, #24]
    1678:	7c32      	ldrb	r2, [r6, #16]
    167a:	4013      	ands	r3, r2
    167c:	7433      	strb	r3, [r6, #16]
    167e:	682b      	ldr	r3, [r5, #0]
    1680:	685b      	ldr	r3, [r3, #4]
    1682:	4798      	blx	r3
    1684:	e733      	b.n	14ee <USBHAL::usbisr()+0xca>
    1686:	4a09      	ldr	r2, [pc, #36]	; (16ac <USBHAL::usbisr()+0x288>)
    1688:	4f07      	ldr	r7, [pc, #28]	; (16a8 <USBHAL::usbisr()+0x284>)
    168a:	4690      	mov	r8, r2
    168c:	e7ba      	b.n	1604 <USBHAL::usbisr()+0x1e0>
    168e:	46c0      	nop			; (mov r8, r8)
    1690:	40072000 	.word	0x40072000
    1694:	55555555 	.word	0x55555555
    1698:	1ffff130 	.word	0x1ffff130
    169c:	1ffff600 	.word	0x1ffff600
    16a0:	1ffff908 	.word	0x1ffff908
    16a4:	1ffff800 	.word	0x1ffff800
    16a8:	1ffff904 	.word	0x1ffff904
    16ac:	1ffff58c 	.word	0x1ffff58c

000016b0 <USBHAL::_usbisr()>:
    16b0:	b508      	push	{r3, lr}
    16b2:	4b02      	ldr	r3, [pc, #8]	; (16bc <USBHAL::_usbisr()+0xc>)
    16b4:	6818      	ldr	r0, [r3, #0]
    16b6:	f7ff feb5 	bl	1424 <USBHAL::usbisr()>
    16ba:	bd08      	pop	{r3, pc}
    16bc:	1ffff58c 	.word	0x1ffff58c

000016c0 <USBHID::HID_callbackSetReport(HID_REPORT*)>:
    16c0:	4770      	bx	lr
    16c2:	46c0      	nop			; (mov r8, r8)

000016c4 <USBHID::reportDescLength()>:
    16c4:	b510      	push	{r4, lr}
    16c6:	6802      	ldr	r2, [r0, #0]
    16c8:	23cc      	movs	r3, #204	; 0xcc
    16ca:	58d3      	ldr	r3, [r2, r3]
    16cc:	1c04      	adds	r4, r0, #0
    16ce:	4798      	blx	r3
    16d0:	238e      	movs	r3, #142	; 0x8e
    16d2:	005b      	lsls	r3, r3, #1
    16d4:	5ae0      	ldrh	r0, [r4, r3]
    16d6:	bd10      	pop	{r4, pc}

000016d8 <USBHID::stringIinterfaceDesc()>:
    16d8:	4800      	ldr	r0, [pc, #0]	; (16dc <USBHID::stringIinterfaceDesc()+0x4>)
    16da:	4770      	bx	lr
    16dc:	1ffff194 	.word	0x1ffff194

000016e0 <USBHID::stringIproductDesc()>:
    16e0:	4800      	ldr	r0, [pc, #0]	; (16e4 <USBHID::stringIproductDesc()+0x4>)
    16e2:	4770      	bx	lr
    16e4:	1ffff17c 	.word	0x1ffff17c

000016e8 <USBHID::USBCallback_request()>:
    16e8:	b5f8      	push	{r3, r4, r5, r6, r7, lr}
    16ea:	1c05      	adds	r5, r0, #0
    16ec:	f7ff faf4 	bl	cd8 <USBDevice::getTransferPtr()>
    16f0:	7843      	ldrb	r3, [r0, #1]
    16f2:	1c04      	adds	r4, r0, #0
    16f4:	2b00      	cmp	r3, #0
    16f6:	d120      	bne.n	173a <USBHID::USBCallback_request()+0x52>
    16f8:	78c3      	ldrb	r3, [r0, #3]
    16fa:	2b06      	cmp	r3, #6
    16fc:	d136      	bne.n	176c <USBHID::USBCallback_request()+0x84>
    16fe:	8883      	ldrh	r3, [r0, #4]
    1700:	121b      	asrs	r3, r3, #8
    1702:	2b21      	cmp	r3, #33	; 0x21
    1704:	d034      	beq.n	1770 <USBHID::USBCallback_request()+0x88>
    1706:	2b22      	cmp	r3, #34	; 0x22
    1708:	d130      	bne.n	176c <USBHID::USBCallback_request()+0x84>
    170a:	682a      	ldr	r2, [r5, #0]
    170c:	26cc      	movs	r6, #204	; 0xcc
    170e:	5993      	ldr	r3, [r2, r6]
    1710:	1c28      	adds	r0, r5, #0
    1712:	4798      	blx	r3
    1714:	2800      	cmp	r0, #0
    1716:	d039      	beq.n	178c <USBHID::USBCallback_request()+0xa4>
    1718:	682a      	ldr	r2, [r5, #0]
    171a:	27c8      	movs	r7, #200	; 0xc8
    171c:	59d3      	ldr	r3, [r2, r7]
    171e:	1c28      	adds	r0, r5, #0
    1720:	4798      	blx	r3
    1722:	2800      	cmp	r0, #0
    1724:	d032      	beq.n	178c <USBHID::USBCallback_request()+0xa4>
    1726:	682a      	ldr	r2, [r5, #0]
    1728:	1c28      	adds	r0, r5, #0
    172a:	59d3      	ldr	r3, [r2, r7]
    172c:	4798      	blx	r3
    172e:	682a      	ldr	r2, [r5, #0]
    1730:	6120      	str	r0, [r4, #16]
    1732:	5993      	ldr	r3, [r2, r6]
    1734:	1c28      	adds	r0, r5, #0
    1736:	4798      	blx	r3
    1738:	e022      	b.n	1780 <USBHID::USBCallback_request()+0x98>
    173a:	2000      	movs	r0, #0
    173c:	2b01      	cmp	r3, #1
    173e:	d114      	bne.n	176a <USBHID::USBCallback_request()+0x82>
    1740:	78e2      	ldrb	r2, [r4, #3]
    1742:	2a09      	cmp	r2, #9
    1744:	d111      	bne.n	176a <USBHID::USBCallback_request()+0x82>
    1746:	88a1      	ldrh	r1, [r4, #4]
    1748:	2292      	movs	r2, #146	; 0x92
    174a:	0052      	lsls	r2, r2, #1
    174c:	54a9      	strb	r1, [r5, r2]
    174e:	8921      	ldrh	r1, [r4, #8]
    1750:	2290      	movs	r2, #144	; 0x90
    1752:	0052      	lsls	r2, r2, #1
    1754:	3101      	adds	r1, #1
    1756:	50a9      	str	r1, [r5, r2]
    1758:	223f      	movs	r2, #63	; 0x3f
    175a:	3526      	adds	r5, #38	; 0x26
    175c:	6122      	str	r2, [r4, #16]
    175e:	35ff      	adds	r5, #255	; 0xff
    1760:	2200      	movs	r2, #0
    1762:	60e5      	str	r5, [r4, #12]
    1764:	7522      	strb	r2, [r4, #20]
    1766:	75a3      	strb	r3, [r4, #22]
    1768:	2001      	movs	r0, #1
    176a:	bdf8      	pop	{r3, r4, r5, r6, r7, pc}
    176c:	2000      	movs	r0, #0
    176e:	e7fc      	b.n	176a <USBHID::USBCallback_request()+0x82>
    1770:	1c28      	adds	r0, r5, #0
    1772:	2121      	movs	r1, #33	; 0x21
    1774:	f7ff fab8 	bl	ce8 <USBDevice::findDescriptor(unsigned char)>
    1778:	2800      	cmp	r0, #0
    177a:	d00a      	beq.n	1792 <USBHID::USBCallback_request()+0xaa>
    177c:	2309      	movs	r3, #9
    177e:	6123      	str	r3, [r4, #16]
    1780:	2301      	movs	r3, #1
    1782:	60e0      	str	r0, [r4, #12]
    1784:	7523      	strb	r3, [r4, #20]
    1786:	2001      	movs	r0, #1
    1788:	7863      	ldrb	r3, [r4, #1]
    178a:	e7d7      	b.n	173c <USBHID::USBCallback_request()+0x54>
    178c:	7863      	ldrb	r3, [r4, #1]
    178e:	2000      	movs	r0, #0
    1790:	e7d4      	b.n	173c <USBHID::USBCallback_request()+0x54>
    1792:	7863      	ldrb	r3, [r4, #1]
    1794:	e7d2      	b.n	173c <USBHID::USBCallback_request()+0x54>
    1796:	46c0      	nop			; (mov r8, r8)

00001798 <USBHID::reportDesc()>:
    1798:	b570      	push	{r4, r5, r6, lr}
    179a:	4c0f      	ldr	r4, [pc, #60]	; (17d8 <USBHID::reportDesc()+0x40>)
    179c:	1c05      	adds	r5, r0, #0
    179e:	6823      	ldr	r3, [r4, #0]
    17a0:	07db      	lsls	r3, r3, #31
    17a2:	d506      	bpl.n	17b2 <USBHID::reportDesc()+0x1a>
    17a4:	4e0d      	ldr	r6, [pc, #52]	; (17dc <USBHID::reportDesc()+0x44>)
    17a6:	238e      	movs	r3, #142	; 0x8e
    17a8:	221c      	movs	r2, #28
    17aa:	005b      	lsls	r3, r3, #1
    17ac:	1c30      	adds	r0, r6, #0
    17ae:	52ea      	strh	r2, [r5, r3]
    17b0:	bd70      	pop	{r4, r5, r6, pc}
    17b2:	1c20      	adds	r0, r4, #0
    17b4:	f000 ffbf 	bl	2736 <__cxa_guard_acquire>
    17b8:	4e08      	ldr	r6, [pc, #32]	; (17dc <USBHID::reportDesc()+0x44>)
    17ba:	2800      	cmp	r0, #0
    17bc:	d0f3      	beq.n	17a6 <USBHID::reportDesc()+0xe>
    17be:	2366      	movs	r3, #102	; 0x66
    17c0:	33ff      	adds	r3, #255	; 0xff
    17c2:	5ceb      	ldrb	r3, [r5, r3]
    17c4:	1c20      	adds	r0, r4, #0
    17c6:	7433      	strb	r3, [r6, #16]
    17c8:	23b2      	movs	r3, #178	; 0xb2
    17ca:	005b      	lsls	r3, r3, #1
    17cc:	5ceb      	ldrb	r3, [r5, r3]
    17ce:	75b3      	strb	r3, [r6, #22]
    17d0:	f000 ffc0 	bl	2754 <__cxa_guard_release>
    17d4:	e7e7      	b.n	17a6 <USBHID::reportDesc()+0xe>
    17d6:	46c0      	nop			; (mov r8, r8)
    17d8:	1ffff910 	.word	0x1ffff910
    17dc:	1ffff134 	.word	0x1ffff134

000017e0 <USBHID::USBCallback_setConfiguration(unsigned char)>:
    17e0:	b510      	push	{r4, lr}
    17e2:	1c04      	adds	r4, r0, #0
    17e4:	2000      	movs	r0, #0
    17e6:	2901      	cmp	r1, #1
    17e8:	d000      	beq.n	17ec <USBHID::USBCallback_setConfiguration(unsigned char)+0xc>
    17ea:	bd10      	pop	{r4, pc}
    17ec:	2103      	movs	r1, #3
    17ee:	2240      	movs	r2, #64	; 0x40
    17f0:	1c20      	adds	r0, r4, #0
    17f2:	f7ff fa73 	bl	cdc <USBDevice::addEndpoint(unsigned char, unsigned long)>
    17f6:	2102      	movs	r1, #2
    17f8:	2240      	movs	r2, #64	; 0x40
    17fa:	1c20      	adds	r0, r4, #0
    17fc:	f7ff fa6e 	bl	cdc <USBDevice::addEndpoint(unsigned char, unsigned long)>
    1800:	1c20      	adds	r0, r4, #0
    1802:	2102      	movs	r1, #2
    1804:	2240      	movs	r2, #64	; 0x40
    1806:	f7ff fad1 	bl	dac <USBDevice::readStart(unsigned char, unsigned long)>
    180a:	2001      	movs	r0, #1
    180c:	e7ed      	b.n	17ea <USBHID::USBCallback_setConfiguration(unsigned char)+0xa>
    180e:	46c0      	nop			; (mov r8, r8)

00001810 <USBHID::configurationDesc()>:
    1810:	b5f8      	push	{r3, r4, r5, r6, r7, lr}
    1812:	4c0f      	ldr	r4, [pc, #60]	; (1850 <USBHID::configurationDesc()+0x40>)
    1814:	1c06      	adds	r6, r0, #0
    1816:	6822      	ldr	r2, [r4, #0]
    1818:	07d2      	lsls	r2, r2, #31
    181a:	d502      	bpl.n	1822 <USBHID::configurationDesc()+0x12>
    181c:	4d0d      	ldr	r5, [pc, #52]	; (1854 <USBHID::configurationDesc()+0x44>)
    181e:	1c28      	adds	r0, r5, #0
    1820:	bdf8      	pop	{r3, r4, r5, r6, r7, pc}
    1822:	1c20      	adds	r0, r4, #0
    1824:	f000 ff87 	bl	2736 <__cxa_guard_acquire>
    1828:	2800      	cmp	r0, #0
    182a:	d0f7      	beq.n	181c <USBHID::configurationDesc()+0xc>
    182c:	6832      	ldr	r2, [r6, #0]
    182e:	27c8      	movs	r7, #200	; 0xc8
    1830:	59d3      	ldr	r3, [r2, r7]
    1832:	1c30      	adds	r0, r6, #0
    1834:	4798      	blx	r3
    1836:	4d07      	ldr	r5, [pc, #28]	; (1854 <USBHID::configurationDesc()+0x44>)
    1838:	7668      	strb	r0, [r5, #25]
    183a:	6832      	ldr	r2, [r6, #0]
    183c:	1c30      	adds	r0, r6, #0
    183e:	59d3      	ldr	r3, [r2, r7]
    1840:	4798      	blx	r3
    1842:	0a00      	lsrs	r0, r0, #8
    1844:	76a8      	strb	r0, [r5, #26]
    1846:	1c20      	adds	r0, r4, #0
    1848:	f000 ff84 	bl	2754 <__cxa_guard_release>
    184c:	e7e7      	b.n	181e <USBHID::configurationDesc()+0xe>
    184e:	46c0      	nop			; (mov r8, r8)
    1850:	1ffff90c 	.word	0x1ffff90c
    1854:	1ffff150 	.word	0x1ffff150

00001858 <USBHID::USBHID(unsigned char, unsigned char, unsigned short, unsigned short, unsigned short, bool)>:
    1858:	b5f8      	push	{r3, r4, r5, r6, r7, lr}
    185a:	1c0f      	adds	r7, r1, #0
    185c:	1c19      	adds	r1, r3, #0
    185e:	ab06      	add	r3, sp, #24
    1860:	1c04      	adds	r4, r0, #0
    1862:	1c16      	adds	r6, r2, #0
    1864:	a808      	add	r0, sp, #32
    1866:	881a      	ldrh	r2, [r3, #0]
    1868:	ab07      	add	r3, sp, #28
    186a:	881b      	ldrh	r3, [r3, #0]
    186c:	7805      	ldrb	r5, [r0, #0]
    186e:	1c20      	adds	r0, r4, #0
    1870:	f7ff fa7c 	bl	d6c <USBDevice::USBDevice(unsigned short, unsigned short, unsigned short)>
    1874:	4b08      	ldr	r3, [pc, #32]	; (1898 <USBHID::USBHID(unsigned char, unsigned char, unsigned short, unsigned short, unsigned short, bool)+0x40>)
    1876:	3308      	adds	r3, #8
    1878:	6023      	str	r3, [r4, #0]
    187a:	23b2      	movs	r3, #178	; 0xb2
    187c:	005b      	lsls	r3, r3, #1
    187e:	54e7      	strb	r7, [r4, r3]
    1880:	2366      	movs	r3, #102	; 0x66
    1882:	33ff      	adds	r3, #255	; 0xff
    1884:	54e6      	strb	r6, [r4, r3]
    1886:	2d00      	cmp	r5, #0
    1888:	d003      	beq.n	1892 <USBHID::USBHID(unsigned char, unsigned char, unsigned short, unsigned short, unsigned short, bool)+0x3a>
    188a:	1c20      	adds	r0, r4, #0
    188c:	2101      	movs	r1, #1
    188e:	f7ff fa15 	bl	cbc <USBDevice::connect(bool)>
    1892:	1c20      	adds	r0, r4, #0
    1894:	bdf8      	pop	{r3, r4, r5, r6, r7, pc}
    1896:	46c0      	nop			; (mov r8, r8)
    1898:	00006c50 	.word	0x00006c50

0000189c <USBHID::send(HID_REPORT*)>:
    189c:	b500      	push	{lr}
    189e:	680b      	ldr	r3, [r1, #0]
    18a0:	b083      	sub	sp, #12
    18a2:	1d0a      	adds	r2, r1, #4
    18a4:	2140      	movs	r1, #64	; 0x40
    18a6:	9100      	str	r1, [sp, #0]
    18a8:	2103      	movs	r1, #3
    18aa:	f7ff fa87 	bl	dbc <USBDevice::write(unsigned char, unsigned char*, unsigned long, unsigned long)>
    18ae:	b003      	add	sp, #12
    18b0:	bd00      	pop	{pc}
    18b2:	46c0      	nop			; (mov r8, r8)

000018b4 <USBMouse::reportDesc()>:
    18b4:	23b3      	movs	r3, #179	; 0xb3
    18b6:	005b      	lsls	r3, r3, #1
    18b8:	5cc3      	ldrb	r3, [r0, r3]
    18ba:	2b01      	cmp	r3, #1
    18bc:	d007      	beq.n	18ce <USBMouse::reportDesc()+0x1a>
    18be:	2b00      	cmp	r3, #0
    18c0:	d10b      	bne.n	18da <USBMouse::reportDesc()+0x26>
    18c2:	238e      	movs	r3, #142	; 0x8e
    18c4:	2241      	movs	r2, #65	; 0x41
    18c6:	005b      	lsls	r3, r3, #1
    18c8:	52c2      	strh	r2, [r0, r3]
    18ca:	4805      	ldr	r0, [pc, #20]	; (18e0 <USBMouse::reportDesc()+0x2c>)
    18cc:	4770      	bx	lr
    18ce:	238e      	movs	r3, #142	; 0x8e
    18d0:	2234      	movs	r2, #52	; 0x34
    18d2:	005b      	lsls	r3, r3, #1
    18d4:	52c2      	strh	r2, [r0, r3]
    18d6:	4803      	ldr	r0, [pc, #12]	; (18e4 <USBMouse::reportDesc()+0x30>)
    18d8:	e7f8      	b.n	18cc <USBMouse::reportDesc()+0x18>
    18da:	2000      	movs	r0, #0
    18dc:	e7f6      	b.n	18cc <USBMouse::reportDesc()+0x18>
    18de:	46c0      	nop			; (mov r8, r8)
    18e0:	1ffff19c 	.word	0x1ffff19c
    18e4:	1ffff20c 	.word	0x1ffff20c

000018e8 <USBMouse::configurationDesc()>:
    18e8:	b5f8      	push	{r3, r4, r5, r6, r7, lr}
    18ea:	4c0f      	ldr	r4, [pc, #60]	; (1928 <USBMouse::configurationDesc()+0x40>)
    18ec:	1c06      	adds	r6, r0, #0
    18ee:	6822      	ldr	r2, [r4, #0]
    18f0:	07d2      	lsls	r2, r2, #31
    18f2:	d502      	bpl.n	18fa <USBMouse::configurationDesc()+0x12>
    18f4:	4d0d      	ldr	r5, [pc, #52]	; (192c <USBMouse::configurationDesc()+0x44>)
    18f6:	1c28      	adds	r0, r5, #0
    18f8:	bdf8      	pop	{r3, r4, r5, r6, r7, pc}
    18fa:	1c20      	adds	r0, r4, #0
    18fc:	f000 ff1b 	bl	2736 <__cxa_guard_acquire>
    1900:	2800      	cmp	r0, #0
    1902:	d0f7      	beq.n	18f4 <USBMouse::configurationDesc()+0xc>
    1904:	6832      	ldr	r2, [r6, #0]
    1906:	27c8      	movs	r7, #200	; 0xc8
    1908:	59d3      	ldr	r3, [r2, r7]
    190a:	1c30      	adds	r0, r6, #0
    190c:	4798      	blx	r3
    190e:	4d07      	ldr	r5, [pc, #28]	; (192c <USBMouse::configurationDesc()+0x44>)
    1910:	7668      	strb	r0, [r5, #25]
    1912:	6832      	ldr	r2, [r6, #0]
    1914:	1c30      	adds	r0, r6, #0
    1916:	59d3      	ldr	r3, [r2, r7]
    1918:	4798      	blx	r3
    191a:	0a00      	lsrs	r0, r0, #8
    191c:	76a8      	strb	r0, [r5, #26]
    191e:	1c20      	adds	r0, r4, #0
    1920:	f000 ff18 	bl	2754 <__cxa_guard_release>
    1924:	e7e7      	b.n	18f6 <USBMouse::configurationDesc()+0xe>
    1926:	46c0      	nop			; (mov r8, r8)
    1928:	1ffff914 	.word	0x1ffff914
    192c:	1ffff1e0 	.word	0x1ffff1e0

00001930 <USBMouse::update(short, short, unsigned char, signed char)>:
    1930:	b5f0      	push	{r4, r5, r6, r7, lr}
    1932:	464d      	mov	r5, r9
    1934:	465f      	mov	r7, r11
    1936:	4656      	mov	r6, r10
    1938:	4644      	mov	r4, r8
    193a:	b4f0      	push	{r4, r5, r6, r7}
    193c:	b093      	sub	sp, #76	; 0x4c
    193e:	4691      	mov	r9, r2
    1940:	2700      	movs	r7, #0
    1942:	aa1c      	add	r2, sp, #112	; 0x70
    1944:	57d7      	ldrsb	r7, [r2, r7]
    1946:	22b3      	movs	r2, #179	; 0xb3
    1948:	0052      	lsls	r2, r2, #1
    194a:	5c82      	ldrb	r2, [r0, r2]
    194c:	1c06      	adds	r6, r0, #0
    194e:	1c0d      	adds	r5, r1, #0
    1950:	2a00      	cmp	r2, #0
    1952:	d029      	beq.n	19a8 <USBMouse::update(short, short, unsigned char, signed char)+0x78>
    1954:	2a01      	cmp	r2, #1
    1956:	d11f      	bne.n	1998 <USBMouse::update(short, short, unsigned char, signed char)+0x68>
    1958:	2207      	movs	r2, #7
    195a:	401a      	ands	r2, r3
    195c:	427f      	negs	r7, r7
    195e:	4690      	mov	r8, r2
    1960:	b2ff      	uxtb	r7, r7
    1962:	ac01      	add	r4, sp, #4
    1964:	297f      	cmp	r1, #127	; 0x7f
    1966:	dd33      	ble.n	19d0 <USBMouse::update(short, short, unsigned char, signed char)+0xa0>
    1968:	207f      	movs	r0, #127	; 0x7f
    196a:	2200      	movs	r2, #0
    196c:	4683      	mov	r11, r0
    196e:	4692      	mov	r10, r2
    1970:	e003      	b.n	197a <USBMouse::update(short, short, unsigned char, signed char)+0x4a>
    1972:	3d7f      	subs	r5, #127	; 0x7f
    1974:	b22d      	sxth	r5, r5
    1976:	2d7f      	cmp	r5, #127	; 0x7f
    1978:	dd2a      	ble.n	19d0 <USBMouse::update(short, short, unsigned char, signed char)+0xa0>
    197a:	4643      	mov	r3, r8
    197c:	4658      	mov	r0, r11
    197e:	7123      	strb	r3, [r4, #4]
    1980:	7160      	strb	r0, [r4, #5]
    1982:	4652      	mov	r2, r10
    1984:	2304      	movs	r3, #4
    1986:	1c30      	adds	r0, r6, #0
    1988:	1c21      	adds	r1, r4, #0
    198a:	71a2      	strb	r2, [r4, #6]
    198c:	71e7      	strb	r7, [r4, #7]
    198e:	6023      	str	r3, [r4, #0]
    1990:	f7ff ff84 	bl	189c <USBHID::send(HID_REPORT*)>
    1994:	2800      	cmp	r0, #0
    1996:	d1ec      	bne.n	1972 <USBMouse::update(short, short, unsigned char, signed char)+0x42>
    1998:	2000      	movs	r0, #0
    199a:	b013      	add	sp, #76	; 0x4c
    199c:	bc3c      	pop	{r2, r3, r4, r5}
    199e:	4690      	mov	r8, r2
    19a0:	4699      	mov	r9, r3
    19a2:	46a2      	mov	r10, r4
    19a4:	46ab      	mov	r11, r5
    19a6:	bdf0      	pop	{r4, r5, r6, r7, pc}
    19a8:	a901      	add	r1, sp, #4
    19aa:	4648      	mov	r0, r9
    19ac:	7188      	strb	r0, [r1, #6]
    19ae:	4648      	mov	r0, r9
    19b0:	1202      	asrs	r2, r0, #8
    19b2:	71ca      	strb	r2, [r1, #7]
    19b4:	2207      	movs	r2, #7
    19b6:	4013      	ands	r3, r2
    19b8:	710d      	strb	r5, [r1, #4]
    19ba:	427f      	negs	r7, r7
    19bc:	122d      	asrs	r5, r5, #8
    19be:	724b      	strb	r3, [r1, #9]
    19c0:	1c30      	adds	r0, r6, #0
    19c2:	2306      	movs	r3, #6
    19c4:	714d      	strb	r5, [r1, #5]
    19c6:	720f      	strb	r7, [r1, #8]
    19c8:	9301      	str	r3, [sp, #4]
    19ca:	f7ff ff67 	bl	189c <USBHID::send(HID_REPORT*)>
    19ce:	e7e4      	b.n	199a <USBMouse::update(short, short, unsigned char, signed char)+0x6a>
    19d0:	1c28      	adds	r0, r5, #0
    19d2:	3080      	adds	r0, #128	; 0x80
    19d4:	da19      	bge.n	1a0a <USBMouse::update(short, short, unsigned char, signed char)+0xda>
    19d6:	2280      	movs	r2, #128	; 0x80
    19d8:	2300      	movs	r3, #0
    19da:	4693      	mov	r11, r2
    19dc:	469a      	mov	r10, r3
    19de:	e004      	b.n	19ea <USBMouse::update(short, short, unsigned char, signed char)+0xba>
    19e0:	3580      	adds	r5, #128	; 0x80
    19e2:	b22d      	sxth	r5, r5
    19e4:	1c2a      	adds	r2, r5, #0
    19e6:	3280      	adds	r2, #128	; 0x80
    19e8:	da0f      	bge.n	1a0a <USBMouse::update(short, short, unsigned char, signed char)+0xda>
    19ea:	4640      	mov	r0, r8
    19ec:	7120      	strb	r0, [r4, #4]
    19ee:	2004      	movs	r0, #4
    19f0:	465a      	mov	r2, r11
    19f2:	4653      	mov	r3, r10
    19f4:	6020      	str	r0, [r4, #0]
    19f6:	1c21      	adds	r1, r4, #0
    19f8:	1c30      	adds	r0, r6, #0
    19fa:	7162      	strb	r2, [r4, #5]
    19fc:	71a3      	strb	r3, [r4, #6]
    19fe:	71e7      	strb	r7, [r4, #7]
    1a00:	f7ff ff4c 	bl	189c <USBHID::send(HID_REPORT*)>
    1a04:	2800      	cmp	r0, #0
    1a06:	d1eb      	bne.n	19e0 <USBMouse::update(short, short, unsigned char, signed char)+0xb0>
    1a08:	e7c6      	b.n	1998 <USBMouse::update(short, short, unsigned char, signed char)+0x68>
    1a0a:	464b      	mov	r3, r9
    1a0c:	2b7f      	cmp	r3, #127	; 0x7f
    1a0e:	dd1a      	ble.n	1a46 <USBMouse::update(short, short, unsigned char, signed char)+0x116>
    1a10:	2000      	movs	r0, #0
    1a12:	227f      	movs	r2, #127	; 0x7f
    1a14:	4683      	mov	r11, r0
    1a16:	4692      	mov	r10, r2
    1a18:	e005      	b.n	1a26 <USBMouse::update(short, short, unsigned char, signed char)+0xf6>
    1a1a:	464b      	mov	r3, r9
    1a1c:	3b7f      	subs	r3, #127	; 0x7f
    1a1e:	b218      	sxth	r0, r3
    1a20:	4681      	mov	r9, r0
    1a22:	287f      	cmp	r0, #127	; 0x7f
    1a24:	dd0f      	ble.n	1a46 <USBMouse::update(short, short, unsigned char, signed char)+0x116>
    1a26:	4643      	mov	r3, r8
    1a28:	4658      	mov	r0, r11
    1a2a:	7123      	strb	r3, [r4, #4]
    1a2c:	7160      	strb	r0, [r4, #5]
    1a2e:	4652      	mov	r2, r10
    1a30:	2304      	movs	r3, #4
    1a32:	1c30      	adds	r0, r6, #0
    1a34:	1c21      	adds	r1, r4, #0
    1a36:	71a2      	strb	r2, [r4, #6]
    1a38:	71e7      	strb	r7, [r4, #7]
    1a3a:	6023      	str	r3, [r4, #0]
    1a3c:	f7ff ff2e 	bl	189c <USBHID::send(HID_REPORT*)>
    1a40:	2800      	cmp	r0, #0
    1a42:	d1ea      	bne.n	1a1a <USBMouse::update(short, short, unsigned char, signed char)+0xea>
    1a44:	e7a8      	b.n	1998 <USBMouse::update(short, short, unsigned char, signed char)+0x68>
    1a46:	464a      	mov	r2, r9
    1a48:	3280      	adds	r2, #128	; 0x80
    1a4a:	da1a      	bge.n	1a82 <USBMouse::update(short, short, unsigned char, signed char)+0x152>
    1a4c:	2300      	movs	r3, #0
    1a4e:	2080      	movs	r0, #128	; 0x80
    1a50:	469b      	mov	r11, r3
    1a52:	4682      	mov	r10, r0
    1a54:	e005      	b.n	1a62 <USBMouse::update(short, short, unsigned char, signed char)+0x132>
    1a56:	464b      	mov	r3, r9
    1a58:	3380      	adds	r3, #128	; 0x80
    1a5a:	b218      	sxth	r0, r3
    1a5c:	4681      	mov	r9, r0
    1a5e:	3080      	adds	r0, #128	; 0x80
    1a60:	da0f      	bge.n	1a82 <USBMouse::update(short, short, unsigned char, signed char)+0x152>
    1a62:	4642      	mov	r2, r8
    1a64:	4650      	mov	r0, r10
    1a66:	7122      	strb	r2, [r4, #4]
    1a68:	465b      	mov	r3, r11
    1a6a:	71a0      	strb	r0, [r4, #6]
    1a6c:	2204      	movs	r2, #4
    1a6e:	1c30      	adds	r0, r6, #0
    1a70:	1c21      	adds	r1, r4, #0
    1a72:	7163      	strb	r3, [r4, #5]
    1a74:	71e7      	strb	r7, [r4, #7]
    1a76:	6022      	str	r2, [r4, #0]
    1a78:	f7ff ff10 	bl	189c <USBHID::send(HID_REPORT*)>
    1a7c:	2800      	cmp	r0, #0
    1a7e:	d1ea      	bne.n	1a56 <USBMouse::update(short, short, unsigned char, signed char)+0x126>
    1a80:	e78a      	b.n	1998 <USBMouse::update(short, short, unsigned char, signed char)+0x68>
    1a82:	464b      	mov	r3, r9
    1a84:	4642      	mov	r2, r8
    1a86:	71a3      	strb	r3, [r4, #6]
    1a88:	1c30      	adds	r0, r6, #0
    1a8a:	2304      	movs	r3, #4
    1a8c:	1c21      	adds	r1, r4, #0
    1a8e:	7122      	strb	r2, [r4, #4]
    1a90:	7165      	strb	r5, [r4, #5]
    1a92:	71e7      	strb	r7, [r4, #7]
    1a94:	9301      	str	r3, [sp, #4]
    1a96:	f7ff ff01 	bl	189c <USBHID::send(HID_REPORT*)>
    1a9a:	e77e      	b.n	199a <USBMouse::update(short, short, unsigned char, signed char)+0x6a>

00001a9c <USBMouse::move(short, short)>:
    1a9c:	b510      	push	{r4, lr}
    1a9e:	2368      	movs	r3, #104	; 0x68
    1aa0:	b082      	sub	sp, #8
    1aa2:	2400      	movs	r4, #0
    1aa4:	33ff      	adds	r3, #255	; 0xff
    1aa6:	5cc3      	ldrb	r3, [r0, r3]
    1aa8:	9400      	str	r4, [sp, #0]
    1aaa:	f7ff ff41 	bl	1930 <USBMouse::update(short, short, unsigned char, signed char)>
    1aae:	b002      	add	sp, #8
    1ab0:	bd10      	pop	{r4, pc}
    1ab2:	46c0      	nop			; (mov r8, r8)

00001ab4 <NVIC_SetVector>:
    1ab4:	4b0a      	ldr	r3, [pc, #40]	; (1ae0 <NVIC_SetVector+0x2c>)
    1ab6:	b530      	push	{r4, r5, lr}
    1ab8:	689c      	ldr	r4, [r3, #8]
    1aba:	689b      	ldr	r3, [r3, #8]
    1abc:	1c22      	adds	r2, r4, #0
    1abe:	2b00      	cmp	r3, #0
    1ac0:	d109      	bne.n	1ad6 <NVIC_SetVector+0x22>
    1ac2:	4d08      	ldr	r5, [pc, #32]	; (1ae4 <NVIC_SetVector+0x30>)
    1ac4:	195a      	adds	r2, r3, r5
    1ac6:	591d      	ldr	r5, [r3, r4]
    1ac8:	3304      	adds	r3, #4
    1aca:	6015      	str	r5, [r2, #0]
    1acc:	2bc0      	cmp	r3, #192	; 0xc0
    1ace:	d1f8      	bne.n	1ac2 <NVIC_SetVector+0xe>
    1ad0:	4a04      	ldr	r2, [pc, #16]	; (1ae4 <NVIC_SetVector+0x30>)
    1ad2:	4b03      	ldr	r3, [pc, #12]	; (1ae0 <NVIC_SetVector+0x2c>)
    1ad4:	609a      	str	r2, [r3, #8]
    1ad6:	3010      	adds	r0, #16
    1ad8:	0080      	lsls	r0, r0, #2
    1ada:	5081      	str	r1, [r0, r2]
    1adc:	bd30      	pop	{r4, r5, pc}
    1ade:	46c0      	nop			; (mov r8, r8)
    1ae0:	e000ed00 	.word	0xe000ed00
    1ae4:	1ffff000 	.word	0x1ffff000

00001ae8 <exit>:
    1ae8:	b538      	push	{r3, r4, r5, lr}
    1aea:	4c0b      	ldr	r4, [pc, #44]	; (1b18 <exit+0x30>)
    1aec:	1c05      	adds	r5, r0, #0
    1aee:	6823      	ldr	r3, [r4, #0]
    1af0:	6898      	ldr	r0, [r3, #8]
    1af2:	f001 fedd 	bl	38b0 <fflush>
    1af6:	6823      	ldr	r3, [r4, #0]
    1af8:	68d8      	ldr	r0, [r3, #12]
    1afa:	f001 fed9 	bl	38b0 <fflush>
    1afe:	f000 f80d 	bl	1b1c <mbed_interface_connected>
    1b02:	2800      	cmp	r0, #0
    1b04:	d105      	bne.n	1b12 <exit+0x2a>
    1b06:	2d00      	cmp	r5, #0
    1b08:	d100      	bne.n	1b0c <exit+0x24>
    1b0a:	e7fe      	b.n	1b0a <exit+0x22>
    1b0c:	f000 fcf2 	bl	24f4 <mbed_die>
    1b10:	e7fb      	b.n	1b0a <exit+0x22>
    1b12:	f000 f807 	bl	1b24 <semihost_exit>
    1b16:	e7f6      	b.n	1b06 <exit+0x1e>
    1b18:	1ffff2ac 	.word	0x1ffff2ac

00001b1c <mbed_interface_connected>:
    1b1c:	b508      	push	{r3, lr}
    1b1e:	f000 f80d 	bl	1b3c <semihost_connected>
    1b22:	bd08      	pop	{r3, pc}

00001b24 <semihost_exit>:
    1b24:	b530      	push	{r4, r5, lr}
    1b26:	b085      	sub	sp, #20
    1b28:	466d      	mov	r5, sp
    1b2a:	2418      	movs	r4, #24
    1b2c:	1c20      	adds	r0, r4, #0
    1b2e:	1c29      	adds	r1, r5, #0
    1b30:	beab      	bkpt	0x00ab
    1b32:	1c04      	adds	r4, r0, #0
    1b34:	1c20      	adds	r0, r4, #0
    1b36:	b005      	add	sp, #20
    1b38:	bd30      	pop	{r4, r5, pc}
    1b3a:	46c0      	nop			; (mov r8, r8)

00001b3c <semihost_connected>:
    1b3c:	4b01      	ldr	r3, [pc, #4]	; (1b44 <semihost_connected+0x8>)
    1b3e:	6818      	ldr	r0, [r3, #0]
    1b40:	4770      	bx	lr
    1b42:	46c0      	nop			; (mov r8, r8)
    1b44:	1ffff240 	.word	0x1ffff240

00001b48 <wait_us>:
    1b48:	b538      	push	{r3, r4, r5, lr}
    1b4a:	1c05      	adds	r5, r0, #0
    1b4c:	f000 fa24 	bl	1f98 <us_ticker_read>
    1b50:	1c04      	adds	r4, r0, #0
    1b52:	f000 fa21 	bl	1f98 <us_ticker_read>
    1b56:	1b03      	subs	r3, r0, r4
    1b58:	42ab      	cmp	r3, r5
    1b5a:	d3fa      	bcc.n	1b52 <wait_us+0xa>
    1b5c:	bd38      	pop	{r3, r4, r5, pc}
    1b5e:	46c0      	nop			; (mov r8, r8)

00001b60 <wait>:
    1b60:	b508      	push	{r3, lr}
    1b62:	4904      	ldr	r1, [pc, #16]	; (1b74 <wait+0x14>)
    1b64:	f000 fe4a 	bl	27fc <__aeabi_fmul>
    1b68:	f000 ff72 	bl	2a50 <__aeabi_f2iz>
    1b6c:	f7ff ffec 	bl	1b48 <wait_us>
    1b70:	bd08      	pop	{r3, pc}
    1b72:	46c0      	nop			; (mov r8, r8)
    1b74:	49742400 	.word	0x49742400

00001b78 <wait_ms>:
    1b78:	b508      	push	{r3, lr}
    1b7a:	23fa      	movs	r3, #250	; 0xfa
    1b7c:	009b      	lsls	r3, r3, #2
    1b7e:	4358      	muls	r0, r3
    1b80:	f7ff ffe2 	bl	1b48 <wait_us>
    1b84:	bd08      	pop	{r3, pc}
    1b86:	46c0      	nop			; (mov r8, r8)

00001b88 <init_serial() [clone .part.0]>:
    1b88:	b508      	push	{r3, lr}
    1b8a:	4803      	ldr	r0, [pc, #12]	; (1b98 <init_serial() [clone .part.0]+0x10>)
    1b8c:	2108      	movs	r1, #8
    1b8e:	2204      	movs	r2, #4
    1b90:	f000 fb68 	bl	2264 <serial_init>
    1b94:	bd08      	pop	{r3, pc}
    1b96:	46c0      	nop			; (mov r8, r8)
    1b98:	1ffffa38 	.word	0x1ffffa38

00001b9c <_close>:
    1b9c:	b508      	push	{r3, lr}
    1b9e:	2300      	movs	r3, #0
    1ba0:	2802      	cmp	r0, #2
    1ba2:	dd0a      	ble.n	1bba <_close+0x1e>
    1ba4:	3803      	subs	r0, #3
    1ba6:	4a07      	ldr	r2, [pc, #28]	; (1bc4 <_close+0x28>)
    1ba8:	0081      	lsls	r1, r0, #2
    1baa:	5888      	ldr	r0, [r1, r2]
    1bac:	508b      	str	r3, [r1, r2]
    1bae:	2800      	cmp	r0, #0
    1bb0:	d005      	beq.n	1bbe <_close+0x22>
    1bb2:	6803      	ldr	r3, [r0, #0]
    1bb4:	685b      	ldr	r3, [r3, #4]
    1bb6:	4798      	blx	r3
    1bb8:	1c03      	adds	r3, r0, #0
    1bba:	1c18      	adds	r0, r3, #0
    1bbc:	bd08      	pop	{r3, pc}
    1bbe:	2301      	movs	r3, #1
    1bc0:	425b      	negs	r3, r3
    1bc2:	e7fa      	b.n	1bba <_close+0x1e>
    1bc4:	1ffff918 	.word	0x1ffff918

00001bc8 <_write>:
    1bc8:	b5f8      	push	{r3, r4, r5, r6, r7, lr}
    1bca:	1c0c      	adds	r4, r1, #0
    1bcc:	1c17      	adds	r7, r2, #0
    1bce:	2802      	cmp	r0, #2
    1bd0:	dc12      	bgt.n	1bf8 <_write+0x30>
    1bd2:	4b10      	ldr	r3, [pc, #64]	; (1c14 <_write+0x4c>)
    1bd4:	681b      	ldr	r3, [r3, #0]
    1bd6:	2b00      	cmp	r3, #0
    1bd8:	d101      	bne.n	1bde <_write+0x16>
    1bda:	f7ff ffd5 	bl	1b88 <init_serial() [clone .part.0]>
    1bde:	2f00      	cmp	r7, #0
    1be0:	d008      	beq.n	1bf4 <_write+0x2c>
    1be2:	4d0d      	ldr	r5, [pc, #52]	; (1c18 <_write+0x50>)
    1be4:	19e6      	adds	r6, r4, r7
    1be6:	7821      	ldrb	r1, [r4, #0]
    1be8:	1c28      	adds	r0, r5, #0
    1bea:	3401      	adds	r4, #1
    1bec:	f000 fc18 	bl	2420 <serial_putc>
    1bf0:	42b4      	cmp	r4, r6
    1bf2:	d1f8      	bne.n	1be6 <_write+0x1e>
    1bf4:	1c38      	adds	r0, r7, #0
    1bf6:	bdf8      	pop	{r3, r4, r5, r6, r7, pc}
    1bf8:	3803      	subs	r0, #3
    1bfa:	4b08      	ldr	r3, [pc, #32]	; (1c1c <_write+0x54>)
    1bfc:	0080      	lsls	r0, r0, #2
    1bfe:	58c0      	ldr	r0, [r0, r3]
    1c00:	2800      	cmp	r0, #0
    1c02:	d003      	beq.n	1c0c <_write+0x44>
    1c04:	6803      	ldr	r3, [r0, #0]
    1c06:	681b      	ldr	r3, [r3, #0]
    1c08:	4798      	blx	r3
    1c0a:	e7f4      	b.n	1bf6 <_write+0x2e>
    1c0c:	2001      	movs	r0, #1
    1c0e:	4240      	negs	r0, r0
    1c10:	e7f1      	b.n	1bf6 <_write+0x2e>
    1c12:	46c0      	nop			; (mov r8, r8)
    1c14:	1ffffa24 	.word	0x1ffffa24
    1c18:	1ffffa38 	.word	0x1ffffa38
    1c1c:	1ffff918 	.word	0x1ffff918

00001c20 <_read>:
    1c20:	b510      	push	{r4, lr}
    1c22:	1c0c      	adds	r4, r1, #0
    1c24:	2802      	cmp	r0, #2
    1c26:	dc09      	bgt.n	1c3c <_read+0x1c>
    1c28:	4b0c      	ldr	r3, [pc, #48]	; (1c5c <_read+0x3c>)
    1c2a:	681b      	ldr	r3, [r3, #0]
    1c2c:	2b00      	cmp	r3, #0
    1c2e:	d00f      	beq.n	1c50 <_read+0x30>
    1c30:	480b      	ldr	r0, [pc, #44]	; (1c60 <_read+0x40>)
    1c32:	f000 fbe1 	bl	23f8 <serial_getc>
    1c36:	7020      	strb	r0, [r4, #0]
    1c38:	2001      	movs	r0, #1
    1c3a:	bd10      	pop	{r4, pc}
    1c3c:	3803      	subs	r0, #3
    1c3e:	4b09      	ldr	r3, [pc, #36]	; (1c64 <_read+0x44>)
    1c40:	0080      	lsls	r0, r0, #2
    1c42:	58c0      	ldr	r0, [r0, r3]
    1c44:	2800      	cmp	r0, #0
    1c46:	d006      	beq.n	1c56 <_read+0x36>
    1c48:	6803      	ldr	r3, [r0, #0]
    1c4a:	689b      	ldr	r3, [r3, #8]
    1c4c:	4798      	blx	r3
    1c4e:	e7f4      	b.n	1c3a <_read+0x1a>
    1c50:	f7ff ff9a 	bl	1b88 <init_serial() [clone .part.0]>
    1c54:	e7ec      	b.n	1c30 <_read+0x10>
    1c56:	2001      	movs	r0, #1
    1c58:	4240      	negs	r0, r0
    1c5a:	e7ee      	b.n	1c3a <_read+0x1a>
    1c5c:	1ffffa24 	.word	0x1ffffa24
    1c60:	1ffffa38 	.word	0x1ffffa38
    1c64:	1ffff918 	.word	0x1ffff918

00001c68 <_isatty>:
    1c68:	b508      	push	{r3, lr}
    1c6a:	1c03      	adds	r3, r0, #0
    1c6c:	2001      	movs	r0, #1
    1c6e:	2b02      	cmp	r3, #2
    1c70:	dd08      	ble.n	1c84 <_isatty+0x1c>
    1c72:	3b03      	subs	r3, #3
    1c74:	4a05      	ldr	r2, [pc, #20]	; (1c8c <_isatty+0x24>)
    1c76:	009b      	lsls	r3, r3, #2
    1c78:	5898      	ldr	r0, [r3, r2]
    1c7a:	2800      	cmp	r0, #0
    1c7c:	d003      	beq.n	1c86 <_isatty+0x1e>
    1c7e:	6803      	ldr	r3, [r0, #0]
    1c80:	68db      	ldr	r3, [r3, #12]
    1c82:	4798      	blx	r3
    1c84:	bd08      	pop	{r3, pc}
    1c86:	2001      	movs	r0, #1
    1c88:	4240      	negs	r0, r0
    1c8a:	e7fb      	b.n	1c84 <_isatty+0x1c>
    1c8c:	1ffff918 	.word	0x1ffff918

00001c90 <_lseek>:
    1c90:	b508      	push	{r3, lr}
    1c92:	1c03      	adds	r3, r0, #0
    1c94:	2000      	movs	r0, #0
    1c96:	2b02      	cmp	r3, #2
    1c98:	dd08      	ble.n	1cac <_lseek+0x1c>
    1c9a:	3b03      	subs	r3, #3
    1c9c:	4805      	ldr	r0, [pc, #20]	; (1cb4 <_lseek+0x24>)
    1c9e:	009b      	lsls	r3, r3, #2
    1ca0:	5818      	ldr	r0, [r3, r0]
    1ca2:	2800      	cmp	r0, #0
    1ca4:	d003      	beq.n	1cae <_lseek+0x1e>
    1ca6:	6803      	ldr	r3, [r0, #0]
    1ca8:	691b      	ldr	r3, [r3, #16]
    1caa:	4798      	blx	r3
    1cac:	bd08      	pop	{r3, pc}
    1cae:	2001      	movs	r0, #1
    1cb0:	4240      	negs	r0, r0
    1cb2:	e7fb      	b.n	1cac <_lseek+0x1c>
    1cb4:	1ffff918 	.word	0x1ffff918

00001cb8 <_fstat>:
    1cb8:	b508      	push	{r3, lr}
    1cba:	2802      	cmp	r0, #2
    1cbc:	d804      	bhi.n	1cc8 <_fstat+0x10>
    1cbe:	2380      	movs	r3, #128	; 0x80
    1cc0:	019b      	lsls	r3, r3, #6
    1cc2:	604b      	str	r3, [r1, #4]
    1cc4:	2000      	movs	r0, #0
    1cc6:	bd08      	pop	{r3, pc}
    1cc8:	f001 fd36 	bl	3738 <__errno>
    1ccc:	2309      	movs	r3, #9
    1cce:	6003      	str	r3, [r0, #0]
    1cd0:	2001      	movs	r0, #1
    1cd2:	4240      	negs	r0, r0
    1cd4:	e7f7      	b.n	1cc6 <_fstat+0xe>
    1cd6:	46c0      	nop			; (mov r8, r8)

00001cd8 <_sbrk>:
    1cd8:	4a07      	ldr	r2, [pc, #28]	; (1cf8 <_sbrk+0x20>)
    1cda:	6813      	ldr	r3, [r2, #0]
    1cdc:	1818      	adds	r0, r3, r0
    1cde:	f3ef 8108 	mrs	r1, MSP
    1ce2:	4288      	cmp	r0, r1
    1ce4:	d202      	bcs.n	1cec <_sbrk+0x14>
    1ce6:	6010      	str	r0, [r2, #0]
    1ce8:	1c18      	adds	r0, r3, #0
    1cea:	4770      	bx	lr
    1cec:	4b03      	ldr	r3, [pc, #12]	; (1cfc <_sbrk+0x24>)
    1cee:	220c      	movs	r2, #12
    1cf0:	2001      	movs	r0, #1
    1cf2:	601a      	str	r2, [r3, #0]
    1cf4:	4240      	negs	r0, r0
    1cf6:	e7f8      	b.n	1cea <_sbrk+0x12>
    1cf8:	1ffff244 	.word	0x1ffff244
    1cfc:	1ffffa40 	.word	0x1ffffa40

00001d00 <NMI_Handler>:
    1d00:	e7fe      	b.n	1d00 <NMI_Handler>

00001d02 <HardFault_Handler>:
    1d02:	e7fe      	b.n	1d02 <HardFault_Handler>

00001d04 <SVC_Handler>:
    1d04:	e7fe      	b.n	1d04 <SVC_Handler>

00001d06 <PendSV_Handler>:
    1d06:	e7fe      	b.n	1d06 <PendSV_Handler>

00001d08 <SysTick_Handler>:
    1d08:	e7fe      	b.n	1d08 <SysTick_Handler>

00001d0a <ADC0_IRQHandler>:
    1d0a:	e7fe      	b.n	1d0a <ADC0_IRQHandler>

00001d0c <lptmr_isr>:
    1d0c:	4b15      	ldr	r3, [pc, #84]	; (1d64 <lptmr_isr+0x58>)
    1d0e:	2280      	movs	r2, #128	; 0x80
    1d10:	6819      	ldr	r1, [r3, #0]
    1d12:	b510      	push	{r4, lr}
    1d14:	430a      	orrs	r2, r1
    1d16:	4914      	ldr	r1, [pc, #80]	; (1d68 <lptmr_isr+0x5c>)
    1d18:	601a      	str	r2, [r3, #0]
    1d1a:	680a      	ldr	r2, [r1, #0]
    1d1c:	2a00      	cmp	r2, #0
    1d1e:	d112      	bne.n	1d46 <lptmr_isr+0x3a>
    1d20:	4912      	ldr	r1, [pc, #72]	; (1d6c <lptmr_isr+0x60>)
    1d22:	8808      	ldrh	r0, [r1, #0]
    1d24:	2800      	cmp	r0, #0
    1d26:	d00b      	beq.n	1d40 <lptmr_isr+0x34>
    1d28:	601a      	str	r2, [r3, #0]
    1d2a:	6098      	str	r0, [r3, #8]
    1d2c:	681c      	ldr	r4, [r3, #0]
    1d2e:	2040      	movs	r0, #64	; 0x40
    1d30:	4320      	orrs	r0, r4
    1d32:	6018      	str	r0, [r3, #0]
    1d34:	681c      	ldr	r4, [r3, #0]
    1d36:	2001      	movs	r0, #1
    1d38:	4320      	orrs	r0, r4
    1d3a:	6018      	str	r0, [r3, #0]
    1d3c:	800a      	strh	r2, [r1, #0]
    1d3e:	bd10      	pop	{r4, pc}
    1d40:	f000 fc5a 	bl	25f8 <us_ticker_irq_handler>
    1d44:	e7fb      	b.n	1d3e <lptmr_isr+0x32>
    1d46:	2000      	movs	r0, #0
    1d48:	6018      	str	r0, [r3, #0]
    1d4a:	4809      	ldr	r0, [pc, #36]	; (1d70 <lptmr_isr+0x64>)
    1d4c:	3a01      	subs	r2, #1
    1d4e:	6098      	str	r0, [r3, #8]
    1d50:	681c      	ldr	r4, [r3, #0]
    1d52:	2040      	movs	r0, #64	; 0x40
    1d54:	4320      	orrs	r0, r4
    1d56:	6018      	str	r0, [r3, #0]
    1d58:	681c      	ldr	r4, [r3, #0]
    1d5a:	2001      	movs	r0, #1
    1d5c:	4320      	orrs	r0, r4
    1d5e:	6018      	str	r0, [r3, #0]
    1d60:	600a      	str	r2, [r1, #0]
    1d62:	e7ec      	b.n	1d3e <lptmr_isr+0x32>
    1d64:	40040000 	.word	0x40040000
    1d68:	1ffffa18 	.word	0x1ffffa18
    1d6c:	1ffffa20 	.word	0x1ffffa20
    1d70:	0000ffff 	.word	0x0000ffff

00001d74 <us_ticker_init>:
    1d74:	b5f8      	push	{r3, r4, r5, r6, r7, lr}
    1d76:	4b79      	ldr	r3, [pc, #484]	; (1f5c <us_ticker_init+0x1e8>)
    1d78:	464f      	mov	r7, r9
    1d7a:	681d      	ldr	r5, [r3, #0]
    1d7c:	4646      	mov	r6, r8
    1d7e:	b4c0      	push	{r6, r7}
    1d80:	2d00      	cmp	r5, #0
    1d82:	d003      	beq.n	1d8c <us_ticker_init+0x18>
    1d84:	bc0c      	pop	{r2, r3}
    1d86:	4690      	mov	r8, r2
    1d88:	4699      	mov	r9, r3
    1d8a:	bdf8      	pop	{r3, r4, r5, r6, r7, pc}
    1d8c:	2701      	movs	r7, #1
    1d8e:	601f      	str	r7, [r3, #0]
    1d90:	4e73      	ldr	r6, [pc, #460]	; (1f60 <us_ticker_init+0x1ec>)
    1d92:	4b74      	ldr	r3, [pc, #464]	; (1f64 <us_ticker_init+0x1f0>)
    1d94:	2280      	movs	r2, #128	; 0x80
    1d96:	58f1      	ldr	r1, [r6, r3]
    1d98:	0412      	lsls	r2, r2, #16
    1d9a:	430a      	orrs	r2, r1
    1d9c:	50f2      	str	r2, [r6, r3]
    1d9e:	4c72      	ldr	r4, [pc, #456]	; (1f68 <us_ticker_init+0x1f4>)
    1da0:	2201      	movs	r2, #1
    1da2:	2388      	movs	r3, #136	; 0x88
    1da4:	4252      	negs	r2, r2
    1da6:	005b      	lsls	r3, r3, #1
    1da8:	6025      	str	r5, [r4, #0]
    1daa:	50e2      	str	r2, [r4, r3]
    1dac:	238c      	movs	r3, #140	; 0x8c
    1dae:	005b      	lsls	r3, r3, #1
    1db0:	2204      	movs	r2, #4
    1db2:	50e2      	str	r2, [r4, r3]
    1db4:	58e2      	ldr	r2, [r4, r3]
    1db6:	496d      	ldr	r1, [pc, #436]	; (1f6c <us_ticker_init+0x1f8>)
    1db8:	433a      	orrs	r2, r7
    1dba:	50e2      	str	r2, [r4, r3]
    1dbc:	4689      	mov	r9, r1
    1dbe:	5871      	ldr	r1, [r6, r1]
    1dc0:	4b6b      	ldr	r3, [pc, #428]	; (1f70 <us_ticker_init+0x1fc>)
    1dc2:	0349      	lsls	r1, r1, #13
    1dc4:	0f49      	lsrs	r1, r1, #29
    1dc6:	6818      	ldr	r0, [r3, #0]
    1dc8:	3101      	adds	r1, #1
    1dca:	4698      	mov	r8, r3
    1dcc:	f000 fcc6 	bl	275c <__aeabi_uidiv>
    1dd0:	4b68      	ldr	r3, [pc, #416]	; (1f74 <us_ticker_init+0x200>)
    1dd2:	4969      	ldr	r1, [pc, #420]	; (1f78 <us_ticker_init+0x204>)
    1dd4:	18c0      	adds	r0, r0, r3
    1dd6:	f000 fcc1 	bl	275c <__aeabi_uidiv>
    1dda:	2380      	movs	r3, #128	; 0x80
    1ddc:	3801      	subs	r0, #1
    1dde:	005b      	lsls	r3, r3, #1
    1de0:	50e0      	str	r0, [r4, r3]
    1de2:	2384      	movs	r3, #132	; 0x84
    1de4:	005b      	lsls	r3, r3, #1
    1de6:	50e7      	str	r7, [r4, r3]
    1de8:	4b64      	ldr	r3, [pc, #400]	; (1f7c <us_ticker_init+0x208>)
    1dea:	201c      	movs	r0, #28
    1dec:	58f2      	ldr	r2, [r6, r3]
    1dee:	4964      	ldr	r1, [pc, #400]	; (1f80 <us_ticker_init+0x20c>)
    1df0:	433a      	orrs	r2, r7
    1df2:	50f2      	str	r2, [r6, r3]
    1df4:	4b63      	ldr	r3, [pc, #396]	; (1f84 <us_ticker_init+0x210>)
    1df6:	601d      	str	r5, [r3, #0]
    1df8:	f7ff fe5c 	bl	1ab4 <NVIC_SetVector>
    1dfc:	4b62      	ldr	r3, [pc, #392]	; (1f88 <us_ticker_init+0x214>)
    1dfe:	2280      	movs	r2, #128	; 0x80
    1e00:	0552      	lsls	r2, r2, #21
    1e02:	601a      	str	r2, [r3, #0]
    1e04:	4649      	mov	r1, r9
    1e06:	5873      	ldr	r3, [r6, r1]
    1e08:	4642      	mov	r2, r8
    1e0a:	6810      	ldr	r0, [r2, #0]
    1e0c:	0f1b      	lsrs	r3, r3, #28
    1e0e:	3301      	adds	r3, #1
    1e10:	4358      	muls	r0, r3
    1e12:	4b5e      	ldr	r3, [pc, #376]	; (1f8c <us_ticker_init+0x218>)
    1e14:	223f      	movs	r2, #63	; 0x3f
    1e16:	7819      	ldrb	r1, [r3, #0]
    1e18:	4391      	bics	r1, r2
    1e1a:	2980      	cmp	r1, #128	; 0x80
    1e1c:	d07a      	beq.n	1f14 <us_ticker_init+0x1a0>
    1e1e:	7819      	ldrb	r1, [r3, #0]
    1e20:	4391      	bics	r1, r2
    1e22:	d120      	bne.n	1e66 <us_ticker_init+0xf2>
    1e24:	795a      	ldrb	r2, [r3, #5]
    1e26:	0651      	lsls	r1, r2, #25
    1e28:	d443      	bmi.n	1eb2 <us_ticker_init+0x13e>
    1e2a:	799a      	ldrb	r2, [r3, #6]
    1e2c:	06d1      	lsls	r1, r2, #27
    1e2e:	d41a      	bmi.n	1e66 <us_ticker_init+0xf2>
    1e30:	781a      	ldrb	r2, [r3, #0]
    1e32:	785b      	ldrb	r3, [r3, #1]
    1e34:	0692      	lsls	r2, r2, #26
    1e36:	0f52      	lsrs	r2, r2, #29
    1e38:	4097      	lsls	r7, r2
    1e3a:	2230      	movs	r2, #48	; 0x30
    1e3c:	421a      	tst	r2, r3
    1e3e:	d16b      	bne.n	1f18 <us_ticker_init+0x1a4>
    1e40:	4b52      	ldr	r3, [pc, #328]	; (1f8c <us_ticker_init+0x218>)
    1e42:	78da      	ldrb	r2, [r3, #3]
    1e44:	231f      	movs	r3, #31
    1e46:	439a      	bics	r2, r3
    1e48:	2a60      	cmp	r2, #96	; 0x60
    1e4a:	d07c      	beq.n	1f46 <us_ticker_init+0x1d2>
    1e4c:	d966      	bls.n	1f1c <us_ticker_init+0x1a8>
    1e4e:	2aa0      	cmp	r2, #160	; 0xa0
    1e50:	d076      	beq.n	1f40 <us_ticker_init+0x1cc>
    1e52:	2ac0      	cmp	r2, #192	; 0xc0
    1e54:	d072      	beq.n	1f3c <us_ticker_init+0x1c8>
    1e56:	2a80      	cmp	r2, #128	; 0x80
    1e58:	d069      	beq.n	1f2e <us_ticker_init+0x1ba>
    1e5a:	494d      	ldr	r1, [pc, #308]	; (1f90 <us_ticker_init+0x21c>)
    1e5c:	4378      	muls	r0, r7
    1e5e:	f000 fc7d 	bl	275c <__aeabi_uidiv>
    1e62:	1c07      	adds	r7, r0, #0
    1e64:	e032      	b.n	1ecc <us_ticker_init+0x158>
    1e66:	4b49      	ldr	r3, [pc, #292]	; (1f8c <us_ticker_init+0x218>)
    1e68:	2202      	movs	r2, #2
    1e6a:	7819      	ldrb	r1, [r3, #0]
    1e6c:	200e      	movs	r0, #14
    1e6e:	430a      	orrs	r2, r1
    1e70:	701a      	strb	r2, [r3, #0]
    1e72:	7859      	ldrb	r1, [r3, #1]
    1e74:	2201      	movs	r2, #1
    1e76:	430a      	orrs	r2, r1
    1e78:	705a      	strb	r2, [r3, #1]
    1e7a:	4a42      	ldr	r2, [pc, #264]	; (1f84 <us_ticker_init+0x210>)
    1e7c:	2100      	movs	r1, #0
    1e7e:	6051      	str	r1, [r2, #4]
    1e80:	7a19      	ldrb	r1, [r3, #8]
    1e82:	4001      	ands	r1, r0
    1e84:	d010      	beq.n	1ea8 <us_ticker_init+0x134>
    1e86:	2902      	cmp	r1, #2
    1e88:	d102      	bne.n	1e90 <us_ticker_init+0x11c>
    1e8a:	6853      	ldr	r3, [r2, #4]
    1e8c:	6053      	str	r3, [r2, #4]
    1e8e:	e779      	b.n	1d84 <us_ticker_init+0x10>
    1e90:	7a19      	ldrb	r1, [r3, #8]
    1e92:	4381      	bics	r1, r0
    1e94:	7219      	strb	r1, [r3, #8]
    1e96:	7a18      	ldrb	r0, [r3, #8]
    1e98:	2104      	movs	r1, #4
    1e9a:	4301      	orrs	r1, r0
    1e9c:	7219      	strb	r1, [r3, #8]
    1e9e:	6851      	ldr	r1, [r2, #4]
    1ea0:	2304      	movs	r3, #4
    1ea2:	430b      	orrs	r3, r1
    1ea4:	6053      	str	r3, [r2, #4]
    1ea6:	e76d      	b.n	1d84 <us_ticker_init+0x10>
    1ea8:	6851      	ldr	r1, [r2, #4]
    1eaa:	2308      	movs	r3, #8
    1eac:	430b      	orrs	r3, r1
    1eae:	6053      	str	r3, [r2, #4]
    1eb0:	e768      	b.n	1d84 <us_ticker_init+0x10>
    1eb2:	791c      	ldrb	r4, [r3, #4]
    1eb4:	221f      	movs	r2, #31
    1eb6:	7959      	ldrb	r1, [r3, #5]
    1eb8:	1c13      	adds	r3, r2, #0
    1eba:	4023      	ands	r3, r4
    1ebc:	400a      	ands	r2, r1
    1ebe:	3301      	adds	r3, #1
    1ec0:	1c11      	adds	r1, r2, #0
    1ec2:	4358      	muls	r0, r3
    1ec4:	3118      	adds	r1, #24
    1ec6:	f000 fc49 	bl	275c <__aeabi_uidiv>
    1eca:	1c07      	adds	r7, r0, #0
    1ecc:	2f00      	cmp	r7, #0
    1ece:	d0ca      	beq.n	1e66 <us_ticker_init+0xf2>
    1ed0:	1c38      	adds	r0, r7, #0
    1ed2:	4929      	ldr	r1, [pc, #164]	; (1f78 <us_ticker_init+0x204>)
    1ed4:	f000 fc86 	bl	27e4 <__aeabi_uidivmod>
    1ed8:	2900      	cmp	r1, #0
    1eda:	d1c4      	bne.n	1e66 <us_ticker_init+0xf2>
    1edc:	1c38      	adds	r0, r7, #0
    1ede:	4926      	ldr	r1, [pc, #152]	; (1f78 <us_ticker_init+0x204>)
    1ee0:	f000 fc3c 	bl	275c <__aeabi_uidiv>
    1ee4:	2801      	cmp	r0, #1
    1ee6:	d025      	beq.n	1f34 <us_ticker_init+0x1c0>
    1ee8:	0840      	lsrs	r0, r0, #1
    1eea:	2801      	cmp	r0, #1
    1eec:	d034      	beq.n	1f58 <us_ticker_init+0x1e4>
    1eee:	07c2      	lsls	r2, r0, #31
    1ef0:	d4b9      	bmi.n	1e66 <us_ticker_init+0xf2>
    1ef2:	2300      	movs	r3, #0
    1ef4:	2201      	movs	r2, #1
    1ef6:	e001      	b.n	1efc <us_ticker_init+0x188>
    1ef8:	4202      	tst	r2, r0
    1efa:	d1b4      	bne.n	1e66 <us_ticker_init+0xf2>
    1efc:	3301      	adds	r3, #1
    1efe:	0840      	lsrs	r0, r0, #1
    1f00:	2801      	cmp	r0, #1
    1f02:	d1f9      	bne.n	1ef8 <us_ticker_init+0x184>
    1f04:	2278      	movs	r2, #120	; 0x78
    1f06:	00db      	lsls	r3, r3, #3
    1f08:	4013      	ands	r3, r2
    1f0a:	2203      	movs	r2, #3
    1f0c:	4313      	orrs	r3, r2
    1f0e:	4a1d      	ldr	r2, [pc, #116]	; (1f84 <us_ticker_init+0x210>)
    1f10:	6053      	str	r3, [r2, #4]
    1f12:	e737      	b.n	1d84 <us_ticker_init+0x10>
    1f14:	1c07      	adds	r7, r0, #0
    1f16:	e7d9      	b.n	1ecc <us_ticker_init+0x158>
    1f18:	017f      	lsls	r7, r7, #5
    1f1a:	e791      	b.n	1e40 <us_ticker_init+0xcc>
    1f1c:	2a20      	cmp	r2, #32
    1f1e:	d018      	beq.n	1f52 <us_ticker_init+0x1de>
    1f20:	2a40      	cmp	r2, #64	; 0x40
    1f22:	d013      	beq.n	1f4c <us_ticker_init+0x1d8>
    1f24:	2a00      	cmp	r2, #0
    1f26:	d198      	bne.n	1e5a <us_ticker_init+0xe6>
    1f28:	21a0      	movs	r1, #160	; 0xa0
    1f2a:	0089      	lsls	r1, r1, #2
    1f2c:	e796      	b.n	1e5c <us_ticker_init+0xe8>
    1f2e:	21b7      	movs	r1, #183	; 0xb7
    1f30:	0089      	lsls	r1, r1, #2
    1f32:	e793      	b.n	1e5c <us_ticker_init+0xe8>
    1f34:	4b13      	ldr	r3, [pc, #76]	; (1f84 <us_ticker_init+0x210>)
    1f36:	2207      	movs	r2, #7
    1f38:	605a      	str	r2, [r3, #4]
    1f3a:	e723      	b.n	1d84 <us_ticker_init+0x10>
    1f3c:	4915      	ldr	r1, [pc, #84]	; (1f94 <us_ticker_init+0x220>)
    1f3e:	e78d      	b.n	1e5c <us_ticker_init+0xe8>
    1f40:	21b7      	movs	r1, #183	; 0xb7
    1f42:	00c9      	lsls	r1, r1, #3
    1f44:	e78a      	b.n	1e5c <us_ticker_init+0xe8>
    1f46:	21a0      	movs	r1, #160	; 0xa0
    1f48:	0109      	lsls	r1, r1, #4
    1f4a:	e787      	b.n	1e5c <us_ticker_init+0xe8>
    1f4c:	21f0      	movs	r1, #240	; 0xf0
    1f4e:	00c9      	lsls	r1, r1, #3
    1f50:	e784      	b.n	1e5c <us_ticker_init+0xe8>
    1f52:	21a0      	movs	r1, #160	; 0xa0
    1f54:	00c9      	lsls	r1, r1, #3
    1f56:	e781      	b.n	1e5c <us_ticker_init+0xe8>
    1f58:	2303      	movs	r3, #3
    1f5a:	e7d8      	b.n	1f0e <us_ticker_init+0x19a>
    1f5c:	1ffffa1c 	.word	0x1ffffa1c
    1f60:	40047000 	.word	0x40047000
    1f64:	0000103c 	.word	0x0000103c
    1f68:	40037000 	.word	0x40037000
    1f6c:	00001044 	.word	0x00001044
    1f70:	1ffff248 	.word	0x1ffff248
    1f74:	0007a120 	.word	0x0007a120
    1f78:	000f4240 	.word	0x000f4240
    1f7c:	00001038 	.word	0x00001038
    1f80:	00001d0d 	.word	0x00001d0d
    1f84:	40040000 	.word	0x40040000
    1f88:	e000e100 	.word	0xe000e100
    1f8c:	40064000 	.word	0x40064000
    1f90:	00000b71 	.word	0x00000b71
    1f94:	00000895 	.word	0x00000895

00001f98 <us_ticker_read>:
    1f98:	b508      	push	{r3, lr}
    1f9a:	4b06      	ldr	r3, [pc, #24]	; (1fb4 <us_ticker_read+0x1c>)
    1f9c:	681b      	ldr	r3, [r3, #0]
    1f9e:	2b00      	cmp	r3, #0
    1fa0:	d101      	bne.n	1fa6 <us_ticker_read+0xe>
    1fa2:	f7ff fee7 	bl	1d74 <us_ticker_init>
    1fa6:	238a      	movs	r3, #138	; 0x8a
    1fa8:	4a03      	ldr	r2, [pc, #12]	; (1fb8 <us_ticker_read+0x20>)
    1faa:	005b      	lsls	r3, r3, #1
    1fac:	58d0      	ldr	r0, [r2, r3]
    1fae:	43c0      	mvns	r0, r0
    1fb0:	bd08      	pop	{r3, pc}
    1fb2:	46c0      	nop			; (mov r8, r8)
    1fb4:	1ffffa1c 	.word	0x1ffffa1c
    1fb8:	40037000 	.word	0x40037000

00001fbc <us_ticker_disable_interrupt>:
    1fbc:	4b02      	ldr	r3, [pc, #8]	; (1fc8 <us_ticker_disable_interrupt+0xc>)
    1fbe:	2140      	movs	r1, #64	; 0x40
    1fc0:	681a      	ldr	r2, [r3, #0]
    1fc2:	438a      	bics	r2, r1
    1fc4:	601a      	str	r2, [r3, #0]
    1fc6:	4770      	bx	lr
    1fc8:	40040000 	.word	0x40040000

00001fcc <us_ticker_clear_interrupt>:
    1fcc:	4770      	bx	lr
    1fce:	46c0      	nop			; (mov r8, r8)

00001fd0 <us_ticker_set_interrupt>:
    1fd0:	4b1b      	ldr	r3, [pc, #108]	; (2040 <us_ticker_set_interrupt+0x70>)
    1fd2:	b510      	push	{r4, lr}
    1fd4:	681b      	ldr	r3, [r3, #0]
    1fd6:	1c04      	adds	r4, r0, #0
    1fd8:	2b00      	cmp	r3, #0
    1fda:	d02b      	beq.n	2034 <us_ticker_set_interrupt+0x64>
    1fdc:	238a      	movs	r3, #138	; 0x8a
    1fde:	4a19      	ldr	r2, [pc, #100]	; (2044 <us_ticker_set_interrupt+0x74>)
    1fe0:	005b      	lsls	r3, r3, #1
    1fe2:	58d0      	ldr	r0, [r2, r3]
    1fe4:	43c0      	mvns	r0, r0
    1fe6:	1a20      	subs	r0, r4, r0
    1fe8:	2800      	cmp	r0, #0
    1fea:	dd26      	ble.n	203a <us_ticker_set_interrupt+0x6a>
    1fec:	4c16      	ldr	r4, [pc, #88]	; (2048 <us_ticker_set_interrupt+0x78>)
    1fee:	4917      	ldr	r1, [pc, #92]	; (204c <us_ticker_set_interrupt+0x7c>)
    1ff0:	1403      	asrs	r3, r0, #16
    1ff2:	6023      	str	r3, [r4, #0]
    1ff4:	8008      	strh	r0, [r1, #0]
    1ff6:	4a16      	ldr	r2, [pc, #88]	; (2050 <us_ticker_set_interrupt+0x80>)
    1ff8:	d10d      	bne.n	2016 <us_ticker_set_interrupt+0x46>
    1ffa:	0400      	lsls	r0, r0, #16
    1ffc:	0c00      	lsrs	r0, r0, #16
    1ffe:	6013      	str	r3, [r2, #0]
    2000:	6090      	str	r0, [r2, #8]
    2002:	6814      	ldr	r4, [r2, #0]
    2004:	2040      	movs	r0, #64	; 0x40
    2006:	4320      	orrs	r0, r4
    2008:	6010      	str	r0, [r2, #0]
    200a:	6814      	ldr	r4, [r2, #0]
    200c:	2001      	movs	r0, #1
    200e:	4320      	orrs	r0, r4
    2010:	6010      	str	r0, [r2, #0]
    2012:	800b      	strh	r3, [r1, #0]
    2014:	bd10      	pop	{r4, pc}
    2016:	2100      	movs	r1, #0
    2018:	6011      	str	r1, [r2, #0]
    201a:	490e      	ldr	r1, [pc, #56]	; (2054 <us_ticker_set_interrupt+0x84>)
    201c:	3b01      	subs	r3, #1
    201e:	6091      	str	r1, [r2, #8]
    2020:	6810      	ldr	r0, [r2, #0]
    2022:	2140      	movs	r1, #64	; 0x40
    2024:	4301      	orrs	r1, r0
    2026:	6011      	str	r1, [r2, #0]
    2028:	6810      	ldr	r0, [r2, #0]
    202a:	2101      	movs	r1, #1
    202c:	4301      	orrs	r1, r0
    202e:	6011      	str	r1, [r2, #0]
    2030:	6023      	str	r3, [r4, #0]
    2032:	e7ef      	b.n	2014 <us_ticker_set_interrupt+0x44>
    2034:	f7ff fe9e 	bl	1d74 <us_ticker_init>
    2038:	e7d0      	b.n	1fdc <us_ticker_set_interrupt+0xc>
    203a:	f000 fadd 	bl	25f8 <us_ticker_irq_handler>
    203e:	e7e9      	b.n	2014 <us_ticker_set_interrupt+0x44>
    2040:	1ffffa1c 	.word	0x1ffffa1c
    2044:	40037000 	.word	0x40037000
    2048:	1ffffa18 	.word	0x1ffffa18
    204c:	1ffffa20 	.word	0x1ffffa20
    2050:	40040000 	.word	0x40040000
    2054:	0000ffff 	.word	0x0000ffff

00002058 <mcgpllfll_frequency.part.0>:
    2058:	4a0d      	ldr	r2, [pc, #52]	; (2090 <mcgpllfll_frequency.part.0+0x38>)
    205a:	4b0e      	ldr	r3, [pc, #56]	; (2094 <mcgpllfll_frequency.part.0+0x3c>)
    205c:	b510      	push	{r4, lr}
    205e:	5898      	ldr	r0, [r3, r2]
    2060:	4a0d      	ldr	r2, [pc, #52]	; (2098 <mcgpllfll_frequency.part.0+0x40>)
    2062:	0f00      	lsrs	r0, r0, #28
    2064:	6812      	ldr	r2, [r2, #0]
    2066:	3001      	adds	r0, #1
    2068:	4350      	muls	r0, r2
    206a:	4a0c      	ldr	r2, [pc, #48]	; (209c <mcgpllfll_frequency.part.0+0x44>)
    206c:	7952      	ldrb	r2, [r2, #5]
    206e:	0651      	lsls	r1, r2, #25
    2070:	d507      	bpl.n	2082 <mcgpllfll_frequency.part.0+0x2a>
    2072:	4a0b      	ldr	r2, [pc, #44]	; (20a0 <mcgpllfll_frequency.part.0+0x48>)
    2074:	2180      	movs	r1, #128	; 0x80
    2076:	589c      	ldr	r4, [r3, r2]
    2078:	0249      	lsls	r1, r1, #9
    207a:	4321      	orrs	r1, r4
    207c:	5099      	str	r1, [r3, r2]
    207e:	0840      	lsrs	r0, r0, #1
    2080:	bd10      	pop	{r4, pc}
    2082:	4a07      	ldr	r2, [pc, #28]	; (20a0 <mcgpllfll_frequency.part.0+0x48>)
    2084:	4907      	ldr	r1, [pc, #28]	; (20a4 <mcgpllfll_frequency.part.0+0x4c>)
    2086:	589c      	ldr	r4, [r3, r2]
    2088:	4021      	ands	r1, r4
    208a:	5099      	str	r1, [r3, r2]
    208c:	e7f8      	b.n	2080 <mcgpllfll_frequency.part.0+0x28>
    208e:	46c0      	nop			; (mov r8, r8)
    2090:	00001044 	.word	0x00001044
    2094:	40047000 	.word	0x40047000
    2098:	1ffff248 	.word	0x1ffff248
    209c:	40064000 	.word	0x40064000
    20a0:	00001004 	.word	0x00001004
    20a4:	fffeffff 	.word	0xfffeffff

000020a8 <serial_baud>:
    20a8:	b5f8      	push	{r3, r4, r5, r6, r7, lr}
    20aa:	464f      	mov	r7, r9
    20ac:	4646      	mov	r6, r8
    20ae:	b4c0      	push	{r6, r7}
    20b0:	6803      	ldr	r3, [r0, #0]
    20b2:	1c0f      	adds	r7, r1, #0
    20b4:	78de      	ldrb	r6, [r3, #3]
    20b6:	78d9      	ldrb	r1, [r3, #3]
    20b8:	220c      	movs	r2, #12
    20ba:	4391      	bics	r1, r2
    20bc:	70d9      	strb	r1, [r3, #3]
    20be:	6805      	ldr	r5, [r0, #0]
    20c0:	4b4d      	ldr	r3, [pc, #308]	; (21f8 <serial_baud+0x150>)
    20c2:	1c04      	adds	r4, r0, #0
    20c4:	4016      	ands	r6, r2
    20c6:	429d      	cmp	r5, r3
    20c8:	d020      	beq.n	210c <serial_baud+0x64>
    20ca:	4b4c      	ldr	r3, [pc, #304]	; (21fc <serial_baud+0x154>)
    20cc:	4a4c      	ldr	r2, [pc, #304]	; (2200 <serial_baud+0x158>)
    20ce:	58d1      	ldr	r1, [r2, r3]
    20d0:	4b4c      	ldr	r3, [pc, #304]	; (2204 <serial_baud+0x15c>)
    20d2:	0349      	lsls	r1, r1, #13
    20d4:	0f49      	lsrs	r1, r1, #29
    20d6:	3101      	adds	r1, #1
    20d8:	6818      	ldr	r0, [r3, #0]
    20da:	f000 fb3f 	bl	275c <__aeabi_uidiv>
    20de:	0139      	lsls	r1, r7, #4
    20e0:	f000 fb3c 	bl	275c <__aeabi_uidiv>
    20e4:	7829      	ldrb	r1, [r5, #0]
    20e6:	231f      	movs	r3, #31
    20e8:	0a02      	lsrs	r2, r0, #8
    20ea:	4399      	bics	r1, r3
    20ec:	401a      	ands	r2, r3
    20ee:	1c0b      	adds	r3, r1, #0
    20f0:	4313      	orrs	r3, r2
    20f2:	702b      	strb	r3, [r5, #0]
    20f4:	6823      	ldr	r3, [r4, #0]
    20f6:	b2c0      	uxtb	r0, r0
    20f8:	785a      	ldrb	r2, [r3, #1]
    20fa:	7058      	strb	r0, [r3, #1]
    20fc:	6823      	ldr	r3, [r4, #0]
    20fe:	78da      	ldrb	r2, [r3, #3]
    2100:	4316      	orrs	r6, r2
    2102:	70de      	strb	r6, [r3, #3]
    2104:	bc0c      	pop	{r2, r3}
    2106:	4690      	mov	r8, r2
    2108:	4699      	mov	r9, r3
    210a:	bdf8      	pop	{r3, r4, r5, r6, r7, pc}
    210c:	493e      	ldr	r1, [pc, #248]	; (2208 <serial_baud+0x160>)
    210e:	780b      	ldrb	r3, [r1, #0]
    2110:	4689      	mov	r9, r1
    2112:	213f      	movs	r1, #63	; 0x3f
    2114:	4688      	mov	r8, r1
    2116:	438b      	bics	r3, r1
    2118:	d036      	beq.n	2188 <serial_baud+0xe0>
    211a:	4a39      	ldr	r2, [pc, #228]	; (2200 <serial_baud+0x158>)
    211c:	4b37      	ldr	r3, [pc, #220]	; (21fc <serial_baud+0x154>)
    211e:	58d3      	ldr	r3, [r2, r3]
    2120:	4a38      	ldr	r2, [pc, #224]	; (2204 <serial_baud+0x15c>)
    2122:	0f1b      	lsrs	r3, r3, #28
    2124:	6810      	ldr	r0, [r2, #0]
    2126:	3301      	adds	r3, #1
    2128:	4358      	muls	r0, r3
    212a:	4b37      	ldr	r3, [pc, #220]	; (2208 <serial_baud+0x160>)
    212c:	223f      	movs	r2, #63	; 0x3f
    212e:	7819      	ldrb	r1, [r3, #0]
    2130:	4391      	bics	r1, r2
    2132:	2980      	cmp	r1, #128	; 0x80
    2134:	d0d3      	beq.n	20de <serial_baud+0x36>
    2136:	7819      	ldrb	r1, [r3, #0]
    2138:	4391      	bics	r1, r2
    213a:	d135      	bne.n	21a8 <serial_baud+0x100>
    213c:	795a      	ldrb	r2, [r3, #5]
    213e:	0651      	lsls	r1, r2, #25
    2140:	d434      	bmi.n	21ac <serial_baud+0x104>
    2142:	799a      	ldrb	r2, [r3, #6]
    2144:	06d1      	lsls	r1, r2, #27
    2146:	d42f      	bmi.n	21a8 <serial_baud+0x100>
    2148:	781a      	ldrb	r2, [r3, #0]
    214a:	2101      	movs	r1, #1
    214c:	0692      	lsls	r2, r2, #26
    214e:	0f52      	lsrs	r2, r2, #29
    2150:	4091      	lsls	r1, r2
    2152:	785b      	ldrb	r3, [r3, #1]
    2154:	1c0a      	adds	r2, r1, #0
    2156:	2130      	movs	r1, #48	; 0x30
    2158:	4219      	tst	r1, r3
    215a:	d000      	beq.n	215e <serial_baud+0xb6>
    215c:	0152      	lsls	r2, r2, #5
    215e:	4b2a      	ldr	r3, [pc, #168]	; (2208 <serial_baud+0x160>)
    2160:	211f      	movs	r1, #31
    2162:	78db      	ldrb	r3, [r3, #3]
    2164:	438b      	bics	r3, r1
    2166:	2b60      	cmp	r3, #96	; 0x60
    2168:	d035      	beq.n	21d6 <serial_baud+0x12e>
    216a:	d82b      	bhi.n	21c4 <serial_baud+0x11c>
    216c:	2b20      	cmp	r3, #32
    216e:	d035      	beq.n	21dc <serial_baud+0x134>
    2170:	2b40      	cmp	r3, #64	; 0x40
    2172:	d036      	beq.n	21e2 <serial_baud+0x13a>
    2174:	2b00      	cmp	r3, #0
    2176:	d004      	beq.n	2182 <serial_baud+0xda>
    2178:	4924      	ldr	r1, [pc, #144]	; (220c <serial_baud+0x164>)
    217a:	4350      	muls	r0, r2
    217c:	f000 faee 	bl	275c <__aeabi_uidiv>
    2180:	e7ad      	b.n	20de <serial_baud+0x36>
    2182:	21a0      	movs	r1, #160	; 0xa0
    2184:	0089      	lsls	r1, r1, #2
    2186:	e7f8      	b.n	217a <serial_baud+0xd2>
    2188:	f7ff ff66 	bl	2058 <mcgpllfll_frequency.part.0>
    218c:	2800      	cmp	r0, #0
    218e:	d030      	beq.n	21f2 <serial_baud+0x14a>
    2190:	4649      	mov	r1, r9
    2192:	780b      	ldrb	r3, [r1, #0]
    2194:	4642      	mov	r2, r8
    2196:	4393      	bics	r3, r2
    2198:	d002      	beq.n	21a0 <serial_baud+0xf8>
    219a:	6825      	ldr	r5, [r4, #0]
    219c:	2000      	movs	r0, #0
    219e:	e79e      	b.n	20de <serial_baud+0x36>
    21a0:	f7ff ff5a 	bl	2058 <mcgpllfll_frequency.part.0>
    21a4:	6825      	ldr	r5, [r4, #0]
    21a6:	e79a      	b.n	20de <serial_baud+0x36>
    21a8:	2000      	movs	r0, #0
    21aa:	e798      	b.n	20de <serial_baud+0x36>
    21ac:	791a      	ldrb	r2, [r3, #4]
    21ae:	7959      	ldrb	r1, [r3, #5]
    21b0:	231f      	movs	r3, #31
    21b2:	401a      	ands	r2, r3
    21b4:	400b      	ands	r3, r1
    21b6:	3201      	adds	r2, #1
    21b8:	1c19      	adds	r1, r3, #0
    21ba:	4350      	muls	r0, r2
    21bc:	3118      	adds	r1, #24
    21be:	f000 facd 	bl	275c <__aeabi_uidiv>
    21c2:	e78c      	b.n	20de <serial_baud+0x36>
    21c4:	2ba0      	cmp	r3, #160	; 0xa0
    21c6:	d011      	beq.n	21ec <serial_baud+0x144>
    21c8:	2bc0      	cmp	r3, #192	; 0xc0
    21ca:	d00d      	beq.n	21e8 <serial_baud+0x140>
    21cc:	2b80      	cmp	r3, #128	; 0x80
    21ce:	d1d3      	bne.n	2178 <serial_baud+0xd0>
    21d0:	21b7      	movs	r1, #183	; 0xb7
    21d2:	0089      	lsls	r1, r1, #2
    21d4:	e7d1      	b.n	217a <serial_baud+0xd2>
    21d6:	21a0      	movs	r1, #160	; 0xa0
    21d8:	0109      	lsls	r1, r1, #4
    21da:	e7ce      	b.n	217a <serial_baud+0xd2>
    21dc:	21a0      	movs	r1, #160	; 0xa0
    21de:	00c9      	lsls	r1, r1, #3
    21e0:	e7cb      	b.n	217a <serial_baud+0xd2>
    21e2:	21f0      	movs	r1, #240	; 0xf0
    21e4:	00c9      	lsls	r1, r1, #3
    21e6:	e7c8      	b.n	217a <serial_baud+0xd2>
    21e8:	4909      	ldr	r1, [pc, #36]	; (2210 <serial_baud+0x168>)
    21ea:	e7c6      	b.n	217a <serial_baud+0xd2>
    21ec:	21b7      	movs	r1, #183	; 0xb7
    21ee:	00c9      	lsls	r1, r1, #3
    21f0:	e7c3      	b.n	217a <serial_baud+0xd2>
    21f2:	6825      	ldr	r5, [r4, #0]
    21f4:	e791      	b.n	211a <serial_baud+0x72>
    21f6:	46c0      	nop			; (mov r8, r8)
    21f8:	4006a000 	.word	0x4006a000
    21fc:	00001044 	.word	0x00001044
    2200:	40047000 	.word	0x40047000
    2204:	1ffff248 	.word	0x1ffff248
    2208:	40064000 	.word	0x40064000
    220c:	00000b71 	.word	0x00000b71
    2210:	00000895 	.word	0x00000895

00002214 <serial_format>:
    2214:	b570      	push	{r4, r5, r6, lr}
    2216:	6801      	ldr	r1, [r0, #0]
    2218:	240c      	movs	r4, #12
    221a:	78cd      	ldrb	r5, [r1, #3]
    221c:	78ce      	ldrb	r6, [r1, #3]
    221e:	4025      	ands	r5, r4
    2220:	43a6      	bics	r6, r4
    2222:	70ce      	strb	r6, [r1, #3]
    2224:	2a01      	cmp	r2, #1
    2226:	d019      	beq.n	225c <serial_format+0x48>
    2228:	2a00      	cmp	r2, #0
    222a:	d019      	beq.n	2260 <serial_format+0x4c>
    222c:	1e91      	subs	r1, r2, #2
    222e:	424a      	negs	r2, r1
    2230:	4151      	adcs	r1, r2
    2232:	0049      	lsls	r1, r1, #1
    2234:	6802      	ldr	r2, [r0, #0]
    2236:	2420      	movs	r4, #32
    2238:	7091      	strb	r1, [r2, #2]
    223a:	6802      	ldr	r2, [r0, #0]
    223c:	3b01      	subs	r3, #1
    223e:	7811      	ldrb	r1, [r2, #0]
    2240:	015b      	lsls	r3, r3, #5
    2242:	43a1      	bics	r1, r4
    2244:	7011      	strb	r1, [r2, #0]
    2246:	6802      	ldr	r2, [r0, #0]
    2248:	7811      	ldrb	r1, [r2, #0]
    224a:	430b      	orrs	r3, r1
    224c:	b2db      	uxtb	r3, r3
    224e:	7013      	strb	r3, [r2, #0]
    2250:	6803      	ldr	r3, [r0, #0]
    2252:	1c2a      	adds	r2, r5, #0
    2254:	78d9      	ldrb	r1, [r3, #3]
    2256:	430a      	orrs	r2, r1
    2258:	70da      	strb	r2, [r3, #3]
    225a:	bd70      	pop	{r4, r5, r6, pc}
    225c:	2103      	movs	r1, #3
    225e:	e7e9      	b.n	2234 <serial_format+0x20>
    2260:	2100      	movs	r1, #0
    2262:	e7e7      	b.n	2234 <serial_format+0x20>

00002264 <serial_init>:
    2264:	b5f8      	push	{r3, r4, r5, r6, r7, lr}
    2266:	464d      	mov	r5, r9
    2268:	4644      	mov	r4, r8
    226a:	465f      	mov	r7, r11
    226c:	4656      	mov	r6, r10
    226e:	b4f0      	push	{r4, r5, r6, r7}
    2270:	1c05      	adds	r5, r0, #0
    2272:	4856      	ldr	r0, [pc, #344]	; (23cc <serial_init+0x168>)
    2274:	1c0f      	adds	r7, r1, #0
    2276:	4681      	mov	r9, r0
    2278:	1c08      	adds	r0, r1, #0
    227a:	4649      	mov	r1, r9
    227c:	1c16      	adds	r6, r2, #0
    227e:	f000 f9a3 	bl	25c8 <pinmap_peripheral>
    2282:	4953      	ldr	r1, [pc, #332]	; (23d0 <serial_init+0x16c>)
    2284:	1c04      	adds	r4, r0, #0
    2286:	1c30      	adds	r0, r6, #0
    2288:	4688      	mov	r8, r1
    228a:	f000 f99d 	bl	25c8 <pinmap_peripheral>
    228e:	1c01      	adds	r1, r0, #0
    2290:	1c20      	adds	r0, r4, #0
    2292:	f000 f987 	bl	25a4 <pinmap_merge>
    2296:	4b4f      	ldr	r3, [pc, #316]	; (23d4 <serial_init+0x170>)
    2298:	1c04      	adds	r4, r0, #0
    229a:	6028      	str	r0, [r5, #0]
    229c:	4298      	cmp	r0, r3
    229e:	d061      	beq.n	2364 <serial_init+0x100>
    22a0:	4a4d      	ldr	r2, [pc, #308]	; (23d8 <serial_init+0x174>)
    22a2:	4290      	cmp	r0, r2
    22a4:	d06c      	beq.n	2380 <serial_init+0x11c>
    22a6:	484d      	ldr	r0, [pc, #308]	; (23dc <serial_init+0x178>)
    22a8:	4683      	mov	r11, r0
    22aa:	4284      	cmp	r4, r0
    22ac:	d036      	beq.n	231c <serial_init+0xb8>
    22ae:	78e1      	ldrb	r1, [r4, #3]
    22b0:	200c      	movs	r0, #12
    22b2:	4381      	bics	r1, r0
    22b4:	70e1      	strb	r1, [r4, #3]
    22b6:	429c      	cmp	r4, r3
    22b8:	d05f      	beq.n	237a <serial_init+0x116>
    22ba:	4294      	cmp	r4, r2
    22bc:	d06b      	beq.n	2396 <serial_init+0x132>
    22be:	455c      	cmp	r4, r11
    22c0:	d04d      	beq.n	235e <serial_init+0xfa>
    22c2:	2196      	movs	r1, #150	; 0x96
    22c4:	1c28      	adds	r0, r5, #0
    22c6:	0189      	lsls	r1, r1, #6
    22c8:	f7ff feee 	bl	20a8 <serial_baud>
    22cc:	1c28      	adds	r0, r5, #0
    22ce:	2108      	movs	r1, #8
    22d0:	2200      	movs	r2, #0
    22d2:	2301      	movs	r3, #1
    22d4:	f7ff ff9e 	bl	2214 <serial_format>
    22d8:	1c38      	adds	r0, r7, #0
    22da:	4649      	mov	r1, r9
    22dc:	f000 f946 	bl	256c <pinmap_pinout>
    22e0:	4641      	mov	r1, r8
    22e2:	1c30      	adds	r0, r6, #0
    22e4:	f000 f942 	bl	256c <pinmap_pinout>
    22e8:	1c79      	adds	r1, r7, #1
    22ea:	d003      	beq.n	22f4 <serial_init+0x90>
    22ec:	1c38      	adds	r0, r7, #0
    22ee:	2102      	movs	r1, #2
    22f0:	f000 fa10 	bl	2714 <pin_mode>
    22f4:	1c72      	adds	r2, r6, #1
    22f6:	d003      	beq.n	2300 <serial_init+0x9c>
    22f8:	1c30      	adds	r0, r6, #0
    22fa:	2102      	movs	r1, #2
    22fc:	f000 fa0a 	bl	2714 <pin_mode>
    2300:	682b      	ldr	r3, [r5, #0]
    2302:	220c      	movs	r2, #12
    2304:	78d9      	ldrb	r1, [r3, #3]
    2306:	430a      	orrs	r2, r1
    2308:	70da      	strb	r2, [r3, #3]
    230a:	4b34      	ldr	r3, [pc, #208]	; (23dc <serial_init+0x178>)
    230c:	429c      	cmp	r4, r3
    230e:	d052      	beq.n	23b6 <serial_init+0x152>
    2310:	bc3c      	pop	{r2, r3, r4, r5}
    2312:	4690      	mov	r8, r2
    2314:	4699      	mov	r9, r3
    2316:	46a2      	mov	r10, r4
    2318:	46ab      	mov	r11, r5
    231a:	bdf8      	pop	{r3, r4, r5, r6, r7, pc}
    231c:	4b30      	ldr	r3, [pc, #192]	; (23e0 <serial_init+0x17c>)
    231e:	781a      	ldrb	r2, [r3, #0]
    2320:	233f      	movs	r3, #63	; 0x3f
    2322:	439a      	bics	r2, r3
    2324:	1c23      	adds	r3, r4, #0
    2326:	2a00      	cmp	r2, #0
    2328:	d038      	beq.n	239c <serial_init+0x138>
    232a:	492e      	ldr	r1, [pc, #184]	; (23e4 <serial_init+0x180>)
    232c:	4a2e      	ldr	r2, [pc, #184]	; (23e8 <serial_init+0x184>)
    232e:	2080      	movs	r0, #128	; 0x80
    2330:	4693      	mov	r11, r2
    2332:	588a      	ldr	r2, [r1, r2]
    2334:	4692      	mov	r10, r2
    2336:	0502      	lsls	r2, r0, #20
    2338:	4650      	mov	r0, r10
    233a:	4310      	orrs	r0, r2
    233c:	465a      	mov	r2, r11
    233e:	5088      	str	r0, [r1, r2]
    2340:	4928      	ldr	r1, [pc, #160]	; (23e4 <serial_init+0x180>)
    2342:	482a      	ldr	r0, [pc, #168]	; (23ec <serial_init+0x188>)
    2344:	2280      	movs	r2, #128	; 0x80
    2346:	4683      	mov	r11, r0
    2348:	5808      	ldr	r0, [r1, r0]
    234a:	4682      	mov	r10, r0
    234c:	00d0      	lsls	r0, r2, #3
    234e:	4652      	mov	r2, r10
    2350:	4302      	orrs	r2, r0
    2352:	4658      	mov	r0, r11
    2354:	500a      	str	r2, [r1, r0]
    2356:	78da      	ldrb	r2, [r3, #3]
    2358:	210c      	movs	r1, #12
    235a:	438a      	bics	r2, r1
    235c:	70da      	strb	r2, [r3, #3]
    235e:	2300      	movs	r3, #0
    2360:	606b      	str	r3, [r5, #4]
    2362:	e7ae      	b.n	22c2 <serial_init+0x5e>
    2364:	4a1f      	ldr	r2, [pc, #124]	; (23e4 <serial_init+0x180>)
    2366:	4b21      	ldr	r3, [pc, #132]	; (23ec <serial_init+0x188>)
    2368:	2180      	movs	r1, #128	; 0x80
    236a:	58d0      	ldr	r0, [r2, r3]
    236c:	0109      	lsls	r1, r1, #4
    236e:	4301      	orrs	r1, r0
    2370:	50d1      	str	r1, [r2, r3]
    2372:	78e3      	ldrb	r3, [r4, #3]
    2374:	220c      	movs	r2, #12
    2376:	4393      	bics	r3, r2
    2378:	70e3      	strb	r3, [r4, #3]
    237a:	2301      	movs	r3, #1
    237c:	606b      	str	r3, [r5, #4]
    237e:	e7a0      	b.n	22c2 <serial_init+0x5e>
    2380:	4a18      	ldr	r2, [pc, #96]	; (23e4 <serial_init+0x180>)
    2382:	4b1a      	ldr	r3, [pc, #104]	; (23ec <serial_init+0x188>)
    2384:	2180      	movs	r1, #128	; 0x80
    2386:	58d0      	ldr	r0, [r2, r3]
    2388:	0149      	lsls	r1, r1, #5
    238a:	4301      	orrs	r1, r0
    238c:	50d1      	str	r1, [r2, r3]
    238e:	78e3      	ldrb	r3, [r4, #3]
    2390:	220c      	movs	r2, #12
    2392:	4393      	bics	r3, r2
    2394:	70e3      	strb	r3, [r4, #3]
    2396:	2302      	movs	r3, #2
    2398:	606b      	str	r3, [r5, #4]
    239a:	e792      	b.n	22c2 <serial_init+0x5e>
    239c:	f7ff fe5c 	bl	2058 <mcgpllfll_frequency.part.0>
    23a0:	2800      	cmp	r0, #0
    23a2:	d011      	beq.n	23c8 <serial_init+0x164>
    23a4:	4b10      	ldr	r3, [pc, #64]	; (23e8 <serial_init+0x184>)
    23a6:	4a0f      	ldr	r2, [pc, #60]	; (23e4 <serial_init+0x180>)
    23a8:	2180      	movs	r1, #128	; 0x80
    23aa:	58d0      	ldr	r0, [r2, r3]
    23ac:	04c9      	lsls	r1, r1, #19
    23ae:	4301      	orrs	r1, r0
    23b0:	50d1      	str	r1, [r2, r3]
    23b2:	682b      	ldr	r3, [r5, #0]
    23b4:	e7c4      	b.n	2340 <serial_init+0xdc>
    23b6:	4b0e      	ldr	r3, [pc, #56]	; (23f0 <serial_init+0x18c>)
    23b8:	2201      	movs	r2, #1
    23ba:	601a      	str	r2, [r3, #0]
    23bc:	1c29      	adds	r1, r5, #0
    23be:	2208      	movs	r2, #8
    23c0:	480c      	ldr	r0, [pc, #48]	; (23f4 <serial_init+0x190>)
    23c2:	f001 fb9f 	bl	3b04 <memcpy>
    23c6:	e7a3      	b.n	2310 <serial_init+0xac>
    23c8:	682b      	ldr	r3, [r5, #0]
    23ca:	e7ae      	b.n	232a <serial_init+0xc6>
    23cc:	00006ec4 	.word	0x00006ec4
    23d0:	00006e58 	.word	0x00006e58
    23d4:	4006b000 	.word	0x4006b000
    23d8:	4006c000 	.word	0x4006c000
    23dc:	4006a000 	.word	0x4006a000
    23e0:	40064000 	.word	0x40064000
    23e4:	40047000 	.word	0x40047000
    23e8:	00001004 	.word	0x00001004
    23ec:	00001034 	.word	0x00001034
    23f0:	1ffffa24 	.word	0x1ffffa24
    23f4:	1ffffa38 	.word	0x1ffffa38

000023f8 <serial_getc>:
    23f8:	6803      	ldr	r3, [r0, #0]
    23fa:	b530      	push	{r4, r5, lr}
    23fc:	2120      	movs	r1, #32
    23fe:	2508      	movs	r5, #8
    2400:	2408      	movs	r4, #8
    2402:	791a      	ldrb	r2, [r3, #4]
    2404:	4214      	tst	r4, r2
    2406:	d004      	beq.n	2412 <serial_getc+0x1a>
    2408:	791a      	ldrb	r2, [r3, #4]
    240a:	432a      	orrs	r2, r5
    240c:	b2d2      	uxtb	r2, r2
    240e:	711a      	strb	r2, [r3, #4]
    2410:	6803      	ldr	r3, [r0, #0]
    2412:	791a      	ldrb	r2, [r3, #4]
    2414:	4211      	tst	r1, r2
    2416:	d0f4      	beq.n	2402 <serial_getc+0xa>
    2418:	79d8      	ldrb	r0, [r3, #7]
    241a:	b2c0      	uxtb	r0, r0
    241c:	bd30      	pop	{r4, r5, pc}
    241e:	46c0      	nop			; (mov r8, r8)

00002420 <serial_putc>:
    2420:	6803      	ldr	r3, [r0, #0]
    2422:	b570      	push	{r4, r5, r6, lr}
    2424:	2608      	movs	r6, #8
    2426:	2508      	movs	r5, #8
    2428:	247f      	movs	r4, #127	; 0x7f
    242a:	791a      	ldrb	r2, [r3, #4]
    242c:	4215      	tst	r5, r2
    242e:	d004      	beq.n	243a <serial_putc+0x1a>
    2430:	791a      	ldrb	r2, [r3, #4]
    2432:	4332      	orrs	r2, r6
    2434:	b2d2      	uxtb	r2, r2
    2436:	711a      	strb	r2, [r3, #4]
    2438:	6803      	ldr	r3, [r0, #0]
    243a:	791a      	ldrb	r2, [r3, #4]
    243c:	43a2      	bics	r2, r4
    243e:	d0f4      	beq.n	242a <serial_putc+0xa>
    2440:	b2c9      	uxtb	r1, r1
    2442:	71d9      	strb	r1, [r3, #7]
    2444:	bd70      	pop	{r4, r5, r6, pc}
    2446:	46c0      	nop			; (mov r8, r8)

00002448 <SystemInit>:
    2448:	4b22      	ldr	r3, [pc, #136]	; (24d4 <SystemInit+0x8c>)
    244a:	2188      	movs	r1, #136	; 0x88
    244c:	2200      	movs	r2, #0
    244e:	0149      	lsls	r1, r1, #5
    2450:	b510      	push	{r4, lr}
    2452:	505a      	str	r2, [r3, r1]
    2454:	4920      	ldr	r1, [pc, #128]	; (24d8 <SystemInit+0x90>)
    2456:	2080      	movs	r0, #128	; 0x80
    2458:	585c      	ldr	r4, [r3, r1]
    245a:	0080      	lsls	r0, r0, #2
    245c:	4320      	orrs	r0, r4
    245e:	5058      	str	r0, [r3, r1]
    2460:	481e      	ldr	r0, [pc, #120]	; (24dc <SystemInit+0x94>)
    2462:	491f      	ldr	r1, [pc, #124]	; (24e0 <SystemInit+0x98>)
    2464:	5058      	str	r0, [r3, r1]
    2466:	4b1f      	ldr	r3, [pc, #124]	; (24e4 <SystemInit+0x9c>)
    2468:	491f      	ldr	r1, [pc, #124]	; (24e8 <SystemInit+0xa0>)
    246a:	6c98      	ldr	r0, [r3, #72]	; 0x48
    246c:	4008      	ands	r0, r1
    246e:	6498      	str	r0, [r3, #72]	; 0x48
    2470:	6cd8      	ldr	r0, [r3, #76]	; 0x4c
    2472:	4001      	ands	r1, r0
    2474:	64d9      	str	r1, [r3, #76]	; 0x4c
    2476:	4b1d      	ldr	r3, [pc, #116]	; (24ec <SystemInit+0xa4>)
    2478:	2189      	movs	r1, #137	; 0x89
    247a:	7019      	strb	r1, [r3, #0]
    247c:	491c      	ldr	r1, [pc, #112]	; (24f0 <SystemInit+0xa8>)
    247e:	2324      	movs	r3, #36	; 0x24
    2480:	704b      	strb	r3, [r1, #1]
    2482:	239a      	movs	r3, #154	; 0x9a
    2484:	700b      	strb	r3, [r1, #0]
    2486:	78cb      	ldrb	r3, [r1, #3]
    2488:	201f      	movs	r0, #31
    248a:	4003      	ands	r3, r0
    248c:	70cb      	strb	r3, [r1, #3]
    248e:	2301      	movs	r3, #1
    2490:	710b      	strb	r3, [r1, #4]
    2492:	714a      	strb	r2, [r1, #5]
    2494:	2210      	movs	r2, #16
    2496:	798b      	ldrb	r3, [r1, #6]
    2498:	421a      	tst	r2, r3
    249a:	d1fc      	bne.n	2496 <SystemInit+0x4e>
    249c:	4814      	ldr	r0, [pc, #80]	; (24f0 <SystemInit+0xa8>)
    249e:	210c      	movs	r1, #12
    24a0:	7983      	ldrb	r3, [r0, #6]
    24a2:	4a13      	ldr	r2, [pc, #76]	; (24f0 <SystemInit+0xa8>)
    24a4:	400b      	ands	r3, r1
    24a6:	2b08      	cmp	r3, #8
    24a8:	d1fa      	bne.n	24a0 <SystemInit+0x58>
    24aa:	2340      	movs	r3, #64	; 0x40
    24ac:	7153      	strb	r3, [r2, #5]
    24ae:	210c      	movs	r1, #12
    24b0:	7993      	ldrb	r3, [r2, #6]
    24b2:	400b      	ands	r3, r1
    24b4:	2b08      	cmp	r3, #8
    24b6:	d1fb      	bne.n	24b0 <SystemInit+0x68>
    24b8:	480d      	ldr	r0, [pc, #52]	; (24f0 <SystemInit+0xa8>)
    24ba:	2140      	movs	r1, #64	; 0x40
    24bc:	7983      	ldrb	r3, [r0, #6]
    24be:	4a0c      	ldr	r2, [pc, #48]	; (24f0 <SystemInit+0xa8>)
    24c0:	4219      	tst	r1, r3
    24c2:	d0fb      	beq.n	24bc <SystemInit+0x74>
    24c4:	231a      	movs	r3, #26
    24c6:	7013      	strb	r3, [r2, #0]
    24c8:	210c      	movs	r1, #12
    24ca:	7993      	ldrb	r3, [r2, #6]
    24cc:	400b      	ands	r3, r1
    24ce:	2b0c      	cmp	r3, #12
    24d0:	d1fb      	bne.n	24ca <SystemInit+0x82>
    24d2:	bd10      	pop	{r4, pc}
    24d4:	40047000 	.word	0x40047000
    24d8:	00001038 	.word	0x00001038
    24dc:	10010000 	.word	0x10010000
    24e0:	00001044 	.word	0x00001044
    24e4:	40049000 	.word	0x40049000
    24e8:	fefff8ff 	.word	0xfefff8ff
    24ec:	40065000 	.word	0x40065000
    24f0:	40064000 	.word	0x40064000

000024f4 <mbed_die>:
    24f4:	b500      	push	{lr}
    24f6:	b087      	sub	sp, #28
    24f8:	b672      	cpsid	i
    24fa:	4908      	ldr	r1, [pc, #32]	; (251c <mbed_die+0x28>)
    24fc:	4668      	mov	r0, sp
    24fe:	f000 f821 	bl	2544 <gpio_init_out>
    2502:	9b03      	ldr	r3, [sp, #12]
    2504:	9a01      	ldr	r2, [sp, #4]
    2506:	2096      	movs	r0, #150	; 0x96
    2508:	601a      	str	r2, [r3, #0]
    250a:	f7ff fb35 	bl	1b78 <wait_ms>
    250e:	9b04      	ldr	r3, [sp, #16]
    2510:	9a01      	ldr	r2, [sp, #4]
    2512:	2096      	movs	r0, #150	; 0x96
    2514:	601a      	str	r2, [r3, #0]
    2516:	f7ff fb2f 	bl	1b78 <wait_ms>
    251a:	e7f2      	b.n	2502 <mbed_die+0xe>
    251c:	00001048 	.word	0x00001048

00002520 <error>:
    2520:	b40f      	push	{r0, r1, r2, r3}
    2522:	b500      	push	{lr}
    2524:	b083      	sub	sp, #12
    2526:	aa04      	add	r2, sp, #16
    2528:	ca08      	ldmia	r2!, {r3}
    252a:	4b05      	ldr	r3, [pc, #20]	; (2540 <error+0x20>)
    252c:	9904      	ldr	r1, [sp, #16]
    252e:	681b      	ldr	r3, [r3, #0]
    2530:	9201      	str	r2, [sp, #4]
    2532:	68d8      	ldr	r0, [r3, #12]
    2534:	f001 fd28 	bl	3f88 <vfiprintf>
    2538:	2001      	movs	r0, #1
    253a:	f7ff fad5 	bl	1ae8 <exit>
    253e:	46c0      	nop			; (mov r8, r8)
    2540:	1ffff2ac 	.word	0x1ffff2ac

00002544 <gpio_init_out>:
    2544:	b538      	push	{r3, r4, r5, lr}
    2546:	1c0d      	adds	r5, r1, #0
    2548:	1c04      	adds	r4, r0, #0
    254a:	f000 f88d 	bl	2668 <gpio_init>
    254e:	3501      	adds	r5, #1
    2550:	d00a      	beq.n	2568 <gpio_init_out+0x24>
    2552:	6923      	ldr	r3, [r4, #16]
    2554:	6862      	ldr	r2, [r4, #4]
    2556:	1c20      	adds	r0, r4, #0
    2558:	2101      	movs	r1, #1
    255a:	601a      	str	r2, [r3, #0]
    255c:	f000 f8a8 	bl	26b0 <gpio_dir>
    2560:	1c20      	adds	r0, r4, #0
    2562:	2100      	movs	r1, #0
    2564:	f000 f89e 	bl	26a4 <gpio_mode>
    2568:	bd38      	pop	{r3, r4, r5, pc}
    256a:	46c0      	nop			; (mov r8, r8)

0000256c <pinmap_pinout>:
    256c:	b510      	push	{r4, lr}
    256e:	1c04      	adds	r4, r0, #0
    2570:	1c42      	adds	r2, r0, #1
    2572:	d103      	bne.n	257c <pinmap_pinout+0x10>
    2574:	e009      	b.n	258a <pinmap_pinout+0x1e>
    2576:	429c      	cmp	r4, r3
    2578:	d008      	beq.n	258c <pinmap_pinout+0x20>
    257a:	310c      	adds	r1, #12
    257c:	2200      	movs	r2, #0
    257e:	5e8b      	ldrsh	r3, [r1, r2]
    2580:	1c5a      	adds	r2, r3, #1
    2582:	d1f8      	bne.n	2576 <pinmap_pinout+0xa>
    2584:	4806      	ldr	r0, [pc, #24]	; (25a0 <pinmap_pinout+0x34>)
    2586:	f7ff ffcb 	bl	2520 <error>
    258a:	bd10      	pop	{r4, pc}
    258c:	1c20      	adds	r0, r4, #0
    258e:	6889      	ldr	r1, [r1, #8]
    2590:	f000 f89e 	bl	26d0 <pin_function>
    2594:	1c20      	adds	r0, r4, #0
    2596:	2100      	movs	r1, #0
    2598:	f000 f8bc 	bl	2714 <pin_mode>
    259c:	e7f5      	b.n	258a <pinmap_pinout+0x1e>
    259e:	46c0      	nop			; (mov r8, r8)
    25a0:	00006e10 	.word	0x00006e10

000025a4 <pinmap_merge>:
    25a4:	b508      	push	{r3, lr}
    25a6:	4288      	cmp	r0, r1
    25a8:	d008      	beq.n	25bc <pinmap_merge+0x18>
    25aa:	1c43      	adds	r3, r0, #1
    25ac:	d007      	beq.n	25be <pinmap_merge+0x1a>
    25ae:	3101      	adds	r1, #1
    25b0:	d004      	beq.n	25bc <pinmap_merge+0x18>
    25b2:	4804      	ldr	r0, [pc, #16]	; (25c4 <pinmap_merge+0x20>)
    25b4:	f7ff ffb4 	bl	2520 <error>
    25b8:	2001      	movs	r0, #1
    25ba:	4240      	negs	r0, r0
    25bc:	bd08      	pop	{r3, pc}
    25be:	1c08      	adds	r0, r1, #0
    25c0:	e7fc      	b.n	25bc <pinmap_merge+0x18>
    25c2:	46c0      	nop			; (mov r8, r8)
    25c4:	00006e24 	.word	0x00006e24

000025c8 <pinmap_peripheral>:
    25c8:	1c02      	adds	r2, r0, #0
    25ca:	b508      	push	{r3, lr}
    25cc:	1c53      	adds	r3, r2, #1
    25ce:	d103      	bne.n	25d8 <pinmap_peripheral+0x10>
    25d0:	e00b      	b.n	25ea <pinmap_peripheral+0x22>
    25d2:	429a      	cmp	r2, r3
    25d4:	d00a      	beq.n	25ec <pinmap_peripheral+0x24>
    25d6:	310c      	adds	r1, #12
    25d8:	2000      	movs	r0, #0
    25da:	5e0b      	ldrsh	r3, [r1, r0]
    25dc:	1c58      	adds	r0, r3, #1
    25de:	d1f8      	bne.n	25d2 <pinmap_peripheral+0xa>
    25e0:	4804      	ldr	r0, [pc, #16]	; (25f4 <pinmap_peripheral+0x2c>)
    25e2:	f7ff ff9d 	bl	2520 <error>
    25e6:	2001      	movs	r0, #1
    25e8:	4240      	negs	r0, r0
    25ea:	bd08      	pop	{r3, pc}
    25ec:	6848      	ldr	r0, [r1, #4]
    25ee:	1c43      	adds	r3, r0, #1
    25f0:	d1fb      	bne.n	25ea <pinmap_peripheral+0x22>
    25f2:	e7f5      	b.n	25e0 <pinmap_peripheral+0x18>
    25f4:	00006e38 	.word	0x00006e38

000025f8 <us_ticker_irq_handler>:
    25f8:	b5f8      	push	{r3, r4, r5, r6, r7, lr}
    25fa:	464f      	mov	r7, r9
    25fc:	4646      	mov	r6, r8
    25fe:	b4c0      	push	{r6, r7}
    2600:	f7ff fce4 	bl	1fcc <us_ticker_clear_interrupt>
    2604:	4816      	ldr	r0, [pc, #88]	; (2660 <us_ticker_irq_handler+0x68>)
    2606:	4a17      	ldr	r2, [pc, #92]	; (2664 <us_ticker_irq_handler+0x6c>)
    2608:	4680      	mov	r8, r0
    260a:	4691      	mov	r9, r2
    260c:	4640      	mov	r0, r8
    260e:	6803      	ldr	r3, [r0, #0]
    2610:	e012      	b.n	2638 <us_ticker_irq_handler+0x40>
    2612:	681c      	ldr	r4, [r3, #0]
    2614:	685d      	ldr	r5, [r3, #4]
    2616:	f7ff fcbf 	bl	1f98 <us_ticker_read>
    261a:	2700      	movs	r7, #0
    261c:	1c06      	adds	r6, r0, #0
    261e:	1ba4      	subs	r4, r4, r6
    2620:	41bd      	sbcs	r5, r7
    2622:	2d00      	cmp	r5, #0
    2624:	dc12      	bgt.n	264c <us_ticker_irq_handler+0x54>
    2626:	d00f      	beq.n	2648 <us_ticker_irq_handler+0x50>
    2628:	4642      	mov	r2, r8
    262a:	6811      	ldr	r1, [r2, #0]
    262c:	4648      	mov	r0, r9
    262e:	68cb      	ldr	r3, [r1, #12]
    2630:	6013      	str	r3, [r2, #0]
    2632:	6802      	ldr	r2, [r0, #0]
    2634:	2a00      	cmp	r2, #0
    2636:	d110      	bne.n	265a <us_ticker_irq_handler+0x62>
    2638:	2b00      	cmp	r3, #0
    263a:	d1ea      	bne.n	2612 <us_ticker_irq_handler+0x1a>
    263c:	f7ff fcbe 	bl	1fbc <us_ticker_disable_interrupt>
    2640:	bc0c      	pop	{r2, r3}
    2642:	4690      	mov	r8, r2
    2644:	4699      	mov	r9, r3
    2646:	bdf8      	pop	{r3, r4, r5, r6, r7, pc}
    2648:	2c00      	cmp	r4, #0
    264a:	d0ed      	beq.n	2628 <us_ticker_irq_handler+0x30>
    264c:	4642      	mov	r2, r8
    264e:	6813      	ldr	r3, [r2, #0]
    2650:	6818      	ldr	r0, [r3, #0]
    2652:	6859      	ldr	r1, [r3, #4]
    2654:	f7ff fcbc 	bl	1fd0 <us_ticker_set_interrupt>
    2658:	e7f2      	b.n	2640 <us_ticker_irq_handler+0x48>
    265a:	6888      	ldr	r0, [r1, #8]
    265c:	4790      	blx	r2
    265e:	e7d5      	b.n	260c <us_ticker_irq_handler+0x14>
    2660:	1ffffa28 	.word	0x1ffffa28
    2664:	1ffffa2c 	.word	0x1ffffa2c

00002668 <gpio_init>:
    2668:	b538      	push	{r3, r4, r5, lr}
    266a:	1c04      	adds	r4, r0, #0
    266c:	1c0d      	adds	r5, r1, #0
    266e:	8021      	strh	r1, [r4, #0]
    2670:	1c4b      	adds	r3, r1, #1
    2672:	d014      	beq.n	269e <gpio_init+0x36>
    2674:	1c08      	adds	r0, r1, #0
    2676:	2101      	movs	r1, #1
    2678:	f000 f82a 	bl	26d0 <pin_function>
    267c:	066b      	lsls	r3, r5, #25
    267e:	0edb      	lsrs	r3, r3, #27
    2680:	2201      	movs	r2, #1
    2682:	409a      	lsls	r2, r3
    2684:	4b06      	ldr	r3, [pc, #24]	; (26a0 <gpio_init+0x38>)
    2686:	0b2d      	lsrs	r5, r5, #12
    2688:	18ed      	adds	r5, r5, r3
    268a:	01ad      	lsls	r5, r5, #6
    268c:	1d2b      	adds	r3, r5, #4
    268e:	60e3      	str	r3, [r4, #12]
    2690:	3304      	adds	r3, #4
    2692:	6123      	str	r3, [r4, #16]
    2694:	3514      	adds	r5, #20
    2696:	3308      	adds	r3, #8
    2698:	6062      	str	r2, [r4, #4]
    269a:	6163      	str	r3, [r4, #20]
    269c:	60a5      	str	r5, [r4, #8]
    269e:	bd38      	pop	{r3, r4, r5, pc}
    26a0:	03e03fc0 	.word	0x03e03fc0

000026a4 <gpio_mode>:
    26a4:	b508      	push	{r3, lr}
    26a6:	2300      	movs	r3, #0
    26a8:	5ec0      	ldrsh	r0, [r0, r3]
    26aa:	f000 f833 	bl	2714 <pin_mode>
    26ae:	bd08      	pop	{r3, pc}

000026b0 <gpio_dir>:
    26b0:	2900      	cmp	r1, #0
    26b2:	d007      	beq.n	26c4 <gpio_dir+0x14>
    26b4:	2901      	cmp	r1, #1
    26b6:	d104      	bne.n	26c2 <gpio_dir+0x12>
    26b8:	6883      	ldr	r3, [r0, #8]
    26ba:	6842      	ldr	r2, [r0, #4]
    26bc:	6819      	ldr	r1, [r3, #0]
    26be:	430a      	orrs	r2, r1
    26c0:	601a      	str	r2, [r3, #0]
    26c2:	4770      	bx	lr
    26c4:	6883      	ldr	r3, [r0, #8]
    26c6:	6841      	ldr	r1, [r0, #4]
    26c8:	681a      	ldr	r2, [r3, #0]
    26ca:	438a      	bics	r2, r1
    26cc:	601a      	str	r2, [r3, #0]
    26ce:	e7f8      	b.n	26c2 <gpio_dir+0x12>

000026d0 <pin_function>:
    26d0:	0b03      	lsrs	r3, r0, #12
    26d2:	b5f0      	push	{r4, r5, r6, r7, lr}
    26d4:	4a0b      	ldr	r2, [pc, #44]	; (2704 <pin_function+0x34>)
    26d6:	4c0c      	ldr	r4, [pc, #48]	; (2708 <pin_function+0x38>)
    26d8:	1c1d      	adds	r5, r3, #0
    26da:	3509      	adds	r5, #9
    26dc:	2701      	movs	r7, #1
    26de:	58a6      	ldr	r6, [r4, r2]
    26e0:	40af      	lsls	r7, r5
    26e2:	1c3d      	adds	r5, r7, #0
    26e4:	4335      	orrs	r5, r6
    26e6:	50a5      	str	r5, [r4, r2]
    26e8:	4a08      	ldr	r2, [pc, #32]	; (270c <pin_function+0x3c>)
    26ea:	189b      	adds	r3, r3, r2
    26ec:	227c      	movs	r2, #124	; 0x7c
    26ee:	031b      	lsls	r3, r3, #12
    26f0:	4010      	ands	r0, r2
    26f2:	1818      	adds	r0, r3, r0
    26f4:	6802      	ldr	r2, [r0, #0]
    26f6:	4b06      	ldr	r3, [pc, #24]	; (2710 <pin_function+0x40>)
    26f8:	401a      	ands	r2, r3
    26fa:	020b      	lsls	r3, r1, #8
    26fc:	1c11      	adds	r1, r2, #0
    26fe:	4319      	orrs	r1, r3
    2700:	6001      	str	r1, [r0, #0]
    2702:	bdf0      	pop	{r4, r5, r6, r7, pc}
    2704:	00001038 	.word	0x00001038
    2708:	40047000 	.word	0x40047000
    270c:	00040049 	.word	0x00040049
    2710:	fffff8ff 	.word	0xfffff8ff

00002714 <pin_mode>:
    2714:	4b03      	ldr	r3, [pc, #12]	; (2724 <pin_mode+0x10>)
    2716:	2203      	movs	r2, #3
    2718:	18c0      	adds	r0, r0, r3
    271a:	6803      	ldr	r3, [r0, #0]
    271c:	4393      	bics	r3, r2
    271e:	4319      	orrs	r1, r3
    2720:	6001      	str	r1, [r0, #0]
    2722:	4770      	bx	lr
    2724:	40049000 	.word	0x40049000

00002728 <__aeabi_atexit>:
    2728:	b508      	push	{r3, lr}
    272a:	1c03      	adds	r3, r0, #0
    272c:	1c08      	adds	r0, r1, #0
    272e:	1c19      	adds	r1, r3, #0
    2730:	f000 fff2 	bl	3718 <__cxa_atexit>
    2734:	bd08      	pop	{r3, pc}

00002736 <__cxa_guard_acquire>:
    2736:	6802      	ldr	r2, [r0, #0]
    2738:	b508      	push	{r3, lr}
    273a:	2301      	movs	r3, #1
    273c:	421a      	tst	r2, r3
    273e:	d107      	bne.n	2750 <__cxa_guard_acquire+0x1a>
    2740:	7842      	ldrb	r2, [r0, #1]
    2742:	2a00      	cmp	r2, #0
    2744:	d001      	beq.n	274a <__cxa_guard_acquire+0x14>
    2746:	f7fd ff45 	bl	5d4 <abort>
    274a:	7043      	strb	r3, [r0, #1]
    274c:	1c18      	adds	r0, r3, #0
    274e:	e000      	b.n	2752 <__cxa_guard_acquire+0x1c>
    2750:	2000      	movs	r0, #0
    2752:	bd08      	pop	{r3, pc}

00002754 <__cxa_guard_release>:
    2754:	2301      	movs	r3, #1
    2756:	6003      	str	r3, [r0, #0]
    2758:	4770      	bx	lr
	...

0000275c <__aeabi_uidiv>:
    275c:	2900      	cmp	r1, #0
    275e:	d034      	beq.n	27ca <.udivsi3_skip_div0_test+0x6a>

00002760 <.udivsi3_skip_div0_test>:
    2760:	2301      	movs	r3, #1
    2762:	2200      	movs	r2, #0
    2764:	b410      	push	{r4}
    2766:	4288      	cmp	r0, r1
    2768:	d32c      	bcc.n	27c4 <.udivsi3_skip_div0_test+0x64>
    276a:	2401      	movs	r4, #1
    276c:	0724      	lsls	r4, r4, #28
    276e:	42a1      	cmp	r1, r4
    2770:	d204      	bcs.n	277c <.udivsi3_skip_div0_test+0x1c>
    2772:	4281      	cmp	r1, r0
    2774:	d202      	bcs.n	277c <.udivsi3_skip_div0_test+0x1c>
    2776:	0109      	lsls	r1, r1, #4
    2778:	011b      	lsls	r3, r3, #4
    277a:	e7f8      	b.n	276e <.udivsi3_skip_div0_test+0xe>
    277c:	00e4      	lsls	r4, r4, #3
    277e:	42a1      	cmp	r1, r4
    2780:	d204      	bcs.n	278c <.udivsi3_skip_div0_test+0x2c>
    2782:	4281      	cmp	r1, r0
    2784:	d202      	bcs.n	278c <.udivsi3_skip_div0_test+0x2c>
    2786:	0049      	lsls	r1, r1, #1
    2788:	005b      	lsls	r3, r3, #1
    278a:	e7f8      	b.n	277e <.udivsi3_skip_div0_test+0x1e>
    278c:	4288      	cmp	r0, r1
    278e:	d301      	bcc.n	2794 <.udivsi3_skip_div0_test+0x34>
    2790:	1a40      	subs	r0, r0, r1
    2792:	431a      	orrs	r2, r3
    2794:	084c      	lsrs	r4, r1, #1
    2796:	42a0      	cmp	r0, r4
    2798:	d302      	bcc.n	27a0 <.udivsi3_skip_div0_test+0x40>
    279a:	1b00      	subs	r0, r0, r4
    279c:	085c      	lsrs	r4, r3, #1
    279e:	4322      	orrs	r2, r4
    27a0:	088c      	lsrs	r4, r1, #2
    27a2:	42a0      	cmp	r0, r4
    27a4:	d302      	bcc.n	27ac <.udivsi3_skip_div0_test+0x4c>
    27a6:	1b00      	subs	r0, r0, r4
    27a8:	089c      	lsrs	r4, r3, #2
    27aa:	4322      	orrs	r2, r4
    27ac:	08cc      	lsrs	r4, r1, #3
    27ae:	42a0      	cmp	r0, r4
    27b0:	d302      	bcc.n	27b8 <.udivsi3_skip_div0_test+0x58>
    27b2:	1b00      	subs	r0, r0, r4
    27b4:	08dc      	lsrs	r4, r3, #3
    27b6:	4322      	orrs	r2, r4
    27b8:	2800      	cmp	r0, #0
    27ba:	d003      	beq.n	27c4 <.udivsi3_skip_div0_test+0x64>
    27bc:	091b      	lsrs	r3, r3, #4
    27be:	d001      	beq.n	27c4 <.udivsi3_skip_div0_test+0x64>
    27c0:	0909      	lsrs	r1, r1, #4
    27c2:	e7e3      	b.n	278c <.udivsi3_skip_div0_test+0x2c>
    27c4:	1c10      	adds	r0, r2, #0
    27c6:	bc10      	pop	{r4}
    27c8:	4770      	bx	lr
    27ca:	2800      	cmp	r0, #0
    27cc:	d001      	beq.n	27d2 <.udivsi3_skip_div0_test+0x72>
    27ce:	2000      	movs	r0, #0
    27d0:	43c0      	mvns	r0, r0
    27d2:	b407      	push	{r0, r1, r2}
    27d4:	4802      	ldr	r0, [pc, #8]	; (27e0 <.udivsi3_skip_div0_test+0x80>)
    27d6:	a102      	add	r1, pc, #8	; (adr r1, 27e0 <.udivsi3_skip_div0_test+0x80>)
    27d8:	1840      	adds	r0, r0, r1
    27da:	9002      	str	r0, [sp, #8]
    27dc:	bd03      	pop	{r0, r1, pc}
    27de:	46c0      	nop			; (mov r8, r8)
    27e0:	00000019 	.word	0x00000019

000027e4 <__aeabi_uidivmod>:
    27e4:	2900      	cmp	r1, #0
    27e6:	d0f0      	beq.n	27ca <.udivsi3_skip_div0_test+0x6a>
    27e8:	b503      	push	{r0, r1, lr}
    27ea:	f7ff ffb9 	bl	2760 <.udivsi3_skip_div0_test>
    27ee:	bc0e      	pop	{r1, r2, r3}
    27f0:	4342      	muls	r2, r0
    27f2:	1a89      	subs	r1, r1, r2
    27f4:	4718      	bx	r3
    27f6:	46c0      	nop			; (mov r8, r8)

000027f8 <__aeabi_idiv0>:
    27f8:	4770      	bx	lr
    27fa:	46c0      	nop			; (mov r8, r8)

000027fc <__aeabi_fmul>:
    27fc:	b5f0      	push	{r4, r5, r6, r7, lr}
    27fe:	465f      	mov	r7, r11
    2800:	4656      	mov	r6, r10
    2802:	464d      	mov	r5, r9
    2804:	4644      	mov	r4, r8
    2806:	b4f0      	push	{r4, r5, r6, r7}
    2808:	0244      	lsls	r4, r0, #9
    280a:	0046      	lsls	r6, r0, #1
    280c:	b083      	sub	sp, #12
    280e:	1c0f      	adds	r7, r1, #0
    2810:	0a64      	lsrs	r4, r4, #9
    2812:	0e36      	lsrs	r6, r6, #24
    2814:	0fc5      	lsrs	r5, r0, #31
    2816:	2e00      	cmp	r6, #0
    2818:	d041      	beq.n	289e <__aeabi_fmul+0xa2>
    281a:	2eff      	cmp	r6, #255	; 0xff
    281c:	d022      	beq.n	2864 <__aeabi_fmul+0x68>
    281e:	2380      	movs	r3, #128	; 0x80
    2820:	041b      	lsls	r3, r3, #16
    2822:	2000      	movs	r0, #0
    2824:	431c      	orrs	r4, r3
    2826:	00e4      	lsls	r4, r4, #3
    2828:	3e7f      	subs	r6, #127	; 0x7f
    282a:	4682      	mov	r10, r0
    282c:	4680      	mov	r8, r0
    282e:	1c39      	adds	r1, r7, #0
    2830:	004b      	lsls	r3, r1, #1
    2832:	027f      	lsls	r7, r7, #9
    2834:	0fc9      	lsrs	r1, r1, #31
    2836:	0a7f      	lsrs	r7, r7, #9
    2838:	0e1b      	lsrs	r3, r3, #24
    283a:	468b      	mov	r11, r1
    283c:	d03b      	beq.n	28b6 <__aeabi_fmul+0xba>
    283e:	2bff      	cmp	r3, #255	; 0xff
    2840:	d034      	beq.n	28ac <__aeabi_fmul+0xb0>
    2842:	2280      	movs	r2, #128	; 0x80
    2844:	0412      	lsls	r2, r2, #16
    2846:	4317      	orrs	r7, r2
    2848:	00ff      	lsls	r7, r7, #3
    284a:	3b7f      	subs	r3, #127	; 0x7f
    284c:	2100      	movs	r1, #0
    284e:	465a      	mov	r2, r11
    2850:	406a      	eors	r2, r5
    2852:	9201      	str	r2, [sp, #4]
    2854:	4652      	mov	r2, r10
    2856:	430a      	orrs	r2, r1
    2858:	2a0f      	cmp	r2, #15
    285a:	d863      	bhi.n	2924 <__aeabi_fmul+0x128>
    285c:	487a      	ldr	r0, [pc, #488]	; (2a48 <__aeabi_fmul+0x24c>)
    285e:	0092      	lsls	r2, r2, #2
    2860:	5882      	ldr	r2, [r0, r2]
    2862:	4697      	mov	pc, r2
    2864:	2c00      	cmp	r4, #0
    2866:	d13f      	bne.n	28e8 <__aeabi_fmul+0xec>
    2868:	2208      	movs	r2, #8
    286a:	2302      	movs	r3, #2
    286c:	4692      	mov	r10, r2
    286e:	4698      	mov	r8, r3
    2870:	e7dd      	b.n	282e <__aeabi_fmul+0x32>
    2872:	9501      	str	r5, [sp, #4]
    2874:	4640      	mov	r0, r8
    2876:	2802      	cmp	r0, #2
    2878:	d12a      	bne.n	28d0 <__aeabi_fmul+0xd4>
    287a:	9a01      	ldr	r2, [sp, #4]
    287c:	2501      	movs	r5, #1
    287e:	4015      	ands	r5, r2
    2880:	23ff      	movs	r3, #255	; 0xff
    2882:	2400      	movs	r4, #0
    2884:	0264      	lsls	r4, r4, #9
    2886:	05db      	lsls	r3, r3, #23
    2888:	0a60      	lsrs	r0, r4, #9
    288a:	07ed      	lsls	r5, r5, #31
    288c:	4318      	orrs	r0, r3
    288e:	4328      	orrs	r0, r5
    2890:	b003      	add	sp, #12
    2892:	bc3c      	pop	{r2, r3, r4, r5}
    2894:	4690      	mov	r8, r2
    2896:	4699      	mov	r9, r3
    2898:	46a2      	mov	r10, r4
    289a:	46ab      	mov	r11, r5
    289c:	bdf0      	pop	{r4, r5, r6, r7, pc}
    289e:	2c00      	cmp	r4, #0
    28a0:	d127      	bne.n	28f2 <__aeabi_fmul+0xf6>
    28a2:	2004      	movs	r0, #4
    28a4:	2201      	movs	r2, #1
    28a6:	4682      	mov	r10, r0
    28a8:	4690      	mov	r8, r2
    28aa:	e7c0      	b.n	282e <__aeabi_fmul+0x32>
    28ac:	1c39      	adds	r1, r7, #0
    28ae:	1e4a      	subs	r2, r1, #1
    28b0:	4191      	sbcs	r1, r2
    28b2:	3102      	adds	r1, #2
    28b4:	e7cb      	b.n	284e <__aeabi_fmul+0x52>
    28b6:	2101      	movs	r1, #1
    28b8:	2f00      	cmp	r7, #0
    28ba:	d0c8      	beq.n	284e <__aeabi_fmul+0x52>
    28bc:	1c38      	adds	r0, r7, #0
    28be:	f000 ff0d 	bl	36dc <__clzsi2>
    28c2:	1f43      	subs	r3, r0, #5
    28c4:	409f      	lsls	r7, r3
    28c6:	2376      	movs	r3, #118	; 0x76
    28c8:	425b      	negs	r3, r3
    28ca:	1a1b      	subs	r3, r3, r0
    28cc:	2100      	movs	r1, #0
    28ce:	e7be      	b.n	284e <__aeabi_fmul+0x52>
    28d0:	2803      	cmp	r0, #3
    28d2:	d100      	bne.n	28d6 <__aeabi_fmul+0xda>
    28d4:	e0ae      	b.n	2a34 <__aeabi_fmul+0x238>
    28d6:	2801      	cmp	r0, #1
    28d8:	d14f      	bne.n	297a <__aeabi_fmul+0x17e>
    28da:	9801      	ldr	r0, [sp, #4]
    28dc:	4642      	mov	r2, r8
    28de:	4010      	ands	r0, r2
    28e0:	b2c5      	uxtb	r5, r0
    28e2:	2300      	movs	r3, #0
    28e4:	2400      	movs	r4, #0
    28e6:	e7cd      	b.n	2884 <__aeabi_fmul+0x88>
    28e8:	230c      	movs	r3, #12
    28ea:	2003      	movs	r0, #3
    28ec:	469a      	mov	r10, r3
    28ee:	4680      	mov	r8, r0
    28f0:	e79d      	b.n	282e <__aeabi_fmul+0x32>
    28f2:	1c20      	adds	r0, r4, #0
    28f4:	f000 fef2 	bl	36dc <__clzsi2>
    28f8:	2676      	movs	r6, #118	; 0x76
    28fa:	1f43      	subs	r3, r0, #5
    28fc:	409c      	lsls	r4, r3
    28fe:	4276      	negs	r6, r6
    2900:	2300      	movs	r3, #0
    2902:	1a36      	subs	r6, r6, r0
    2904:	469a      	mov	r10, r3
    2906:	4698      	mov	r8, r3
    2908:	e791      	b.n	282e <__aeabi_fmul+0x32>
    290a:	2480      	movs	r4, #128	; 0x80
    290c:	2500      	movs	r5, #0
    290e:	03e4      	lsls	r4, r4, #15
    2910:	23ff      	movs	r3, #255	; 0xff
    2912:	e7b7      	b.n	2884 <__aeabi_fmul+0x88>
    2914:	465b      	mov	r3, r11
    2916:	1c3c      	adds	r4, r7, #0
    2918:	9301      	str	r3, [sp, #4]
    291a:	4688      	mov	r8, r1
    291c:	e7aa      	b.n	2874 <__aeabi_fmul+0x78>
    291e:	1c3c      	adds	r4, r7, #0
    2920:	4688      	mov	r8, r1
    2922:	e7a7      	b.n	2874 <__aeabi_fmul+0x78>
    2924:	0c25      	lsrs	r5, r4, #16
    2926:	0424      	lsls	r4, r4, #16
    2928:	0c3a      	lsrs	r2, r7, #16
    292a:	0c24      	lsrs	r4, r4, #16
    292c:	043f      	lsls	r7, r7, #16
    292e:	18f6      	adds	r6, r6, r3
    2930:	0c3f      	lsrs	r7, r7, #16
    2932:	1c21      	adds	r1, r4, #0
    2934:	1c23      	adds	r3, r4, #0
    2936:	4379      	muls	r1, r7
    2938:	4353      	muls	r3, r2
    293a:	436f      	muls	r7, r5
    293c:	4355      	muls	r5, r2
    293e:	18fb      	adds	r3, r7, r3
    2940:	0c0a      	lsrs	r2, r1, #16
    2942:	189b      	adds	r3, r3, r2
    2944:	46b1      	mov	r9, r6
    2946:	429f      	cmp	r7, r3
    2948:	d902      	bls.n	2950 <__aeabi_fmul+0x154>
    294a:	2280      	movs	r2, #128	; 0x80
    294c:	0252      	lsls	r2, r2, #9
    294e:	18ad      	adds	r5, r5, r2
    2950:	0409      	lsls	r1, r1, #16
    2952:	041a      	lsls	r2, r3, #16
    2954:	0c09      	lsrs	r1, r1, #16
    2956:	1852      	adds	r2, r2, r1
    2958:	0194      	lsls	r4, r2, #6
    295a:	0c1b      	lsrs	r3, r3, #16
    295c:	1e61      	subs	r1, r4, #1
    295e:	418c      	sbcs	r4, r1
    2960:	0e92      	lsrs	r2, r2, #26
    2962:	18ed      	adds	r5, r5, r3
    2964:	4314      	orrs	r4, r2
    2966:	01ad      	lsls	r5, r5, #6
    2968:	432c      	orrs	r4, r5
    296a:	0123      	lsls	r3, r4, #4
    296c:	d505      	bpl.n	297a <__aeabi_fmul+0x17e>
    296e:	2201      	movs	r2, #1
    2970:	0863      	lsrs	r3, r4, #1
    2972:	2001      	movs	r0, #1
    2974:	4014      	ands	r4, r2
    2976:	4481      	add	r9, r0
    2978:	431c      	orrs	r4, r3
    297a:	464b      	mov	r3, r9
    297c:	337f      	adds	r3, #127	; 0x7f
    297e:	2b00      	cmp	r3, #0
    2980:	dd2d      	ble.n	29de <__aeabi_fmul+0x1e2>
    2982:	0760      	lsls	r0, r4, #29
    2984:	d004      	beq.n	2990 <__aeabi_fmul+0x194>
    2986:	220f      	movs	r2, #15
    2988:	4022      	ands	r2, r4
    298a:	2a04      	cmp	r2, #4
    298c:	d000      	beq.n	2990 <__aeabi_fmul+0x194>
    298e:	3404      	adds	r4, #4
    2990:	0122      	lsls	r2, r4, #4
    2992:	d503      	bpl.n	299c <__aeabi_fmul+0x1a0>
    2994:	4b2d      	ldr	r3, [pc, #180]	; (2a4c <__aeabi_fmul+0x250>)
    2996:	401c      	ands	r4, r3
    2998:	464b      	mov	r3, r9
    299a:	3380      	adds	r3, #128	; 0x80
    299c:	2bfe      	cmp	r3, #254	; 0xfe
    299e:	dd17      	ble.n	29d0 <__aeabi_fmul+0x1d4>
    29a0:	9b01      	ldr	r3, [sp, #4]
    29a2:	2501      	movs	r5, #1
    29a4:	401d      	ands	r5, r3
    29a6:	2400      	movs	r4, #0
    29a8:	23ff      	movs	r3, #255	; 0xff
    29aa:	e76b      	b.n	2884 <__aeabi_fmul+0x88>
    29ac:	2080      	movs	r0, #128	; 0x80
    29ae:	03c0      	lsls	r0, r0, #15
    29b0:	4204      	tst	r4, r0
    29b2:	d008      	beq.n	29c6 <__aeabi_fmul+0x1ca>
    29b4:	4207      	tst	r7, r0
    29b6:	d106      	bne.n	29c6 <__aeabi_fmul+0x1ca>
    29b8:	1c04      	adds	r4, r0, #0
    29ba:	433c      	orrs	r4, r7
    29bc:	0264      	lsls	r4, r4, #9
    29be:	0a64      	lsrs	r4, r4, #9
    29c0:	465d      	mov	r5, r11
    29c2:	23ff      	movs	r3, #255	; 0xff
    29c4:	e75e      	b.n	2884 <__aeabi_fmul+0x88>
    29c6:	4304      	orrs	r4, r0
    29c8:	0264      	lsls	r4, r4, #9
    29ca:	0a64      	lsrs	r4, r4, #9
    29cc:	23ff      	movs	r3, #255	; 0xff
    29ce:	e759      	b.n	2884 <__aeabi_fmul+0x88>
    29d0:	9801      	ldr	r0, [sp, #4]
    29d2:	01a4      	lsls	r4, r4, #6
    29d4:	2501      	movs	r5, #1
    29d6:	0a64      	lsrs	r4, r4, #9
    29d8:	b2db      	uxtb	r3, r3
    29da:	4005      	ands	r5, r0
    29dc:	e752      	b.n	2884 <__aeabi_fmul+0x88>
    29de:	237e      	movs	r3, #126	; 0x7e
    29e0:	425b      	negs	r3, r3
    29e2:	464a      	mov	r2, r9
    29e4:	1a9b      	subs	r3, r3, r2
    29e6:	2b1b      	cmp	r3, #27
    29e8:	dd05      	ble.n	29f6 <__aeabi_fmul+0x1fa>
    29ea:	9b01      	ldr	r3, [sp, #4]
    29ec:	2501      	movs	r5, #1
    29ee:	401d      	ands	r5, r3
    29f0:	2400      	movs	r4, #0
    29f2:	2300      	movs	r3, #0
    29f4:	e746      	b.n	2884 <__aeabi_fmul+0x88>
    29f6:	1c22      	adds	r2, r4, #0
    29f8:	40da      	lsrs	r2, r3
    29fa:	464b      	mov	r3, r9
    29fc:	339e      	adds	r3, #158	; 0x9e
    29fe:	409c      	lsls	r4, r3
    2a00:	1c23      	adds	r3, r4, #0
    2a02:	1e5c      	subs	r4, r3, #1
    2a04:	41a3      	sbcs	r3, r4
    2a06:	4313      	orrs	r3, r2
    2a08:	0758      	lsls	r0, r3, #29
    2a0a:	d004      	beq.n	2a16 <__aeabi_fmul+0x21a>
    2a0c:	220f      	movs	r2, #15
    2a0e:	401a      	ands	r2, r3
    2a10:	2a04      	cmp	r2, #4
    2a12:	d000      	beq.n	2a16 <__aeabi_fmul+0x21a>
    2a14:	3304      	adds	r3, #4
    2a16:	015a      	lsls	r2, r3, #5
    2a18:	d505      	bpl.n	2a26 <__aeabi_fmul+0x22a>
    2a1a:	9b01      	ldr	r3, [sp, #4]
    2a1c:	2501      	movs	r5, #1
    2a1e:	401d      	ands	r5, r3
    2a20:	2400      	movs	r4, #0
    2a22:	2301      	movs	r3, #1
    2a24:	e72e      	b.n	2884 <__aeabi_fmul+0x88>
    2a26:	9801      	ldr	r0, [sp, #4]
    2a28:	019c      	lsls	r4, r3, #6
    2a2a:	2501      	movs	r5, #1
    2a2c:	0a64      	lsrs	r4, r4, #9
    2a2e:	4005      	ands	r5, r0
    2a30:	2300      	movs	r3, #0
    2a32:	e727      	b.n	2884 <__aeabi_fmul+0x88>
    2a34:	2780      	movs	r7, #128	; 0x80
    2a36:	03ff      	lsls	r7, r7, #15
    2a38:	9b01      	ldr	r3, [sp, #4]
    2a3a:	433c      	orrs	r4, r7
    2a3c:	0264      	lsls	r4, r4, #9
    2a3e:	2501      	movs	r5, #1
    2a40:	401d      	ands	r5, r3
    2a42:	0a64      	lsrs	r4, r4, #9
    2a44:	23ff      	movs	r3, #255	; 0xff
    2a46:	e71d      	b.n	2884 <__aeabi_fmul+0x88>
    2a48:	00006f30 	.word	0x00006f30
    2a4c:	f7ffffff 	.word	0xf7ffffff

00002a50 <__aeabi_f2iz>:
    2a50:	0243      	lsls	r3, r0, #9
    2a52:	0a59      	lsrs	r1, r3, #9
    2a54:	0043      	lsls	r3, r0, #1
    2a56:	0fc2      	lsrs	r2, r0, #31
    2a58:	0e1b      	lsrs	r3, r3, #24
    2a5a:	2000      	movs	r0, #0
    2a5c:	2b7e      	cmp	r3, #126	; 0x7e
    2a5e:	dd0d      	ble.n	2a7c <__aeabi_f2iz+0x2c>
    2a60:	2b9d      	cmp	r3, #157	; 0x9d
    2a62:	dc0c      	bgt.n	2a7e <__aeabi_f2iz+0x2e>
    2a64:	2080      	movs	r0, #128	; 0x80
    2a66:	0400      	lsls	r0, r0, #16
    2a68:	4301      	orrs	r1, r0
    2a6a:	2b95      	cmp	r3, #149	; 0x95
    2a6c:	dc0a      	bgt.n	2a84 <__aeabi_f2iz+0x34>
    2a6e:	2096      	movs	r0, #150	; 0x96
    2a70:	1ac3      	subs	r3, r0, r3
    2a72:	40d9      	lsrs	r1, r3
    2a74:	4248      	negs	r0, r1
    2a76:	2a00      	cmp	r2, #0
    2a78:	d100      	bne.n	2a7c <__aeabi_f2iz+0x2c>
    2a7a:	1c08      	adds	r0, r1, #0
    2a7c:	4770      	bx	lr
    2a7e:	4b03      	ldr	r3, [pc, #12]	; (2a8c <__aeabi_f2iz+0x3c>)
    2a80:	18d0      	adds	r0, r2, r3
    2a82:	e7fb      	b.n	2a7c <__aeabi_f2iz+0x2c>
    2a84:	3b96      	subs	r3, #150	; 0x96
    2a86:	4099      	lsls	r1, r3
    2a88:	e7f4      	b.n	2a74 <__aeabi_f2iz+0x24>
    2a8a:	46c0      	nop			; (mov r8, r8)
    2a8c:	7fffffff 	.word	0x7fffffff

00002a90 <__aeabi_ddiv>:
    2a90:	b5f0      	push	{r4, r5, r6, r7, lr}
    2a92:	4656      	mov	r6, r10
    2a94:	4644      	mov	r4, r8
    2a96:	465f      	mov	r7, r11
    2a98:	464d      	mov	r5, r9
    2a9a:	b4f0      	push	{r4, r5, r6, r7}
    2a9c:	1c1f      	adds	r7, r3, #0
    2a9e:	030b      	lsls	r3, r1, #12
    2aa0:	0b1b      	lsrs	r3, r3, #12
    2aa2:	4698      	mov	r8, r3
    2aa4:	004b      	lsls	r3, r1, #1
    2aa6:	b087      	sub	sp, #28
    2aa8:	1c04      	adds	r4, r0, #0
    2aaa:	4681      	mov	r9, r0
    2aac:	0d5b      	lsrs	r3, r3, #21
    2aae:	0fc8      	lsrs	r0, r1, #31
    2ab0:	1c16      	adds	r6, r2, #0
    2ab2:	469a      	mov	r10, r3
    2ab4:	9000      	str	r0, [sp, #0]
    2ab6:	2b00      	cmp	r3, #0
    2ab8:	d051      	beq.n	2b5e <__aeabi_ddiv+0xce>
    2aba:	4b6a      	ldr	r3, [pc, #424]	; (2c64 <__aeabi_ddiv+0x1d4>)
    2abc:	459a      	cmp	r10, r3
    2abe:	d031      	beq.n	2b24 <__aeabi_ddiv+0x94>
    2ac0:	2280      	movs	r2, #128	; 0x80
    2ac2:	4641      	mov	r1, r8
    2ac4:	0352      	lsls	r2, r2, #13
    2ac6:	430a      	orrs	r2, r1
    2ac8:	0f63      	lsrs	r3, r4, #29
    2aca:	00d2      	lsls	r2, r2, #3
    2acc:	431a      	orrs	r2, r3
    2ace:	4b66      	ldr	r3, [pc, #408]	; (2c68 <__aeabi_ddiv+0x1d8>)
    2ad0:	4690      	mov	r8, r2
    2ad2:	2500      	movs	r5, #0
    2ad4:	00e2      	lsls	r2, r4, #3
    2ad6:	4691      	mov	r9, r2
    2ad8:	449a      	add	r10, r3
    2ada:	2400      	movs	r4, #0
    2adc:	9502      	str	r5, [sp, #8]
    2ade:	033b      	lsls	r3, r7, #12
    2ae0:	0b1b      	lsrs	r3, r3, #12
    2ae2:	469b      	mov	r11, r3
    2ae4:	0ffd      	lsrs	r5, r7, #31
    2ae6:	007b      	lsls	r3, r7, #1
    2ae8:	1c31      	adds	r1, r6, #0
    2aea:	0d5b      	lsrs	r3, r3, #21
    2aec:	9501      	str	r5, [sp, #4]
    2aee:	d060      	beq.n	2bb2 <__aeabi_ddiv+0x122>
    2af0:	4a5c      	ldr	r2, [pc, #368]	; (2c64 <__aeabi_ddiv+0x1d4>)
    2af2:	4293      	cmp	r3, r2
    2af4:	d054      	beq.n	2ba0 <__aeabi_ddiv+0x110>
    2af6:	2180      	movs	r1, #128	; 0x80
    2af8:	4658      	mov	r0, r11
    2afa:	0349      	lsls	r1, r1, #13
    2afc:	4301      	orrs	r1, r0
    2afe:	0f72      	lsrs	r2, r6, #29
    2b00:	00c9      	lsls	r1, r1, #3
    2b02:	4311      	orrs	r1, r2
    2b04:	4a58      	ldr	r2, [pc, #352]	; (2c68 <__aeabi_ddiv+0x1d8>)
    2b06:	468b      	mov	r11, r1
    2b08:	189b      	adds	r3, r3, r2
    2b0a:	00f1      	lsls	r1, r6, #3
    2b0c:	2000      	movs	r0, #0
    2b0e:	9a00      	ldr	r2, [sp, #0]
    2b10:	4304      	orrs	r4, r0
    2b12:	406a      	eors	r2, r5
    2b14:	9203      	str	r2, [sp, #12]
    2b16:	2c0f      	cmp	r4, #15
    2b18:	d900      	bls.n	2b1c <__aeabi_ddiv+0x8c>
    2b1a:	e0ad      	b.n	2c78 <__aeabi_ddiv+0x1e8>
    2b1c:	4e53      	ldr	r6, [pc, #332]	; (2c6c <__aeabi_ddiv+0x1dc>)
    2b1e:	00a4      	lsls	r4, r4, #2
    2b20:	5934      	ldr	r4, [r6, r4]
    2b22:	46a7      	mov	pc, r4
    2b24:	4640      	mov	r0, r8
    2b26:	4304      	orrs	r4, r0
    2b28:	d16e      	bne.n	2c08 <__aeabi_ddiv+0x178>
    2b2a:	2100      	movs	r1, #0
    2b2c:	2502      	movs	r5, #2
    2b2e:	2408      	movs	r4, #8
    2b30:	4688      	mov	r8, r1
    2b32:	4689      	mov	r9, r1
    2b34:	9502      	str	r5, [sp, #8]
    2b36:	e7d2      	b.n	2ade <__aeabi_ddiv+0x4e>
    2b38:	9c00      	ldr	r4, [sp, #0]
    2b3a:	9802      	ldr	r0, [sp, #8]
    2b3c:	46c3      	mov	r11, r8
    2b3e:	4649      	mov	r1, r9
    2b40:	9401      	str	r4, [sp, #4]
    2b42:	2802      	cmp	r0, #2
    2b44:	d064      	beq.n	2c10 <__aeabi_ddiv+0x180>
    2b46:	2803      	cmp	r0, #3
    2b48:	d100      	bne.n	2b4c <__aeabi_ddiv+0xbc>
    2b4a:	e2ab      	b.n	30a4 <__aeabi_ddiv+0x614>
    2b4c:	2801      	cmp	r0, #1
    2b4e:	d000      	beq.n	2b52 <__aeabi_ddiv+0xc2>
    2b50:	e238      	b.n	2fc4 <__aeabi_ddiv+0x534>
    2b52:	9a01      	ldr	r2, [sp, #4]
    2b54:	2400      	movs	r4, #0
    2b56:	4002      	ands	r2, r0
    2b58:	2500      	movs	r5, #0
    2b5a:	46a1      	mov	r9, r4
    2b5c:	e060      	b.n	2c20 <__aeabi_ddiv+0x190>
    2b5e:	4643      	mov	r3, r8
    2b60:	4323      	orrs	r3, r4
    2b62:	d04a      	beq.n	2bfa <__aeabi_ddiv+0x16a>
    2b64:	4640      	mov	r0, r8
    2b66:	2800      	cmp	r0, #0
    2b68:	d100      	bne.n	2b6c <__aeabi_ddiv+0xdc>
    2b6a:	e1c0      	b.n	2eee <__aeabi_ddiv+0x45e>
    2b6c:	f000 fdb6 	bl	36dc <__clzsi2>
    2b70:	1e03      	subs	r3, r0, #0
    2b72:	2b27      	cmp	r3, #39	; 0x27
    2b74:	dd00      	ble.n	2b78 <__aeabi_ddiv+0xe8>
    2b76:	e1b3      	b.n	2ee0 <__aeabi_ddiv+0x450>
    2b78:	2128      	movs	r1, #40	; 0x28
    2b7a:	1a0d      	subs	r5, r1, r0
    2b7c:	1c21      	adds	r1, r4, #0
    2b7e:	3b08      	subs	r3, #8
    2b80:	4642      	mov	r2, r8
    2b82:	40e9      	lsrs	r1, r5
    2b84:	409a      	lsls	r2, r3
    2b86:	1c0d      	adds	r5, r1, #0
    2b88:	4315      	orrs	r5, r2
    2b8a:	1c22      	adds	r2, r4, #0
    2b8c:	409a      	lsls	r2, r3
    2b8e:	46a8      	mov	r8, r5
    2b90:	4691      	mov	r9, r2
    2b92:	4b37      	ldr	r3, [pc, #220]	; (2c70 <__aeabi_ddiv+0x1e0>)
    2b94:	2500      	movs	r5, #0
    2b96:	1a1b      	subs	r3, r3, r0
    2b98:	469a      	mov	r10, r3
    2b9a:	2400      	movs	r4, #0
    2b9c:	9502      	str	r5, [sp, #8]
    2b9e:	e79e      	b.n	2ade <__aeabi_ddiv+0x4e>
    2ba0:	465a      	mov	r2, r11
    2ba2:	4316      	orrs	r6, r2
    2ba4:	2003      	movs	r0, #3
    2ba6:	2e00      	cmp	r6, #0
    2ba8:	d1b1      	bne.n	2b0e <__aeabi_ddiv+0x7e>
    2baa:	46b3      	mov	r11, r6
    2bac:	2100      	movs	r1, #0
    2bae:	2002      	movs	r0, #2
    2bb0:	e7ad      	b.n	2b0e <__aeabi_ddiv+0x7e>
    2bb2:	465a      	mov	r2, r11
    2bb4:	4332      	orrs	r2, r6
    2bb6:	d01b      	beq.n	2bf0 <__aeabi_ddiv+0x160>
    2bb8:	465b      	mov	r3, r11
    2bba:	2b00      	cmp	r3, #0
    2bbc:	d100      	bne.n	2bc0 <__aeabi_ddiv+0x130>
    2bbe:	e18a      	b.n	2ed6 <__aeabi_ddiv+0x446>
    2bc0:	4658      	mov	r0, r11
    2bc2:	f000 fd8b 	bl	36dc <__clzsi2>
    2bc6:	2827      	cmp	r0, #39	; 0x27
    2bc8:	dd00      	ble.n	2bcc <__aeabi_ddiv+0x13c>
    2bca:	e17d      	b.n	2ec8 <__aeabi_ddiv+0x438>
    2bcc:	2228      	movs	r2, #40	; 0x28
    2bce:	1a17      	subs	r7, r2, r0
    2bd0:	1c01      	adds	r1, r0, #0
    2bd2:	1c32      	adds	r2, r6, #0
    2bd4:	3908      	subs	r1, #8
    2bd6:	465b      	mov	r3, r11
    2bd8:	40fa      	lsrs	r2, r7
    2bda:	408b      	lsls	r3, r1
    2bdc:	1c17      	adds	r7, r2, #0
    2bde:	431f      	orrs	r7, r3
    2be0:	1c33      	adds	r3, r6, #0
    2be2:	408b      	lsls	r3, r1
    2be4:	46bb      	mov	r11, r7
    2be6:	1c19      	adds	r1, r3, #0
    2be8:	4b21      	ldr	r3, [pc, #132]	; (2c70 <__aeabi_ddiv+0x1e0>)
    2bea:	1a1b      	subs	r3, r3, r0
    2bec:	2000      	movs	r0, #0
    2bee:	e78e      	b.n	2b0e <__aeabi_ddiv+0x7e>
    2bf0:	2700      	movs	r7, #0
    2bf2:	46bb      	mov	r11, r7
    2bf4:	2100      	movs	r1, #0
    2bf6:	2001      	movs	r0, #1
    2bf8:	e789      	b.n	2b0e <__aeabi_ddiv+0x7e>
    2bfa:	2000      	movs	r0, #0
    2bfc:	2501      	movs	r5, #1
    2bfe:	2404      	movs	r4, #4
    2c00:	4680      	mov	r8, r0
    2c02:	4681      	mov	r9, r0
    2c04:	9502      	str	r5, [sp, #8]
    2c06:	e76a      	b.n	2ade <__aeabi_ddiv+0x4e>
    2c08:	2503      	movs	r5, #3
    2c0a:	240c      	movs	r4, #12
    2c0c:	9502      	str	r5, [sp, #8]
    2c0e:	e766      	b.n	2ade <__aeabi_ddiv+0x4e>
    2c10:	9c01      	ldr	r4, [sp, #4]
    2c12:	9403      	str	r4, [sp, #12]
    2c14:	9d03      	ldr	r5, [sp, #12]
    2c16:	2201      	movs	r2, #1
    2c18:	402a      	ands	r2, r5
    2c1a:	2400      	movs	r4, #0
    2c1c:	4d11      	ldr	r5, [pc, #68]	; (2c64 <__aeabi_ddiv+0x1d4>)
    2c1e:	46a1      	mov	r9, r4
    2c20:	2000      	movs	r0, #0
    2c22:	2100      	movs	r1, #0
    2c24:	0324      	lsls	r4, r4, #12
    2c26:	0b26      	lsrs	r6, r4, #12
    2c28:	0d0c      	lsrs	r4, r1, #20
    2c2a:	0524      	lsls	r4, r4, #20
    2c2c:	4b11      	ldr	r3, [pc, #68]	; (2c74 <__aeabi_ddiv+0x1e4>)
    2c2e:	4334      	orrs	r4, r6
    2c30:	052d      	lsls	r5, r5, #20
    2c32:	4023      	ands	r3, r4
    2c34:	432b      	orrs	r3, r5
    2c36:	005b      	lsls	r3, r3, #1
    2c38:	085b      	lsrs	r3, r3, #1
    2c3a:	07d2      	lsls	r2, r2, #31
    2c3c:	1c19      	adds	r1, r3, #0
    2c3e:	4648      	mov	r0, r9
    2c40:	4311      	orrs	r1, r2
    2c42:	b007      	add	sp, #28
    2c44:	bc3c      	pop	{r2, r3, r4, r5}
    2c46:	4690      	mov	r8, r2
    2c48:	4699      	mov	r9, r3
    2c4a:	46a2      	mov	r10, r4
    2c4c:	46ab      	mov	r11, r5
    2c4e:	bdf0      	pop	{r4, r5, r6, r7, pc}
    2c50:	2200      	movs	r2, #0
    2c52:	2480      	movs	r4, #128	; 0x80
    2c54:	0324      	lsls	r4, r4, #12
    2c56:	4691      	mov	r9, r2
    2c58:	4d02      	ldr	r5, [pc, #8]	; (2c64 <__aeabi_ddiv+0x1d4>)
    2c5a:	e7e1      	b.n	2c20 <__aeabi_ddiv+0x190>
    2c5c:	2400      	movs	r4, #0
    2c5e:	2500      	movs	r5, #0
    2c60:	46a1      	mov	r9, r4
    2c62:	e7dd      	b.n	2c20 <__aeabi_ddiv+0x190>
    2c64:	000007ff 	.word	0x000007ff
    2c68:	fffffc01 	.word	0xfffffc01
    2c6c:	00006f70 	.word	0x00006f70
    2c70:	fffffc0d 	.word	0xfffffc0d
    2c74:	800fffff 	.word	0x800fffff
    2c78:	4655      	mov	r5, r10
    2c7a:	1aed      	subs	r5, r5, r3
    2c7c:	9504      	str	r5, [sp, #16]
    2c7e:	45d8      	cmp	r8, r11
    2c80:	d900      	bls.n	2c84 <__aeabi_ddiv+0x1f4>
    2c82:	e153      	b.n	2f2c <__aeabi_ddiv+0x49c>
    2c84:	d100      	bne.n	2c88 <__aeabi_ddiv+0x1f8>
    2c86:	e14e      	b.n	2f26 <__aeabi_ddiv+0x496>
    2c88:	9c04      	ldr	r4, [sp, #16]
    2c8a:	2500      	movs	r5, #0
    2c8c:	3c01      	subs	r4, #1
    2c8e:	464e      	mov	r6, r9
    2c90:	9404      	str	r4, [sp, #16]
    2c92:	4647      	mov	r7, r8
    2c94:	46a9      	mov	r9, r5
    2c96:	4658      	mov	r0, r11
    2c98:	0203      	lsls	r3, r0, #8
    2c9a:	0e0c      	lsrs	r4, r1, #24
    2c9c:	431c      	orrs	r4, r3
    2c9e:	0209      	lsls	r1, r1, #8
    2ca0:	0c25      	lsrs	r5, r4, #16
    2ca2:	0423      	lsls	r3, r4, #16
    2ca4:	0c1b      	lsrs	r3, r3, #16
    2ca6:	9100      	str	r1, [sp, #0]
    2ca8:	1c38      	adds	r0, r7, #0
    2caa:	1c29      	adds	r1, r5, #0
    2cac:	9301      	str	r3, [sp, #4]
    2cae:	f7ff fd55 	bl	275c <__aeabi_uidiv>
    2cb2:	9901      	ldr	r1, [sp, #4]
    2cb4:	4683      	mov	r11, r0
    2cb6:	4341      	muls	r1, r0
    2cb8:	1c38      	adds	r0, r7, #0
    2cba:	468a      	mov	r10, r1
    2cbc:	1c29      	adds	r1, r5, #0
    2cbe:	f7ff fd91 	bl	27e4 <__aeabi_uidivmod>
    2cc2:	0c33      	lsrs	r3, r6, #16
    2cc4:	0409      	lsls	r1, r1, #16
    2cc6:	4319      	orrs	r1, r3
    2cc8:	458a      	cmp	r10, r1
    2cca:	d90c      	bls.n	2ce6 <__aeabi_ddiv+0x256>
    2ccc:	465b      	mov	r3, r11
    2cce:	1909      	adds	r1, r1, r4
    2cd0:	3b01      	subs	r3, #1
    2cd2:	428c      	cmp	r4, r1
    2cd4:	d900      	bls.n	2cd8 <__aeabi_ddiv+0x248>
    2cd6:	e147      	b.n	2f68 <__aeabi_ddiv+0x4d8>
    2cd8:	458a      	cmp	r10, r1
    2cda:	d800      	bhi.n	2cde <__aeabi_ddiv+0x24e>
    2cdc:	e144      	b.n	2f68 <__aeabi_ddiv+0x4d8>
    2cde:	2202      	movs	r2, #2
    2ce0:	4252      	negs	r2, r2
    2ce2:	4493      	add	r11, r2
    2ce4:	1909      	adds	r1, r1, r4
    2ce6:	4653      	mov	r3, r10
    2ce8:	1acb      	subs	r3, r1, r3
    2cea:	1c18      	adds	r0, r3, #0
    2cec:	1c29      	adds	r1, r5, #0
    2cee:	4698      	mov	r8, r3
    2cf0:	f7ff fd34 	bl	275c <__aeabi_uidiv>
    2cf4:	1c07      	adds	r7, r0, #0
    2cf6:	9801      	ldr	r0, [sp, #4]
    2cf8:	1c29      	adds	r1, r5, #0
    2cfa:	4378      	muls	r0, r7
    2cfc:	4682      	mov	r10, r0
    2cfe:	4640      	mov	r0, r8
    2d00:	f7ff fd70 	bl	27e4 <__aeabi_uidivmod>
    2d04:	0436      	lsls	r6, r6, #16
    2d06:	040b      	lsls	r3, r1, #16
    2d08:	0c36      	lsrs	r6, r6, #16
    2d0a:	4333      	orrs	r3, r6
    2d0c:	459a      	cmp	r10, r3
    2d0e:	d909      	bls.n	2d24 <__aeabi_ddiv+0x294>
    2d10:	191b      	adds	r3, r3, r4
    2d12:	1e7a      	subs	r2, r7, #1
    2d14:	429c      	cmp	r4, r3
    2d16:	d900      	bls.n	2d1a <__aeabi_ddiv+0x28a>
    2d18:	e124      	b.n	2f64 <__aeabi_ddiv+0x4d4>
    2d1a:	459a      	cmp	r10, r3
    2d1c:	d800      	bhi.n	2d20 <__aeabi_ddiv+0x290>
    2d1e:	e121      	b.n	2f64 <__aeabi_ddiv+0x4d4>
    2d20:	3f02      	subs	r7, #2
    2d22:	191b      	adds	r3, r3, r4
    2d24:	465e      	mov	r6, r11
    2d26:	0432      	lsls	r2, r6, #16
    2d28:	4317      	orrs	r7, r2
    2d2a:	0c38      	lsrs	r0, r7, #16
    2d2c:	46bb      	mov	r11, r7
    2d2e:	9e00      	ldr	r6, [sp, #0]
    2d30:	9f00      	ldr	r7, [sp, #0]
    2d32:	4651      	mov	r1, r10
    2d34:	0c3f      	lsrs	r7, r7, #16
    2d36:	0432      	lsls	r2, r6, #16
    2d38:	1a5b      	subs	r3, r3, r1
    2d3a:	4659      	mov	r1, r11
    2d3c:	46ba      	mov	r10, r7
    2d3e:	0c12      	lsrs	r2, r2, #16
    2d40:	040f      	lsls	r7, r1, #16
    2d42:	0c3f      	lsrs	r7, r7, #16
    2d44:	4690      	mov	r8, r2
    2d46:	4651      	mov	r1, r10
    2d48:	437a      	muls	r2, r7
    2d4a:	434f      	muls	r7, r1
    2d4c:	4641      	mov	r1, r8
    2d4e:	4341      	muls	r1, r0
    2d50:	4656      	mov	r6, r10
    2d52:	4370      	muls	r0, r6
    2d54:	19cf      	adds	r7, r1, r7
    2d56:	0c16      	lsrs	r6, r2, #16
    2d58:	19be      	adds	r6, r7, r6
    2d5a:	42b1      	cmp	r1, r6
    2d5c:	d902      	bls.n	2d64 <__aeabi_ddiv+0x2d4>
    2d5e:	2780      	movs	r7, #128	; 0x80
    2d60:	027f      	lsls	r7, r7, #9
    2d62:	19c0      	adds	r0, r0, r7
    2d64:	0c31      	lsrs	r1, r6, #16
    2d66:	0412      	lsls	r2, r2, #16
    2d68:	0436      	lsls	r6, r6, #16
    2d6a:	0c12      	lsrs	r2, r2, #16
    2d6c:	1840      	adds	r0, r0, r1
    2d6e:	18b6      	adds	r6, r6, r2
    2d70:	4283      	cmp	r3, r0
    2d72:	d200      	bcs.n	2d76 <__aeabi_ddiv+0x2e6>
    2d74:	e0c4      	b.n	2f00 <__aeabi_ddiv+0x470>
    2d76:	d100      	bne.n	2d7a <__aeabi_ddiv+0x2ea>
    2d78:	e0be      	b.n	2ef8 <__aeabi_ddiv+0x468>
    2d7a:	1a19      	subs	r1, r3, r0
    2d7c:	4648      	mov	r0, r9
    2d7e:	1b86      	subs	r6, r0, r6
    2d80:	45b1      	cmp	r9, r6
    2d82:	41bf      	sbcs	r7, r7
    2d84:	427f      	negs	r7, r7
    2d86:	1bcf      	subs	r7, r1, r7
    2d88:	42a7      	cmp	r7, r4
    2d8a:	d100      	bne.n	2d8e <__aeabi_ddiv+0x2fe>
    2d8c:	e113      	b.n	2fb6 <__aeabi_ddiv+0x526>
    2d8e:	1c29      	adds	r1, r5, #0
    2d90:	1c38      	adds	r0, r7, #0
    2d92:	f7ff fce3 	bl	275c <__aeabi_uidiv>
    2d96:	9901      	ldr	r1, [sp, #4]
    2d98:	9002      	str	r0, [sp, #8]
    2d9a:	4341      	muls	r1, r0
    2d9c:	1c38      	adds	r0, r7, #0
    2d9e:	4689      	mov	r9, r1
    2da0:	1c29      	adds	r1, r5, #0
    2da2:	f7ff fd1f 	bl	27e4 <__aeabi_uidivmod>
    2da6:	0c33      	lsrs	r3, r6, #16
    2da8:	0409      	lsls	r1, r1, #16
    2daa:	4319      	orrs	r1, r3
    2dac:	4589      	cmp	r9, r1
    2dae:	d90c      	bls.n	2dca <__aeabi_ddiv+0x33a>
    2db0:	9b02      	ldr	r3, [sp, #8]
    2db2:	1909      	adds	r1, r1, r4
    2db4:	3b01      	subs	r3, #1
    2db6:	428c      	cmp	r4, r1
    2db8:	d900      	bls.n	2dbc <__aeabi_ddiv+0x32c>
    2dba:	e0ff      	b.n	2fbc <__aeabi_ddiv+0x52c>
    2dbc:	4589      	cmp	r9, r1
    2dbe:	d800      	bhi.n	2dc2 <__aeabi_ddiv+0x332>
    2dc0:	e0fc      	b.n	2fbc <__aeabi_ddiv+0x52c>
    2dc2:	9f02      	ldr	r7, [sp, #8]
    2dc4:	1909      	adds	r1, r1, r4
    2dc6:	3f02      	subs	r7, #2
    2dc8:	9702      	str	r7, [sp, #8]
    2dca:	464f      	mov	r7, r9
    2dcc:	1bcf      	subs	r7, r1, r7
    2dce:	1c38      	adds	r0, r7, #0
    2dd0:	1c29      	adds	r1, r5, #0
    2dd2:	9705      	str	r7, [sp, #20]
    2dd4:	f7ff fcc2 	bl	275c <__aeabi_uidiv>
    2dd8:	1c07      	adds	r7, r0, #0
    2dda:	9801      	ldr	r0, [sp, #4]
    2ddc:	1c29      	adds	r1, r5, #0
    2dde:	4378      	muls	r0, r7
    2de0:	4681      	mov	r9, r0
    2de2:	9805      	ldr	r0, [sp, #20]
    2de4:	f7ff fcfe 	bl	27e4 <__aeabi_uidivmod>
    2de8:	0436      	lsls	r6, r6, #16
    2dea:	0409      	lsls	r1, r1, #16
    2dec:	0c36      	lsrs	r6, r6, #16
    2dee:	430e      	orrs	r6, r1
    2df0:	45b1      	cmp	r9, r6
    2df2:	d909      	bls.n	2e08 <__aeabi_ddiv+0x378>
    2df4:	1936      	adds	r6, r6, r4
    2df6:	1e7b      	subs	r3, r7, #1
    2df8:	42b4      	cmp	r4, r6
    2dfa:	d900      	bls.n	2dfe <__aeabi_ddiv+0x36e>
    2dfc:	e0e0      	b.n	2fc0 <__aeabi_ddiv+0x530>
    2dfe:	45b1      	cmp	r9, r6
    2e00:	d800      	bhi.n	2e04 <__aeabi_ddiv+0x374>
    2e02:	e0dd      	b.n	2fc0 <__aeabi_ddiv+0x530>
    2e04:	3f02      	subs	r7, #2
    2e06:	1936      	adds	r6, r6, r4
    2e08:	9d02      	ldr	r5, [sp, #8]
    2e0a:	4649      	mov	r1, r9
    2e0c:	1a76      	subs	r6, r6, r1
    2e0e:	0429      	lsls	r1, r5, #16
    2e10:	4339      	orrs	r1, r7
    2e12:	040b      	lsls	r3, r1, #16
    2e14:	4657      	mov	r7, r10
    2e16:	0c0a      	lsrs	r2, r1, #16
    2e18:	0c1b      	lsrs	r3, r3, #16
    2e1a:	4640      	mov	r0, r8
    2e1c:	4645      	mov	r5, r8
    2e1e:	4358      	muls	r0, r3
    2e20:	4355      	muls	r5, r2
    2e22:	437b      	muls	r3, r7
    2e24:	437a      	muls	r2, r7
    2e26:	18eb      	adds	r3, r5, r3
    2e28:	0c07      	lsrs	r7, r0, #16
    2e2a:	19db      	adds	r3, r3, r7
    2e2c:	429d      	cmp	r5, r3
    2e2e:	d902      	bls.n	2e36 <__aeabi_ddiv+0x3a6>
    2e30:	2580      	movs	r5, #128	; 0x80
    2e32:	026d      	lsls	r5, r5, #9
    2e34:	1952      	adds	r2, r2, r5
    2e36:	0c1d      	lsrs	r5, r3, #16
    2e38:	0400      	lsls	r0, r0, #16
    2e3a:	041b      	lsls	r3, r3, #16
    2e3c:	0c00      	lsrs	r0, r0, #16
    2e3e:	1952      	adds	r2, r2, r5
    2e40:	181b      	adds	r3, r3, r0
    2e42:	4296      	cmp	r6, r2
    2e44:	d335      	bcc.n	2eb2 <__aeabi_ddiv+0x422>
    2e46:	d100      	bne.n	2e4a <__aeabi_ddiv+0x3ba>
    2e48:	e0fc      	b.n	3044 <__aeabi_ddiv+0x5b4>
    2e4a:	2301      	movs	r3, #1
    2e4c:	4319      	orrs	r1, r3
    2e4e:	9e04      	ldr	r6, [sp, #16]
    2e50:	4f99      	ldr	r7, [pc, #612]	; (30b8 <__aeabi_ddiv+0x628>)
    2e52:	19f5      	adds	r5, r6, r7
    2e54:	2d00      	cmp	r5, #0
    2e56:	dc00      	bgt.n	2e5a <__aeabi_ddiv+0x3ca>
    2e58:	e0a1      	b.n	2f9e <__aeabi_ddiv+0x50e>
    2e5a:	0748      	lsls	r0, r1, #29
    2e5c:	d009      	beq.n	2e72 <__aeabi_ddiv+0x3e2>
    2e5e:	230f      	movs	r3, #15
    2e60:	400b      	ands	r3, r1
    2e62:	2b04      	cmp	r3, #4
    2e64:	d005      	beq.n	2e72 <__aeabi_ddiv+0x3e2>
    2e66:	1d0b      	adds	r3, r1, #4
    2e68:	428b      	cmp	r3, r1
    2e6a:	4189      	sbcs	r1, r1
    2e6c:	4249      	negs	r1, r1
    2e6e:	448b      	add	r11, r1
    2e70:	1c19      	adds	r1, r3, #0
    2e72:	465a      	mov	r2, r11
    2e74:	01d2      	lsls	r2, r2, #7
    2e76:	d507      	bpl.n	2e88 <__aeabi_ddiv+0x3f8>
    2e78:	4b90      	ldr	r3, [pc, #576]	; (30bc <__aeabi_ddiv+0x62c>)
    2e7a:	465c      	mov	r4, r11
    2e7c:	9e04      	ldr	r6, [sp, #16]
    2e7e:	2780      	movs	r7, #128	; 0x80
    2e80:	401c      	ands	r4, r3
    2e82:	00ff      	lsls	r7, r7, #3
    2e84:	46a3      	mov	r11, r4
    2e86:	19f5      	adds	r5, r6, r7
    2e88:	4b8d      	ldr	r3, [pc, #564]	; (30c0 <__aeabi_ddiv+0x630>)
    2e8a:	429d      	cmp	r5, r3
    2e8c:	dd7a      	ble.n	2f84 <__aeabi_ddiv+0x4f4>
    2e8e:	9c03      	ldr	r4, [sp, #12]
    2e90:	2201      	movs	r2, #1
    2e92:	4022      	ands	r2, r4
    2e94:	2400      	movs	r4, #0
    2e96:	4d8b      	ldr	r5, [pc, #556]	; (30c4 <__aeabi_ddiv+0x634>)
    2e98:	46a1      	mov	r9, r4
    2e9a:	e6c1      	b.n	2c20 <__aeabi_ddiv+0x190>
    2e9c:	2480      	movs	r4, #128	; 0x80
    2e9e:	0324      	lsls	r4, r4, #12
    2ea0:	4647      	mov	r7, r8
    2ea2:	4227      	tst	r7, r4
    2ea4:	d14c      	bne.n	2f40 <__aeabi_ddiv+0x4b0>
    2ea6:	433c      	orrs	r4, r7
    2ea8:	0324      	lsls	r4, r4, #12
    2eaa:	0b24      	lsrs	r4, r4, #12
    2eac:	9a00      	ldr	r2, [sp, #0]
    2eae:	4d85      	ldr	r5, [pc, #532]	; (30c4 <__aeabi_ddiv+0x634>)
    2eb0:	e6b6      	b.n	2c20 <__aeabi_ddiv+0x190>
    2eb2:	1936      	adds	r6, r6, r4
    2eb4:	1e48      	subs	r0, r1, #1
    2eb6:	42b4      	cmp	r4, r6
    2eb8:	d95e      	bls.n	2f78 <__aeabi_ddiv+0x4e8>
    2eba:	1c01      	adds	r1, r0, #0
    2ebc:	4296      	cmp	r6, r2
    2ebe:	d1c4      	bne.n	2e4a <__aeabi_ddiv+0x3ba>
    2ec0:	9e00      	ldr	r6, [sp, #0]
    2ec2:	429e      	cmp	r6, r3
    2ec4:	d1c1      	bne.n	2e4a <__aeabi_ddiv+0x3ba>
    2ec6:	e7c2      	b.n	2e4e <__aeabi_ddiv+0x3be>
    2ec8:	1c03      	adds	r3, r0, #0
    2eca:	3b28      	subs	r3, #40	; 0x28
    2ecc:	1c31      	adds	r1, r6, #0
    2ece:	4099      	lsls	r1, r3
    2ed0:	468b      	mov	r11, r1
    2ed2:	2100      	movs	r1, #0
    2ed4:	e688      	b.n	2be8 <__aeabi_ddiv+0x158>
    2ed6:	1c30      	adds	r0, r6, #0
    2ed8:	f000 fc00 	bl	36dc <__clzsi2>
    2edc:	3020      	adds	r0, #32
    2ede:	e672      	b.n	2bc6 <__aeabi_ddiv+0x136>
    2ee0:	3b28      	subs	r3, #40	; 0x28
    2ee2:	1c21      	adds	r1, r4, #0
    2ee4:	4099      	lsls	r1, r3
    2ee6:	2200      	movs	r2, #0
    2ee8:	4688      	mov	r8, r1
    2eea:	4691      	mov	r9, r2
    2eec:	e651      	b.n	2b92 <__aeabi_ddiv+0x102>
    2eee:	1c20      	adds	r0, r4, #0
    2ef0:	f000 fbf4 	bl	36dc <__clzsi2>
    2ef4:	3020      	adds	r0, #32
    2ef6:	e63b      	b.n	2b70 <__aeabi_ddiv+0xe0>
    2ef8:	2100      	movs	r1, #0
    2efa:	45b1      	cmp	r9, r6
    2efc:	d300      	bcc.n	2f00 <__aeabi_ddiv+0x470>
    2efe:	e73d      	b.n	2d7c <__aeabi_ddiv+0x2ec>
    2f00:	9f00      	ldr	r7, [sp, #0]
    2f02:	465a      	mov	r2, r11
    2f04:	44b9      	add	r9, r7
    2f06:	45b9      	cmp	r9, r7
    2f08:	41bf      	sbcs	r7, r7
    2f0a:	427f      	negs	r7, r7
    2f0c:	193f      	adds	r7, r7, r4
    2f0e:	18fb      	adds	r3, r7, r3
    2f10:	3a01      	subs	r2, #1
    2f12:	429c      	cmp	r4, r3
    2f14:	d21e      	bcs.n	2f54 <__aeabi_ddiv+0x4c4>
    2f16:	4298      	cmp	r0, r3
    2f18:	d900      	bls.n	2f1c <__aeabi_ddiv+0x48c>
    2f1a:	e07e      	b.n	301a <__aeabi_ddiv+0x58a>
    2f1c:	d100      	bne.n	2f20 <__aeabi_ddiv+0x490>
    2f1e:	e0b5      	b.n	308c <__aeabi_ddiv+0x5fc>
    2f20:	1a19      	subs	r1, r3, r0
    2f22:	4693      	mov	r11, r2
    2f24:	e72a      	b.n	2d7c <__aeabi_ddiv+0x2ec>
    2f26:	4589      	cmp	r9, r1
    2f28:	d800      	bhi.n	2f2c <__aeabi_ddiv+0x49c>
    2f2a:	e6ad      	b.n	2c88 <__aeabi_ddiv+0x1f8>
    2f2c:	4648      	mov	r0, r9
    2f2e:	4646      	mov	r6, r8
    2f30:	4642      	mov	r2, r8
    2f32:	0877      	lsrs	r7, r6, #1
    2f34:	07d3      	lsls	r3, r2, #31
    2f36:	0846      	lsrs	r6, r0, #1
    2f38:	07c0      	lsls	r0, r0, #31
    2f3a:	431e      	orrs	r6, r3
    2f3c:	4681      	mov	r9, r0
    2f3e:	e6aa      	b.n	2c96 <__aeabi_ddiv+0x206>
    2f40:	4658      	mov	r0, r11
    2f42:	4220      	tst	r0, r4
    2f44:	d112      	bne.n	2f6c <__aeabi_ddiv+0x4dc>
    2f46:	4304      	orrs	r4, r0
    2f48:	0324      	lsls	r4, r4, #12
    2f4a:	1c2a      	adds	r2, r5, #0
    2f4c:	0b24      	lsrs	r4, r4, #12
    2f4e:	4689      	mov	r9, r1
    2f50:	4d5c      	ldr	r5, [pc, #368]	; (30c4 <__aeabi_ddiv+0x634>)
    2f52:	e665      	b.n	2c20 <__aeabi_ddiv+0x190>
    2f54:	42a3      	cmp	r3, r4
    2f56:	d1e3      	bne.n	2f20 <__aeabi_ddiv+0x490>
    2f58:	9f00      	ldr	r7, [sp, #0]
    2f5a:	454f      	cmp	r7, r9
    2f5c:	d9db      	bls.n	2f16 <__aeabi_ddiv+0x486>
    2f5e:	1a21      	subs	r1, r4, r0
    2f60:	4693      	mov	r11, r2
    2f62:	e70b      	b.n	2d7c <__aeabi_ddiv+0x2ec>
    2f64:	1c17      	adds	r7, r2, #0
    2f66:	e6dd      	b.n	2d24 <__aeabi_ddiv+0x294>
    2f68:	469b      	mov	r11, r3
    2f6a:	e6bc      	b.n	2ce6 <__aeabi_ddiv+0x256>
    2f6c:	433c      	orrs	r4, r7
    2f6e:	0324      	lsls	r4, r4, #12
    2f70:	0b24      	lsrs	r4, r4, #12
    2f72:	9a00      	ldr	r2, [sp, #0]
    2f74:	4d53      	ldr	r5, [pc, #332]	; (30c4 <__aeabi_ddiv+0x634>)
    2f76:	e653      	b.n	2c20 <__aeabi_ddiv+0x190>
    2f78:	42b2      	cmp	r2, r6
    2f7a:	d859      	bhi.n	3030 <__aeabi_ddiv+0x5a0>
    2f7c:	d100      	bne.n	2f80 <__aeabi_ddiv+0x4f0>
    2f7e:	e08a      	b.n	3096 <__aeabi_ddiv+0x606>
    2f80:	1c01      	adds	r1, r0, #0
    2f82:	e762      	b.n	2e4a <__aeabi_ddiv+0x3ba>
    2f84:	465f      	mov	r7, r11
    2f86:	08c9      	lsrs	r1, r1, #3
    2f88:	077b      	lsls	r3, r7, #29
    2f8a:	9e03      	ldr	r6, [sp, #12]
    2f8c:	430b      	orrs	r3, r1
    2f8e:	027c      	lsls	r4, r7, #9
    2f90:	056d      	lsls	r5, r5, #21
    2f92:	2201      	movs	r2, #1
    2f94:	4699      	mov	r9, r3
    2f96:	0b24      	lsrs	r4, r4, #12
    2f98:	0d6d      	lsrs	r5, r5, #21
    2f9a:	4032      	ands	r2, r6
    2f9c:	e640      	b.n	2c20 <__aeabi_ddiv+0x190>
    2f9e:	4b4a      	ldr	r3, [pc, #296]	; (30c8 <__aeabi_ddiv+0x638>)
    2fa0:	9f04      	ldr	r7, [sp, #16]
    2fa2:	1bdb      	subs	r3, r3, r7
    2fa4:	2b38      	cmp	r3, #56	; 0x38
    2fa6:	dd10      	ble.n	2fca <__aeabi_ddiv+0x53a>
    2fa8:	9c03      	ldr	r4, [sp, #12]
    2faa:	2201      	movs	r2, #1
    2fac:	4022      	ands	r2, r4
    2fae:	2400      	movs	r4, #0
    2fb0:	2500      	movs	r5, #0
    2fb2:	46a1      	mov	r9, r4
    2fb4:	e634      	b.n	2c20 <__aeabi_ddiv+0x190>
    2fb6:	2101      	movs	r1, #1
    2fb8:	4249      	negs	r1, r1
    2fba:	e748      	b.n	2e4e <__aeabi_ddiv+0x3be>
    2fbc:	9302      	str	r3, [sp, #8]
    2fbe:	e704      	b.n	2dca <__aeabi_ddiv+0x33a>
    2fc0:	1c1f      	adds	r7, r3, #0
    2fc2:	e721      	b.n	2e08 <__aeabi_ddiv+0x378>
    2fc4:	9c01      	ldr	r4, [sp, #4]
    2fc6:	9403      	str	r4, [sp, #12]
    2fc8:	e741      	b.n	2e4e <__aeabi_ddiv+0x3be>
    2fca:	2b1f      	cmp	r3, #31
    2fcc:	dc40      	bgt.n	3050 <__aeabi_ddiv+0x5c0>
    2fce:	483f      	ldr	r0, [pc, #252]	; (30cc <__aeabi_ddiv+0x63c>)
    2fd0:	9f04      	ldr	r7, [sp, #16]
    2fd2:	1c0c      	adds	r4, r1, #0
    2fd4:	183a      	adds	r2, r7, r0
    2fd6:	4658      	mov	r0, r11
    2fd8:	4091      	lsls	r1, r2
    2fda:	40dc      	lsrs	r4, r3
    2fdc:	4090      	lsls	r0, r2
    2fde:	4320      	orrs	r0, r4
    2fe0:	1c0a      	adds	r2, r1, #0
    2fe2:	1e51      	subs	r1, r2, #1
    2fe4:	418a      	sbcs	r2, r1
    2fe6:	1c01      	adds	r1, r0, #0
    2fe8:	4311      	orrs	r1, r2
    2fea:	465a      	mov	r2, r11
    2fec:	40da      	lsrs	r2, r3
    2fee:	1c13      	adds	r3, r2, #0
    2ff0:	0748      	lsls	r0, r1, #29
    2ff2:	d009      	beq.n	3008 <__aeabi_ddiv+0x578>
    2ff4:	220f      	movs	r2, #15
    2ff6:	400a      	ands	r2, r1
    2ff8:	2a04      	cmp	r2, #4
    2ffa:	d005      	beq.n	3008 <__aeabi_ddiv+0x578>
    2ffc:	1d0a      	adds	r2, r1, #4
    2ffe:	428a      	cmp	r2, r1
    3000:	4189      	sbcs	r1, r1
    3002:	4249      	negs	r1, r1
    3004:	185b      	adds	r3, r3, r1
    3006:	1c11      	adds	r1, r2, #0
    3008:	021a      	lsls	r2, r3, #8
    300a:	d534      	bpl.n	3076 <__aeabi_ddiv+0x5e6>
    300c:	9c03      	ldr	r4, [sp, #12]
    300e:	2201      	movs	r2, #1
    3010:	4022      	ands	r2, r4
    3012:	2400      	movs	r4, #0
    3014:	2501      	movs	r5, #1
    3016:	46a1      	mov	r9, r4
    3018:	e602      	b.n	2c20 <__aeabi_ddiv+0x190>
    301a:	9f00      	ldr	r7, [sp, #0]
    301c:	2102      	movs	r1, #2
    301e:	4249      	negs	r1, r1
    3020:	44b9      	add	r9, r7
    3022:	448b      	add	r11, r1
    3024:	45b9      	cmp	r9, r7
    3026:	4189      	sbcs	r1, r1
    3028:	4249      	negs	r1, r1
    302a:	1909      	adds	r1, r1, r4
    302c:	18cb      	adds	r3, r1, r3
    302e:	e6a4      	b.n	2d7a <__aeabi_ddiv+0x2ea>
    3030:	9d00      	ldr	r5, [sp, #0]
    3032:	1e88      	subs	r0, r1, #2
    3034:	0069      	lsls	r1, r5, #1
    3036:	42a9      	cmp	r1, r5
    3038:	41ad      	sbcs	r5, r5
    303a:	426d      	negs	r5, r5
    303c:	192c      	adds	r4, r5, r4
    303e:	1936      	adds	r6, r6, r4
    3040:	9100      	str	r1, [sp, #0]
    3042:	e73a      	b.n	2eba <__aeabi_ddiv+0x42a>
    3044:	2b00      	cmp	r3, #0
    3046:	d000      	beq.n	304a <__aeabi_ddiv+0x5ba>
    3048:	e733      	b.n	2eb2 <__aeabi_ddiv+0x422>
    304a:	2400      	movs	r4, #0
    304c:	9400      	str	r4, [sp, #0]
    304e:	e737      	b.n	2ec0 <__aeabi_ddiv+0x430>
    3050:	4a1f      	ldr	r2, [pc, #124]	; (30d0 <__aeabi_ddiv+0x640>)
    3052:	9c04      	ldr	r4, [sp, #16]
    3054:	465d      	mov	r5, r11
    3056:	1b12      	subs	r2, r2, r4
    3058:	40d5      	lsrs	r5, r2
    305a:	1c2a      	adds	r2, r5, #0
    305c:	2b20      	cmp	r3, #32
    305e:	d01f      	beq.n	30a0 <__aeabi_ddiv+0x610>
    3060:	4e1c      	ldr	r6, [pc, #112]	; (30d4 <__aeabi_ddiv+0x644>)
    3062:	465f      	mov	r7, r11
    3064:	19a3      	adds	r3, r4, r6
    3066:	409f      	lsls	r7, r3
    3068:	1c3b      	adds	r3, r7, #0
    306a:	4319      	orrs	r1, r3
    306c:	1e4b      	subs	r3, r1, #1
    306e:	4199      	sbcs	r1, r3
    3070:	4311      	orrs	r1, r2
    3072:	2300      	movs	r3, #0
    3074:	e7bc      	b.n	2ff0 <__aeabi_ddiv+0x560>
    3076:	075a      	lsls	r2, r3, #29
    3078:	08c9      	lsrs	r1, r1, #3
    307a:	430a      	orrs	r2, r1
    307c:	9f03      	ldr	r7, [sp, #12]
    307e:	4691      	mov	r9, r2
    3080:	025b      	lsls	r3, r3, #9
    3082:	2201      	movs	r2, #1
    3084:	0b1c      	lsrs	r4, r3, #12
    3086:	403a      	ands	r2, r7
    3088:	2500      	movs	r5, #0
    308a:	e5c9      	b.n	2c20 <__aeabi_ddiv+0x190>
    308c:	454e      	cmp	r6, r9
    308e:	d8c4      	bhi.n	301a <__aeabi_ddiv+0x58a>
    3090:	4693      	mov	r11, r2
    3092:	2100      	movs	r1, #0
    3094:	e672      	b.n	2d7c <__aeabi_ddiv+0x2ec>
    3096:	9f00      	ldr	r7, [sp, #0]
    3098:	429f      	cmp	r7, r3
    309a:	d3c9      	bcc.n	3030 <__aeabi_ddiv+0x5a0>
    309c:	1c01      	adds	r1, r0, #0
    309e:	e70f      	b.n	2ec0 <__aeabi_ddiv+0x430>
    30a0:	2300      	movs	r3, #0
    30a2:	e7e2      	b.n	306a <__aeabi_ddiv+0x5da>
    30a4:	2480      	movs	r4, #128	; 0x80
    30a6:	0324      	lsls	r4, r4, #12
    30a8:	465f      	mov	r7, r11
    30aa:	433c      	orrs	r4, r7
    30ac:	0324      	lsls	r4, r4, #12
    30ae:	0b24      	lsrs	r4, r4, #12
    30b0:	9a01      	ldr	r2, [sp, #4]
    30b2:	4689      	mov	r9, r1
    30b4:	4d03      	ldr	r5, [pc, #12]	; (30c4 <__aeabi_ddiv+0x634>)
    30b6:	e5b3      	b.n	2c20 <__aeabi_ddiv+0x190>
    30b8:	000003ff 	.word	0x000003ff
    30bc:	feffffff 	.word	0xfeffffff
    30c0:	000007fe 	.word	0x000007fe
    30c4:	000007ff 	.word	0x000007ff
    30c8:	fffffc02 	.word	0xfffffc02
    30cc:	0000041e 	.word	0x0000041e
    30d0:	fffffbe2 	.word	0xfffffbe2
    30d4:	0000043e 	.word	0x0000043e

000030d8 <__aeabi_dmul>:
    30d8:	b5f0      	push	{r4, r5, r6, r7, lr}
    30da:	4656      	mov	r6, r10
    30dc:	4644      	mov	r4, r8
    30de:	465f      	mov	r7, r11
    30e0:	464d      	mov	r5, r9
    30e2:	b4f0      	push	{r4, r5, r6, r7}
    30e4:	1c1f      	adds	r7, r3, #0
    30e6:	030b      	lsls	r3, r1, #12
    30e8:	0b1b      	lsrs	r3, r3, #12
    30ea:	469a      	mov	r10, r3
    30ec:	004b      	lsls	r3, r1, #1
    30ee:	b087      	sub	sp, #28
    30f0:	1c04      	adds	r4, r0, #0
    30f2:	4680      	mov	r8, r0
    30f4:	0d5b      	lsrs	r3, r3, #21
    30f6:	0fc8      	lsrs	r0, r1, #31
    30f8:	1c16      	adds	r6, r2, #0
    30fa:	9302      	str	r3, [sp, #8]
    30fc:	4681      	mov	r9, r0
    30fe:	2b00      	cmp	r3, #0
    3100:	d068      	beq.n	31d4 <__aeabi_dmul+0xfc>
    3102:	4b69      	ldr	r3, [pc, #420]	; (32a8 <__aeabi_dmul+0x1d0>)
    3104:	9902      	ldr	r1, [sp, #8]
    3106:	4299      	cmp	r1, r3
    3108:	d032      	beq.n	3170 <__aeabi_dmul+0x98>
    310a:	2280      	movs	r2, #128	; 0x80
    310c:	4653      	mov	r3, r10
    310e:	0352      	lsls	r2, r2, #13
    3110:	431a      	orrs	r2, r3
    3112:	00d2      	lsls	r2, r2, #3
    3114:	0f63      	lsrs	r3, r4, #29
    3116:	431a      	orrs	r2, r3
    3118:	4692      	mov	r10, r2
    311a:	4a64      	ldr	r2, [pc, #400]	; (32ac <__aeabi_dmul+0x1d4>)
    311c:	00e0      	lsls	r0, r4, #3
    311e:	1889      	adds	r1, r1, r2
    3120:	4680      	mov	r8, r0
    3122:	9102      	str	r1, [sp, #8]
    3124:	2400      	movs	r4, #0
    3126:	2500      	movs	r5, #0
    3128:	033b      	lsls	r3, r7, #12
    312a:	0b1b      	lsrs	r3, r3, #12
    312c:	469b      	mov	r11, r3
    312e:	0078      	lsls	r0, r7, #1
    3130:	0ffb      	lsrs	r3, r7, #31
    3132:	1c32      	adds	r2, r6, #0
    3134:	0d40      	lsrs	r0, r0, #21
    3136:	9303      	str	r3, [sp, #12]
    3138:	d100      	bne.n	313c <__aeabi_dmul+0x64>
    313a:	e075      	b.n	3228 <__aeabi_dmul+0x150>
    313c:	4b5a      	ldr	r3, [pc, #360]	; (32a8 <__aeabi_dmul+0x1d0>)
    313e:	4298      	cmp	r0, r3
    3140:	d069      	beq.n	3216 <__aeabi_dmul+0x13e>
    3142:	2280      	movs	r2, #128	; 0x80
    3144:	4659      	mov	r1, r11
    3146:	0352      	lsls	r2, r2, #13
    3148:	430a      	orrs	r2, r1
    314a:	0f73      	lsrs	r3, r6, #29
    314c:	00d2      	lsls	r2, r2, #3
    314e:	431a      	orrs	r2, r3
    3150:	4b56      	ldr	r3, [pc, #344]	; (32ac <__aeabi_dmul+0x1d4>)
    3152:	4693      	mov	r11, r2
    3154:	18c0      	adds	r0, r0, r3
    3156:	00f2      	lsls	r2, r6, #3
    3158:	2300      	movs	r3, #0
    315a:	9903      	ldr	r1, [sp, #12]
    315c:	464e      	mov	r6, r9
    315e:	4071      	eors	r1, r6
    3160:	431c      	orrs	r4, r3
    3162:	2c0f      	cmp	r4, #15
    3164:	d900      	bls.n	3168 <__aeabi_dmul+0x90>
    3166:	e0a9      	b.n	32bc <__aeabi_dmul+0x1e4>
    3168:	4e51      	ldr	r6, [pc, #324]	; (32b0 <__aeabi_dmul+0x1d8>)
    316a:	00a4      	lsls	r4, r4, #2
    316c:	5934      	ldr	r4, [r6, r4]
    316e:	46a7      	mov	pc, r4
    3170:	4653      	mov	r3, r10
    3172:	431c      	orrs	r4, r3
    3174:	d000      	beq.n	3178 <__aeabi_dmul+0xa0>
    3176:	e087      	b.n	3288 <__aeabi_dmul+0x1b0>
    3178:	2500      	movs	r5, #0
    317a:	46aa      	mov	r10, r5
    317c:	46a8      	mov	r8, r5
    317e:	2408      	movs	r4, #8
    3180:	2502      	movs	r5, #2
    3182:	e7d1      	b.n	3128 <__aeabi_dmul+0x50>
    3184:	4649      	mov	r1, r9
    3186:	2d02      	cmp	r5, #2
    3188:	d06c      	beq.n	3264 <__aeabi_dmul+0x18c>
    318a:	2d03      	cmp	r5, #3
    318c:	d100      	bne.n	3190 <__aeabi_dmul+0xb8>
    318e:	e217      	b.n	35c0 <__aeabi_dmul+0x4e8>
    3190:	2d01      	cmp	r5, #1
    3192:	d000      	beq.n	3196 <__aeabi_dmul+0xbe>
    3194:	e158      	b.n	3448 <__aeabi_dmul+0x370>
    3196:	400d      	ands	r5, r1
    3198:	b2ed      	uxtb	r5, r5
    319a:	2400      	movs	r4, #0
    319c:	46a9      	mov	r9, r5
    319e:	2300      	movs	r3, #0
    31a0:	46a0      	mov	r8, r4
    31a2:	2000      	movs	r0, #0
    31a4:	2100      	movs	r1, #0
    31a6:	0325      	lsls	r5, r4, #12
    31a8:	0d0a      	lsrs	r2, r1, #20
    31aa:	051c      	lsls	r4, r3, #20
    31ac:	0b2d      	lsrs	r5, r5, #12
    31ae:	0512      	lsls	r2, r2, #20
    31b0:	4b40      	ldr	r3, [pc, #256]	; (32b4 <__aeabi_dmul+0x1dc>)
    31b2:	432a      	orrs	r2, r5
    31b4:	4013      	ands	r3, r2
    31b6:	4323      	orrs	r3, r4
    31b8:	005b      	lsls	r3, r3, #1
    31ba:	464c      	mov	r4, r9
    31bc:	085b      	lsrs	r3, r3, #1
    31be:	07e2      	lsls	r2, r4, #31
    31c0:	1c19      	adds	r1, r3, #0
    31c2:	4640      	mov	r0, r8
    31c4:	4311      	orrs	r1, r2
    31c6:	b007      	add	sp, #28
    31c8:	bc3c      	pop	{r2, r3, r4, r5}
    31ca:	4690      	mov	r8, r2
    31cc:	4699      	mov	r9, r3
    31ce:	46a2      	mov	r10, r4
    31d0:	46ab      	mov	r11, r5
    31d2:	bdf0      	pop	{r4, r5, r6, r7, pc}
    31d4:	4653      	mov	r3, r10
    31d6:	4323      	orrs	r3, r4
    31d8:	d050      	beq.n	327c <__aeabi_dmul+0x1a4>
    31da:	4653      	mov	r3, r10
    31dc:	2b00      	cmp	r3, #0
    31de:	d100      	bne.n	31e2 <__aeabi_dmul+0x10a>
    31e0:	e184      	b.n	34ec <__aeabi_dmul+0x414>
    31e2:	4650      	mov	r0, r10
    31e4:	f000 fa7a 	bl	36dc <__clzsi2>
    31e8:	1e03      	subs	r3, r0, #0
    31ea:	2b27      	cmp	r3, #39	; 0x27
    31ec:	dd00      	ble.n	31f0 <__aeabi_dmul+0x118>
    31ee:	e176      	b.n	34de <__aeabi_dmul+0x406>
    31f0:	2128      	movs	r1, #40	; 0x28
    31f2:	1a0d      	subs	r5, r1, r0
    31f4:	1c21      	adds	r1, r4, #0
    31f6:	3b08      	subs	r3, #8
    31f8:	4652      	mov	r2, r10
    31fa:	40e9      	lsrs	r1, r5
    31fc:	409a      	lsls	r2, r3
    31fe:	1c0d      	adds	r5, r1, #0
    3200:	4315      	orrs	r5, r2
    3202:	1c22      	adds	r2, r4, #0
    3204:	409a      	lsls	r2, r3
    3206:	46aa      	mov	r10, r5
    3208:	4690      	mov	r8, r2
    320a:	4b2b      	ldr	r3, [pc, #172]	; (32b8 <__aeabi_dmul+0x1e0>)
    320c:	2400      	movs	r4, #0
    320e:	1a1b      	subs	r3, r3, r0
    3210:	9302      	str	r3, [sp, #8]
    3212:	2500      	movs	r5, #0
    3214:	e788      	b.n	3128 <__aeabi_dmul+0x50>
    3216:	465b      	mov	r3, r11
    3218:	431e      	orrs	r6, r3
    321a:	2303      	movs	r3, #3
    321c:	2e00      	cmp	r6, #0
    321e:	d19c      	bne.n	315a <__aeabi_dmul+0x82>
    3220:	46b3      	mov	r11, r6
    3222:	2200      	movs	r2, #0
    3224:	2302      	movs	r3, #2
    3226:	e798      	b.n	315a <__aeabi_dmul+0x82>
    3228:	465b      	mov	r3, r11
    322a:	4333      	orrs	r3, r6
    322c:	d021      	beq.n	3272 <__aeabi_dmul+0x19a>
    322e:	4658      	mov	r0, r11
    3230:	2800      	cmp	r0, #0
    3232:	d100      	bne.n	3236 <__aeabi_dmul+0x15e>
    3234:	e14e      	b.n	34d4 <__aeabi_dmul+0x3fc>
    3236:	f000 fa51 	bl	36dc <__clzsi2>
    323a:	2827      	cmp	r0, #39	; 0x27
    323c:	dd00      	ble.n	3240 <__aeabi_dmul+0x168>
    323e:	e142      	b.n	34c6 <__aeabi_dmul+0x3ee>
    3240:	2128      	movs	r1, #40	; 0x28
    3242:	1a0f      	subs	r7, r1, r0
    3244:	1c02      	adds	r2, r0, #0
    3246:	1c31      	adds	r1, r6, #0
    3248:	3a08      	subs	r2, #8
    324a:	465b      	mov	r3, r11
    324c:	40f9      	lsrs	r1, r7
    324e:	4093      	lsls	r3, r2
    3250:	1c0f      	adds	r7, r1, #0
    3252:	431f      	orrs	r7, r3
    3254:	1c33      	adds	r3, r6, #0
    3256:	4093      	lsls	r3, r2
    3258:	46bb      	mov	r11, r7
    325a:	1c1a      	adds	r2, r3, #0
    325c:	4b16      	ldr	r3, [pc, #88]	; (32b8 <__aeabi_dmul+0x1e0>)
    325e:	1a18      	subs	r0, r3, r0
    3260:	2300      	movs	r3, #0
    3262:	e77a      	b.n	315a <__aeabi_dmul+0x82>
    3264:	2301      	movs	r3, #1
    3266:	400b      	ands	r3, r1
    3268:	2400      	movs	r4, #0
    326a:	4699      	mov	r9, r3
    326c:	46a0      	mov	r8, r4
    326e:	4b0e      	ldr	r3, [pc, #56]	; (32a8 <__aeabi_dmul+0x1d0>)
    3270:	e797      	b.n	31a2 <__aeabi_dmul+0xca>
    3272:	2700      	movs	r7, #0
    3274:	46bb      	mov	r11, r7
    3276:	2200      	movs	r2, #0
    3278:	2301      	movs	r3, #1
    327a:	e76e      	b.n	315a <__aeabi_dmul+0x82>
    327c:	2100      	movs	r1, #0
    327e:	2404      	movs	r4, #4
    3280:	468a      	mov	r10, r1
    3282:	4688      	mov	r8, r1
    3284:	2501      	movs	r5, #1
    3286:	e74f      	b.n	3128 <__aeabi_dmul+0x50>
    3288:	240c      	movs	r4, #12
    328a:	2503      	movs	r5, #3
    328c:	e74c      	b.n	3128 <__aeabi_dmul+0x50>
    328e:	2500      	movs	r5, #0
    3290:	2480      	movs	r4, #128	; 0x80
    3292:	46a9      	mov	r9, r5
    3294:	0324      	lsls	r4, r4, #12
    3296:	46a8      	mov	r8, r5
    3298:	4b03      	ldr	r3, [pc, #12]	; (32a8 <__aeabi_dmul+0x1d0>)
    329a:	e782      	b.n	31a2 <__aeabi_dmul+0xca>
    329c:	46da      	mov	r10, r11
    329e:	4690      	mov	r8, r2
    32a0:	9903      	ldr	r1, [sp, #12]
    32a2:	1c1d      	adds	r5, r3, #0
    32a4:	e76f      	b.n	3186 <__aeabi_dmul+0xae>
    32a6:	46c0      	nop			; (mov r8, r8)
    32a8:	000007ff 	.word	0x000007ff
    32ac:	fffffc01 	.word	0xfffffc01
    32b0:	00006fb0 	.word	0x00006fb0
    32b4:	800fffff 	.word	0x800fffff
    32b8:	fffffc0d 	.word	0xfffffc0d
    32bc:	9f02      	ldr	r7, [sp, #8]
    32be:	0c16      	lsrs	r6, r2, #16
    32c0:	1838      	adds	r0, r7, r0
    32c2:	9004      	str	r0, [sp, #16]
    32c4:	4640      	mov	r0, r8
    32c6:	0c07      	lsrs	r7, r0, #16
    32c8:	0400      	lsls	r0, r0, #16
    32ca:	0c00      	lsrs	r0, r0, #16
    32cc:	0412      	lsls	r2, r2, #16
    32ce:	0c12      	lsrs	r2, r2, #16
    32d0:	1c03      	adds	r3, r0, #0
    32d2:	4353      	muls	r3, r2
    32d4:	1c04      	adds	r4, r0, #0
    32d6:	1c3d      	adds	r5, r7, #0
    32d8:	4374      	muls	r4, r6
    32da:	4355      	muls	r5, r2
    32dc:	4698      	mov	r8, r3
    32de:	1c3b      	adds	r3, r7, #0
    32e0:	4373      	muls	r3, r6
    32e2:	1964      	adds	r4, r4, r5
    32e4:	46a4      	mov	r12, r4
    32e6:	4644      	mov	r4, r8
    32e8:	9302      	str	r3, [sp, #8]
    32ea:	0c23      	lsrs	r3, r4, #16
    32ec:	4463      	add	r3, r12
    32ee:	429d      	cmp	r5, r3
    32f0:	d904      	bls.n	32fc <__aeabi_dmul+0x224>
    32f2:	9d02      	ldr	r5, [sp, #8]
    32f4:	2480      	movs	r4, #128	; 0x80
    32f6:	0264      	lsls	r4, r4, #9
    32f8:	192d      	adds	r5, r5, r4
    32fa:	9502      	str	r5, [sp, #8]
    32fc:	0c1d      	lsrs	r5, r3, #16
    32fe:	9503      	str	r5, [sp, #12]
    3300:	4645      	mov	r5, r8
    3302:	042c      	lsls	r4, r5, #16
    3304:	041b      	lsls	r3, r3, #16
    3306:	0c24      	lsrs	r4, r4, #16
    3308:	191c      	adds	r4, r3, r4
    330a:	9405      	str	r4, [sp, #20]
    330c:	465c      	mov	r4, r11
    330e:	0c23      	lsrs	r3, r4, #16
    3310:	1c05      	adds	r5, r0, #0
    3312:	4358      	muls	r0, r3
    3314:	0424      	lsls	r4, r4, #16
    3316:	0c24      	lsrs	r4, r4, #16
    3318:	4684      	mov	r12, r0
    331a:	1c38      	adds	r0, r7, #0
    331c:	4360      	muls	r0, r4
    331e:	4365      	muls	r5, r4
    3320:	435f      	muls	r7, r3
    3322:	4681      	mov	r9, r0
    3324:	44cc      	add	r12, r9
    3326:	0c28      	lsrs	r0, r5, #16
    3328:	4460      	add	r0, r12
    332a:	46bb      	mov	r11, r7
    332c:	4581      	cmp	r9, r0
    332e:	d902      	bls.n	3336 <__aeabi_dmul+0x25e>
    3330:	2780      	movs	r7, #128	; 0x80
    3332:	027f      	lsls	r7, r7, #9
    3334:	44bb      	add	r11, r7
    3336:	042d      	lsls	r5, r5, #16
    3338:	0c07      	lsrs	r7, r0, #16
    333a:	0c2d      	lsrs	r5, r5, #16
    333c:	0400      	lsls	r0, r0, #16
    333e:	1940      	adds	r0, r0, r5
    3340:	4655      	mov	r5, r10
    3342:	46bc      	mov	r12, r7
    3344:	042f      	lsls	r7, r5, #16
    3346:	44e3      	add	r11, r12
    3348:	4684      	mov	r12, r0
    334a:	0c28      	lsrs	r0, r5, #16
    334c:	0c3d      	lsrs	r5, r7, #16
    334e:	1c2f      	adds	r7, r5, #0
    3350:	4357      	muls	r7, r2
    3352:	46b8      	mov	r8, r7
    3354:	1c2f      	adds	r7, r5, #0
    3356:	4377      	muls	r7, r6
    3358:	4342      	muls	r2, r0
    335a:	46b9      	mov	r9, r7
    335c:	4647      	mov	r7, r8
    335e:	0c3f      	lsrs	r7, r7, #16
    3360:	4491      	add	r9, r2
    3362:	46ba      	mov	r10, r7
    3364:	44d1      	add	r9, r10
    3366:	4346      	muls	r6, r0
    3368:	454a      	cmp	r2, r9
    336a:	d902      	bls.n	3372 <__aeabi_dmul+0x29a>
    336c:	2280      	movs	r2, #128	; 0x80
    336e:	0252      	lsls	r2, r2, #9
    3370:	18b6      	adds	r6, r6, r2
    3372:	464f      	mov	r7, r9
    3374:	0c3a      	lsrs	r2, r7, #16
    3376:	18b6      	adds	r6, r6, r2
    3378:	043a      	lsls	r2, r7, #16
    337a:	4647      	mov	r7, r8
    337c:	043f      	lsls	r7, r7, #16
    337e:	0c3f      	lsrs	r7, r7, #16
    3380:	46b8      	mov	r8, r7
    3382:	1c2f      	adds	r7, r5, #0
    3384:	4367      	muls	r7, r4
    3386:	435d      	muls	r5, r3
    3388:	4344      	muls	r4, r0
    338a:	4358      	muls	r0, r3
    338c:	1965      	adds	r5, r4, r5
    338e:	9001      	str	r0, [sp, #4]
    3390:	0c38      	lsrs	r0, r7, #16
    3392:	182d      	adds	r5, r5, r0
    3394:	4442      	add	r2, r8
    3396:	46b8      	mov	r8, r7
    3398:	42ac      	cmp	r4, r5
    339a:	d904      	bls.n	33a6 <__aeabi_dmul+0x2ce>
    339c:	9801      	ldr	r0, [sp, #4]
    339e:	2380      	movs	r3, #128	; 0x80
    33a0:	025b      	lsls	r3, r3, #9
    33a2:	18c0      	adds	r0, r0, r3
    33a4:	9001      	str	r0, [sp, #4]
    33a6:	9c03      	ldr	r4, [sp, #12]
    33a8:	9f02      	ldr	r7, [sp, #8]
    33aa:	1c20      	adds	r0, r4, #0
    33ac:	4460      	add	r0, r12
    33ae:	19c0      	adds	r0, r0, r7
    33b0:	4560      	cmp	r0, r12
    33b2:	41a4      	sbcs	r4, r4
    33b4:	4647      	mov	r7, r8
    33b6:	4264      	negs	r4, r4
    33b8:	46a4      	mov	r12, r4
    33ba:	042b      	lsls	r3, r5, #16
    33bc:	043c      	lsls	r4, r7, #16
    33be:	4699      	mov	r9, r3
    33c0:	0c24      	lsrs	r4, r4, #16
    33c2:	444c      	add	r4, r9
    33c4:	46a0      	mov	r8, r4
    33c6:	44d8      	add	r8, r11
    33c8:	1880      	adds	r0, r0, r2
    33ca:	46c2      	mov	r10, r8
    33cc:	44e2      	add	r10, r12
    33ce:	4290      	cmp	r0, r2
    33d0:	4192      	sbcs	r2, r2
    33d2:	4657      	mov	r7, r10
    33d4:	4252      	negs	r2, r2
    33d6:	4691      	mov	r9, r2
    33d8:	19f2      	adds	r2, r6, r7
    33da:	45e2      	cmp	r10, r12
    33dc:	41bf      	sbcs	r7, r7
    33de:	427f      	negs	r7, r7
    33e0:	464b      	mov	r3, r9
    33e2:	46bc      	mov	r12, r7
    33e4:	45d8      	cmp	r8, r11
    33e6:	41bf      	sbcs	r7, r7
    33e8:	18d4      	adds	r4, r2, r3
    33ea:	427f      	negs	r7, r7
    33ec:	4663      	mov	r3, r12
    33ee:	431f      	orrs	r7, r3
    33f0:	0c2d      	lsrs	r5, r5, #16
    33f2:	197f      	adds	r7, r7, r5
    33f4:	42b2      	cmp	r2, r6
    33f6:	4192      	sbcs	r2, r2
    33f8:	454c      	cmp	r4, r9
    33fa:	41ad      	sbcs	r5, r5
    33fc:	4252      	negs	r2, r2
    33fe:	426d      	negs	r5, r5
    3400:	4315      	orrs	r5, r2
    3402:	9e01      	ldr	r6, [sp, #4]
    3404:	197d      	adds	r5, r7, r5
    3406:	19ab      	adds	r3, r5, r6
    3408:	0de2      	lsrs	r2, r4, #23
    340a:	025b      	lsls	r3, r3, #9
    340c:	9f05      	ldr	r7, [sp, #20]
    340e:	4313      	orrs	r3, r2
    3410:	0242      	lsls	r2, r0, #9
    3412:	433a      	orrs	r2, r7
    3414:	469a      	mov	r10, r3
    3416:	1e53      	subs	r3, r2, #1
    3418:	419a      	sbcs	r2, r3
    341a:	0dc3      	lsrs	r3, r0, #23
    341c:	1c10      	adds	r0, r2, #0
    341e:	4318      	orrs	r0, r3
    3420:	0264      	lsls	r4, r4, #9
    3422:	4320      	orrs	r0, r4
    3424:	4680      	mov	r8, r0
    3426:	4650      	mov	r0, r10
    3428:	01c0      	lsls	r0, r0, #7
    342a:	d50d      	bpl.n	3448 <__aeabi_dmul+0x370>
    342c:	4645      	mov	r5, r8
    342e:	2201      	movs	r2, #1
    3430:	4656      	mov	r6, r10
    3432:	9c04      	ldr	r4, [sp, #16]
    3434:	086b      	lsrs	r3, r5, #1
    3436:	402a      	ands	r2, r5
    3438:	431a      	orrs	r2, r3
