
KL25Z/USBMouse.elf:     file format elf32-littlearm
architecture: arm, flags 0x00000112:
EXEC_P, HAS_SYMS, D_PAGED
start address 0x000000c1


Disassembly of section .isr_vector:

00000000 <__isr_vector>:
   0:	20003000 	.word	0x20003000
   4:	000000c1 	.word	0x000000c1
   8:	00001d01 	.word	0x00001d01
   c:	00001d03 	.word	0x00001d03
	...
  2c:	00001d05 	.word	0x00001d05
	...
  38:	00001d07 	.word	0x00001d07
  3c:	00001d09 	.word	0x00001d09
  40:	00001d0b 	.word	0x00001d0b
  44:	00001d0b 	.word	0x00001d0b
  48:	00001d0b 	.word	0x00001d0b
  4c:	00001d0b 	.word	0x00001d0b
  50:	00001d0b 	.word	0x00001d0b
  54:	00001d0b 	.word	0x00001d0b
  58:	00001d0b 	.word	0x00001d0b
  5c:	00001d0b 	.word	0x00001d0b
  60:	00001d0b 	.word	0x00001d0b
  64:	00001d0b 	.word	0x00001d0b
  68:	00001d0b 	.word	0x00001d0b
  6c:	00001d0b 	.word	0x00001d0b
  70:	00001d0b 	.word	0x00001d0b
  74:	00001d0b 	.word	0x00001d0b
  78:	00001d0b 	.word	0x00001d0b
  7c:	00001d0b 	.word	0x00001d0b
  80:	00001d0b 	.word	0x00001d0b
  84:	00001d0b 	.word	0x00001d0b
  88:	00001d0b 	.word	0x00001d0b
  8c:	00001d0b 	.word	0x00001d0b
  90:	00001d0b 	.word	0x00001d0b
  94:	00001d0b 	.word	0x00001d0b
  98:	00001d0b 	.word	0x00001d0b
  9c:	00001d0b 	.word	0x00001d0b
  a0:	00001d0b 	.word	0x00001d0b
  a4:	00001d0b 	.word	0x00001d0b
  a8:	00001d0b 	.word	0x00001d0b
  ac:	00001d0b 	.word	0x00001d0b
  b0:	00001d0b 	.word	0x00001d0b
  b4:	00001d0b 	.word	0x00001d0b
  b8:	00001d0b 	.word	0x00001d0b
  bc:	00001d0b 	.word	0x00001d0b

000000c0 <Reset_Handler>:
  c0:	4907      	ldr	r1, [pc, #28]	; (e0 <Reset_Handler+0x20>)
  c2:	4a08      	ldr	r2, [pc, #32]	; (e4 <Reset_Handler+0x24>)
  c4:	4b08      	ldr	r3, [pc, #32]	; (e8 <Reset_Handler+0x28>)
  c6:	1a9b      	subs	r3, r3, r2
  c8:	dd05      	ble.n	d6 <Reset_Handler+0x16>
  ca:	2400      	movs	r4, #0
  cc:	5908      	ldr	r0, [r1, r4]
  ce:	5110      	str	r0, [r2, r4]
  d0:	3404      	adds	r4, #4
  d2:	429c      	cmp	r4, r3
  d4:	dbfa      	blt.n	cc <Reset_Handler+0xc>
  d6:	4805      	ldr	r0, [pc, #20]	; (ec <Reset_Handler+0x2c>)
  d8:	4780      	blx	r0
  da:	4805      	ldr	r0, [pc, #20]	; (f0 <Reset_Handler+0x30>)
  dc:	4700      	bx	r0
  de:	0000      	.short	0x0000
  e0:	0000726c 	.word	0x0000726c
  e4:	1ffff0c0 	.word	0x1ffff0c0
  e8:	1ffff2bc 	.word	0x1ffff2bc
  ec:	00002449 	.word	0x00002449
  f0:	00000591 	.word	0x00000591

Disassembly of section .text:

00000410 <__do_global_dtors_aux>:
     410:	b510      	push	{r4, lr}
     412:	4c06      	ldr	r4, [pc, #24]	; (42c <__do_global_dtors_aux+0x1c>)
     414:	7823      	ldrb	r3, [r4, #0]
     416:	2b00      	cmp	r3, #0
     418:	d107      	bne.n	42a <__do_global_dtors_aux+0x1a>
     41a:	4b05      	ldr	r3, [pc, #20]	; (430 <__do_global_dtors_aux+0x20>)
     41c:	2b00      	cmp	r3, #0
     41e:	d002      	beq.n	426 <__do_global_dtors_aux+0x16>
     420:	4804      	ldr	r0, [pc, #16]	; (434 <__do_global_dtors_aux+0x24>)
     422:	e000      	b.n	426 <__do_global_dtors_aux+0x16>
     424:	bf00      	nop
     426:	2301      	movs	r3, #1
     428:	7023      	strb	r3, [r4, #0]
     42a:	bd10      	pop	{r4, pc}
     42c:	1ffff400 	.word	0x1ffff400
     430:	00000000 	.word	0x00000000
     434:	00007268 	.word	0x00007268

00000438 <frame_dummy>:
     438:	b508      	push	{r3, lr}
     43a:	4b08      	ldr	r3, [pc, #32]	; (45c <frame_dummy+0x24>)
     43c:	2b00      	cmp	r3, #0
     43e:	d003      	beq.n	448 <frame_dummy+0x10>
     440:	4807      	ldr	r0, [pc, #28]	; (460 <frame_dummy+0x28>)
     442:	4908      	ldr	r1, [pc, #32]	; (464 <frame_dummy+0x2c>)
     444:	e000      	b.n	448 <frame_dummy+0x10>
     446:	bf00      	nop
     448:	4807      	ldr	r0, [pc, #28]	; (468 <frame_dummy+0x30>)
     44a:	6803      	ldr	r3, [r0, #0]
     44c:	2b00      	cmp	r3, #0
     44e:	d003      	beq.n	458 <frame_dummy+0x20>
     450:	4b06      	ldr	r3, [pc, #24]	; (46c <frame_dummy+0x34>)
     452:	2b00      	cmp	r3, #0
     454:	d000      	beq.n	458 <frame_dummy+0x20>
     456:	4798      	blx	r3
     458:	bd08      	pop	{r3, pc}
     45a:	46c0      	nop			; (mov r8, r8)
     45c:	00000000 	.word	0x00000000
     460:	00007268 	.word	0x00007268
     464:	1ffff404 	.word	0x1ffff404
     468:	1ffff2bc 	.word	0x1ffff2bc
     46c:	00000000 	.word	0x00000000

00000470 <USBMouse::~USBMouse()>:
     470:	b510      	push	{r4, lr}
     472:	4b03      	ldr	r3, [pc, #12]	; (480 <USBMouse::~USBMouse()+0x10>)
     474:	1c04      	adds	r4, r0, #0
     476:	6003      	str	r3, [r0, #0]
     478:	f000 fe4a 	bl	1110 <USBHAL::~USBHAL()>
     47c:	1c20      	adds	r0, r4, #0
     47e:	bd10      	pop	{r4, pc}
     480:	00006ae0 	.word	0x00006ae0
     484:	00000000 	.word	0x00000000

00000488 <main>:
     488:	b5f8      	push	{r3, r4, r5, r6, r7, lr}
     48a:	4d20      	ldr	r5, [pc, #128]	; (50c <main+0x84>)
     48c:	4c1e      	ldr	r4, [pc, #120]	; (508 <main+0x80>)
     48e:	2300      	movs	r3, #0
     490:	4646      	mov	r6, r8
     492:	4698      	mov	r8, r3
     494:	4b26      	ldr	r3, [pc, #152]	; (530 <main+0xa8>)
     496:	464f      	mov	r7, r9
     498:	4699      	mov	r9, r3
     49a:	b4c0      	push	{r6, r7}
     49c:	4e1c      	ldr	r6, [pc, #112]	; (510 <main+0x88>)
     49e:	4f1d      	ldr	r7, [pc, #116]	; (514 <main+0x8c>)
     4a0:	4a1d      	ldr	r2, [pc, #116]	; (518 <main+0x90>)
     4a2:	4b1e      	ldr	r3, [pc, #120]	; (51c <main+0x94>)
     4a4:	1c30      	adds	r0, r6, #0
     4a6:	1c39      	adds	r1, r7, #0
     4a8:	f002 fe16 	bl	30d8 <__aeabi_dmul>
     4ac:	f003 f8a4 	bl	35f8 <__aeabi_d2iz>
     4b0:	4a19      	ldr	r2, [pc, #100]	; (518 <main+0x90>)
     4b2:	4b1a      	ldr	r3, [pc, #104]	; (51c <main+0x94>)
     4b4:	b206      	sxth	r6, r0
     4b6:	1c29      	adds	r1, r5, #0
     4b8:	1c20      	adds	r0, r4, #0
     4ba:	f002 fe0d 	bl	30d8 <__aeabi_dmul>
     4be:	f003 f89b 	bl	35f8 <__aeabi_d2iz>
     4c2:	1c31      	adds	r1, r6, #0
     4c4:	b202      	sxth	r2, r0
     4c6:	4648      	mov	r0, r9
     4c8:	f001 fae8 	bl	1a9c <USBMouse::move(short, short)>
     4cc:	2303      	movs	r3, #3
     4ce:	4498      	add	r8, r3
     4d0:	4818      	ldr	r0, [pc, #96]	; (534 <main+0xac>)
     4d2:	f001 fb45 	bl	1b60 <wait>
     4d6:	4640      	mov	r0, r8
     4d8:	f003 f8c2 	bl	3660 <__aeabi_i2d>
     4dc:	4a10      	ldr	r2, [pc, #64]	; (520 <main+0x98>)
     4de:	4b11      	ldr	r3, [pc, #68]	; (524 <main+0x9c>)
     4e0:	f002 fdfa 	bl	30d8 <__aeabi_dmul>
     4e4:	4a10      	ldr	r2, [pc, #64]	; (528 <main+0xa0>)
     4e6:	4b11      	ldr	r3, [pc, #68]	; (52c <main+0xa4>)
     4e8:	f002 fad2 	bl	2a90 <__aeabi_ddiv>
     4ec:	1c04      	adds	r4, r0, #0
     4ee:	1c0d      	adds	r5, r1, #0
     4f0:	f004 f87a 	bl	45e8 <cos>
     4f4:	1c06      	adds	r6, r0, #0
     4f6:	1c0f      	adds	r7, r1, #0
     4f8:	1c20      	adds	r0, r4, #0
     4fa:	1c29      	adds	r1, r5, #0
     4fc:	f004 f8c8 	bl	4690 <sin>
     500:	1c04      	adds	r4, r0, #0
     502:	1c0d      	adds	r5, r1, #0
     504:	e7cc      	b.n	4a0 <main+0x18>
     506:	46c0      	nop			; (mov r8, r8)
	...
     514:	3ff00000 	.word	0x3ff00000
     518:	00000000 	.word	0x00000000
     51c:	40240000 	.word	0x40240000
     520:	51eb851f 	.word	0x51eb851f
     524:	40091eb8 	.word	0x40091eb8
     528:	00000000 	.word	0x00000000
     52c:	40668000 	.word	0x40668000
     530:	1ffff41c 	.word	0x1ffff41c
     534:	3a83126f 	.word	0x3a83126f

00000538 <_GLOBAL__sub_I_mouse>:
     538:	b570      	push	{r4, r5, r6, lr}
     53a:	4c10      	ldr	r4, [pc, #64]	; (57c <_GLOBAL__sub_I_mouse+0x44>)
     53c:	b084      	sub	sp, #16
     53e:	2501      	movs	r5, #1
     540:	2600      	movs	r6, #0
     542:	2200      	movs	r2, #0
     544:	9500      	str	r5, [sp, #0]
     546:	9501      	str	r5, [sp, #4]
     548:	9602      	str	r6, [sp, #8]
     54a:	1c20      	adds	r0, r4, #0
     54c:	2100      	movs	r1, #0
     54e:	4b0c      	ldr	r3, [pc, #48]	; (580 <_GLOBAL__sub_I_mouse+0x48>)
     550:	f001 f982 	bl	1858 <USBHID::USBHID(unsigned char, unsigned char, unsigned short, unsigned short, unsigned short, bool)>
     554:	4b0b      	ldr	r3, [pc, #44]	; (584 <_GLOBAL__sub_I_mouse+0x4c>)
     556:	1c20      	adds	r0, r4, #0
     558:	6023      	str	r3, [r4, #0]
     55a:	2368      	movs	r3, #104	; 0x68
     55c:	33ff      	adds	r3, #255	; 0xff
     55e:	54e6      	strb	r6, [r4, r3]
     560:	23b3      	movs	r3, #179	; 0xb3
     562:	005b      	lsls	r3, r3, #1
     564:	2101      	movs	r1, #1
     566:	54e5      	strb	r5, [r4, r3]
     568:	f000 fba8 	bl	cbc <USBDevice::connect(bool)>
     56c:	1c20      	adds	r0, r4, #0
     56e:	4906      	ldr	r1, [pc, #24]	; (588 <_GLOBAL__sub_I_mouse+0x50>)
     570:	4a06      	ldr	r2, [pc, #24]	; (58c <_GLOBAL__sub_I_mouse+0x54>)
     572:	f002 f8d9 	bl	2728 <__aeabi_atexit>
     576:	b004      	add	sp, #16
     578:	bd70      	pop	{r4, r5, r6, pc}
     57a:	46c0      	nop			; (mov r8, r8)
     57c:	1ffff41c 	.word	0x1ffff41c
     580:	00001234 	.word	0x00001234
     584:	00006d38 	.word	0x00006d38
     588:	00000471 	.word	0x00000471
     58c:	1ffff0c0 	.word	0x1ffff0c0

00000590 <_start>:
     590:	4807      	ldr	r0, [pc, #28]	; (5b0 <_start+0x20>)
     592:	4a08      	ldr	r2, [pc, #32]	; (5b4 <_start+0x24>)
     594:	b508      	push	{r3, lr}
     596:	1a12      	subs	r2, r2, r0
     598:	2100      	movs	r1, #0
     59a:	f003 fabc 	bl	3b16 <memset>
     59e:	e000      	b.n	5a2 <_start+0x12>
     5a0:	bf00      	nop
     5a2:	f003 fa7f 	bl	3aa4 <__libc_init_array>
     5a6:	f7ff ff6f 	bl	488 <main>
     5aa:	f001 fa9d 	bl	1ae8 <exit>
     5ae:	46c0      	nop			; (mov r8, r8)
     5b0:	1ffff400 	.word	0x1ffff400
     5b4:	1ffffa44 	.word	0x1ffffa44

000005b8 <__wrap__isatty>:
     5b8:	b508      	push	{r3, lr}
     5ba:	2301      	movs	r3, #1
     5bc:	2802      	cmp	r0, #2
     5be:	dd02      	ble.n	5c6 <__wrap__isatty+0xe>
     5c0:	f001 fb52 	bl	1c68 <_isatty>
     5c4:	1c03      	adds	r3, r0, #0
     5c6:	1c18      	adds	r0, r3, #0
     5c8:	bd08      	pop	{r3, pc}
     5ca:	46c0      	nop			; (mov r8, r8)

000005cc <__wrap_malloc>:
     5cc:	b508      	push	{r3, lr}
     5ce:	f003 fa8f 	bl	3af0 <malloc>
     5d2:	bd08      	pop	{r3, pc}

000005d4 <abort>:
     5d4:	b508      	push	{r3, lr}
     5d6:	2001      	movs	r0, #1
     5d8:	f001 fa86 	bl	1ae8 <exit>

000005dc <USBHAL::SOF(int)>:
     5dc:	4770      	bx	lr
     5de:	46c0      	nop			; (mov r8, r8)

000005e0 <USBHAL::EP1_OUT_callback()>:
     5e0:	2000      	movs	r0, #0
     5e2:	4770      	bx	lr

000005e4 <USBHAL::EP1_IN_callback()>:
     5e4:	2000      	movs	r0, #0
     5e6:	4770      	bx	lr

000005e8 <USBHAL::EP2_OUT_callback()>:
     5e8:	2000      	movs	r0, #0
     5ea:	4770      	bx	lr

000005ec <USBHAL::EP2_IN_callback()>:
     5ec:	2000      	movs	r0, #0
     5ee:	4770      	bx	lr

000005f0 <USBHAL::EP3_OUT_callback()>:
     5f0:	2000      	movs	r0, #0
     5f2:	4770      	bx	lr

000005f4 <USBHAL::EP3_IN_callback()>:
     5f4:	2000      	movs	r0, #0
     5f6:	4770      	bx	lr

000005f8 <USBHAL::EP4_OUT_callback()>:
     5f8:	2000      	movs	r0, #0
     5fa:	4770      	bx	lr

000005fc <USBHAL::EP4_IN_callback()>:
     5fc:	2000      	movs	r0, #0
     5fe:	4770      	bx	lr

00000600 <USBHAL::EP5_OUT_callback()>:
     600:	2000      	movs	r0, #0
     602:	4770      	bx	lr

00000604 <USBHAL::EP5_IN_callback()>:
     604:	2000      	movs	r0, #0
     606:	4770      	bx	lr

00000608 <USBHAL::EP6_OUT_callback()>:
     608:	2000      	movs	r0, #0
     60a:	4770      	bx	lr

0000060c <USBHAL::EP6_IN_callback()>:
     60c:	2000      	movs	r0, #0
     60e:	4770      	bx	lr

00000610 <USBHAL::EP7_OUT_callback()>:
     610:	2000      	movs	r0, #0
     612:	4770      	bx	lr

00000614 <USBHAL::EP7_IN_callback()>:
     614:	2000      	movs	r0, #0
     616:	4770      	bx	lr

00000618 <USBHAL::EP8_OUT_callback()>:
     618:	2000      	movs	r0, #0
     61a:	4770      	bx	lr

0000061c <USBHAL::EP8_IN_callback()>:
     61c:	2000      	movs	r0, #0
     61e:	4770      	bx	lr

00000620 <USBHAL::EP9_OUT_callback()>:
     620:	2000      	movs	r0, #0
     622:	4770      	bx	lr

00000624 <USBHAL::EP9_IN_callback()>:
     624:	2000      	movs	r0, #0
     626:	4770      	bx	lr

00000628 <USBHAL::EP10_OUT_callback()>:
     628:	2000      	movs	r0, #0
     62a:	4770      	bx	lr

0000062c <USBHAL::EP10_IN_callback()>:
     62c:	2000      	movs	r0, #0
     62e:	4770      	bx	lr

00000630 <USBHAL::EP11_OUT_callback()>:
     630:	2000      	movs	r0, #0
     632:	4770      	bx	lr

00000634 <USBHAL::EP11_IN_callback()>:
     634:	2000      	movs	r0, #0
     636:	4770      	bx	lr

00000638 <USBHAL::EP12_OUT_callback()>:
     638:	2000      	movs	r0, #0
     63a:	4770      	bx	lr

0000063c <USBHAL::EP12_IN_callback()>:
     63c:	2000      	movs	r0, #0
     63e:	4770      	bx	lr

00000640 <USBHAL::EP13_OUT_callback()>:
     640:	2000      	movs	r0, #0
     642:	4770      	bx	lr

00000644 <USBHAL::EP13_IN_callback()>:
     644:	2000      	movs	r0, #0
     646:	4770      	bx	lr

00000648 <USBHAL::EP14_OUT_callback()>:
     648:	2000      	movs	r0, #0
     64a:	4770      	bx	lr

0000064c <USBHAL::EP14_IN_callback()>:
     64c:	2000      	movs	r0, #0
     64e:	4770      	bx	lr

00000650 <USBHAL::EP15_OUT_callback()>:
     650:	2000      	movs	r0, #0
     652:	4770      	bx	lr

00000654 <USBHAL::EP15_IN_callback()>:
     654:	2000      	movs	r0, #0
     656:	4770      	bx	lr

00000658 <USBDevice::USBCallback_busReset()>:
     658:	4770      	bx	lr
     65a:	46c0      	nop			; (mov r8, r8)

0000065c <USBDevice::USBCallback_request()>:
     65c:	2000      	movs	r0, #0
     65e:	4770      	bx	lr

00000660 <USBDevice::USBCallback_requestCompleted(unsigned char*, unsigned long)>:
     660:	4770      	bx	lr
     662:	46c0      	nop			; (mov r8, r8)

00000664 <USBDevice::USBCallback_setConfiguration(unsigned char)>:
     664:	2000      	movs	r0, #0
     666:	4770      	bx	lr

00000668 <USBDevice::USBCallback_setInterface(unsigned short, unsigned char)>:
     668:	2000      	movs	r0, #0
     66a:	4770      	bx	lr

0000066c <USBDevice::configurationDesc()>:
     66c:	2000      	movs	r0, #0
     66e:	4770      	bx	lr

00000670 <USBDevice::reportDescLength()>:
     670:	2000      	movs	r0, #0
     672:	4770      	bx	lr

00000674 <USBDevice::busReset()>:
     674:	b508      	push	{r3, lr}
     676:	238a      	movs	r3, #138	; 0x8a
     678:	2202      	movs	r2, #2
     67a:	005b      	lsls	r3, r3, #1
     67c:	54c2      	strb	r2, [r0, r3]
     67e:	2216      	movs	r2, #22
     680:	2300      	movs	r3, #0
     682:	32ff      	adds	r2, #255	; 0xff
     684:	5483      	strb	r3, [r0, r2]
     686:	228b      	movs	r2, #139	; 0x8b
     688:	0052      	lsls	r2, r2, #1
     68a:	5483      	strb	r3, [r0, r2]
     68c:	6802      	ldr	r2, [r0, #0]
     68e:	2394      	movs	r3, #148	; 0x94
     690:	58d3      	ldr	r3, [r2, r3]
     692:	4798      	blx	r3
     694:	bd08      	pop	{r3, pc}
     696:	46c0      	nop			; (mov r8, r8)

00000698 <USBDevice::connectStateChanged(unsigned int)>:
     698:	4770      	bx	lr
     69a:	46c0      	nop			; (mov r8, r8)

0000069c <USBDevice::suspendStateChanged(unsigned int)>:
     69c:	4770      	bx	lr
     69e:	46c0      	nop			; (mov r8, r8)

000006a0 <USBDevice::stringLangidDesc()>:
     6a0:	4800      	ldr	r0, [pc, #0]	; (6a4 <USBDevice::stringLangidDesc()+0x4>)
     6a2:	4770      	bx	lr
     6a4:	1ffff0fc 	.word	0x1ffff0fc

000006a8 <USBDevice::stringImanufacturerDesc()>:
     6a8:	4800      	ldr	r0, [pc, #0]	; (6ac <USBDevice::stringImanufacturerDesc()+0x4>)
     6aa:	4770      	bx	lr
     6ac:	1ffff0cc 	.word	0x1ffff0cc

000006b0 <USBDevice::stringIserialDesc()>:
     6b0:	4800      	ldr	r0, [pc, #0]	; (6b4 <USBDevice::stringIserialDesc()+0x4>)
     6b2:	4770      	bx	lr
     6b4:	1ffff118 	.word	0x1ffff118

000006b8 <USBDevice::stringIConfigurationDesc()>:
     6b8:	4800      	ldr	r0, [pc, #0]	; (6bc <USBDevice::stringIConfigurationDesc()+0x4>)
     6ba:	4770      	bx	lr
     6bc:	1ffff0f4 	.word	0x1ffff0f4

000006c0 <USBDevice::stringIinterfaceDesc()>:
     6c0:	4800      	ldr	r0, [pc, #0]	; (6c4 <USBDevice::stringIinterfaceDesc()+0x4>)
     6c2:	4770      	bx	lr
     6c4:	1ffff0c4 	.word	0x1ffff0c4

000006c8 <USBDevice::stringIproductDesc()>:
     6c8:	4800      	ldr	r0, [pc, #0]	; (6cc <USBDevice::stringIproductDesc()+0x4>)
     6ca:	4770      	bx	lr
     6cc:	1ffff100 	.word	0x1ffff100

000006d0 <USBDevice::deviceDesc()>:
     6d0:	b570      	push	{r4, r5, r6, lr}
     6d2:	4d10      	ldr	r5, [pc, #64]	; (714 <USBDevice::deviceDesc()+0x44>)
     6d4:	1c06      	adds	r6, r0, #0
     6d6:	682b      	ldr	r3, [r5, #0]
     6d8:	07db      	lsls	r3, r3, #31
     6da:	d502      	bpl.n	6e2 <USBDevice::deviceDesc()+0x12>
     6dc:	4c0e      	ldr	r4, [pc, #56]	; (718 <USBDevice::deviceDesc()+0x48>)
     6de:	1c20      	adds	r0, r4, #0
     6e0:	bd70      	pop	{r4, r5, r6, pc}
     6e2:	1c28      	adds	r0, r5, #0
     6e4:	f002 f827 	bl	2736 <__cxa_guard_acquire>
     6e8:	2800      	cmp	r0, #0
     6ea:	d0f7      	beq.n	6dc <USBDevice::deviceDesc()+0xc>
     6ec:	23f4      	movs	r3, #244	; 0xf4
     6ee:	5af3      	ldrh	r3, [r6, r3]
     6f0:	4c09      	ldr	r4, [pc, #36]	; (718 <USBDevice::deviceDesc()+0x48>)
     6f2:	1c28      	adds	r0, r5, #0
     6f4:	7223      	strb	r3, [r4, #8]
     6f6:	0a1b      	lsrs	r3, r3, #8
     6f8:	7263      	strb	r3, [r4, #9]
     6fa:	23f6      	movs	r3, #246	; 0xf6
     6fc:	5af3      	ldrh	r3, [r6, r3]
     6fe:	72a3      	strb	r3, [r4, #10]
     700:	0a1b      	lsrs	r3, r3, #8
     702:	72e3      	strb	r3, [r4, #11]
     704:	23f8      	movs	r3, #248	; 0xf8
     706:	5af3      	ldrh	r3, [r6, r3]
     708:	7323      	strb	r3, [r4, #12]
     70a:	0a1b      	lsrs	r3, r3, #8
     70c:	7363      	strb	r3, [r4, #13]
     70e:	f002 f821 	bl	2754 <__cxa_guard_release>
     712:	e7e4      	b.n	6de <USBDevice::deviceDesc()+0xe>
     714:	1ffff588 	.word	0x1ffff588
     718:	1ffff0e0 	.word	0x1ffff0e0

0000071c <USBDevice::requestGetDescriptor()>:
     71c:	b5f8      	push	{r3, r4, r5, r6, r7, lr}
     71e:	2380      	movs	r3, #128	; 0x80
     720:	005b      	lsls	r3, r3, #1
     722:	5ac2      	ldrh	r2, [r0, r3]
     724:	1c04      	adds	r4, r0, #0
     726:	1213      	asrs	r3, r2, #8
     728:	2b02      	cmp	r3, #2
     72a:	d030      	beq.n	78e <USBDevice::requestGetDescriptor()+0x72>
     72c:	2b03      	cmp	r3, #3
     72e:	d026      	beq.n	77e <USBDevice::requestGetDescriptor()+0x62>
     730:	2b01      	cmp	r3, #1
     732:	d001      	beq.n	738 <USBDevice::requestGetDescriptor()+0x1c>
     734:	2000      	movs	r0, #0
     736:	bdf8      	pop	{r3, r4, r5, r6, r7, pc}
     738:	6802      	ldr	r2, [r0, #0]
     73a:	25a8      	movs	r5, #168	; 0xa8
     73c:	5953      	ldr	r3, [r2, r5]
     73e:	4798      	blx	r3
     740:	2800      	cmp	r0, #0
     742:	d0f7      	beq.n	734 <USBDevice::requestGetDescriptor()+0x18>
     744:	6822      	ldr	r2, [r4, #0]
     746:	1c20      	adds	r0, r4, #0
     748:	5953      	ldr	r3, [r2, r5]
     74a:	4798      	blx	r3
     74c:	7806      	ldrb	r6, [r0, #0]
     74e:	2e12      	cmp	r6, #18
     750:	d1f0      	bne.n	734 <USBDevice::requestGetDescriptor()+0x18>
     752:	6822      	ldr	r2, [r4, #0]
     754:	1c20      	adds	r0, r4, #0
     756:	5953      	ldr	r3, [r2, r5]
     758:	4798      	blx	r3
     75a:	7847      	ldrb	r7, [r0, #1]
     75c:	2f01      	cmp	r7, #1
     75e:	d1e9      	bne.n	734 <USBDevice::requestGetDescriptor()+0x18>
     760:	6822      	ldr	r2, [r4, #0]
     762:	2386      	movs	r3, #134	; 0x86
     764:	005b      	lsls	r3, r3, #1
     766:	50e6      	str	r6, [r4, r3]
     768:	1c20      	adds	r0, r4, #0
     76a:	5953      	ldr	r3, [r2, r5]
     76c:	4798      	blx	r3
     76e:	2384      	movs	r3, #132	; 0x84
     770:	005b      	lsls	r3, r3, #1
     772:	50e0      	str	r0, [r4, r3]
     774:	2388      	movs	r3, #136	; 0x88
     776:	005b      	lsls	r3, r3, #1
     778:	54e7      	strb	r7, [r4, r3]
     77a:	2001      	movs	r0, #1
     77c:	e7db      	b.n	736 <USBDevice::requestGetDescriptor()+0x1a>
     77e:	23ff      	movs	r3, #255	; 0xff
     780:	401a      	ands	r2, r3
     782:	2a05      	cmp	r2, #5
     784:	d8d6      	bhi.n	734 <USBDevice::requestGetDescriptor()+0x18>
     786:	4b24      	ldr	r3, [pc, #144]	; (818 <USBDevice::requestGetDescriptor()+0xfc>)
     788:	0092      	lsls	r2, r2, #2
     78a:	589b      	ldr	r3, [r3, r2]
     78c:	469f      	mov	pc, r3
     78e:	6802      	ldr	r2, [r0, #0]
     790:	25ac      	movs	r5, #172	; 0xac
     792:	5953      	ldr	r3, [r2, r5]
     794:	4798      	blx	r3
     796:	2800      	cmp	r0, #0
     798:	d0cc      	beq.n	734 <USBDevice::requestGetDescriptor()+0x18>
     79a:	6822      	ldr	r2, [r4, #0]
     79c:	1c20      	adds	r0, r4, #0
     79e:	5953      	ldr	r3, [r2, r5]
     7a0:	4798      	blx	r3
     7a2:	7803      	ldrb	r3, [r0, #0]
     7a4:	2b09      	cmp	r3, #9
     7a6:	d1c5      	bne.n	734 <USBDevice::requestGetDescriptor()+0x18>
     7a8:	6822      	ldr	r2, [r4, #0]
     7aa:	1c20      	adds	r0, r4, #0
     7ac:	5953      	ldr	r3, [r2, r5]
     7ae:	4798      	blx	r3
     7b0:	7843      	ldrb	r3, [r0, #1]
     7b2:	2b02      	cmp	r3, #2
     7b4:	d1be      	bne.n	734 <USBDevice::requestGetDescriptor()+0x18>
     7b6:	6822      	ldr	r2, [r4, #0]
     7b8:	1c20      	adds	r0, r4, #0
     7ba:	5953      	ldr	r3, [r2, r5]
     7bc:	4798      	blx	r3
     7be:	6822      	ldr	r2, [r4, #0]
     7c0:	7886      	ldrb	r6, [r0, #2]
     7c2:	5953      	ldr	r3, [r2, r5]
     7c4:	1c20      	adds	r0, r4, #0
     7c6:	4798      	blx	r3
     7c8:	78c3      	ldrb	r3, [r0, #3]
     7ca:	021b      	lsls	r3, r3, #8
     7cc:	431e      	orrs	r6, r3
     7ce:	2386      	movs	r3, #134	; 0x86
     7d0:	005b      	lsls	r3, r3, #1
     7d2:	50e6      	str	r6, [r4, r3]
     7d4:	e008      	b.n	7e8 <USBDevice::requestGetDescriptor()+0xcc>
     7d6:	25bc      	movs	r5, #188	; 0xbc
     7d8:	6822      	ldr	r2, [r4, #0]
     7da:	1c20      	adds	r0, r4, #0
     7dc:	5953      	ldr	r3, [r2, r5]
     7de:	4798      	blx	r3
     7e0:	2386      	movs	r3, #134	; 0x86
     7e2:	7802      	ldrb	r2, [r0, #0]
     7e4:	005b      	lsls	r3, r3, #1
     7e6:	50e2      	str	r2, [r4, r3]
     7e8:	6822      	ldr	r2, [r4, #0]
     7ea:	1c20      	adds	r0, r4, #0
     7ec:	5953      	ldr	r3, [r2, r5]
     7ee:	4798      	blx	r3
     7f0:	2384      	movs	r3, #132	; 0x84
     7f2:	005b      	lsls	r3, r3, #1
     7f4:	50e0      	str	r0, [r4, r3]
     7f6:	2388      	movs	r3, #136	; 0x88
     7f8:	2201      	movs	r2, #1
     7fa:	005b      	lsls	r3, r3, #1
     7fc:	54e2      	strb	r2, [r4, r3]
     7fe:	2001      	movs	r0, #1
     800:	e799      	b.n	736 <USBDevice::requestGetDescriptor()+0x1a>
     802:	25b0      	movs	r5, #176	; 0xb0
     804:	e7e8      	b.n	7d8 <USBDevice::requestGetDescriptor()+0xbc>
     806:	25b4      	movs	r5, #180	; 0xb4
     808:	e7e6      	b.n	7d8 <USBDevice::requestGetDescriptor()+0xbc>
     80a:	25c4      	movs	r5, #196	; 0xc4
     80c:	e7e4      	b.n	7d8 <USBDevice::requestGetDescriptor()+0xbc>
     80e:	25c0      	movs	r5, #192	; 0xc0
     810:	e7e2      	b.n	7d8 <USBDevice::requestGetDescriptor()+0xbc>
     812:	25b8      	movs	r5, #184	; 0xb8
     814:	e7e0      	b.n	7d8 <USBDevice::requestGetDescriptor()+0xbc>
     816:	46c0      	nop			; (mov r8, r8)
     818:	00006a8c 	.word	0x00006a8c

0000081c <USBDevice::decodeSetupPacket(unsigned char*, SETUP_PACKET*)>:
     81c:	780b      	ldrb	r3, [r1, #0]
     81e:	201f      	movs	r0, #31
     820:	09db      	lsrs	r3, r3, #7
     822:	7013      	strb	r3, [r2, #0]
     824:	780b      	ldrb	r3, [r1, #0]
     826:	065b      	lsls	r3, r3, #25
     828:	0f9b      	lsrs	r3, r3, #30
     82a:	7053      	strb	r3, [r2, #1]
     82c:	780b      	ldrb	r3, [r1, #0]
     82e:	4003      	ands	r3, r0
     830:	7093      	strb	r3, [r2, #2]
     832:	784b      	ldrb	r3, [r1, #1]
     834:	70d3      	strb	r3, [r2, #3]
     836:	78cb      	ldrb	r3, [r1, #3]
     838:	7888      	ldrb	r0, [r1, #2]
     83a:	021b      	lsls	r3, r3, #8
     83c:	4303      	orrs	r3, r0
     83e:	8093      	strh	r3, [r2, #4]
     840:	794b      	ldrb	r3, [r1, #5]
     842:	7908      	ldrb	r0, [r1, #4]
     844:	021b      	lsls	r3, r3, #8
     846:	4303      	orrs	r3, r0
     848:	80d3      	strh	r3, [r2, #6]
     84a:	79cb      	ldrb	r3, [r1, #7]
     84c:	7989      	ldrb	r1, [r1, #6]
     84e:	021b      	lsls	r3, r3, #8
     850:	430b      	orrs	r3, r1
     852:	8113      	strh	r3, [r2, #8]
     854:	4770      	bx	lr
     856:	46c0      	nop			; (mov r8, r8)

00000858 <USBDevice::controlIn()>:
     858:	2386      	movs	r3, #134	; 0x86
     85a:	005b      	lsls	r3, r3, #1
     85c:	b570      	push	{r4, r5, r6, lr}
     85e:	58c5      	ldr	r5, [r0, r3]
     860:	1c04      	adds	r4, r0, #0
     862:	2d00      	cmp	r5, #0
     864:	d111      	bne.n	88a <USBDevice::controlIn()+0x32>
     866:	2612      	movs	r6, #18
     868:	36ff      	adds	r6, #255	; 0xff
     86a:	5d83      	ldrb	r3, [r0, r6]
     86c:	2b00      	cmp	r3, #0
     86e:	d130      	bne.n	8d2 <USBDevice::controlIn()+0x7a>
     870:	2589      	movs	r5, #137	; 0x89
     872:	006d      	lsls	r5, r5, #1
     874:	5d63      	ldrb	r3, [r4, r5]
     876:	2b00      	cmp	r3, #0
     878:	d121      	bne.n	8be <USBDevice::controlIn()+0x66>
     87a:	1c20      	adds	r0, r4, #0
     87c:	f000 fc84 	bl	1188 <USBHAL::EP0read()>
     880:	1c20      	adds	r0, r4, #0
     882:	f000 fc73 	bl	116c <USBHAL::EP0readStage()>
     886:	2001      	movs	r0, #1
     888:	bd70      	pop	{r4, r5, r6, pc}
     88a:	2388      	movs	r3, #136	; 0x88
     88c:	005b      	lsls	r3, r3, #1
     88e:	5cc3      	ldrb	r3, [r0, r3]
     890:	2000      	movs	r0, #0
     892:	2b01      	cmp	r3, #1
     894:	d1f8      	bne.n	888 <USBDevice::controlIn()+0x30>
     896:	2d40      	cmp	r5, #64	; 0x40
     898:	d900      	bls.n	89c <USBDevice::controlIn()+0x44>
     89a:	2540      	movs	r5, #64	; 0x40
     89c:	2684      	movs	r6, #132	; 0x84
     89e:	0076      	lsls	r6, r6, #1
     8a0:	1c2a      	adds	r2, r5, #0
     8a2:	1c20      	adds	r0, r4, #0
     8a4:	59a1      	ldr	r1, [r4, r6]
     8a6:	f000 fd83 	bl	13b0 <USBHAL::EP0write(unsigned char*, unsigned long)>
     8aa:	59a2      	ldr	r2, [r4, r6]
     8ac:	2001      	movs	r0, #1
     8ae:	1953      	adds	r3, r2, r5
     8b0:	51a3      	str	r3, [r4, r6]
     8b2:	2386      	movs	r3, #134	; 0x86
     8b4:	005b      	lsls	r3, r3, #1
     8b6:	58e2      	ldr	r2, [r4, r3]
     8b8:	1b55      	subs	r5, r2, r5
     8ba:	50e5      	str	r5, [r4, r3]
     8bc:	e7e4      	b.n	888 <USBDevice::controlIn()+0x30>
     8be:	6822      	ldr	r2, [r4, #0]
     8c0:	239c      	movs	r3, #156	; 0x9c
     8c2:	58d3      	ldr	r3, [r2, r3]
     8c4:	1c20      	adds	r0, r4, #0
     8c6:	2100      	movs	r1, #0
     8c8:	2200      	movs	r2, #0
     8ca:	4798      	blx	r3
     8cc:	2300      	movs	r3, #0
     8ce:	5563      	strb	r3, [r4, r5]
     8d0:	e7d3      	b.n	87a <USBDevice::controlIn()+0x22>
     8d2:	2100      	movs	r1, #0
     8d4:	2200      	movs	r2, #0
     8d6:	f000 fd6b 	bl	13b0 <USBHAL::EP0write(unsigned char*, unsigned long)>
     8da:	55a5      	strb	r5, [r4, r6]
     8dc:	2589      	movs	r5, #137	; 0x89
     8de:	006d      	lsls	r5, r5, #1
     8e0:	5d63      	ldrb	r3, [r4, r5]
     8e2:	2b00      	cmp	r3, #0
     8e4:	d0c9      	beq.n	87a <USBDevice::controlIn()+0x22>
     8e6:	e7ea      	b.n	8be <USBDevice::controlIn()+0x66>

000008e8 <USBDevice::controlOut()>:
     8e8:	b570      	push	{r4, r5, r6, lr}
     8ea:	2388      	movs	r3, #136	; 0x88
     8ec:	005b      	lsls	r3, r3, #1
     8ee:	5cc3      	ldrb	r3, [r0, r3]
     8f0:	b090      	sub	sp, #64	; 0x40
     8f2:	1c04      	adds	r4, r0, #0
     8f4:	2b00      	cmp	r3, #0
     8f6:	d11e      	bne.n	936 <USBDevice::controlOut()+0x4e>
     8f8:	4669      	mov	r1, sp
     8fa:	f000 fd09 	bl	1310 <USBHAL::EP0getReadResult(unsigned char*)>
     8fe:	2386      	movs	r3, #134	; 0x86
     900:	005b      	lsls	r3, r3, #1
     902:	58e1      	ldr	r1, [r4, r3]
     904:	1c02      	adds	r2, r0, #0
     906:	2000      	movs	r0, #0
     908:	428a      	cmp	r2, r1
     90a:	d812      	bhi.n	932 <USBDevice::controlOut()+0x4a>
     90c:	2084      	movs	r0, #132	; 0x84
     90e:	0040      	lsls	r0, r0, #1
     910:	5826      	ldr	r6, [r4, r0]
     912:	18b5      	adds	r5, r6, r2
     914:	5025      	str	r5, [r4, r0]
     916:	1a8d      	subs	r5, r1, r2
     918:	50e5      	str	r5, [r4, r3]
     91a:	d125      	bne.n	968 <USBDevice::controlOut()+0x80>
     91c:	2689      	movs	r6, #137	; 0x89
     91e:	0076      	lsls	r6, r6, #1
     920:	5da3      	ldrb	r3, [r4, r6]
     922:	2b00      	cmp	r3, #0
     924:	d112      	bne.n	94c <USBDevice::controlOut()+0x64>
     926:	1c20      	adds	r0, r4, #0
     928:	2100      	movs	r1, #0
     92a:	2200      	movs	r2, #0
     92c:	f000 fd40 	bl	13b0 <USBHAL::EP0write(unsigned char*, unsigned long)>
     930:	2001      	movs	r0, #1
     932:	b010      	add	sp, #64	; 0x40
     934:	bd70      	pop	{r4, r5, r6, pc}
     936:	2300      	movs	r3, #0
     938:	4669      	mov	r1, sp
     93a:	2200      	movs	r2, #0
     93c:	700b      	strb	r3, [r1, #0]
     93e:	f000 fd37 	bl	13b0 <USBHAL::EP0write(unsigned char*, unsigned long)>
     942:	1c20      	adds	r0, r4, #0
     944:	f7ff ff88 	bl	858 <USBDevice::controlIn()>
     948:	2001      	movs	r0, #1
     94a:	e7f2      	b.n	932 <USBDevice::controlOut()+0x4a>
     94c:	6821      	ldr	r1, [r4, #0]
     94e:	239c      	movs	r3, #156	; 0x9c
     950:	58cb      	ldr	r3, [r1, r3]
     952:	1c20      	adds	r0, r4, #0
     954:	4669      	mov	r1, sp
     956:	4798      	blx	r3
     958:	1c20      	adds	r0, r4, #0
     95a:	55a5      	strb	r5, [r4, r6]
     95c:	2100      	movs	r1, #0
     95e:	2200      	movs	r2, #0
     960:	f000 fd26 	bl	13b0 <USBHAL::EP0write(unsigned char*, unsigned long)>
     964:	2001      	movs	r0, #1
     966:	e7e4      	b.n	932 <USBDevice::controlOut()+0x4a>
     968:	1c20      	adds	r0, r4, #0
     96a:	f000 fc0d 	bl	1188 <USBHAL::EP0read()>
     96e:	2001      	movs	r0, #1
     970:	e7df      	b.n	932 <USBDevice::controlOut()+0x4a>
     972:	46c0      	nop			; (mov r8, r8)

00000974 <USBDevice::EP0out()>:
     974:	b510      	push	{r4, lr}
     976:	1c04      	adds	r4, r0, #0
     978:	f7ff ffb6 	bl	8e8 <USBDevice::controlOut()>
     97c:	2800      	cmp	r0, #0
     97e:	d102      	bne.n	986 <USBDevice::EP0out()+0x12>
     980:	1c20      	adds	r0, r4, #0
     982:	f000 fc07 	bl	1194 <USBHAL::EP0stall()>
     986:	bd10      	pop	{r4, pc}

00000988 <USBDevice::EP0in()>:
     988:	b510      	push	{r4, lr}
     98a:	1c04      	adds	r4, r0, #0
     98c:	f7ff ff64 	bl	858 <USBDevice::controlIn()>
     990:	2800      	cmp	r0, #0
     992:	d102      	bne.n	99a <USBDevice::EP0in()+0x12>
     994:	1c20      	adds	r0, r4, #0
     996:	f000 fbfd 	bl	1194 <USBHAL::EP0stall()>
     99a:	bd10      	pop	{r4, pc}

0000099c <USBDevice::requestSetConfiguration()>:
     99c:	b510      	push	{r4, lr}
     99e:	2380      	movs	r3, #128	; 0x80
     9a0:	005b      	lsls	r3, r3, #1
     9a2:	5cc1      	ldrb	r1, [r0, r3]
     9a4:	2316      	movs	r3, #22
     9a6:	33ff      	adds	r3, #255	; 0xff
     9a8:	1c04      	adds	r4, r0, #0
     9aa:	54c1      	strb	r1, [r0, r3]
     9ac:	2900      	cmp	r1, #0
     9ae:	d011      	beq.n	9d4 <USBDevice::requestSetConfiguration()+0x38>
     9b0:	6802      	ldr	r2, [r0, #0]
     9b2:	23a0      	movs	r3, #160	; 0xa0
     9b4:	58d3      	ldr	r3, [r2, r3]
     9b6:	4798      	blx	r3
     9b8:	1c03      	adds	r3, r0, #0
     9ba:	2000      	movs	r0, #0
     9bc:	2b00      	cmp	r3, #0
     9be:	d100      	bne.n	9c2 <USBDevice::requestSetConfiguration()+0x26>
     9c0:	bd10      	pop	{r4, pc}
     9c2:	1c20      	adds	r0, r4, #0
     9c4:	f000 fbba 	bl	113c <USBHAL::configureDevice()>
     9c8:	238a      	movs	r3, #138	; 0x8a
     9ca:	2204      	movs	r2, #4
     9cc:	005b      	lsls	r3, r3, #1
     9ce:	54e2      	strb	r2, [r4, r3]
     9d0:	2001      	movs	r0, #1
     9d2:	e7f5      	b.n	9c0 <USBDevice::requestSetConfiguration()+0x24>
     9d4:	f000 fbb4 	bl	1140 <USBHAL::unconfigureDevice()>
     9d8:	238a      	movs	r3, #138	; 0x8a
     9da:	2203      	movs	r2, #3
     9dc:	005b      	lsls	r3, r3, #1
     9de:	54e2      	strb	r2, [r4, r3]
     9e0:	2001      	movs	r0, #1
     9e2:	e7ed      	b.n	9c0 <USBDevice::requestSetConfiguration()+0x24>

000009e4 <USBDevice::requestSetFeature()>:
     9e4:	b508      	push	{r3, lr}
     9e6:	238a      	movs	r3, #138	; 0x8a
     9e8:	005b      	lsls	r3, r3, #1
     9ea:	5cc3      	ldrb	r3, [r0, r3]
     9ec:	2b04      	cmp	r3, #4
     9ee:	d005      	beq.n	9fc <USBDevice::requestSetFeature()+0x18>
     9f0:	2381      	movs	r3, #129	; 0x81
     9f2:	005b      	lsls	r3, r3, #1
     9f4:	5ac2      	ldrh	r2, [r0, r3]
     9f6:	2300      	movs	r3, #0
     9f8:	2a00      	cmp	r2, #0
     9fa:	d115      	bne.n	a28 <USBDevice::requestSetFeature()+0x44>
     9fc:	23fe      	movs	r3, #254	; 0xfe
     9fe:	5cc3      	ldrb	r3, [r0, r3]
     a00:	2b02      	cmp	r3, #2
     a02:	d113      	bne.n	a2c <USBDevice::requestSetFeature()+0x48>
     a04:	2380      	movs	r3, #128	; 0x80
     a06:	005b      	lsls	r3, r3, #1
     a08:	5ac2      	ldrh	r2, [r0, r3]
     a0a:	2300      	movs	r3, #0
     a0c:	2a00      	cmp	r2, #0
     a0e:	d10b      	bne.n	a28 <USBDevice::requestSetFeature()+0x44>
     a10:	2381      	movs	r3, #129	; 0x81
     a12:	005b      	lsls	r3, r3, #1
     a14:	5ac3      	ldrh	r3, [r0, r3]
     a16:	210f      	movs	r1, #15
     a18:	4019      	ands	r1, r3
     a1a:	061b      	lsls	r3, r3, #24
     a1c:	0fdb      	lsrs	r3, r3, #31
     a1e:	0049      	lsls	r1, r1, #1
     a20:	18c9      	adds	r1, r1, r3
     a22:	f000 fcdd 	bl	13e0 <USBHAL::stallEndpoint(unsigned char)>
     a26:	2301      	movs	r3, #1
     a28:	1c18      	adds	r0, r3, #0
     a2a:	bd08      	pop	{r3, pc}
     a2c:	2300      	movs	r3, #0
     a2e:	e7fb      	b.n	a28 <USBDevice::requestSetFeature()+0x44>

00000a30 <USBDevice::requestClearFeature()>:
     a30:	b508      	push	{r3, lr}
     a32:	238a      	movs	r3, #138	; 0x8a
     a34:	005b      	lsls	r3, r3, #1
     a36:	5cc3      	ldrb	r3, [r0, r3]
     a38:	2b04      	cmp	r3, #4
     a3a:	d005      	beq.n	a48 <USBDevice::requestClearFeature()+0x18>
     a3c:	2381      	movs	r3, #129	; 0x81
     a3e:	005b      	lsls	r3, r3, #1
     a40:	5ac2      	ldrh	r2, [r0, r3]
     a42:	2300      	movs	r3, #0
     a44:	2a00      	cmp	r2, #0
     a46:	d115      	bne.n	a74 <USBDevice::requestClearFeature()+0x44>
     a48:	23fe      	movs	r3, #254	; 0xfe
     a4a:	5cc3      	ldrb	r3, [r0, r3]
     a4c:	2b02      	cmp	r3, #2
     a4e:	d113      	bne.n	a78 <USBDevice::requestClearFeature()+0x48>
     a50:	2380      	movs	r3, #128	; 0x80
     a52:	005b      	lsls	r3, r3, #1
     a54:	5ac2      	ldrh	r2, [r0, r3]
     a56:	2300      	movs	r3, #0
     a58:	2a00      	cmp	r2, #0
     a5a:	d10b      	bne.n	a74 <USBDevice::requestClearFeature()+0x44>
     a5c:	2381      	movs	r3, #129	; 0x81
     a5e:	005b      	lsls	r3, r3, #1
     a60:	5ac3      	ldrh	r3, [r0, r3]
     a62:	210f      	movs	r1, #15
     a64:	4019      	ands	r1, r3
     a66:	061b      	lsls	r3, r3, #24
     a68:	0fdb      	lsrs	r3, r3, #31
     a6a:	0049      	lsls	r1, r1, #1
     a6c:	18c9      	adds	r1, r1, r3
     a6e:	f000 fcc3 	bl	13f8 <USBHAL::unstallEndpoint(unsigned char)>
     a72:	2301      	movs	r3, #1
     a74:	1c18      	adds	r0, r3, #0
     a76:	bd08      	pop	{r3, pc}
     a78:	2300      	movs	r3, #0
     a7a:	e7fb      	b.n	a74 <USBDevice::requestClearFeature()+0x44>

00000a7c <USBDevice::requestGetStatus()>:
     a7c:	b538      	push	{r3, r4, r5, lr}
     a7e:	238a      	movs	r3, #138	; 0x8a
     a80:	005b      	lsls	r3, r3, #1
     a82:	5cc3      	ldrb	r3, [r0, r3]
     a84:	1c04      	adds	r4, r0, #0
     a86:	2b04      	cmp	r3, #4
     a88:	d005      	beq.n	a96 <USBDevice::requestGetStatus()+0x1a>
     a8a:	2381      	movs	r3, #129	; 0x81
     a8c:	005b      	lsls	r3, r3, #1
     a8e:	5ac3      	ldrh	r3, [r0, r3]
     a90:	2000      	movs	r0, #0
     a92:	2b00      	cmp	r3, #0
     a94:	d124      	bne.n	ae0 <USBDevice::requestGetStatus()+0x64>
     a96:	23fe      	movs	r3, #254	; 0xfe
     a98:	5ce3      	ldrb	r3, [r4, r3]
     a9a:	2b01      	cmp	r3, #1
     a9c:	d027      	beq.n	aee <USBDevice::requestGetStatus()+0x72>
     a9e:	2b00      	cmp	r3, #0
     aa0:	d021      	beq.n	ae6 <USBDevice::requestGetStatus()+0x6a>
     aa2:	2b02      	cmp	r3, #2
     aa4:	d11d      	bne.n	ae2 <USBDevice::requestGetStatus()+0x66>
     aa6:	2381      	movs	r3, #129	; 0x81
     aa8:	005b      	lsls	r3, r3, #1
     aaa:	5ae3      	ldrh	r3, [r4, r3]
     aac:	220f      	movs	r2, #15
     aae:	09d9      	lsrs	r1, r3, #7
     ab0:	2501      	movs	r5, #1
     ab2:	4013      	ands	r3, r2
     ab4:	005b      	lsls	r3, r3, #1
     ab6:	4029      	ands	r1, r5
     ab8:	18c9      	adds	r1, r1, r3
     aba:	1c20      	adds	r0, r4, #0
     abc:	f000 fca8 	bl	1410 <USBHAL::getEndpointStallState(unsigned char)>
     ac0:	4b0e      	ldr	r3, [pc, #56]	; (afc <USBDevice::requestGetStatus()+0x80>)
     ac2:	2800      	cmp	r0, #0
     ac4:	d017      	beq.n	af6 <USBDevice::requestGetStatus()+0x7a>
     ac6:	801d      	strh	r5, [r3, #0]
     ac8:	2284      	movs	r2, #132	; 0x84
     aca:	0052      	lsls	r2, r2, #1
     acc:	50a3      	str	r3, [r4, r2]
     ace:	2386      	movs	r3, #134	; 0x86
     ad0:	2202      	movs	r2, #2
     ad2:	005b      	lsls	r3, r3, #1
     ad4:	50e2      	str	r2, [r4, r3]
     ad6:	2388      	movs	r3, #136	; 0x88
     ad8:	2201      	movs	r2, #1
     ada:	005b      	lsls	r3, r3, #1
     adc:	54e2      	strb	r2, [r4, r3]
     ade:	2001      	movs	r0, #1
     ae0:	bd38      	pop	{r3, r4, r5, pc}
     ae2:	2000      	movs	r0, #0
     ae4:	e7fc      	b.n	ae0 <USBDevice::requestGetStatus()+0x64>
     ae6:	4b05      	ldr	r3, [pc, #20]	; (afc <USBDevice::requestGetStatus()+0x80>)
     ae8:	2201      	movs	r2, #1
     aea:	801a      	strh	r2, [r3, #0]
     aec:	e7ec      	b.n	ac8 <USBDevice::requestGetStatus()+0x4c>
     aee:	4b03      	ldr	r3, [pc, #12]	; (afc <USBDevice::requestGetStatus()+0x80>)
     af0:	2200      	movs	r2, #0
     af2:	801a      	strh	r2, [r3, #0]
     af4:	e7e8      	b.n	ac8 <USBDevice::requestGetStatus()+0x4c>
     af6:	8018      	strh	r0, [r3, #0]
     af8:	e7e6      	b.n	ac8 <USBDevice::requestGetStatus()+0x4c>
     afa:	46c0      	nop			; (mov r8, r8)
     afc:	1ffff584 	.word	0x1ffff584

00000b00 <USBDevice::requestSetup()>:
     b00:	b570      	push	{r4, r5, r6, lr}
     b02:	23fd      	movs	r3, #253	; 0xfd
     b04:	5cc3      	ldrb	r3, [r0, r3]
     b06:	1c04      	adds	r4, r0, #0
     b08:	2b00      	cmp	r3, #0
     b0a:	d10c      	bne.n	b26 <USBDevice::requestSetup()+0x26>
     b0c:	23ff      	movs	r3, #255	; 0xff
     b0e:	5cc3      	ldrb	r3, [r0, r3]
     b10:	2b0b      	cmp	r3, #11
     b12:	d808      	bhi.n	b26 <USBDevice::requestSetup()+0x26>
     b14:	4a2e      	ldr	r2, [pc, #184]	; (bd0 <USBDevice::requestSetup()+0xd0>)
     b16:	009b      	lsls	r3, r3, #2
     b18:	58d3      	ldr	r3, [r2, r3]
     b1a:	469f      	mov	pc, r3
     b1c:	238a      	movs	r3, #138	; 0x8a
     b1e:	005b      	lsls	r3, r3, #1
     b20:	5cc3      	ldrb	r3, [r0, r3]
     b22:	2b04      	cmp	r3, #4
     b24:	d04a      	beq.n	bbc <USBDevice::requestSetup()+0xbc>
     b26:	2000      	movs	r0, #0
     b28:	bd70      	pop	{r4, r5, r6, pc}
     b2a:	f7ff ffa7 	bl	a7c <USBDevice::requestGetStatus()>
     b2e:	e7fb      	b.n	b28 <USBDevice::requestSetup()+0x28>
     b30:	f7ff ff7e 	bl	a30 <USBDevice::requestClearFeature()>
     b34:	e7f8      	b.n	b28 <USBDevice::requestSetup()+0x28>
     b36:	f7ff ff55 	bl	9e4 <USBDevice::requestSetFeature()>
     b3a:	e7f5      	b.n	b28 <USBDevice::requestSetup()+0x28>
     b3c:	2580      	movs	r5, #128	; 0x80
     b3e:	006d      	lsls	r5, r5, #1
     b40:	5d41      	ldrb	r1, [r0, r5]
     b42:	f000 faff 	bl	1144 <USBHAL::setAddress(unsigned char)>
     b46:	5b63      	ldrh	r3, [r4, r5]
     b48:	2b00      	cmp	r3, #0
     b4a:	d131      	bne.n	bb0 <USBDevice::requestSetup()+0xb0>
     b4c:	238a      	movs	r3, #138	; 0x8a
     b4e:	2202      	movs	r2, #2
     b50:	005b      	lsls	r3, r3, #1
     b52:	54e2      	strb	r2, [r4, r3]
     b54:	2001      	movs	r0, #1
     b56:	e7e7      	b.n	b28 <USBDevice::requestSetup()+0x28>
     b58:	f7ff fde0 	bl	71c <USBDevice::requestGetDescriptor()>
     b5c:	e7e4      	b.n	b28 <USBDevice::requestSetup()+0x28>
     b5e:	2681      	movs	r6, #129	; 0x81
     b60:	2580      	movs	r5, #128	; 0x80
     b62:	0076      	lsls	r6, r6, #1
     b64:	006d      	lsls	r5, r5, #1
     b66:	5b81      	ldrh	r1, [r0, r6]
     b68:	5d42      	ldrb	r2, [r0, r5]
     b6a:	6800      	ldr	r0, [r0, #0]
     b6c:	23a4      	movs	r3, #164	; 0xa4
     b6e:	58c3      	ldr	r3, [r0, r3]
     b70:	1c20      	adds	r0, r4, #0
     b72:	4798      	blx	r3
     b74:	2800      	cmp	r0, #0
     b76:	d0d6      	beq.n	b26 <USBDevice::requestSetup()+0x26>
     b78:	5ba2      	ldrh	r2, [r4, r6]
     b7a:	238c      	movs	r3, #140	; 0x8c
     b7c:	005b      	lsls	r3, r3, #1
     b7e:	52e2      	strh	r2, [r4, r3]
     b80:	5b62      	ldrh	r2, [r4, r5]
     b82:	238d      	movs	r3, #141	; 0x8d
     b84:	005b      	lsls	r3, r3, #1
     b86:	54e2      	strb	r2, [r4, r3]
     b88:	2001      	movs	r0, #1
     b8a:	e7cd      	b.n	b28 <USBDevice::requestSetup()+0x28>
     b8c:	2016      	movs	r0, #22
     b8e:	30ff      	adds	r0, #255	; 0xff
     b90:	1822      	adds	r2, r4, r0
     b92:	2384      	movs	r3, #132	; 0x84
     b94:	005b      	lsls	r3, r3, #1
     b96:	50e2      	str	r2, [r4, r3]
     b98:	2286      	movs	r2, #134	; 0x86
     b9a:	2301      	movs	r3, #1
     b9c:	0052      	lsls	r2, r2, #1
     b9e:	50a3      	str	r3, [r4, r2]
     ba0:	2288      	movs	r2, #136	; 0x88
     ba2:	0052      	lsls	r2, r2, #1
     ba4:	54a3      	strb	r3, [r4, r2]
     ba6:	2001      	movs	r0, #1
     ba8:	e7be      	b.n	b28 <USBDevice::requestSetup()+0x28>
     baa:	f7ff fef7 	bl	99c <USBDevice::requestSetConfiguration()>
     bae:	e7bb      	b.n	b28 <USBDevice::requestSetup()+0x28>
     bb0:	238a      	movs	r3, #138	; 0x8a
     bb2:	2203      	movs	r2, #3
     bb4:	005b      	lsls	r3, r3, #1
     bb6:	54e2      	strb	r2, [r4, r3]
     bb8:	2001      	movs	r0, #1
     bba:	e7b5      	b.n	b28 <USBDevice::requestSetup()+0x28>
     bbc:	238c      	movs	r3, #140	; 0x8c
     bbe:	005b      	lsls	r3, r3, #1
     bc0:	5ac2      	ldrh	r2, [r0, r3]
     bc2:	2381      	movs	r3, #129	; 0x81
     bc4:	005b      	lsls	r3, r3, #1
     bc6:	52c2      	strh	r2, [r0, r3]
     bc8:	238d      	movs	r3, #141	; 0x8d
     bca:	005b      	lsls	r3, r3, #1
     bcc:	18c2      	adds	r2, r0, r3
     bce:	e7e0      	b.n	b92 <USBDevice::requestSetup()+0x92>
     bd0:	00006aa4 	.word	0x00006aa4

00000bd4 <USBDevice::controlSetup()>:
     bd4:	b510      	push	{r4, lr}
     bd6:	b090      	sub	sp, #64	; 0x40
     bd8:	1c04      	adds	r4, r0, #0
     bda:	4669      	mov	r1, sp
     bdc:	f000 fb8e 	bl	12fc <USBHAL::EP0setup(unsigned char*)>
     be0:	1c22      	adds	r2, r4, #0
     be2:	32fc      	adds	r2, #252	; 0xfc
     be4:	1c20      	adds	r0, r4, #0
     be6:	4669      	mov	r1, sp
     be8:	f7ff fe18 	bl	81c <USBDevice::decodeSetupPacket(unsigned char*, SETUP_PACKET*)>
     bec:	2284      	movs	r2, #132	; 0x84
     bee:	2300      	movs	r3, #0
     bf0:	0052      	lsls	r2, r2, #1
     bf2:	50a3      	str	r3, [r4, r2]
     bf4:	2286      	movs	r2, #134	; 0x86
     bf6:	0052      	lsls	r2, r2, #1
     bf8:	50a3      	str	r3, [r4, r2]
     bfa:	2288      	movs	r2, #136	; 0x88
     bfc:	0052      	lsls	r2, r2, #1
     bfe:	54a3      	strb	r3, [r4, r2]
     c00:	2212      	movs	r2, #18
     c02:	32ff      	adds	r2, #255	; 0xff
     c04:	54a3      	strb	r3, [r4, r2]
     c06:	2289      	movs	r2, #137	; 0x89
     c08:	0052      	lsls	r2, r2, #1
     c0a:	54a3      	strb	r3, [r4, r2]
     c0c:	6822      	ldr	r2, [r4, #0]
     c0e:	2398      	movs	r3, #152	; 0x98
     c10:	58d3      	ldr	r3, [r2, r3]
     c12:	1c20      	adds	r0, r4, #0
     c14:	4798      	blx	r3
     c16:	2800      	cmp	r0, #0
     c18:	d02b      	beq.n	c72 <USBDevice::controlSetup()+0x9e>
     c1a:	2382      	movs	r3, #130	; 0x82
     c1c:	005b      	lsls	r3, r3, #1
     c1e:	5ae3      	ldrh	r3, [r4, r3]
     c20:	2b00      	cmp	r3, #0
     c22:	d10c      	bne.n	c3e <USBDevice::controlSetup()+0x6a>
     c24:	2386      	movs	r3, #134	; 0x86
     c26:	005b      	lsls	r3, r3, #1
     c28:	58e3      	ldr	r3, [r4, r3]
     c2a:	2b00      	cmp	r3, #0
     c2c:	d11f      	bne.n	c6e <USBDevice::controlSetup()+0x9a>
     c2e:	1c20      	adds	r0, r4, #0
     c30:	2100      	movs	r1, #0
     c32:	2200      	movs	r2, #0
     c34:	f000 fbbc 	bl	13b0 <USBHAL::EP0write(unsigned char*, unsigned long)>
     c38:	2001      	movs	r0, #1
     c3a:	b010      	add	sp, #64	; 0x40
     c3c:	bd10      	pop	{r4, pc}
     c3e:	22fc      	movs	r2, #252	; 0xfc
     c40:	5ca2      	ldrb	r2, [r4, r2]
     c42:	2a01      	cmp	r2, #1
     c44:	d00e      	beq.n	c64 <USBDevice::controlSetup()+0x90>
     c46:	2288      	movs	r2, #136	; 0x88
     c48:	0052      	lsls	r2, r2, #1
     c4a:	5ca2      	ldrb	r2, [r4, r2]
     c4c:	2a00      	cmp	r2, #0
     c4e:	d10e      	bne.n	c6e <USBDevice::controlSetup()+0x9a>
     c50:	2286      	movs	r2, #134	; 0x86
     c52:	0052      	lsls	r2, r2, #1
     c54:	58a2      	ldr	r2, [r4, r2]
     c56:	429a      	cmp	r2, r3
     c58:	d109      	bne.n	c6e <USBDevice::controlSetup()+0x9a>
     c5a:	1c20      	adds	r0, r4, #0
     c5c:	f000 fa94 	bl	1188 <USBHAL::EP0read()>
     c60:	2001      	movs	r0, #1
     c62:	e7ea      	b.n	c3a <USBDevice::controlSetup()+0x66>
     c64:	2288      	movs	r2, #136	; 0x88
     c66:	0052      	lsls	r2, r2, #1
     c68:	5ca1      	ldrb	r1, [r4, r2]
     c6a:	2901      	cmp	r1, #1
     c6c:	d008      	beq.n	c80 <USBDevice::controlSetup()+0xac>
     c6e:	2000      	movs	r0, #0
     c70:	e7e3      	b.n	c3a <USBDevice::controlSetup()+0x66>
     c72:	1c20      	adds	r0, r4, #0
     c74:	f7ff ff44 	bl	b00 <USBDevice::requestSetup()>
     c78:	2800      	cmp	r0, #0
     c7a:	d1ce      	bne.n	c1a <USBDevice::controlSetup()+0x46>
     c7c:	2000      	movs	r0, #0
     c7e:	e7dc      	b.n	c3a <USBDevice::controlSetup()+0x66>
     c80:	2086      	movs	r0, #134	; 0x86
     c82:	0040      	lsls	r0, r0, #1
     c84:	5822      	ldr	r2, [r4, r0]
     c86:	429a      	cmp	r2, r3
     c88:	d905      	bls.n	c96 <USBDevice::controlSetup()+0xc2>
     c8a:	5023      	str	r3, [r4, r0]
     c8c:	1c20      	adds	r0, r4, #0
     c8e:	f7ff fde3 	bl	858 <USBDevice::controlIn()>
     c92:	2001      	movs	r0, #1
     c94:	e7d1      	b.n	c3a <USBDevice::controlSetup()+0x66>
     c96:	429a      	cmp	r2, r3
     c98:	d2f8      	bcs.n	c8c <USBDevice::controlSetup()+0xb8>
     c9a:	0693      	lsls	r3, r2, #26
     c9c:	d1f6      	bne.n	c8c <USBDevice::controlSetup()+0xb8>
     c9e:	2312      	movs	r3, #18
     ca0:	33ff      	adds	r3, #255	; 0xff
     ca2:	54e1      	strb	r1, [r4, r3]
     ca4:	e7f2      	b.n	c8c <USBDevice::controlSetup()+0xb8>
     ca6:	46c0      	nop			; (mov r8, r8)

00000ca8 <USBDevice::EP0setupCallback()>:
     ca8:	b510      	push	{r4, lr}
     caa:	1c04      	adds	r4, r0, #0
     cac:	f7ff ff92 	bl	bd4 <USBDevice::controlSetup()>
     cb0:	2800      	cmp	r0, #0
     cb2:	d102      	bne.n	cba <USBDevice::EP0setupCallback()+0x12>
     cb4:	1c20      	adds	r0, r4, #0
     cb6:	f000 fa6d 	bl	1194 <USBHAL::EP0stall()>
     cba:	bd10      	pop	{r4, pc}

00000cbc <USBDevice::connect(bool)>:
     cbc:	b538      	push	{r3, r4, r5, lr}
     cbe:	1c0d      	adds	r5, r1, #0
     cc0:	1c04      	adds	r4, r0, #0
     cc2:	f000 fa2b 	bl	111c <USBHAL::connect()>
     cc6:	2d00      	cmp	r5, #0
     cc8:	d004      	beq.n	cd4 <USBDevice::connect(bool)+0x18>
     cca:	228a      	movs	r2, #138	; 0x8a
     ccc:	0052      	lsls	r2, r2, #1
     cce:	5ca3      	ldrb	r3, [r4, r2]
     cd0:	2b04      	cmp	r3, #4
     cd2:	d1fc      	bne.n	cce <USBDevice::connect(bool)+0x12>
     cd4:	bd38      	pop	{r3, r4, r5, pc}
     cd6:	46c0      	nop			; (mov r8, r8)

00000cd8 <USBDevice::getTransferPtr()>:
     cd8:	30fc      	adds	r0, #252	; 0xfc
     cda:	4770      	bx	lr

00000cdc <USBDevice::addEndpoint(unsigned char, unsigned long)>:
     cdc:	b508      	push	{r3, lr}
     cde:	2300      	movs	r3, #0
     ce0:	f000 fa3a 	bl	1158 <USBHAL::realiseEndpoint(unsigned char, unsigned long, unsigned long)>
     ce4:	bd08      	pop	{r3, pc}
     ce6:	46c0      	nop			; (mov r8, r8)

00000ce8 <USBDevice::findDescriptor(unsigned char)>:
     ce8:	b5f0      	push	{r4, r5, r6, r7, lr}
     cea:	6802      	ldr	r2, [r0, #0]
     cec:	4647      	mov	r7, r8
     cee:	24ac      	movs	r4, #172	; 0xac
     cf0:	b480      	push	{r7}
     cf2:	5913      	ldr	r3, [r2, r4]
     cf4:	1c05      	adds	r5, r0, #0
     cf6:	1c0e      	adds	r6, r1, #0
     cf8:	4798      	blx	r3
     cfa:	2800      	cmp	r0, #0
     cfc:	d006      	beq.n	d0c <USBDevice::findDescriptor(unsigned char)+0x24>
     cfe:	682a      	ldr	r2, [r5, #0]
     d00:	1c28      	adds	r0, r5, #0
     d02:	5913      	ldr	r3, [r2, r4]
     d04:	4798      	blx	r3
     d06:	7803      	ldrb	r3, [r0, #0]
     d08:	2b09      	cmp	r3, #9
     d0a:	d003      	beq.n	d14 <USBDevice::findDescriptor(unsigned char)+0x2c>
     d0c:	2000      	movs	r0, #0
     d0e:	bc04      	pop	{r2}
     d10:	4690      	mov	r8, r2
     d12:	bdf0      	pop	{r4, r5, r6, r7, pc}
     d14:	682a      	ldr	r2, [r5, #0]
     d16:	1c28      	adds	r0, r5, #0
     d18:	5913      	ldr	r3, [r2, r4]
     d1a:	4798      	blx	r3
     d1c:	7843      	ldrb	r3, [r0, #1]
     d1e:	2b02      	cmp	r3, #2
     d20:	d1f4      	bne.n	d0c <USBDevice::findDescriptor(unsigned char)+0x24>
     d22:	682a      	ldr	r2, [r5, #0]
     d24:	1c28      	adds	r0, r5, #0
     d26:	5913      	ldr	r3, [r2, r4]
     d28:	4798      	blx	r3
     d2a:	682a      	ldr	r2, [r5, #0]
     d2c:	7887      	ldrb	r7, [r0, #2]
     d2e:	5913      	ldr	r3, [r2, r4]
     d30:	1c28      	adds	r0, r5, #0
     d32:	4798      	blx	r3
     d34:	78c3      	ldrb	r3, [r0, #3]
     d36:	021b      	lsls	r3, r3, #8
     d38:	433b      	orrs	r3, r7
     d3a:	4698      	mov	r8, r3
     d3c:	2b0b      	cmp	r3, #11
     d3e:	d9e5      	bls.n	d0c <USBDevice::findDescriptor(unsigned char)+0x24>
     d40:	682a      	ldr	r2, [r5, #0]
     d42:	1c28      	adds	r0, r5, #0
     d44:	5913      	ldr	r3, [r2, r4]
     d46:	4798      	blx	r3
     d48:	1c04      	adds	r4, r0, #0
     d4a:	3409      	adds	r4, #9
     d4c:	27ac      	movs	r7, #172	; 0xac
     d4e:	e008      	b.n	d62 <USBDevice::findDescriptor(unsigned char)+0x7a>
     d50:	7823      	ldrb	r3, [r4, #0]
     d52:	682a      	ldr	r2, [r5, #0]
     d54:	18e4      	adds	r4, r4, r3
     d56:	1c28      	adds	r0, r5, #0
     d58:	59d3      	ldr	r3, [r2, r7]
     d5a:	4798      	blx	r3
     d5c:	4440      	add	r0, r8
     d5e:	4284      	cmp	r4, r0
     d60:	d2d4      	bcs.n	d0c <USBDevice::findDescriptor(unsigned char)+0x24>
     d62:	7863      	ldrb	r3, [r4, #1]
     d64:	42b3      	cmp	r3, r6
     d66:	d1f3      	bne.n	d50 <USBDevice::findDescriptor(unsigned char)+0x68>
     d68:	1c20      	adds	r0, r4, #0
     d6a:	e7d0      	b.n	d0e <USBDevice::findDescriptor(unsigned char)+0x26>

00000d6c <USBDevice::USBDevice(unsigned short, unsigned short, unsigned short)>:
     d6c:	b5f8      	push	{r3, r4, r5, r6, r7, lr}
     d6e:	1c04      	adds	r4, r0, #0
     d70:	1c16      	adds	r6, r2, #0
     d72:	1c1d      	adds	r5, r3, #0
     d74:	1c0f      	adds	r7, r1, #0
     d76:	f000 f8d5 	bl	f24 <USBHAL::USBHAL()>
     d7a:	4b0b      	ldr	r3, [pc, #44]	; (da8 <USBDevice::USBDevice(unsigned short, unsigned short, unsigned short)+0x3c>)
     d7c:	2201      	movs	r2, #1
     d7e:	3308      	adds	r3, #8
     d80:	6023      	str	r3, [r4, #0]
     d82:	23f4      	movs	r3, #244	; 0xf4
     d84:	52e7      	strh	r7, [r4, r3]
     d86:	23f6      	movs	r3, #246	; 0xf6
     d88:	52e6      	strh	r6, [r4, r3]
     d8a:	23f8      	movs	r3, #248	; 0xf8
     d8c:	52e5      	strh	r5, [r4, r3]
     d8e:	238a      	movs	r3, #138	; 0x8a
     d90:	005b      	lsls	r3, r3, #1
     d92:	54e2      	strb	r2, [r4, r3]
     d94:	2216      	movs	r2, #22
     d96:	2300      	movs	r3, #0
     d98:	32ff      	adds	r2, #255	; 0xff
     d9a:	54a3      	strb	r3, [r4, r2]
     d9c:	228b      	movs	r2, #139	; 0x8b
     d9e:	0052      	lsls	r2, r2, #1
     da0:	1c20      	adds	r0, r4, #0
     da2:	54a3      	strb	r3, [r4, r2]
     da4:	bdf8      	pop	{r3, r4, r5, r6, r7, pc}
     da6:	46c0      	nop			; (mov r8, r8)
     da8:	00006ad8 	.word	0x00006ad8

00000dac <USBDevice::readStart(unsigned char, unsigned long)>:
     dac:	b508      	push	{r3, lr}
     dae:	f000 f9fb 	bl	11a8 <USBHAL::endpointRead(unsigned char, unsigned long)>
     db2:	3801      	subs	r0, #1
     db4:	4243      	negs	r3, r0
     db6:	4158      	adcs	r0, r3
     db8:	b2c0      	uxtb	r0, r0
     dba:	bd08      	pop	{r3, pc}

00000dbc <USBDevice::write(unsigned char, unsigned char*, unsigned long, unsigned long)>:
     dbc:	b570      	push	{r4, r5, r6, lr}
     dbe:	1c0e      	adds	r6, r1, #0
     dc0:	9904      	ldr	r1, [sp, #16]
     dc2:	1c04      	adds	r4, r0, #0
     dc4:	428b      	cmp	r3, r1
     dc6:	d804      	bhi.n	dd2 <USBDevice::write(unsigned char, unsigned char*, unsigned long, unsigned long)+0x16>
     dc8:	258a      	movs	r5, #138	; 0x8a
     dca:	006d      	lsls	r5, r5, #1
     dcc:	5d40      	ldrb	r0, [r0, r5]
     dce:	2804      	cmp	r0, #4
     dd0:	d001      	beq.n	dd6 <USBDevice::write(unsigned char, unsigned char*, unsigned long, unsigned long)+0x1a>
     dd2:	2000      	movs	r0, #0
     dd4:	bd70      	pop	{r4, r5, r6, pc}
     dd6:	1c20      	adds	r0, r4, #0
     dd8:	1c31      	adds	r1, r6, #0
     dda:	f000 faa3 	bl	1324 <USBHAL::endpointWrite(unsigned char, unsigned char*, unsigned long)>
     dde:	2801      	cmp	r0, #1
     de0:	d1f7      	bne.n	dd2 <USBDevice::write(unsigned char, unsigned char*, unsigned long, unsigned long)+0x16>
     de2:	1c20      	adds	r0, r4, #0
     de4:	1c31      	adds	r1, r6, #0
     de6:	f000 faeb 	bl	13c0 <USBHAL::endpointWriteResult(unsigned char)>
     dea:	2801      	cmp	r0, #1
     dec:	d003      	beq.n	df6 <USBDevice::write(unsigned char, unsigned char*, unsigned long, unsigned long)+0x3a>
     dee:	4243      	negs	r3, r0
     df0:	4158      	adcs	r0, r3
     df2:	b2c0      	uxtb	r0, r0
     df4:	e7ee      	b.n	dd4 <USBDevice::write(unsigned char, unsigned char*, unsigned long, unsigned long)+0x18>
     df6:	5d63      	ldrb	r3, [r4, r5]
     df8:	2b04      	cmp	r3, #4
     dfa:	d1f8      	bne.n	dee <USBDevice::write(unsigned char, unsigned char*, unsigned long, unsigned long)+0x32>
     dfc:	e7f1      	b.n	de2 <USBDevice::write(unsigned char, unsigned char*, unsigned long, unsigned long)+0x26>
     dfe:	46c0      	nop			; (mov r8, r8)

00000e00 <USBHAL::busReset()>:
     e00:	4770      	bx	lr
     e02:	46c0      	nop			; (mov r8, r8)

00000e04 <USBHAL::EP0setupCallback()>:
     e04:	4770      	bx	lr
     e06:	46c0      	nop			; (mov r8, r8)

00000e08 <USBHAL::EP0out()>:
     e08:	4770      	bx	lr
     e0a:	46c0      	nop			; (mov r8, r8)

00000e0c <USBHAL::EP0in()>:
     e0c:	4770      	bx	lr
     e0e:	46c0      	nop			; (mov r8, r8)

00000e10 <USBHAL::connectStateChanged(unsigned int)>:
     e10:	4770      	bx	lr
     e12:	46c0      	nop			; (mov r8, r8)

00000e14 <USBHAL::suspendStateChanged(unsigned int)>:
     e14:	4770      	bx	lr
     e16:	46c0      	nop			; (mov r8, r8)

00000e18 <USBHAL::realiseEndpoint(unsigned char, unsigned long, unsigned long) [clone .part.0]>:
     e18:	b5f8      	push	{r3, r4, r5, r6, r7, lr}
     e1a:	4646      	mov	r6, r8
     e1c:	464f      	mov	r7, r9
     e1e:	b4c0      	push	{r6, r7}
     e20:	1c05      	adds	r5, r0, #0
     e22:	4688      	mov	r8, r1
     e24:	1046      	asrs	r6, r0, #1
     e26:	0791      	lsls	r1, r2, #30
     e28:	d40c      	bmi.n	e44 <USBHAL::realiseEndpoint(unsigned char, unsigned long, unsigned long) [clone .part.0]+0x2c>
     e2a:	00b4      	lsls	r4, r6, #2
     e2c:	07c2      	lsls	r2, r0, #31
     e2e:	d550      	bpl.n	ed2 <USBHAL::realiseEndpoint(unsigned char, unsigned long, unsigned long) [clone .part.0]+0xba>
     e30:	1ca6      	adds	r6, r4, #2
     e32:	4f36      	ldr	r7, [pc, #216]	; (f0c <USBHAL::realiseEndpoint(unsigned char, unsigned long, unsigned long) [clone .part.0]+0xf4>)
     e34:	00b3      	lsls	r3, r6, #2
     e36:	59d8      	ldr	r0, [r3, r7]
     e38:	4698      	mov	r8, r3
     e3a:	2800      	cmp	r0, #0
     e3c:	d05b      	beq.n	ef6 <USBHAL::realiseEndpoint(unsigned char, unsigned long, unsigned long) [clone .part.0]+0xde>
     e3e:	2201      	movs	r2, #1
     e40:	4691      	mov	r9, r2
     e42:	e00a      	b.n	e5a <USBHAL::realiseEndpoint(unsigned char, unsigned long, unsigned long) [clone .part.0]+0x42>
     e44:	2701      	movs	r7, #1
     e46:	4007      	ands	r7, r0
     e48:	4c31      	ldr	r4, [pc, #196]	; (f10 <USBHAL::realiseEndpoint(unsigned char, unsigned long, unsigned long) [clone .part.0]+0xf8>)
     e4a:	d028      	beq.n	e9e <USBHAL::realiseEndpoint(unsigned char, unsigned long, unsigned long) [clone .part.0]+0x86>
     e4c:	68a0      	ldr	r0, [r4, #8]
     e4e:	2800      	cmp	r0, #0
     e50:	d057      	beq.n	f02 <USBHAL::realiseEndpoint(unsigned char, unsigned long, unsigned long) [clone .part.0]+0xea>
     e52:	00b4      	lsls	r4, r6, #2
     e54:	2300      	movs	r3, #0
     e56:	1ca6      	adds	r6, r4, #2
     e58:	4699      	mov	r9, r3
     e5a:	4f2e      	ldr	r7, [pc, #184]	; (f14 <USBHAL::realiseEndpoint(unsigned char, unsigned long, unsigned long) [clone .part.0]+0xfc>)
     e5c:	23c0      	movs	r3, #192	; 0xc0
     e5e:	19e2      	adds	r2, r4, r7
     e60:	2704      	movs	r7, #4
     e62:	5cd1      	ldrb	r1, [r2, r3]
     e64:	46b8      	mov	r8, r7
     e66:	4647      	mov	r7, r8
     e68:	430f      	orrs	r7, r1
     e6a:	1c39      	adds	r1, r7, #0
     e6c:	464f      	mov	r7, r9
     e6e:	4339      	orrs	r1, r7
     e70:	b2c9      	uxtb	r1, r1
     e72:	54d1      	strb	r1, [r2, r3]
     e74:	3403      	adds	r4, #3
     e76:	4b28      	ldr	r3, [pc, #160]	; (f18 <USBHAL::realiseEndpoint(unsigned char, unsigned long, unsigned long) [clone .part.0]+0x100>)
     e78:	00f6      	lsls	r6, r6, #3
     e7a:	00e4      	lsls	r4, r4, #3
     e7c:	199e      	adds	r6, r3, r6
     e7e:	2200      	movs	r2, #0
     e80:	191b      	adds	r3, r3, r4
     e82:	6070      	str	r0, [r6, #4]
     e84:	605a      	str	r2, [r3, #4]
     e86:	4b25      	ldr	r3, [pc, #148]	; (f1c <USBHAL::realiseEndpoint(unsigned char, unsigned long, unsigned long) [clone .part.0]+0x104>)
     e88:	2201      	movs	r2, #1
     e8a:	681e      	ldr	r6, [r3, #0]
     e8c:	40aa      	lsls	r2, r5
     e8e:	1c15      	adds	r5, r2, #0
     e90:	4335      	orrs	r5, r6
     e92:	601d      	str	r5, [r3, #0]
     e94:	2001      	movs	r0, #1
     e96:	bc0c      	pop	{r2, r3}
     e98:	4690      	mov	r8, r2
     e9a:	4699      	mov	r9, r3
     e9c:	bdf8      	pop	{r3, r4, r5, r6, r7, pc}
     e9e:	6820      	ldr	r0, [r4, #0]
     ea0:	2800      	cmp	r0, #0
     ea2:	d023      	beq.n	eec <USBHAL::realiseEndpoint(unsigned char, unsigned long, unsigned long) [clone .part.0]+0xd4>
     ea4:	00b4      	lsls	r4, r6, #2
     ea6:	491b      	ldr	r1, [pc, #108]	; (f14 <USBHAL::realiseEndpoint(unsigned char, unsigned long, unsigned long) [clone .part.0]+0xfc>)
     ea8:	23c0      	movs	r3, #192	; 0xc0
     eaa:	1862      	adds	r2, r4, r1
     eac:	5cd6      	ldrb	r6, [r2, r3]
     eae:	2108      	movs	r1, #8
     eb0:	4331      	orrs	r1, r6
     eb2:	430f      	orrs	r7, r1
     eb4:	b2ff      	uxtb	r7, r7
     eb6:	54d7      	strb	r7, [r2, r3]
     eb8:	4b17      	ldr	r3, [pc, #92]	; (f18 <USBHAL::realiseEndpoint(unsigned char, unsigned long, unsigned long) [clone .part.0]+0x100>)
     eba:	00e2      	lsls	r2, r4, #3
     ebc:	1899      	adds	r1, r3, r2
     ebe:	4646      	mov	r6, r8
     ec0:	804e      	strh	r6, [r1, #2]
     ec2:	6048      	str	r0, [r1, #4]
     ec4:	3401      	adds	r4, #1
     ec6:	2188      	movs	r1, #136	; 0x88
     ec8:	54d1      	strb	r1, [r2, r3]
     eca:	00e4      	lsls	r4, r4, #3
     ecc:	2200      	movs	r2, #0
     ece:	54e2      	strb	r2, [r4, r3]
     ed0:	e7d9      	b.n	e86 <USBHAL::realiseEndpoint(unsigned char, unsigned long, unsigned long) [clone .part.0]+0x6e>
     ed2:	4f0e      	ldr	r7, [pc, #56]	; (f0c <USBHAL::realiseEndpoint(unsigned char, unsigned long, unsigned long) [clone .part.0]+0xf4>)
     ed4:	0136      	lsls	r6, r6, #4
     ed6:	59f0      	ldr	r0, [r6, r7]
     ed8:	2800      	cmp	r0, #0
     eda:	d001      	beq.n	ee0 <USBHAL::realiseEndpoint(unsigned char, unsigned long, unsigned long) [clone .part.0]+0xc8>
     edc:	2701      	movs	r7, #1
     ede:	e7e2      	b.n	ea6 <USBHAL::realiseEndpoint(unsigned char, unsigned long, unsigned long) [clone .part.0]+0x8e>
     ee0:	2080      	movs	r0, #128	; 0x80
     ee2:	f7ff fb73 	bl	5cc <__wrap_malloc>
     ee6:	51f0      	str	r0, [r6, r7]
     ee8:	2701      	movs	r7, #1
     eea:	e7dc      	b.n	ea6 <USBHAL::realiseEndpoint(unsigned char, unsigned long, unsigned long) [clone .part.0]+0x8e>
     eec:	480c      	ldr	r0, [pc, #48]	; (f20 <USBHAL::realiseEndpoint(unsigned char, unsigned long, unsigned long) [clone .part.0]+0x108>)
     eee:	f7ff fb6d 	bl	5cc <__wrap_malloc>
     ef2:	6020      	str	r0, [r4, #0]
     ef4:	e7d6      	b.n	ea4 <USBHAL::realiseEndpoint(unsigned char, unsigned long, unsigned long) [clone .part.0]+0x8c>
     ef6:	2080      	movs	r0, #128	; 0x80
     ef8:	f7ff fb68 	bl	5cc <__wrap_malloc>
     efc:	4641      	mov	r1, r8
     efe:	51c8      	str	r0, [r1, r7]
     f00:	e79d      	b.n	e3e <USBHAL::realiseEndpoint(unsigned char, unsigned long, unsigned long) [clone .part.0]+0x26>
     f02:	4807      	ldr	r0, [pc, #28]	; (f20 <USBHAL::realiseEndpoint(unsigned char, unsigned long, unsigned long) [clone .part.0]+0x108>)
     f04:	f7ff fb62 	bl	5cc <__wrap_malloc>
     f08:	60a0      	str	r0, [r4, #8]
     f0a:	e7a2      	b.n	e52 <USBHAL::realiseEndpoint(unsigned char, unsigned long, unsigned long) [clone .part.0]+0x3a>
     f0c:	1ffff804 	.word	0x1ffff804
     f10:	1ffff8f4 	.word	0x1ffff8f4
     f14:	40072000 	.word	0x40072000
     f18:	1ffff600 	.word	0x1ffff600
     f1c:	1ffff130 	.word	0x1ffff130
     f20:	000007fe 	.word	0x000007fe

00000f24 <USBHAL::USBHAL()>:
     f24:	b5f8      	push	{r3, r4, r5, r6, r7, lr}
     f26:	465f      	mov	r7, r11
     f28:	4656      	mov	r6, r10
     f2a:	4644      	mov	r4, r8
     f2c:	464d      	mov	r5, r9
     f2e:	b4f0      	push	{r4, r5, r6, r7}
     f30:	4b6e      	ldr	r3, [pc, #440]	; (10ec <USBHAL::USBHAL()+0x1c8>)
     f32:	4d6f      	ldr	r5, [pc, #444]	; (10f0 <USBHAL::USBHAL()+0x1cc>)
     f34:	2680      	movs	r6, #128	; 0x80
     f36:	2280      	movs	r2, #128	; 0x80
     f38:	0476      	lsls	r6, r6, #17
     f3a:	2120      	movs	r1, #32
     f3c:	6003      	str	r3, [r0, #0]
     f3e:	50ae      	str	r6, [r5, r2]
     f40:	60c1      	str	r1, [r0, #12]
     f42:	2124      	movs	r1, #36	; 0x24
     f44:	6141      	str	r1, [r0, #20]
     f46:	2128      	movs	r1, #40	; 0x28
     f48:	61c1      	str	r1, [r0, #28]
     f4a:	212c      	movs	r1, #44	; 0x2c
     f4c:	6241      	str	r1, [r0, #36]	; 0x24
     f4e:	2130      	movs	r1, #48	; 0x30
     f50:	62c1      	str	r1, [r0, #44]	; 0x2c
     f52:	2134      	movs	r1, #52	; 0x34
     f54:	6341      	str	r1, [r0, #52]	; 0x34
     f56:	2138      	movs	r1, #56	; 0x38
     f58:	63c1      	str	r1, [r0, #60]	; 0x3c
     f5a:	213c      	movs	r1, #60	; 0x3c
     f5c:	6441      	str	r1, [r0, #68]	; 0x44
     f5e:	2140      	movs	r1, #64	; 0x40
     f60:	64c1      	str	r1, [r0, #76]	; 0x4c
     f62:	2144      	movs	r1, #68	; 0x44
     f64:	6541      	str	r1, [r0, #84]	; 0x54
     f66:	2148      	movs	r1, #72	; 0x48
     f68:	65c1      	str	r1, [r0, #92]	; 0x5c
     f6a:	214c      	movs	r1, #76	; 0x4c
     f6c:	6641      	str	r1, [r0, #100]	; 0x64
     f6e:	231c      	movs	r3, #28
     f70:	2150      	movs	r1, #80	; 0x50
     f72:	6043      	str	r3, [r0, #4]
     f74:	66c1      	str	r1, [r0, #108]	; 0x6c
     f76:	2301      	movs	r3, #1
     f78:	2154      	movs	r1, #84	; 0x54
     f7a:	6083      	str	r3, [r0, #8]
     f7c:	6103      	str	r3, [r0, #16]
     f7e:	6183      	str	r3, [r0, #24]
     f80:	6203      	str	r3, [r0, #32]
     f82:	6283      	str	r3, [r0, #40]	; 0x28
     f84:	6303      	str	r3, [r0, #48]	; 0x30
     f86:	6383      	str	r3, [r0, #56]	; 0x38
     f88:	6403      	str	r3, [r0, #64]	; 0x40
     f8a:	6483      	str	r3, [r0, #72]	; 0x48
     f8c:	6503      	str	r3, [r0, #80]	; 0x50
     f8e:	6583      	str	r3, [r0, #88]	; 0x58
     f90:	6603      	str	r3, [r0, #96]	; 0x60
     f92:	6683      	str	r3, [r0, #104]	; 0x68
     f94:	6703      	str	r3, [r0, #112]	; 0x70
     f96:	6741      	str	r1, [r0, #116]	; 0x74
     f98:	2158      	movs	r1, #88	; 0x58
     f9a:	6783      	str	r3, [r0, #120]	; 0x78
     f9c:	67c1      	str	r1, [r0, #124]	; 0x7c
     f9e:	1c04      	adds	r4, r0, #0
     fa0:	5083      	str	r3, [r0, r2]
     fa2:	215c      	movs	r1, #92	; 0x5c
     fa4:	2084      	movs	r0, #132	; 0x84
     fa6:	5021      	str	r1, [r4, r0]
     fa8:	218c      	movs	r1, #140	; 0x8c
     faa:	468a      	mov	r10, r1
     fac:	4684      	mov	r12, r0
     fae:	2788      	movs	r7, #136	; 0x88
     fb0:	2160      	movs	r1, #96	; 0x60
     fb2:	4650      	mov	r0, r10
     fb4:	51e3      	str	r3, [r4, r7]
     fb6:	5021      	str	r1, [r4, r0]
     fb8:	2190      	movs	r1, #144	; 0x90
     fba:	2094      	movs	r0, #148	; 0x94
     fbc:	5063      	str	r3, [r4, r1]
     fbe:	4680      	mov	r8, r0
     fc0:	468b      	mov	r11, r1
     fc2:	2164      	movs	r1, #100	; 0x64
     fc4:	1c08      	adds	r0, r1, #0
     fc6:	4641      	mov	r1, r8
     fc8:	5060      	str	r0, [r4, r1]
     fca:	2198      	movs	r1, #152	; 0x98
     fcc:	209c      	movs	r0, #156	; 0x9c
     fce:	5063      	str	r3, [r4, r1]
     fd0:	4680      	mov	r8, r0
     fd2:	2168      	movs	r1, #104	; 0x68
     fd4:	1c08      	adds	r0, r1, #0
     fd6:	4641      	mov	r1, r8
     fd8:	5060      	str	r0, [r4, r1]
     fda:	21a0      	movs	r1, #160	; 0xa0
     fdc:	20a4      	movs	r0, #164	; 0xa4
     fde:	5063      	str	r3, [r4, r1]
     fe0:	4680      	mov	r8, r0
     fe2:	216c      	movs	r1, #108	; 0x6c
     fe4:	1c08      	adds	r0, r1, #0
     fe6:	4641      	mov	r1, r8
     fe8:	5060      	str	r0, [r4, r1]
     fea:	21a8      	movs	r1, #168	; 0xa8
     fec:	20ac      	movs	r0, #172	; 0xac
     fee:	5063      	str	r3, [r4, r1]
     ff0:	4680      	mov	r8, r0
     ff2:	2170      	movs	r1, #112	; 0x70
     ff4:	1c08      	adds	r0, r1, #0
     ff6:	4641      	mov	r1, r8
     ff8:	5060      	str	r0, [r4, r1]
     ffa:	21b0      	movs	r1, #176	; 0xb0
     ffc:	20b4      	movs	r0, #180	; 0xb4
     ffe:	5063      	str	r3, [r4, r1]
    1000:	4680      	mov	r8, r0
    1002:	2174      	movs	r1, #116	; 0x74
    1004:	1c08      	adds	r0, r1, #0
    1006:	4641      	mov	r1, r8
    1008:	5060      	str	r0, [r4, r1]
    100a:	21b8      	movs	r1, #184	; 0xb8
    100c:	20bc      	movs	r0, #188	; 0xbc
    100e:	5063      	str	r3, [r4, r1]
    1010:	4680      	mov	r8, r0
    1012:	2178      	movs	r1, #120	; 0x78
    1014:	1c08      	adds	r0, r1, #0
    1016:	4641      	mov	r1, r8
    1018:	5060      	str	r0, [r4, r1]
    101a:	21c0      	movs	r1, #192	; 0xc0
    101c:	20c4      	movs	r0, #196	; 0xc4
    101e:	5063      	str	r3, [r4, r1]
    1020:	4680      	mov	r8, r0
    1022:	217c      	movs	r1, #124	; 0x7c
    1024:	1c08      	adds	r0, r1, #0
    1026:	4641      	mov	r1, r8
    1028:	5060      	str	r0, [r4, r1]
    102a:	21c8      	movs	r1, #200	; 0xc8
    102c:	5063      	str	r3, [r4, r1]
    102e:	21cc      	movs	r1, #204	; 0xcc
    1030:	5062      	str	r2, [r4, r1]
    1032:	22d0      	movs	r2, #208	; 0xd0
    1034:	50a3      	str	r3, [r4, r2]
    1036:	4661      	mov	r1, r12
    1038:	22d4      	movs	r2, #212	; 0xd4
    103a:	50a1      	str	r1, [r4, r2]
    103c:	22d8      	movs	r2, #216	; 0xd8
    103e:	50a3      	str	r3, [r4, r2]
    1040:	22dc      	movs	r2, #220	; 0xdc
    1042:	50a7      	str	r7, [r4, r2]
    1044:	22e0      	movs	r2, #224	; 0xe0
    1046:	50a3      	str	r3, [r4, r2]
    1048:	4650      	mov	r0, r10
    104a:	22e4      	movs	r2, #228	; 0xe4
    104c:	50a0      	str	r0, [r4, r2]
    104e:	22e8      	movs	r2, #232	; 0xe8
    1050:	50a3      	str	r3, [r4, r2]
    1052:	4659      	mov	r1, r11
    1054:	22ec      	movs	r2, #236	; 0xec
    1056:	50a1      	str	r1, [r4, r2]
    1058:	22f0      	movs	r2, #240	; 0xf0
    105a:	50a3      	str	r3, [r4, r2]
    105c:	4b25      	ldr	r3, [pc, #148]	; (10f4 <USBHAL::USBHAL()+0x1d0>)
    105e:	4a26      	ldr	r2, [pc, #152]	; (10f8 <USBHAL::USBHAL()+0x1d4>)
    1060:	21a0      	movs	r1, #160	; 0xa0
    1062:	5898      	ldr	r0, [r3, r2]
    1064:	02c9      	lsls	r1, r1, #11
    1066:	4301      	orrs	r1, r0
    1068:	5099      	str	r1, [r3, r2]
    106a:	4a24      	ldr	r2, [pc, #144]	; (10fc <USBHAL::USBHAL()+0x1d8>)
    106c:	2180      	movs	r1, #128	; 0x80
    106e:	5898      	ldr	r0, [r3, r2]
    1070:	02c9      	lsls	r1, r1, #11
    1072:	4301      	orrs	r1, r0
    1074:	5099      	str	r1, [r3, r2]
    1076:	4b22      	ldr	r3, [pc, #136]	; (1100 <USBHAL::USBHAL()+0x1dc>)
    1078:	2018      	movs	r0, #24
    107a:	4922      	ldr	r1, [pc, #136]	; (1104 <USBHAL::USBHAL()+0x1e0>)
    107c:	601c      	str	r4, [r3, #0]
    107e:	f000 fd19 	bl	1ab4 <NVIC_SetVector>
    1082:	602e      	str	r6, [r5, #0]
    1084:	2086      	movs	r0, #134	; 0x86
    1086:	4d20      	ldr	r5, [pc, #128]	; (1108 <USBHAL::USBHAL()+0x1e4>)
    1088:	0040      	lsls	r0, r0, #1
    108a:	5c2a      	ldrb	r2, [r5, r0]
    108c:	2380      	movs	r3, #128	; 0x80
    108e:	4313      	orrs	r3, r2
    1090:	542b      	strb	r3, [r5, r0]
    1092:	2386      	movs	r3, #134	; 0x86
    1094:	0059      	lsls	r1, r3, #1
    1096:	5c2b      	ldrb	r3, [r5, r0]
    1098:	4a1b      	ldr	r2, [pc, #108]	; (1108 <USBHAL::USBHAL()+0x1e4>)
    109a:	b25b      	sxtb	r3, r3
    109c:	2b00      	cmp	r3, #0
    109e:	dbf8      	blt.n	1092 <USBHAL::USBHAL()+0x16e>
    10a0:	4b1a      	ldr	r3, [pc, #104]	; (110c <USBHAL::USBHAL()+0x1e8>)
    10a2:	209c      	movs	r0, #156	; 0x9c
    10a4:	0a1d      	lsrs	r5, r3, #8
    10a6:	b2ed      	uxtb	r5, r5
    10a8:	5415      	strb	r5, [r2, r0]
    10aa:	0c1d      	lsrs	r5, r3, #16
    10ac:	b2ed      	uxtb	r5, r5
    10ae:	20b0      	movs	r0, #176	; 0xb0
    10b0:	5415      	strb	r5, [r2, r0]
    10b2:	0e1b      	lsrs	r3, r3, #24
    10b4:	20b4      	movs	r0, #180	; 0xb4
    10b6:	5413      	strb	r3, [r2, r0]
    10b8:	20ff      	movs	r0, #255	; 0xff
    10ba:	2380      	movs	r3, #128	; 0x80
    10bc:	54d0      	strb	r0, [r2, r3]
    10be:	2384      	movs	r3, #132	; 0x84
    10c0:	5cd5      	ldrb	r5, [r2, r3]
    10c2:	200f      	movs	r0, #15
    10c4:	4328      	orrs	r0, r5
    10c6:	54d0      	strb	r0, [r2, r3]
    10c8:	2380      	movs	r3, #128	; 0x80
    10ca:	005b      	lsls	r3, r3, #1
    10cc:	5cd0      	ldrb	r0, [r2, r3]
    10ce:	253f      	movs	r5, #63	; 0x3f
    10d0:	4028      	ands	r0, r5
    10d2:	54d0      	strb	r0, [r2, r3]
    10d4:	5c50      	ldrb	r0, [r2, r1]
    10d6:	2340      	movs	r3, #64	; 0x40
    10d8:	4303      	orrs	r3, r0
    10da:	5453      	strb	r3, [r2, r1]
    10dc:	1c20      	adds	r0, r4, #0
    10de:	bc3c      	pop	{r2, r3, r4, r5}
    10e0:	4690      	mov	r8, r2
    10e2:	4699      	mov	r9, r3
    10e4:	46a2      	mov	r10, r4
    10e6:	46ab      	mov	r11, r5
    10e8:	bdf8      	pop	{r3, r4, r5, r6, r7, pc}
    10ea:	46c0      	nop			; (mov r8, r8)
    10ec:	00006bb8 	.word	0x00006bb8
    10f0:	e000e100 	.word	0xe000e100
    10f4:	40047000 	.word	0x40047000
    10f8:	00001004 	.word	0x00001004
    10fc:	00001034 	.word	0x00001034
    1100:	1ffff58c 	.word	0x1ffff58c
    1104:	000016b1 	.word	0x000016b1
    1108:	40072000 	.word	0x40072000
    110c:	1ffff600 	.word	0x1ffff600

00001110 <USBHAL::~USBHAL()>:
    1110:	4b01      	ldr	r3, [pc, #4]	; (1118 <USBHAL::~USBHAL()+0x8>)
    1112:	6003      	str	r3, [r0, #0]
    1114:	4770      	bx	lr
    1116:	46c0      	nop			; (mov r8, r8)
    1118:	00006bb8 	.word	0x00006bb8

0000111c <USBHAL::connect()>:
    111c:	4b06      	ldr	r3, [pc, #24]	; (1138 <USBHAL::connect()+0x1c>)
    111e:	2294      	movs	r2, #148	; 0x94
    1120:	5c98      	ldrb	r0, [r3, r2]
    1122:	2101      	movs	r1, #1
    1124:	4301      	orrs	r1, r0
    1126:	5499      	strb	r1, [r3, r2]
    1128:	2284      	movs	r2, #132	; 0x84
    112a:	0052      	lsls	r2, r2, #1
    112c:	5c98      	ldrb	r0, [r3, r2]
    112e:	2110      	movs	r1, #16
    1130:	4301      	orrs	r1, r0
    1132:	5499      	strb	r1, [r3, r2]
    1134:	4770      	bx	lr
    1136:	46c0      	nop			; (mov r8, r8)
    1138:	40072000 	.word	0x40072000

0000113c <USBHAL::configureDevice()>:
    113c:	4770      	bx	lr
    113e:	46c0      	nop			; (mov r8, r8)

00001140 <USBHAL::unconfigureDevice()>:
    1140:	4770      	bx	lr
    1142:	46c0      	nop			; (mov r8, r8)

00001144 <USBHAL::setAddress(unsigned char)>:
    1144:	4b02      	ldr	r3, [pc, #8]	; (1150 <USBHAL::setAddress(unsigned char)+0xc>)
    1146:	2201      	movs	r2, #1
    1148:	701a      	strb	r2, [r3, #0]
    114a:	4b02      	ldr	r3, [pc, #8]	; (1154 <USBHAL::setAddress(unsigned char)+0x10>)
    114c:	7019      	strb	r1, [r3, #0]
    114e:	4770      	bx	lr
    1150:	1ffff908 	.word	0x1ffff908
    1154:	1ffff800 	.word	0x1ffff800

00001158 <USBHAL::realiseEndpoint(unsigned char, unsigned long, unsigned long)>:
    1158:	b508      	push	{r3, lr}
    115a:	2000      	movs	r0, #0
    115c:	291f      	cmp	r1, #31
    115e:	d804      	bhi.n	116a <USBHAL::realiseEndpoint(unsigned char, unsigned long, unsigned long)+0x12>
    1160:	1c08      	adds	r0, r1, #0
    1162:	1c11      	adds	r1, r2, #0
    1164:	1c1a      	adds	r2, r3, #0
    1166:	f7ff fe57 	bl	e18 <USBHAL::realiseEndpoint(unsigned char, unsigned long, unsigned long) [clone .part.0]>
    116a:	bd08      	pop	{r3, pc}

0000116c <USBHAL::EP0readStage()>:
    116c:	4b04      	ldr	r3, [pc, #16]	; (1180 <USBHAL::EP0readStage()+0x14>)
    116e:	2201      	movs	r2, #1
    1170:	6819      	ldr	r1, [r3, #0]
    1172:	4391      	bics	r1, r2
    1174:	6019      	str	r1, [r3, #0]
    1176:	4b03      	ldr	r3, [pc, #12]	; (1184 <USBHAL::EP0readStage()+0x18>)
    1178:	2288      	movs	r2, #136	; 0x88
    117a:	701a      	strb	r2, [r3, #0]
    117c:	4770      	bx	lr
    117e:	46c0      	nop			; (mov r8, r8)
    1180:	1ffff130 	.word	0x1ffff130
    1184:	1ffff600 	.word	0x1ffff600

00001188 <USBHAL::EP0read()>:
    1188:	4b01      	ldr	r3, [pc, #4]	; (1190 <USBHAL::EP0read()+0x8>)
    118a:	2240      	movs	r2, #64	; 0x40
    118c:	805a      	strh	r2, [r3, #2]
    118e:	4770      	bx	lr
    1190:	1ffff600 	.word	0x1ffff600

00001194 <USBHAL::EP0stall()>:
    1194:	4a03      	ldr	r2, [pc, #12]	; (11a4 <USBHAL::EP0stall()+0x10>)
    1196:	23c0      	movs	r3, #192	; 0xc0
    1198:	5cd0      	ldrb	r0, [r2, r3]
    119a:	2102      	movs	r1, #2
    119c:	4301      	orrs	r1, r0
    119e:	54d1      	strb	r1, [r2, r3]
    11a0:	4770      	bx	lr
    11a2:	46c0      	nop			; (mov r8, r8)
    11a4:	40072000 	.word	0x40072000

000011a8 <USBHAL::endpointRead(unsigned char, unsigned long)>:
    11a8:	4b03      	ldr	r3, [pc, #12]	; (11b8 <USBHAL::endpointRead(unsigned char, unsigned long)+0x10>)
    11aa:	1049      	asrs	r1, r1, #1
    11ac:	0149      	lsls	r1, r1, #5
    11ae:	1859      	adds	r1, r3, r1
    11b0:	2001      	movs	r0, #1
    11b2:	804a      	strh	r2, [r1, #2]
    11b4:	4770      	bx	lr
    11b6:	46c0      	nop			; (mov r8, r8)
    11b8:	1ffff600 	.word	0x1ffff600

000011bc <USBHAL::endpointReadResult(unsigned char, unsigned char*, unsigned long*)>:
    11bc:	b5f0      	push	{r4, r5, r6, r7, lr}
    11be:	465f      	mov	r7, r11
    11c0:	4656      	mov	r6, r10
    11c2:	464d      	mov	r5, r9
    11c4:	4644      	mov	r4, r8
    11c6:	b4f0      	push	{r4, r5, r6, r7}
    11c8:	2002      	movs	r0, #2
    11ca:	b083      	sub	sp, #12
    11cc:	291f      	cmp	r1, #31
    11ce:	d906      	bls.n	11de <USBHAL::endpointReadResult(unsigned char, unsigned char*, unsigned long*)+0x22>
    11d0:	b003      	add	sp, #12
    11d2:	bc3c      	pop	{r2, r3, r4, r5}
    11d4:	4690      	mov	r8, r2
    11d6:	4699      	mov	r9, r3
    11d8:	46a2      	mov	r10, r4
    11da:	46ab      	mov	r11, r5
    11dc:	bdf0      	pop	{r4, r5, r6, r7, pc}
    11de:	2401      	movs	r4, #1
    11e0:	420c      	tst	r4, r1
    11e2:	d1f5      	bne.n	11d0 <USBHAL::endpointReadResult(unsigned char, unsigned char*, unsigned long*)+0x14>
    11e4:	1048      	asrs	r0, r1, #1
    11e6:	4f3f      	ldr	r7, [pc, #252]	; (12e4 <USBHAL::endpointReadResult(unsigned char, unsigned char*, unsigned long*)+0x128>)
    11e8:	0146      	lsls	r6, r0, #5
    11ea:	0085      	lsls	r5, r0, #2
    11ec:	46ac      	mov	r12, r5
    11ee:	46b2      	mov	r10, r6
    11f0:	19bd      	adds	r5, r7, r6
    11f2:	2630      	movs	r6, #48	; 0x30
    11f4:	1836      	adds	r6, r6, r0
    11f6:	00b6      	lsls	r6, r6, #2
    11f8:	46b1      	mov	r9, r6
    11fa:	4e3b      	ldr	r6, [pc, #236]	; (12e8 <USBHAL::endpointReadResult(unsigned char, unsigned char*, unsigned long*)+0x12c>)
    11fc:	886d      	ldrh	r5, [r5, #2]
    11fe:	46b0      	mov	r8, r6
    1200:	464e      	mov	r6, r9
    1202:	4446      	add	r6, r8
    1204:	7836      	ldrb	r6, [r6, #0]
    1206:	4026      	ands	r6, r4
    1208:	46b0      	mov	r8, r6
    120a:	2800      	cmp	r0, #0
    120c:	d10d      	bne.n	122a <USBHAL::endpointReadResult(unsigned char, unsigned char*, unsigned long*)+0x6e>
    120e:	4656      	mov	r6, r10
    1210:	5df0      	ldrb	r0, [r6, r7]
    1212:	4646      	mov	r6, r8
    1214:	0680      	lsls	r0, r0, #26
    1216:	0f00      	lsrs	r0, r0, #28
    1218:	380d      	subs	r0, #13
    121a:	4244      	negs	r4, r0
    121c:	4144      	adcs	r4, r0
    121e:	46a1      	mov	r9, r4
    1220:	2e00      	cmp	r6, #0
    1222:	d006      	beq.n	1232 <USBHAL::endpointReadResult(unsigned char, unsigned char*, unsigned long*)+0x76>
    1224:	4831      	ldr	r0, [pc, #196]	; (12ec <USBHAL::endpointReadResult(unsigned char, unsigned char*, unsigned long*)+0x130>)
    1226:	4680      	mov	r8, r0
    1228:	e047      	b.n	12ba <USBHAL::endpointReadResult(unsigned char, unsigned char*, unsigned long*)+0xfe>
    122a:	2e00      	cmp	r6, #0
    122c:	d13b      	bne.n	12a6 <USBHAL::endpointReadResult(unsigned char, unsigned char*, unsigned long*)+0xea>
    122e:	2000      	movs	r0, #0
    1230:	4681      	mov	r9, r0
    1232:	482f      	ldr	r0, [pc, #188]	; (12f0 <USBHAL::endpointReadResult(unsigned char, unsigned char*, unsigned long*)+0x134>)
    1234:	4c2d      	ldr	r4, [pc, #180]	; (12ec <USBHAL::endpointReadResult(unsigned char, unsigned char*, unsigned long*)+0x130>)
    1236:	6806      	ldr	r6, [r0, #0]
    1238:	46a0      	mov	r8, r4
    123a:	2000      	movs	r0, #0
    123c:	2d00      	cmp	r5, #0
    123e:	d004      	beq.n	124a <USBHAL::endpointReadResult(unsigned char, unsigned char*, unsigned long*)+0x8e>
    1240:	5c34      	ldrb	r4, [r6, r0]
    1242:	5414      	strb	r4, [r2, r0]
    1244:	3001      	adds	r0, #1
    1246:	4285      	cmp	r5, r0
    1248:	d8fa      	bhi.n	1240 <USBHAL::endpointReadResult(unsigned char, unsigned char*, unsigned long*)+0x84>
    124a:	4e2a      	ldr	r6, [pc, #168]	; (12f4 <USBHAL::endpointReadResult(unsigned char, unsigned char*, unsigned long*)+0x138>)
    124c:	2401      	movs	r4, #1
    124e:	6830      	ldr	r0, [r6, #0]
    1250:	46b2      	mov	r10, r6
    1252:	4666      	mov	r6, r12
    1254:	00f6      	lsls	r6, r6, #3
    1256:	9601      	str	r6, [sp, #4]
    1258:	5dbe      	ldrb	r6, [r7, r6]
    125a:	4683      	mov	r11, r0
    125c:	11b6      	asrs	r6, r6, #6
    125e:	40c8      	lsrs	r0, r1
    1260:	4046      	eors	r6, r0
    1262:	4234      	tst	r4, r6
    1264:	d132      	bne.n	12cc <USBHAL::endpointReadResult(unsigned char, unsigned char*, unsigned long*)+0x110>
    1266:	464e      	mov	r6, r9
    1268:	2e00      	cmp	r6, #0
    126a:	d032      	beq.n	12d2 <USBHAL::endpointReadResult(unsigned char, unsigned char*, unsigned long*)+0x116>
    126c:	7992      	ldrb	r2, [r2, #6]
    126e:	2a00      	cmp	r2, #0
    1270:	d12f      	bne.n	12d2 <USBHAL::endpointReadResult(unsigned char, unsigned char*, unsigned long*)+0x116>
    1272:	4658      	mov	r0, r11
    1274:	2201      	movs	r2, #1
    1276:	4390      	bics	r0, r2
    1278:	4654      	mov	r4, r10
    127a:	2601      	movs	r6, #1
    127c:	6020      	str	r0, [r4, #0]
    127e:	408e      	lsls	r6, r1
    1280:	40c8      	lsrs	r0, r1
    1282:	07c4      	lsls	r4, r0, #31
    1284:	d51e      	bpl.n	12c4 <USBHAL::endpointReadResult(unsigned char, unsigned char*, unsigned long*)+0x108>
    1286:	9801      	ldr	r0, [sp, #4]
    1288:	22c8      	movs	r2, #200	; 0xc8
    128a:	543a      	strb	r2, [r7, r0]
    128c:	4916      	ldr	r1, [pc, #88]	; (12e8 <USBHAL::endpointReadResult(unsigned char, unsigned char*, unsigned long*)+0x12c>)
    128e:	2294      	movs	r2, #148	; 0x94
    1290:	5c88      	ldrb	r0, [r1, r2]
    1292:	2420      	movs	r4, #32
    1294:	43a0      	bics	r0, r4
    1296:	5488      	strb	r0, [r1, r2]
    1298:	4642      	mov	r2, r8
    129a:	601d      	str	r5, [r3, #0]
    129c:	6813      	ldr	r3, [r2, #0]
    129e:	2000      	movs	r0, #0
    12a0:	43b3      	bics	r3, r6
    12a2:	6013      	str	r3, [r2, #0]
    12a4:	e794      	b.n	11d0 <USBHAL::endpointReadResult(unsigned char, unsigned char*, unsigned long*)+0x14>
    12a6:	4811      	ldr	r0, [pc, #68]	; (12ec <USBHAL::endpointReadResult(unsigned char, unsigned char*, unsigned long*)+0x130>)
    12a8:	6806      	ldr	r6, [r0, #0]
    12aa:	4680      	mov	r8, r0
    12ac:	410e      	asrs	r6, r1
    12ae:	2001      	movs	r0, #1
    12b0:	4234      	tst	r4, r6
    12b2:	d100      	bne.n	12b6 <USBHAL::endpointReadResult(unsigned char, unsigned char*, unsigned long*)+0xfa>
    12b4:	e78c      	b.n	11d0 <USBHAL::endpointReadResult(unsigned char, unsigned char*, unsigned long*)+0x14>
    12b6:	2400      	movs	r4, #0
    12b8:	46a1      	mov	r9, r4
    12ba:	4666      	mov	r6, r12
    12bc:	480e      	ldr	r0, [pc, #56]	; (12f8 <USBHAL::endpointReadResult(unsigned char, unsigned char*, unsigned long*)+0x13c>)
    12be:	00b4      	lsls	r4, r6, #2
    12c0:	5826      	ldr	r6, [r4, r0]
    12c2:	e7ba      	b.n	123a <USBHAL::endpointReadResult(unsigned char, unsigned char*, unsigned long*)+0x7e>
    12c4:	9901      	ldr	r1, [sp, #4]
    12c6:	2288      	movs	r2, #136	; 0x88
    12c8:	547a      	strb	r2, [r7, r1]
    12ca:	e7df      	b.n	128c <USBHAL::endpointReadResult(unsigned char, unsigned char*, unsigned long*)+0xd0>
    12cc:	2601      	movs	r6, #1
    12ce:	408e      	lsls	r6, r1
    12d0:	e7d7      	b.n	1282 <USBHAL::endpointReadResult(unsigned char, unsigned char*, unsigned long*)+0xc6>
    12d2:	2601      	movs	r6, #1
    12d4:	408e      	lsls	r6, r1
    12d6:	4658      	mov	r0, r11
    12d8:	4070      	eors	r0, r6
    12da:	4652      	mov	r2, r10
    12dc:	6010      	str	r0, [r2, #0]
    12de:	40c8      	lsrs	r0, r1
    12e0:	e7cf      	b.n	1282 <USBHAL::endpointReadResult(unsigned char, unsigned char*, unsigned long*)+0xc6>
    12e2:	46c0      	nop			; (mov r8, r8)
    12e4:	1ffff600 	.word	0x1ffff600
    12e8:	40072000 	.word	0x40072000
    12ec:	1ffff904 	.word	0x1ffff904
    12f0:	1ffff8f4 	.word	0x1ffff8f4
    12f4:	1ffff130 	.word	0x1ffff130
    12f8:	1ffff804 	.word	0x1ffff804

000012fc <USBHAL::EP0setup(unsigned char*)>:
    12fc:	b500      	push	{lr}
    12fe:	b083      	sub	sp, #12
    1300:	1c0a      	adds	r2, r1, #0
    1302:	ab01      	add	r3, sp, #4
    1304:	2100      	movs	r1, #0
    1306:	f7ff ff59 	bl	11bc <USBHAL::endpointReadResult(unsigned char, unsigned char*, unsigned long*)>
    130a:	b003      	add	sp, #12
    130c:	bd00      	pop	{pc}
    130e:	46c0      	nop			; (mov r8, r8)

00001310 <USBHAL::EP0getReadResult(unsigned char*)>:
    1310:	b500      	push	{lr}
    1312:	b083      	sub	sp, #12
    1314:	1c0a      	adds	r2, r1, #0
    1316:	ab01      	add	r3, sp, #4
    1318:	2100      	movs	r1, #0
    131a:	f7ff ff4f 	bl	11bc <USBHAL::endpointReadResult(unsigned char, unsigned char*, unsigned long*)>
    131e:	9801      	ldr	r0, [sp, #4]
    1320:	b003      	add	sp, #12
    1322:	bd00      	pop	{pc}

00001324 <USBHAL::endpointWrite(unsigned char, unsigned char*, unsigned long)>:
    1324:	b5f0      	push	{r4, r5, r6, r7, lr}
    1326:	4647      	mov	r7, r8
    1328:	b480      	push	{r7}
    132a:	2002      	movs	r0, #2
    132c:	291f      	cmp	r1, #31
    132e:	d902      	bls.n	1336 <USBHAL::endpointWrite(unsigned char, unsigned char*, unsigned long)+0x12>
    1330:	bc04      	pop	{r2}
    1332:	4690      	mov	r8, r2
    1334:	bdf0      	pop	{r4, r5, r6, r7, pc}
    1336:	2401      	movs	r4, #1
    1338:	420c      	tst	r4, r1
    133a:	d0f9      	beq.n	1330 <USBHAL::endpointWrite(unsigned char, unsigned char*, unsigned long)+0xc>
    133c:	1048      	asrs	r0, r1, #1
    133e:	0085      	lsls	r5, r0, #2
    1340:	3502      	adds	r5, #2
    1342:	4f16      	ldr	r7, [pc, #88]	; (139c <USBHAL::endpointWrite(unsigned char, unsigned char*, unsigned long)+0x78>)
    1344:	3030      	adds	r0, #48	; 0x30
    1346:	0080      	lsls	r0, r0, #2
    1348:	00ee      	lsls	r6, r5, #3
    134a:	4684      	mov	r12, r0
    134c:	46a8      	mov	r8, r5
    134e:	4814      	ldr	r0, [pc, #80]	; (13a0 <USBHAL::endpointWrite(unsigned char, unsigned char*, unsigned long)+0x7c>)
    1350:	19bd      	adds	r5, r7, r6
    1352:	806b      	strh	r3, [r5, #2]
    1354:	4665      	mov	r5, r12
    1356:	5c28      	ldrb	r0, [r5, r0]
    1358:	4204      	tst	r4, r0
    135a:	d019      	beq.n	1390 <USBHAL::endpointWrite(unsigned char, unsigned char*, unsigned long)+0x6c>
    135c:	4640      	mov	r0, r8
    135e:	0085      	lsls	r5, r0, #2
    1360:	4810      	ldr	r0, [pc, #64]	; (13a4 <USBHAL::endpointWrite(unsigned char, unsigned char*, unsigned long)+0x80>)
    1362:	582d      	ldr	r5, [r5, r0]
    1364:	2000      	movs	r0, #0
    1366:	2b00      	cmp	r3, #0
    1368:	d004      	beq.n	1374 <USBHAL::endpointWrite(unsigned char, unsigned char*, unsigned long)+0x50>
    136a:	5c14      	ldrb	r4, [r2, r0]
    136c:	542c      	strb	r4, [r5, r0]
    136e:	3001      	adds	r0, #1
    1370:	4298      	cmp	r0, r3
    1372:	d1fa      	bne.n	136a <USBHAL::endpointWrite(unsigned char, unsigned char*, unsigned long)+0x46>
    1374:	4b0c      	ldr	r3, [pc, #48]	; (13a8 <USBHAL::endpointWrite(unsigned char, unsigned char*, unsigned long)+0x84>)
    1376:	681a      	ldr	r2, [r3, #0]
    1378:	1c10      	adds	r0, r2, #0
    137a:	40c8      	lsrs	r0, r1
    137c:	07c4      	lsls	r4, r0, #31
    137e:	d50a      	bpl.n	1396 <USBHAL::endpointWrite(unsigned char, unsigned char*, unsigned long)+0x72>
    1380:	2088      	movs	r0, #136	; 0x88
    1382:	55b8      	strb	r0, [r7, r6]
    1384:	2001      	movs	r0, #1
    1386:	4088      	lsls	r0, r1
    1388:	4042      	eors	r2, r0
    138a:	601a      	str	r2, [r3, #0]
    138c:	2001      	movs	r0, #1
    138e:	e7cf      	b.n	1330 <USBHAL::endpointWrite(unsigned char, unsigned char*, unsigned long)+0xc>
    1390:	4806      	ldr	r0, [pc, #24]	; (13ac <USBHAL::endpointWrite(unsigned char, unsigned char*, unsigned long)+0x88>)
    1392:	6885      	ldr	r5, [r0, #8]
    1394:	e7e6      	b.n	1364 <USBHAL::endpointWrite(unsigned char, unsigned char*, unsigned long)+0x40>
    1396:	20c8      	movs	r0, #200	; 0xc8
    1398:	55b8      	strb	r0, [r7, r6]
    139a:	e7f3      	b.n	1384 <USBHAL::endpointWrite(unsigned char, unsigned char*, unsigned long)+0x60>
    139c:	1ffff600 	.word	0x1ffff600
    13a0:	40072000 	.word	0x40072000
    13a4:	1ffff804 	.word	0x1ffff804
    13a8:	1ffff130 	.word	0x1ffff130
    13ac:	1ffff8f4 	.word	0x1ffff8f4

000013b0 <USBHAL::EP0write(unsigned char*, unsigned long)>:
    13b0:	b510      	push	{r4, lr}
    13b2:	1c0c      	adds	r4, r1, #0
    13b4:	1c13      	adds	r3, r2, #0
    13b6:	2101      	movs	r1, #1
    13b8:	1c22      	adds	r2, r4, #0
    13ba:	f7ff ffb3 	bl	1324 <USBHAL::endpointWrite(unsigned char, unsigned char*, unsigned long)>
    13be:	bd10      	pop	{r4, pc}

000013c0 <USBHAL::endpointWriteResult(unsigned char)>:
    13c0:	4b06      	ldr	r3, [pc, #24]	; (13dc <USBHAL::endpointWriteResult(unsigned char)+0x1c>)
    13c2:	b510      	push	{r4, lr}
    13c4:	681a      	ldr	r2, [r3, #0]
    13c6:	2001      	movs	r0, #1
    13c8:	410a      	asrs	r2, r1
    13ca:	07d4      	lsls	r4, r2, #31
    13cc:	d504      	bpl.n	13d8 <USBHAL::endpointWriteResult(unsigned char)+0x18>
    13ce:	681a      	ldr	r2, [r3, #0]
    13d0:	4088      	lsls	r0, r1
    13d2:	4382      	bics	r2, r0
    13d4:	601a      	str	r2, [r3, #0]
    13d6:	2000      	movs	r0, #0
    13d8:	bd10      	pop	{r4, pc}
    13da:	46c0      	nop			; (mov r8, r8)
    13dc:	1ffff904 	.word	0x1ffff904

000013e0 <USBHAL::stallEndpoint(unsigned char)>:
    13e0:	4b04      	ldr	r3, [pc, #16]	; (13f4 <USBHAL::stallEndpoint(unsigned char)+0x14>)
    13e2:	1049      	asrs	r1, r1, #1
    13e4:	0089      	lsls	r1, r1, #2
    13e6:	18c9      	adds	r1, r1, r3
    13e8:	23c0      	movs	r3, #192	; 0xc0
    13ea:	5cc8      	ldrb	r0, [r1, r3]
    13ec:	2202      	movs	r2, #2
    13ee:	4302      	orrs	r2, r0
    13f0:	54ca      	strb	r2, [r1, r3]
    13f2:	4770      	bx	lr
    13f4:	40072000 	.word	0x40072000

000013f8 <USBHAL::unstallEndpoint(unsigned char)>:
    13f8:	4b04      	ldr	r3, [pc, #16]	; (140c <USBHAL::unstallEndpoint(unsigned char)+0x14>)
    13fa:	1049      	asrs	r1, r1, #1
    13fc:	0089      	lsls	r1, r1, #2
    13fe:	18c9      	adds	r1, r1, r3
    1400:	23c0      	movs	r3, #192	; 0xc0
    1402:	5cca      	ldrb	r2, [r1, r3]
    1404:	2002      	movs	r0, #2
    1406:	4382      	bics	r2, r0
    1408:	54ca      	strb	r2, [r1, r3]
    140a:	4770      	bx	lr
    140c:	40072000 	.word	0x40072000

00001410 <USBHAL::getEndpointStallState(unsigned char)>:
    1410:	1049      	asrs	r1, r1, #1
    1412:	4b03      	ldr	r3, [pc, #12]	; (1420 <USBHAL::getEndpointStallState(unsigned char)+0x10>)
    1414:	3130      	adds	r1, #48	; 0x30
    1416:	0089      	lsls	r1, r1, #2
    1418:	5cc8      	ldrb	r0, [r1, r3]
    141a:	0780      	lsls	r0, r0, #30
    141c:	0fc0      	lsrs	r0, r0, #31
    141e:	4770      	bx	lr
    1420:	40072000 	.word	0x40072000

00001424 <USBHAL::usbisr()>:
    1424:	b5f8      	push	{r3, r4, r5, r6, r7, lr}
    1426:	464d      	mov	r5, r9
    1428:	4644      	mov	r4, r8
    142a:	465f      	mov	r7, r11
    142c:	4656      	mov	r6, r10
    142e:	b4f0      	push	{r4, r5, r6, r7}
    1430:	4a97      	ldr	r2, [pc, #604]	; (1690 <USBHAL::usbisr()+0x26c>)
    1432:	2380      	movs	r3, #128	; 0x80
    1434:	5cd4      	ldrb	r4, [r2, r3]
    1436:	1c05      	adds	r5, r0, #0
    1438:	b2e4      	uxtb	r4, r4
    143a:	07e0      	lsls	r0, r4, #31
    143c:	d52c      	bpl.n	1498 <USBHAL::usbisr()+0x74>
    143e:	2300      	movs	r3, #0
    1440:	1c10      	adds	r0, r2, #0
    1442:	2100      	movs	r1, #0
    1444:	1c1a      	adds	r2, r3, #0
    1446:	3230      	adds	r2, #48	; 0x30
    1448:	0092      	lsls	r2, r2, #2
    144a:	3301      	adds	r3, #1
    144c:	4c90      	ldr	r4, [pc, #576]	; (1690 <USBHAL::usbisr()+0x26c>)
    144e:	5411      	strb	r1, [r2, r0]
    1450:	2b10      	cmp	r3, #16
    1452:	d1f7      	bne.n	1444 <USBHAL::usbisr()+0x20>
    1454:	2140      	movs	r1, #64	; 0x40
    1456:	2200      	movs	r2, #0
    1458:	2000      	movs	r0, #0
    145a:	f7ff fcdd 	bl	e18 <USBHAL::realiseEndpoint(unsigned char, unsigned long, unsigned long) [clone .part.0]>
    145e:	2140      	movs	r1, #64	; 0x40
    1460:	2200      	movs	r2, #0
    1462:	2001      	movs	r0, #1
    1464:	f7ff fcd8 	bl	e18 <USBHAL::realiseEndpoint(unsigned char, unsigned long, unsigned long) [clone .part.0]>
    1468:	4a8a      	ldr	r2, [pc, #552]	; (1694 <USBHAL::usbisr()+0x270>)
    146a:	4b8b      	ldr	r3, [pc, #556]	; (1698 <USBHAL::usbisr()+0x274>)
    146c:	601a      	str	r2, [r3, #0]
    146e:	2394      	movs	r3, #148	; 0x94
    1470:	5ce1      	ldrb	r1, [r4, r3]
    1472:	2202      	movs	r2, #2
    1474:	430a      	orrs	r2, r1
    1476:	54e2      	strb	r2, [r4, r3]
    1478:	23ff      	movs	r3, #255	; 0xff
    147a:	2280      	movs	r2, #128	; 0x80
    147c:	54a3      	strb	r3, [r4, r2]
    147e:	2288      	movs	r2, #136	; 0x88
    1480:	54a3      	strb	r3, [r4, r2]
    1482:	228c      	movs	r2, #140	; 0x8c
    1484:	54a3      	strb	r3, [r4, r2]
    1486:	2398      	movs	r3, #152	; 0x98
    1488:	2200      	movs	r2, #0
    148a:	54e2      	strb	r2, [r4, r3]
    148c:	bc3c      	pop	{r2, r3, r4, r5}
    148e:	4690      	mov	r8, r2
    1490:	4699      	mov	r9, r3
    1492:	46a2      	mov	r10, r4
    1494:	46ab      	mov	r11, r5
    1496:	bdf8      	pop	{r3, r4, r5, r6, r7, pc}
    1498:	2120      	movs	r1, #32
    149a:	4221      	tst	r1, r4
    149c:	d000      	beq.n	14a0 <USBHAL::usbisr()+0x7c>
    149e:	54d1      	strb	r1, [r2, r3]
    14a0:	2304      	movs	r3, #4
    14a2:	4223      	tst	r3, r4
    14a4:	d13d      	bne.n	1522 <USBHAL::usbisr()+0xfe>
    14a6:	b263      	sxtb	r3, r4
    14a8:	2b00      	cmp	r3, #0
    14aa:	db4c      	blt.n	1546 <USBHAL::usbisr()+0x122>
    14ac:	0721      	lsls	r1, r4, #28
    14ae:	d522      	bpl.n	14f6 <USBHAL::usbisr()+0xd2>
    14b0:	4a77      	ldr	r2, [pc, #476]	; (1690 <USBHAL::usbisr()+0x26c>)
    14b2:	2390      	movs	r3, #144	; 0x90
    14b4:	5cd6      	ldrb	r6, [r2, r3]
    14b6:	5cd0      	ldrb	r0, [r2, r3]
    14b8:	5cd3      	ldrb	r3, [r2, r3]
    14ba:	2101      	movs	r1, #1
    14bc:	08c0      	lsrs	r0, r0, #3
    14be:	089b      	lsrs	r3, r3, #2
    14c0:	4008      	ands	r0, r1
    14c2:	0936      	lsrs	r6, r6, #4
    14c4:	4019      	ands	r1, r3
    14c6:	2e00      	cmp	r6, #0
    14c8:	d04f      	beq.n	156a <USBHAL::usbisr()+0x146>
    14ca:	0073      	lsls	r3, r6, #1
    14cc:	18c0      	adds	r0, r0, r3
    14ce:	0040      	lsls	r0, r0, #1
    14d0:	1841      	adds	r1, r0, r1
    14d2:	4a72      	ldr	r2, [pc, #456]	; (169c <USBHAL::usbisr()+0x278>)
    14d4:	00c9      	lsls	r1, r1, #3
    14d6:	468a      	mov	r10, r1
    14d8:	1c10      	adds	r0, r2, #0
    14da:	4450      	add	r0, r10
    14dc:	7803      	ldrb	r3, [r0, #0]
    14de:	4693      	mov	r11, r2
    14e0:	069b      	lsls	r3, r3, #26
    14e2:	0f1b      	lsrs	r3, r3, #28
    14e4:	2b01      	cmp	r3, #1
    14e6:	d069      	beq.n	15bc <USBHAL::usbisr()+0x198>
    14e8:	2b09      	cmp	r3, #9
    14ea:	d100      	bne.n	14ee <USBHAL::usbisr()+0xca>
    14ec:	e0cb      	b.n	1686 <USBHAL::usbisr()+0x262>
    14ee:	4a68      	ldr	r2, [pc, #416]	; (1690 <USBHAL::usbisr()+0x26c>)
    14f0:	2108      	movs	r1, #8
    14f2:	2380      	movs	r3, #128	; 0x80
    14f4:	54d1      	strb	r1, [r2, r3]
    14f6:	06e3      	lsls	r3, r4, #27
    14f8:	d506      	bpl.n	1508 <USBHAL::usbisr()+0xe4>
    14fa:	4a65      	ldr	r2, [pc, #404]	; (1690 <USBHAL::usbisr()+0x26c>)
    14fc:	2380      	movs	r3, #128	; 0x80
    14fe:	5cd0      	ldrb	r0, [r2, r3]
    1500:	2110      	movs	r1, #16
    1502:	4301      	orrs	r1, r0
    1504:	b2c9      	uxtb	r1, r1
    1506:	54d1      	strb	r1, [r2, r3]
    1508:	07a0      	lsls	r0, r4, #30
    150a:	d5bf      	bpl.n	148c <USBHAL::usbisr()+0x68>
    150c:	4b60      	ldr	r3, [pc, #384]	; (1690 <USBHAL::usbisr()+0x26c>)
    150e:	21ff      	movs	r1, #255	; 0xff
    1510:	2288      	movs	r2, #136	; 0x88
    1512:	5499      	strb	r1, [r3, r2]
    1514:	2280      	movs	r2, #128	; 0x80
    1516:	5c98      	ldrb	r0, [r3, r2]
    1518:	2102      	movs	r1, #2
    151a:	4301      	orrs	r1, r0
    151c:	b2c9      	uxtb	r1, r1
    151e:	5499      	strb	r1, [r3, r2]
    1520:	e7b4      	b.n	148c <USBHAL::usbisr()+0x68>
    1522:	4a5b      	ldr	r2, [pc, #364]	; (1690 <USBHAL::usbisr()+0x26c>)
    1524:	2180      	movs	r1, #128	; 0x80
    1526:	5453      	strb	r3, [r2, r1]
    1528:	23a0      	movs	r3, #160	; 0xa0
    152a:	5cd0      	ldrb	r0, [r2, r3]
    152c:	23a4      	movs	r3, #164	; 0xa4
    152e:	5cd1      	ldrb	r1, [r2, r3]
    1530:	682b      	ldr	r3, [r5, #0]
    1532:	0209      	lsls	r1, r1, #8
    1534:	4301      	orrs	r1, r0
    1536:	0549      	lsls	r1, r1, #21
    1538:	699b      	ldr	r3, [r3, #24]
    153a:	0d49      	lsrs	r1, r1, #21
    153c:	1c28      	adds	r0, r5, #0
    153e:	4798      	blx	r3
    1540:	b263      	sxtb	r3, r4
    1542:	2b00      	cmp	r3, #0
    1544:	dab2      	bge.n	14ac <USBHAL::usbisr()+0x88>
    1546:	4a52      	ldr	r2, [pc, #328]	; (1690 <USBHAL::usbisr()+0x26c>)
    1548:	23c0      	movs	r3, #192	; 0xc0
    154a:	5cd0      	ldrb	r0, [r2, r3]
    154c:	2102      	movs	r1, #2
    154e:	4201      	tst	r1, r0
    1550:	d002      	beq.n	1558 <USBHAL::usbisr()+0x134>
    1552:	5cd0      	ldrb	r0, [r2, r3]
    1554:	4388      	bics	r0, r1
    1556:	54d0      	strb	r0, [r2, r3]
    1558:	4a4d      	ldr	r2, [pc, #308]	; (1690 <USBHAL::usbisr()+0x26c>)
    155a:	2380      	movs	r3, #128	; 0x80
    155c:	5cd0      	ldrb	r0, [r2, r3]
    155e:	2180      	movs	r1, #128	; 0x80
    1560:	4301      	orrs	r1, r0
    1562:	54d1      	strb	r1, [r2, r3]
    1564:	0721      	lsls	r1, r4, #28
    1566:	d5c6      	bpl.n	14f6 <USBHAL::usbisr()+0xd2>
    1568:	e7a2      	b.n	14b0 <USBHAL::usbisr()+0x8c>
    156a:	0040      	lsls	r0, r0, #1
    156c:	1841      	adds	r1, r0, r1
    156e:	4e4b      	ldr	r6, [pc, #300]	; (169c <USBHAL::usbisr()+0x278>)
    1570:	00cf      	lsls	r7, r1, #3
    1572:	5dbb      	ldrb	r3, [r7, r6]
    1574:	220f      	movs	r2, #15
    1576:	109b      	asrs	r3, r3, #2
    1578:	4690      	mov	r8, r2
    157a:	4013      	ands	r3, r2
    157c:	2b0d      	cmp	r3, #13
    157e:	d071      	beq.n	1664 <USBHAL::usbisr()+0x240>
    1580:	2b01      	cmp	r3, #1
    1582:	d107      	bne.n	1594 <USBHAL::usbisr()+0x170>
    1584:	682b      	ldr	r3, [r5, #0]
    1586:	1c28      	adds	r0, r5, #0
    1588:	689b      	ldr	r3, [r3, #8]
    158a:	4798      	blx	r3
    158c:	5dbb      	ldrb	r3, [r7, r6]
    158e:	4642      	mov	r2, r8
    1590:	109b      	asrs	r3, r3, #2
    1592:	4013      	ands	r3, r2
    1594:	2b09      	cmp	r3, #9
    1596:	d1aa      	bne.n	14ee <USBHAL::usbisr()+0xca>
    1598:	682b      	ldr	r3, [r5, #0]
    159a:	1c28      	adds	r0, r5, #0
    159c:	68db      	ldr	r3, [r3, #12]
    159e:	4798      	blx	r3
    15a0:	4b3f      	ldr	r3, [pc, #252]	; (16a0 <USBHAL::usbisr()+0x27c>)
    15a2:	781a      	ldrb	r2, [r3, #0]
    15a4:	2a01      	cmp	r2, #1
    15a6:	d1a2      	bne.n	14ee <USBHAL::usbisr()+0xca>
    15a8:	4a3e      	ldr	r2, [pc, #248]	; (16a4 <USBHAL::usbisr()+0x280>)
    15aa:	207f      	movs	r0, #127	; 0x7f
    15ac:	7812      	ldrb	r2, [r2, #0]
    15ae:	4938      	ldr	r1, [pc, #224]	; (1690 <USBHAL::usbisr()+0x26c>)
    15b0:	4010      	ands	r0, r2
    15b2:	2298      	movs	r2, #152	; 0x98
    15b4:	5488      	strb	r0, [r1, r2]
    15b6:	2200      	movs	r2, #0
    15b8:	701a      	strb	r2, [r3, #0]
    15ba:	e798      	b.n	14ee <USBHAL::usbisr()+0xca>
    15bc:	4f3a      	ldr	r7, [pc, #232]	; (16a8 <USBHAL::usbisr()+0x284>)
    15be:	1c1a      	adds	r2, r3, #0
    15c0:	40b2      	lsls	r2, r6
    15c2:	1c18      	adds	r0, r3, #0
    15c4:	4090      	lsls	r0, r2
    15c6:	6839      	ldr	r1, [r7, #0]
    15c8:	3a02      	subs	r2, #2
    15ca:	00d2      	lsls	r2, r2, #3
    15cc:	4301      	orrs	r1, r0
    15ce:	18aa      	adds	r2, r5, r2
    15d0:	6039      	str	r1, [r7, #0]
    15d2:	6891      	ldr	r1, [r2, #8]
    15d4:	4681      	mov	r9, r0
    15d6:	420b      	tst	r3, r1
    15d8:	d133      	bne.n	1642 <USBHAL::usbisr()+0x21e>
    15da:	6853      	ldr	r3, [r2, #4]
    15dc:	4a33      	ldr	r2, [pc, #204]	; (16ac <USBHAL::usbisr()+0x288>)
    15de:	1049      	asrs	r1, r1, #1
    15e0:	4690      	mov	r8, r2
    15e2:	6812      	ldr	r2, [r2, #0]
    15e4:	1850      	adds	r0, r2, r1
    15e6:	4798      	blx	r3
    15e8:	2800      	cmp	r0, #0
    15ea:	d003      	beq.n	15f4 <USBHAL::usbisr()+0x1d0>
    15ec:	683b      	ldr	r3, [r7, #0]
    15ee:	464a      	mov	r2, r9
    15f0:	4393      	bics	r3, r2
    15f2:	603b      	str	r3, [r7, #0]
    15f4:	4659      	mov	r1, r11
    15f6:	4451      	add	r1, r10
    15f8:	780b      	ldrb	r3, [r1, #0]
    15fa:	069b      	lsls	r3, r3, #26
    15fc:	0f1b      	lsrs	r3, r3, #28
    15fe:	2b09      	cmp	r3, #9
    1600:	d000      	beq.n	1604 <USBHAL::usbisr()+0x1e0>
    1602:	e774      	b.n	14ee <USBHAL::usbisr()+0xca>
    1604:	2301      	movs	r3, #1
    1606:	1c18      	adds	r0, r3, #0
    1608:	40b0      	lsls	r0, r6
    160a:	1c42      	adds	r2, r0, #1
    160c:	1c06      	adds	r6, r0, #0
    160e:	1c19      	adds	r1, r3, #0
    1610:	4091      	lsls	r1, r2
    1612:	3e01      	subs	r6, #1
    1614:	683a      	ldr	r2, [r7, #0]
    1616:	00f6      	lsls	r6, r6, #3
    1618:	430a      	orrs	r2, r1
    161a:	19ad      	adds	r5, r5, r6
    161c:	603a      	str	r2, [r7, #0]
    161e:	68aa      	ldr	r2, [r5, #8]
    1620:	4689      	mov	r9, r1
    1622:	4213      	tst	r3, r2
    1624:	d116      	bne.n	1654 <USBHAL::usbisr()+0x230>
    1626:	4641      	mov	r1, r8
    1628:	6808      	ldr	r0, [r1, #0]
    162a:	1052      	asrs	r2, r2, #1
    162c:	686b      	ldr	r3, [r5, #4]
    162e:	1880      	adds	r0, r0, r2
    1630:	4798      	blx	r3
    1632:	2800      	cmp	r0, #0
    1634:	d100      	bne.n	1638 <USBHAL::usbisr()+0x214>
    1636:	e75a      	b.n	14ee <USBHAL::usbisr()+0xca>
    1638:	683b      	ldr	r3, [r7, #0]
    163a:	464a      	mov	r2, r9
    163c:	4393      	bics	r3, r2
    163e:	603b      	str	r3, [r7, #0]
    1640:	e755      	b.n	14ee <USBHAL::usbisr()+0xca>
    1642:	4b1a      	ldr	r3, [pc, #104]	; (16ac <USBHAL::usbisr()+0x288>)
    1644:	1049      	asrs	r1, r1, #1
    1646:	4698      	mov	r8, r3
    1648:	681b      	ldr	r3, [r3, #0]
    164a:	1858      	adds	r0, r3, r1
    164c:	6801      	ldr	r1, [r0, #0]
    164e:	6853      	ldr	r3, [r2, #4]
    1650:	58cb      	ldr	r3, [r1, r3]
    1652:	e7c8      	b.n	15e6 <USBHAL::usbisr()+0x1c2>
    1654:	4643      	mov	r3, r8
    1656:	6818      	ldr	r0, [r3, #0]
    1658:	1052      	asrs	r2, r2, #1
    165a:	1880      	adds	r0, r0, r2
    165c:	686b      	ldr	r3, [r5, #4]
    165e:	6801      	ldr	r1, [r0, #0]
    1660:	58cb      	ldr	r3, [r1, r3]
    1662:	e7e5      	b.n	1630 <USBHAL::usbisr()+0x20c>
    1664:	4b0c      	ldr	r3, [pc, #48]	; (1698 <USBHAL::usbisr()+0x274>)
    1666:	2202      	movs	r2, #2
    1668:	6819      	ldr	r1, [r3, #0]
    166a:	1c28      	adds	r0, r5, #0
    166c:	4391      	bics	r1, r2
    166e:	6019      	str	r1, [r3, #0]
    1670:	7e32      	ldrb	r2, [r6, #24]
    1672:	237f      	movs	r3, #127	; 0x7f
    1674:	401a      	ands	r2, r3
    1676:	7632      	strb	r2, [r6, #24]
    1678:	7c32      	ldrb	r2, [r6, #16]
    167a:	4013      	ands	r3, r2
    167c:	7433      	strb	r3, [r6, #16]
    167e:	682b      	ldr	r3, [r5, #0]
    1680:	685b      	ldr	r3, [r3, #4]
    1682:	4798      	blx	r3
    1684:	e733      	b.n	14ee <USBHAL::usbisr()+0xca>
    1686:	4a09      	ldr	r2, [pc, #36]	; (16ac <USBHAL::usbisr()+0x288>)
    1688:	4f07      	ldr	r7, [pc, #28]	; (16a8 <USBHAL::usbisr()+0x284>)
    168a:	4690      	mov	r8, r2
    168c:	e7ba      	b.n	1604 <USBHAL::usbisr()+0x1e0>
    168e:	46c0      	nop			; (mov r8, r8)
    1690:	40072000 	.word	0x40072000
    1694:	55555555 	.word	0x55555555
    1698:	1ffff130 	.word	0x1ffff130
    169c:	1ffff600 	.word	0x1ffff600
    16a0:	1ffff908 	.word	0x1ffff908
    16a4:	1ffff800 	.word	0x1ffff800
    16a8:	1ffff904 	.word	0x1ffff904
    16ac:	1ffff58c 	.word	0x1ffff58c

000016b0 <USBHAL::_usbisr()>:
    16b0:	b508      	push	{r3, lr}
    16b2:	4b02      	ldr	r3, [pc, #8]	; (16bc <USBHAL::_usbisr()+0xc>)
    16b4:	6818      	ldr	r0, [r3, #0]
    16b6:	f7ff feb5 	bl	1424 <USBHAL::usbisr()>
    16ba:	bd08      	pop	{r3, pc}
    16bc:	1ffff58c 	.word	0x1ffff58c

000016c0 <USBHID::HID_callbackSetReport(HID_REPORT*)>:
    16c0:	4770      	bx	lr
    16c2:	46c0      	nop			; (mov r8, r8)

000016c4 <USBHID::reportDescLength()>:
    16c4:	b510      	push	{r4, lr}
    16c6:	6802      	ldr	r2, [r0, #0]
    16c8:	23cc      	movs	r3, #204	; 0xcc
    16ca:	58d3      	ldr	r3, [r2, r3]
    16cc:	1c04      	adds	r4, r0, #0
    16ce:	4798      	blx	r3
    16d0:	238e      	movs	r3, #142	; 0x8e
    16d2:	005b      	lsls	r3, r3, #1
    16d4:	5ae0      	ldrh	r0, [r4, r3]
    16d6:	bd10      	pop	{r4, pc}

000016d8 <USBHID::stringIinterfaceDesc()>:
    16d8:	4800      	ldr	r0, [pc, #0]	; (16dc <USBHID::stringIinterfaceDesc()+0x4>)
    16da:	4770      	bx	lr
    16dc:	1ffff194 	.word	0x1ffff194

000016e0 <USBHID::stringIproductDesc()>:
    16e0:	4800      	ldr	r0, [pc, #0]	; (16e4 <USBHID::stringIproductDesc()+0x4>)
    16e2:	4770      	bx	lr
    16e4:	1ffff17c 	.word	0x1ffff17c

000016e8 <USBHID::USBCallback_request()>:
    16e8:	b5f8      	push	{r3, r4, r5, r6, r7, lr}
    16ea:	1c05      	adds	r5, r0, #0
    16ec:	f7ff faf4 	bl	cd8 <USBDevice::getTransferPtr()>
    16f0:	7843      	ldrb	r3, [r0, #1]
    16f2:	1c04      	adds	r4, r0, #0
    16f4:	2b00      	cmp	r3, #0
    16f6:	d120      	bne.n	173a <USBHID::USBCallback_request()+0x52>
    16f8:	78c3      	ldrb	r3, [r0, #3]
    16fa:	2b06      	cmp	r3, #6
    16fc:	d136      	bne.n	176c <USBHID::USBCallback_request()+0x84>
    16fe:	8883      	ldrh	r3, [r0, #4]
    1700:	121b      	asrs	r3, r3, #8
    1702:	2b21      	cmp	r3, #33	; 0x21
    1704:	d034      	beq.n	1770 <USBHID::USBCallback_request()+0x88>
    1706:	2b22      	cmp	r3, #34	; 0x22
    1708:	d130      	bne.n	176c <USBHID::USBCallback_request()+0x84>
    170a:	682a      	ldr	r2, [r5, #0]
    170c:	26cc      	movs	r6, #204	; 0xcc
    170e:	5993      	ldr	r3, [r2, r6]
    1710:	1c28      	adds	r0, r5, #0
    1712:	4798      	blx	r3
    1714:	2800      	cmp	r0, #0
    1716:	d039      	beq.n	178c <USBHID::USBCallback_request()+0xa4>
    1718:	682a      	ldr	r2, [r5, #0]
    171a:	27c8      	movs	r7, #200	; 0xc8
    171c:	59d3      	ldr	r3, [r2, r7]
    171e:	1c28      	adds	r0, r5, #0
    1720:	4798      	blx	r3
    1722:	2800      	cmp	r0, #0
    1724:	d032      	beq.n	178c <USBHID::USBCallback_request()+0xa4>
    1726:	682a      	ldr	r2, [r5, #0]
    1728:	1c28      	adds	r0, r5, #0
    172a:	59d3      	ldr	r3, [r2, r7]
    172c:	4798      	blx	r3
    172e:	682a      	ldr	r2, [r5, #0]
    1730:	6120      	str	r0, [r4, #16]
    1732:	5993      	ldr	r3, [r2, r6]
    1734:	1c28      	adds	r0, r5, #0
    1736:	4798      	blx	r3
    1738:	e022      	b.n	1780 <USBHID::USBCallback_request()+0x98>
    173a:	2000      	movs	r0, #0
    173c:	2b01      	cmp	r3, #1
    173e:	d114      	bne.n	176a <USBHID::USBCallback_request()+0x82>
    1740:	78e2      	ldrb	r2, [r4, #3]
    1742:	2a09      	cmp	r2, #9
    1744:	d111      	bne.n	176a <USBHID::USBCallback_request()+0x82>
    1746:	88a1      	ldrh	r1, [r4, #4]
    1748:	2292      	movs	r2, #146	; 0x92
    174a:	0052      	lsls	r2, r2, #1
    174c:	54a9      	strb	r1, [r5, r2]
    174e:	8921      	ldrh	r1, [r4, #8]
    1750:	2290      	movs	r2, #144	; 0x90
    1752:	0052      	lsls	r2, r2, #1
    1754:	3101      	adds	r1, #1
    1756:	50a9      	str	r1, [r5, r2]
    1758:	223f      	movs	r2, #63	; 0x3f
    175a:	3526      	adds	r5, #38	; 0x26
    175c:	6122      	str	r2, [r4, #16]
    175e:	35ff      	adds	r5, #255	; 0xff
    1760:	2200      	movs	r2, #0
    1762:	60e5      	str	r5, [r4, #12]
    1764:	7522      	strb	r2, [r4, #20]
    1766:	75a3      	strb	r3, [r4, #22]
    1768:	2001      	movs	r0, #1
    176a:	bdf8      	pop	{r3, r4, r5, r6, r7, pc}
    176c:	2000      	movs	r0, #0
    176e:	e7fc      	b.n	176a <USBHID::USBCallback_request()+0x82>
    1770:	1c28      	adds	r0, r5, #0
    1772:	2121      	movs	r1, #33	; 0x21
    1774:	f7ff fab8 	bl	ce8 <USBDevice::findDescriptor(unsigned char)>
    1778:	2800      	cmp	r0, #0
    177a:	d00a      	beq.n	1792 <USBHID::USBCallback_request()+0xaa>
    177c:	2309      	movs	r3, #9
    177e:	6123      	str	r3, [r4, #16]
    1780:	2301      	movs	r3, #1
    1782:	60e0      	str	r0, [r4, #12]
    1784:	7523      	strb	r3, [r4, #20]
    1786:	2001      	movs	r0, #1
    1788:	7863      	ldrb	r3, [r4, #1]
    178a:	e7d7      	b.n	173c <USBHID::USBCallback_request()+0x54>
    178c:	7863      	ldrb	r3, [r4, #1]
    178e:	2000      	movs	r0, #0
    1790:	e7d4      	b.n	173c <USBHID::USBCallback_request()+0x54>
    1792:	7863      	ldrb	r3, [r4, #1]
    1794:	e7d2      	b.n	173c <USBHID::USBCallback_request()+0x54>
    1796:	46c0      	nop			; (mov r8, r8)

00001798 <USBHID::reportDesc()>:
    1798:	b570      	push	{r4, r5, r6, lr}
    179a:	4c0f      	ldr	r4, [pc, #60]	; (17d8 <USBHID::reportDesc()+0x40>)
    179c:	1c05      	adds	r5, r0, #0
    179e:	6823      	ldr	r3, [r4, #0]
    17a0:	07db      	lsls	r3, r3, #31
    17a2:	d506      	bpl.n	17b2 <USBHID::reportDesc()+0x1a>
    17a4:	4e0d      	ldr	r6, [pc, #52]	; (17dc <USBHID::reportDesc()+0x44>)
    17a6:	238e      	movs	r3, #142	; 0x8e
    17a8:	221c      	movs	r2, #28
    17aa:	005b      	lsls	r3, r3, #1
    17ac:	1c30      	adds	r0, r6, #0
    17ae:	52ea      	strh	r2, [r5, r3]
    17b0:	bd70      	pop	{r4, r5, r6, pc}
    17b2:	1c20      	adds	r0, r4, #0
    17b4:	f000 ffbf 	bl	2736 <__cxa_guard_acquire>
    17b8:	4e08      	ldr	r6, [pc, #32]	; (17dc <USBHID::reportDesc()+0x44>)
    17ba:	2800      	cmp	r0, #0
    17bc:	d0f3      	beq.n	17a6 <USBHID::reportDesc()+0xe>
    17be:	2366      	movs	r3, #102	; 0x66
    17c0:	33ff      	adds	r3, #255	; 0xff
    17c2:	5ceb      	ldrb	r3, [r5, r3]
    17c4:	1c20      	adds	r0, r4, #0
    17c6:	7433      	strb	r3, [r6, #16]
    17c8:	23b2      	movs	r3, #178	; 0xb2
    17ca:	005b      	lsls	r3, r3, #1
    17cc:	5ceb      	ldrb	r3, [r5, r3]
    17ce:	75b3      	strb	r3, [r6, #22]
    17d0:	f000 ffc0 	bl	2754 <__cxa_guard_release>
    17d4:	e7e7      	b.n	17a6 <USBHID::reportDesc()+0xe>
    17d6:	46c0      	nop			; (mov r8, r8)
    17d8:	1ffff910 	.word	0x1ffff910
    17dc:	1ffff134 	.word	0x1ffff134

000017e0 <USBHID::USBCallback_setConfiguration(unsigned char)>:
    17e0:	b510      	push	{r4, lr}
    17e2:	1c04      	adds	r4, r0, #0
    17e4:	2000      	movs	r0, #0
    17e6:	2901      	cmp	r1, #1
    17e8:	d000      	beq.n	17ec <USBHID::USBCallback_setConfiguration(unsigned char)+0xc>
    17ea:	bd10      	pop	{r4, pc}
    17ec:	2103      	movs	r1, #3
    17ee:	2240      	movs	r2, #64	; 0x40
    17f0:	1c20      	adds	r0, r4, #0
    17f2:	f7ff fa73 	bl	cdc <USBDevice::addEndpoint(unsigned char, unsigned long)>
    17f6:	2102      	movs	r1, #2
    17f8:	2240      	movs	r2, #64	; 0x40
    17fa:	1c20      	adds	r0, r4, #0
    17fc:	f7ff fa6e 	bl	cdc <USBDevice::addEndpoint(unsigned char, unsigned long)>
    1800:	1c20      	adds	r0, r4, #0
    1802:	2102      	movs	r1, #2
    1804:	2240      	movs	r2, #64	; 0x40
    1806:	f7ff fad1 	bl	dac <USBDevice::readStart(unsigned char, unsigned long)>
    180a:	2001      	movs	r0, #1
    180c:	e7ed      	b.n	17ea <USBHID::USBCallback_setConfiguration(unsigned char)+0xa>
    180e:	46c0      	nop			; (mov r8, r8)

00001810 <USBHID::configurationDesc()>:
    1810:	b5f8      	push	{r3, r4, r5, r6, r7, lr}
    1812:	4c0f      	ldr	r4, [pc, #60]	; (1850 <USBHID::configurationDesc()+0x40>)
    1814:	1c06      	adds	r6, r0, #0
    1816:	6822      	ldr	r2, [r4, #0]
    1818:	07d2      	lsls	r2, r2, #31
    181a:	d502      	bpl.n	1822 <USBHID::configurationDesc()+0x12>
    181c:	4d0d      	ldr	r5, [pc, #52]	; (1854 <USBHID::configurationDesc()+0x44>)
    181e:	1c28      	adds	r0, r5, #0
    1820:	bdf8      	pop	{r3, r4, r5, r6, r7, pc}
    1822:	1c20      	adds	r0, r4, #0
    1824:	f000 ff87 	bl	2736 <__cxa_guard_acquire>
    1828:	2800      	cmp	r0, #0
    182a:	d0f7      	beq.n	181c <USBHID::configurationDesc()+0xc>
    182c:	6832      	ldr	r2, [r6, #0]
    182e:	27c8      	movs	r7, #200	; 0xc8
    1830:	59d3      	ldr	r3, [r2, r7]
    1832:	1c30      	adds	r0, r6, #0
    1834:	4798      	blx	r3
    1836:	4d07      	ldr	r5, [pc, #28]	; (1854 <USBHID::configurationDesc()+0x44>)
    1838:	7668      	strb	r0, [r5, #25]
    183a:	6832      	ldr	r2, [r6, #0]
    183c:	1c30      	adds	r0, r6, #0
    183e:	59d3      	ldr	r3, [r2, r7]
    1840:	4798      	blx	r3
    1842:	0a00      	lsrs	r0, r0, #8
    1844:	76a8      	strb	r0, [r5, #26]
    1846:	1c20      	adds	r0, r4, #0
    1848:	f000 ff84 	bl	2754 <__cxa_guard_release>
    184c:	e7e7      	b.n	181e <USBHID::configurationDesc()+0xe>
    184e:	46c0      	nop			; (mov r8, r8)
    1850:	1ffff90c 	.word	0x1ffff90c
    1854:	1ffff150 	.word	0x1ffff150

00001858 <USBHID::USBHID(unsigned char, unsigned char, unsigned short, unsigned short, unsigned short, bool)>:
    1858:	b5f8      	push	{r3, r4, r5, r6, r7, lr}
    185a:	1c0f      	adds	r7, r1, #0
    185c:	1c19      	adds	r1, r3, #0
    185e:	ab06      	add	r3, sp, #24
    1860:	1c04      	adds	r4, r0, #0
    1862:	1c16      	adds	r6, r2, #0
    1864:	a808      	add	r0, sp, #32
    1866:	881a      	ldrh	r2, [r3, #0]
    1868:	ab07      	add	r3, sp, #28
    186a:	881b      	ldrh	r3, [r3, #0]
    186c:	7805      	ldrb	r5, [r0, #0]
    186e:	1c20      	adds	r0, r4, #0
    1870:	f7ff fa7c 	bl	d6c <USBDevice::USBDevice(unsigned short, unsigned short, unsigned short)>
    1874:	4b08      	ldr	r3, [pc, #32]	; (1898 <USBHID::USBHID(unsigned char, unsigned char, unsigned short, unsigned short, unsigned short, bool)+0x40>)
    1876:	3308      	adds	r3, #8
    1878:	6023      	str	r3, [r4, #0]
    187a:	23b2      	movs	r3, #178	; 0xb2
    187c:	005b      	lsls	r3, r3, #1
    187e:	54e7      	strb	r7, [r4, r3]
    1880:	2366      	movs	r3, #102	; 0x66
    1882:	33ff      	adds	r3, #255	; 0xff
    1884:	54e6      	strb	r6, [r4, r3]
    1886:	2d00      	cmp	r5, #0
    1888:	d003      	beq.n	1892 <USBHID::USBHID(unsigned char, unsigned char, unsigned short, unsigned short, unsigned short, bool)+0x3a>
    188a:	1c20      	adds	r0, r4, #0
    188c:	2101      	movs	r1, #1
    188e:	f7ff fa15 	bl	cbc <USBDevice::connect(bool)>
    1892:	1c20      	adds	r0, r4, #0
    1894:	bdf8      	pop	{r3, r4, r5, r6, r7, pc}
    1896:	46c0      	nop			; (mov r8, r8)
    1898:	00006c50 	.word	0x00006c50

0000189c <USBHID::send(HID_REPORT*)>:
    189c:	b500      	push	{lr}
    189e:	680b      	ldr	r3, [r1, #0]
    18a0:	b083      	sub	sp, #12
    18a2:	1d0a      	adds	r2, r1, #4
    18a4:	2140      	movs	r1, #64	; 0x40
    18a6:	9100      	str	r1, [sp, #0]
    18a8:	2103      	movs	r1, #3
    18aa:	f7ff fa87 	bl	dbc <USBDevice::write(unsigned char, unsigned char*, unsigned long, unsigned long)>
    18ae:	b003      	add	sp, #12
    18b0:	bd00      	pop	{pc}
    18b2:	46c0      	nop			; (mov r8, r8)

000018b4 <USBMouse::reportDesc()>:
    18b4:	23b3      	movs	r3, #179	; 0xb3
    18b6:	005b      	lsls	r3, r3, #1
    18b8:	5cc3      	ldrb	r3, [r0, r3]
    18ba:	2b01      	cmp	r3, #1
    18bc:	d007      	beq.n	18ce <USBMouse::reportDesc()+0x1a>
    18be:	2b00      	cmp	r3, #0
    18c0:	d10b      	bne.n	18da <USBMouse::reportDesc()+0x26>
    18c2:	238e      	movs	r3, #142	; 0x8e
    18c4:	2241      	movs	r2, #65	; 0x41
    18c6:	005b      	lsls	r3, r3, #1
    18c8:	52c2      	strh	r2, [r0, r3]
    18ca:	4805      	ldr	r0, [pc, #20]	; (18e0 <USBMouse::reportDesc()+0x2c>)
    18cc:	4770      	bx	lr
    18ce:	238e      	movs	r3, #142	; 0x8e
    18d0:	2234      	movs	r2, #52	; 0x34
    18d2:	005b      	lsls	r3, r3, #1
    18d4:	52c2      	strh	r2, [r0, r3]
    18d6:	4803      	ldr	r0, [pc, #12]	; (18e4 <USBMouse::reportDesc()+0x30>)
    18d8:	e7f8      	b.n	18cc <USBMouse::reportDesc()+0x18>
    18da:	2000      	movs	r0, #0
    18dc:	e7f6      	b.n	18cc <USBMouse::reportDesc()+0x18>
    18de:	46c0      	nop			; (mov r8, r8)
    18e0:	1ffff19c 	.word	0x1ffff19c
    18e4:	1ffff20c 	.word	0x1ffff20c

000018e8 <USBMouse::configurationDesc()>:
    18e8:	b5f8      	push	{r3, r4, r5, r6, r7, lr}
    18ea:	4c0f      	ldr	r4, [pc, #60]	; (1928 <USBMouse::configurationDesc()+0x40>)
    18ec:	1c06      	adds	r6, r0, #0
    18ee:	6822      	ldr	r2, [r4, #0]
    18f0:	07d2      	lsls	r2, r2, #31
    18f2:	d502      	bpl.n	18fa <USBMouse::configurationDesc()+0x12>
    18f4:	4d0d      	ldr	r5, [pc, #52]	; (192c <USBMouse::configurationDesc()+0x44>)
    18f6:	1c28      	adds	r0, r5, #0
    18f8:	bdf8      	pop	{r3, r4, r5, r6, r7, pc}
    18fa:	1c20      	adds	r0, r4, #0
    18fc:	f000 ff1b 	bl	2736 <__cxa_guard_acquire>
    1900:	2800      	cmp	r0, #0
    1902:	d0f7      	beq.n	18f4 <USBMouse::configurationDesc()+0xc>
    1904:	6832      	ldr	r2, [r6, #0]
    1906:	27c8      	movs	r7, #200	; 0xc8
    1908:	59d3      	ldr	r3, [r2, r7]
    190a:	1c30      	adds	r0, r6, #0
    190c:	4798      	blx	r3
    190e:	4d07      	ldr	r5, [pc, #28]	; (192c <USBMouse::configurationDesc()+0x44>)
    1910:	7668      	strb	r0, [r5, #25]
    1912:	6832      	ldr	r2, [r6, #0]
    1914:	1c30      	adds	r0, r6, #0
    1916:	59d3      	ldr	r3, [r2, r7]
    1918:	4798      	blx	r3
    191a:	0a00      	lsrs	r0, r0, #8
    191c:	76a8      	strb	r0, [r5, #26]
    191e:	1c20      	adds	r0, r4, #0
    1920:	f000 ff18 	bl	2754 <__cxa_guard_release>
    1924:	e7e7      	b.n	18f6 <USBMouse::configurationDesc()+0xe>
    1926:	46c0      	nop			; (mov r8, r8)
    1928:	1ffff914 	.word	0x1ffff914
    192c:	1ffff1e0 	.word	0x1ffff1e0

00001930 <USBMouse::update(short, short, unsigned char, signed char)>:
    1930:	b5f0      	push	{r4, r5, r6, r7, lr}
    1932:	464d      	mov	r5, r9
    1934:	465f      	mov	r7, r11
    1936:	4656      	mov	r6, r10
    1938:	4644      	mov	r4, r8
    193a:	b4f0      	push	{r4, r5, r6, r7}
    193c:	b093      	sub	sp, #76	; 0x4c
    193e:	4691      	mov	r9, r2
    1940:	2700      	movs	r7, #0
    1942:	aa1c      	add	r2, sp, #112	; 0x70
    1944:	57d7      	ldrsb	r7, [r2, r7]
    1946:	22b3      	movs	r2, #179	; 0xb3
    1948:	0052      	lsls	r2, r2, #1
    194a:	5c82      	ldrb	r2, [r0, r2]
    194c:	1c06      	adds	r6, r0, #0
    194e:	1c0d      	adds	r5, r1, #0
    1950:	2a00      	cmp	r2, #0
    1952:	d029      	beq.n	19a8 <USBMouse::update(short, short, unsigned char, signed char)+0x78>
    1954:	2a01      	cmp	r2, #1
    1956:	d11f      	bne.n	1998 <USBMouse::update(short, short, unsigned char, signed char)+0x68>
    1958:	2207      	movs	r2, #7
    195a:	401a      	ands	r2, r3
    195c:	427f      	negs	r7, r7
    195e:	4690      	mov	r8, r2
    1960:	b2ff      	uxtb	r7, r7
    1962:	ac01      	add	r4, sp, #4
    1964:	297f      	cmp	r1, #127	; 0x7f
    1966:	dd33      	ble.n	19d0 <USBMouse::update(short, short, unsigned char, signed char)+0xa0>
    1968:	207f      	movs	r0, #127	; 0x7f
    196a:	2200      	movs	r2, #0
    196c:	4683      	mov	r11, r0
    196e:	4692      	mov	r10, r2
    1970:	e003      	b.n	197a <USBMouse::update(short, short, unsigned char, signed char)+0x4a>
    1972:	3d7f      	subs	r5, #127	; 0x7f
    1974:	b22d      	sxth	r5, r5
    1976:	2d7f      	cmp	r5, #127	; 0x7f
    1978:	dd2a      	ble.n	19d0 <USBMouse::update(short, short, unsigned char, signed char)+0xa0>
    197a:	4643      	mov	r3, r8
    197c:	4658      	mov	r0, r11
    197e:	7123      	strb	r3, [r4, #4]
    1980:	7160      	strb	r0, [r4, #5]
    1982:	4652      	mov	r2, r10
    1984:	2304      	movs	r3, #4
    1986:	1c30      	adds	r0, r6, #0
    1988:	1c21      	adds	r1, r4, #0
    198a:	71a2      	strb	r2, [r4, #6]
    198c:	71e7      	strb	r7, [r4, #7]
    198e:	6023      	str	r3, [r4, #0]
    1990:	f7ff ff84 	bl	189c <USBHID::send(HID_REPORT*)>
    1994:	2800      	cmp	r0, #0
    1996:	d1ec      	bne.n	1972 <USBMouse::update(short, short, unsigned char, signed char)+0x42>
    1998:	2000      	movs	r0, #0
    199a:	b013      	add	sp, #76	; 0x4c
    199c:	bc3c      	pop	{r2, r3, r4, r5}
    199e:	4690      	mov	r8, r2
    19a0:	4699      	mov	r9, r3
    19a2:	46a2      	mov	r10, r4
    19a4:	46ab      	mov	r11, r5
    19a6:	bdf0      	pop	{r4, r5, r6, r7, pc}
    19a8:	a901      	add	r1, sp, #4
    19aa:	4648      	mov	r0, r9
    19ac:	7188      	strb	r0, [r1, #6]
    19ae:	4648      	mov	r0, r9
    19b0:	1202      	asrs	r2, r0, #8
    19b2:	71ca      	strb	r2, [r1, #7]
    19b4:	2207      	movs	r2, #7
    19b6:	4013      	ands	r3, r2
    19b8:	710d      	strb	r5, [r1, #4]
    19ba:	427f      	negs	r7, r7
    19bc:	122d      	asrs	r5, r5, #8
    19be:	724b      	strb	r3, [r1, #9]
    19c0:	1c30      	adds	r0, r6, #0
    19c2:	2306      	movs	r3, #6
    19c4:	714d      	strb	r5, [r1, #5]
    19c6:	720f      	strb	r7, [r1, #8]
    19c8:	9301      	str	r3, [sp, #4]
    19ca:	f7ff ff67 	bl	189c <USBHID::send(HID_REPORT*)>
    19ce:	e7e4      	b.n	199a <USBMouse::update(short, short, unsigned char, signed char)+0x6a>
    19d0:	1c28      	adds	r0, r5, #0
    19d2:	3080      	adds	r0, #128	; 0x80
    19d4:	da19      	bge.n	1a0a <USBMouse::update(short, short, unsigned char, signed char)+0xda>
    19d6:	2280      	movs	r2, #128	; 0x80
    19d8:	2300      	movs	r3, #0
    19da:	4693      	mov	r11, r2
    19dc:	469a      	mov	r10, r3
    19de:	e004      	b.n	19ea <USBMouse::update(short, short, unsigned char, signed char)+0xba>
    19e0:	3580      	adds	r5, #128	; 0x80
    19e2:	b22d      	sxth	r5, r5
    19e4:	1c2a      	adds	r2, r5, #0
    19e6:	3280      	adds	r2, #128	; 0x80
    19e8:	da0f      	bge.n	1a0a <USBMouse::update(short, short, unsigned char, signed char)+0xda>
    19ea:	4640      	mov	r0, r8
    19ec:	7120      	strb	r0, [r4, #4]
    19ee:	2004      	movs	r0, #4
    19f0:	465a      	mov	r2, r11
    19f2:	4653      	mov	r3, r10
    19f4:	6020      	str	r0, [r4, #0]
    19f6:	1c21      	adds	r1, r4, #0
    19f8:	1c30      	adds	r0, r6, #0
    19fa:	7162      	strb	r2, [r4, #5]
    19fc:	71a3      	strb	r3, [r4, #6]
    19fe:	71e7      	strb	r7, [r4, #7]
    1a00:	f7ff ff4c 	bl	189c <USBHID::send(HID_REPORT*)>
    1a04:	2800      	cmp	r0, #0
    1a06:	d1eb      	bne.n	19e0 <USBMouse::update(short, short, unsigned char, signed char)+0xb0>
    1a08:	e7c6      	b.n	1998 <USBMouse::update(short, short, unsigned char, signed char)+0x68>
    1a0a:	464b      	mov	r3, r9
    1a0c:	2b7f      	cmp	r3, #127	; 0x7f
    1a0e:	dd1a      	ble.n	1a46 <USBMouse::update(short, short, unsigned char, signed char)+0x116>
    1a10:	2000      	movs	r0, #0
    1a12:	227f      	movs	r2, #127	; 0x7f
    1a14:	4683      	mov	r11, r0
    1a16:	4692      	mov	r10, r2
    1a18:	e005      	b.n	1a26 <USBMouse::update(short, short, unsigned char, signed char)+0xf6>
    1a1a:	464b      	mov	r3, r9
    1a1c:	3b7f      	subs	r3, #127	; 0x7f
    1a1e:	b218      	sxth	r0, r3
    1a20:	4681      	mov	r9, r0
    1a22:	287f      	cmp	r0, #127	; 0x7f
    1a24:	dd0f      	ble.n	1a46 <USBMouse::update(short, short, unsigned char, signed char)+0x116>
    1a26:	4643      	mov	r3, r8
    1a28:	4658      	mov	r0, r11
    1a2a:	7123      	strb	r3, [r4, #4]
    1a2c:	7160      	strb	r0, [r4, #5]
    1a2e:	4652      	mov	r2, r10
    1a30:	2304      	movs	r3, #4
    1a32:	1c30      	adds	r0, r6, #0
    1a34:	1c21      	adds	r1, r4, #0
    1a36:	71a2      	strb	r2, [r4, #6]
    1a38:	71e7      	strb	r7, [r4, #7]
    1a3a:	6023      	str	r3, [r4, #0]
    1a3c:	f7ff ff2e 	bl	189c <USBHID::send(HID_REPORT*)>
    1a40:	2800      	cmp	r0, #0
    1a42:	d1ea      	bne.n	1a1a <USBMouse::update(short, short, unsigned char, signed char)+0xea>
    1a44:	e7a8      	b.n	1998 <USBMouse::update(short, short, unsigned char, signed char)+0x68>
    1a46:	464a      	mov	r2, r9
    1a48:	3280      	adds	r2, #128	; 0x80
    1a4a:	da1a      	bge.n	1a82 <USBMouse::update(short, short, unsigned char, signed char)+0x152>
    1a4c:	2300      	movs	r3, #0
    1a4e:	2080      	movs	r0, #128	; 0x80
    1a50:	469b      	mov	r11, r3
    1a52:	4682      	mov	r10, r0
    1a54:	e005      	b.n	1a62 <USBMouse::update(short, short, unsigned char, signed char)+0x132>
    1a56:	464b      	mov	r3, r9
    1a58:	3380      	adds	r3, #128	; 0x80
    1a5a:	b218      	sxth	r0, r3
    1a5c:	4681      	mov	r9, r0
    1a5e:	3080      	adds	r0, #128	; 0x80
    1a60:	da0f      	bge.n	1a82 <USBMouse::update(short, short, unsigned char, signed char)+0x152>
    1a62:	4642      	mov	r2, r8
    1a64:	4650      	mov	r0, r10
    1a66:	7122      	strb	r2, [r4, #4]
    1a68:	465b      	mov	r3, r11
    1a6a:	71a0      	strb	r0, [r4, #6]
    1a6c:	2204      	movs	r2, #4
    1a6e:	1c30      	adds	r0, r6, #0
    1a70:	1c21      	adds	r1, r4, #0
    1a72:	7163      	strb	r3, [r4, #5]
    1a74:	71e7      	strb	r7, [r4, #7]
    1a76:	6022      	str	r2, [r4, #0]
    1a78:	f7ff ff10 	bl	189c <USBHID::send(HID_REPORT*)>
    1a7c:	2800      	cmp	r0, #0
    1a7e:	d1ea      	bne.n	1a56 <USBMouse::update(short, short, unsigned char, signed char)+0x126>
    1a80:	e78a      	b.n	1998 <USBMouse::update(short, short, unsigned char, signed char)+0x68>
    1a82:	464b      	mov	r3, r9
    1a84:	4642      	mov	r2, r8
    1a86:	71a3      	strb	r3, [r4, #6]
    1a88:	1c30      	adds	r0, r6, #0
    1a8a:	2304      	movs	r3, #4
    1a8c:	1c21      	adds	r1, r4, #0
    1a8e:	7122      	strb	r2, [r4, #4]
    1a90:	7165      	strb	r5, [r4, #5]
    1a92:	71e7      	strb	r7, [r4, #7]
    1a94:	9301      	str	r3, [sp, #4]
    1a96:	f7ff ff01 	bl	189c <USBHID::send(HID_REPORT*)>
    1a9a:	e77e      	b.n	199a <USBMouse::update(short, short, unsigned char, signed char)+0x6a>

00001a9c <USBMouse::move(short, short)>:
    1a9c:	b510      	push	{r4, lr}
    1a9e:	2368      	movs	r3, #104	; 0x68
    1aa0:	b082      	sub	sp, #8
    1aa2:	2400      	movs	r4, #0
    1aa4:	33ff      	adds	r3, #255	; 0xff
    1aa6:	5cc3      	ldrb	r3, [r0, r3]
    1aa8:	9400      	str	r4, [sp, #0]
    1aaa:	f7ff ff41 	bl	1930 <USBMouse::update(short, short, unsigned char, signed char)>
    1aae:	b002      	add	sp, #8
    1ab0:	bd10      	pop	{r4, pc}
    1ab2:	46c0      	nop			; (mov r8, r8)

00001ab4 <NVIC_SetVector>:
    1ab4:	4b0a      	ldr	r3, [pc, #40]	; (1ae0 <NVIC_SetVector+0x2c>)
    1ab6:	b530      	push	{r4, r5, lr}
    1ab8:	689c      	ldr	r4, [r3, #8]
    1aba:	689b      	ldr	r3, [r3, #8]
    1abc:	1c22      	adds	r2, r4, #0
    1abe:	2b00      	cmp	r3, #0
    1ac0:	d109      	bne.n	1ad6 <NVIC_SetVector+0x22>
    1ac2:	4d08      	ldr	r5, [pc, #32]	; (1ae4 <NVIC_SetVector+0x30>)
    1ac4:	195a      	adds	r2, r3, r5
    1ac6:	591d      	ldr	r5, [r3, r4]
    1ac8:	3304      	adds	r3, #4
    1aca:	6015      	str	r5, [r2, #0]
    1acc:	2bc0      	cmp	r3, #192	; 0xc0
    1ace:	d1f8      	bne.n	1ac2 <NVIC_SetVector+0xe>
    1ad0:	4a04      	ldr	r2, [pc, #16]	; (1ae4 <NVIC_SetVector+0x30>)
    1ad2:	4b03      	ldr	r3, [pc, #12]	; (1ae0 <NVIC_SetVector+0x2c>)
    1ad4:	609a      	str	r2, [r3, #8]
    1ad6:	3010      	adds	r0, #16
    1ad8:	0080      	lsls	r0, r0, #2
    1ada:	5081      	str	r1, [r0, r2]
    1adc:	bd30      	pop	{r4, r5, pc}
    1ade:	46c0      	nop			; (mov r8, r8)
    1ae0:	e000ed00 	.word	0xe000ed00
    1ae4:	1ffff000 	.word	0x1ffff000

00001ae8 <exit>:
    1ae8:	b538      	push	{r3, r4, r5, lr}
    1aea:	4c0b      	ldr	r4, [pc, #44]	; (1b18 <exit+0x30>)
    1aec:	1c05      	adds	r5, r0, #0
    1aee:	6823      	ldr	r3, [r4, #0]
    1af0:	6898      	ldr	r0, [r3, #8]
    1af2:	f001 fedd 	bl	38b0 <fflush>
    1af6:	6823      	ldr	r3, [r4, #0]
    1af8:	68d8      	ldr	r0, [r3, #12]
    1afa:	f001 fed9 	bl	38b0 <fflush>
    1afe:	f000 f80d 	bl	1b1c <mbed_interface_connected>
    1b02:	2800      	cmp	r0, #0
    1b04:	d105      	bne.n	1b12 <exit+0x2a>
    1b06:	2d00      	cmp	r5, #0
    1b08:	d100      	bne.n	1b0c <exit+0x24>
    1b0a:	e7fe      	b.n	1b0a <exit+0x22>
    1b0c:	f000 fcf2 	bl	24f4 <mbed_die>
    1b10:	e7fb      	b.n	1b0a <exit+0x22>
    1b12:	f000 f807 	bl	1b24 <semihost_exit>
    1b16:	e7f6      	b.n	1b06 <exit+0x1e>
    1b18:	1ffff2ac 	.word	0x1ffff2ac

00001b1c <mbed_interface_connected>:
    1b1c:	b508      	push	{r3, lr}
    1b1e:	f000 f80d 	bl	1b3c <semihost_connected>
    1b22:	bd08      	pop	{r3, pc}

00001b24 <semihost_exit>:
    1b24:	b530      	push	{r4, r5, lr}
    1b26:	b085      	sub	sp, #20
    1b28:	466d      	mov	r5, sp
    1b2a:	2418      	movs	r4, #24
    1b2c:	1c20      	adds	r0, r4, #0
    1b2e:	1c29      	adds	r1, r5, #0
    1b30:	beab      	bkpt	0x00ab
    1b32:	1c04      	adds	r4, r0, #0
    1b34:	1c20      	adds	r0, r4, #0
    1b36:	b005      	add	sp, #20
    1b38:	bd30      	pop	{r4, r5, pc}
    1b3a:	46c0      	nop			; (mov r8, r8)

00001b3c <semihost_connected>:
    1b3c:	4b01      	ldr	r3, [pc, #4]	; (1b44 <semihost_connected+0x8>)
    1b3e:	6818      	ldr	r0, [r3, #0]
    1b40:	4770      	bx	lr
    1b42:	46c0      	nop			; (mov r8, r8)
    1b44:	1ffff240 	.word	0x1ffff240

00001b48 <wait_us>:
    1b48:	b538      	push	{r3, r4, r5, lr}
    1b4a:	1c05      	adds	r5, r0, #0
    1b4c:	f000 fa24 	bl	1f98 <us_ticker_read>
    1b50:	1c04      	adds	r4, r0, #0
    1b52:	f000 fa21 	bl	1f98 <us_ticker_read>
    1b56:	1b03      	subs	r3, r0, r4
    1b58:	42ab      	cmp	r3, r5
    1b5a:	d3fa      	bcc.n	1b52 <wait_us+0xa>
    1b5c:	bd38      	pop	{r3, r4, r5, pc}
    1b5e:	46c0      	nop			; (mov r8, r8)

00001b60 <wait>:
    1b60:	b508      	push	{r3, lr}
    1b62:	4904      	ldr	r1, [pc, #16]	; (1b74 <wait+0x14>)
    1b64:	f000 fe4a 	bl	27fc <__aeabi_fmul>
    1b68:	f000 ff72 	bl	2a50 <__aeabi_f2iz>
    1b6c:	f7ff ffec 	bl	1b48 <wait_us>
    1b70:	bd08      	pop	{r3, pc}
    1b72:	46c0      	nop			; (mov r8, r8)
    1b74:	49742400 	.word	0x49742400

00001b78 <wait_ms>:
    1b78:	b508      	push	{r3, lr}
    1b7a:	23fa      	movs	r3, #250	; 0xfa
    1b7c:	009b      	lsls	r3, r3, #2
    1b7e:	4358      	muls	r0, r3
    1b80:	f7ff ffe2 	bl	1b48 <wait_us>
    1b84:	bd08      	pop	{r3, pc}
    1b86:	46c0      	nop			; (mov r8, r8)

00001b88 <init_serial() [clone .part.0]>:
    1b88:	b508      	push	{r3, lr}
    1b8a:	4803      	ldr	r0, [pc, #12]	; (1b98 <init_serial() [clone .part.0]+0x10>)
    1b8c:	2108      	movs	r1, #8
    1b8e:	2204      	movs	r2, #4
    1b90:	f000 fb68 	bl	2264 <serial_init>
    1b94:	bd08      	pop	{r3, pc}
    1b96:	46c0      	nop			; (mov r8, r8)
    1b98:	1ffffa38 	.word	0x1ffffa38

00001b9c <_close>:
    1b9c:	b508      	push	{r3, lr}
    1b9e:	2300      	movs	r3, #0
    1ba0:	2802      	cmp	r0, #2
    1ba2:	dd0a      	ble.n	1bba <_close+0x1e>
    1ba4:	3803      	subs	r0, #3
    1ba6:	4a07      	ldr	r2, [pc, #28]	; (1bc4 <_close+0x28>)
    1ba8:	0081      	lsls	r1, r0, #2
    1baa:	5888      	ldr	r0, [r1, r2]
    1bac:	508b      	str	r3, [r1, r2]
    1bae:	2800      	cmp	r0, #0
    1bb0:	d005      	beq.n	1bbe <_close+0x22>
    1bb2:	6803      	ldr	r3, [r0, #0]
    1bb4:	685b      	ldr	r3, [r3, #4]
    1bb6:	4798      	blx	r3
    1bb8:	1c03      	adds	r3, r0, #0
    1bba:	1c18      	adds	r0, r3, #0
    1bbc:	bd08      	pop	{r3, pc}
    1bbe:	2301      	movs	r3, #1
    1bc0:	425b      	negs	r3, r3
    1bc2:	e7fa      	b.n	1bba <_close+0x1e>
    1bc4:	1ffff918 	.word	0x1ffff918

00001bc8 <_write>:
    1bc8:	b5f8      	push	{r3, r4, r5, r6, r7, lr}
    1bca:	1c0c      	adds	r4, r1, #0
    1bcc:	1c17      	adds	r7, r2, #0
    1bce:	2802      	cmp	r0, #2
    1bd0:	dc12      	bgt.n	1bf8 <_write+0x30>
    1bd2:	4b10      	ldr	r3, [pc, #64]	; (1c14 <_write+0x4c>)
    1bd4:	681b      	ldr	r3, [r3, #0]
    1bd6:	2b00      	cmp	r3, #0
    1bd8:	d101      	bne.n	1bde <_write+0x16>
    1bda:	f7ff ffd5 	bl	1b88 <init_serial() [clone .part.0]>
    1bde:	2f00      	cmp	r7, #0
    1be0:	d008      	beq.n	1bf4 <_write+0x2c>
    1be2:	4d0d      	ldr	r5, [pc, #52]	; (1c18 <_write+0x50>)
    1be4:	19e6      	adds	r6, r4, r7
    1be6:	7821      	ldrb	r1, [r4, #0]
    1be8:	1c28      	adds	r0, r5, #0
    1bea:	3401      	adds	r4, #1
    1bec:	f000 fc18 	bl	2420 <serial_putc>
    1bf0:	42b4      	cmp	r4, r6
    1bf2:	d1f8      	bne.n	1be6 <_write+0x1e>
    1bf4:	1c38      	adds	r0, r7, #0
    1bf6:	bdf8      	pop	{r3, r4, r5, r6, r7, pc}
    1bf8:	3803      	subs	r0, #3
    1bfa:	4b08      	ldr	r3, [pc, #32]	; (1c1c <_write+0x54>)
    1bfc:	0080      	lsls	r0, r0, #2
    1bfe:	58c0      	ldr	r0, [r0, r3]
    1c00:	2800      	cmp	r0, #0
    1c02:	d003      	beq.n	1c0c <_write+0x44>
    1c04:	6803      	ldr	r3, [r0, #0]
    1c06:	681b      	ldr	r3, [r3, #0]
    1c08:	4798      	blx	r3
    1c0a:	e7f4      	b.n	1bf6 <_write+0x2e>
    1c0c:	2001      	movs	r0, #1
    1c0e:	4240      	negs	r0, r0
    1c10:	e7f1      	b.n	1bf6 <_write+0x2e>
    1c12:	46c0      	nop			; (mov r8, r8)
    1c14:	1ffffa24 	.word	0x1ffffa24
    1c18:	1ffffa38 	.word	0x1ffffa38
    1c1c:	1ffff918 	.word	0x1ffff918

00001c20 <_read>:
    1c20:	b510      	push	{r4, lr}
    1c22:	1c0c      	adds	r4, r1, #0
    1c24:	2802      	cmp	r0, #2
    1c26:	dc09      	bgt.n	1c3c <_read+0x1c>
    1c28:	4b0c      	ldr	r3, [pc, #48]	; (1c5c <_read+0x3c>)
    1c2a:	681b      	ldr	r3, [r3, #0]
    1c2c:	2b00      	cmp	r3, #0
    1c2e:	d00f      	beq.n	1c50 <_read+0x30>
    1c30:	480b      	ldr	r0, [pc, #44]	; (1c60 <_read+0x40>)
    1c32:	f000 fbe1 	bl	23f8 <serial_getc>
    1c36:	7020      	strb	r0, [r4, #0]
    1c38:	2001      	movs	r0, #1
    1c3a:	bd10      	pop	{r4, pc}
    1c3c:	3803      	subs	r0, #3
    1c3e:	4b09      	ldr	r3, [pc, #36]	; (1c64 <_read+0x44>)
    1c40:	0080      	lsls	r0, r0, #2
    1c42:	58c0      	ldr	r0, [r0, r3]
    1c44:	2800      	cmp	r0, #0
    1c46:	d006      	beq.n	1c56 <_read+0x36>
    1c48:	6803      	ldr	r3, [r0, #0]
    1c4a:	689b      	ldr	r3, [r3, #8]
    1c4c:	4798      	blx	r3
    1c4e:	e7f4      	b.n	1c3a <_read+0x1a>
    1c50:	f7ff ff9a 	bl	1b88 <init_serial() [clone .part.0]>
    1c54:	e7ec      	b.n	1c30 <_read+0x10>
    1c56:	2001      	movs	r0, #1
    1c58:	4240      	negs	r0, r0
    1c5a:	e7ee      	b.n	1c3a <_read+0x1a>
    1c5c:	1ffffa24 	.word	0x1ffffa24
    1c60:	1ffffa38 	.word	0x1ffffa38
    1c64:	1ffff918 	.word	0x1ffff918

00001c68 <_isatty>:
    1c68:	b508      	push	{r3, lr}
    1c6a:	1c03      	adds	r3, r0, #0
    1c6c:	2001      	movs	r0, #1
    1c6e:	2b02      	cmp	r3, #2
    1c70:	dd08      	ble.n	1c84 <_isatty+0x1c>
    1c72:	3b03      	subs	r3, #3
    1c74:	4a05      	ldr	r2, [pc, #20]	; (1c8c <_isatty+0x24>)
    1c76:	009b      	lsls	r3, r3, #2
    1c78:	5898      	ldr	r0, [r3, r2]
    1c7a:	2800      	cmp	r0, #0
    1c7c:	d003      	beq.n	1c86 <_isatty+0x1e>
    1c7e:	6803      	ldr	r3, [r0, #0]
    1c80:	68db      	ldr	r3, [r3, #12]
    1c82:	4798      	blx	r3
    1c84:	bd08      	pop	{r3, pc}
    1c86:	2001      	movs	r0, #1
    1c88:	4240      	negs	r0, r0
    1c8a:	e7fb      	b.n	1c84 <_isatty+0x1c>
    1c8c:	1ffff918 	.word	0x1ffff918

00001c90 <_lseek>:
    1c90:	b508      	push	{r3, lr}
    1c92:	1c03      	adds	r3, r0, #0
    1c94:	2000      	movs	r0, #0
    1c96:	2b02      	cmp	r3, #2
    1c98:	dd08      	ble.n	1cac <_lseek+0x1c>
    1c9a:	3b03      	subs	r3, #3
    1c9c:	4805      	ldr	r0, [pc, #20]	; (1cb4 <_lseek+0x24>)
    1c9e:	009b      	lsls	r3, r3, #2
    1ca0:	5818      	ldr	r0, [r3, r0]
    1ca2:	2800      	cmp	r0, #0
    1ca4:	d003      	beq.n	1cae <_lseek+0x1e>
    1ca6:	6803      	ldr	r3, [r0, #0]
    1ca8:	691b      	ldr	r3, [r3, #16]
    1caa:	4798      	blx	r3
    1cac:	bd08      	pop	{r3, pc}
    1cae:	2001      	movs	r0, #1
    1cb0:	4240      	negs	r0, r0
    1cb2:	e7fb      	b.n	1cac <_lseek+0x1c>
    1cb4:	1ffff918 	.word	0x1ffff918

00001cb8 <_fstat>:
    1cb8:	b508      	push	{r3, lr}
    1cba:	2802      	cmp	r0, #2
    1cbc:	d804      	bhi.n	1cc8 <_fstat+0x10>
    1cbe:	2380      	movs	r3, #128	; 0x80
    1cc0:	019b      	lsls	r3, r3, #6
    1cc2:	604b      	str	r3, [r1, #4]
    1cc4:	2000      	movs	r0, #0
    1cc6:	bd08      	pop	{r3, pc}
    1cc8:	f001 fd36 	bl	3738 <__errno>
    1ccc:	2309      	movs	r3, #9
    1cce:	6003      	str	r3, [r0, #0]
    1cd0:	2001      	movs	r0, #1
    1cd2:	4240      	negs	r0, r0
    1cd4:	e7f7      	b.n	1cc6 <_fstat+0xe>
    1cd6:	46c0      	nop			; (mov r8, r8)

00001cd8 <_sbrk>:
    1cd8:	4a07      	ldr	r2, [pc, #28]	; (1cf8 <_sbrk+0x20>)
    1cda:	6813      	ldr	r3, [r2, #0]
    1cdc:	1818      	adds	r0, r3, r0
    1cde:	f3ef 8108 	mrs	r1, MSP
    1ce2:	4288      	cmp	r0, r1
    1ce4:	d202      	bcs.n	1cec <_sbrk+0x14>
    1ce6:	6010      	str	r0, [r2, #0]
    1ce8:	1c18      	adds	r0, r3, #0
    1cea:	4770      	bx	lr
    1cec:	4b03      	ldr	r3, [pc, #12]	; (1cfc <_sbrk+0x24>)
    1cee:	220c      	movs	r2, #12
    1cf0:	2001      	movs	r0, #1
    1cf2:	601a      	str	r2, [r3, #0]
    1cf4:	4240      	negs	r0, r0
    1cf6:	e7f8      	b.n	1cea <_sbrk+0x12>
    1cf8:	1ffff244 	.word	0x1ffff244
    1cfc:	1ffffa40 	.word	0x1ffffa40

00001d00 <NMI_Handler>:
    1d00:	e7fe      	b.n	1d00 <NMI_Handler>

00001d02 <HardFault_Handler>:
    1d02:	e7fe      	b.n	1d02 <HardFault_Handler>

00001d04 <SVC_Handler>:
    1d04:	e7fe      	b.n	1d04 <SVC_Handler>

00001d06 <PendSV_Handler>:
    1d06:	e7fe      	b.n	1d06 <PendSV_Handler>

00001d08 <SysTick_Handler>:
    1d08:	e7fe      	b.n	1d08 <SysTick_Handler>

00001d0a <ADC0_IRQHandler>:
    1d0a:	e7fe      	b.n	1d0a <ADC0_IRQHandler>

00001d0c <lptmr_isr>:
    1d0c:	4b15      	ldr	r3, [pc, #84]	; (1d64 <lptmr_isr+0x58>)
    1d0e:	2280      	movs	r2, #128	; 0x80
    1d10:	6819      	ldr	r1, [r3, #0]
    1d12:	b510      	push	{r4, lr}
    1d14:	430a      	orrs	r2, r1
    1d16:	4914      	ldr	r1, [pc, #80]	; (1d68 <lptmr_isr+0x5c>)
    1d18:	601a      	str	r2, [r3, #0]
    1d1a:	680a      	ldr	r2, [r1, #0]
    1d1c:	2a00      	cmp	r2, #0
    1d1e:	d112      	bne.n	1d46 <lptmr_isr+0x3a>
    1d20:	4912      	ldr	r1, [pc, #72]	; (1d6c <lptmr_isr+0x60>)
    1d22:	8808      	ldrh	r0, [r1, #0]
    1d24:	2800      	cmp	r0, #0
    1d26:	d00b      	beq.n	1d40 <lptmr_isr+0x34>
    1d28:	601a      	str	r2, [r3, #0]
    1d2a:	6098      	str	r0, [r3, #8]
    1d2c:	681c      	ldr	r4, [r3, #0]
    1d2e:	2040      	movs	r0, #64	; 0x40
    1d30:	4320      	orrs	r0, r4
    1d32:	6018      	str	r0, [r3, #0]
    1d34:	681c      	ldr	r4, [r3, #0]
    1d36:	2001      	movs	r0, #1
    1d38:	4320      	orrs	r0, r4
    1d3a:	6018      	str	r0, [r3, #0]
    1d3c:	800a      	strh	r2, [r1, #0]
    1d3e:	bd10      	pop	{r4, pc}
    1d40:	f000 fc5a 	bl	25f8 <us_ticker_irq_handler>
    1d44:	e7fb      	b.n	1d3e <lptmr_isr+0x32>
    1d46:	2000      	movs	r0, #0
    1d48:	6018      	str	r0, [r3, #0]
    1d4a:	4809      	ldr	r0, [pc, #36]	; (1d70 <lptmr_isr+0x64>)
    1d4c:	3a01      	subs	r2, #1
    1d4e:	6098      	str	r0, [r3, #8]
    1d50:	681c      	ldr	r4, [r3, #0]
    1d52:	2040      	movs	r0, #64	; 0x40
    1d54:	4320      	orrs	r0, r4
    1d56:	6018      	str	r0, [r3, #0]
    1d58:	681c      	ldr	r4, [r3, #0]
    1d5a:	2001      	movs	r0, #1
    1d5c:	4320      	orrs	r0, r4
    1d5e:	6018      	str	r0, [r3, #0]
    1d60:	600a      	str	r2, [r1, #0]
    1d62:	e7ec      	b.n	1d3e <lptmr_isr+0x32>
    1d64:	40040000 	.word	0x40040000
    1d68:	1ffffa18 	.word	0x1ffffa18
    1d6c:	1ffffa20 	.word	0x1ffffa20
    1d70:	0000ffff 	.word	0x0000ffff

00001d74 <us_ticker_init>:
    1d74:	b5f8      	push	{r3, r4, r5, r6, r7, lr}
    1d76:	4b79      	ldr	r3, [pc, #484]	; (1f5c <us_ticker_init+0x1e8>)
    1d78:	464f      	mov	r7, r9
    1d7a:	681d      	ldr	r5, [r3, #0]
    1d7c:	4646      	mov	r6, r8
    1d7e:	b4c0      	push	{r6, r7}
    1d80:	2d00      	cmp	r5, #0
    1d82:	d003      	beq.n	1d8c <us_ticker_init+0x18>
    1d84:	bc0c      	pop	{r2, r3}
    1d86:	4690      	mov	r8, r2
    1d88:	4699      	mov	r9, r3
    1d8a:	bdf8      	pop	{r3, r4, r5, r6, r7, pc}
    1d8c:	2701      	movs	r7, #1
    1d8e:	601f      	str	r7, [r3, #0]
    1d90:	4e73      	ldr	r6, [pc, #460]	; (1f60 <us_ticker_init+0x1ec>)
    1d92:	4b74      	ldr	r3, [pc, #464]	; (1f64 <us_ticker_init+0x1f0>)
    1d94:	2280      	movs	r2, #128	; 0x80
    1d96:	58f1      	ldr	r1, [r6, r3]
    1d98:	0412      	lsls	r2, r2, #16
    1d9a:	430a      	orrs	r2, r1
    1d9c:	50f2      	str	r2, [r6, r3]
    1d9e:	4c72      	ldr	r4, [pc, #456]	; (1f68 <us_ticker_init+0x1f4>)
    1da0:	2201      	movs	r2, #1
    1da2:	2388      	movs	r3, #136	; 0x88
    1da4:	4252      	negs	r2, r2
    1da6:	005b      	lsls	r3, r3, #1
    1da8:	6025      	str	r5, [r4, #0]
    1daa:	50e2      	str	r2, [r4, r3]
    1dac:	238c      	movs	r3, #140	; 0x8c
    1dae:	005b      	lsls	r3, r3, #1
    1db0:	2204      	movs	r2, #4
    1db2:	50e2      	str	r2, [r4, r3]
    1db4:	58e2      	ldr	r2, [r4, r3]
    1db6:	496d      	ldr	r1, [pc, #436]	; (1f6c <us_ticker_init+0x1f8>)
    1db8:	433a      	orrs	r2, r7
    1dba:	50e2      	str	r2, [r4, r3]
    1dbc:	4689      	mov	r9, r1
    1dbe:	5871      	ldr	r1, [r6, r1]
    1dc0:	4b6b      	ldr	r3, [pc, #428]	; (1f70 <us_ticker_init+0x1fc>)
    1dc2:	0349      	lsls	r1, r1, #13
    1dc4:	0f49      	lsrs	r1, r1, #29
    1dc6:	6818      	ldr	r0, [r3, #0]
    1dc8:	3101      	adds	r1, #1
    1dca:	4698      	mov	r8, r3
    1dcc:	f000 fcc6 	bl	275c <__aeabi_uidiv>
    1dd0:	4b68      	ldr	r3, [pc, #416]	; (1f74 <us_ticker_init+0x200>)
    1dd2:	4969      	ldr	r1, [pc, #420]	; (1f78 <us_ticker_init+0x204>)
    1dd4:	18c0      	adds	r0, r0, r3
    1dd6:	f000 fcc1 	bl	275c <__aeabi_uidiv>
    1dda:	2380      	movs	r3, #128	; 0x80
    1ddc:	3801      	subs	r0, #1
    1dde:	005b      	lsls	r3, r3, #1
    1de0:	50e0      	str	r0, [r4, r3]
    1de2:	2384      	movs	r3, #132	; 0x84
    1de4:	005b      	lsls	r3, r3, #1
    1de6:	50e7      	str	r7, [r4, r3]
    1de8:	4b64      	ldr	r3, [pc, #400]	; (1f7c <us_ticker_init+0x208>)
    1dea:	201c      	movs	r0, #28
    1dec:	58f2      	ldr	r2, [r6, r3]
    1dee:	4964      	ldr	r1, [pc, #400]	; (1f80 <us_ticker_init+0x20c>)
    1df0:	433a      	orrs	r2, r7
    1df2:	50f2      	str	r2, [r6, r3]
    1df4:	4b63      	ldr	r3, [pc, #396]	; (1f84 <us_ticker_init+0x210>)
    1df6:	601d      	str	r5, [r3, #0]
    1df8:	f7ff fe5c 	bl	1ab4 <NVIC_SetVector>
    1dfc:	4b62      	ldr	r3, [pc, #392]	; (1f88 <us_ticker_init+0x214>)
    1dfe:	2280      	movs	r2, #128	; 0x80
    1e00:	0552      	lsls	r2, r2, #21
    1e02:	601a      	str	r2, [r3, #0]
    1e04:	4649      	mov	r1, r9
    1e06:	5873      	ldr	r3, [r6, r1]
    1e08:	4642      	mov	r2, r8
    1e0a:	6810      	ldr	r0, [r2, #0]
    1e0c:	0f1b      	lsrs	r3, r3, #28
    1e0e:	3301      	adds	r3, #1
    1e10:	4358      	muls	r0, r3
    1e12:	4b5e      	ldr	r3, [pc, #376]	; (1f8c <us_ticker_init+0x218>)
    1e14:	223f      	movs	r2, #63	; 0x3f
    1e16:	7819      	ldrb	r1, [r3, #0]
    1e18:	4391      	bics	r1, r2
    1e1a:	2980      	cmp	r1, #128	; 0x80
    1e1c:	d07a      	beq.n	1f14 <us_ticker_init+0x1a0>
    1e1e:	7819      	ldrb	r1, [r3, #0]
    1e20:	4391      	bics	r1, r2
    1e22:	d120      	bne.n	1e66 <us_ticker_init+0xf2>
    1e24:	795a      	ldrb	r2, [r3, #5]
    1e26:	0651      	lsls	r1, r2, #25
    1e28:	d443      	bmi.n	1eb2 <us_ticker_init+0x13e>
    1e2a:	799a      	ldrb	r2, [r3, #6]
    1e2c:	06d1      	lsls	r1, r2, #27
    1e2e:	d41a      	bmi.n	1e66 <us_ticker_init+0xf2>
    1e30:	781a      	ldrb	r2, [r3, #0]
    1e32:	785b      	ldrb	r3, [r3, #1]
    1e34:	0692      	lsls	r2, r2, #26
    1e36:	0f52      	lsrs	r2, r2, #29
    1e38:	4097      	lsls	r7, r2
    1e3a:	2230      	movs	r2, #48	; 0x30
    1e3c:	421a      	tst	r2, r3
    1e3e:	d16b      	bne.n	1f18 <us_ticker_init+0x1a4>
    1e40:	4b52      	ldr	r3, [pc, #328]	; (1f8c <us_ticker_init+0x218>)
    1e42:	78da      	ldrb	r2, [r3, #3]
    1e44:	231f      	movs	r3, #31
    1e46:	439a      	bics	r2, r3
    1e48:	2a60      	cmp	r2, #96	; 0x60
    1e4a:	d07c      	beq.n	1f46 <us_ticker_init+0x1d2>
    1e4c:	d966      	bls.n	1f1c <us_ticker_init+0x1a8>
    1e4e:	2aa0      	cmp	r2, #160	; 0xa0
    1e50:	d076      	beq.n	1f40 <us_ticker_init+0x1cc>
    1e52:	2ac0      	cmp	r2, #192	; 0xc0
    1e54:	d072      	beq.n	1f3c <us_ticker_init+0x1c8>
    1e56:	2a80      	cmp	r2, #128	; 0x80
    1e58:	d069      	beq.n	1f2e <us_ticker_init+0x1ba>
    1e5a:	494d      	ldr	r1, [pc, #308]	; (1f90 <us_ticker_init+0x21c>)
    1e5c:	4378      	muls	r0, r7
    1e5e:	f000 fc7d 	bl	275c <__aeabi_uidiv>
    1e62:	1c07      	adds	r7, r0, #0
    1e64:	e032      	b.n	1ecc <us_ticker_init+0x158>
    1e66:	4b49      	ldr	r3, [pc, #292]	; (1f8c <us_ticker_init+0x218>)
    1e68:	2202      	movs	r2, #2
    1e6a:	7819      	ldrb	r1, [r3, #0]
    1e6c:	200e      	movs	r0, #14
    1e6e:	430a      	orrs	r2, r1
    1e70:	701a      	strb	r2, [r3, #0]
    1e72:	7859      	ldrb	r1, [r3, #1]
    1e74:	2201      	movs	r2, #1
    1e76:	430a      	orrs	r2, r1
    1e78:	705a      	strb	r2, [r3, #1]
    1e7a:	4a42      	ldr	r2, [pc, #264]	; (1f84 <us_ticker_init+0x210>)
    1e7c:	2100      	movs	r1, #0
    1e7e:	6051      	str	r1, [r2, #4]
    1e80:	7a19      	ldrb	r1, [r3, #8]
    1e82:	4001      	ands	r1, r0
    1e84:	d010      	beq.n	1ea8 <us_ticker_init+0x134>
    1e86:	2902      	cmp	r1, #2
    1e88:	d102      	bne.n	1e90 <us_ticker_init+0x11c>
    1e8a:	6853      	ldr	r3, [r2, #4]
    1e8c:	6053      	str	r3, [r2, #4]
    1e8e:	e779      	b.n	1d84 <us_ticker_init+0x10>
    1e90:	7a19      	ldrb	r1, [r3, #8]
    1e92:	4381      	bics	r1, r0
    1e94:	7219      	strb	r1, [r3, #8]
    1e96:	7a18      	ldrb	r0, [r3, #8]
    1e98:	2104      	movs	r1, #4
    1e9a:	4301      	orrs	r1, r0
    1e9c:	7219      	strb	r1, [r3, #8]
    1e9e:	6851      	ldr	r1, [r2, #4]
    1ea0:	2304      	movs	r3, #4
    1ea2:	430b      	orrs	r3, r1
    1ea4:	6053      	str	r3, [r2, #4]
    1ea6:	e76d      	b.n	1d84 <us_ticker_init+0x10>
    1ea8:	6851      	ldr	r1, [r2, #4]
    1eaa:	2308      	movs	r3, #8
    1eac:	430b      	orrs	r3, r1
    1eae:	6053      	str	r3, [r2, #4]
    1eb0:	e768      	b.n	1d84 <us_ticker_init+0x10>
    1eb2:	791c      	ldrb	r4, [r3, #4]
    1eb4:	221f      	movs	r2, #31
    1eb6:	7959      	ldrb	r1, [r3, #5]
    1eb8:	1c13      	adds	r3, r2, #0
    1eba:	4023      	ands	r3, r4
    1ebc:	400a      	ands	r2, r1
    1ebe:	3301      	adds	r3, #1
    1ec0:	1c11      	adds	r1, r2, #0
    1ec2:	4358      	muls	r0, r3
    1ec4:	3118      	adds	r1, #24
    1ec6:	f000 fc49 	bl	275c <__aeabi_uidiv>
    1eca:	1c07      	adds	r7, r0, #0
    1ecc:	2f00      	cmp	r7, #0
    1ece:	d0ca      	beq.n	1e66 <us_ticker_init+0xf2>
    1ed0:	1c38      	adds	r0, r7, #0
    1ed2:	4929      	ldr	r1, [pc, #164]	; (1f78 <us_ticker_init+0x204>)
    1ed4:	f000 fc86 	bl	27e4 <__aeabi_uidivmod>
    1ed8:	2900      	cmp	r1, #0
    1eda:	d1c4      	bne.n	1e66 <us_ticker_init+0xf2>
    1edc:	1c38      	adds	r0, r7, #0
    1ede:	4926      	ldr	r1, [pc, #152]	; (1f78 <us_ticker_init+0x204>)
    1ee0:	f000 fc3c 	bl	275c <__aeabi_uidiv>
    1ee4:	2801      	cmp	r0, #1
    1ee6:	d025      	beq.n	1f34 <us_ticker_init+0x1c0>
    1ee8:	0840      	lsrs	r0, r0, #1
    1eea:	2801      	cmp	r0, #1
    1eec:	d034      	beq.n	1f58 <us_ticker_init+0x1e4>
    1eee:	07c2      	lsls	r2, r0, #31
    1ef0:	d4b9      	bmi.n	1e66 <us_ticker_init+0xf2>
    1ef2:	2300      	movs	r3, #0
    1ef4:	2201      	movs	r2, #1
    1ef6:	e001      	b.n	1efc <us_ticker_init+0x188>
    1ef8:	4202      	tst	r2, r0
    1efa:	d1b4      	bne.n	1e66 <us_ticker_init+0xf2>
    1efc:	3301      	adds	r3, #1
    1efe:	0840      	lsrs	r0, r0, #1
    1f00:	2801      	cmp	r0, #1
    1f02:	d1f9      	bne.n	1ef8 <us_ticker_init+0x184>
    1f04:	2278      	movs	r2, #120	; 0x78
    1f06:	00db      	lsls	r3, r3, #3
    1f08:	4013      	ands	r3, r2
    1f0a:	2203      	movs	r2, #3
    1f0c:	4313      	orrs	r3, r2
    1f0e:	4a1d      	ldr	r2, [pc, #116]	; (1f84 <us_ticker_init+0x210>)
    1f10:	6053      	str	r3, [r2, #4]
    1f12:	e737      	b.n	1d84 <us_ticker_init+0x10>
    1f14:	1c07      	adds	r7, r0, #0
    1f16:	e7d9      	b.n	1ecc <us_ticker_init+0x158>
    1f18:	017f      	lsls	r7, r7, #5
    1f1a:	e791      	b.n	1e40 <us_ticker_init+0xcc>
    1f1c:	2a20      	cmp	r2, #32
    1f1e:	d018      	beq.n	1f52 <us_ticker_init+0x1de>
    1f20:	2a40      	cmp	r2, #64	; 0x40
    1f22:	d013      	beq.n	1f4c <us_ticker_init+0x1d8>
    1f24:	2a00      	cmp	r2, #0
    1f26:	d198      	bne.n	1e5a <us_ticker_init+0xe6>
    1f28:	21a0      	movs	r1, #160	; 0xa0
    1f2a:	0089      	lsls	r1, r1, #2
    1f2c:	e796      	b.n	1e5c <us_ticker_init+0xe8>
    1f2e:	21b7      	movs	r1, #183	; 0xb7
    1f30:	0089      	lsls	r1, r1, #2
    1f32:	e793      	b.n	1e5c <us_ticker_init+0xe8>
    1f34:	4b13      	ldr	r3, [pc, #76]	; (1f84 <us_ticker_init+0x210>)
    1f36:	2207      	movs	r2, #7
    1f38:	605a      	str	r2, [r3, #4]
    1f3a:	e723      	b.n	1d84 <us_ticker_init+0x10>
    1f3c:	4915      	ldr	r1, [pc, #84]	; (1f94 <us_ticker_init+0x220>)
    1f3e:	e78d      	b.n	1e5c <us_ticker_init+0xe8>
    1f40:	21b7      	movs	r1, #183	; 0xb7
    1f42:	00c9      	lsls	r1, r1, #3
    1f44:	e78a      	b.n	1e5c <us_ticker_init+0xe8>
    1f46:	21a0      	movs	r1, #160	; 0xa0
    1f48:	0109      	lsls	r1, r1, #4
    1f4a:	e787      	b.n	1e5c <us_ticker_init+0xe8>
    1f4c:	21f0      	movs	r1, #240	; 0xf0
    1f4e:	00c9      	lsls	r1, r1, #3
    1f50:	e784      	b.n	1e5c <us_ticker_init+0xe8>
    1f52:	21a0      	movs	r1, #160	; 0xa0
    1f54:	00c9      	lsls	r1, r1, #3
    1f56:	e781      	b.n	1e5c <us_ticker_init+0xe8>
    1f58:	2303      	movs	r3, #3
    1f5a:	e7d8      	b.n	1f0e <us_ticker_init+0x19a>
    1f5c:	1ffffa1c 	.word	0x1ffffa1c
    1f60:	40047000 	.word	0x40047000
    1f64:	0000103c 	.word	0x0000103c
    1f68:	40037000 	.word	0x40037000
    1f6c:	00001044 	.word	0x00001044
    1f70:	1ffff248 	.word	0x1ffff248
    1f74:	0007a120 	.word	0x0007a120
    1f78:	000f4240 	.word	0x000f4240
    1f7c:	00001038 	.word	0x00001038
    1f80:	00001d0d 	.word	0x00001d0d
    1f84:	40040000 	.word	0x40040000
    1f88:	e000e100 	.word	0xe000e100
    1f8c:	40064000 	.word	0x40064000
    1f90:	00000b71 	.word	0x00000b71
    1f94:	00000895 	.word	0x00000895

00001f98 <us_ticker_read>:
    1f98:	b508      	push	{r3, lr}
    1f9a:	4b06      	ldr	r3, [pc, #24]	; (1fb4 <us_ticker_read+0x1c>)
    1f9c:	681b      	ldr	r3, [r3, #0]
    1f9e:	2b00      	cmp	r3, #0
    1fa0:	d101      	bne.n	1fa6 <us_ticker_read+0xe>
    1fa2:	f7ff fee7 	bl	1d74 <us_ticker_init>
    1fa6:	238a      	movs	r3, #138	; 0x8a
    1fa8:	4a03      	ldr	r2, [pc, #12]	; (1fb8 <us_ticker_read+0x20>)
    1faa:	005b      	lsls	r3, r3, #1
    1fac:	58d0      	ldr	r0, [r2, r3]
    1fae:	43c0      	mvns	r0, r0
    1fb0:	bd08      	pop	{r3, pc}
    1fb2:	46c0      	nop			; (mov r8, r8)
    1fb4:	1ffffa1c 	.word	0x1ffffa1c
    1fb8:	40037000 	.word	0x40037000

00001fbc <us_ticker_disable_interrupt>:
    1fbc:	4b02      	ldr	r3, [pc, #8]	; (1fc8 <us_ticker_disable_interrupt+0xc>)
    1fbe:	2140      	movs	r1, #64	; 0x40
    1fc0:	681a      	ldr	r2, [r3, #0]
    1fc2:	438a      	bics	r2, r1
    1fc4:	601a      	str	r2, [r3, #0]
    1fc6:	4770      	bx	lr
    1fc8:	40040000 	.word	0x40040000

00001fcc <us_ticker_clear_interrupt>:
    1fcc:	4770      	bx	lr
    1fce:	46c0      	nop			; (mov r8, r8)

00001fd0 <us_ticker_set_interrupt>:
    1fd0:	4b1b      	ldr	r3, [pc, #108]	; (2040 <us_ticker_set_interrupt+0x70>)
    1fd2:	b510      	push	{r4, lr}
    1fd4:	681b      	ldr	r3, [r3, #0]
    1fd6:	1c04      	adds	r4, r0, #0
    1fd8:	2b00      	cmp	r3, #0
    1fda:	d02b      	beq.n	2034 <us_ticker_set_interrupt+0x64>
    1fdc:	238a      	movs	r3, #138	; 0x8a
    1fde:	4a19      	ldr	r2, [pc, #100]	; (2044 <us_ticker_set_interrupt+0x74>)
    1fe0:	005b      	lsls	r3, r3, #1
    1fe2:	58d0      	ldr	r0, [r2, r3]
    1fe4:	43c0      	mvns	r0, r0
    1fe6:	1a20      	subs	r0, r4, r0
    1fe8:	2800      	cmp	r0, #0
    1fea:	dd26      	ble.n	203a <us_ticker_set_interrupt+0x6a>
    1fec:	4c16      	ldr	r4, [pc, #88]	; (2048 <us_ticker_set_interrupt+0x78>)
    1fee:	4917      	ldr	r1, [pc, #92]	; (204c <us_ticker_set_interrupt+0x7c>)
    1ff0:	1403      	asrs	r3, r0, #16
    1ff2:	6023      	str	r3, [r4, #0]
    1ff4:	8008      	strh	r0, [r1, #0]
    1ff6:	4a16      	ldr	r2, [pc, #88]	; (2050 <us_ticker_set_interrupt+0x80>)
    1ff8:	d10d      	bne.n	2016 <us_ticker_set_interrupt+0x46>
    1ffa:	0400      	lsls	r0, r0, #16
    1ffc:	0c00      	lsrs	r0, r0, #16
    1ffe:	6013      	str	r3, [r2, #0]
    2000:	6090      	str	r0, [r2, #8]
    2002:	6814      	ldr	r4, [r2, #0]
    2004:	2040      	movs	r0, #64	; 0x40
    2006:	4320      	orrs	r0, r4
    2008:	6010      	str	r0, [r2, #0]
    200a:	6814      	ldr	r4, [r2, #0]
    200c:	2001      	movs	r0, #1
    200e:	4320      	orrs	r0, r4
    2010:	6010      	str	r0, [r2, #0]
    2012:	800b      	strh	r3, [r1, #0]
    2014:	bd10      	pop	{r4, pc}
    2016:	2100      	movs	r1, #0
    2018:	6011      	str	r1, [r2, #0]
    201a:	490e      	ldr	r1, [pc, #56]	; (2054 <us_ticker_set_interrupt+0x84>)
    201c:	3b01      	subs	r3, #1
    201e:	6091      	str	r1, [r2, #8]
    2020:	6810      	ldr	r0, [r2, #0]
    2022:	2140      	movs	r1, #64	; 0x40
    2024:	4301      	orrs	r1, r0
    2026:	6011      	str	r1, [r2, #0]
    2028:	6810      	ldr	r0, [r2, #0]
    202a:	2101      	movs	r1, #1
    202c:	4301      	orrs	r1, r0
    202e:	6011      	str	r1, [r2, #0]
    2030:	6023      	str	r3, [r4, #0]
    2032:	e7ef      	b.n	2014 <us_ticker_set_interrupt+0x44>
    2034:	f7ff fe9e 	bl	1d74 <us_ticker_init>
    2038:	e7d0      	b.n	1fdc <us_ticker_set_interrupt+0xc>
    203a:	f000 fadd 	bl	25f8 <us_ticker_irq_handler>
    203e:	e7e9      	b.n	2014 <us_ticker_set_interrupt+0x44>
    2040:	1ffffa1c 	.word	0x1ffffa1c
    2044:	40037000 	.word	0x40037000
    2048:	1ffffa18 	.word	0x1ffffa18
    204c:	1ffffa20 	.word	0x1ffffa20
    2050:	40040000 	.word	0x40040000
    2054:	0000ffff 	.word	0x0000ffff

00002058 <mcgpllfll_frequency.part.0>:
    2058:	4a0d      	ldr	r2, [pc, #52]	; (2090 <mcgpllfll_frequency.part.0+0x38>)
    205a:	4b0e      	ldr	r3, [pc, #56]	; (2094 <mcgpllfll_frequency.part.0+0x3c>)
    205c:	b510      	push	{r4, lr}
    205e:	5898      	ldr	r0, [r3, r2]
    2060:	4a0d      	ldr	r2, [pc, #52]	; (2098 <mcgpllfll_frequency.part.0+0x40>)
    2062:	0f00      	lsrs	r0, r0, #28
    2064:	6812      	ldr	r2, [r2, #0]
    2066:	3001      	adds	r0, #1
    2068:	4350      	muls	r0, r2
    206a:	4a0c      	ldr	r2, [pc, #48]	; (209c <mcgpllfll_frequency.part.0+0x44>)
    206c:	7952      	ldrb	r2, [r2, #5]
    206e:	0651      	lsls	r1, r2, #25
    2070:	d507      	bpl.n	2082 <mcgpllfll_frequency.part.0+0x2a>
    2072:	4a0b      	ldr	r2, [pc, #44]	; (20a0 <mcgpllfll_frequency.part.0+0x48>)
    2074:	2180      	movs	r1, #128	; 0x80
    2076:	589c      	ldr	r4, [r3, r2]
    2078:	0249      	lsls	r1, r1, #9
    207a:	4321      	orrs	r1, r4
    207c:	5099      	str	r1, [r3, r2]
    207e:	0840      	lsrs	r0, r0, #1
    2080:	bd10      	pop	{r4, pc}
    2082:	4a07      	ldr	r2, [pc, #28]	; (20a0 <mcgpllfll_frequency.part.0+0x48>)
    2084:	4907      	ldr	r1, [pc, #28]	; (20a4 <mcgpllfll_frequency.part.0+0x4c>)
    2086:	589c      	ldr	r4, [r3, r2]
    2088:	4021      	ands	r1, r4
    208a:	5099      	str	r1, [r3, r2]
    208c:	e7f8      	b.n	2080 <mcgpllfll_frequency.part.0+0x28>
    208e:	46c0      	nop			; (mov r8, r8)
    2090:	00001044 	.word	0x00001044
    2094:	40047000 	.word	0x40047000
    2098:	1ffff248 	.word	0x1ffff248
    209c:	40064000 	.word	0x40064000
    20a0:	00001004 	.word	0x00001004
    20a4:	fffeffff 	.word	0xfffeffff

000020a8 <serial_baud>:
    20a8:	b5f8      	push	{r3, r4, r5, r6, r7, lr}
    20aa:	464f      	mov	r7, r9
    20ac:	4646      	mov	r6, r8
    20ae:	b4c0      	push	{r6, r7}
    20b0:	6803      	ldr	r3, [r0, #0]
    20b2:	1c0f      	adds	r7, r1, #0
    20b4:	78de      	ldrb	r6, [r3, #3]
    20b6:	78d9      	ldrb	r1, [r3, #3]
    20b8:	220c      	movs	r2, #12
    20ba:	4391      	bics	r1, r2
    20bc:	70d9      	strb	r1, [r3, #3]
    20be:	6805      	ldr	r5, [r0, #0]
    20c0:	4b4d      	ldr	r3, [pc, #308]	; (21f8 <serial_baud+0x150>)
    20c2:	1c04      	adds	r4, r0, #0
    20c4:	4016      	ands	r6, r2
    20c6:	429d      	cmp	r5, r3
    20c8:	d020      	beq.n	210c <serial_baud+0x64>
    20ca:	4b4c      	ldr	r3, [pc, #304]	; (21fc <serial_baud+0x154>)
    20cc:	4a4c      	ldr	r2, [pc, #304]	; (2200 <serial_baud+0x158>)
    20ce:	58d1      	ldr	r1, [r2, r3]
    20d0:	4b4c      	ldr	r3, [pc, #304]	; (2204 <serial_baud+0x15c>)
    20d2:	0349      	lsls	r1, r1, #13
    20d4:	0f49      	lsrs	r1, r1, #29
    20d6:	3101      	adds	r1, #1
    20d8:	6818      	ldr	r0, [r3, #0]
    20da:	f000 fb3f 	bl	275c <__aeabi_uidiv>
    20de:	0139      	lsls	r1, r7, #4
    20e0:	f000 fb3c 	bl	275c <__aeabi_uidiv>
    20e4:	7829      	ldrb	r1, [r5, #0]
    20e6:	231f      	movs	r3, #31
    20e8:	0a02      	lsrs	r2, r0, #8
    20ea:	4399      	bics	r1, r3
    20ec:	401a      	ands	r2, r3
    20ee:	1c0b      	adds	r3, r1, #0
    20f0:	4313      	orrs	r3, r2
    20f2:	702b      	strb	r3, [r5, #0]
    20f4:	6823      	ldr	r3, [r4, #0]
    20f6:	b2c0      	uxtb	r0, r0
    20f8:	785a      	ldrb	r2, [r3, #1]
    20fa:	7058      	strb	r0, [r3, #1]
    20fc:	6823      	ldr	r3, [r4, #0]
    20fe:	78da      	ldrb	r2, [r3, #3]
    2100:	4316      	orrs	r6, r2
    2102:	70de      	strb	r6, [r3, #3]
    2104:	bc0c      	pop	{r2, r3}
    2106:	4690      	mov	r8, r2
    2108:	4699      	mov	r9, r3
    210a:	bdf8      	pop	{r3, r4, r5, r6, r7, pc}
    210c:	493e      	ldr	r1, [pc, #248]	; (2208 <serial_baud+0x160>)
    210e:	780b      	ldrb	r3, [r1, #0]
    2110:	4689      	mov	r9, r1
    2112:	213f      	movs	r1, #63	; 0x3f
    2114:	4688      	mov	r8, r1
    2116:	438b      	bics	r3, r1
    2118:	d036      	beq.n	2188 <serial_baud+0xe0>
    211a:	4a39      	ldr	r2, [pc, #228]	; (2200 <serial_baud+0x158>)
    211c:	4b37      	ldr	r3, [pc, #220]	; (21fc <serial_baud+0x154>)
    211e:	58d3      	ldr	r3, [r2, r3]
    2120:	4a38      	ldr	r2, [pc, #224]	; (2204 <serial_baud+0x15c>)
    2122:	0f1b      	lsrs	r3, r3, #28
    2124:	6810      	ldr	r0, [r2, #0]
    2126:	3301      	adds	r3, #1
    2128:	4358      	muls	r0, r3
    212a:	4b37      	ldr	r3, [pc, #220]	; (2208 <serial_baud+0x160>)
    212c:	223f      	movs	r2, #63	; 0x3f
    212e:	7819      	ldrb	r1, [r3, #0]
    2130:	4391      	bics	r1, r2
    2132:	2980      	cmp	r1, #128	; 0x80
    2134:	d0d3      	beq.n	20de <serial_baud+0x36>
    2136:	7819      	ldrb	r1, [r3, #0]
    2138:	4391      	bics	r1, r2
    213a:	d135      	bne.n	21a8 <serial_baud+0x100>
    213c:	795a      	ldrb	r2, [r3, #5]
    213e:	0651      	lsls	r1, r2, #25
    2140:	d434      	bmi.n	21ac <serial_baud+0x104>
    2142:	799a      	ldrb	r2, [r3, #6]
    2144:	06d1      	lsls	r1, r2, #27
    2146:	d42f      	bmi.n	21a8 <serial_baud+0x100>
    2148:	781a      	ldrb	r2, [r3, #0]
    214a:	2101      	movs	r1, #1
    214c:	0692      	lsls	r2, r2, #26
    214e:	0f52      	lsrs	r2, r2, #29
    2150:	4091      	lsls	r1, r2
    2152:	785b      	ldrb	r3, [r3, #1]
    2154:	1c0a      	adds	r2, r1, #0
    2156:	2130      	movs	r1, #48	; 0x30
    2158:	4219      	tst	r1, r3
    215a:	d000      	beq.n	215e <serial_baud+0xb6>
    215c:	0152      	lsls	r2, r2, #5
    215e:	4b2a      	ldr	r3, [pc, #168]	; (2208 <serial_baud+0x160>)
    2160:	211f      	movs	r1, #31
    2162:	78db      	ldrb	r3, [r3, #3]
    2164:	438b      	bics	r3, r1
    2166:	2b60      	cmp	r3, #96	; 0x60
    2168:	d035      	beq.n	21d6 <serial_baud+0x12e>
    216a:	d82b      	bhi.n	21c4 <serial_baud+0x11c>
    216c:	2b20      	cmp	r3, #32
    216e:	d035      	beq.n	21dc <serial_baud+0x134>
    2170:	2b40      	cmp	r3, #64	; 0x40
    2172:	d036      	beq.n	21e2 <serial_baud+0x13a>
    2174:	2b00      	cmp	r3, #0
    2176:	d004      	beq.n	2182 <serial_baud+0xda>
    2178:	4924      	ldr	r1, [pc, #144]	; (220c <serial_baud+0x164>)
    217a:	4350      	muls	r0, r2
    217c:	f000 faee 	bl	275c <__aeabi_uidiv>
    2180:	e7ad      	b.n	20de <serial_baud+0x36>
    2182:	21a0      	movs	r1, #160	; 0xa0
    2184:	0089      	lsls	r1, r1, #2
    2186:	e7f8      	b.n	217a <serial_baud+0xd2>
    2188:	f7ff ff66 	bl	2058 <mcgpllfll_frequency.part.0>
    218c:	2800      	cmp	r0, #0
    218e:	d030      	beq.n	21f2 <serial_baud+0x14a>
    2190:	4649      	mov	r1, r9
    2192:	780b      	ldrb	r3, [r1, #0]
    2194:	4642      	mov	r2, r8
    2196:	4393      	bics	r3, r2
    2198:	d002      	beq.n	21a0 <serial_baud+0xf8>
    219a:	6825      	ldr	r5, [r4, #0]
    219c:	2000      	movs	r0, #0
    219e:	e79e      	b.n	20de <serial_baud+0x36>
    21a0:	f7ff ff5a 	bl	2058 <mcgpllfll_frequency.part.0>
    21a4:	6825      	ldr	r5, [r4, #0]
    21a6:	e79a      	b.n	20de <serial_baud+0x36>
    21a8:	2000      	movs	r0, #0
    21aa:	e798      	b.n	20de <serial_baud+0x36>
    21ac:	791a      	ldrb	r2, [r3, #4]
    21ae:	7959      	ldrb	r1, [r3, #5]
    21b0:	231f      	movs	r3, #31
    21b2:	401a      	ands	r2, r3
    21b4:	400b      	ands	r3, r1
    21b6:	3201      	adds	r2, #1
    21b8:	1c19      	adds	r1, r3, #0
    21ba:	4350      	muls	r0, r2
    21bc:	3118      	adds	r1, #24
    21be:	f000 facd 	bl	275c <__aeabi_uidiv>
    21c2:	e78c      	b.n	20de <serial_baud+0x36>
    21c4:	2ba0      	cmp	r3, #160	; 0xa0
    21c6:	d011      	beq.n	21ec <serial_baud+0x144>
    21c8:	2bc0      	cmp	r3, #192	; 0xc0
    21ca:	d00d      	beq.n	21e8 <serial_baud+0x140>
    21cc:	2b80      	cmp	r3, #128	; 0x80
    21ce:	d1d3      	bne.n	2178 <serial_baud+0xd0>
    21d0:	21b7      	movs	r1, #183	; 0xb7
    21d2:	0089      	lsls	r1, r1, #2
    21d4:	e7d1      	b.n	217a <serial_baud+0xd2>
    21d6:	21a0      	movs	r1, #160	; 0xa0
    21d8:	0109      	lsls	r1, r1, #4
    21da:	e7ce      	b.n	217a <serial_baud+0xd2>
    21dc:	21a0      	movs	r1, #160	; 0xa0
    21de:	00c9      	lsls	r1, r1, #3
    21e0:	e7cb      	b.n	217a <serial_baud+0xd2>
    21e2:	21f0      	movs	r1, #240	; 0xf0
    21e4:	00c9      	lsls	r1, r1, #3
    21e6:	e7c8      	b.n	217a <serial_baud+0xd2>
    21e8:	4909      	ldr	r1, [pc, #36]	; (2210 <serial_baud+0x168>)
    21ea:	e7c6      	b.n	217a <serial_baud+0xd2>
    21ec:	21b7      	movs	r1, #183	; 0xb7
    21ee:	00c9      	lsls	r1, r1, #3
    21f0:	e7c3      	b.n	217a <serial_baud+0xd2>
    21f2:	6825      	ldr	r5, [r4, #0]
    21f4:	e791      	b.n	211a <serial_baud+0x72>
    21f6:	46c0      	nop			; (mov r8, r8)
    21f8:	4006a000 	.word	0x4006a000
    21fc:	00001044 	.word	0x00001044
    2200:	40047000 	.word	0x40047000
    2204:	1ffff248 	.word	0x1ffff248
    2208:	40064000 	.word	0x40064000
    220c:	00000b71 	.word	0x00000b71
    2210:	00000895 	.word	0x00000895

00002214 <serial_format>:
    2214:	b570      	push	{r4, r5, r6, lr}
    2216:	6801      	ldr	r1, [r0, #0]
    2218:	240c      	movs	r4, #12
    221a:	78cd      	ldrb	r5, [r1, #3]
    221c:	78ce      	ldrb	r6, [r1, #3]
    221e:	4025      	ands	r5, r4
    2220:	43a6      	bics	r6, r4
    2222:	70ce      	strb	r6, [r1, #3]
    2224:	2a01      	cmp	r2, #1
    2226:	d019      	beq.n	225c <serial_format+0x48>
    2228:	2a00      	cmp	r2, #0
    222a:	d019      	beq.n	2260 <serial_format+0x4c>
    222c:	1e91      	subs	r1, r2, #2
    222e:	424a      	negs	r2, r1
    2230:	4151      	adcs	r1, r2
    2232:	0049      	lsls	r1, r1, #1
    2234:	6802      	ldr	r2, [r0, #0]
    2236:	2420      	movs	r4, #32
    2238:	7091      	strb	r1, [r2, #2]
    223a:	6802      	ldr	r2, [r0, #0]
    223c:	3b01      	subs	r3, #1
    223e:	7811      	ldrb	r1, [r2, #0]
    2240:	015b      	lsls	r3, r3, #5
    2242:	43a1      	bics	r1, r4
    2244:	7011      	strb	r1, [r2, #0]
    2246:	6802      	ldr	r2, [r0, #0]
    2248:	7811      	ldrb	r1, [r2, #0]
    224a:	430b      	orrs	r3, r1
    224c:	b2db      	uxtb	r3, r3
    224e:	7013      	strb	r3, [r2, #0]
    2250:	6803      	ldr	r3, [r0, #0]
    2252:	1c2a      	adds	r2, r5, #0
    2254:	78d9      	ldrb	r1, [r3, #3]
    2256:	430a      	orrs	r2, r1
    2258:	70da      	strb	r2, [r3, #3]
    225a:	bd70      	pop	{r4, r5, r6, pc}
    225c:	2103      	movs	r1, #3
    225e:	e7e9      	b.n	2234 <serial_format+0x20>
    2260:	2100      	movs	r1, #0
    2262:	e7e7      	b.n	2234 <serial_format+0x20>

00002264 <serial_init>:
    2264:	b5f8      	push	{r3, r4, r5, r6, r7, lr}
    2266:	464d      	mov	r5, r9
    2268:	4644      	mov	r4, r8
    226a:	465f      	mov	r7, r11
    226c:	4656      	mov	r6, r10
    226e:	b4f0      	push	{r4, r5, r6, r7}
    2270:	1c05      	adds	r5, r0, #0
    2272:	4856      	ldr	r0, [pc, #344]	; (23cc <serial_init+0x168>)
    2274:	1c0f      	adds	r7, r1, #0
    2276:	4681      	mov	r9, r0
    2278:	1c08      	adds	r0, r1, #0
    227a:	4649      	mov	r1, r9
    227c:	1c16      	adds	r6, r2, #0
    227e:	f000 f9a3 	bl	25c8 <pinmap_peripheral>
    2282:	4953      	ldr	r1, [pc, #332]	; (23d0 <serial_init+0x16c>)
    2284:	1c04      	adds	r4, r0, #0
    2286:	1c30      	adds	r0, r6, #0
    2288:	4688      	mov	r8, r1
    228a:	f000 f99d 	bl	25c8 <pinmap_peripheral>
    228e:	1c01      	adds	r1, r0, #0
    2290:	1c20      	adds	r0, r4, #0
    2292:	f000 f987 	bl	25a4 <pinmap_merge>
    2296:	4b4f      	ldr	r3, [pc, #316]	; (23d4 <serial_init+0x170>)
    2298:	1c04      	adds	r4, r0, #0
    229a:	6028      	str	r0, [r5, #0]
    229c:	4298      	cmp	r0, r3
    229e:	d061      	beq.n	2364 <serial_init+0x100>
    22a0:	4a4d      	ldr	r2, [pc, #308]	; (23d8 <serial_init+0x174>)
    22a2:	4290      	cmp	r0, r2
    22a4:	d06c      	beq.n	2380 <serial_init+0x11c>
    22a6:	484d      	ldr	r0, [pc, #308]	; (23dc <serial_init+0x178>)
    22a8:	4683      	mov	r11, r0
    22aa:	4284      	cmp	r4, r0
    22ac:	d036      	beq.n	231c <serial_init+0xb8>
    22ae:	78e1      	ldrb	r1, [r4, #3]
    22b0:	200c      	movs	r0, #12
    22b2:	4381      	bics	r1, r0
    22b4:	70e1      	strb	r1, [r4, #3]
    22b6:	429c      	cmp	r4, r3
    22b8:	d05f      	beq.n	237a <serial_init+0x116>
    22ba:	4294      	cmp	r4, r2
    22bc:	d06b      	beq.n	2396 <serial_init+0x132>
    22be:	455c      	cmp	r4, r11
    22c0:	d04d      	beq.n	235e <serial_init+0xfa>
    22c2:	2196      	movs	r1, #150	; 0x96
    22c4:	1c28      	adds	r0, r5, #0
    22c6:	0189      	lsls	r1, r1, #6
    22c8:	f7ff feee 	bl	20a8 <serial_baud>
    22cc:	1c28      	adds	r0, r5, #0
    22ce:	2108      	movs	r1, #8
    22d0:	2200      	movs	r2, #0
    22d2:	2301      	movs	r3, #1
    22d4:	f7ff ff9e 	bl	2214 <serial_format>
    22d8:	1c38      	adds	r0, r7, #0
    22da:	4649      	mov	r1, r9
    22dc:	f000 f946 	bl	256c <pinmap_pinout>
    22e0:	4641      	mov	r1, r8
    22e2:	1c30      	adds	r0, r6, #0
    22e4:	f000 f942 	bl	256c <pinmap_pinout>
    22e8:	1c79      	adds	r1, r7, #1
    22ea:	d003      	beq.n	22f4 <serial_init+0x90>
    22ec:	1c38      	adds	r0, r7, #0
    22ee:	2102      	movs	r1, #2
    22f0:	f000 fa10 	bl	2714 <pin_mode>
    22f4:	1c72      	adds	r2, r6, #1
    22f6:	d003      	beq.n	2300 <serial_init+0x9c>
    22f8:	1c30      	adds	r0, r6, #0
    22fa:	2102      	movs	r1, #2
    22fc:	f000 fa0a 	bl	2714 <pin_mode>
    2300:	682b      	ldr	r3, [r5, #0]
    2302:	220c      	movs	r2, #12
    2304:	78d9      	ldrb	r1, [r3, #3]
    2306:	430a      	orrs	r2, r1
    2308:	70da      	strb	r2, [r3, #3]
    230a:	4b34      	ldr	r3, [pc, #208]	; (23dc <serial_init+0x178>)
    230c:	429c      	cmp	r4, r3
    230e:	d052      	beq.n	23b6 <serial_init+0x152>
    2310:	bc3c      	pop	{r2, r3, r4, r5}
    2312:	4690      	mov	r8, r2
    2314:	4699      	mov	r9, r3
    2316:	46a2      	mov	r10, r4
    2318:	46ab      	mov	r11, r5
    231a:	bdf8      	pop	{r3, r4, r5, r6, r7, pc}
    231c:	4b30      	ldr	r3, [pc, #192]	; (23e0 <serial_init+0x17c>)
    231e:	781a      	ldrb	r2, [r3, #0]
    2320:	233f      	movs	r3, #63	; 0x3f
    2322:	439a      	bics	r2, r3
    2324:	1c23      	adds	r3, r4, #0
    2326:	2a00      	cmp	r2, #0
    2328:	d038      	beq.n	239c <serial_init+0x138>
    232a:	492e      	ldr	r1, [pc, #184]	; (23e4 <serial_init+0x180>)
    232c:	4a2e      	ldr	r2, [pc, #184]	; (23e8 <serial_init+0x184>)
    232e:	2080      	movs	r0, #128	; 0x80
    2330:	4693      	mov	r11, r2
    2332:	588a      	ldr	r2, [r1, r2]
    2334:	4692      	mov	r10, r2
    2336:	0502      	lsls	r2, r0, #20
    2338:	4650      	mov	r0, r10
    233a:	4310      	orrs	r0, r2
    233c:	465a      	mov	r2, r11
    233e:	5088      	str	r0, [r1, r2]
    2340:	4928      	ldr	r1, [pc, #160]	; (23e4 <serial_init+0x180>)
    2342:	482a      	ldr	r0, [pc, #168]	; (23ec <serial_init+0x188>)
    2344:	2280      	movs	r2, #128	; 0x80
    2346:	4683      	mov	r11, r0
    2348:	5808      	ldr	r0, [r1, r0]
    234a:	4682      	mov	r10, r0
    234c:	00d0      	lsls	r0, r2, #3
    234e:	4652      	mov	r2, r10
    2350:	4302      	orrs	r2, r0
    2352:	4658      	mov	r0, r11
    2354:	500a      	str	r2, [r1, r0]
    2356:	78da      	ldrb	r2, [r3, #3]
    2358:	210c      	movs	r1, #12
    235a:	438a      	bics	r2, r1
    235c:	70da      	strb	r2, [r3, #3]
    235e:	2300      	movs	r3, #0
    2360:	606b      	str	r3, [r5, #4]
    2362:	e7ae      	b.n	22c2 <serial_init+0x5e>
    2364:	4a1f      	ldr	r2, [pc, #124]	; (23e4 <serial_init+0x180>)
    2366:	4b21      	ldr	r3, [pc, #132]	; (23ec <serial_init+0x188>)
    2368:	2180      	movs	r1, #128	; 0x80
    236a:	58d0      	ldr	r0, [r2, r3]
    236c:	0109      	lsls	r1, r1, #4
    236e:	4301      	orrs	r1, r0
    2370:	50d1      	str	r1, [r2, r3]
    2372:	78e3      	ldrb	r3, [r4, #3]
    2374:	220c      	movs	r2, #12
    2376:	4393      	bics	r3, r2
    2378:	70e3      	strb	r3, [r4, #3]
    237a:	2301      	movs	r3, #1
    237c:	606b      	str	r3, [r5, #4]
    237e:	e7a0      	b.n	22c2 <serial_init+0x5e>
    2380:	4a18      	ldr	r2, [pc, #96]	; (23e4 <serial_init+0x180>)
    2382:	4b1a      	ldr	r3, [pc, #104]	; (23ec <serial_init+0x188>)
    2384:	2180      	movs	r1, #128	; 0x80
    2386:	58d0      	ldr	r0, [r2, r3]
    2388:	0149      	lsls	r1, r1, #5
    238a:	4301      	orrs	r1, r0
    238c:	50d1      	str	r1, [r2, r3]
    238e:	78e3      	ldrb	r3, [r4, #3]
    2390:	220c      	movs	r2, #12
    2392:	4393      	bics	r3, r2
    2394:	70e3      	strb	r3, [r4, #3]
    2396:	2302      	movs	r3, #2
    2398:	606b      	str	r3, [r5, #4]
    239a:	e792      	b.n	22c2 <serial_init+0x5e>
    239c:	f7ff fe5c 	bl	2058 <mcgpllfll_frequency.part.0>
    23a0:	2800      	cmp	r0, #0
    23a2:	d011      	beq.n	23c8 <serial_init+0x164>
    23a4:	4b10      	ldr	r3, [pc, #64]	; (23e8 <serial_init+0x184>)
    23a6:	4a0f      	ldr	r2, [pc, #60]	; (23e4 <serial_init+0x180>)
    23a8:	2180      	movs	r1, #128	; 0x80
    23aa:	58d0      	ldr	r0, [r2, r3]
    23ac:	04c9      	lsls	r1, r1, #19
    23ae:	4301      	orrs	r1, r0
    23b0:	50d1      	str	r1, [r2, r3]
    23b2:	682b      	ldr	r3, [r5, #0]
    23b4:	e7c4      	b.n	2340 <serial_init+0xdc>
    23b6:	4b0e      	ldr	r3, [pc, #56]	; (23f0 <serial_init+0x18c>)
    23b8:	2201      	movs	r2, #1
    23ba:	601a      	str	r2, [r3, #0]
    23bc:	1c29      	adds	r1, r5, #0
    23be:	2208      	movs	r2, #8
    23c0:	480c      	ldr	r0, [pc, #48]	; (23f4 <serial_init+0x190>)
    23c2:	f001 fb9f 	bl	3b04 <memcpy>
    23c6:	e7a3      	b.n	2310 <serial_init+0xac>
    23c8:	682b      	ldr	r3, [r5, #0]
    23ca:	e7ae      	b.n	232a <serial_init+0xc6>
    23cc:	00006ec4 	.word	0x00006ec4
    23d0:	00006e58 	.word	0x00006e58
    23d4:	4006b000 	.word	0x4006b000
    23d8:	4006c000 	.word	0x4006c000
    23dc:	4006a000 	.word	0x4006a000
    23e0:	40064000 	.word	0x40064000
    23e4:	40047000 	.word	0x40047000
    23e8:	00001004 	.word	0x00001004
    23ec:	00001034 	.word	0x00001034
    23f0:	1ffffa24 	.word	0x1ffffa24
    23f4:	1ffffa38 	.word	0x1ffffa38

000023f8 <serial_getc>:
    23f8:	6803      	ldr	r3, [r0, #0]
    23fa:	b530      	push	{r4, r5, lr}
    23fc:	2120      	movs	r1, #32
    23fe:	2508      	movs	r5, #8
    2400:	2408      	movs	r4, #8
    2402:	791a      	ldrb	r2, [r3, #4]
    2404:	4214      	tst	r4, r2
    2406:	d004      	beq.n	2412 <serial_getc+0x1a>
    2408:	791a      	ldrb	r2, [r3, #4]
    240a:	432a      	orrs	r2, r5
    240c:	b2d2      	uxtb	r2, r2
    240e:	711a      	strb	r2, [r3, #4]
    2410:	6803      	ldr	r3, [r0, #0]
    2412:	791a      	ldrb	r2, [r3, #4]
    2414:	4211      	tst	r1, r2
    2416:	d0f4      	beq.n	2402 <serial_getc+0xa>
    2418:	79d8      	ldrb	r0, [r3, #7]
    241a:	b2c0      	uxtb	r0, r0
    241c:	bd30      	pop	{r4, r5, pc}
    241e:	46c0      	nop			; (mov r8, r8)

00002420 <serial_putc>:
    2420:	6803      	ldr	r3, [r0, #0]
    2422:	b570      	push	{r4, r5, r6, lr}
    2424:	2608      	movs	r6, #8
    2426:	2508      	movs	r5, #8
    2428:	247f      	movs	r4, #127	; 0x7f
    242a:	791a      	ldrb	r2, [r3, #4]
    242c:	4215      	tst	r5, r2
    242e:	d004      	beq.n	243a <serial_putc+0x1a>
    2430:	791a      	ldrb	r2, [r3, #4]
    2432:	4332      	orrs	r2, r6
    2434:	b2d2      	uxtb	r2, r2
    2436:	711a      	strb	r2, [r3, #4]
    2438:	6803      	ldr	r3, [r0, #0]
    243a:	791a      	ldrb	r2, [r3, #4]
    243c:	43a2      	bics	r2, r4
    243e:	d0f4      	beq.n	242a <serial_putc+0xa>
    2440:	b2c9      	uxtb	r1, r1
    2442:	71d9      	strb	r1, [r3, #7]
    2444:	bd70      	pop	{r4, r5, r6, pc}
    2446:	46c0      	nop			; (mov r8, r8)

00002448 <SystemInit>:
    2448:	4b22      	ldr	r3, [pc, #136]	; (24d4 <SystemInit+0x8c>)
    244a:	2188      	movs	r1, #136	; 0x88
    244c:	2200      	movs	r2, #0
    244e:	0149      	lsls	r1, r1, #5
    2450:	b510      	push	{r4, lr}
    2452:	505a      	str	r2, [r3, r1]
    2454:	4920      	ldr	r1, [pc, #128]	; (24d8 <SystemInit+0x90>)
    2456:	2080      	movs	r0, #128	; 0x80
    2458:	585c      	ldr	r4, [r3, r1]
    245a:	0080      	lsls	r0, r0, #2
    245c:	4320      	orrs	r0, r4
    245e:	5058      	str	r0, [r3, r1]
    2460:	481e      	ldr	r0, [pc, #120]	; (24dc <SystemInit+0x94>)
    2462:	491f      	ldr	r1, [pc, #124]	; (24e0 <SystemInit+0x98>)
    2464:	5058      	str	r0, [r3, r1]
    2466:	4b1f      	ldr	r3, [pc, #124]	; (24e4 <SystemInit+0x9c>)
    2468:	491f      	ldr	r1, [pc, #124]	; (24e8 <SystemInit+0xa0>)
    246a:	6c98      	ldr	r0, [r3, #72]	; 0x48
    246c:	4008      	ands	r0, r1
    246e:	6498      	str	r0, [r3, #72]	; 0x48
    2470:	6cd8      	ldr	r0, [r3, #76]	; 0x4c
    2472:	4001      	ands	r1, r0
    2474:	64d9      	str	r1, [r3, #76]	; 0x4c
    2476:	4b1d      	ldr	r3, [pc, #116]	; (24ec <SystemInit+0xa4>)
    2478:	2189      	movs	r1, #137	; 0x89
    247a:	7019      	strb	r1, [r3, #0]
    247c:	491c      	ldr	r1, [pc, #112]	; (24f0 <SystemInit+0xa8>)
    247e:	2324      	movs	r3, #36	; 0x24
    2480:	704b      	strb	r3, [r1, #1]
    2482:	239a      	movs	r3, #154	; 0x9a
    2484:	700b      	strb	r3, [r1, #0]
    2486:	78cb      	ldrb	r3, [r1, #3]
    2488:	201f      	movs	r0, #31
    248a:	4003      	ands	r3, r0
    248c:	70cb      	strb	r3, [r1, #3]
    248e:	2301      	movs	r3, #1
    2490:	710b      	strb	r3, [r1, #4]
    2492:	714a      	strb	r2, [r1, #5]
    2494:	2210      	movs	r2, #16
    2496:	798b      	ldrb	r3, [r1, #6]
    2498:	421a      	tst	r2, r3
    249a:	d1fc      	bne.n	2496 <SystemInit+0x4e>
    249c:	4814      	ldr	r0, [pc, #80]	; (24f0 <SystemInit+0xa8>)
    249e:	210c      	movs	r1, #12
    24a0:	7983      	ldrb	r3, [r0, #6]
    24a2:	4a13      	ldr	r2, [pc, #76]	; (24f0 <SystemInit+0xa8>)
    24a4:	400b      	ands	r3, r1
    24a6:	2b08      	cmp	r3, #8
    24a8:	d1fa      	bne.n	24a0 <SystemInit+0x58>
    24aa:	2340      	movs	r3, #64	; 0x40
    24ac:	7153      	strb	r3, [r2, #5]
    24ae:	210c      	movs	r1, #12
    24b0:	7993      	ldrb	r3, [r2, #6]
    24b2:	400b      	ands	r3, r1
    24b4:	2b08      	cmp	r3, #8
    24b6:	d1fb      	bne.n	24b0 <SystemInit+0x68>
    24b8:	480d      	ldr	r0, [pc, #52]	; (24f0 <SystemInit+0xa8>)
    24ba:	2140      	movs	r1, #64	; 0x40
    24bc:	7983      	ldrb	r3, [r0, #6]
    24be:	4a0c      	ldr	r2, [pc, #48]	; (24f0 <SystemInit+0xa8>)
    24c0:	4219      	tst	r1, r3
    24c2:	d0fb      	beq.n	24bc <SystemInit+0x74>
    24c4:	231a      	movs	r3, #26
    24c6:	7013      	strb	r3, [r2, #0]
    24c8:	210c      	movs	r1, #12
    24ca:	7993      	ldrb	r3, [r2, #6]
    24cc:	400b      	ands	r3, r1
    24ce:	2b0c      	cmp	r3, #12
    24d0:	d1fb      	bne.n	24ca <SystemInit+0x82>
    24d2:	bd10      	pop	{r4, pc}
    24d4:	40047000 	.word	0x40047000
    24d8:	00001038 	.word	0x00001038
    24dc:	10010000 	.word	0x10010000
    24e0:	00001044 	.word	0x00001044
    24e4:	40049000 	.word	0x40049000
    24e8:	fefff8ff 	.word	0xfefff8ff
    24ec:	40065000 	.word	0x40065000
    24f0:	40064000 	.word	0x40064000

000024f4 <mbed_die>:
    24f4:	b500      	push	{lr}
    24f6:	b087      	sub	sp, #28
    24f8:	b672      	cpsid	i
    24fa:	4908      	ldr	r1, [pc, #32]	; (251c <mbed_die+0x28>)
    24fc:	4668      	mov	r0, sp
    24fe:	f000 f821 	bl	2544 <gpio_init_out>
    2502:	9b03      	ldr	r3, [sp, #12]
    2504:	9a01      	ldr	r2, [sp, #4]
    2506:	2096      	movs	r0, #150	; 0x96
    2508:	601a      	str	r2, [r3, #0]
    250a:	f7ff fb35 	bl	1b78 <wait_ms>
    250e:	9b04      	ldr	r3, [sp, #16]
    2510:	9a01      	ldr	r2, [sp, #4]
    2512:	2096      	movs	r0, #150	; 0x96
    2514:	601a      	str	r2, [r3, #0]
    2516:	f7ff fb2f 	bl	1b78 <wait_ms>
    251a:	e7f2      	b.n	2502 <mbed_die+0xe>
    251c:	00001048 	.word	0x00001048

00002520 <error>:
    2520:	b40f      	push	{r0, r1, r2, r3}
    2522:	b500      	push	{lr}
    2524:	b083      	sub	sp, #12
    2526:	aa04      	add	r2, sp, #16
    2528:	ca08      	ldmia	r2!, {r3}
    252a:	4b05      	ldr	r3, [pc, #20]	; (2540 <error+0x20>)
    252c:	9904      	ldr	r1, [sp, #16]
    252e:	681b      	ldr	r3, [r3, #0]
    2530:	9201      	str	r2, [sp, #4]
    2532:	68d8      	ldr	r0, [r3, #12]
    2534:	f001 fd28 	bl	3f88 <vfiprintf>
    2538:	2001      	movs	r0, #1
    253a:	f7ff fad5 	bl	1ae8 <exit>
    253e:	46c0      	nop			; (mov r8, r8)
    2540:	1ffff2ac 	.word	0x1ffff2ac

00002544 <gpio_init_out>:
    2544:	b538      	push	{r3, r4, r5, lr}
    2546:	1c0d      	adds	r5, r1, #0
    2548:	1c04      	adds	r4, r0, #0
    254a:	f000 f88d 	bl	2668 <gpio_init>
    254e:	3501      	adds	r5, #1
    2550:	d00a      	beq.n	2568 <gpio_init_out+0x24>
    2552:	6923      	ldr	r3, [r4, #16]
    2554:	6862      	ldr	r2, [r4, #4]
    2556:	1c20      	adds	r0, r4, #0
    2558:	2101      	movs	r1, #1
    255a:	601a      	str	r2, [r3, #0]
    255c:	f000 f8a8 	bl	26b0 <gpio_dir>
    2560:	1c20      	adds	r0, r4, #0
    2562:	2100      	movs	r1, #0
    2564:	f000 f89e 	bl	26a4 <gpio_mode>
    2568:	bd38      	pop	{r3, r4, r5, pc}
    256a:	46c0      	nop			; (mov r8, r8)

0000256c <pinmap_pinout>:
    256c:	b510      	push	{r4, lr}
    256e:	1c04      	adds	r4, r0, #0
    2570:	1c42      	adds	r2, r0, #1
    2572:	d103      	bne.n	257c <pinmap_pinout+0x10>
    2574:	e009      	b.n	258a <pinmap_pinout+0x1e>
    2576:	429c      	cmp	r4, r3
    2578:	d008      	beq.n	258c <pinmap_pinout+0x20>
    257a:	310c      	adds	r1, #12
    257c:	2200      	movs	r2, #0
    257e:	5e8b      	ldrsh	r3, [r1, r2]
    2580:	1c5a      	adds	r2, r3, #1
    2582:	d1f8      	bne.n	2576 <pinmap_pinout+0xa>
    2584:	4806      	ldr	r0, [pc, #24]	; (25a0 <pinmap_pinout+0x34>)
    2586:	f7ff ffcb 	bl	2520 <error>
    258a:	bd10      	pop	{r4, pc}
    258c:	1c20      	adds	r0, r4, #0
    258e:	6889      	ldr	r1, [r1, #8]
    2590:	f000 f89e 	bl	26d0 <pin_function>
    2594:	1c20      	adds	r0, r4, #0
    2596:	2100      	movs	r1, #0
    2598:	f000 f8bc 	bl	2714 <pin_mode>
    259c:	e7f5      	b.n	258a <pinmap_pinout+0x1e>
    259e:	46c0      	nop			; (mov r8, r8)
    25a0:	00006e10 	.word	0x00006e10

000025a4 <pinmap_merge>:
    25a4:	b508      	push	{r3, lr}
    25a6:	4288      	cmp	r0, r1
    25a8:	d008      	beq.n	25bc <pinmap_merge+0x18>
    25aa:	1c43      	adds	r3, r0, #1
    25ac:	d007      	beq.n	25be <pinmap_merge+0x1a>
    25ae:	3101      	adds	r1, #1
    25b0:	d004      	beq.n	25bc <pinmap_merge+0x18>
    25b2:	4804      	ldr	r0, [pc, #16]	; (25c4 <pinmap_merge+0x20>)
    25b4:	f7ff ffb4 	bl	2520 <error>
    25b8:	2001      	movs	r0, #1
    25ba:	4240      	negs	r0, r0
    25bc:	bd08      	pop	{r3, pc}
    25be:	1c08      	adds	r0, r1, #0
    25c0:	e7fc      	b.n	25bc <pinmap_merge+0x18>
    25c2:	46c0      	nop			; (mov r8, r8)
    25c4:	00006e24 	.word	0x00006e24

000025c8 <pinmap_peripheral>:
    25c8:	1c02      	adds	r2, r0, #0
    25ca:	b508      	push	{r3, lr}
    25cc:	1c53      	adds	r3, r2, #1
    25ce:	d103      	bne.n	25d8 <pinmap_peripheral+0x10>
    25d0:	e00b      	b.n	25ea <pinmap_peripheral+0x22>
    25d2:	429a      	cmp	r2, r3
    25d4:	d00a      	beq.n	25ec <pinmap_peripheral+0x24>
    25d6:	310c      	adds	r1, #12
    25d8:	2000      	movs	r0, #0
    25da:	5e0b      	ldrsh	r3, [r1, r0]
    25dc:	1c58      	adds	r0, r3, #1
    25de:	d1f8      	bne.n	25d2 <pinmap_peripheral+0xa>
    25e0:	4804      	ldr	r0, [pc, #16]	; (25f4 <pinmap_peripheral+0x2c>)
    25e2:	f7ff ff9d 	bl	2520 <error>
    25e6:	2001      	movs	r0, #1
    25e8:	4240      	negs	r0, r0
    25ea:	bd08      	pop	{r3, pc}
    25ec:	6848      	ldr	r0, [r1, #4]
    25ee:	1c43      	adds	r3, r0, #1
    25f0:	d1fb      	bne.n	25ea <pinmap_peripheral+0x22>
    25f2:	e7f5      	b.n	25e0 <pinmap_peripheral+0x18>
    25f4:	00006e38 	.word	0x00006e38

000025f8 <us_ticker_irq_handler>:
    25f8:	b5f8      	push	{r3, r4, r5, r6, r7, lr}
    25fa:	464f      	mov	r7, r9
    25fc:	4646      	mov	r6, r8
    25fe:	b4c0      	push	{r6, r7}
    2600:	f7ff fce4 	bl	1fcc <us_ticker_clear_interrupt>
    2604:	4816      	ldr	r0, [pc, #88]	; (2660 <us_ticker_irq_handler+0x68>)
    2606:	4a17      	ldr	r2, [pc, #92]	; (2664 <us_ticker_irq_handler+0x6c>)
    2608:	4680      	mov	r8, r0
    260a:	4691      	mov	r9, r2
    260c:	4640      	mov	r0, r8
    260e:	6803      	ldr	r3, [r0, #0]
    2610:	e012      	b.n	2638 <us_ticker_irq_handler+0x40>
    2612:	681c      	ldr	r4, [r3, #0]
    2614:	685d      	ldr	r5, [r3, #4]
    2616:	f7ff fcbf 	bl	1f98 <us_ticker_read>
    261a:	2700      	movs	r7, #0
    261c:	1c06      	adds	r6, r0, #0
    261e:	1ba4      	subs	r4, r4, r6
    2620:	41bd      	sbcs	r5, r7
    2622:	2d00      	cmp	r5, #0
    2624:	dc12      	bgt.n	264c <us_ticker_irq_handler+0x54>
    2626:	d00f      	beq.n	2648 <us_ticker_irq_handler+0x50>
    2628:	4642      	mov	r2, r8
    262a:	6811      	ldr	r1, [r2, #0]
    262c:	4648      	mov	r0, r9
    262e:	68cb      	ldr	r3, [r1, #12]
    2630:	6013      	str	r3, [r2, #0]
    2632:	6802      	ldr	r2, [r0, #0]
    2634:	2a00      	cmp	r2, #0
    2636:	d110      	bne.n	265a <us_ticker_irq_handler+0x62>
    2638:	2b00      	cmp	r3, #0
    263a:	d1ea      	bne.n	2612 <us_ticker_irq_handler+0x1a>
    263c:	f7ff fcbe 	bl	1fbc <us_ticker_disable_interrupt>
    2640:	bc0c      	pop	{r2, r3}
    2642:	4690      	mov	r8, r2
    2644:	4699      	mov	r9, r3
    2646:	bdf8      	pop	{r3, r4, r5, r6, r7, pc}
    2648:	2c00      	cmp	r4, #0
    264a:	d0ed      	beq.n	2628 <us_ticker_irq_handler+0x30>
    264c:	4642      	mov	r2, r8
    264e:	6813      	ldr	r3, [r2, #0]
    2650:	6818      	ldr	r0, [r3, #0]
    2652:	6859      	ldr	r1, [r3, #4]
    2654:	f7ff fcbc 	bl	1fd0 <us_ticker_set_interrupt>
    2658:	e7f2      	b.n	2640 <us_ticker_irq_handler+0x48>
    265a:	6888      	ldr	r0, [r1, #8]
    265c:	4790      	blx	r2
    265e:	e7d5      	b.n	260c <us_ticker_irq_handler+0x14>
    2660:	1ffffa28 	.word	0x1ffffa28
    2664:	1ffffa2c 	.word	0x1ffffa2c

00002668 <gpio_init>:
    2668:	b538      	push	{r3, r4, r5, lr}
    266a:	1c04      	adds	r4, r0, #0
    266c:	1c0d      	adds	r5, r1, #0
    266e:	8021      	strh	r1, [r4, #0]
    2670:	1c4b      	adds	r3, r1, #1
    2672:	d014      	beq.n	269e <gpio_init+0x36>
    2674:	1c08      	adds	r0, r1, #0
    2676:	2101      	movs	r1, #1
    2678:	f000 f82a 	bl	26d0 <pin_function>
    267c:	066b      	lsls	r3, r5, #25
    267e:	0edb      	lsrs	r3, r3, #27
    2680:	2201      	movs	r2, #1
    2682:	409a      	lsls	r2, r3
    2684:	4b06      	ldr	r3, [pc, #24]	; (26a0 <gpio_init+0x38>)
    2686:	0b2d      	lsrs	r5, r5, #12
    2688:	18ed      	adds	r5, r5, r3
    268a:	01ad      	lsls	r5, r5, #6
    268c:	1d2b      	adds	r3, r5, #4
    268e:	60e3      	str	r3, [r4, #12]
    2690:	3304      	adds	r3, #4
    2692:	6123      	str	r3, [r4, #16]
    2694:	3514      	adds	r5, #20
    2696:	3308      	adds	r3, #8
    2698:	6062      	str	r2, [r4, #4]
    269a:	6163      	str	r3, [r4, #20]
    269c:	60a5      	str	r5, [r4, #8]
    269e:	bd38      	pop	{r3, r4, r5, pc}
    26a0:	03e03fc0 	.word	0x03e03fc0

000026a4 <gpio_mode>:
    26a4:	b508      	push	{r3, lr}
    26a6:	2300      	movs	r3, #0
    26a8:	5ec0      	ldrsh	r0, [r0, r3]
    26aa:	f000 f833 	bl	2714 <pin_mode>
    26ae:	bd08      	pop	{r3, pc}

000026b0 <gpio_dir>:
    26b0:	2900      	cmp	r1, #0
    26b2:	d007      	beq.n	26c4 <gpio_dir+0x14>
    26b4:	2901      	cmp	r1, #1
    26b6:	d104      	bne.n	26c2 <gpio_dir+0x12>
    26b8:	6883      	ldr	r3, [r0, #8]
    26ba:	6842      	ldr	r2, [r0, #4]
    26bc:	6819      	ldr	r1, [r3, #0]
    26be:	430a      	orrs	r2, r1
    26c0:	601a      	str	r2, [r3, #0]
    26c2:	4770      	bx	lr
    26c4:	6883      	ldr	r3, [r0, #8]
    26c6:	6841      	ldr	r1, [r0, #4]
    26c8:	681a      	ldr	r2, [r3, #0]
    26ca:	438a      	bics	r2, r1
    26cc:	601a      	str	r2, [r3, #0]
    26ce:	e7f8      	b.n	26c2 <gpio_dir+0x12>

000026d0 <pin_function>:
    26d0:	0b03      	lsrs	r3, r0, #12
    26d2:	b5f0      	push	{r4, r5, r6, r7, lr}
    26d4:	4a0b      	ldr	r2, [pc, #44]	; (2704 <pin_function+0x34>)
    26d6:	4c0c      	ldr	r4, [pc, #48]	; (2708 <pin_function+0x38>)
    26d8:	1c1d      	adds	r5, r3, #0
    26da:	3509      	adds	r5, #9
    26dc:	2701      	movs	r7, #1
    26de:	58a6      	ldr	r6, [r4, r2]
    26e0:	40af      	lsls	r7, r5
    26e2:	1c3d      	adds	r5, r7, #0
    26e4:	4335      	orrs	r5, r6
    26e6:	50a5      	str	r5, [r4, r2]
    26e8:	4a08      	ldr	r2, [pc, #32]	; (270c <pin_function+0x3c>)
    26ea:	189b      	adds	r3, r3, r2
    26ec:	227c      	movs	r2, #124	; 0x7c
    26ee:	031b      	lsls	r3, r3, #12
    26f0:	4010      	ands	r0, r2
    26f2:	1818      	adds	r0, r3, r0
    26f4:	6802      	ldr	r2, [r0, #0]
    26f6:	4b06      	ldr	r3, [pc, #24]	; (2710 <pin_function+0x40>)
    26f8:	401a      	ands	r2, r3
    26fa:	020b      	lsls	r3, r1, #8
    26fc:	1c11      	adds	r1, r2, #0
    26fe:	4319      	orrs	r1, r3
    2700:	6001      	str	r1, [r0, #0]
    2702:	bdf0      	pop	{r4, r5, r6, r7, pc}
    2704:	00001038 	.word	0x00001038
    2708:	40047000 	.word	0x40047000
    270c:	00040049 	.word	0x00040049
    2710:	fffff8ff 	.word	0xfffff8ff

00002714 <pin_mode>:
    2714:	4b03      	ldr	r3, [pc, #12]	; (2724 <pin_mode+0x10>)
    2716:	2203      	movs	r2, #3
    2718:	18c0      	adds	r0, r0, r3
    271a:	6803      	ldr	r3, [r0, #0]
    271c:	4393      	bics	r3, r2
    271e:	4319      	orrs	r1, r3
    2720:	6001      	str	r1, [r0, #0]
    2722:	4770      	bx	lr
    2724:	40049000 	.word	0x40049000

00002728 <__aeabi_atexit>:
    2728:	b508      	push	{r3, lr}
    272a:	1c03      	adds	r3, r0, #0
    272c:	1c08      	adds	r0, r1, #0
    272e:	1c19      	adds	r1, r3, #0
    2730:	f000 fff2 	bl	3718 <__cxa_atexit>
    2734:	bd08      	pop	{r3, pc}

00002736 <__cxa_guard_acquire>:
    2736:	6802      	ldr	r2, [r0, #0]
    2738:	b508      	push	{r3, lr}
    273a:	2301      	movs	r3, #1
    273c:	421a      	tst	r2, r3
    273e:	d107      	bne.n	2750 <__cxa_guard_acquire+0x1a>
    2740:	7842      	ldrb	r2, [r0, #1]
    2742:	2a00      	cmp	r2, #0
    2744:	d001      	beq.n	274a <__cxa_guard_acquire+0x14>
    2746:	f7fd ff45 	bl	5d4 <abort>
    274a:	7043      	strb	r3, [r0, #1]
    274c:	1c18      	adds	r0, r3, #0
    274e:	e000      	b.n	2752 <__cxa_guard_acquire+0x1c>
    2750:	2000      	movs	r0, #0
    2752:	bd08      	pop	{r3, pc}

00002754 <__cxa_guard_release>:
    2754:	2301      	movs	r3, #1
    2756:	6003      	str	r3, [r0, #0]
    2758:	4770      	bx	lr
	...

0000275c <__aeabi_uidiv>:
    275c:	2900      	cmp	r1, #0
    275e:	d034      	beq.n	27ca <.udivsi3_skip_div0_test+0x6a>

00002760 <.udivsi3_skip_div0_test>:
    2760:	2301      	movs	r3, #1
    2762:	2200      	movs	r2, #0
    2764:	b410      	push	{r4}
    2766:	4288      	cmp	r0, r1
    2768:	d32c      	bcc.n	27c4 <.udivsi3_skip_div0_test+0x64>
    276a:	2401      	movs	r4, #1
    276c:	0724      	lsls	r4, r4, #28
    276e:	42a1      	cmp	r1, r4
    2770:	d204      	bcs.n	277c <.udivsi3_skip_div0_test+0x1c>
    2772:	4281      	cmp	r1, r0
    2774:	d202      	bcs.n	277c <.udivsi3_skip_div0_test+0x1c>
    2776:	0109      	lsls	r1, r1, #4
    2778:	011b      	lsls	r3, r3, #4
    277a:	e7f8      	b.n	276e <.udivsi3_skip_div0_test+0xe>
    277c:	00e4      	lsls	r4, r4, #3
    277e:	42a1      	cmp	r1, r4
    2780:	d204      	bcs.n	278c <.udivsi3_skip_div0_test+0x2c>
    2782:	4281      	cmp	r1, r0
    2784:	d202      	bcs.n	278c <.udivsi3_skip_div0_test+0x2c>
    2786:	0049      	lsls	r1, r1, #1
    2788:	005b      	lsls	r3, r3, #1
    278a:	e7f8      	b.n	277e <.udivsi3_skip_div0_test+0x1e>
    278c:	4288      	cmp	r0, r1
    278e:	d301      	bcc.n	2794 <.udivsi3_skip_div0_test+0x34>
    2790:	1a40      	subs	r0, r0, r1
    2792:	431a      	orrs	r2, r3
    2794:	084c      	lsrs	r4, r1, #1
    2796:	42a0      	cmp	r0, r4
    2798:	d302      	bcc.n	27a0 <.udivsi3_skip_div0_test+0x40>
    279a:	1b00      	subs	r0, r0, r4
    279c:	085c      	lsrs	r4, r3, #1
    279e:	4322      	orrs	r2, r4
    27a0:	088c      	lsrs	r4, r1, #2
    27a2:	42a0      	cmp	r0, r4
    27a4:	d302      	bcc.n	27ac <.udivsi3_skip_div0_test+0x4c>
    27a6:	1b00      	subs	r0, r0, r4
    27a8:	089c      	lsrs	r4, r3, #2
    27aa:	4322      	orrs	r2, r4
    27ac:	08cc      	lsrs	r4, r1, #3
    27ae:	42a0      	cmp	r0, r4
    27b0:	d302      	bcc.n	27b8 <.udivsi3_skip_div0_test+0x58>
    27b2:	1b00      	subs	r0, r0, r4
    27b4:	08dc      	lsrs	r4, r3, #3
    27b6:	4322      	orrs	r2, r4
    27b8:	2800      	cmp	r0, #0
    27ba:	d003      	beq.n	27c4 <.udivsi3_skip_div0_test+0x64>
    27bc:	091b      	lsrs	r3, r3, #4
    27be:	d001      	beq.n	27c4 <.udivsi3_skip_div0_test+0x64>
    27c0:	0909      	lsrs	r1, r1, #4
    27c2:	e7e3      	b.n	278c <.udivsi3_skip_div0_test+0x2c>
    27c4:	1c10      	adds	r0, r2, #0
    27c6:	bc10      	pop	{r4}
    27c8:	4770      	bx	lr
    27ca:	2800      	cmp	r0, #0
    27cc:	d001      	beq.n	27d2 <.udivsi3_skip_div0_test+0x72>
    27ce:	2000      	movs	r0, #0
    27d0:	43c0      	mvns	r0, r0
    27d2:	b407      	push	{r0, r1, r2}
    27d4:	4802      	ldr	r0, [pc, #8]	; (27e0 <.udivsi3_skip_div0_test+0x80>)
    27d6:	a102      	add	r1, pc, #8	; (adr r1, 27e0 <.udivsi3_skip_div0_test+0x80>)
    27d8:	1840      	adds	r0, r0, r1
    27da:	9002      	str	r0, [sp, #8]
    27dc:	bd03      	pop	{r0, r1, pc}
    27de:	46c0      	nop			; (mov r8, r8)
    27e0:	00000019 	.word	0x00000019

000027e4 <__aeabi_uidivmod>:
    27e4:	2900      	cmp	r1, #0
    27e6:	d0f0      	beq.n	27ca <.udivsi3_skip_div0_test+0x6a>
    27e8:	b503      	push	{r0, r1, lr}
    27ea:	f7ff ffb9 	bl	2760 <.udivsi3_skip_div0_test>
    27ee:	bc0e      	pop	{r1, r2, r3}
    27f0:	4342      	muls	r2, r0
    27f2:	1a89      	subs	r1, r1, r2
    27f4:	4718      	bx	r3
    27f6:	46c0      	nop			; (mov r8, r8)

000027f8 <__aeabi_idiv0>:
    27f8:	4770      	bx	lr
    27fa:	46c0      	nop			; (mov r8, r8)

000027fc <__aeabi_fmul>:
    27fc:	b5f0      	push	{r4, r5, r6, r7, lr}
    27fe:	465f      	mov	r7, r11
    2800:	4656      	mov	r6, r10
    2802:	464d      	mov	r5, r9
    2804:	4644      	mov	r4, r8
    2806:	b4f0      	push	{r4, r5, r6, r7}
    2808:	0244      	lsls	r4, r0, #9
    280a:	0046      	lsls	r6, r0, #1
    280c:	b083      	sub	sp, #12
    280e:	1c0f      	adds	r7, r1, #0
    2810:	0a64      	lsrs	r4, r4, #9
    2812:	0e36      	lsrs	r6, r6, #24
    2814:	0fc5      	lsrs	r5, r0, #31
    2816:	2e00      	cmp	r6, #0
    2818:	d041      	beq.n	289e <__aeabi_fmul+0xa2>
    281a:	2eff      	cmp	r6, #255	; 0xff
    281c:	d022      	beq.n	2864 <__aeabi_fmul+0x68>
    281e:	2380      	movs	r3, #128	; 0x80
    2820:	041b      	lsls	r3, r3, #16
    2822:	2000      	movs	r0, #0
    2824:	431c      	orrs	r4, r3
    2826:	00e4      	lsls	r4, r4, #3
    2828:	3e7f      	subs	r6, #127	; 0x7f
    282a:	4682      	mov	r10, r0
    282c:	4680      	mov	r8, r0
    282e:	1c39      	adds	r1, r7, #0
    2830:	004b      	lsls	r3, r1, #1
    2832:	027f      	lsls	r7, r7, #9
    2834:	0fc9      	lsrs	r1, r1, #31
    2836:	0a7f      	lsrs	r7, r7, #9
    2838:	0e1b      	lsrs	r3, r3, #24
    283a:	468b      	mov	r11, r1
    283c:	d03b      	beq.n	28b6 <__aeabi_fmul+0xba>
    283e:	2bff      	cmp	r3, #255	; 0xff
    2840:	d034      	beq.n	28ac <__aeabi_fmul+0xb0>
    2842:	2280      	movs	r2, #128	; 0x80
    2844:	0412      	lsls	r2, r2, #16
    2846:	4317      	orrs	r7, r2
    2848:	00ff      	lsls	r7, r7, #3
    284a:	3b7f      	subs	r3, #127	; 0x7f
    284c:	2100      	movs	r1, #0
    284e:	465a      	mov	r2, r11
    2850:	406a      	eors	r2, r5
    2852:	9201      	str	r2, [sp, #4]
    2854:	4652      	mov	r2, r10
    2856:	430a      	orrs	r2, r1
    2858:	2a0f      	cmp	r2, #15
    285a:	d863      	bhi.n	2924 <__aeabi_fmul+0x128>
    285c:	487a      	ldr	r0, [pc, #488]	; (2a48 <__aeabi_fmul+0x24c>)
    285e:	0092      	lsls	r2, r2, #2
    2860:	5882      	ldr	r2, [r0, r2]
    2862:	4697      	mov	pc, r2
    2864:	2c00      	cmp	r4, #0
    2866:	d13f      	bne.n	28e8 <__aeabi_fmul+0xec>
    2868:	2208      	movs	r2, #8
    286a:	2302      	movs	r3, #2
    286c:	4692      	mov	r10, r2
    286e:	4698      	mov	r8, r3
    2870:	e7dd      	b.n	282e <__aeabi_fmul+0x32>
    2872:	9501      	str	r5, [sp, #4]
    2874:	4640      	mov	r0, r8
    2876:	2802      	cmp	r0, #2
    2878:	d12a      	bne.n	28d0 <__aeabi_fmul+0xd4>
    287a:	9a01      	ldr	r2, [sp, #4]
    287c:	2501      	movs	r5, #1
    287e:	4015      	ands	r5, r2
    2880:	23ff      	movs	r3, #255	; 0xff
    2882:	2400      	movs	r4, #0
    2884:	0264      	lsls	r4, r4, #9
    2886:	05db      	lsls	r3, r3, #23
    2888:	0a60      	lsrs	r0, r4, #9
    288a:	07ed      	lsls	r5, r5, #31
    288c:	4318      	orrs	r0, r3
    288e:	4328      	orrs	r0, r5
    2890:	b003      	add	sp, #12
    2892:	bc3c      	pop	{r2, r3, r4, r5}
    2894:	4690      	mov	r8, r2
    2896:	4699      	mov	r9, r3
    2898:	46a2      	mov	r10, r4
    289a:	46ab      	mov	r11, r5
    289c:	bdf0      	pop	{r4, r5, r6, r7, pc}
    289e:	2c00      	cmp	r4, #0
    28a0:	d127      	bne.n	28f2 <__aeabi_fmul+0xf6>
    28a2:	2004      	movs	r0, #4
    28a4:	2201      	movs	r2, #1
    28a6:	4682      	mov	r10, r0
    28a8:	4690      	mov	r8, r2
    28aa:	e7c0      	b.n	282e <__aeabi_fmul+0x32>
    28ac:	1c39      	adds	r1, r7, #0
    28ae:	1e4a      	subs	r2, r1, #1
    28b0:	4191      	sbcs	r1, r2
    28b2:	3102      	adds	r1, #2
    28b4:	e7cb      	b.n	284e <__aeabi_fmul+0x52>
    28b6:	2101      	movs	r1, #1
    28b8:	2f00      	cmp	r7, #0
    28ba:	d0c8      	beq.n	284e <__aeabi_fmul+0x52>
    28bc:	1c38      	adds	r0, r7, #0
    28be:	f000 ff0d 	bl	36dc <__clzsi2>
    28c2:	1f43      	subs	r3, r0, #5
    28c4:	409f      	lsls	r7, r3
    28c6:	2376      	movs	r3, #118	; 0x76
    28c8:	425b      	negs	r3, r3
    28ca:	1a1b      	subs	r3, r3, r0
    28cc:	2100      	movs	r1, #0
    28ce:	e7be      	b.n	284e <__aeabi_fmul+0x52>
    28d0:	2803      	cmp	r0, #3
    28d2:	d100      	bne.n	28d6 <__aeabi_fmul+0xda>
    28d4:	e0ae      	b.n	2a34 <__aeabi_fmul+0x238>
    28d6:	2801      	cmp	r0, #1
    28d8:	d14f      	bne.n	297a <__aeabi_fmul+0x17e>
    28da:	9801      	ldr	r0, [sp, #4]
    28dc:	4642      	mov	r2, r8
    28de:	4010      	ands	r0, r2
    28e0:	b2c5      	uxtb	r5, r0
    28e2:	2300      	movs	r3, #0
    28e4:	2400      	movs	r4, #0
    28e6:	e7cd      	b.n	2884 <__aeabi_fmul+0x88>
    28e8:	230c      	movs	r3, #12
    28ea:	2003      	movs	r0, #3
    28ec:	469a      	mov	r10, r3
    28ee:	4680      	mov	r8, r0
    28f0:	e79d      	b.n	282e <__aeabi_fmul+0x32>
    28f2:	1c20      	adds	r0, r4, #0
    28f4:	f000 fef2 	bl	36dc <__clzsi2>
    28f8:	2676      	movs	r6, #118	; 0x76
    28fa:	1f43      	subs	r3, r0, #5
    28fc:	409c      	lsls	r4, r3
    28fe:	4276      	negs	r6, r6
    2900:	2300      	movs	r3, #0
    2902:	1a36      	subs	r6, r6, r0
    2904:	469a      	mov	r10, r3
    2906:	4698      	mov	r8, r3
    2908:	e791      	b.n	282e <__aeabi_fmul+0x32>
    290a:	2480      	movs	r4, #128	; 0x80
    290c:	2500      	movs	r5, #0
    290e:	03e4      	lsls	r4, r4, #15
    2910:	23ff      	movs	r3, #255	; 0xff
    2912:	e7b7      	b.n	2884 <__aeabi_fmul+0x88>
    2914:	465b      	mov	r3, r11
    2916:	1c3c      	adds	r4, r7, #0
    2918:	9301      	str	r3, [sp, #4]
    291a:	4688      	mov	r8, r1
    291c:	e7aa      	b.n	2874 <__aeabi_fmul+0x78>
    291e:	1c3c      	adds	r4, r7, #0
    2920:	4688      	mov	r8, r1
    2922:	e7a7      	b.n	2874 <__aeabi_fmul+0x78>
    2924:	0c25      	lsrs	r5, r4, #16
    2926:	0424      	lsls	r4, r4, #16
    2928:	0c3a      	lsrs	r2, r7, #16
    292a:	0c24      	lsrs	r4, r4, #16
    292c:	043f      	lsls	r7, r7, #16
    292e:	18f6      	adds	r6, r6, r3
    2930:	0c3f      	lsrs	r7, r7, #16
    2932:	1c21      	adds	r1, r4, #0
    2934:	1c23      	adds	r3, r4, #0
    2936:	4379      	muls	r1, r7
    2938:	4353      	muls	r3, r2
    293a:	436f      	muls	r7, r5
    293c:	4355      	muls	r5, r2
    293e:	18fb      	adds	r3, r7, r3
    2940:	0c0a      	lsrs	r2, r1, #16
    2942:	189b      	adds	r3, r3, r2
    2944:	46b1      	mov	r9, r6
    2946:	429f      	cmp	r7, r3
    2948:	d902      	bls.n	2950 <__aeabi_fmul+0x154>
    294a:	2280      	movs	r2, #128	; 0x80
    294c:	0252      	lsls	r2, r2, #9
    294e:	18ad      	adds	r5, r5, r2
    2950:	0409      	lsls	r1, r1, #16
    2952:	041a      	lsls	r2, r3, #16
    2954:	0c09      	lsrs	r1, r1, #16
    2956:	1852      	adds	r2, r2, r1
    2958:	0194      	lsls	r4, r2, #6
    295a:	0c1b      	lsrs	r3, r3, #16
    295c:	1e61      	subs	r1, r4, #1
    295e:	418c      	sbcs	r4, r1
    2960:	0e92      	lsrs	r2, r2, #26
    2962:	18ed      	adds	r5, r5, r3
    2964:	4314      	orrs	r4, r2
    2966:	01ad      	lsls	r5, r5, #6
    2968:	432c      	orrs	r4, r5
    296a:	0123      	lsls	r3, r4, #4
    296c:	d505      	bpl.n	297a <__aeabi_fmul+0x17e>
    296e:	2201      	movs	r2, #1
    2970:	0863      	lsrs	r3, r4, #1
    2972:	2001      	movs	r0, #1
    2974:	4014      	ands	r4, r2
    2976:	4481      	add	r9, r0
    2978:	431c      	orrs	r4, r3
    297a:	464b      	mov	r3, r9
    297c:	337f      	adds	r3, #127	; 0x7f
    297e:	2b00      	cmp	r3, #0
    2980:	dd2d      	ble.n	29de <__aeabi_fmul+0x1e2>
    2982:	0760      	lsls	r0, r4, #29
    2984:	d004      	beq.n	2990 <__aeabi_fmul+0x194>
    2986:	220f      	movs	r2, #15
    2988:	4022      	ands	r2, r4
    298a:	2a04      	cmp	r2, #4
    298c:	d000      	beq.n	2990 <__aeabi_fmul+0x194>
    298e:	3404      	adds	r4, #4
    2990:	0122      	lsls	r2, r4, #4
    2992:	d503      	bpl.n	299c <__aeabi_fmul+0x1a0>
    2994:	4b2d      	ldr	r3, [pc, #180]	; (2a4c <__aeabi_fmul+0x250>)
    2996:	401c      	ands	r4, r3
    2998:	464b      	mov	r3, r9
    299a:	3380      	adds	r3, #128	; 0x80
    299c:	2bfe      	cmp	r3, #254	; 0xfe
    299e:	dd17      	ble.n	29d0 <__aeabi_fmul+0x1d4>
    29a0:	9b01      	ldr	r3, [sp, #4]
    29a2:	2501      	movs	r5, #1
    29a4:	401d      	ands	r5, r3
    29a6:	2400      	movs	r4, #0
    29a8:	23ff      	movs	r3, #255	; 0xff
    29aa:	e76b      	b.n	2884 <__aeabi_fmul+0x88>
    29ac:	2080      	movs	r0, #128	; 0x80
    29ae:	03c0      	lsls	r0, r0, #15
    29b0:	4204      	tst	r4, r0
    29b2:	d008      	beq.n	29c6 <__aeabi_fmul+0x1ca>
    29b4:	4207      	tst	r7, r0
    29b6:	d106      	bne.n	29c6 <__aeabi_fmul+0x1ca>
    29b8:	1c04      	adds	r4, r0, #0
    29ba:	433c      	orrs	r4, r7
    29bc:	0264      	lsls	r4, r4, #9
    29be:	0a64      	lsrs	r4, r4, #9
    29c0:	465d      	mov	r5, r11
    29c2:	23ff      	movs	r3, #255	; 0xff
    29c4:	e75e      	b.n	2884 <__aeabi_fmul+0x88>
    29c6:	4304      	orrs	r4, r0
    29c8:	0264      	lsls	r4, r4, #9
    29ca:	0a64      	lsrs	r4, r4, #9
    29cc:	23ff      	movs	r3, #255	; 0xff
    29ce:	e759      	b.n	2884 <__aeabi_fmul+0x88>
    29d0:	9801      	ldr	r0, [sp, #4]
    29d2:	01a4      	lsls	r4, r4, #6
    29d4:	2501      	movs	r5, #1
    29d6:	0a64      	lsrs	r4, r4, #9
    29d8:	b2db      	uxtb	r3, r3
    29da:	4005      	ands	r5, r0
    29dc:	e752      	b.n	2884 <__aeabi_fmul+0x88>
    29de:	237e      	movs	r3, #126	; 0x7e
    29e0:	425b      	negs	r3, r3
    29e2:	464a      	mov	r2, r9
    29e4:	1a9b      	subs	r3, r3, r2
    29e6:	2b1b      	cmp	r3, #27
    29e8:	dd05      	ble.n	29f6 <__aeabi_fmul+0x1fa>
    29ea:	9b01      	ldr	r3, [sp, #4]
    29ec:	2501      	movs	r5, #1
    29ee:	401d      	ands	r5, r3
    29f0:	2400      	movs	r4, #0
    29f2:	2300      	movs	r3, #0
    29f4:	e746      	b.n	2884 <__aeabi_fmul+0x88>
    29f6:	1c22      	adds	r2, r4, #0
    29f8:	40da      	lsrs	r2, r3
    29fa:	464b      	mov	r3, r9
    29fc:	339e      	adds	r3, #158	; 0x9e
    29fe:	409c      	lsls	r4, r3
    2a00:	1c23      	adds	r3, r4, #0
    2a02:	1e5c      	subs	r4, r3, #1
    2a04:	41a3      	sbcs	r3, r4
    2a06:	4313      	orrs	r3, r2
    2a08:	0758      	lsls	r0, r3, #29
    2a0a:	d004      	beq.n	2a16 <__aeabi_fmul+0x21a>
    2a0c:	220f      	movs	r2, #15
    2a0e:	401a      	ands	r2, r3
    2a10:	2a04      	cmp	r2, #4
    2a12:	d000      	beq.n	2a16 <__aeabi_fmul+0x21a>
    2a14:	3304      	adds	r3, #4
    2a16:	015a      	lsls	r2, r3, #5
    2a18:	d505      	bpl.n	2a26 <__aeabi_fmul+0x22a>
    2a1a:	9b01      	ldr	r3, [sp, #4]
    2a1c:	2501      	movs	r5, #1
    2a1e:	401d      	ands	r5, r3
    2a20:	2400      	movs	r4, #0
    2a22:	2301      	movs	r3, #1
    2a24:	e72e      	b.n	2884 <__aeabi_fmul+0x88>
    2a26:	9801      	ldr	r0, [sp, #4]
    2a28:	019c      	lsls	r4, r3, #6
    2a2a:	2501      	movs	r5, #1
    2a2c:	0a64      	lsrs	r4, r4, #9
    2a2e:	4005      	ands	r5, r0
    2a30:	2300      	movs	r3, #0
    2a32:	e727      	b.n	2884 <__aeabi_fmul+0x88>
    2a34:	2780      	movs	r7, #128	; 0x80
    2a36:	03ff      	lsls	r7, r7, #15
    2a38:	9b01      	ldr	r3, [sp, #4]
    2a3a:	433c      	orrs	r4, r7
    2a3c:	0264      	lsls	r4, r4, #9
    2a3e:	2501      	movs	r5, #1
    2a40:	401d      	ands	r5, r3
    2a42:	0a64      	lsrs	r4, r4, #9
    2a44:	23ff      	movs	r3, #255	; 0xff
    2a46:	e71d      	b.n	2884 <__aeabi_fmul+0x88>
    2a48:	00006f30 	.word	0x00006f30
    2a4c:	f7ffffff 	.word	0xf7ffffff

00002a50 <__aeabi_f2iz>:
    2a50:	0243      	lsls	r3, r0, #9
    2a52:	0a59      	lsrs	r1, r3, #9
    2a54:	0043      	lsls	r3, r0, #1
    2a56:	0fc2      	lsrs	r2, r0, #31
    2a58:	0e1b      	lsrs	r3, r3, #24
    2a5a:	2000      	movs	r0, #0
    2a5c:	2b7e      	cmp	r3, #126	; 0x7e
    2a5e:	dd0d      	ble.n	2a7c <__aeabi_f2iz+0x2c>
    2a60:	2b9d      	cmp	r3, #157	; 0x9d
    2a62:	dc0c      	bgt.n	2a7e <__aeabi_f2iz+0x2e>
    2a64:	2080      	movs	r0, #128	; 0x80
    2a66:	0400      	lsls	r0, r0, #16
    2a68:	4301      	orrs	r1, r0
    2a6a:	2b95      	cmp	r3, #149	; 0x95
    2a6c:	dc0a      	bgt.n	2a84 <__aeabi_f2iz+0x34>
    2a6e:	2096      	movs	r0, #150	; 0x96
    2a70:	1ac3      	subs	r3, r0, r3
    2a72:	40d9      	lsrs	r1, r3
    2a74:	4248      	negs	r0, r1
    2a76:	2a00      	cmp	r2, #0
    2a78:	d100      	bne.n	2a7c <__aeabi_f2iz+0x2c>
    2a7a:	1c08      	adds	r0, r1, #0
    2a7c:	4770      	bx	lr
    2a7e:	4b03      	ldr	r3, [pc, #12]	; (2a8c <__aeabi_f2iz+0x3c>)
    2a80:	18d0      	adds	r0, r2, r3
    2a82:	e7fb      	b.n	2a7c <__aeabi_f2iz+0x2c>
    2a84:	3b96      	subs	r3, #150	; 0x96
    2a86:	4099      	lsls	r1, r3
    2a88:	e7f4      	b.n	2a74 <__aeabi_f2iz+0x24>
    2a8a:	46c0      	nop			; (mov r8, r8)
    2a8c:	7fffffff 	.word	0x7fffffff

00002a90 <__aeabi_ddiv>:
    2a90:	b5f0      	push	{r4, r5, r6, r7, lr}
    2a92:	4656      	mov	r6, r10
    2a94:	4644      	mov	r4, r8
    2a96:	465f      	mov	r7, r11
    2a98:	464d      	mov	r5, r9
    2a9a:	b4f0      	push	{r4, r5, r6, r7}
    2a9c:	1c1f      	adds	r7, r3, #0
    2a9e:	030b      	lsls	r3, r1, #12
    2aa0:	0b1b      	lsrs	r3, r3, #12
    2aa2:	4698      	mov	r8, r3
    2aa4:	004b      	lsls	r3, r1, #1
    2aa6:	b087      	sub	sp, #28
    2aa8:	1c04      	adds	r4, r0, #0
    2aaa:	4681      	mov	r9, r0
    2aac:	0d5b      	lsrs	r3, r3, #21
    2aae:	0fc8      	lsrs	r0, r1, #31
    2ab0:	1c16      	adds	r6, r2, #0
    2ab2:	469a      	mov	r10, r3
    2ab4:	9000      	str	r0, [sp, #0]
    2ab6:	2b00      	cmp	r3, #0
    2ab8:	d051      	beq.n	2b5e <__aeabi_ddiv+0xce>
    2aba:	4b6a      	ldr	r3, [pc, #424]	; (2c64 <__aeabi_ddiv+0x1d4>)
    2abc:	459a      	cmp	r10, r3
    2abe:	d031      	beq.n	2b24 <__aeabi_ddiv+0x94>
    2ac0:	2280      	movs	r2, #128	; 0x80
    2ac2:	4641      	mov	r1, r8
    2ac4:	0352      	lsls	r2, r2, #13
    2ac6:	430a      	orrs	r2, r1
    2ac8:	0f63      	lsrs	r3, r4, #29
    2aca:	00d2      	lsls	r2, r2, #3
    2acc:	431a      	orrs	r2, r3
    2ace:	4b66      	ldr	r3, [pc, #408]	; (2c68 <__aeabi_ddiv+0x1d8>)
    2ad0:	4690      	mov	r8, r2
    2ad2:	2500      	movs	r5, #0
    2ad4:	00e2      	lsls	r2, r4, #3
    2ad6:	4691      	mov	r9, r2
    2ad8:	449a      	add	r10, r3
    2ada:	2400      	movs	r4, #0
    2adc:	9502      	str	r5, [sp, #8]
    2ade:	033b      	lsls	r3, r7, #12
    2ae0:	0b1b      	lsrs	r3, r3, #12
    2ae2:	469b      	mov	r11, r3
    2ae4:	0ffd      	lsrs	r5, r7, #31
    2ae6:	007b      	lsls	r3, r7, #1
    2ae8:	1c31      	adds	r1, r6, #0
    2aea:	0d5b      	lsrs	r3, r3, #21
    2aec:	9501      	str	r5, [sp, #4]
    2aee:	d060      	beq.n	2bb2 <__aeabi_ddiv+0x122>
    2af0:	4a5c      	ldr	r2, [pc, #368]	; (2c64 <__aeabi_ddiv+0x1d4>)
    2af2:	4293      	cmp	r3, r2
    2af4:	d054      	beq.n	2ba0 <__aeabi_ddiv+0x110>
    2af6:	2180      	movs	r1, #128	; 0x80
    2af8:	4658      	mov	r0, r11
    2afa:	0349      	lsls	r1, r1, #13
    2afc:	4301      	orrs	r1, r0
    2afe:	0f72      	lsrs	r2, r6, #29
    2b00:	00c9      	lsls	r1, r1, #3
    2b02:	4311      	orrs	r1, r2
    2b04:	4a58      	ldr	r2, [pc, #352]	; (2c68 <__aeabi_ddiv+0x1d8>)
    2b06:	468b      	mov	r11, r1
    2b08:	189b      	adds	r3, r3, r2
    2b0a:	00f1      	lsls	r1, r6, #3
    2b0c:	2000      	movs	r0, #0
    2b0e:	9a00      	ldr	r2, [sp, #0]
    2b10:	4304      	orrs	r4, r0
    2b12:	406a      	eors	r2, r5
    2b14:	9203      	str	r2, [sp, #12]
    2b16:	2c0f      	cmp	r4, #15
    2b18:	d900      	bls.n	2b1c <__aeabi_ddiv+0x8c>
    2b1a:	e0ad      	b.n	2c78 <__aeabi_ddiv+0x1e8>
    2b1c:	4e53      	ldr	r6, [pc, #332]	; (2c6c <__aeabi_ddiv+0x1dc>)
    2b1e:	00a4      	lsls	r4, r4, #2
    2b20:	5934      	ldr	r4, [r6, r4]
    2b22:	46a7      	mov	pc, r4
    2b24:	4640      	mov	r0, r8
    2b26:	4304      	orrs	r4, r0
    2b28:	d16e      	bne.n	2c08 <__aeabi_ddiv+0x178>
    2b2a:	2100      	movs	r1, #0
    2b2c:	2502      	movs	r5, #2
    2b2e:	2408      	movs	r4, #8
    2b30:	4688      	mov	r8, r1
    2b32:	4689      	mov	r9, r1
    2b34:	9502      	str	r5, [sp, #8]
    2b36:	e7d2      	b.n	2ade <__aeabi_ddiv+0x4e>
    2b38:	9c00      	ldr	r4, [sp, #0]
    2b3a:	9802      	ldr	r0, [sp, #8]
    2b3c:	46c3      	mov	r11, r8
    2b3e:	4649      	mov	r1, r9
    2b40:	9401      	str	r4, [sp, #4]
    2b42:	2802      	cmp	r0, #2
    2b44:	d064      	beq.n	2c10 <__aeabi_ddiv+0x180>
    2b46:	2803      	cmp	r0, #3
    2b48:	d100      	bne.n	2b4c <__aeabi_ddiv+0xbc>
    2b4a:	e2ab      	b.n	30a4 <__aeabi_ddiv+0x614>
    2b4c:	2801      	cmp	r0, #1
    2b4e:	d000      	beq.n	2b52 <__aeabi_ddiv+0xc2>
    2b50:	e238      	b.n	2fc4 <__aeabi_ddiv+0x534>
    2b52:	9a01      	ldr	r2, [sp, #4]
    2b54:	2400      	movs	r4, #0
    2b56:	4002      	ands	r2, r0
    2b58:	2500      	movs	r5, #0
    2b5a:	46a1      	mov	r9, r4
    2b5c:	e060      	b.n	2c20 <__aeabi_ddiv+0x190>
    2b5e:	4643      	mov	r3, r8
    2b60:	4323      	orrs	r3, r4
    2b62:	d04a      	beq.n	2bfa <__aeabi_ddiv+0x16a>
    2b64:	4640      	mov	r0, r8
    2b66:	2800      	cmp	r0, #0
    2b68:	d100      	bne.n	2b6c <__aeabi_ddiv+0xdc>
    2b6a:	e1c0      	b.n	2eee <__aeabi_ddiv+0x45e>
    2b6c:	f000 fdb6 	bl	36dc <__clzsi2>
    2b70:	1e03      	subs	r3, r0, #0
    2b72:	2b27      	cmp	r3, #39	; 0x27
    2b74:	dd00      	ble.n	2b78 <__aeabi_ddiv+0xe8>
    2b76:	e1b3      	b.n	2ee0 <__aeabi_ddiv+0x450>
    2b78:	2128      	movs	r1, #40	; 0x28
    2b7a:	1a0d      	subs	r5, r1, r0
    2b7c:	1c21      	adds	r1, r4, #0
    2b7e:	3b08      	subs	r3, #8
    2b80:	4642      	mov	r2, r8
    2b82:	40e9      	lsrs	r1, r5
    2b84:	409a      	lsls	r2, r3
    2b86:	1c0d      	adds	r5, r1, #0
    2b88:	4315      	orrs	r5, r2
    2b8a:	1c22      	adds	r2, r4, #0
    2b8c:	409a      	lsls	r2, r3
    2b8e:	46a8      	mov	r8, r5
    2b90:	4691      	mov	r9, r2
    2b92:	4b37      	ldr	r3, [pc, #220]	; (2c70 <__aeabi_ddiv+0x1e0>)
    2b94:	2500      	movs	r5, #0
    2b96:	1a1b      	subs	r3, r3, r0
    2b98:	469a      	mov	r10, r3
    2b9a:	2400      	movs	r4, #0
    2b9c:	9502      	str	r5, [sp, #8]
    2b9e:	e79e      	b.n	2ade <__aeabi_ddiv+0x4e>
    2ba0:	465a      	mov	r2, r11
    2ba2:	4316      	orrs	r6, r2
    2ba4:	2003      	movs	r0, #3
    2ba6:	2e00      	cmp	r6, #0
    2ba8:	d1b1      	bne.n	2b0e <__aeabi_ddiv+0x7e>
    2baa:	46b3      	mov	r11, r6
    2bac:	2100      	movs	r1, #0
    2bae:	2002      	movs	r0, #2
    2bb0:	e7ad      	b.n	2b0e <__aeabi_ddiv+0x7e>
    2bb2:	465a      	mov	r2, r11
    2bb4:	4332      	orrs	r2, r6
    2bb6:	d01b      	beq.n	2bf0 <__aeabi_ddiv+0x160>
    2bb8:	465b      	mov	r3, r11
    2bba:	2b00      	cmp	r3, #0
    2bbc:	d100      	bne.n	2bc0 <__aeabi_ddiv+0x130>
    2bbe:	e18a      	b.n	2ed6 <__aeabi_ddiv+0x446>
    2bc0:	4658      	mov	r0, r11
    2bc2:	f000 fd8b 	bl	36dc <__clzsi2>
    2bc6:	2827      	cmp	r0, #39	; 0x27
    2bc8:	dd00      	ble.n	2bcc <__aeabi_ddiv+0x13c>
    2bca:	e17d      	b.n	2ec8 <__aeabi_ddiv+0x438>
    2bcc:	2228      	movs	r2, #40	; 0x28
    2bce:	1a17      	subs	r7, r2, r0
    2bd0:	1c01      	adds	r1, r0, #0
    2bd2:	1c32      	adds	r2, r6, #0
    2bd4:	3908      	subs	r1, #8
    2bd6:	465b      	mov	r3, r11
    2bd8:	40fa      	lsrs	r2, r7
    2bda:	408b      	lsls	r3, r1
    2bdc:	1c17      	adds	r7, r2, #0
    2bde:	431f      	orrs	r7, r3
    2be0:	1c33      	adds	r3, r6, #0
    2be2:	408b      	lsls	r3, r1
    2be4:	46bb      	mov	r11, r7
    2be6:	1c19      	adds	r1, r3, #0
    2be8:	4b21      	ldr	r3, [pc, #132]	; (2c70 <__aeabi_ddiv+0x1e0>)
    2bea:	1a1b      	subs	r3, r3, r0
    2bec:	2000      	movs	r0, #0
    2bee:	e78e      	b.n	2b0e <__aeabi_ddiv+0x7e>
    2bf0:	2700      	movs	r7, #0
    2bf2:	46bb      	mov	r11, r7
    2bf4:	2100      	movs	r1, #0
    2bf6:	2001      	movs	r0, #1
    2bf8:	e789      	b.n	2b0e <__aeabi_ddiv+0x7e>
    2bfa:	2000      	movs	r0, #0
    2bfc:	2501      	movs	r5, #1
    2bfe:	2404      	movs	r4, #4
    2c00:	4680      	mov	r8, r0
    2c02:	4681      	mov	r9, r0
    2c04:	9502      	str	r5, [sp, #8]
    2c06:	e76a      	b.n	2ade <__aeabi_ddiv+0x4e>
    2c08:	2503      	movs	r5, #3
    2c0a:	240c      	movs	r4, #12
    2c0c:	9502      	str	r5, [sp, #8]
    2c0e:	e766      	b.n	2ade <__aeabi_ddiv+0x4e>
    2c10:	9c01      	ldr	r4, [sp, #4]
    2c12:	9403      	str	r4, [sp, #12]
    2c14:	9d03      	ldr	r5, [sp, #12]
    2c16:	2201      	movs	r2, #1
    2c18:	402a      	ands	r2, r5
    2c1a:	2400      	movs	r4, #0
    2c1c:	4d11      	ldr	r5, [pc, #68]	; (2c64 <__aeabi_ddiv+0x1d4>)
    2c1e:	46a1      	mov	r9, r4
    2c20:	2000      	movs	r0, #0
    2c22:	2100      	movs	r1, #0
    2c24:	0324      	lsls	r4, r4, #12
    2c26:	0b26      	lsrs	r6, r4, #12
    2c28:	0d0c      	lsrs	r4, r1, #20
    2c2a:	0524      	lsls	r4, r4, #20
    2c2c:	4b11      	ldr	r3, [pc, #68]	; (2c74 <__aeabi_ddiv+0x1e4>)
    2c2e:	4334      	orrs	r4, r6
    2c30:	052d      	lsls	r5, r5, #20
    2c32:	4023      	ands	r3, r4
    2c34:	432b      	orrs	r3, r5
    2c36:	005b      	lsls	r3, r3, #1
    2c38:	085b      	lsrs	r3, r3, #1
    2c3a:	07d2      	lsls	r2, r2, #31
    2c3c:	1c19      	adds	r1, r3, #0
    2c3e:	4648      	mov	r0, r9
    2c40:	4311      	orrs	r1, r2
    2c42:	b007      	add	sp, #28
    2c44:	bc3c      	pop	{r2, r3, r4, r5}
    2c46:	4690      	mov	r8, r2
    2c48:	4699      	mov	r9, r3
    2c4a:	46a2      	mov	r10, r4
    2c4c:	46ab      	mov	r11, r5
    2c4e:	bdf0      	pop	{r4, r5, r6, r7, pc}
    2c50:	2200      	movs	r2, #0
    2c52:	2480      	movs	r4, #128	; 0x80
    2c54:	0324      	lsls	r4, r4, #12
    2c56:	4691      	mov	r9, r2
    2c58:	4d02      	ldr	r5, [pc, #8]	; (2c64 <__aeabi_ddiv+0x1d4>)
    2c5a:	e7e1      	b.n	2c20 <__aeabi_ddiv+0x190>
    2c5c:	2400      	movs	r4, #0
    2c5e:	2500      	movs	r5, #0
    2c60:	46a1      	mov	r9, r4
    2c62:	e7dd      	b.n	2c20 <__aeabi_ddiv+0x190>
    2c64:	000007ff 	.word	0x000007ff
    2c68:	fffffc01 	.word	0xfffffc01
    2c6c:	00006f70 	.word	0x00006f70
    2c70:	fffffc0d 	.word	0xfffffc0d
    2c74:	800fffff 	.word	0x800fffff
    2c78:	4655      	mov	r5, r10
    2c7a:	1aed      	subs	r5, r5, r3
    2c7c:	9504      	str	r5, [sp, #16]
    2c7e:	45d8      	cmp	r8, r11
    2c80:	d900      	bls.n	2c84 <__aeabi_ddiv+0x1f4>
    2c82:	e153      	b.n	2f2c <__aeabi_ddiv+0x49c>
    2c84:	d100      	bne.n	2c88 <__aeabi_ddiv+0x1f8>
    2c86:	e14e      	b.n	2f26 <__aeabi_ddiv+0x496>
    2c88:	9c04      	ldr	r4, [sp, #16]
    2c8a:	2500      	movs	r5, #0
    2c8c:	3c01      	subs	r4, #1
    2c8e:	464e      	mov	r6, r9
    2c90:	9404      	str	r4, [sp, #16]
    2c92:	4647      	mov	r7, r8
    2c94:	46a9      	mov	r9, r5
    2c96:	4658      	mov	r0, r11
    2c98:	0203      	lsls	r3, r0, #8
    2c9a:	0e0c      	lsrs	r4, r1, #24
    2c9c:	431c      	orrs	r4, r3
    2c9e:	0209      	lsls	r1, r1, #8
    2ca0:	0c25      	lsrs	r5, r4, #16
    2ca2:	0423      	lsls	r3, r4, #16
    2ca4:	0c1b      	lsrs	r3, r3, #16
    2ca6:	9100      	str	r1, [sp, #0]
    2ca8:	1c38      	adds	r0, r7, #0
    2caa:	1c29      	adds	r1, r5, #0
    2cac:	9301      	str	r3, [sp, #4]
    2cae:	f7ff fd55 	bl	275c <__aeabi_uidiv>
    2cb2:	9901      	ldr	r1, [sp, #4]
    2cb4:	4683      	mov	r11, r0
    2cb6:	4341      	muls	r1, r0
    2cb8:	1c38      	adds	r0, r7, #0
    2cba:	468a      	mov	r10, r1
    2cbc:	1c29      	adds	r1, r5, #0
    2cbe:	f7ff fd91 	bl	27e4 <__aeabi_uidivmod>
    2cc2:	0c33      	lsrs	r3, r6, #16
    2cc4:	0409      	lsls	r1, r1, #16
    2cc6:	4319      	orrs	r1, r3
    2cc8:	458a      	cmp	r10, r1
    2cca:	d90c      	bls.n	2ce6 <__aeabi_ddiv+0x256>
    2ccc:	465b      	mov	r3, r11
    2cce:	1909      	adds	r1, r1, r4
    2cd0:	3b01      	subs	r3, #1
    2cd2:	428c      	cmp	r4, r1
    2cd4:	d900      	bls.n	2cd8 <__aeabi_ddiv+0x248>
    2cd6:	e147      	b.n	2f68 <__aeabi_ddiv+0x4d8>
    2cd8:	458a      	cmp	r10, r1
    2cda:	d800      	bhi.n	2cde <__aeabi_ddiv+0x24e>
    2cdc:	e144      	b.n	2f68 <__aeabi_ddiv+0x4d8>
    2cde:	2202      	movs	r2, #2
    2ce0:	4252      	negs	r2, r2
    2ce2:	4493      	add	r11, r2
    2ce4:	1909      	adds	r1, r1, r4
    2ce6:	4653      	mov	r3, r10
    2ce8:	1acb      	subs	r3, r1, r3
    2cea:	1c18      	adds	r0, r3, #0
    2cec:	1c29      	adds	r1, r5, #0
    2cee:	4698      	mov	r8, r3
    2cf0:	f7ff fd34 	bl	275c <__aeabi_uidiv>
    2cf4:	1c07      	adds	r7, r0, #0
    2cf6:	9801      	ldr	r0, [sp, #4]
    2cf8:	1c29      	adds	r1, r5, #0
    2cfa:	4378      	muls	r0, r7
    2cfc:	4682      	mov	r10, r0
    2cfe:	4640      	mov	r0, r8
    2d00:	f7ff fd70 	bl	27e4 <__aeabi_uidivmod>
    2d04:	0436      	lsls	r6, r6, #16
    2d06:	040b      	lsls	r3, r1, #16
    2d08:	0c36      	lsrs	r6, r6, #16
    2d0a:	4333      	orrs	r3, r6
    2d0c:	459a      	cmp	r10, r3
    2d0e:	d909      	bls.n	2d24 <__aeabi_ddiv+0x294>
    2d10:	191b      	adds	r3, r3, r4
    2d12:	1e7a      	subs	r2, r7, #1
    2d14:	429c      	cmp	r4, r3
    2d16:	d900      	bls.n	2d1a <__aeabi_ddiv+0x28a>
    2d18:	e124      	b.n	2f64 <__aeabi_ddiv+0x4d4>
    2d1a:	459a      	cmp	r10, r3
    2d1c:	d800      	bhi.n	2d20 <__aeabi_ddiv+0x290>
    2d1e:	e121      	b.n	2f64 <__aeabi_ddiv+0x4d4>
    2d20:	3f02      	subs	r7, #2
    2d22:	191b      	adds	r3, r3, r4
    2d24:	465e      	mov	r6, r11
    2d26:	0432      	lsls	r2, r6, #16
    2d28:	4317      	orrs	r7, r2
    2d2a:	0c38      	lsrs	r0, r7, #16
    2d2c:	46bb      	mov	r11, r7
    2d2e:	9e00      	ldr	r6, [sp, #0]
    2d30:	9f00      	ldr	r7, [sp, #0]
    2d32:	4651      	mov	r1, r10
    2d34:	0c3f      	lsrs	r7, r7, #16
    2d36:	0432      	lsls	r2, r6, #16
    2d38:	1a5b      	subs	r3, r3, r1
    2d3a:	4659      	mov	r1, r11
    2d3c:	46ba      	mov	r10, r7
    2d3e:	0c12      	lsrs	r2, r2, #16
    2d40:	040f      	lsls	r7, r1, #16
    2d42:	0c3f      	lsrs	r7, r7, #16
    2d44:	4690      	mov	r8, r2
    2d46:	4651      	mov	r1, r10
    2d48:	437a      	muls	r2, r7
    2d4a:	434f      	muls	r7, r1
    2d4c:	4641      	mov	r1, r8
    2d4e:	4341      	muls	r1, r0
    2d50:	4656      	mov	r6, r10
    2d52:	4370      	muls	r0, r6
    2d54:	19cf      	adds	r7, r1, r7
    2d56:	0c16      	lsrs	r6, r2, #16
    2d58:	19be      	adds	r6, r7, r6
    2d5a:	42b1      	cmp	r1, r6
    2d5c:	d902      	bls.n	2d64 <__aeabi_ddiv+0x2d4>
    2d5e:	2780      	movs	r7, #128	; 0x80
    2d60:	027f      	lsls	r7, r7, #9
    2d62:	19c0      	adds	r0, r0, r7
    2d64:	0c31      	lsrs	r1, r6, #16
    2d66:	0412      	lsls	r2, r2, #16
    2d68:	0436      	lsls	r6, r6, #16
    2d6a:	0c12      	lsrs	r2, r2, #16
    2d6c:	1840      	adds	r0, r0, r1
    2d6e:	18b6      	adds	r6, r6, r2
    2d70:	4283      	cmp	r3, r0
    2d72:	d200      	bcs.n	2d76 <__aeabi_ddiv+0x2e6>
    2d74:	e0c4      	b.n	2f00 <__aeabi_ddiv+0x470>
    2d76:	d100      	bne.n	2d7a <__aeabi_ddiv+0x2ea>
    2d78:	e0be      	b.n	2ef8 <__aeabi_ddiv+0x468>
    2d7a:	1a19      	subs	r1, r3, r0
    2d7c:	4648      	mov	r0, r9
    2d7e:	1b86      	subs	r6, r0, r6
    2d80:	45b1      	cmp	r9, r6
    2d82:	41bf      	sbcs	r7, r7
    2d84:	427f      	negs	r7, r7
    2d86:	1bcf      	subs	r7, r1, r7
    2d88:	42a7      	cmp	r7, r4
    2d8a:	d100      	bne.n	2d8e <__aeabi_ddiv+0x2fe>
    2d8c:	e113      	b.n	2fb6 <__aeabi_ddiv+0x526>
    2d8e:	1c29      	adds	r1, r5, #0
    2d90:	1c38      	adds	r0, r7, #0
    2d92:	f7ff fce3 	bl	275c <__aeabi_uidiv>
    2d96:	9901      	ldr	r1, [sp, #4]
    2d98:	9002      	str	r0, [sp, #8]
    2d9a:	4341      	muls	r1, r0
    2d9c:	1c38      	adds	r0, r7, #0
    2d9e:	4689      	mov	r9, r1
    2da0:	1c29      	adds	r1, r5, #0
    2da2:	f7ff fd1f 	bl	27e4 <__aeabi_uidivmod>
    2da6:	0c33      	lsrs	r3, r6, #16
    2da8:	0409      	lsls	r1, r1, #16
    2daa:	4319      	orrs	r1, r3
    2dac:	4589      	cmp	r9, r1
    2dae:	d90c      	bls.n	2dca <__aeabi_ddiv+0x33a>
    2db0:	9b02      	ldr	r3, [sp, #8]
    2db2:	1909      	adds	r1, r1, r4
    2db4:	3b01      	subs	r3, #1
    2db6:	428c      	cmp	r4, r1
    2db8:	d900      	bls.n	2dbc <__aeabi_ddiv+0x32c>
    2dba:	e0ff      	b.n	2fbc <__aeabi_ddiv+0x52c>
    2dbc:	4589      	cmp	r9, r1
    2dbe:	d800      	bhi.n	2dc2 <__aeabi_ddiv+0x332>
    2dc0:	e0fc      	b.n	2fbc <__aeabi_ddiv+0x52c>
    2dc2:	9f02      	ldr	r7, [sp, #8]
    2dc4:	1909      	adds	r1, r1, r4
    2dc6:	3f02      	subs	r7, #2
    2dc8:	9702      	str	r7, [sp, #8]
    2dca:	464f      	mov	r7, r9
    2dcc:	1bcf      	subs	r7, r1, r7
    2dce:	1c38      	adds	r0, r7, #0
    2dd0:	1c29      	adds	r1, r5, #0
    2dd2:	9705      	str	r7, [sp, #20]
    2dd4:	f7ff fcc2 	bl	275c <__aeabi_uidiv>
    2dd8:	1c07      	adds	r7, r0, #0
    2dda:	9801      	ldr	r0, [sp, #4]
    2ddc:	1c29      	adds	r1, r5, #0
    2dde:	4378      	muls	r0, r7
    2de0:	4681      	mov	r9, r0
    2de2:	9805      	ldr	r0, [sp, #20]
    2de4:	f7ff fcfe 	bl	27e4 <__aeabi_uidivmod>
    2de8:	0436      	lsls	r6, r6, #16
    2dea:	0409      	lsls	r1, r1, #16
    2dec:	0c36      	lsrs	r6, r6, #16
    2dee:	430e      	orrs	r6, r1
    2df0:	45b1      	cmp	r9, r6
    2df2:	d909      	bls.n	2e08 <__aeabi_ddiv+0x378>
    2df4:	1936      	adds	r6, r6, r4
    2df6:	1e7b      	subs	r3, r7, #1
    2df8:	42b4      	cmp	r4, r6
    2dfa:	d900      	bls.n	2dfe <__aeabi_ddiv+0x36e>
    2dfc:	e0e0      	b.n	2fc0 <__aeabi_ddiv+0x530>
    2dfe:	45b1      	cmp	r9, r6
    2e00:	d800      	bhi.n	2e04 <__aeabi_ddiv+0x374>
    2e02:	e0dd      	b.n	2fc0 <__aeabi_ddiv+0x530>
    2e04:	3f02      	subs	r7, #2
    2e06:	1936      	adds	r6, r6, r4
    2e08:	9d02      	ldr	r5, [sp, #8]
    2e0a:	4649      	mov	r1, r9
    2e0c:	1a76      	subs	r6, r6, r1
    2e0e:	0429      	lsls	r1, r5, #16
    2e10:	4339      	orrs	r1, r7
    2e12:	040b      	lsls	r3, r1, #16
    2e14:	4657      	mov	r7, r10
    2e16:	0c0a      	lsrs	r2, r1, #16
    2e18:	0c1b      	lsrs	r3, r3, #16
    2e1a:	4640      	mov	r0, r8
    2e1c:	4645      	mov	r5, r8
    2e1e:	4358      	muls	r0, r3
    2e20:	4355      	muls	r5, r2
    2e22:	437b      	muls	r3, r7
    2e24:	437a      	muls	r2, r7
    2e26:	18eb      	adds	r3, r5, r3
    2e28:	0c07      	lsrs	r7, r0, #16
    2e2a:	19db      	adds	r3, r3, r7
    2e2c:	429d      	cmp	r5, r3
    2e2e:	d902      	bls.n	2e36 <__aeabi_ddiv+0x3a6>
    2e30:	2580      	movs	r5, #128	; 0x80
    2e32:	026d      	lsls	r5, r5, #9
    2e34:	1952      	adds	r2, r2, r5
    2e36:	0c1d      	lsrs	r5, r3, #16
    2e38:	0400      	lsls	r0, r0, #16
    2e3a:	041b      	lsls	r3, r3, #16
    2e3c:	0c00      	lsrs	r0, r0, #16
    2e3e:	1952      	adds	r2, r2, r5
    2e40:	181b      	adds	r3, r3, r0
    2e42:	4296      	cmp	r6, r2
    2e44:	d335      	bcc.n	2eb2 <__aeabi_ddiv+0x422>
    2e46:	d100      	bne.n	2e4a <__aeabi_ddiv+0x3ba>
    2e48:	e0fc      	b.n	3044 <__aeabi_ddiv+0x5b4>
    2e4a:	2301      	movs	r3, #1
    2e4c:	4319      	orrs	r1, r3
    2e4e:	9e04      	ldr	r6, [sp, #16]
    2e50:	4f99      	ldr	r7, [pc, #612]	; (30b8 <__aeabi_ddiv+0x628>)
    2e52:	19f5      	adds	r5, r6, r7
    2e54:	2d00      	cmp	r5, #0
    2e56:	dc00      	bgt.n	2e5a <__aeabi_ddiv+0x3ca>
    2e58:	e0a1      	b.n	2f9e <__aeabi_ddiv+0x50e>
    2e5a:	0748      	lsls	r0, r1, #29
    2e5c:	d009      	beq.n	2e72 <__aeabi_ddiv+0x3e2>
    2e5e:	230f      	movs	r3, #15
    2e60:	400b      	ands	r3, r1
    2e62:	2b04      	cmp	r3, #4
    2e64:	d005      	beq.n	2e72 <__aeabi_ddiv+0x3e2>
    2e66:	1d0b      	adds	r3, r1, #4
    2e68:	428b      	cmp	r3, r1
    2e6a:	4189      	sbcs	r1, r1
    2e6c:	4249      	negs	r1, r1
    2e6e:	448b      	add	r11, r1
    2e70:	1c19      	adds	r1, r3, #0
    2e72:	465a      	mov	r2, r11
    2e74:	01d2      	lsls	r2, r2, #7
    2e76:	d507      	bpl.n	2e88 <__aeabi_ddiv+0x3f8>
    2e78:	4b90      	ldr	r3, [pc, #576]	; (30bc <__aeabi_ddiv+0x62c>)
    2e7a:	465c      	mov	r4, r11
    2e7c:	9e04      	ldr	r6, [sp, #16]
    2e7e:	2780      	movs	r7, #128	; 0x80
    2e80:	401c      	ands	r4, r3
    2e82:	00ff      	lsls	r7, r7, #3
    2e84:	46a3      	mov	r11, r4
    2e86:	19f5      	adds	r5, r6, r7
    2e88:	4b8d      	ldr	r3, [pc, #564]	; (30c0 <__aeabi_ddiv+0x630>)
    2e8a:	429d      	cmp	r5, r3
    2e8c:	dd7a      	ble.n	2f84 <__aeabi_ddiv+0x4f4>
    2e8e:	9c03      	ldr	r4, [sp, #12]
    2e90:	2201      	movs	r2, #1
    2e92:	4022      	ands	r2, r4
    2e94:	2400      	movs	r4, #0
    2e96:	4d8b      	ldr	r5, [pc, #556]	; (30c4 <__aeabi_ddiv+0x634>)
    2e98:	46a1      	mov	r9, r4
    2e9a:	e6c1      	b.n	2c20 <__aeabi_ddiv+0x190>
    2e9c:	2480      	movs	r4, #128	; 0x80
    2e9e:	0324      	lsls	r4, r4, #12
    2ea0:	4647      	mov	r7, r8
    2ea2:	4227      	tst	r7, r4
    2ea4:	d14c      	bne.n	2f40 <__aeabi_ddiv+0x4b0>
    2ea6:	433c      	orrs	r4, r7
    2ea8:	0324      	lsls	r4, r4, #12
    2eaa:	0b24      	lsrs	r4, r4, #12
    2eac:	9a00      	ldr	r2, [sp, #0]
    2eae:	4d85      	ldr	r5, [pc, #532]	; (30c4 <__aeabi_ddiv+0x634>)
    2eb0:	e6b6      	b.n	2c20 <__aeabi_ddiv+0x190>
    2eb2:	1936      	adds	r6, r6, r4
    2eb4:	1e48      	subs	r0, r1, #1
    2eb6:	42b4      	cmp	r4, r6
    2eb8:	d95e      	bls.n	2f78 <__aeabi_ddiv+0x4e8>
    2eba:	1c01      	adds	r1, r0, #0
    2ebc:	4296      	cmp	r6, r2
    2ebe:	d1c4      	bne.n	2e4a <__aeabi_ddiv+0x3ba>
    2ec0:	9e00      	ldr	r6, [sp, #0]
    2ec2:	429e      	cmp	r6, r3
    2ec4:	d1c1      	bne.n	2e4a <__aeabi_ddiv+0x3ba>
    2ec6:	e7c2      	b.n	2e4e <__aeabi_ddiv+0x3be>
    2ec8:	1c03      	adds	r3, r0, #0
    2eca:	3b28      	subs	r3, #40	; 0x28
    2ecc:	1c31      	adds	r1, r6, #0
    2ece:	4099      	lsls	r1, r3
    2ed0:	468b      	mov	r11, r1
    2ed2:	2100      	movs	r1, #0
    2ed4:	e688      	b.n	2be8 <__aeabi_ddiv+0x158>
    2ed6:	1c30      	adds	r0, r6, #0
    2ed8:	f000 fc00 	bl	36dc <__clzsi2>
    2edc:	3020      	adds	r0, #32
    2ede:	e672      	b.n	2bc6 <__aeabi_ddiv+0x136>
    2ee0:	3b28      	subs	r3, #40	; 0x28
    2ee2:	1c21      	adds	r1, r4, #0
    2ee4:	4099      	lsls	r1, r3
    2ee6:	2200      	movs	r2, #0
    2ee8:	4688      	mov	r8, r1
    2eea:	4691      	mov	r9, r2
    2eec:	e651      	b.n	2b92 <__aeabi_ddiv+0x102>
    2eee:	1c20      	adds	r0, r4, #0
    2ef0:	f000 fbf4 	bl	36dc <__clzsi2>
    2ef4:	3020      	adds	r0, #32
    2ef6:	e63b      	b.n	2b70 <__aeabi_ddiv+0xe0>
    2ef8:	2100      	movs	r1, #0
    2efa:	45b1      	cmp	r9, r6
    2efc:	d300      	bcc.n	2f00 <__aeabi_ddiv+0x470>
    2efe:	e73d      	b.n	2d7c <__aeabi_ddiv+0x2ec>
    2f00:	9f00      	ldr	r7, [sp, #0]
    2f02:	465a      	mov	r2, r11
    2f04:	44b9      	add	r9, r7
    2f06:	45b9      	cmp	r9, r7
    2f08:	41bf      	sbcs	r7, r7
    2f0a:	427f      	negs	r7, r7
    2f0c:	193f      	adds	r7, r7, r4
    2f0e:	18fb      	adds	r3, r7, r3
    2f10:	3a01      	subs	r2, #1
    2f12:	429c      	cmp	r4, r3
    2f14:	d21e      	bcs.n	2f54 <__aeabi_ddiv+0x4c4>
    2f16:	4298      	cmp	r0, r3
    2f18:	d900      	bls.n	2f1c <__aeabi_ddiv+0x48c>
    2f1a:	e07e      	b.n	301a <__aeabi_ddiv+0x58a>
    2f1c:	d100      	bne.n	2f20 <__aeabi_ddiv+0x490>
    2f1e:	e0b5      	b.n	308c <__aeabi_ddiv+0x5fc>
    2f20:	1a19      	subs	r1, r3, r0
    2f22:	4693      	mov	r11, r2
    2f24:	e72a      	b.n	2d7c <__aeabi_ddiv+0x2ec>
    2f26:	4589      	cmp	r9, r1
    2f28:	d800      	bhi.n	2f2c <__aeabi_ddiv+0x49c>
    2f2a:	e6ad      	b.n	2c88 <__aeabi_ddiv+0x1f8>
    2f2c:	4648      	mov	r0, r9
    2f2e:	4646      	mov	r6, r8
    2f30:	4642      	mov	r2, r8
    2f32:	0877      	lsrs	r7, r6, #1
    2f34:	07d3      	lsls	r3, r2, #31
    2f36:	0846      	lsrs	r6, r0, #1
    2f38:	07c0      	lsls	r0, r0, #31
    2f3a:	431e      	orrs	r6, r3
    2f3c:	4681      	mov	r9, r0
    2f3e:	e6aa      	b.n	2c96 <__aeabi_ddiv+0x206>
    2f40:	4658      	mov	r0, r11
    2f42:	4220      	tst	r0, r4
    2f44:	d112      	bne.n	2f6c <__aeabi_ddiv+0x4dc>
    2f46:	4304      	orrs	r4, r0
    2f48:	0324      	lsls	r4, r4, #12
    2f4a:	1c2a      	adds	r2, r5, #0
    2f4c:	0b24      	lsrs	r4, r4, #12
    2f4e:	4689      	mov	r9, r1
    2f50:	4d5c      	ldr	r5, [pc, #368]	; (30c4 <__aeabi_ddiv+0x634>)
    2f52:	e665      	b.n	2c20 <__aeabi_ddiv+0x190>
    2f54:	42a3      	cmp	r3, r4
    2f56:	d1e3      	bne.n	2f20 <__aeabi_ddiv+0x490>
    2f58:	9f00      	ldr	r7, [sp, #0]
    2f5a:	454f      	cmp	r7, r9
    2f5c:	d9db      	bls.n	2f16 <__aeabi_ddiv+0x486>
    2f5e:	1a21      	subs	r1, r4, r0
    2f60:	4693      	mov	r11, r2
    2f62:	e70b      	b.n	2d7c <__aeabi_ddiv+0x2ec>
    2f64:	1c17      	adds	r7, r2, #0
    2f66:	e6dd      	b.n	2d24 <__aeabi_ddiv+0x294>
    2f68:	469b      	mov	r11, r3
    2f6a:	e6bc      	b.n	2ce6 <__aeabi_ddiv+0x256>
    2f6c:	433c      	orrs	r4, r7
    2f6e:	0324      	lsls	r4, r4, #12
    2f70:	0b24      	lsrs	r4, r4, #12
    2f72:	9a00      	ldr	r2, [sp, #0]
    2f74:	4d53      	ldr	r5, [pc, #332]	; (30c4 <__aeabi_ddiv+0x634>)
    2f76:	e653      	b.n	2c20 <__aeabi_ddiv+0x190>
    2f78:	42b2      	cmp	r2, r6
    2f7a:	d859      	bhi.n	3030 <__aeabi_ddiv+0x5a0>
    2f7c:	d100      	bne.n	2f80 <__aeabi_ddiv+0x4f0>
    2f7e:	e08a      	b.n	3096 <__aeabi_ddiv+0x606>
    2f80:	1c01      	adds	r1, r0, #0
    2f82:	e762      	b.n	2e4a <__aeabi_ddiv+0x3ba>
    2f84:	465f      	mov	r7, r11
    2f86:	08c9      	lsrs	r1, r1, #3
    2f88:	077b      	lsls	r3, r7, #29
    2f8a:	9e03      	ldr	r6, [sp, #12]
    2f8c:	430b      	orrs	r3, r1
    2f8e:	027c      	lsls	r4, r7, #9
    2f90:	056d      	lsls	r5, r5, #21
    2f92:	2201      	movs	r2, #1
    2f94:	4699      	mov	r9, r3
    2f96:	0b24      	lsrs	r4, r4, #12
    2f98:	0d6d      	lsrs	r5, r5, #21
    2f9a:	4032      	ands	r2, r6
    2f9c:	e640      	b.n	2c20 <__aeabi_ddiv+0x190>
    2f9e:	4b4a      	ldr	r3, [pc, #296]	; (30c8 <__aeabi_ddiv+0x638>)
    2fa0:	9f04      	ldr	r7, [sp, #16]
    2fa2:	1bdb      	subs	r3, r3, r7
    2fa4:	2b38      	cmp	r3, #56	; 0x38
    2fa6:	dd10      	ble.n	2fca <__aeabi_ddiv+0x53a>
    2fa8:	9c03      	ldr	r4, [sp, #12]
    2faa:	2201      	movs	r2, #1
    2fac:	4022      	ands	r2, r4
    2fae:	2400      	movs	r4, #0
    2fb0:	2500      	movs	r5, #0
    2fb2:	46a1      	mov	r9, r4
    2fb4:	e634      	b.n	2c20 <__aeabi_ddiv+0x190>
    2fb6:	2101      	movs	r1, #1
    2fb8:	4249      	negs	r1, r1
    2fba:	e748      	b.n	2e4e <__aeabi_ddiv+0x3be>
    2fbc:	9302      	str	r3, [sp, #8]
    2fbe:	e704      	b.n	2dca <__aeabi_ddiv+0x33a>
    2fc0:	1c1f      	adds	r7, r3, #0
    2fc2:	e721      	b.n	2e08 <__aeabi_ddiv+0x378>
    2fc4:	9c01      	ldr	r4, [sp, #4]
    2fc6:	9403      	str	r4, [sp, #12]
    2fc8:	e741      	b.n	2e4e <__aeabi_ddiv+0x3be>
    2fca:	2b1f      	cmp	r3, #31
    2fcc:	dc40      	bgt.n	3050 <__aeabi_ddiv+0x5c0>
    2fce:	483f      	ldr	r0, [pc, #252]	; (30cc <__aeabi_ddiv+0x63c>)
    2fd0:	9f04      	ldr	r7, [sp, #16]
    2fd2:	1c0c      	adds	r4, r1, #0
    2fd4:	183a      	adds	r2, r7, r0
    2fd6:	4658      	mov	r0, r11
    2fd8:	4091      	lsls	r1, r2
    2fda:	40dc      	lsrs	r4, r3
    2fdc:	4090      	lsls	r0, r2
    2fde:	4320      	orrs	r0, r4
    2fe0:	1c0a      	adds	r2, r1, #0
    2fe2:	1e51      	subs	r1, r2, #1
    2fe4:	418a      	sbcs	r2, r1
    2fe6:	1c01      	adds	r1, r0, #0
    2fe8:	4311      	orrs	r1, r2
    2fea:	465a      	mov	r2, r11
    2fec:	40da      	lsrs	r2, r3
    2fee:	1c13      	adds	r3, r2, #0
    2ff0:	0748      	lsls	r0, r1, #29
    2ff2:	d009      	beq.n	3008 <__aeabi_ddiv+0x578>
    2ff4:	220f      	movs	r2, #15
    2ff6:	400a      	ands	r2, r1
    2ff8:	2a04      	cmp	r2, #4
    2ffa:	d005      	beq.n	3008 <__aeabi_ddiv+0x578>
    2ffc:	1d0a      	adds	r2, r1, #4
    2ffe:	428a      	cmp	r2, r1
    3000:	4189      	sbcs	r1, r1
    3002:	4249      	negs	r1, r1
    3004:	185b      	adds	r3, r3, r1
    3006:	1c11      	adds	r1, r2, #0
    3008:	021a      	lsls	r2, r3, #8
    300a:	d534      	bpl.n	3076 <__aeabi_ddiv+0x5e6>
    300c:	9c03      	ldr	r4, [sp, #12]
    300e:	2201      	movs	r2, #1
    3010:	4022      	ands	r2, r4
    3012:	2400      	movs	r4, #0
    3014:	2501      	movs	r5, #1
    3016:	46a1      	mov	r9, r4
    3018:	e602      	b.n	2c20 <__aeabi_ddiv+0x190>
    301a:	9f00      	ldr	r7, [sp, #0]
    301c:	2102      	movs	r1, #2
    301e:	4249      	negs	r1, r1
    3020:	44b9      	add	r9, r7
    3022:	448b      	add	r11, r1
    3024:	45b9      	cmp	r9, r7
    3026:	4189      	sbcs	r1, r1
    3028:	4249      	negs	r1, r1
    302a:	1909      	adds	r1, r1, r4
    302c:	18cb      	adds	r3, r1, r3
    302e:	e6a4      	b.n	2d7a <__aeabi_ddiv+0x2ea>
    3030:	9d00      	ldr	r5, [sp, #0]
    3032:	1e88      	subs	r0, r1, #2
    3034:	0069      	lsls	r1, r5, #1
    3036:	42a9      	cmp	r1, r5
    3038:	41ad      	sbcs	r5, r5
    303a:	426d      	negs	r5, r5
    303c:	192c      	adds	r4, r5, r4
    303e:	1936      	adds	r6, r6, r4
    3040:	9100      	str	r1, [sp, #0]
    3042:	e73a      	b.n	2eba <__aeabi_ddiv+0x42a>
    3044:	2b00      	cmp	r3, #0
    3046:	d000      	beq.n	304a <__aeabi_ddiv+0x5ba>
    3048:	e733      	b.n	2eb2 <__aeabi_ddiv+0x422>
    304a:	2400      	movs	r4, #0
    304c:	9400      	str	r4, [sp, #0]
    304e:	e737      	b.n	2ec0 <__aeabi_ddiv+0x430>
    3050:	4a1f      	ldr	r2, [pc, #124]	; (30d0 <__aeabi_ddiv+0x640>)
    3052:	9c04      	ldr	r4, [sp, #16]
    3054:	465d      	mov	r5, r11
    3056:	1b12      	subs	r2, r2, r4
    3058:	40d5      	lsrs	r5, r2
    305a:	1c2a      	adds	r2, r5, #0
    305c:	2b20      	cmp	r3, #32
    305e:	d01f      	beq.n	30a0 <__aeabi_ddiv+0x610>
    3060:	4e1c      	ldr	r6, [pc, #112]	; (30d4 <__aeabi_ddiv+0x644>)
    3062:	465f      	mov	r7, r11
    3064:	19a3      	adds	r3, r4, r6
    3066:	409f      	lsls	r7, r3
    3068:	1c3b      	adds	r3, r7, #0
    306a:	4319      	orrs	r1, r3
    306c:	1e4b      	subs	r3, r1, #1
    306e:	4199      	sbcs	r1, r3
    3070:	4311      	orrs	r1, r2
    3072:	2300      	movs	r3, #0
    3074:	e7bc      	b.n	2ff0 <__aeabi_ddiv+0x560>
    3076:	075a      	lsls	r2, r3, #29
    3078:	08c9      	lsrs	r1, r1, #3
    307a:	430a      	orrs	r2, r1
    307c:	9f03      	ldr	r7, [sp, #12]
    307e:	4691      	mov	r9, r2
    3080:	025b      	lsls	r3, r3, #9
    3082:	2201      	movs	r2, #1
    3084:	0b1c      	lsrs	r4, r3, #12
    3086:	403a      	ands	r2, r7
    3088:	2500      	movs	r5, #0
    308a:	e5c9      	b.n	2c20 <__aeabi_ddiv+0x190>
    308c:	454e      	cmp	r6, r9
    308e:	d8c4      	bhi.n	301a <__aeabi_ddiv+0x58a>
    3090:	4693      	mov	r11, r2
    3092:	2100      	movs	r1, #0
    3094:	e672      	b.n	2d7c <__aeabi_ddiv+0x2ec>
    3096:	9f00      	ldr	r7, [sp, #0]
    3098:	429f      	cmp	r7, r3
    309a:	d3c9      	bcc.n	3030 <__aeabi_ddiv+0x5a0>
    309c:	1c01      	adds	r1, r0, #0
    309e:	e70f      	b.n	2ec0 <__aeabi_ddiv+0x430>
    30a0:	2300      	movs	r3, #0
    30a2:	e7e2      	b.n	306a <__aeabi_ddiv+0x5da>
    30a4:	2480      	movs	r4, #128	; 0x80
    30a6:	0324      	lsls	r4, r4, #12
    30a8:	465f      	mov	r7, r11
    30aa:	433c      	orrs	r4, r7
    30ac:	0324      	lsls	r4, r4, #12
    30ae:	0b24      	lsrs	r4, r4, #12
    30b0:	9a01      	ldr	r2, [sp, #4]
    30b2:	4689      	mov	r9, r1
    30b4:	4d03      	ldr	r5, [pc, #12]	; (30c4 <__aeabi_ddiv+0x634>)
    30b6:	e5b3      	b.n	2c20 <__aeabi_ddiv+0x190>
    30b8:	000003ff 	.word	0x000003ff
    30bc:	feffffff 	.word	0xfeffffff
    30c0:	000007fe 	.word	0x000007fe
    30c4:	000007ff 	.word	0x000007ff
    30c8:	fffffc02 	.word	0xfffffc02
    30cc:	0000041e 	.word	0x0000041e
    30d0:	fffffbe2 	.word	0xfffffbe2
    30d4:	0000043e 	.word	0x0000043e

000030d8 <__aeabi_dmul>:
    30d8:	b5f0      	push	{r4, r5, r6, r7, lr}
    30da:	4656      	mov	r6, r10
    30dc:	4644      	mov	r4, r8
    30de:	465f      	mov	r7, r11
    30e0:	464d      	mov	r5, r9
    30e2:	b4f0      	push	{r4, r5, r6, r7}
    30e4:	1c1f      	adds	r7, r3, #0
    30e6:	030b      	lsls	r3, r1, #12
    30e8:	0b1b      	lsrs	r3, r3, #12
    30ea:	469a      	mov	r10, r3
    30ec:	004b      	lsls	r3, r1, #1
    30ee:	b087      	sub	sp, #28
    30f0:	1c04      	adds	r4, r0, #0
    30f2:	4680      	mov	r8, r0
    30f4:	0d5b      	lsrs	r3, r3, #21
    30f6:	0fc8      	lsrs	r0, r1, #31
    30f8:	1c16      	adds	r6, r2, #0
    30fa:	9302      	str	r3, [sp, #8]
    30fc:	4681      	mov	r9, r0
    30fe:	2b00      	cmp	r3, #0
    3100:	d068      	beq.n	31d4 <__aeabi_dmul+0xfc>
    3102:	4b69      	ldr	r3, [pc, #420]	; (32a8 <__aeabi_dmul+0x1d0>)
    3104:	9902      	ldr	r1, [sp, #8]
    3106:	4299      	cmp	r1, r3
    3108:	d032      	beq.n	3170 <__aeabi_dmul+0x98>
    310a:	2280      	movs	r2, #128	; 0x80
    310c:	4653      	mov	r3, r10
    310e:	0352      	lsls	r2, r2, #13
    3110:	431a      	orrs	r2, r3
    3112:	00d2      	lsls	r2, r2, #3
    3114:	0f63      	lsrs	r3, r4, #29
    3116:	431a      	orrs	r2, r3
    3118:	4692      	mov	r10, r2
    311a:	4a64      	ldr	r2, [pc, #400]	; (32ac <__aeabi_dmul+0x1d4>)
    311c:	00e0      	lsls	r0, r4, #3
    311e:	1889      	adds	r1, r1, r2
    3120:	4680      	mov	r8, r0
    3122:	9102      	str	r1, [sp, #8]
    3124:	2400      	movs	r4, #0
    3126:	2500      	movs	r5, #0
    3128:	033b      	lsls	r3, r7, #12
    312a:	0b1b      	lsrs	r3, r3, #12
    312c:	469b      	mov	r11, r3
    312e:	0078      	lsls	r0, r7, #1
    3130:	0ffb      	lsrs	r3, r7, #31
    3132:	1c32      	adds	r2, r6, #0
    3134:	0d40      	lsrs	r0, r0, #21
    3136:	9303      	str	r3, [sp, #12]
    3138:	d100      	bne.n	313c <__aeabi_dmul+0x64>
    313a:	e075      	b.n	3228 <__aeabi_dmul+0x150>
    313c:	4b5a      	ldr	r3, [pc, #360]	; (32a8 <__aeabi_dmul+0x1d0>)
    313e:	4298      	cmp	r0, r3
    3140:	d069      	beq.n	3216 <__aeabi_dmul+0x13e>
    3142:	2280      	movs	r2, #128	; 0x80
    3144:	4659      	mov	r1, r11
    3146:	0352      	lsls	r2, r2, #13
    3148:	430a      	orrs	r2, r1
    314a:	0f73      	lsrs	r3, r6, #29
    314c:	00d2      	lsls	r2, r2, #3
    314e:	431a      	orrs	r2, r3
    3150:	4b56      	ldr	r3, [pc, #344]	; (32ac <__aeabi_dmul+0x1d4>)
    3152:	4693      	mov	r11, r2
    3154:	18c0      	adds	r0, r0, r3
    3156:	00f2      	lsls	r2, r6, #3
    3158:	2300      	movs	r3, #0
    315a:	9903      	ldr	r1, [sp, #12]
    315c:	464e      	mov	r6, r9
    315e:	4071      	eors	r1, r6
    3160:	431c      	orrs	r4, r3
    3162:	2c0f      	cmp	r4, #15
    3164:	d900      	bls.n	3168 <__aeabi_dmul+0x90>
    3166:	e0a9      	b.n	32bc <__aeabi_dmul+0x1e4>
    3168:	4e51      	ldr	r6, [pc, #324]	; (32b0 <__aeabi_dmul+0x1d8>)
    316a:	00a4      	lsls	r4, r4, #2
    316c:	5934      	ldr	r4, [r6, r4]
    316e:	46a7      	mov	pc, r4
    3170:	4653      	mov	r3, r10
    3172:	431c      	orrs	r4, r3
    3174:	d000      	beq.n	3178 <__aeabi_dmul+0xa0>
    3176:	e087      	b.n	3288 <__aeabi_dmul+0x1b0>
    3178:	2500      	movs	r5, #0
    317a:	46aa      	mov	r10, r5
    317c:	46a8      	mov	r8, r5
    317e:	2408      	movs	r4, #8
    3180:	2502      	movs	r5, #2
    3182:	e7d1      	b.n	3128 <__aeabi_dmul+0x50>
    3184:	4649      	mov	r1, r9
    3186:	2d02      	cmp	r5, #2
    3188:	d06c      	beq.n	3264 <__aeabi_dmul+0x18c>
    318a:	2d03      	cmp	r5, #3
    318c:	d100      	bne.n	3190 <__aeabi_dmul+0xb8>
    318e:	e217      	b.n	35c0 <__aeabi_dmul+0x4e8>
    3190:	2d01      	cmp	r5, #1
    3192:	d000      	beq.n	3196 <__aeabi_dmul+0xbe>
    3194:	e158      	b.n	3448 <__aeabi_dmul+0x370>
    3196:	400d      	ands	r5, r1
    3198:	b2ed      	uxtb	r5, r5
    319a:	2400      	movs	r4, #0
    319c:	46a9      	mov	r9, r5
    319e:	2300      	movs	r3, #0
    31a0:	46a0      	mov	r8, r4
    31a2:	2000      	movs	r0, #0
    31a4:	2100      	movs	r1, #0
    31a6:	0325      	lsls	r5, r4, #12
    31a8:	0d0a      	lsrs	r2, r1, #20
    31aa:	051c      	lsls	r4, r3, #20
    31ac:	0b2d      	lsrs	r5, r5, #12
    31ae:	0512      	lsls	r2, r2, #20
    31b0:	4b40      	ldr	r3, [pc, #256]	; (32b4 <__aeabi_dmul+0x1dc>)
    31b2:	432a      	orrs	r2, r5
    31b4:	4013      	ands	r3, r2
    31b6:	4323      	orrs	r3, r4
    31b8:	005b      	lsls	r3, r3, #1
    31ba:	464c      	mov	r4, r9
    31bc:	085b      	lsrs	r3, r3, #1
    31be:	07e2      	lsls	r2, r4, #31
    31c0:	1c19      	adds	r1, r3, #0
    31c2:	4640      	mov	r0, r8
    31c4:	4311      	orrs	r1, r2
    31c6:	b007      	add	sp, #28
    31c8:	bc3c      	pop	{r2, r3, r4, r5}
    31ca:	4690      	mov	r8, r2
    31cc:	4699      	mov	r9, r3
    31ce:	46a2      	mov	r10, r4
    31d0:	46ab      	mov	r11, r5
    31d2:	bdf0      	pop	{r4, r5, r6, r7, pc}
    31d4:	4653      	mov	r3, r10
    31d6:	4323      	orrs	r3, r4
    31d8:	d050      	beq.n	327c <__aeabi_dmul+0x1a4>
    31da:	4653      	mov	r3, r10
    31dc:	2b00      	cmp	r3, #0
    31de:	d100      	bne.n	31e2 <__aeabi_dmul+0x10a>
    31e0:	e184      	b.n	34ec <__aeabi_dmul+0x414>
    31e2:	4650      	mov	r0, r10
    31e4:	f000 fa7a 	bl	36dc <__clzsi2>
    31e8:	1e03      	subs	r3, r0, #0
    31ea:	2b27      	cmp	r3, #39	; 0x27
    31ec:	dd00      	ble.n	31f0 <__aeabi_dmul+0x118>
    31ee:	e176      	b.n	34de <__aeabi_dmul+0x406>
    31f0:	2128      	movs	r1, #40	; 0x28
    31f2:	1a0d      	subs	r5, r1, r0
    31f4:	1c21      	adds	r1, r4, #0
    31f6:	3b08      	subs	r3, #8
    31f8:	4652      	mov	r2, r10
    31fa:	40e9      	lsrs	r1, r5
    31fc:	409a      	lsls	r2, r3
    31fe:	1c0d      	adds	r5, r1, #0
    3200:	4315      	orrs	r5, r2
    3202:	1c22      	adds	r2, r4, #0
    3204:	409a      	lsls	r2, r3
    3206:	46aa      	mov	r10, r5
    3208:	4690      	mov	r8, r2
    320a:	4b2b      	ldr	r3, [pc, #172]	; (32b8 <__aeabi_dmul+0x1e0>)
    320c:	2400      	movs	r4, #0
    320e:	1a1b      	subs	r3, r3, r0
    3210:	9302      	str	r3, [sp, #8]
    3212:	2500      	movs	r5, #0
    3214:	e788      	b.n	3128 <__aeabi_dmul+0x50>
    3216:	465b      	mov	r3, r11
    3218:	431e      	orrs	r6, r3
    321a:	2303      	movs	r3, #3
    321c:	2e00      	cmp	r6, #0
    321e:	d19c      	bne.n	315a <__aeabi_dmul+0x82>
    3220:	46b3      	mov	r11, r6
    3222:	2200      	movs	r2, #0
    3224:	2302      	movs	r3, #2
    3226:	e798      	b.n	315a <__aeabi_dmul+0x82>
    3228:	465b      	mov	r3, r11
    322a:	4333      	orrs	r3, r6
    322c:	d021      	beq.n	3272 <__aeabi_dmul+0x19a>
    322e:	4658      	mov	r0, r11
    3230:	2800      	cmp	r0, #0
    3232:	d100      	bne.n	3236 <__aeabi_dmul+0x15e>
    3234:	e14e      	b.n	34d4 <__aeabi_dmul+0x3fc>
    3236:	f000 fa51 	bl	36dc <__clzsi2>
    323a:	2827      	cmp	r0, #39	; 0x27
    323c:	dd00      	ble.n	3240 <__aeabi_dmul+0x168>
    323e:	e142      	b.n	34c6 <__aeabi_dmul+0x3ee>
    3240:	2128      	movs	r1, #40	; 0x28
    3242:	1a0f      	subs	r7, r1, r0
    3244:	1c02      	adds	r2, r0, #0
    3246:	1c31      	adds	r1, r6, #0
    3248:	3a08      	subs	r2, #8
    324a:	465b      	mov	r3, r11
    324c:	40f9      	lsrs	r1, r7
    324e:	4093      	lsls	r3, r2
    3250:	1c0f      	adds	r7, r1, #0
    3252:	431f      	orrs	r7, r3
    3254:	1c33      	adds	r3, r6, #0
    3256:	4093      	lsls	r3, r2
    3258:	46bb      	mov	r11, r7
    325a:	1c1a      	adds	r2, r3, #0
    325c:	4b16      	ldr	r3, [pc, #88]	; (32b8 <__aeabi_dmul+0x1e0>)
    325e:	1a18      	subs	r0, r3, r0
    3260:	2300      	movs	r3, #0
    3262:	e77a      	b.n	315a <__aeabi_dmul+0x82>
    3264:	2301      	movs	r3, #1
    3266:	400b      	ands	r3, r1
    3268:	2400      	movs	r4, #0
    326a:	4699      	mov	r9, r3
    326c:	46a0      	mov	r8, r4
    326e:	4b0e      	ldr	r3, [pc, #56]	; (32a8 <__aeabi_dmul+0x1d0>)
    3270:	e797      	b.n	31a2 <__aeabi_dmul+0xca>
    3272:	2700      	movs	r7, #0
    3274:	46bb      	mov	r11, r7
    3276:	2200      	movs	r2, #0
    3278:	2301      	movs	r3, #1
    327a:	e76e      	b.n	315a <__aeabi_dmul+0x82>
    327c:	2100      	movs	r1, #0
    327e:	2404      	movs	r4, #4
    3280:	468a      	mov	r10, r1
    3282:	4688      	mov	r8, r1
    3284:	2501      	movs	r5, #1
    3286:	e74f      	b.n	3128 <__aeabi_dmul+0x50>
    3288:	240c      	movs	r4, #12
    328a:	2503      	movs	r5, #3
    328c:	e74c      	b.n	3128 <__aeabi_dmul+0x50>
    328e:	2500      	movs	r5, #0
    3290:	2480      	movs	r4, #128	; 0x80
    3292:	46a9      	mov	r9, r5
    3294:	0324      	lsls	r4, r4, #12
    3296:	46a8      	mov	r8, r5
    3298:	4b03      	ldr	r3, [pc, #12]	; (32a8 <__aeabi_dmul+0x1d0>)
    329a:	e782      	b.n	31a2 <__aeabi_dmul+0xca>
    329c:	46da      	mov	r10, r11
    329e:	4690      	mov	r8, r2
    32a0:	9903      	ldr	r1, [sp, #12]
    32a2:	1c1d      	adds	r5, r3, #0
    32a4:	e76f      	b.n	3186 <__aeabi_dmul+0xae>
    32a6:	46c0      	nop			; (mov r8, r8)
    32a8:	000007ff 	.word	0x000007ff
    32ac:	fffffc01 	.word	0xfffffc01
    32b0:	00006fb0 	.word	0x00006fb0
    32b4:	800fffff 	.word	0x800fffff
    32b8:	fffffc0d 	.word	0xfffffc0d
    32bc:	9f02      	ldr	r7, [sp, #8]
    32be:	0c16      	lsrs	r6, r2, #16
    32c0:	1838      	adds	r0, r7, r0
    32c2:	9004      	str	r0, [sp, #16]
    32c4:	4640      	mov	r0, r8
    32c6:	0c07      	lsrs	r7, r0, #16
    32c8:	0400      	lsls	r0, r0, #16
    32ca:	0c00      	lsrs	r0, r0, #16
    32cc:	0412      	lsls	r2, r2, #16
    32ce:	0c12      	lsrs	r2, r2, #16
    32d0:	1c03      	adds	r3, r0, #0
    32d2:	4353      	muls	r3, r2
    32d4:	1c04      	adds	r4, r0, #0
    32d6:	1c3d      	adds	r5, r7, #0
    32d8:	4374      	muls	r4, r6
    32da:	4355      	muls	r5, r2
    32dc:	4698      	mov	r8, r3
    32de:	1c3b      	adds	r3, r7, #0
    32e0:	4373      	muls	r3, r6
    32e2:	1964      	adds	r4, r4, r5
    32e4:	46a4      	mov	r12, r4
    32e6:	4644      	mov	r4, r8
    32e8:	9302      	str	r3, [sp, #8]
    32ea:	0c23      	lsrs	r3, r4, #16
    32ec:	4463      	add	r3, r12
    32ee:	429d      	cmp	r5, r3
    32f0:	d904      	bls.n	32fc <__aeabi_dmul+0x224>
    32f2:	9d02      	ldr	r5, [sp, #8]
    32f4:	2480      	movs	r4, #128	; 0x80
    32f6:	0264      	lsls	r4, r4, #9
    32f8:	192d      	adds	r5, r5, r4
    32fa:	9502      	str	r5, [sp, #8]
    32fc:	0c1d      	lsrs	r5, r3, #16
    32fe:	9503      	str	r5, [sp, #12]
    3300:	4645      	mov	r5, r8
    3302:	042c      	lsls	r4, r5, #16
    3304:	041b      	lsls	r3, r3, #16
    3306:	0c24      	lsrs	r4, r4, #16
    3308:	191c      	adds	r4, r3, r4
    330a:	9405      	str	r4, [sp, #20]
    330c:	465c      	mov	r4, r11
    330e:	0c23      	lsrs	r3, r4, #16
    3310:	1c05      	adds	r5, r0, #0
    3312:	4358      	muls	r0, r3
    3314:	0424      	lsls	r4, r4, #16
    3316:	0c24      	lsrs	r4, r4, #16
    3318:	4684      	mov	r12, r0
    331a:	1c38      	adds	r0, r7, #0
    331c:	4360      	muls	r0, r4
    331e:	4365      	muls	r5, r4
    3320:	435f      	muls	r7, r3
    3322:	4681      	mov	r9, r0
    3324:	44cc      	add	r12, r9
    3326:	0c28      	lsrs	r0, r5, #16
    3328:	4460      	add	r0, r12
    332a:	46bb      	mov	r11, r7
    332c:	4581      	cmp	r9, r0
    332e:	d902      	bls.n	3336 <__aeabi_dmul+0x25e>
    3330:	2780      	movs	r7, #128	; 0x80
    3332:	027f      	lsls	r7, r7, #9
    3334:	44bb      	add	r11, r7
    3336:	042d      	lsls	r5, r5, #16
    3338:	0c07      	lsrs	r7, r0, #16
    333a:	0c2d      	lsrs	r5, r5, #16
    333c:	0400      	lsls	r0, r0, #16
    333e:	1940      	adds	r0, r0, r5
    3340:	4655      	mov	r5, r10
    3342:	46bc      	mov	r12, r7
    3344:	042f      	lsls	r7, r5, #16
    3346:	44e3      	add	r11, r12
    3348:	4684      	mov	r12, r0
    334a:	0c28      	lsrs	r0, r5, #16
    334c:	0c3d      	lsrs	r5, r7, #16
    334e:	1c2f      	adds	r7, r5, #0
    3350:	4357      	muls	r7, r2
    3352:	46b8      	mov	r8, r7
    3354:	1c2f      	adds	r7, r5, #0
    3356:	4377      	muls	r7, r6
    3358:	4342      	muls	r2, r0
    335a:	46b9      	mov	r9, r7
    335c:	4647      	mov	r7, r8
    335e:	0c3f      	lsrs	r7, r7, #16
    3360:	4491      	add	r9, r2
    3362:	46ba      	mov	r10, r7
    3364:	44d1      	add	r9, r10
    3366:	4346      	muls	r6, r0
    3368:	454a      	cmp	r2, r9
    336a:	d902      	bls.n	3372 <__aeabi_dmul+0x29a>
    336c:	2280      	movs	r2, #128	; 0x80
    336e:	0252      	lsls	r2, r2, #9
    3370:	18b6      	adds	r6, r6, r2
    3372:	464f      	mov	r7, r9
    3374:	0c3a      	lsrs	r2, r7, #16
    3376:	18b6      	adds	r6, r6, r2
    3378:	043a      	lsls	r2, r7, #16
    337a:	4647      	mov	r7, r8
    337c:	043f      	lsls	r7, r7, #16
    337e:	0c3f      	lsrs	r7, r7, #16
    3380:	46b8      	mov	r8, r7
    3382:	1c2f      	adds	r7, r5, #0
    3384:	4367      	muls	r7, r4
    3386:	435d      	muls	r5, r3
    3388:	4344      	muls	r4, r0
    338a:	4358      	muls	r0, r3
    338c:	1965      	adds	r5, r4, r5
    338e:	9001      	str	r0, [sp, #4]
    3390:	0c38      	lsrs	r0, r7, #16
    3392:	182d      	adds	r5, r5, r0
    3394:	4442      	add	r2, r8
    3396:	46b8      	mov	r8, r7
    3398:	42ac      	cmp	r4, r5
    339a:	d904      	bls.n	33a6 <__aeabi_dmul+0x2ce>
    339c:	9801      	ldr	r0, [sp, #4]
    339e:	2380      	movs	r3, #128	; 0x80
    33a0:	025b      	lsls	r3, r3, #9
    33a2:	18c0      	adds	r0, r0, r3
    33a4:	9001      	str	r0, [sp, #4]
    33a6:	9c03      	ldr	r4, [sp, #12]
    33a8:	9f02      	ldr	r7, [sp, #8]
    33aa:	1c20      	adds	r0, r4, #0
    33ac:	4460      	add	r0, r12
    33ae:	19c0      	adds	r0, r0, r7
    33b0:	4560      	cmp	r0, r12
    33b2:	41a4      	sbcs	r4, r4
    33b4:	4647      	mov	r7, r8
    33b6:	4264      	negs	r4, r4
    33b8:	46a4      	mov	r12, r4
    33ba:	042b      	lsls	r3, r5, #16
    33bc:	043c      	lsls	r4, r7, #16
    33be:	4699      	mov	r9, r3
    33c0:	0c24      	lsrs	r4, r4, #16
    33c2:	444c      	add	r4, r9
    33c4:	46a0      	mov	r8, r4
    33c6:	44d8      	add	r8, r11
    33c8:	1880      	adds	r0, r0, r2
    33ca:	46c2      	mov	r10, r8
    33cc:	44e2      	add	r10, r12
    33ce:	4290      	cmp	r0, r2
    33d0:	4192      	sbcs	r2, r2
    33d2:	4657      	mov	r7, r10
    33d4:	4252      	negs	r2, r2
    33d6:	4691      	mov	r9, r2
    33d8:	19f2      	adds	r2, r6, r7
    33da:	45e2      	cmp	r10, r12
    33dc:	41bf      	sbcs	r7, r7
    33de:	427f      	negs	r7, r7
    33e0:	464b      	mov	r3, r9
    33e2:	46bc      	mov	r12, r7
    33e4:	45d8      	cmp	r8, r11
    33e6:	41bf      	sbcs	r7, r7
    33e8:	18d4      	adds	r4, r2, r3
    33ea:	427f      	negs	r7, r7
    33ec:	4663      	mov	r3, r12
    33ee:	431f      	orrs	r7, r3
    33f0:	0c2d      	lsrs	r5, r5, #16
    33f2:	197f      	adds	r7, r7, r5
    33f4:	42b2      	cmp	r2, r6
    33f6:	4192      	sbcs	r2, r2
    33f8:	454c      	cmp	r4, r9
    33fa:	41ad      	sbcs	r5, r5
    33fc:	4252      	negs	r2, r2
    33fe:	426d      	negs	r5, r5
    3400:	4315      	orrs	r5, r2
    3402:	9e01      	ldr	r6, [sp, #4]
    3404:	197d      	adds	r5, r7, r5
    3406:	19ab      	adds	r3, r5, r6
    3408:	0de2      	lsrs	r2, r4, #23
    340a:	025b      	lsls	r3, r3, #9
    340c:	9f05      	ldr	r7, [sp, #20]
    340e:	4313      	orrs	r3, r2
    3410:	0242      	lsls	r2, r0, #9
    3412:	433a      	orrs	r2, r7
    3414:	469a      	mov	r10, r3
    3416:	1e53      	subs	r3, r2, #1
    3418:	419a      	sbcs	r2, r3
    341a:	0dc3      	lsrs	r3, r0, #23
    341c:	1c10      	adds	r0, r2, #0
    341e:	4318      	orrs	r0, r3
    3420:	0264      	lsls	r4, r4, #9
    3422:	4320      	orrs	r0, r4
    3424:	4680      	mov	r8, r0
    3426:	4650      	mov	r0, r10
    3428:	01c0      	lsls	r0, r0, #7
    342a:	d50d      	bpl.n	3448 <__aeabi_dmul+0x370>
    342c:	4645      	mov	r5, r8
    342e:	2201      	movs	r2, #1
    3430:	4656      	mov	r6, r10
    3432:	9c04      	ldr	r4, [sp, #16]
    3434:	086b      	lsrs	r3, r5, #1
    3436:	402a      	ands	r2, r5
    3438:	431a      	orrs	r2, r3
    343a:	07f3      	lsls	r3, r6, #31
    343c:	3401      	adds	r4, #1
    343e:	431a      	orrs	r2, r3
    3440:	0876      	lsrs	r6, r6, #1
    3442:	9404      	str	r4, [sp, #16]
    3444:	4690      	mov	r8, r2
    3446:	46b2      	mov	r10, r6
    3448:	9e04      	ldr	r6, [sp, #16]
    344a:	4f63      	ldr	r7, [pc, #396]	; (35d8 <__aeabi_dmul+0x500>)
    344c:	19f3      	adds	r3, r6, r7
    344e:	2b00      	cmp	r3, #0
    3450:	dd61      	ble.n	3516 <__aeabi_dmul+0x43e>
    3452:	4640      	mov	r0, r8
    3454:	0740      	lsls	r0, r0, #29
    3456:	d00b      	beq.n	3470 <__aeabi_dmul+0x398>
    3458:	220f      	movs	r2, #15
    345a:	4644      	mov	r4, r8
    345c:	4022      	ands	r2, r4
    345e:	2a04      	cmp	r2, #4
    3460:	d006      	beq.n	3470 <__aeabi_dmul+0x398>
    3462:	4642      	mov	r2, r8
    3464:	3204      	adds	r2, #4
    3466:	4542      	cmp	r2, r8
    3468:	4180      	sbcs	r0, r0
    346a:	4240      	negs	r0, r0
    346c:	4482      	add	r10, r0
    346e:	4690      	mov	r8, r2
    3470:	4655      	mov	r5, r10
    3472:	01ed      	lsls	r5, r5, #7
    3474:	d507      	bpl.n	3486 <__aeabi_dmul+0x3ae>
    3476:	4b59      	ldr	r3, [pc, #356]	; (35dc <__aeabi_dmul+0x504>)
    3478:	4656      	mov	r6, r10
    347a:	9f04      	ldr	r7, [sp, #16]
    347c:	2080      	movs	r0, #128	; 0x80
    347e:	401e      	ands	r6, r3
    3480:	00c0      	lsls	r0, r0, #3
    3482:	46b2      	mov	r10, r6
    3484:	183b      	adds	r3, r7, r0
    3486:	4a56      	ldr	r2, [pc, #344]	; (35e0 <__aeabi_dmul+0x508>)
    3488:	4293      	cmp	r3, r2
    348a:	dd00      	ble.n	348e <__aeabi_dmul+0x3b6>
    348c:	e6ea      	b.n	3264 <__aeabi_dmul+0x18c>
    348e:	4644      	mov	r4, r8
    3490:	4655      	mov	r5, r10
    3492:	08e2      	lsrs	r2, r4, #3
    3494:	0768      	lsls	r0, r5, #29
    3496:	4310      	orrs	r0, r2
    3498:	2201      	movs	r2, #1
    349a:	026c      	lsls	r4, r5, #9
    349c:	055b      	lsls	r3, r3, #21
    349e:	400a      	ands	r2, r1
    34a0:	4680      	mov	r8, r0
    34a2:	0b24      	lsrs	r4, r4, #12
    34a4:	0d5b      	lsrs	r3, r3, #21
    34a6:	4691      	mov	r9, r2
    34a8:	e67b      	b.n	31a2 <__aeabi_dmul+0xca>
    34aa:	46da      	mov	r10, r11
    34ac:	4690      	mov	r8, r2
    34ae:	1c1d      	adds	r5, r3, #0
    34b0:	e669      	b.n	3186 <__aeabi_dmul+0xae>
    34b2:	2480      	movs	r4, #128	; 0x80
    34b4:	0324      	lsls	r4, r4, #12
    34b6:	4657      	mov	r7, r10
    34b8:	4227      	tst	r7, r4
    34ba:	d11c      	bne.n	34f6 <__aeabi_dmul+0x41e>
    34bc:	433c      	orrs	r4, r7
    34be:	0324      	lsls	r4, r4, #12
    34c0:	0b24      	lsrs	r4, r4, #12
    34c2:	4b48      	ldr	r3, [pc, #288]	; (35e4 <__aeabi_dmul+0x50c>)
    34c4:	e66d      	b.n	31a2 <__aeabi_dmul+0xca>
    34c6:	1c03      	adds	r3, r0, #0
    34c8:	3b28      	subs	r3, #40	; 0x28
    34ca:	1c31      	adds	r1, r6, #0
    34cc:	4099      	lsls	r1, r3
    34ce:	468b      	mov	r11, r1
    34d0:	2200      	movs	r2, #0
    34d2:	e6c3      	b.n	325c <__aeabi_dmul+0x184>
    34d4:	1c30      	adds	r0, r6, #0
    34d6:	f000 f901 	bl	36dc <__clzsi2>
    34da:	3020      	adds	r0, #32
    34dc:	e6ad      	b.n	323a <__aeabi_dmul+0x162>
    34de:	3b28      	subs	r3, #40	; 0x28
    34e0:	1c21      	adds	r1, r4, #0
    34e2:	4099      	lsls	r1, r3
    34e4:	2200      	movs	r2, #0
    34e6:	468a      	mov	r10, r1
    34e8:	4690      	mov	r8, r2
    34ea:	e68e      	b.n	320a <__aeabi_dmul+0x132>
    34ec:	1c20      	adds	r0, r4, #0
    34ee:	f000 f8f5 	bl	36dc <__clzsi2>
    34f2:	3020      	adds	r0, #32
    34f4:	e678      	b.n	31e8 <__aeabi_dmul+0x110>
    34f6:	4658      	mov	r0, r11
    34f8:	4220      	tst	r0, r4
    34fa:	d107      	bne.n	350c <__aeabi_dmul+0x434>
    34fc:	4304      	orrs	r4, r0
    34fe:	9903      	ldr	r1, [sp, #12]
    3500:	0324      	lsls	r4, r4, #12
    3502:	0b24      	lsrs	r4, r4, #12
    3504:	4689      	mov	r9, r1
    3506:	4690      	mov	r8, r2
    3508:	4b36      	ldr	r3, [pc, #216]	; (35e4 <__aeabi_dmul+0x50c>)
    350a:	e64a      	b.n	31a2 <__aeabi_dmul+0xca>
    350c:	433c      	orrs	r4, r7
    350e:	0324      	lsls	r4, r4, #12
    3510:	0b24      	lsrs	r4, r4, #12
    3512:	4b34      	ldr	r3, [pc, #208]	; (35e4 <__aeabi_dmul+0x50c>)
    3514:	e645      	b.n	31a2 <__aeabi_dmul+0xca>
    3516:	4b34      	ldr	r3, [pc, #208]	; (35e8 <__aeabi_dmul+0x510>)
    3518:	9e04      	ldr	r6, [sp, #16]
    351a:	1b9b      	subs	r3, r3, r6
    351c:	2b38      	cmp	r3, #56	; 0x38
    351e:	dd06      	ble.n	352e <__aeabi_dmul+0x456>
    3520:	2301      	movs	r3, #1
    3522:	400b      	ands	r3, r1
    3524:	2400      	movs	r4, #0
    3526:	4699      	mov	r9, r3
    3528:	46a0      	mov	r8, r4
    352a:	2300      	movs	r3, #0
    352c:	e639      	b.n	31a2 <__aeabi_dmul+0xca>
    352e:	2b1f      	cmp	r3, #31
    3530:	dc25      	bgt.n	357e <__aeabi_dmul+0x4a6>
    3532:	9c04      	ldr	r4, [sp, #16]
    3534:	4d2d      	ldr	r5, [pc, #180]	; (35ec <__aeabi_dmul+0x514>)
    3536:	4646      	mov	r6, r8
    3538:	1960      	adds	r0, r4, r5
    353a:	4652      	mov	r2, r10
    353c:	4644      	mov	r4, r8
    353e:	4086      	lsls	r6, r0
    3540:	40dc      	lsrs	r4, r3
    3542:	4082      	lsls	r2, r0
    3544:	4657      	mov	r7, r10
    3546:	1c30      	adds	r0, r6, #0
    3548:	4322      	orrs	r2, r4
    354a:	40df      	lsrs	r7, r3
    354c:	1e44      	subs	r4, r0, #1
    354e:	41a0      	sbcs	r0, r4
    3550:	4302      	orrs	r2, r0
    3552:	1c3b      	adds	r3, r7, #0
    3554:	0754      	lsls	r4, r2, #29
    3556:	d009      	beq.n	356c <__aeabi_dmul+0x494>
    3558:	200f      	movs	r0, #15
    355a:	4010      	ands	r0, r2
    355c:	2804      	cmp	r0, #4
    355e:	d005      	beq.n	356c <__aeabi_dmul+0x494>
    3560:	1d10      	adds	r0, r2, #4
    3562:	4290      	cmp	r0, r2
    3564:	4192      	sbcs	r2, r2
    3566:	4252      	negs	r2, r2
    3568:	189b      	adds	r3, r3, r2
    356a:	1c02      	adds	r2, r0, #0
    356c:	021d      	lsls	r5, r3, #8
    356e:	d51a      	bpl.n	35a6 <__aeabi_dmul+0x4ce>
    3570:	2301      	movs	r3, #1
    3572:	400b      	ands	r3, r1
    3574:	2400      	movs	r4, #0
    3576:	4699      	mov	r9, r3
    3578:	46a0      	mov	r8, r4
    357a:	2301      	movs	r3, #1
    357c:	e611      	b.n	31a2 <__aeabi_dmul+0xca>
    357e:	481c      	ldr	r0, [pc, #112]	; (35f0 <__aeabi_dmul+0x518>)
    3580:	9c04      	ldr	r4, [sp, #16]
    3582:	4655      	mov	r5, r10
    3584:	1b00      	subs	r0, r0, r4
    3586:	40c5      	lsrs	r5, r0
    3588:	1c28      	adds	r0, r5, #0
    358a:	2b20      	cmp	r3, #32
    358c:	d016      	beq.n	35bc <__aeabi_dmul+0x4e4>
    358e:	4e19      	ldr	r6, [pc, #100]	; (35f4 <__aeabi_dmul+0x51c>)
    3590:	4657      	mov	r7, r10
    3592:	19a2      	adds	r2, r4, r6
    3594:	4097      	lsls	r7, r2
    3596:	1c3a      	adds	r2, r7, #0
    3598:	4643      	mov	r3, r8
    359a:	431a      	orrs	r2, r3
    359c:	1e53      	subs	r3, r2, #1
    359e:	419a      	sbcs	r2, r3
    35a0:	4302      	orrs	r2, r0
    35a2:	2300      	movs	r3, #0
    35a4:	e7d6      	b.n	3554 <__aeabi_dmul+0x47c>
    35a6:	0758      	lsls	r0, r3, #29
    35a8:	025b      	lsls	r3, r3, #9
    35aa:	08d2      	lsrs	r2, r2, #3
    35ac:	0b1c      	lsrs	r4, r3, #12
    35ae:	2301      	movs	r3, #1
    35b0:	400b      	ands	r3, r1
    35b2:	4310      	orrs	r0, r2
    35b4:	4699      	mov	r9, r3
    35b6:	4680      	mov	r8, r0
    35b8:	2300      	movs	r3, #0
    35ba:	e5f2      	b.n	31a2 <__aeabi_dmul+0xca>
    35bc:	2200      	movs	r2, #0
    35be:	e7eb      	b.n	3598 <__aeabi_dmul+0x4c0>
    35c0:	2480      	movs	r4, #128	; 0x80
    35c2:	0324      	lsls	r4, r4, #12
    35c4:	4650      	mov	r0, r10
    35c6:	2301      	movs	r3, #1
    35c8:	4304      	orrs	r4, r0
    35ca:	4019      	ands	r1, r3
    35cc:	0324      	lsls	r4, r4, #12
    35ce:	0b24      	lsrs	r4, r4, #12
    35d0:	4689      	mov	r9, r1
    35d2:	4b04      	ldr	r3, [pc, #16]	; (35e4 <__aeabi_dmul+0x50c>)
    35d4:	e5e5      	b.n	31a2 <__aeabi_dmul+0xca>
    35d6:	46c0      	nop			; (mov r8, r8)
    35d8:	000003ff 	.word	0x000003ff
    35dc:	feffffff 	.word	0xfeffffff
    35e0:	000007fe 	.word	0x000007fe
    35e4:	000007ff 	.word	0x000007ff
    35e8:	fffffc02 	.word	0xfffffc02
    35ec:	0000041e 	.word	0x0000041e
    35f0:	fffffbe2 	.word	0xfffffbe2
    35f4:	0000043e 	.word	0x0000043e

000035f8 <__aeabi_d2iz>:
    35f8:	b570      	push	{r4, r5, r6, lr}
    35fa:	1c0b      	adds	r3, r1, #0
    35fc:	4c12      	ldr	r4, [pc, #72]	; (3648 <__aeabi_d2iz+0x50>)
    35fe:	0309      	lsls	r1, r1, #12
    3600:	0b0e      	lsrs	r6, r1, #12
    3602:	0059      	lsls	r1, r3, #1
    3604:	1c02      	adds	r2, r0, #0
    3606:	0d49      	lsrs	r1, r1, #21
    3608:	0fdd      	lsrs	r5, r3, #31
    360a:	2000      	movs	r0, #0
    360c:	42a1      	cmp	r1, r4
    360e:	dd11      	ble.n	3634 <__aeabi_d2iz+0x3c>
    3610:	480e      	ldr	r0, [pc, #56]	; (364c <__aeabi_d2iz+0x54>)
    3612:	4281      	cmp	r1, r0
    3614:	dc0f      	bgt.n	3636 <__aeabi_d2iz+0x3e>
    3616:	2080      	movs	r0, #128	; 0x80
    3618:	0340      	lsls	r0, r0, #13
    361a:	4306      	orrs	r6, r0
    361c:	480c      	ldr	r0, [pc, #48]	; (3650 <__aeabi_d2iz+0x58>)
    361e:	1a40      	subs	r0, r0, r1
    3620:	281f      	cmp	r0, #31
    3622:	dd0b      	ble.n	363c <__aeabi_d2iz+0x44>
    3624:	4a0b      	ldr	r2, [pc, #44]	; (3654 <__aeabi_d2iz+0x5c>)
    3626:	1a52      	subs	r2, r2, r1
    3628:	40d6      	lsrs	r6, r2
    362a:	1c32      	adds	r2, r6, #0
    362c:	4250      	negs	r0, r2
    362e:	2d00      	cmp	r5, #0
    3630:	d100      	bne.n	3634 <__aeabi_d2iz+0x3c>
    3632:	1c10      	adds	r0, r2, #0
    3634:	bd70      	pop	{r4, r5, r6, pc}
    3636:	4b08      	ldr	r3, [pc, #32]	; (3658 <__aeabi_d2iz+0x60>)
    3638:	18e8      	adds	r0, r5, r3
    363a:	e7fb      	b.n	3634 <__aeabi_d2iz+0x3c>
    363c:	4b07      	ldr	r3, [pc, #28]	; (365c <__aeabi_d2iz+0x64>)
    363e:	40c2      	lsrs	r2, r0
    3640:	18c9      	adds	r1, r1, r3
    3642:	408e      	lsls	r6, r1
    3644:	4332      	orrs	r2, r6
    3646:	e7f1      	b.n	362c <__aeabi_d2iz+0x34>
    3648:	000003fe 	.word	0x000003fe
    364c:	0000041d 	.word	0x0000041d
    3650:	00000433 	.word	0x00000433
    3654:	00000413 	.word	0x00000413
    3658:	7fffffff 	.word	0x7fffffff
    365c:	fffffbed 	.word	0xfffffbed

00003660 <__aeabi_i2d>:
    3660:	b5f8      	push	{r3, r4, r5, r6, r7, lr}
    3662:	1e04      	subs	r4, r0, #0
    3664:	d031      	beq.n	36ca <__aeabi_i2d+0x6a>
    3666:	0fc7      	lsrs	r7, r0, #31
    3668:	d000      	beq.n	366c <__aeabi_i2d+0xc>
    366a:	4244      	negs	r4, r0
    366c:	1c20      	adds	r0, r4, #0
    366e:	f000 f835 	bl	36dc <__clzsi2>
    3672:	4d18      	ldr	r5, [pc, #96]	; (36d4 <__aeabi_i2d+0x74>)
    3674:	1a2d      	subs	r5, r5, r0
    3676:	280a      	cmp	r0, #10
    3678:	dd19      	ble.n	36ae <__aeabi_i2d+0x4e>
    367a:	380b      	subs	r0, #11
    367c:	4084      	lsls	r4, r0
    367e:	0324      	lsls	r4, r4, #12
    3680:	056d      	lsls	r5, r5, #21
    3682:	0b24      	lsrs	r4, r4, #12
    3684:	0d6d      	lsrs	r5, r5, #21
    3686:	1c3a      	adds	r2, r7, #0
    3688:	2600      	movs	r6, #0
    368a:	2000      	movs	r0, #0
    368c:	2100      	movs	r1, #0
    368e:	0d0b      	lsrs	r3, r1, #20
    3690:	0324      	lsls	r4, r4, #12
    3692:	0b24      	lsrs	r4, r4, #12
    3694:	051b      	lsls	r3, r3, #20
    3696:	4323      	orrs	r3, r4
    3698:	4c0f      	ldr	r4, [pc, #60]	; (36d8 <__aeabi_i2d+0x78>)
    369a:	052d      	lsls	r5, r5, #20
    369c:	401c      	ands	r4, r3
    369e:	432c      	orrs	r4, r5
    36a0:	0064      	lsls	r4, r4, #1
    36a2:	0864      	lsrs	r4, r4, #1
    36a4:	07d3      	lsls	r3, r2, #31
    36a6:	1c21      	adds	r1, r4, #0
    36a8:	1c30      	adds	r0, r6, #0
    36aa:	4319      	orrs	r1, r3
    36ac:	bdf8      	pop	{r3, r4, r5, r6, r7, pc}
    36ae:	1c06      	adds	r6, r0, #0
    36b0:	3615      	adds	r6, #21
    36b2:	1c23      	adds	r3, r4, #0
    36b4:	40b3      	lsls	r3, r6
    36b6:	1c1e      	adds	r6, r3, #0
    36b8:	230b      	movs	r3, #11
    36ba:	1a18      	subs	r0, r3, r0
    36bc:	40c4      	lsrs	r4, r0
    36be:	0324      	lsls	r4, r4, #12
    36c0:	056d      	lsls	r5, r5, #21
    36c2:	0b24      	lsrs	r4, r4, #12
    36c4:	0d6d      	lsrs	r5, r5, #21
    36c6:	1c3a      	adds	r2, r7, #0
    36c8:	e7df      	b.n	368a <__aeabi_i2d+0x2a>
    36ca:	2200      	movs	r2, #0
    36cc:	2500      	movs	r5, #0
    36ce:	2400      	movs	r4, #0
    36d0:	2600      	movs	r6, #0
    36d2:	e7da      	b.n	368a <__aeabi_i2d+0x2a>
    36d4:	0000041e 	.word	0x0000041e
    36d8:	800fffff 	.word	0x800fffff

000036dc <__clzsi2>:
    36dc:	211c      	movs	r1, #28
    36de:	2301      	movs	r3, #1
    36e0:	041b      	lsls	r3, r3, #16
    36e2:	4298      	cmp	r0, r3
    36e4:	d301      	bcc.n	36ea <__clzsi2+0xe>
    36e6:	0c00      	lsrs	r0, r0, #16
    36e8:	3910      	subs	r1, #16
    36ea:	0a1b      	lsrs	r3, r3, #8
    36ec:	4298      	cmp	r0, r3
    36ee:	d301      	bcc.n	36f4 <__clzsi2+0x18>
    36f0:	0a00      	lsrs	r0, r0, #8
    36f2:	3908      	subs	r1, #8
    36f4:	091b      	lsrs	r3, r3, #4
    36f6:	4298      	cmp	r0, r3
    36f8:	d301      	bcc.n	36fe <__clzsi2+0x22>
    36fa:	0900      	lsrs	r0, r0, #4
    36fc:	3904      	subs	r1, #4
    36fe:	a202      	add	r2, pc, #8	; (adr r2, 3708 <__clzsi2+0x2c>)
    3700:	5c10      	ldrb	r0, [r2, r0]
    3702:	1840      	adds	r0, r0, r1
    3704:	4770      	bx	lr
    3706:	46c0      	nop			; (mov r8, r8)
    3708:	02020304 	.word	0x02020304
    370c:	01010101 	.word	0x01010101
	...

00003718 <__cxa_atexit>:
    3718:	b538      	push	{r3, r4, r5, lr}
    371a:	1c05      	adds	r5, r0, #0
    371c:	4805      	ldr	r0, [pc, #20]	; (3734 <__cxa_atexit+0x1c>)
    371e:	1c0c      	adds	r4, r1, #0
    3720:	1c13      	adds	r3, r2, #0
    3722:	2800      	cmp	r0, #0
    3724:	d004      	beq.n	3730 <__cxa_atexit+0x18>
    3726:	2002      	movs	r0, #2
    3728:	1c29      	adds	r1, r5, #0
    372a:	1c22      	adds	r2, r4, #0
    372c:	e000      	b.n	3730 <__cxa_atexit+0x18>
    372e:	bf00      	nop
    3730:	bd38      	pop	{r3, r4, r5, pc}
    3732:	46c0      	nop			; (mov r8, r8)
    3734:	00000000 	.word	0x00000000

00003738 <__errno>:
    3738:	4b01      	ldr	r3, [pc, #4]	; (3740 <__errno+0x8>)
    373a:	6818      	ldr	r0, [r3, #0]
    373c:	4770      	bx	lr
    373e:	46c0      	nop			; (mov r8, r8)
    3740:	1ffff2ac 	.word	0x1ffff2ac

00003744 <__sflush_r>:
    3744:	b5f7      	push	{r0, r1, r2, r4, r5, r6, r7, lr}
    3746:	898b      	ldrh	r3, [r1, #12]
    3748:	1c05      	adds	r5, r0, #0
    374a:	1c0c      	adds	r4, r1, #0
    374c:	0719      	lsls	r1, r3, #28
    374e:	d45e      	bmi.n	380e <__sflush_r+0xca>
    3750:	6862      	ldr	r2, [r4, #4]
    3752:	2a00      	cmp	r2, #0
    3754:	dc02      	bgt.n	375c <__sflush_r+0x18>
    3756:	6c27      	ldr	r7, [r4, #64]	; 0x40
    3758:	2f00      	cmp	r7, #0
    375a:	dd1a      	ble.n	3792 <__sflush_r+0x4e>
    375c:	6ae7      	ldr	r7, [r4, #44]	; 0x2c
    375e:	2f00      	cmp	r7, #0
    3760:	d017      	beq.n	3792 <__sflush_r+0x4e>
    3762:	2200      	movs	r2, #0
    3764:	682e      	ldr	r6, [r5, #0]
    3766:	602a      	str	r2, [r5, #0]
    3768:	2280      	movs	r2, #128	; 0x80
    376a:	0152      	lsls	r2, r2, #5
    376c:	401a      	ands	r2, r3
    376e:	d001      	beq.n	3774 <__sflush_r+0x30>
    3770:	6d62      	ldr	r2, [r4, #84]	; 0x54
    3772:	e015      	b.n	37a0 <__sflush_r+0x5c>
    3774:	1c28      	adds	r0, r5, #0
    3776:	6a21      	ldr	r1, [r4, #32]
    3778:	2301      	movs	r3, #1
    377a:	47b8      	blx	r7
    377c:	1c02      	adds	r2, r0, #0
    377e:	1c41      	adds	r1, r0, #1
    3780:	d10e      	bne.n	37a0 <__sflush_r+0x5c>
    3782:	682b      	ldr	r3, [r5, #0]
    3784:	2b00      	cmp	r3, #0
    3786:	d00b      	beq.n	37a0 <__sflush_r+0x5c>
    3788:	2b1d      	cmp	r3, #29
    378a:	d001      	beq.n	3790 <__sflush_r+0x4c>
    378c:	2b16      	cmp	r3, #22
    378e:	d102      	bne.n	3796 <__sflush_r+0x52>
    3790:	602e      	str	r6, [r5, #0]
    3792:	2000      	movs	r0, #0
    3794:	e05e      	b.n	3854 <__sflush_r+0x110>
    3796:	89a3      	ldrh	r3, [r4, #12]
    3798:	2140      	movs	r1, #64	; 0x40
    379a:	430b      	orrs	r3, r1
    379c:	81a3      	strh	r3, [r4, #12]
    379e:	e059      	b.n	3854 <__sflush_r+0x110>
    37a0:	89a3      	ldrh	r3, [r4, #12]
    37a2:	075f      	lsls	r7, r3, #29
    37a4:	d506      	bpl.n	37b4 <__sflush_r+0x70>
    37a6:	6861      	ldr	r1, [r4, #4]
    37a8:	6b63      	ldr	r3, [r4, #52]	; 0x34
    37aa:	1a52      	subs	r2, r2, r1
    37ac:	2b00      	cmp	r3, #0
    37ae:	d001      	beq.n	37b4 <__sflush_r+0x70>
    37b0:	6c27      	ldr	r7, [r4, #64]	; 0x40
    37b2:	1bd2      	subs	r2, r2, r7
    37b4:	1c28      	adds	r0, r5, #0
    37b6:	6a21      	ldr	r1, [r4, #32]
    37b8:	2300      	movs	r3, #0
    37ba:	6ae7      	ldr	r7, [r4, #44]	; 0x2c
    37bc:	47b8      	blx	r7
    37be:	89a2      	ldrh	r2, [r4, #12]
    37c0:	1c41      	adds	r1, r0, #1
    37c2:	d106      	bne.n	37d2 <__sflush_r+0x8e>
    37c4:	682b      	ldr	r3, [r5, #0]
    37c6:	2b00      	cmp	r3, #0
    37c8:	d003      	beq.n	37d2 <__sflush_r+0x8e>
    37ca:	2b1d      	cmp	r3, #29
    37cc:	d001      	beq.n	37d2 <__sflush_r+0x8e>
    37ce:	2b16      	cmp	r3, #22
    37d0:	d119      	bne.n	3806 <__sflush_r+0xc2>
    37d2:	2300      	movs	r3, #0
    37d4:	6063      	str	r3, [r4, #4]
    37d6:	6923      	ldr	r3, [r4, #16]
    37d8:	6023      	str	r3, [r4, #0]
    37da:	04d7      	lsls	r7, r2, #19
    37dc:	d505      	bpl.n	37ea <__sflush_r+0xa6>
    37de:	1c41      	adds	r1, r0, #1
    37e0:	d102      	bne.n	37e8 <__sflush_r+0xa4>
    37e2:	682a      	ldr	r2, [r5, #0]
    37e4:	2a00      	cmp	r2, #0
    37e6:	d100      	bne.n	37ea <__sflush_r+0xa6>
    37e8:	6560      	str	r0, [r4, #84]	; 0x54
    37ea:	6b61      	ldr	r1, [r4, #52]	; 0x34
    37ec:	602e      	str	r6, [r5, #0]
    37ee:	2900      	cmp	r1, #0
    37f0:	d0cf      	beq.n	3792 <__sflush_r+0x4e>
    37f2:	1c23      	adds	r3, r4, #0
    37f4:	3344      	adds	r3, #68	; 0x44
    37f6:	4299      	cmp	r1, r3
    37f8:	d002      	beq.n	3800 <__sflush_r+0xbc>
    37fa:	1c28      	adds	r0, r5, #0
    37fc:	f000 f994 	bl	3b28 <_free_r>
    3800:	2000      	movs	r0, #0
    3802:	6360      	str	r0, [r4, #52]	; 0x34
    3804:	e026      	b.n	3854 <__sflush_r+0x110>
    3806:	2340      	movs	r3, #64	; 0x40
    3808:	431a      	orrs	r2, r3
    380a:	81a2      	strh	r2, [r4, #12]
    380c:	e022      	b.n	3854 <__sflush_r+0x110>
    380e:	6926      	ldr	r6, [r4, #16]
    3810:	2e00      	cmp	r6, #0
    3812:	d0be      	beq.n	3792 <__sflush_r+0x4e>
    3814:	6827      	ldr	r7, [r4, #0]
    3816:	2200      	movs	r2, #0
    3818:	1bbf      	subs	r7, r7, r6
    381a:	9701      	str	r7, [sp, #4]
    381c:	6026      	str	r6, [r4, #0]
    381e:	0799      	lsls	r1, r3, #30
    3820:	d100      	bne.n	3824 <__sflush_r+0xe0>
    3822:	6962      	ldr	r2, [r4, #20]
    3824:	60a2      	str	r2, [r4, #8]
    3826:	9f01      	ldr	r7, [sp, #4]
    3828:	2f00      	cmp	r7, #0
    382a:	ddb2      	ble.n	3792 <__sflush_r+0x4e>
    382c:	1c28      	adds	r0, r5, #0
    382e:	6a21      	ldr	r1, [r4, #32]
    3830:	1c32      	adds	r2, r6, #0
    3832:	9b01      	ldr	r3, [sp, #4]
    3834:	6aa7      	ldr	r7, [r4, #40]	; 0x28
    3836:	47b8      	blx	r7
    3838:	2800      	cmp	r0, #0
    383a:	dc06      	bgt.n	384a <__sflush_r+0x106>
    383c:	89a3      	ldrh	r3, [r4, #12]
    383e:	2240      	movs	r2, #64	; 0x40
    3840:	4313      	orrs	r3, r2
    3842:	2001      	movs	r0, #1
    3844:	81a3      	strh	r3, [r4, #12]
    3846:	4240      	negs	r0, r0
    3848:	e004      	b.n	3854 <__sflush_r+0x110>
    384a:	9f01      	ldr	r7, [sp, #4]
    384c:	1836      	adds	r6, r6, r0
    384e:	1a3f      	subs	r7, r7, r0
    3850:	9701      	str	r7, [sp, #4]
    3852:	e7e8      	b.n	3826 <__sflush_r+0xe2>
    3854:	bdfe      	pop	{r1, r2, r3, r4, r5, r6, r7, pc}
	...

00003858 <_fflush_r>:
    3858:	690a      	ldr	r2, [r1, #16]
    385a:	b538      	push	{r3, r4, r5, lr}
    385c:	1c05      	adds	r5, r0, #0
    385e:	1c0c      	adds	r4, r1, #0
    3860:	2a00      	cmp	r2, #0
    3862:	d101      	bne.n	3868 <_fflush_r+0x10>
    3864:	2000      	movs	r0, #0
    3866:	e01c      	b.n	38a2 <_fflush_r+0x4a>
    3868:	2800      	cmp	r0, #0
    386a:	d004      	beq.n	3876 <_fflush_r+0x1e>
    386c:	6983      	ldr	r3, [r0, #24]
    386e:	2b00      	cmp	r3, #0
    3870:	d101      	bne.n	3876 <_fflush_r+0x1e>
    3872:	f000 f885 	bl	3980 <__sinit>
    3876:	4b0b      	ldr	r3, [pc, #44]	; (38a4 <_fflush_r+0x4c>)
    3878:	429c      	cmp	r4, r3
    387a:	d101      	bne.n	3880 <_fflush_r+0x28>
    387c:	686c      	ldr	r4, [r5, #4]
    387e:	e008      	b.n	3892 <_fflush_r+0x3a>
    3880:	4b09      	ldr	r3, [pc, #36]	; (38a8 <_fflush_r+0x50>)
    3882:	429c      	cmp	r4, r3
    3884:	d101      	bne.n	388a <_fflush_r+0x32>
    3886:	68ac      	ldr	r4, [r5, #8]
    3888:	e003      	b.n	3892 <_fflush_r+0x3a>
    388a:	4b08      	ldr	r3, [pc, #32]	; (38ac <_fflush_r+0x54>)
    388c:	429c      	cmp	r4, r3
    388e:	d100      	bne.n	3892 <_fflush_r+0x3a>
    3890:	68ec      	ldr	r4, [r5, #12]
    3892:	220c      	movs	r2, #12
    3894:	5ea3      	ldrsh	r3, [r4, r2]
    3896:	2b00      	cmp	r3, #0
    3898:	d0e4      	beq.n	3864 <_fflush_r+0xc>
    389a:	1c28      	adds	r0, r5, #0
    389c:	1c21      	adds	r1, r4, #0
    389e:	f7ff ff51 	bl	3744 <__sflush_r>
    38a2:	bd38      	pop	{r3, r4, r5, pc}
    38a4:	00006ff0 	.word	0x00006ff0
    38a8:	00007010 	.word	0x00007010
    38ac:	00007030 	.word	0x00007030

000038b0 <fflush>:
    38b0:	b508      	push	{r3, lr}
    38b2:	1e01      	subs	r1, r0, #0
    38b4:	d105      	bne.n	38c2 <fflush+0x12>
    38b6:	4b05      	ldr	r3, [pc, #20]	; (38cc <fflush+0x1c>)
    38b8:	4905      	ldr	r1, [pc, #20]	; (38d0 <fflush+0x20>)
    38ba:	6818      	ldr	r0, [r3, #0]
    38bc:	f000 f8d0 	bl	3a60 <_fwalk_reent>
    38c0:	e003      	b.n	38ca <fflush+0x1a>
    38c2:	4b04      	ldr	r3, [pc, #16]	; (38d4 <fflush+0x24>)
    38c4:	6818      	ldr	r0, [r3, #0]
    38c6:	f7ff ffc7 	bl	3858 <_fflush_r>
    38ca:	bd08      	pop	{r3, pc}
    38cc:	00007054 	.word	0x00007054
    38d0:	00003859 	.word	0x00003859
    38d4:	1ffff2ac 	.word	0x1ffff2ac

000038d8 <_cleanup_r>:
    38d8:	b5f8      	push	{r3, r4, r5, r6, r7, lr}
    38da:	1c04      	adds	r4, r0, #0
    38dc:	1c07      	adds	r7, r0, #0
    38de:	3448      	adds	r4, #72	; 0x48
    38e0:	2c00      	cmp	r4, #0
    38e2:	d012      	beq.n	390a <_cleanup_r+0x32>
    38e4:	68a5      	ldr	r5, [r4, #8]
    38e6:	6866      	ldr	r6, [r4, #4]
    38e8:	3e01      	subs	r6, #1
    38ea:	d40c      	bmi.n	3906 <_cleanup_r+0x2e>
    38ec:	89ab      	ldrh	r3, [r5, #12]
    38ee:	2b01      	cmp	r3, #1
    38f0:	d907      	bls.n	3902 <_cleanup_r+0x2a>
    38f2:	220e      	movs	r2, #14
    38f4:	5eab      	ldrsh	r3, [r5, r2]
    38f6:	3301      	adds	r3, #1
    38f8:	d003      	beq.n	3902 <_cleanup_r+0x2a>
    38fa:	1c38      	adds	r0, r7, #0
    38fc:	1c29      	adds	r1, r5, #0
    38fe:	f7ff ffab 	bl	3858 <_fflush_r>
    3902:	3568      	adds	r5, #104	; 0x68
    3904:	e7f0      	b.n	38e8 <_cleanup_r+0x10>
    3906:	6824      	ldr	r4, [r4, #0]
    3908:	e7ea      	b.n	38e0 <_cleanup_r+0x8>
    390a:	bdf8      	pop	{r3, r4, r5, r6, r7, pc}

0000390c <std.isra.0>:
    390c:	2300      	movs	r3, #0
    390e:	b510      	push	{r4, lr}
    3910:	1c04      	adds	r4, r0, #0
    3912:	6003      	str	r3, [r0, #0]
    3914:	6043      	str	r3, [r0, #4]
    3916:	6083      	str	r3, [r0, #8]
    3918:	8181      	strh	r1, [r0, #12]
    391a:	6643      	str	r3, [r0, #100]	; 0x64
    391c:	81c2      	strh	r2, [r0, #14]
    391e:	6103      	str	r3, [r0, #16]
    3920:	6143      	str	r3, [r0, #20]
    3922:	6183      	str	r3, [r0, #24]
    3924:	1c19      	adds	r1, r3, #0
    3926:	2208      	movs	r2, #8
    3928:	305c      	adds	r0, #92	; 0x5c
    392a:	f000 f8f4 	bl	3b16 <memset>
    392e:	4b05      	ldr	r3, [pc, #20]	; (3944 <std.isra.0+0x38>)
    3930:	6224      	str	r4, [r4, #32]
    3932:	6263      	str	r3, [r4, #36]	; 0x24
    3934:	4b04      	ldr	r3, [pc, #16]	; (3948 <std.isra.0+0x3c>)
    3936:	62a3      	str	r3, [r4, #40]	; 0x28
    3938:	4b04      	ldr	r3, [pc, #16]	; (394c <std.isra.0+0x40>)
    393a:	62e3      	str	r3, [r4, #44]	; 0x2c
    393c:	4b04      	ldr	r3, [pc, #16]	; (3950 <std.isra.0+0x44>)
    393e:	6323      	str	r3, [r4, #48]	; 0x30
    3940:	bd10      	pop	{r4, pc}
    3942:	46c0      	nop			; (mov r8, r8)
    3944:	00003c85 	.word	0x00003c85
    3948:	00003cad 	.word	0x00003cad
    394c:	00003ce5 	.word	0x00003ce5
    3950:	00003d11 	.word	0x00003d11

00003954 <__sfmoreglue>:
    3954:	b570      	push	{r4, r5, r6, lr}
    3956:	1e4b      	subs	r3, r1, #1
    3958:	2568      	movs	r5, #104	; 0x68
    395a:	435d      	muls	r5, r3
    395c:	1c0e      	adds	r6, r1, #0
    395e:	1c29      	adds	r1, r5, #0
    3960:	3174      	adds	r1, #116	; 0x74
    3962:	f000 f929 	bl	3bb8 <_malloc_r>
    3966:	1e04      	subs	r4, r0, #0
    3968:	d008      	beq.n	397c <__sfmoreglue+0x28>
    396a:	2100      	movs	r1, #0
    396c:	6001      	str	r1, [r0, #0]
    396e:	6046      	str	r6, [r0, #4]
    3970:	1c2a      	adds	r2, r5, #0
    3972:	300c      	adds	r0, #12
    3974:	60a0      	str	r0, [r4, #8]
    3976:	3268      	adds	r2, #104	; 0x68
    3978:	f000 f8cd 	bl	3b16 <memset>
    397c:	1c20      	adds	r0, r4, #0
    397e:	bd70      	pop	{r4, r5, r6, pc}

00003980 <__sinit>:
    3980:	6983      	ldr	r3, [r0, #24]
    3982:	b513      	push	{r0, r1, r4, lr}
    3984:	1c04      	adds	r4, r0, #0
    3986:	2b00      	cmp	r3, #0
    3988:	d127      	bne.n	39da <__sinit+0x5a>
    398a:	6483      	str	r3, [r0, #72]	; 0x48
    398c:	64c3      	str	r3, [r0, #76]	; 0x4c
    398e:	6503      	str	r3, [r0, #80]	; 0x50
    3990:	4b12      	ldr	r3, [pc, #72]	; (39dc <__sinit+0x5c>)
    3992:	4a13      	ldr	r2, [pc, #76]	; (39e0 <__sinit+0x60>)
    3994:	681b      	ldr	r3, [r3, #0]
    3996:	6282      	str	r2, [r0, #40]	; 0x28
    3998:	4298      	cmp	r0, r3
    399a:	d101      	bne.n	39a0 <__sinit+0x20>
    399c:	2301      	movs	r3, #1
    399e:	6183      	str	r3, [r0, #24]
    39a0:	1c20      	adds	r0, r4, #0
    39a2:	f000 f81f 	bl	39e4 <__sfp>
    39a6:	6060      	str	r0, [r4, #4]
    39a8:	1c20      	adds	r0, r4, #0
    39aa:	f000 f81b 	bl	39e4 <__sfp>
    39ae:	60a0      	str	r0, [r4, #8]
    39b0:	1c20      	adds	r0, r4, #0
    39b2:	f000 f817 	bl	39e4 <__sfp>
    39b6:	2104      	movs	r1, #4
    39b8:	60e0      	str	r0, [r4, #12]
    39ba:	2200      	movs	r2, #0
    39bc:	6860      	ldr	r0, [r4, #4]
    39be:	f7ff ffa5 	bl	390c <std.isra.0>
    39c2:	68a0      	ldr	r0, [r4, #8]
    39c4:	2109      	movs	r1, #9
    39c6:	2201      	movs	r2, #1
    39c8:	f7ff ffa0 	bl	390c <std.isra.0>
    39cc:	68e0      	ldr	r0, [r4, #12]
    39ce:	2112      	movs	r1, #18
    39d0:	2202      	movs	r2, #2
    39d2:	f7ff ff9b 	bl	390c <std.isra.0>
    39d6:	2301      	movs	r3, #1
    39d8:	61a3      	str	r3, [r4, #24]
    39da:	bd13      	pop	{r0, r1, r4, pc}
    39dc:	00007054 	.word	0x00007054
    39e0:	000038d9 	.word	0x000038d9

000039e4 <__sfp>:
    39e4:	b5f8      	push	{r3, r4, r5, r6, r7, lr}
    39e6:	4b1d      	ldr	r3, [pc, #116]	; (3a5c <__sfp+0x78>)
    39e8:	1c07      	adds	r7, r0, #0
    39ea:	681e      	ldr	r6, [r3, #0]
    39ec:	69b2      	ldr	r2, [r6, #24]
    39ee:	2a00      	cmp	r2, #0
    39f0:	d102      	bne.n	39f8 <__sfp+0x14>
    39f2:	1c30      	adds	r0, r6, #0
    39f4:	f7ff ffc4 	bl	3980 <__sinit>
    39f8:	3648      	adds	r6, #72	; 0x48
    39fa:	68b4      	ldr	r4, [r6, #8]
    39fc:	6873      	ldr	r3, [r6, #4]
    39fe:	3b01      	subs	r3, #1
    3a00:	d405      	bmi.n	3a0e <__sfp+0x2a>
    3a02:	220c      	movs	r2, #12
    3a04:	5ea5      	ldrsh	r5, [r4, r2]
    3a06:	2d00      	cmp	r5, #0
    3a08:	d010      	beq.n	3a2c <__sfp+0x48>
    3a0a:	3468      	adds	r4, #104	; 0x68
    3a0c:	e7f7      	b.n	39fe <__sfp+0x1a>
    3a0e:	6833      	ldr	r3, [r6, #0]
    3a10:	2b00      	cmp	r3, #0
    3a12:	d106      	bne.n	3a22 <__sfp+0x3e>
    3a14:	1c38      	adds	r0, r7, #0
    3a16:	2104      	movs	r1, #4
    3a18:	f7ff ff9c 	bl	3954 <__sfmoreglue>
    3a1c:	6030      	str	r0, [r6, #0]
    3a1e:	2800      	cmp	r0, #0
    3a20:	d001      	beq.n	3a26 <__sfp+0x42>
    3a22:	6836      	ldr	r6, [r6, #0]
    3a24:	e7e9      	b.n	39fa <__sfp+0x16>
    3a26:	230c      	movs	r3, #12
    3a28:	603b      	str	r3, [r7, #0]
    3a2a:	e016      	b.n	3a5a <__sfp+0x76>
    3a2c:	2301      	movs	r3, #1
    3a2e:	425b      	negs	r3, r3
    3a30:	81e3      	strh	r3, [r4, #14]
    3a32:	1c20      	adds	r0, r4, #0
    3a34:	2301      	movs	r3, #1
    3a36:	81a3      	strh	r3, [r4, #12]
    3a38:	6665      	str	r5, [r4, #100]	; 0x64
    3a3a:	6025      	str	r5, [r4, #0]
    3a3c:	60a5      	str	r5, [r4, #8]
    3a3e:	6065      	str	r5, [r4, #4]
    3a40:	6125      	str	r5, [r4, #16]
    3a42:	6165      	str	r5, [r4, #20]
    3a44:	61a5      	str	r5, [r4, #24]
    3a46:	305c      	adds	r0, #92	; 0x5c
    3a48:	1c29      	adds	r1, r5, #0
    3a4a:	2208      	movs	r2, #8
    3a4c:	f000 f863 	bl	3b16 <memset>
    3a50:	6365      	str	r5, [r4, #52]	; 0x34
    3a52:	63a5      	str	r5, [r4, #56]	; 0x38
    3a54:	64a5      	str	r5, [r4, #72]	; 0x48
    3a56:	64e5      	str	r5, [r4, #76]	; 0x4c
    3a58:	1c20      	adds	r0, r4, #0
    3a5a:	bdf8      	pop	{r3, r4, r5, r6, r7, pc}
    3a5c:	00007054 	.word	0x00007054

00003a60 <_fwalk_reent>:
    3a60:	b5f7      	push	{r0, r1, r2, r4, r5, r6, r7, lr}
    3a62:	1c04      	adds	r4, r0, #0
    3a64:	1c07      	adds	r7, r0, #0
    3a66:	9101      	str	r1, [sp, #4]
    3a68:	3448      	adds	r4, #72	; 0x48
    3a6a:	2600      	movs	r6, #0
    3a6c:	2c00      	cmp	r4, #0
    3a6e:	d016      	beq.n	3a9e <_fwalk_reent+0x3e>
    3a70:	6862      	ldr	r2, [r4, #4]
    3a72:	68a5      	ldr	r5, [r4, #8]
    3a74:	9200      	str	r2, [sp, #0]
    3a76:	9a00      	ldr	r2, [sp, #0]
    3a78:	3a01      	subs	r2, #1
    3a7a:	9200      	str	r2, [sp, #0]
    3a7c:	d40d      	bmi.n	3a9a <_fwalk_reent+0x3a>
    3a7e:	89ab      	ldrh	r3, [r5, #12]
    3a80:	2b01      	cmp	r3, #1
    3a82:	d908      	bls.n	3a96 <_fwalk_reent+0x36>
    3a84:	220e      	movs	r2, #14
    3a86:	5eab      	ldrsh	r3, [r5, r2]
    3a88:	3301      	adds	r3, #1
    3a8a:	d004      	beq.n	3a96 <_fwalk_reent+0x36>
    3a8c:	1c38      	adds	r0, r7, #0
    3a8e:	1c29      	adds	r1, r5, #0
    3a90:	9b01      	ldr	r3, [sp, #4]
    3a92:	4798      	blx	r3
    3a94:	4306      	orrs	r6, r0
    3a96:	3568      	adds	r5, #104	; 0x68
    3a98:	e7ed      	b.n	3a76 <_fwalk_reent+0x16>
    3a9a:	6824      	ldr	r4, [r4, #0]
    3a9c:	e7e6      	b.n	3a6c <_fwalk_reent+0xc>
    3a9e:	1c30      	adds	r0, r6, #0
    3aa0:	bdfe      	pop	{r1, r2, r3, r4, r5, r6, r7, pc}
	...

00003aa4 <__libc_init_array>:
    3aa4:	b570      	push	{r4, r5, r6, lr}
    3aa6:	4b0e      	ldr	r3, [pc, #56]	; (3ae0 <__libc_init_array+0x3c>)
    3aa8:	4d0e      	ldr	r5, [pc, #56]	; (3ae4 <__libc_init_array+0x40>)
    3aaa:	2400      	movs	r4, #0
    3aac:	1aed      	subs	r5, r5, r3
    3aae:	10ad      	asrs	r5, r5, #2
    3ab0:	1c1e      	adds	r6, r3, #0
    3ab2:	42ac      	cmp	r4, r5
    3ab4:	d004      	beq.n	3ac0 <__libc_init_array+0x1c>
    3ab6:	00a3      	lsls	r3, r4, #2
    3ab8:	58f3      	ldr	r3, [r6, r3]
    3aba:	4798      	blx	r3
    3abc:	3401      	adds	r4, #1
    3abe:	e7f8      	b.n	3ab2 <__libc_init_array+0xe>
    3ac0:	f002 ffd8 	bl	6a74 <_init>
    3ac4:	4b08      	ldr	r3, [pc, #32]	; (3ae8 <__libc_init_array+0x44>)
    3ac6:	4d09      	ldr	r5, [pc, #36]	; (3aec <__libc_init_array+0x48>)
    3ac8:	2400      	movs	r4, #0
    3aca:	1aed      	subs	r5, r5, r3
    3acc:	10ad      	asrs	r5, r5, #2
    3ace:	1c1e      	adds	r6, r3, #0
    3ad0:	42ac      	cmp	r4, r5
    3ad2:	d004      	beq.n	3ade <__libc_init_array+0x3a>
    3ad4:	00a3      	lsls	r3, r4, #2
    3ad6:	58f3      	ldr	r3, [r6, r3]
    3ad8:	4798      	blx	r3
    3ada:	3401      	adds	r4, #1
    3adc:	e7f8      	b.n	3ad0 <__libc_init_array+0x2c>
    3ade:	bd70      	pop	{r4, r5, r6, pc}
    3ae0:	1ffff2b0 	.word	0x1ffff2b0
    3ae4:	1ffff2b0 	.word	0x1ffff2b0
    3ae8:	1ffff2b0 	.word	0x1ffff2b0
    3aec:	1ffff2b8 	.word	0x1ffff2b8

00003af0 <malloc>:
    3af0:	b508      	push	{r3, lr}
    3af2:	4b03      	ldr	r3, [pc, #12]	; (3b00 <malloc+0x10>)
    3af4:	1c01      	adds	r1, r0, #0
    3af6:	6818      	ldr	r0, [r3, #0]
    3af8:	f000 f85e 	bl	3bb8 <_malloc_r>
    3afc:	bd08      	pop	{r3, pc}
    3afe:	46c0      	nop			; (mov r8, r8)
    3b00:	1ffff2ac 	.word	0x1ffff2ac

00003b04 <memcpy>:
    3b04:	b510      	push	{r4, lr}
    3b06:	2300      	movs	r3, #0
    3b08:	4293      	cmp	r3, r2
    3b0a:	d003      	beq.n	3b14 <memcpy+0x10>
    3b0c:	5ccc      	ldrb	r4, [r1, r3]
    3b0e:	54c4      	strb	r4, [r0, r3]
    3b10:	3301      	adds	r3, #1
    3b12:	e7f9      	b.n	3b08 <memcpy+0x4>
    3b14:	bd10      	pop	{r4, pc}

00003b16 <memset>:
    3b16:	1c03      	adds	r3, r0, #0
    3b18:	1882      	adds	r2, r0, r2
    3b1a:	4293      	cmp	r3, r2
    3b1c:	d002      	beq.n	3b24 <memset+0xe>
    3b1e:	7019      	strb	r1, [r3, #0]
    3b20:	3301      	adds	r3, #1
    3b22:	e7fa      	b.n	3b1a <memset+0x4>
    3b24:	4770      	bx	lr
	...

00003b28 <_free_r>:
    3b28:	b530      	push	{r4, r5, lr}
    3b2a:	2900      	cmp	r1, #0
    3b2c:	d040      	beq.n	3bb0 <_free_r+0x88>
    3b2e:	3904      	subs	r1, #4
    3b30:	680b      	ldr	r3, [r1, #0]
    3b32:	2b00      	cmp	r3, #0
    3b34:	da00      	bge.n	3b38 <_free_r+0x10>
    3b36:	18c9      	adds	r1, r1, r3
    3b38:	4a1e      	ldr	r2, [pc, #120]	; (3bb4 <_free_r+0x8c>)
    3b3a:	6813      	ldr	r3, [r2, #0]
    3b3c:	1c14      	adds	r4, r2, #0
    3b3e:	2b00      	cmp	r3, #0
    3b40:	d102      	bne.n	3b48 <_free_r+0x20>
    3b42:	604b      	str	r3, [r1, #4]
    3b44:	6011      	str	r1, [r2, #0]
    3b46:	e033      	b.n	3bb0 <_free_r+0x88>
    3b48:	4299      	cmp	r1, r3
    3b4a:	d20f      	bcs.n	3b6c <_free_r+0x44>
    3b4c:	6808      	ldr	r0, [r1, #0]
    3b4e:	180a      	adds	r2, r1, r0
    3b50:	429a      	cmp	r2, r3
    3b52:	d105      	bne.n	3b60 <_free_r+0x38>
    3b54:	6813      	ldr	r3, [r2, #0]
    3b56:	6852      	ldr	r2, [r2, #4]
    3b58:	18c0      	adds	r0, r0, r3
    3b5a:	6008      	str	r0, [r1, #0]
    3b5c:	604a      	str	r2, [r1, #4]
    3b5e:	e000      	b.n	3b62 <_free_r+0x3a>
    3b60:	604b      	str	r3, [r1, #4]
    3b62:	6021      	str	r1, [r4, #0]
    3b64:	e024      	b.n	3bb0 <_free_r+0x88>
    3b66:	428a      	cmp	r2, r1
    3b68:	d803      	bhi.n	3b72 <_free_r+0x4a>
    3b6a:	1c13      	adds	r3, r2, #0
    3b6c:	685a      	ldr	r2, [r3, #4]
    3b6e:	2a00      	cmp	r2, #0
    3b70:	d1f9      	bne.n	3b66 <_free_r+0x3e>
    3b72:	681d      	ldr	r5, [r3, #0]
    3b74:	195c      	adds	r4, r3, r5
    3b76:	428c      	cmp	r4, r1
    3b78:	d10b      	bne.n	3b92 <_free_r+0x6a>
    3b7a:	6809      	ldr	r1, [r1, #0]
    3b7c:	1869      	adds	r1, r5, r1
    3b7e:	1858      	adds	r0, r3, r1
    3b80:	6019      	str	r1, [r3, #0]
    3b82:	4290      	cmp	r0, r2
    3b84:	d114      	bne.n	3bb0 <_free_r+0x88>
    3b86:	6814      	ldr	r4, [r2, #0]
    3b88:	6852      	ldr	r2, [r2, #4]
    3b8a:	1909      	adds	r1, r1, r4
    3b8c:	6019      	str	r1, [r3, #0]
    3b8e:	605a      	str	r2, [r3, #4]
    3b90:	e00e      	b.n	3bb0 <_free_r+0x88>
    3b92:	428c      	cmp	r4, r1
    3b94:	d902      	bls.n	3b9c <_free_r+0x74>
    3b96:	230c      	movs	r3, #12
    3b98:	6003      	str	r3, [r0, #0]
    3b9a:	e009      	b.n	3bb0 <_free_r+0x88>
    3b9c:	6808      	ldr	r0, [r1, #0]
    3b9e:	180c      	adds	r4, r1, r0
    3ba0:	4294      	cmp	r4, r2
    3ba2:	d103      	bne.n	3bac <_free_r+0x84>
    3ba4:	6814      	ldr	r4, [r2, #0]
    3ba6:	6852      	ldr	r2, [r2, #4]
    3ba8:	1900      	adds	r0, r0, r4
    3baa:	6008      	str	r0, [r1, #0]
    3bac:	604a      	str	r2, [r1, #4]
    3bae:	6059      	str	r1, [r3, #4]
    3bb0:	bd30      	pop	{r4, r5, pc}
    3bb2:	46c0      	nop			; (mov r8, r8)
    3bb4:	1ffffa34 	.word	0x1ffffa34

00003bb8 <_malloc_r>:
    3bb8:	b570      	push	{r4, r5, r6, lr}
    3bba:	2303      	movs	r3, #3
    3bbc:	1ccd      	adds	r5, r1, #3
    3bbe:	439d      	bics	r5, r3
    3bc0:	3508      	adds	r5, #8
    3bc2:	1c06      	adds	r6, r0, #0
    3bc4:	2d0c      	cmp	r5, #12
    3bc6:	d201      	bcs.n	3bcc <_malloc_r+0x14>
    3bc8:	250c      	movs	r5, #12
    3bca:	e001      	b.n	3bd0 <_malloc_r+0x18>
    3bcc:	2d00      	cmp	r5, #0
    3bce:	db3f      	blt.n	3c50 <_malloc_r+0x98>
    3bd0:	428d      	cmp	r5, r1
    3bd2:	d33d      	bcc.n	3c50 <_malloc_r+0x98>
    3bd4:	4b20      	ldr	r3, [pc, #128]	; (3c58 <_malloc_r+0xa0>)
    3bd6:	681c      	ldr	r4, [r3, #0]
    3bd8:	1c1a      	adds	r2, r3, #0
    3bda:	1c21      	adds	r1, r4, #0
    3bdc:	2900      	cmp	r1, #0
    3bde:	d013      	beq.n	3c08 <_malloc_r+0x50>
    3be0:	6808      	ldr	r0, [r1, #0]
    3be2:	1b43      	subs	r3, r0, r5
    3be4:	d40d      	bmi.n	3c02 <_malloc_r+0x4a>
    3be6:	2b0b      	cmp	r3, #11
    3be8:	d902      	bls.n	3bf0 <_malloc_r+0x38>
    3bea:	600b      	str	r3, [r1, #0]
    3bec:	18cc      	adds	r4, r1, r3
    3bee:	e01e      	b.n	3c2e <_malloc_r+0x76>
    3bf0:	428c      	cmp	r4, r1
    3bf2:	d102      	bne.n	3bfa <_malloc_r+0x42>
    3bf4:	6863      	ldr	r3, [r4, #4]
    3bf6:	6013      	str	r3, [r2, #0]
    3bf8:	e01a      	b.n	3c30 <_malloc_r+0x78>
    3bfa:	6848      	ldr	r0, [r1, #4]
    3bfc:	6060      	str	r0, [r4, #4]
    3bfe:	1c0c      	adds	r4, r1, #0
    3c00:	e016      	b.n	3c30 <_malloc_r+0x78>
    3c02:	1c0c      	adds	r4, r1, #0
    3c04:	6849      	ldr	r1, [r1, #4]
    3c06:	e7e9      	b.n	3bdc <_malloc_r+0x24>
    3c08:	4c14      	ldr	r4, [pc, #80]	; (3c5c <_malloc_r+0xa4>)
    3c0a:	6820      	ldr	r0, [r4, #0]
    3c0c:	2800      	cmp	r0, #0
    3c0e:	d103      	bne.n	3c18 <_malloc_r+0x60>
    3c10:	1c30      	adds	r0, r6, #0
    3c12:	f000 f825 	bl	3c60 <_sbrk_r>
    3c16:	6020      	str	r0, [r4, #0]
    3c18:	1c30      	adds	r0, r6, #0
    3c1a:	1c29      	adds	r1, r5, #0
    3c1c:	f000 f820 	bl	3c60 <_sbrk_r>
    3c20:	1c43      	adds	r3, r0, #1
    3c22:	d015      	beq.n	3c50 <_malloc_r+0x98>
    3c24:	1cc4      	adds	r4, r0, #3
    3c26:	2303      	movs	r3, #3
    3c28:	439c      	bics	r4, r3
    3c2a:	4284      	cmp	r4, r0
    3c2c:	d10a      	bne.n	3c44 <_malloc_r+0x8c>
    3c2e:	6025      	str	r5, [r4, #0]
    3c30:	1c20      	adds	r0, r4, #0
    3c32:	300b      	adds	r0, #11
    3c34:	2207      	movs	r2, #7
    3c36:	1d23      	adds	r3, r4, #4
    3c38:	4390      	bics	r0, r2
    3c3a:	1ac3      	subs	r3, r0, r3
    3c3c:	d00b      	beq.n	3c56 <_malloc_r+0x9e>
    3c3e:	425a      	negs	r2, r3
    3c40:	50e2      	str	r2, [r4, r3]
    3c42:	e008      	b.n	3c56 <_malloc_r+0x9e>
    3c44:	1a21      	subs	r1, r4, r0
    3c46:	1c30      	adds	r0, r6, #0
    3c48:	f000 f80a 	bl	3c60 <_sbrk_r>
    3c4c:	3001      	adds	r0, #1
    3c4e:	d1ee      	bne.n	3c2e <_malloc_r+0x76>
    3c50:	230c      	movs	r3, #12
    3c52:	6033      	str	r3, [r6, #0]
    3c54:	2000      	movs	r0, #0
    3c56:	bd70      	pop	{r4, r5, r6, pc}
    3c58:	1ffffa34 	.word	0x1ffffa34
    3c5c:	1ffffa30 	.word	0x1ffffa30

00003c60 <_sbrk_r>:
    3c60:	b538      	push	{r3, r4, r5, lr}
    3c62:	4c07      	ldr	r4, [pc, #28]	; (3c80 <_sbrk_r+0x20>)
    3c64:	2300      	movs	r3, #0
    3c66:	1c05      	adds	r5, r0, #0
    3c68:	1c08      	adds	r0, r1, #0
    3c6a:	6023      	str	r3, [r4, #0]
    3c6c:	f7fe f834 	bl	1cd8 <_sbrk>
    3c70:	1c43      	adds	r3, r0, #1
    3c72:	d103      	bne.n	3c7c <_sbrk_r+0x1c>
    3c74:	6823      	ldr	r3, [r4, #0]
    3c76:	2b00      	cmp	r3, #0
    3c78:	d000      	beq.n	3c7c <_sbrk_r+0x1c>
    3c7a:	602b      	str	r3, [r5, #0]
    3c7c:	bd38      	pop	{r3, r4, r5, pc}
    3c7e:	46c0      	nop			; (mov r8, r8)
    3c80:	1ffffa40 	.word	0x1ffffa40

00003c84 <__sread>:
    3c84:	b538      	push	{r3, r4, r5, lr}
    3c86:	1c0c      	adds	r4, r1, #0
    3c88:	250e      	movs	r5, #14
    3c8a:	5f49      	ldrsh	r1, [r1, r5]
    3c8c:	f000 fc74 	bl	4578 <_read_r>
    3c90:	2800      	cmp	r0, #0
    3c92:	db03      	blt.n	3c9c <__sread+0x18>
    3c94:	6d62      	ldr	r2, [r4, #84]	; 0x54
    3c96:	1813      	adds	r3, r2, r0
    3c98:	6563      	str	r3, [r4, #84]	; 0x54
    3c9a:	e003      	b.n	3ca4 <__sread+0x20>
    3c9c:	89a2      	ldrh	r2, [r4, #12]
    3c9e:	4b02      	ldr	r3, [pc, #8]	; (3ca8 <__sread+0x24>)
    3ca0:	4013      	ands	r3, r2
    3ca2:	81a3      	strh	r3, [r4, #12]
    3ca4:	bd38      	pop	{r3, r4, r5, pc}
    3ca6:	46c0      	nop			; (mov r8, r8)
    3ca8:	ffffefff 	.word	0xffffefff

00003cac <__swrite>:
    3cac:	b5f8      	push	{r3, r4, r5, r6, r7, lr}
    3cae:	1c1e      	adds	r6, r3, #0
    3cb0:	898b      	ldrh	r3, [r1, #12]
    3cb2:	1c05      	adds	r5, r0, #0
    3cb4:	1c0c      	adds	r4, r1, #0
    3cb6:	1c17      	adds	r7, r2, #0
    3cb8:	05da      	lsls	r2, r3, #23
    3cba:	d505      	bpl.n	3cc8 <__swrite+0x1c>
    3cbc:	230e      	movs	r3, #14
    3cbe:	5ec9      	ldrsh	r1, [r1, r3]
    3cc0:	2200      	movs	r2, #0
    3cc2:	2302      	movs	r3, #2
    3cc4:	f000 fbe8 	bl	4498 <_lseek_r>
    3cc8:	89a2      	ldrh	r2, [r4, #12]
    3cca:	4b05      	ldr	r3, [pc, #20]	; (3ce0 <__swrite+0x34>)
    3ccc:	1c28      	adds	r0, r5, #0
    3cce:	4013      	ands	r3, r2
    3cd0:	81a3      	strh	r3, [r4, #12]
    3cd2:	220e      	movs	r2, #14
    3cd4:	5ea1      	ldrsh	r1, [r4, r2]
    3cd6:	1c33      	adds	r3, r6, #0
    3cd8:	1c3a      	adds	r2, r7, #0
    3cda:	f000 fb45 	bl	4368 <_write_r>
    3cde:	bdf8      	pop	{r3, r4, r5, r6, r7, pc}
    3ce0:	ffffefff 	.word	0xffffefff

00003ce4 <__sseek>:
    3ce4:	b538      	push	{r3, r4, r5, lr}
    3ce6:	1c0c      	adds	r4, r1, #0
    3ce8:	250e      	movs	r5, #14
    3cea:	5f49      	ldrsh	r1, [r1, r5]
    3cec:	f000 fbd4 	bl	4498 <_lseek_r>
    3cf0:	89a3      	ldrh	r3, [r4, #12]
    3cf2:	1c42      	adds	r2, r0, #1
    3cf4:	d103      	bne.n	3cfe <__sseek+0x1a>
    3cf6:	4a05      	ldr	r2, [pc, #20]	; (3d0c <__sseek+0x28>)
    3cf8:	4013      	ands	r3, r2
    3cfa:	81a3      	strh	r3, [r4, #12]
    3cfc:	e004      	b.n	3d08 <__sseek+0x24>
    3cfe:	2280      	movs	r2, #128	; 0x80
    3d00:	0152      	lsls	r2, r2, #5
    3d02:	4313      	orrs	r3, r2
    3d04:	81a3      	strh	r3, [r4, #12]
    3d06:	6560      	str	r0, [r4, #84]	; 0x54
    3d08:	bd38      	pop	{r3, r4, r5, pc}
    3d0a:	46c0      	nop			; (mov r8, r8)
    3d0c:	ffffefff 	.word	0xffffefff

00003d10 <__sclose>:
    3d10:	b508      	push	{r3, lr}
    3d12:	230e      	movs	r3, #14
    3d14:	5ec9      	ldrsh	r1, [r1, r3]
    3d16:	f000 fbad 	bl	4474 <_close_r>
    3d1a:	bd08      	pop	{r3, pc}

00003d1c <strlen>:
    3d1c:	2300      	movs	r3, #0
    3d1e:	5cc2      	ldrb	r2, [r0, r3]
    3d20:	3301      	adds	r3, #1
    3d22:	2a00      	cmp	r2, #0
    3d24:	d1fb      	bne.n	3d1e <strlen+0x2>
    3d26:	1e58      	subs	r0, r3, #1
    3d28:	4770      	bx	lr

00003d2a <__sfputc_r>:
    3d2a:	6893      	ldr	r3, [r2, #8]
    3d2c:	b510      	push	{r4, lr}
    3d2e:	3b01      	subs	r3, #1
    3d30:	6093      	str	r3, [r2, #8]
    3d32:	2b00      	cmp	r3, #0
    3d34:	da05      	bge.n	3d42 <__sfputc_r+0x18>
    3d36:	6994      	ldr	r4, [r2, #24]
    3d38:	42a3      	cmp	r3, r4
    3d3a:	db08      	blt.n	3d4e <__sfputc_r+0x24>
    3d3c:	b2cb      	uxtb	r3, r1
    3d3e:	2b0a      	cmp	r3, #10
    3d40:	d005      	beq.n	3d4e <__sfputc_r+0x24>
    3d42:	6813      	ldr	r3, [r2, #0]
    3d44:	1c58      	adds	r0, r3, #1
    3d46:	6010      	str	r0, [r2, #0]
    3d48:	7019      	strb	r1, [r3, #0]
    3d4a:	b2c8      	uxtb	r0, r1
    3d4c:	e001      	b.n	3d52 <__sfputc_r+0x28>
    3d4e:	f000 fab3 	bl	42b8 <__swbuf_r>
    3d52:	bd10      	pop	{r4, pc}

00003d54 <__sfputs_r>:
    3d54:	b5f8      	push	{r3, r4, r5, r6, r7, lr}
    3d56:	1c06      	adds	r6, r0, #0
    3d58:	1c0f      	adds	r7, r1, #0
    3d5a:	1c14      	adds	r4, r2, #0
    3d5c:	18d5      	adds	r5, r2, r3
    3d5e:	42ac      	cmp	r4, r5
    3d60:	d008      	beq.n	3d74 <__sfputs_r+0x20>
    3d62:	7821      	ldrb	r1, [r4, #0]
    3d64:	1c30      	adds	r0, r6, #0
    3d66:	1c3a      	adds	r2, r7, #0
    3d68:	f7ff ffdf 	bl	3d2a <__sfputc_r>
    3d6c:	3401      	adds	r4, #1
    3d6e:	1c43      	adds	r3, r0, #1
    3d70:	d1f5      	bne.n	3d5e <__sfputs_r+0xa>
    3d72:	e000      	b.n	3d76 <__sfputs_r+0x22>
    3d74:	2000      	movs	r0, #0
    3d76:	bdf8      	pop	{r3, r4, r5, r6, r7, pc}

00003d78 <_vfiprintf_r>:
    3d78:	b5f0      	push	{r4, r5, r6, r7, lr}
    3d7a:	b09f      	sub	sp, #124	; 0x7c
    3d7c:	1c06      	adds	r6, r0, #0
    3d7e:	1c0f      	adds	r7, r1, #0
    3d80:	9203      	str	r2, [sp, #12]
    3d82:	9305      	str	r3, [sp, #20]
    3d84:	2800      	cmp	r0, #0
    3d86:	d004      	beq.n	3d92 <_vfiprintf_r+0x1a>
    3d88:	6981      	ldr	r1, [r0, #24]
    3d8a:	2900      	cmp	r1, #0
    3d8c:	d101      	bne.n	3d92 <_vfiprintf_r+0x1a>
    3d8e:	f7ff fdf7 	bl	3980 <__sinit>
    3d92:	4b75      	ldr	r3, [pc, #468]	; (3f68 <_vfiprintf_r+0x1f0>)
    3d94:	429f      	cmp	r7, r3
    3d96:	d101      	bne.n	3d9c <_vfiprintf_r+0x24>
    3d98:	6877      	ldr	r7, [r6, #4]
    3d9a:	e008      	b.n	3dae <_vfiprintf_r+0x36>
    3d9c:	4b73      	ldr	r3, [pc, #460]	; (3f6c <_vfiprintf_r+0x1f4>)
    3d9e:	429f      	cmp	r7, r3
    3da0:	d101      	bne.n	3da6 <_vfiprintf_r+0x2e>
    3da2:	68b7      	ldr	r7, [r6, #8]
    3da4:	e003      	b.n	3dae <_vfiprintf_r+0x36>
    3da6:	4b72      	ldr	r3, [pc, #456]	; (3f70 <_vfiprintf_r+0x1f8>)
    3da8:	429f      	cmp	r7, r3
    3daa:	d100      	bne.n	3dae <_vfiprintf_r+0x36>
    3dac:	68f7      	ldr	r7, [r6, #12]
    3dae:	89bb      	ldrh	r3, [r7, #12]
    3db0:	071a      	lsls	r2, r3, #28
    3db2:	d50a      	bpl.n	3dca <_vfiprintf_r+0x52>
    3db4:	693b      	ldr	r3, [r7, #16]
    3db6:	2b00      	cmp	r3, #0
    3db8:	d007      	beq.n	3dca <_vfiprintf_r+0x52>
    3dba:	ad06      	add	r5, sp, #24
    3dbc:	2300      	movs	r3, #0
    3dbe:	616b      	str	r3, [r5, #20]
    3dc0:	2320      	movs	r3, #32
    3dc2:	766b      	strb	r3, [r5, #25]
    3dc4:	2330      	movs	r3, #48	; 0x30
    3dc6:	76ab      	strb	r3, [r5, #26]
    3dc8:	e03b      	b.n	3e42 <_vfiprintf_r+0xca>
    3dca:	1c30      	adds	r0, r6, #0
    3dcc:	1c39      	adds	r1, r7, #0
    3dce:	f000 fadf 	bl	4390 <__swsetup_r>
    3dd2:	2800      	cmp	r0, #0
    3dd4:	d0f1      	beq.n	3dba <_vfiprintf_r+0x42>
    3dd6:	2001      	movs	r0, #1
    3dd8:	4240      	negs	r0, r0
    3dda:	e0c2      	b.n	3f62 <_vfiprintf_r+0x1ea>
    3ddc:	9a05      	ldr	r2, [sp, #20]
    3dde:	1d11      	adds	r1, r2, #4
    3de0:	6812      	ldr	r2, [r2, #0]
    3de2:	9105      	str	r1, [sp, #20]
    3de4:	2a00      	cmp	r2, #0
    3de6:	db76      	blt.n	3ed6 <_vfiprintf_r+0x15e>
    3de8:	9209      	str	r2, [sp, #36]	; 0x24
    3dea:	3401      	adds	r4, #1
    3dec:	7823      	ldrb	r3, [r4, #0]
    3dee:	2b2e      	cmp	r3, #46	; 0x2e
    3df0:	d100      	bne.n	3df4 <_vfiprintf_r+0x7c>
    3df2:	e081      	b.n	3ef8 <_vfiprintf_r+0x180>
    3df4:	7821      	ldrb	r1, [r4, #0]
    3df6:	485f      	ldr	r0, [pc, #380]	; (3f74 <_vfiprintf_r+0x1fc>)
    3df8:	2203      	movs	r2, #3
    3dfa:	f000 fbb1 	bl	4560 <memchr>
    3dfe:	2800      	cmp	r0, #0
    3e00:	d007      	beq.n	3e12 <_vfiprintf_r+0x9a>
    3e02:	495c      	ldr	r1, [pc, #368]	; (3f74 <_vfiprintf_r+0x1fc>)
    3e04:	682a      	ldr	r2, [r5, #0]
    3e06:	1a43      	subs	r3, r0, r1
    3e08:	2040      	movs	r0, #64	; 0x40
    3e0a:	4098      	lsls	r0, r3
    3e0c:	4310      	orrs	r0, r2
    3e0e:	6028      	str	r0, [r5, #0]
    3e10:	3401      	adds	r4, #1
    3e12:	7821      	ldrb	r1, [r4, #0]
    3e14:	1c63      	adds	r3, r4, #1
    3e16:	4858      	ldr	r0, [pc, #352]	; (3f78 <_vfiprintf_r+0x200>)
    3e18:	2206      	movs	r2, #6
    3e1a:	9303      	str	r3, [sp, #12]
    3e1c:	7629      	strb	r1, [r5, #24]
    3e1e:	f000 fb9f 	bl	4560 <memchr>
    3e22:	2800      	cmp	r0, #0
    3e24:	d100      	bne.n	3e28 <_vfiprintf_r+0xb0>
    3e26:	e08a      	b.n	3f3e <_vfiprintf_r+0x1c6>
    3e28:	4b54      	ldr	r3, [pc, #336]	; (3f7c <_vfiprintf_r+0x204>)
    3e2a:	2b00      	cmp	r3, #0
    3e2c:	d17e      	bne.n	3f2c <_vfiprintf_r+0x1b4>
    3e2e:	9b05      	ldr	r3, [sp, #20]
    3e30:	2207      	movs	r2, #7
    3e32:	3307      	adds	r3, #7
    3e34:	4393      	bics	r3, r2
    3e36:	3308      	adds	r3, #8
    3e38:	9305      	str	r3, [sp, #20]
    3e3a:	696a      	ldr	r2, [r5, #20]
    3e3c:	9904      	ldr	r1, [sp, #16]
    3e3e:	1853      	adds	r3, r2, r1
    3e40:	616b      	str	r3, [r5, #20]
    3e42:	9c03      	ldr	r4, [sp, #12]
    3e44:	7823      	ldrb	r3, [r4, #0]
    3e46:	2b00      	cmp	r3, #0
    3e48:	d104      	bne.n	3e54 <_vfiprintf_r+0xdc>
    3e4a:	9903      	ldr	r1, [sp, #12]
    3e4c:	1a61      	subs	r1, r4, r1
    3e4e:	9102      	str	r1, [sp, #8]
    3e50:	d010      	beq.n	3e74 <_vfiprintf_r+0xfc>
    3e52:	e003      	b.n	3e5c <_vfiprintf_r+0xe4>
    3e54:	2b25      	cmp	r3, #37	; 0x25
    3e56:	d0f8      	beq.n	3e4a <_vfiprintf_r+0xd2>
    3e58:	3401      	adds	r4, #1
    3e5a:	e7f3      	b.n	3e44 <_vfiprintf_r+0xcc>
    3e5c:	1c30      	adds	r0, r6, #0
    3e5e:	1c39      	adds	r1, r7, #0
    3e60:	9a03      	ldr	r2, [sp, #12]
    3e62:	9b02      	ldr	r3, [sp, #8]
    3e64:	f7ff ff76 	bl	3d54 <__sfputs_r>
    3e68:	3001      	adds	r0, #1
    3e6a:	d075      	beq.n	3f58 <_vfiprintf_r+0x1e0>
    3e6c:	696a      	ldr	r2, [r5, #20]
    3e6e:	9902      	ldr	r1, [sp, #8]
    3e70:	1853      	adds	r3, r2, r1
    3e72:	616b      	str	r3, [r5, #20]
    3e74:	7823      	ldrb	r3, [r4, #0]
    3e76:	2b00      	cmp	r3, #0
    3e78:	d06e      	beq.n	3f58 <_vfiprintf_r+0x1e0>
    3e7a:	2201      	movs	r2, #1
    3e7c:	4252      	negs	r2, r2
    3e7e:	606a      	str	r2, [r5, #4]
    3e80:	466a      	mov	r2, sp
    3e82:	2300      	movs	r3, #0
    3e84:	325b      	adds	r2, #91	; 0x5b
    3e86:	3401      	adds	r4, #1
    3e88:	602b      	str	r3, [r5, #0]
    3e8a:	60eb      	str	r3, [r5, #12]
    3e8c:	60ab      	str	r3, [r5, #8]
    3e8e:	7013      	strb	r3, [r2, #0]
    3e90:	65ab      	str	r3, [r5, #88]	; 0x58
    3e92:	7821      	ldrb	r1, [r4, #0]
    3e94:	483a      	ldr	r0, [pc, #232]	; (3f80 <_vfiprintf_r+0x208>)
    3e96:	2205      	movs	r2, #5
    3e98:	f000 fb62 	bl	4560 <memchr>
    3e9c:	2800      	cmp	r0, #0
    3e9e:	d008      	beq.n	3eb2 <_vfiprintf_r+0x13a>
    3ea0:	4a37      	ldr	r2, [pc, #220]	; (3f80 <_vfiprintf_r+0x208>)
    3ea2:	3401      	adds	r4, #1
    3ea4:	1a83      	subs	r3, r0, r2
    3ea6:	2001      	movs	r0, #1
    3ea8:	4098      	lsls	r0, r3
    3eaa:	682b      	ldr	r3, [r5, #0]
    3eac:	4318      	orrs	r0, r3
    3eae:	6028      	str	r0, [r5, #0]
    3eb0:	e7ef      	b.n	3e92 <_vfiprintf_r+0x11a>
    3eb2:	682b      	ldr	r3, [r5, #0]
    3eb4:	06d9      	lsls	r1, r3, #27
    3eb6:	d503      	bpl.n	3ec0 <_vfiprintf_r+0x148>
    3eb8:	466a      	mov	r2, sp
    3eba:	2120      	movs	r1, #32
    3ebc:	325b      	adds	r2, #91	; 0x5b
    3ebe:	7011      	strb	r1, [r2, #0]
    3ec0:	071a      	lsls	r2, r3, #28
    3ec2:	d503      	bpl.n	3ecc <_vfiprintf_r+0x154>
    3ec4:	466a      	mov	r2, sp
    3ec6:	212b      	movs	r1, #43	; 0x2b
    3ec8:	325b      	adds	r2, #91	; 0x5b
    3eca:	7011      	strb	r1, [r2, #0]
    3ecc:	7822      	ldrb	r2, [r4, #0]
    3ece:	2a2a      	cmp	r2, #42	; 0x2a
    3ed0:	d084      	beq.n	3ddc <_vfiprintf_r+0x64>
    3ed2:	9b09      	ldr	r3, [sp, #36]	; 0x24
    3ed4:	e005      	b.n	3ee2 <_vfiprintf_r+0x16a>
    3ed6:	4252      	negs	r2, r2
    3ed8:	60ea      	str	r2, [r5, #12]
    3eda:	2202      	movs	r2, #2
    3edc:	4313      	orrs	r3, r2
    3ede:	602b      	str	r3, [r5, #0]
    3ee0:	e783      	b.n	3dea <_vfiprintf_r+0x72>
    3ee2:	7822      	ldrb	r2, [r4, #0]
    3ee4:	3a30      	subs	r2, #48	; 0x30
    3ee6:	2a09      	cmp	r2, #9
    3ee8:	d804      	bhi.n	3ef4 <_vfiprintf_r+0x17c>
    3eea:	210a      	movs	r1, #10
    3eec:	434b      	muls	r3, r1
    3eee:	3401      	adds	r4, #1
    3ef0:	189b      	adds	r3, r3, r2
    3ef2:	e7f6      	b.n	3ee2 <_vfiprintf_r+0x16a>
    3ef4:	9309      	str	r3, [sp, #36]	; 0x24
    3ef6:	e779      	b.n	3dec <_vfiprintf_r+0x74>
    3ef8:	7863      	ldrb	r3, [r4, #1]
    3efa:	2b2a      	cmp	r3, #42	; 0x2a
    3efc:	d109      	bne.n	3f12 <_vfiprintf_r+0x19a>
    3efe:	9b05      	ldr	r3, [sp, #20]
    3f00:	3402      	adds	r4, #2
    3f02:	1d1a      	adds	r2, r3, #4
    3f04:	681b      	ldr	r3, [r3, #0]
    3f06:	9205      	str	r2, [sp, #20]
    3f08:	2b00      	cmp	r3, #0
    3f0a:	da0d      	bge.n	3f28 <_vfiprintf_r+0x1b0>
    3f0c:	2301      	movs	r3, #1
    3f0e:	425b      	negs	r3, r3
    3f10:	e00a      	b.n	3f28 <_vfiprintf_r+0x1b0>
    3f12:	3401      	adds	r4, #1
    3f14:	2300      	movs	r3, #0
    3f16:	7822      	ldrb	r2, [r4, #0]
    3f18:	3a30      	subs	r2, #48	; 0x30
    3f1a:	2a09      	cmp	r2, #9
    3f1c:	d804      	bhi.n	3f28 <_vfiprintf_r+0x1b0>
    3f1e:	210a      	movs	r1, #10
    3f20:	434b      	muls	r3, r1
    3f22:	3401      	adds	r4, #1
    3f24:	189b      	adds	r3, r3, r2
    3f26:	e7f6      	b.n	3f16 <_vfiprintf_r+0x19e>
    3f28:	9307      	str	r3, [sp, #28]
    3f2a:	e763      	b.n	3df4 <_vfiprintf_r+0x7c>
    3f2c:	ab05      	add	r3, sp, #20
    3f2e:	9300      	str	r3, [sp, #0]
    3f30:	1c30      	adds	r0, r6, #0
    3f32:	1c29      	adds	r1, r5, #0
    3f34:	1c3a      	adds	r2, r7, #0
    3f36:	4b13      	ldr	r3, [pc, #76]	; (3f84 <_vfiprintf_r+0x20c>)
    3f38:	e000      	b.n	3f3c <_vfiprintf_r+0x1c4>
    3f3a:	bf00      	nop
    3f3c:	e007      	b.n	3f4e <_vfiprintf_r+0x1d6>
    3f3e:	ab05      	add	r3, sp, #20
    3f40:	9300      	str	r3, [sp, #0]
    3f42:	1c30      	adds	r0, r6, #0
    3f44:	1c29      	adds	r1, r5, #0
    3f46:	1c3a      	adds	r2, r7, #0
    3f48:	4b0e      	ldr	r3, [pc, #56]	; (3f84 <_vfiprintf_r+0x20c>)
    3f4a:	f000 f89f 	bl	408c <_printf_i>
    3f4e:	9004      	str	r0, [sp, #16]
    3f50:	9904      	ldr	r1, [sp, #16]
    3f52:	3101      	adds	r1, #1
    3f54:	d000      	beq.n	3f58 <_vfiprintf_r+0x1e0>
    3f56:	e770      	b.n	3e3a <_vfiprintf_r+0xc2>
    3f58:	89bb      	ldrh	r3, [r7, #12]
    3f5a:	065a      	lsls	r2, r3, #25
    3f5c:	d500      	bpl.n	3f60 <_vfiprintf_r+0x1e8>
    3f5e:	e73a      	b.n	3dd6 <_vfiprintf_r+0x5e>
    3f60:	980b      	ldr	r0, [sp, #44]	; 0x2c
    3f62:	b01f      	add	sp, #124	; 0x7c
    3f64:	bdf0      	pop	{r4, r5, r6, r7, pc}
    3f66:	46c0      	nop			; (mov r8, r8)
    3f68:	00006ff0 	.word	0x00006ff0
    3f6c:	00007010 	.word	0x00007010
    3f70:	00007030 	.word	0x00007030
    3f74:	0000705e 	.word	0x0000705e
    3f78:	00007062 	.word	0x00007062
    3f7c:	00000000 	.word	0x00000000
    3f80:	00007058 	.word	0x00007058
    3f84:	00003d55 	.word	0x00003d55

00003f88 <vfiprintf>:
    3f88:	b538      	push	{r3, r4, r5, lr}
    3f8a:	1c13      	adds	r3, r2, #0
    3f8c:	4a04      	ldr	r2, [pc, #16]	; (3fa0 <vfiprintf+0x18>)
    3f8e:	1c05      	adds	r5, r0, #0
    3f90:	1c0c      	adds	r4, r1, #0
    3f92:	6810      	ldr	r0, [r2, #0]
    3f94:	1c29      	adds	r1, r5, #0
    3f96:	1c22      	adds	r2, r4, #0
    3f98:	f7ff feee 	bl	3d78 <_vfiprintf_r>
    3f9c:	bd38      	pop	{r3, r4, r5, pc}
    3f9e:	46c0      	nop			; (mov r8, r8)
    3fa0:	1ffff2ac 	.word	0x1ffff2ac

00003fa4 <_printf_common>:
    3fa4:	b5f7      	push	{r0, r1, r2, r4, r5, r6, r7, lr}
    3fa6:	1c15      	adds	r5, r2, #0
    3fa8:	9301      	str	r3, [sp, #4]
    3faa:	690a      	ldr	r2, [r1, #16]
    3fac:	688b      	ldr	r3, [r1, #8]
    3fae:	1c06      	adds	r6, r0, #0
    3fb0:	1c0c      	adds	r4, r1, #0
    3fb2:	4293      	cmp	r3, r2
    3fb4:	da00      	bge.n	3fb8 <_printf_common+0x14>
    3fb6:	1c13      	adds	r3, r2, #0
    3fb8:	1c22      	adds	r2, r4, #0
    3fba:	602b      	str	r3, [r5, #0]
    3fbc:	3243      	adds	r2, #67	; 0x43
    3fbe:	7812      	ldrb	r2, [r2, #0]
    3fc0:	2a00      	cmp	r2, #0
    3fc2:	d001      	beq.n	3fc8 <_printf_common+0x24>
    3fc4:	3301      	adds	r3, #1
    3fc6:	602b      	str	r3, [r5, #0]
    3fc8:	6820      	ldr	r0, [r4, #0]
    3fca:	0680      	lsls	r0, r0, #26
    3fcc:	d502      	bpl.n	3fd4 <_printf_common+0x30>
    3fce:	682b      	ldr	r3, [r5, #0]
    3fd0:	3302      	adds	r3, #2
    3fd2:	602b      	str	r3, [r5, #0]
    3fd4:	6821      	ldr	r1, [r4, #0]
    3fd6:	2706      	movs	r7, #6
    3fd8:	400f      	ands	r7, r1
    3fda:	d01f      	beq.n	401c <_printf_common+0x78>
    3fdc:	1c23      	adds	r3, r4, #0
    3fde:	3343      	adds	r3, #67	; 0x43
    3fe0:	781b      	ldrb	r3, [r3, #0]
    3fe2:	1e5a      	subs	r2, r3, #1
    3fe4:	4193      	sbcs	r3, r2
    3fe6:	6822      	ldr	r2, [r4, #0]
    3fe8:	0692      	lsls	r2, r2, #26
    3fea:	d51f      	bpl.n	402c <_printf_common+0x88>
    3fec:	18e1      	adds	r1, r4, r3
    3fee:	3140      	adds	r1, #64	; 0x40
    3ff0:	2030      	movs	r0, #48	; 0x30
    3ff2:	70c8      	strb	r0, [r1, #3]
    3ff4:	1c21      	adds	r1, r4, #0
    3ff6:	1c5a      	adds	r2, r3, #1
    3ff8:	3145      	adds	r1, #69	; 0x45
    3ffa:	7809      	ldrb	r1, [r1, #0]
    3ffc:	18a2      	adds	r2, r4, r2
    3ffe:	3240      	adds	r2, #64	; 0x40
    4000:	3302      	adds	r3, #2
    4002:	70d1      	strb	r1, [r2, #3]
    4004:	e012      	b.n	402c <_printf_common+0x88>
    4006:	1c22      	adds	r2, r4, #0
    4008:	1c30      	adds	r0, r6, #0
    400a:	9901      	ldr	r1, [sp, #4]
    400c:	3219      	adds	r2, #25
    400e:	2301      	movs	r3, #1
    4010:	9f08      	ldr	r7, [sp, #32]
    4012:	47b8      	blx	r7
    4014:	3001      	adds	r0, #1
    4016:	d011      	beq.n	403c <_printf_common+0x98>
    4018:	9f00      	ldr	r7, [sp, #0]
    401a:	3701      	adds	r7, #1
    401c:	9700      	str	r7, [sp, #0]
    401e:	68e0      	ldr	r0, [r4, #12]
    4020:	6829      	ldr	r1, [r5, #0]
    4022:	9f00      	ldr	r7, [sp, #0]
    4024:	1a43      	subs	r3, r0, r1
    4026:	429f      	cmp	r7, r3
    4028:	dbed      	blt.n	4006 <_printf_common+0x62>
    402a:	e7d7      	b.n	3fdc <_printf_common+0x38>
    402c:	1c22      	adds	r2, r4, #0
    402e:	1c30      	adds	r0, r6, #0
    4030:	9901      	ldr	r1, [sp, #4]
    4032:	3243      	adds	r2, #67	; 0x43
    4034:	9f08      	ldr	r7, [sp, #32]
    4036:	47b8      	blx	r7
    4038:	3001      	adds	r0, #1
    403a:	d102      	bne.n	4042 <_printf_common+0x9e>
    403c:	2001      	movs	r0, #1
    403e:	4240      	negs	r0, r0
    4040:	e023      	b.n	408a <_printf_common+0xe6>
    4042:	6820      	ldr	r0, [r4, #0]
    4044:	2106      	movs	r1, #6
    4046:	682b      	ldr	r3, [r5, #0]
    4048:	68e2      	ldr	r2, [r4, #12]
    404a:	4001      	ands	r1, r0
    404c:	2500      	movs	r5, #0
    404e:	2904      	cmp	r1, #4
    4050:	d103      	bne.n	405a <_printf_common+0xb6>
    4052:	1ad5      	subs	r5, r2, r3
    4054:	43eb      	mvns	r3, r5
    4056:	17db      	asrs	r3, r3, #31
    4058:	401d      	ands	r5, r3
    405a:	68a2      	ldr	r2, [r4, #8]
    405c:	6923      	ldr	r3, [r4, #16]
    405e:	429a      	cmp	r2, r3
    4060:	dd01      	ble.n	4066 <_printf_common+0xc2>
    4062:	1ad3      	subs	r3, r2, r3
    4064:	18ed      	adds	r5, r5, r3
    4066:	2700      	movs	r7, #0
    4068:	9700      	str	r7, [sp, #0]
    406a:	9f00      	ldr	r7, [sp, #0]
    406c:	42af      	cmp	r7, r5
    406e:	da0b      	bge.n	4088 <_printf_common+0xe4>
    4070:	1c22      	adds	r2, r4, #0
    4072:	1c30      	adds	r0, r6, #0
    4074:	9901      	ldr	r1, [sp, #4]
    4076:	321a      	adds	r2, #26
    4078:	2301      	movs	r3, #1
    407a:	9f08      	ldr	r7, [sp, #32]
    407c:	47b8      	blx	r7
    407e:	3001      	adds	r0, #1
    4080:	d0dc      	beq.n	403c <_printf_common+0x98>
    4082:	9f00      	ldr	r7, [sp, #0]
    4084:	3701      	adds	r7, #1
    4086:	e7ef      	b.n	4068 <_printf_common+0xc4>
    4088:	2000      	movs	r0, #0
    408a:	bdfe      	pop	{r1, r2, r3, r4, r5, r6, r7, pc}

0000408c <_printf_i>:
    408c:	b5f0      	push	{r4, r5, r6, r7, lr}
    408e:	1c0d      	adds	r5, r1, #0
    4090:	b08b      	sub	sp, #44	; 0x2c
    4092:	3543      	adds	r5, #67	; 0x43
    4094:	9206      	str	r2, [sp, #24]
    4096:	9005      	str	r0, [sp, #20]
    4098:	9307      	str	r3, [sp, #28]
    409a:	9504      	str	r5, [sp, #16]
    409c:	7e0b      	ldrb	r3, [r1, #24]
    409e:	1c0c      	adds	r4, r1, #0
    40a0:	9a10      	ldr	r2, [sp, #64]	; 0x40
    40a2:	2b6e      	cmp	r3, #110	; 0x6e
    40a4:	d100      	bne.n	40a8 <_printf_i+0x1c>
    40a6:	e0a7      	b.n	41f8 <_printf_i+0x16c>
    40a8:	d811      	bhi.n	40ce <_printf_i+0x42>
    40aa:	2b63      	cmp	r3, #99	; 0x63
    40ac:	d022      	beq.n	40f4 <_printf_i+0x68>
    40ae:	d809      	bhi.n	40c4 <_printf_i+0x38>
    40b0:	2b00      	cmp	r3, #0
    40b2:	d100      	bne.n	40b6 <_printf_i+0x2a>
    40b4:	e0b0      	b.n	4218 <_printf_i+0x18c>
    40b6:	2b58      	cmp	r3, #88	; 0x58
    40b8:	d000      	beq.n	40bc <_printf_i+0x30>
    40ba:	e0c0      	b.n	423e <_printf_i+0x1b2>
    40bc:	3145      	adds	r1, #69	; 0x45
    40be:	700b      	strb	r3, [r1, #0]
    40c0:	4d7b      	ldr	r5, [pc, #492]	; (42b0 <_printf_i+0x224>)
    40c2:	e04e      	b.n	4162 <_printf_i+0xd6>
    40c4:	2b64      	cmp	r3, #100	; 0x64
    40c6:	d01c      	beq.n	4102 <_printf_i+0x76>
    40c8:	2b69      	cmp	r3, #105	; 0x69
    40ca:	d01a      	beq.n	4102 <_printf_i+0x76>
    40cc:	e0b7      	b.n	423e <_printf_i+0x1b2>
    40ce:	2b73      	cmp	r3, #115	; 0x73
    40d0:	d100      	bne.n	40d4 <_printf_i+0x48>
    40d2:	e0a5      	b.n	4220 <_printf_i+0x194>
    40d4:	d809      	bhi.n	40ea <_printf_i+0x5e>
    40d6:	2b6f      	cmp	r3, #111	; 0x6f
    40d8:	d029      	beq.n	412e <_printf_i+0xa2>
    40da:	2b70      	cmp	r3, #112	; 0x70
    40dc:	d000      	beq.n	40e0 <_printf_i+0x54>
    40de:	e0ae      	b.n	423e <_printf_i+0x1b2>
    40e0:	680e      	ldr	r6, [r1, #0]
    40e2:	2320      	movs	r3, #32
    40e4:	4333      	orrs	r3, r6
    40e6:	600b      	str	r3, [r1, #0]
    40e8:	e036      	b.n	4158 <_printf_i+0xcc>
    40ea:	2b75      	cmp	r3, #117	; 0x75
    40ec:	d01f      	beq.n	412e <_printf_i+0xa2>
    40ee:	2b78      	cmp	r3, #120	; 0x78
    40f0:	d032      	beq.n	4158 <_printf_i+0xcc>
    40f2:	e0a4      	b.n	423e <_printf_i+0x1b2>
    40f4:	6813      	ldr	r3, [r2, #0]
    40f6:	1c0d      	adds	r5, r1, #0
    40f8:	1d19      	adds	r1, r3, #4
    40fa:	3542      	adds	r5, #66	; 0x42
    40fc:	6011      	str	r1, [r2, #0]
    40fe:	681b      	ldr	r3, [r3, #0]
    4100:	e09f      	b.n	4242 <_printf_i+0x1b6>
    4102:	6821      	ldr	r1, [r4, #0]
    4104:	6813      	ldr	r3, [r2, #0]
    4106:	060e      	lsls	r6, r1, #24
    4108:	d503      	bpl.n	4112 <_printf_i+0x86>
    410a:	1d19      	adds	r1, r3, #4
    410c:	6011      	str	r1, [r2, #0]
    410e:	681e      	ldr	r6, [r3, #0]
    4110:	e005      	b.n	411e <_printf_i+0x92>
    4112:	0648      	lsls	r0, r1, #25
    4114:	d5f9      	bpl.n	410a <_printf_i+0x7e>
    4116:	1d19      	adds	r1, r3, #4
    4118:	6011      	str	r1, [r2, #0]
    411a:	2100      	movs	r1, #0
    411c:	5e5e      	ldrsh	r6, [r3, r1]
    411e:	4b64      	ldr	r3, [pc, #400]	; (42b0 <_printf_i+0x224>)
    4120:	2e00      	cmp	r6, #0
    4122:	da3b      	bge.n	419c <_printf_i+0x110>
    4124:	9d04      	ldr	r5, [sp, #16]
    4126:	222d      	movs	r2, #45	; 0x2d
    4128:	4276      	negs	r6, r6
    412a:	702a      	strb	r2, [r5, #0]
    412c:	e036      	b.n	419c <_printf_i+0x110>
    412e:	6821      	ldr	r1, [r4, #0]
    4130:	6813      	ldr	r3, [r2, #0]
    4132:	060e      	lsls	r6, r1, #24
    4134:	d503      	bpl.n	413e <_printf_i+0xb2>
    4136:	1d19      	adds	r1, r3, #4
    4138:	6011      	str	r1, [r2, #0]
    413a:	681e      	ldr	r6, [r3, #0]
    413c:	e004      	b.n	4148 <_printf_i+0xbc>
    413e:	0648      	lsls	r0, r1, #25
    4140:	d5f9      	bpl.n	4136 <_printf_i+0xaa>
    4142:	1d19      	adds	r1, r3, #4
    4144:	881e      	ldrh	r6, [r3, #0]
    4146:	6011      	str	r1, [r2, #0]
    4148:	4b59      	ldr	r3, [pc, #356]	; (42b0 <_printf_i+0x224>)
    414a:	7e22      	ldrb	r2, [r4, #24]
    414c:	9303      	str	r3, [sp, #12]
    414e:	2708      	movs	r7, #8
    4150:	2a6f      	cmp	r2, #111	; 0x6f
    4152:	d01e      	beq.n	4192 <_printf_i+0x106>
    4154:	270a      	movs	r7, #10
    4156:	e01c      	b.n	4192 <_printf_i+0x106>
    4158:	1c23      	adds	r3, r4, #0
    415a:	2178      	movs	r1, #120	; 0x78
    415c:	3345      	adds	r3, #69	; 0x45
    415e:	4d55      	ldr	r5, [pc, #340]	; (42b4 <_printf_i+0x228>)
    4160:	7019      	strb	r1, [r3, #0]
    4162:	6811      	ldr	r1, [r2, #0]
    4164:	6823      	ldr	r3, [r4, #0]
    4166:	1d08      	adds	r0, r1, #4
    4168:	9503      	str	r5, [sp, #12]
    416a:	6010      	str	r0, [r2, #0]
    416c:	061e      	lsls	r6, r3, #24
    416e:	d501      	bpl.n	4174 <_printf_i+0xe8>
    4170:	680e      	ldr	r6, [r1, #0]
    4172:	e002      	b.n	417a <_printf_i+0xee>
    4174:	0658      	lsls	r0, r3, #25
    4176:	d5fb      	bpl.n	4170 <_printf_i+0xe4>
    4178:	880e      	ldrh	r6, [r1, #0]
    417a:	07d9      	lsls	r1, r3, #31
    417c:	d502      	bpl.n	4184 <_printf_i+0xf8>
    417e:	2220      	movs	r2, #32
    4180:	4313      	orrs	r3, r2
    4182:	6023      	str	r3, [r4, #0]
    4184:	2710      	movs	r7, #16
    4186:	2e00      	cmp	r6, #0
    4188:	d103      	bne.n	4192 <_printf_i+0x106>
    418a:	6822      	ldr	r2, [r4, #0]
    418c:	2320      	movs	r3, #32
    418e:	439a      	bics	r2, r3
    4190:	6022      	str	r2, [r4, #0]
    4192:	1c23      	adds	r3, r4, #0
    4194:	2200      	movs	r2, #0
    4196:	3343      	adds	r3, #67	; 0x43
    4198:	701a      	strb	r2, [r3, #0]
    419a:	e001      	b.n	41a0 <_printf_i+0x114>
    419c:	9303      	str	r3, [sp, #12]
    419e:	270a      	movs	r7, #10
    41a0:	6863      	ldr	r3, [r4, #4]
    41a2:	60a3      	str	r3, [r4, #8]
    41a4:	2b00      	cmp	r3, #0
    41a6:	db03      	blt.n	41b0 <_printf_i+0x124>
    41a8:	6825      	ldr	r5, [r4, #0]
    41aa:	2204      	movs	r2, #4
    41ac:	4395      	bics	r5, r2
    41ae:	6025      	str	r5, [r4, #0]
    41b0:	2e00      	cmp	r6, #0
    41b2:	d102      	bne.n	41ba <_printf_i+0x12e>
    41b4:	9d04      	ldr	r5, [sp, #16]
    41b6:	2b00      	cmp	r3, #0
    41b8:	d00e      	beq.n	41d8 <_printf_i+0x14c>
    41ba:	9d04      	ldr	r5, [sp, #16]
    41bc:	1c30      	adds	r0, r6, #0
    41be:	1c39      	adds	r1, r7, #0
    41c0:	f7fe fb10 	bl	27e4 <__aeabi_uidivmod>
    41c4:	9803      	ldr	r0, [sp, #12]
    41c6:	3d01      	subs	r5, #1
    41c8:	5c43      	ldrb	r3, [r0, r1]
    41ca:	1c30      	adds	r0, r6, #0
    41cc:	702b      	strb	r3, [r5, #0]
    41ce:	1c39      	adds	r1, r7, #0
    41d0:	f7fe fac4 	bl	275c <__aeabi_uidiv>
    41d4:	1e06      	subs	r6, r0, #0
    41d6:	d1f1      	bne.n	41bc <_printf_i+0x130>
    41d8:	2f08      	cmp	r7, #8
    41da:	d109      	bne.n	41f0 <_printf_i+0x164>
    41dc:	6821      	ldr	r1, [r4, #0]
    41de:	07c9      	lsls	r1, r1, #31
    41e0:	d506      	bpl.n	41f0 <_printf_i+0x164>
    41e2:	6862      	ldr	r2, [r4, #4]
    41e4:	6923      	ldr	r3, [r4, #16]
    41e6:	429a      	cmp	r2, r3
    41e8:	dc02      	bgt.n	41f0 <_printf_i+0x164>
    41ea:	3d01      	subs	r5, #1
    41ec:	2330      	movs	r3, #48	; 0x30
    41ee:	702b      	strb	r3, [r5, #0]
    41f0:	9e04      	ldr	r6, [sp, #16]
    41f2:	1b73      	subs	r3, r6, r5
    41f4:	6123      	str	r3, [r4, #16]
    41f6:	e02a      	b.n	424e <_printf_i+0x1c2>
    41f8:	6808      	ldr	r0, [r1, #0]
    41fa:	6813      	ldr	r3, [r2, #0]
    41fc:	6949      	ldr	r1, [r1, #20]
    41fe:	0605      	lsls	r5, r0, #24
    4200:	d504      	bpl.n	420c <_printf_i+0x180>
    4202:	1d18      	adds	r0, r3, #4
    4204:	6010      	str	r0, [r2, #0]
    4206:	681b      	ldr	r3, [r3, #0]
    4208:	6019      	str	r1, [r3, #0]
    420a:	e005      	b.n	4218 <_printf_i+0x18c>
    420c:	0646      	lsls	r6, r0, #25
    420e:	d5f8      	bpl.n	4202 <_printf_i+0x176>
    4210:	1d18      	adds	r0, r3, #4
    4212:	6010      	str	r0, [r2, #0]
    4214:	681b      	ldr	r3, [r3, #0]
    4216:	8019      	strh	r1, [r3, #0]
    4218:	2300      	movs	r3, #0
    421a:	6123      	str	r3, [r4, #16]
    421c:	9d04      	ldr	r5, [sp, #16]
    421e:	e016      	b.n	424e <_printf_i+0x1c2>
    4220:	6813      	ldr	r3, [r2, #0]
    4222:	1d19      	adds	r1, r3, #4
    4224:	6011      	str	r1, [r2, #0]
    4226:	681d      	ldr	r5, [r3, #0]
    4228:	1c28      	adds	r0, r5, #0
    422a:	f7ff fd77 	bl	3d1c <strlen>
    422e:	6863      	ldr	r3, [r4, #4]
    4230:	6120      	str	r0, [r4, #16]
    4232:	4298      	cmp	r0, r3
    4234:	d900      	bls.n	4238 <_printf_i+0x1ac>
    4236:	6123      	str	r3, [r4, #16]
    4238:	6920      	ldr	r0, [r4, #16]
    423a:	6060      	str	r0, [r4, #4]
    423c:	e004      	b.n	4248 <_printf_i+0x1bc>
    423e:	1c25      	adds	r5, r4, #0
    4240:	3542      	adds	r5, #66	; 0x42
    4242:	702b      	strb	r3, [r5, #0]
    4244:	2301      	movs	r3, #1
    4246:	6123      	str	r3, [r4, #16]
    4248:	9e04      	ldr	r6, [sp, #16]
    424a:	2300      	movs	r3, #0
    424c:	7033      	strb	r3, [r6, #0]
    424e:	9e07      	ldr	r6, [sp, #28]
    4250:	9805      	ldr	r0, [sp, #20]
    4252:	9600      	str	r6, [sp, #0]
    4254:	1c21      	adds	r1, r4, #0
    4256:	aa09      	add	r2, sp, #36	; 0x24
    4258:	9b06      	ldr	r3, [sp, #24]
    425a:	f7ff fea3 	bl	3fa4 <_printf_common>
    425e:	3001      	adds	r0, #1
    4260:	d102      	bne.n	4268 <_printf_i+0x1dc>
    4262:	2001      	movs	r0, #1
    4264:	4240      	negs	r0, r0
    4266:	e021      	b.n	42ac <_printf_i+0x220>
    4268:	1c2a      	adds	r2, r5, #0
    426a:	9805      	ldr	r0, [sp, #20]
    426c:	9906      	ldr	r1, [sp, #24]
    426e:	6923      	ldr	r3, [r4, #16]
    4270:	9d07      	ldr	r5, [sp, #28]
    4272:	47a8      	blx	r5
    4274:	3001      	adds	r0, #1
    4276:	d0f4      	beq.n	4262 <_printf_i+0x1d6>
    4278:	6826      	ldr	r6, [r4, #0]
    427a:	07b6      	lsls	r6, r6, #30
    427c:	d405      	bmi.n	428a <_printf_i+0x1fe>
    427e:	9b09      	ldr	r3, [sp, #36]	; 0x24
    4280:	68e0      	ldr	r0, [r4, #12]
    4282:	4298      	cmp	r0, r3
    4284:	da12      	bge.n	42ac <_printf_i+0x220>
    4286:	1c18      	adds	r0, r3, #0
    4288:	e010      	b.n	42ac <_printf_i+0x220>
    428a:	2500      	movs	r5, #0
    428c:	68e0      	ldr	r0, [r4, #12]
    428e:	9909      	ldr	r1, [sp, #36]	; 0x24
    4290:	1a43      	subs	r3, r0, r1
    4292:	429d      	cmp	r5, r3
    4294:	daf3      	bge.n	427e <_printf_i+0x1f2>
    4296:	1c22      	adds	r2, r4, #0
    4298:	9805      	ldr	r0, [sp, #20]
    429a:	9906      	ldr	r1, [sp, #24]
    429c:	3219      	adds	r2, #25
    429e:	2301      	movs	r3, #1
    42a0:	9e07      	ldr	r6, [sp, #28]
    42a2:	47b0      	blx	r6
    42a4:	3001      	adds	r0, #1
    42a6:	d0dc      	beq.n	4262 <_printf_i+0x1d6>
    42a8:	3501      	adds	r5, #1
    42aa:	e7ef      	b.n	428c <_printf_i+0x200>
    42ac:	b00b      	add	sp, #44	; 0x2c
    42ae:	bdf0      	pop	{r4, r5, r6, r7, pc}
    42b0:	00007069 	.word	0x00007069
    42b4:	0000707a 	.word	0x0000707a

000042b8 <__swbuf_r>:
    42b8:	b570      	push	{r4, r5, r6, lr}
    42ba:	1c05      	adds	r5, r0, #0
    42bc:	1c0e      	adds	r6, r1, #0
    42be:	1c14      	adds	r4, r2, #0
    42c0:	2800      	cmp	r0, #0
    42c2:	d004      	beq.n	42ce <__swbuf_r+0x16>
    42c4:	6982      	ldr	r2, [r0, #24]
    42c6:	2a00      	cmp	r2, #0
    42c8:	d101      	bne.n	42ce <__swbuf_r+0x16>
    42ca:	f7ff fb59 	bl	3980 <__sinit>
    42ce:	4b23      	ldr	r3, [pc, #140]	; (435c <__swbuf_r+0xa4>)
    42d0:	429c      	cmp	r4, r3
    42d2:	d101      	bne.n	42d8 <__swbuf_r+0x20>
    42d4:	686c      	ldr	r4, [r5, #4]
    42d6:	e008      	b.n	42ea <__swbuf_r+0x32>
    42d8:	4b21      	ldr	r3, [pc, #132]	; (4360 <__swbuf_r+0xa8>)
    42da:	429c      	cmp	r4, r3
    42dc:	d101      	bne.n	42e2 <__swbuf_r+0x2a>
    42de:	68ac      	ldr	r4, [r5, #8]
    42e0:	e003      	b.n	42ea <__swbuf_r+0x32>
    42e2:	4b20      	ldr	r3, [pc, #128]	; (4364 <__swbuf_r+0xac>)
    42e4:	429c      	cmp	r4, r3
    42e6:	d100      	bne.n	42ea <__swbuf_r+0x32>
    42e8:	68ec      	ldr	r4, [r5, #12]
    42ea:	69a3      	ldr	r3, [r4, #24]
    42ec:	60a3      	str	r3, [r4, #8]
    42ee:	89a3      	ldrh	r3, [r4, #12]
    42f0:	071a      	lsls	r2, r3, #28
    42f2:	d50a      	bpl.n	430a <__swbuf_r+0x52>
    42f4:	6923      	ldr	r3, [r4, #16]
    42f6:	2b00      	cmp	r3, #0
    42f8:	d007      	beq.n	430a <__swbuf_r+0x52>
    42fa:	6822      	ldr	r2, [r4, #0]
    42fc:	6923      	ldr	r3, [r4, #16]
    42fe:	b2f6      	uxtb	r6, r6
    4300:	1ad0      	subs	r0, r2, r3
    4302:	6962      	ldr	r2, [r4, #20]
    4304:	4290      	cmp	r0, r2
    4306:	db0f      	blt.n	4328 <__swbuf_r+0x70>
    4308:	e008      	b.n	431c <__swbuf_r+0x64>
    430a:	1c28      	adds	r0, r5, #0
    430c:	1c21      	adds	r1, r4, #0
    430e:	f000 f83f 	bl	4390 <__swsetup_r>
    4312:	2800      	cmp	r0, #0
    4314:	d0f1      	beq.n	42fa <__swbuf_r+0x42>
    4316:	2001      	movs	r0, #1
    4318:	4240      	negs	r0, r0
    431a:	e01d      	b.n	4358 <__swbuf_r+0xa0>
    431c:	1c28      	adds	r0, r5, #0
    431e:	1c21      	adds	r1, r4, #0
    4320:	f7ff fa9a 	bl	3858 <_fflush_r>
    4324:	2800      	cmp	r0, #0
    4326:	d1f6      	bne.n	4316 <__swbuf_r+0x5e>
    4328:	68a3      	ldr	r3, [r4, #8]
    432a:	3001      	adds	r0, #1
    432c:	3b01      	subs	r3, #1
    432e:	60a3      	str	r3, [r4, #8]
    4330:	6823      	ldr	r3, [r4, #0]
    4332:	1c5a      	adds	r2, r3, #1
    4334:	6022      	str	r2, [r4, #0]
    4336:	701e      	strb	r6, [r3, #0]
    4338:	6963      	ldr	r3, [r4, #20]
    433a:	4298      	cmp	r0, r3
    433c:	d005      	beq.n	434a <__swbuf_r+0x92>
    433e:	89a3      	ldrh	r3, [r4, #12]
    4340:	1c30      	adds	r0, r6, #0
    4342:	07da      	lsls	r2, r3, #31
    4344:	d508      	bpl.n	4358 <__swbuf_r+0xa0>
    4346:	2e0a      	cmp	r6, #10
    4348:	d106      	bne.n	4358 <__swbuf_r+0xa0>
    434a:	1c28      	adds	r0, r5, #0
    434c:	1c21      	adds	r1, r4, #0
    434e:	f7ff fa83 	bl	3858 <_fflush_r>
    4352:	2800      	cmp	r0, #0
    4354:	d1df      	bne.n	4316 <__swbuf_r+0x5e>
    4356:	1c30      	adds	r0, r6, #0
    4358:	bd70      	pop	{r4, r5, r6, pc}
    435a:	46c0      	nop			; (mov r8, r8)
    435c:	00006ff0 	.word	0x00006ff0
    4360:	00007010 	.word	0x00007010
    4364:	00007030 	.word	0x00007030

00004368 <_write_r>:
    4368:	b538      	push	{r3, r4, r5, lr}
    436a:	4c08      	ldr	r4, [pc, #32]	; (438c <_write_r+0x24>)
    436c:	1c05      	adds	r5, r0, #0
    436e:	2000      	movs	r0, #0
    4370:	6020      	str	r0, [r4, #0]
    4372:	1c08      	adds	r0, r1, #0
    4374:	1c11      	adds	r1, r2, #0
    4376:	1c1a      	adds	r2, r3, #0
    4378:	f7fd fc26 	bl	1bc8 <_write>
    437c:	1c43      	adds	r3, r0, #1
    437e:	d103      	bne.n	4388 <_write_r+0x20>
    4380:	6823      	ldr	r3, [r4, #0]
    4382:	2b00      	cmp	r3, #0
    4384:	d000      	beq.n	4388 <_write_r+0x20>
    4386:	602b      	str	r3, [r5, #0]
    4388:	bd38      	pop	{r3, r4, r5, pc}
    438a:	46c0      	nop			; (mov r8, r8)
    438c:	1ffffa40 	.word	0x1ffffa40

00004390 <__swsetup_r>:
    4390:	4b34      	ldr	r3, [pc, #208]	; (4464 <__swsetup_r+0xd4>)
    4392:	b570      	push	{r4, r5, r6, lr}
    4394:	681d      	ldr	r5, [r3, #0]
    4396:	1c06      	adds	r6, r0, #0
    4398:	1c0c      	adds	r4, r1, #0
    439a:	2d00      	cmp	r5, #0
    439c:	d005      	beq.n	43aa <__swsetup_r+0x1a>
    439e:	69a9      	ldr	r1, [r5, #24]
    43a0:	2900      	cmp	r1, #0
    43a2:	d102      	bne.n	43aa <__swsetup_r+0x1a>
    43a4:	1c28      	adds	r0, r5, #0
    43a6:	f7ff faeb 	bl	3980 <__sinit>
    43aa:	4b2f      	ldr	r3, [pc, #188]	; (4468 <__swsetup_r+0xd8>)
    43ac:	429c      	cmp	r4, r3
    43ae:	d101      	bne.n	43b4 <__swsetup_r+0x24>
    43b0:	686c      	ldr	r4, [r5, #4]
    43b2:	e008      	b.n	43c6 <__swsetup_r+0x36>
    43b4:	4b2d      	ldr	r3, [pc, #180]	; (446c <__swsetup_r+0xdc>)
    43b6:	429c      	cmp	r4, r3
    43b8:	d101      	bne.n	43be <__swsetup_r+0x2e>
    43ba:	68ac      	ldr	r4, [r5, #8]
    43bc:	e003      	b.n	43c6 <__swsetup_r+0x36>
    43be:	4b2c      	ldr	r3, [pc, #176]	; (4470 <__swsetup_r+0xe0>)
    43c0:	429c      	cmp	r4, r3
    43c2:	d100      	bne.n	43c6 <__swsetup_r+0x36>
    43c4:	68ec      	ldr	r4, [r5, #12]
    43c6:	89a2      	ldrh	r2, [r4, #12]
    43c8:	b293      	uxth	r3, r2
    43ca:	0719      	lsls	r1, r3, #28
    43cc:	d421      	bmi.n	4412 <__swsetup_r+0x82>
    43ce:	06d9      	lsls	r1, r3, #27
    43d0:	d405      	bmi.n	43de <__swsetup_r+0x4e>
    43d2:	2309      	movs	r3, #9
    43d4:	6033      	str	r3, [r6, #0]
    43d6:	2340      	movs	r3, #64	; 0x40
    43d8:	431a      	orrs	r2, r3
    43da:	81a2      	strh	r2, [r4, #12]
    43dc:	e03f      	b.n	445e <__swsetup_r+0xce>
    43de:	075a      	lsls	r2, r3, #29
    43e0:	d513      	bpl.n	440a <__swsetup_r+0x7a>
    43e2:	6b61      	ldr	r1, [r4, #52]	; 0x34
    43e4:	2900      	cmp	r1, #0
    43e6:	d008      	beq.n	43fa <__swsetup_r+0x6a>
    43e8:	1c23      	adds	r3, r4, #0
    43ea:	3344      	adds	r3, #68	; 0x44
    43ec:	4299      	cmp	r1, r3
    43ee:	d002      	beq.n	43f6 <__swsetup_r+0x66>
    43f0:	1c30      	adds	r0, r6, #0
    43f2:	f7ff fb99 	bl	3b28 <_free_r>
    43f6:	2300      	movs	r3, #0
    43f8:	6363      	str	r3, [r4, #52]	; 0x34
    43fa:	89a3      	ldrh	r3, [r4, #12]
    43fc:	2224      	movs	r2, #36	; 0x24
    43fe:	4393      	bics	r3, r2
    4400:	81a3      	strh	r3, [r4, #12]
    4402:	2300      	movs	r3, #0
    4404:	6063      	str	r3, [r4, #4]
    4406:	6923      	ldr	r3, [r4, #16]
    4408:	6023      	str	r3, [r4, #0]
    440a:	89a3      	ldrh	r3, [r4, #12]
    440c:	2208      	movs	r2, #8
    440e:	4313      	orrs	r3, r2
    4410:	81a3      	strh	r3, [r4, #12]
    4412:	6921      	ldr	r1, [r4, #16]
    4414:	2900      	cmp	r1, #0
    4416:	d10b      	bne.n	4430 <__swsetup_r+0xa0>
    4418:	89a3      	ldrh	r3, [r4, #12]
    441a:	22a0      	movs	r2, #160	; 0xa0
    441c:	0092      	lsls	r2, r2, #2
    441e:	401a      	ands	r2, r3
    4420:	2380      	movs	r3, #128	; 0x80
    4422:	009b      	lsls	r3, r3, #2
    4424:	429a      	cmp	r2, r3
    4426:	d003      	beq.n	4430 <__swsetup_r+0xa0>
    4428:	1c30      	adds	r0, r6, #0
    442a:	1c21      	adds	r1, r4, #0
    442c:	f000 f848 	bl	44c0 <__smakebuf_r>
    4430:	89a3      	ldrh	r3, [r4, #12]
    4432:	2201      	movs	r2, #1
    4434:	401a      	ands	r2, r3
    4436:	d005      	beq.n	4444 <__swsetup_r+0xb4>
    4438:	6961      	ldr	r1, [r4, #20]
    443a:	2200      	movs	r2, #0
    443c:	60a2      	str	r2, [r4, #8]
    443e:	424a      	negs	r2, r1
    4440:	61a2      	str	r2, [r4, #24]
    4442:	e003      	b.n	444c <__swsetup_r+0xbc>
    4444:	0799      	lsls	r1, r3, #30
    4446:	d400      	bmi.n	444a <__swsetup_r+0xba>
    4448:	6962      	ldr	r2, [r4, #20]
    444a:	60a2      	str	r2, [r4, #8]
    444c:	6922      	ldr	r2, [r4, #16]
    444e:	2000      	movs	r0, #0
    4450:	4282      	cmp	r2, r0
    4452:	d106      	bne.n	4462 <__swsetup_r+0xd2>
    4454:	0619      	lsls	r1, r3, #24
    4456:	d504      	bpl.n	4462 <__swsetup_r+0xd2>
    4458:	2240      	movs	r2, #64	; 0x40
    445a:	4313      	orrs	r3, r2
    445c:	81a3      	strh	r3, [r4, #12]
    445e:	2001      	movs	r0, #1
    4460:	4240      	negs	r0, r0
    4462:	bd70      	pop	{r4, r5, r6, pc}
    4464:	1ffff2ac 	.word	0x1ffff2ac
    4468:	00006ff0 	.word	0x00006ff0
    446c:	00007010 	.word	0x00007010
    4470:	00007030 	.word	0x00007030

00004474 <_close_r>:
    4474:	b538      	push	{r3, r4, r5, lr}
    4476:	4c07      	ldr	r4, [pc, #28]	; (4494 <_close_r+0x20>)
    4478:	2300      	movs	r3, #0
    447a:	1c05      	adds	r5, r0, #0
    447c:	1c08      	adds	r0, r1, #0
    447e:	6023      	str	r3, [r4, #0]
    4480:	f7fd fb8c 	bl	1b9c <_close>
    4484:	1c43      	adds	r3, r0, #1
    4486:	d103      	bne.n	4490 <_close_r+0x1c>
    4488:	6823      	ldr	r3, [r4, #0]
    448a:	2b00      	cmp	r3, #0
    448c:	d000      	beq.n	4490 <_close_r+0x1c>
    448e:	602b      	str	r3, [r5, #0]
    4490:	bd38      	pop	{r3, r4, r5, pc}
    4492:	46c0      	nop			; (mov r8, r8)
    4494:	1ffffa40 	.word	0x1ffffa40

00004498 <_lseek_r>:
    4498:	b538      	push	{r3, r4, r5, lr}
    449a:	4c08      	ldr	r4, [pc, #32]	; (44bc <_lseek_r+0x24>)
    449c:	1c05      	adds	r5, r0, #0
    449e:	2000      	movs	r0, #0
    44a0:	6020      	str	r0, [r4, #0]
    44a2:	1c08      	adds	r0, r1, #0
    44a4:	1c11      	adds	r1, r2, #0
    44a6:	1c1a      	adds	r2, r3, #0
    44a8:	f7fd fbf2 	bl	1c90 <_lseek>
    44ac:	1c43      	adds	r3, r0, #1
    44ae:	d103      	bne.n	44b8 <_lseek_r+0x20>
    44b0:	6823      	ldr	r3, [r4, #0]
    44b2:	2b00      	cmp	r3, #0
    44b4:	d000      	beq.n	44b8 <_lseek_r+0x20>
    44b6:	602b      	str	r3, [r5, #0]
    44b8:	bd38      	pop	{r3, r4, r5, pc}
    44ba:	46c0      	nop			; (mov r8, r8)
    44bc:	1ffffa40 	.word	0x1ffffa40

000044c0 <__smakebuf_r>:
    44c0:	b5f0      	push	{r4, r5, r6, r7, lr}
    44c2:	898b      	ldrh	r3, [r1, #12]
    44c4:	b091      	sub	sp, #68	; 0x44
    44c6:	1c05      	adds	r5, r0, #0
    44c8:	1c0c      	adds	r4, r1, #0
    44ca:	079a      	lsls	r2, r3, #30
    44cc:	d425      	bmi.n	451a <__smakebuf_r+0x5a>
    44ce:	230e      	movs	r3, #14
    44d0:	5ec9      	ldrsh	r1, [r1, r3]
    44d2:	2900      	cmp	r1, #0
    44d4:	da06      	bge.n	44e4 <__smakebuf_r+0x24>
    44d6:	89a7      	ldrh	r7, [r4, #12]
    44d8:	2380      	movs	r3, #128	; 0x80
    44da:	401f      	ands	r7, r3
    44dc:	d00f      	beq.n	44fe <__smakebuf_r+0x3e>
    44de:	2700      	movs	r7, #0
    44e0:	2640      	movs	r6, #64	; 0x40
    44e2:	e00e      	b.n	4502 <__smakebuf_r+0x42>
    44e4:	aa01      	add	r2, sp, #4
    44e6:	f000 f85b 	bl	45a0 <_fstat_r>
    44ea:	2800      	cmp	r0, #0
    44ec:	dbf3      	blt.n	44d6 <__smakebuf_r+0x16>
    44ee:	9b02      	ldr	r3, [sp, #8]
    44f0:	27f0      	movs	r7, #240	; 0xf0
    44f2:	023f      	lsls	r7, r7, #8
    44f4:	4a18      	ldr	r2, [pc, #96]	; (4558 <__smakebuf_r+0x98>)
    44f6:	401f      	ands	r7, r3
    44f8:	18bf      	adds	r7, r7, r2
    44fa:	427b      	negs	r3, r7
    44fc:	415f      	adcs	r7, r3
    44fe:	2680      	movs	r6, #128	; 0x80
    4500:	00f6      	lsls	r6, r6, #3
    4502:	1c28      	adds	r0, r5, #0
    4504:	1c31      	adds	r1, r6, #0
    4506:	f7ff fb57 	bl	3bb8 <_malloc_r>
    450a:	2800      	cmp	r0, #0
    450c:	d10c      	bne.n	4528 <__smakebuf_r+0x68>
    450e:	89a3      	ldrh	r3, [r4, #12]
    4510:	059a      	lsls	r2, r3, #22
    4512:	d41f      	bmi.n	4554 <__smakebuf_r+0x94>
    4514:	2202      	movs	r2, #2
    4516:	4313      	orrs	r3, r2
    4518:	81a3      	strh	r3, [r4, #12]
    451a:	1c23      	adds	r3, r4, #0
    451c:	3347      	adds	r3, #71	; 0x47
    451e:	6023      	str	r3, [r4, #0]
    4520:	6123      	str	r3, [r4, #16]
    4522:	2301      	movs	r3, #1
    4524:	6163      	str	r3, [r4, #20]
    4526:	e015      	b.n	4554 <__smakebuf_r+0x94>
    4528:	4b0c      	ldr	r3, [pc, #48]	; (455c <__smakebuf_r+0x9c>)
    452a:	2280      	movs	r2, #128	; 0x80
    452c:	62ab      	str	r3, [r5, #40]	; 0x28
    452e:	89a3      	ldrh	r3, [r4, #12]
    4530:	6020      	str	r0, [r4, #0]
    4532:	4313      	orrs	r3, r2
    4534:	81a3      	strh	r3, [r4, #12]
    4536:	6120      	str	r0, [r4, #16]
    4538:	6166      	str	r6, [r4, #20]
    453a:	2f00      	cmp	r7, #0
    453c:	d00a      	beq.n	4554 <__smakebuf_r+0x94>
    453e:	230e      	movs	r3, #14
    4540:	5ee1      	ldrsh	r1, [r4, r3]
    4542:	1c28      	adds	r0, r5, #0
    4544:	f000 f83e 	bl	45c4 <_isatty_r>
    4548:	2800      	cmp	r0, #0
    454a:	d003      	beq.n	4554 <__smakebuf_r+0x94>
    454c:	89a3      	ldrh	r3, [r4, #12]
    454e:	2201      	movs	r2, #1
    4550:	4313      	orrs	r3, r2
    4552:	81a3      	strh	r3, [r4, #12]
    4554:	b011      	add	sp, #68	; 0x44
    4556:	bdf0      	pop	{r4, r5, r6, r7, pc}
    4558:	ffffe000 	.word	0xffffe000
    455c:	000038d9 	.word	0x000038d9

00004560 <memchr>:
    4560:	b2c9      	uxtb	r1, r1
    4562:	1882      	adds	r2, r0, r2
    4564:	4290      	cmp	r0, r2
    4566:	d004      	beq.n	4572 <memchr+0x12>
    4568:	7803      	ldrb	r3, [r0, #0]
    456a:	428b      	cmp	r3, r1
    456c:	d002      	beq.n	4574 <memchr+0x14>
    456e:	3001      	adds	r0, #1
    4570:	e7f8      	b.n	4564 <memchr+0x4>
    4572:	2000      	movs	r0, #0
    4574:	4770      	bx	lr
	...

00004578 <_read_r>:
    4578:	b538      	push	{r3, r4, r5, lr}
    457a:	4c08      	ldr	r4, [pc, #32]	; (459c <_read_r+0x24>)
    457c:	1c05      	adds	r5, r0, #0
    457e:	2000      	movs	r0, #0
    4580:	6020      	str	r0, [r4, #0]
    4582:	1c08      	adds	r0, r1, #0
    4584:	1c11      	adds	r1, r2, #0
    4586:	1c1a      	adds	r2, r3, #0
    4588:	f7fd fb4a 	bl	1c20 <_read>
    458c:	1c43      	adds	r3, r0, #1
    458e:	d103      	bne.n	4598 <_read_r+0x20>
    4590:	6823      	ldr	r3, [r4, #0]
    4592:	2b00      	cmp	r3, #0
    4594:	d000      	beq.n	4598 <_read_r+0x20>
    4596:	602b      	str	r3, [r5, #0]
    4598:	bd38      	pop	{r3, r4, r5, pc}
    459a:	46c0      	nop			; (mov r8, r8)
    459c:	1ffffa40 	.word	0x1ffffa40

000045a0 <_fstat_r>:
    45a0:	b538      	push	{r3, r4, r5, lr}
    45a2:	4c07      	ldr	r4, [pc, #28]	; (45c0 <_fstat_r+0x20>)
    45a4:	2300      	movs	r3, #0
    45a6:	1c05      	adds	r5, r0, #0
    45a8:	1c08      	adds	r0, r1, #0
    45aa:	1c11      	adds	r1, r2, #0
    45ac:	6023      	str	r3, [r4, #0]
    45ae:	f7fd fb83 	bl	1cb8 <_fstat>
    45b2:	1c43      	adds	r3, r0, #1
    45b4:	d103      	bne.n	45be <_fstat_r+0x1e>
    45b6:	6823      	ldr	r3, [r4, #0]
    45b8:	2b00      	cmp	r3, #0
    45ba:	d000      	beq.n	45be <_fstat_r+0x1e>
    45bc:	602b      	str	r3, [r5, #0]
    45be:	bd38      	pop	{r3, r4, r5, pc}
    45c0:	1ffffa40 	.word	0x1ffffa40

000045c4 <_isatty_r>:
    45c4:	b538      	push	{r3, r4, r5, lr}
    45c6:	4c07      	ldr	r4, [pc, #28]	; (45e4 <_isatty_r+0x20>)
    45c8:	2300      	movs	r3, #0
    45ca:	1c05      	adds	r5, r0, #0
    45cc:	1c08      	adds	r0, r1, #0
    45ce:	6023      	str	r3, [r4, #0]
    45d0:	f7fb fff2 	bl	5b8 <__wrap__isatty>
    45d4:	1c43      	adds	r3, r0, #1
    45d6:	d103      	bne.n	45e0 <_isatty_r+0x1c>
    45d8:	6823      	ldr	r3, [r4, #0]
    45da:	2b00      	cmp	r3, #0
    45dc:	d000      	beq.n	45e0 <_isatty_r+0x1c>
    45de:	602b      	str	r3, [r5, #0]
    45e0:	bd38      	pop	{r3, r4, r5, pc}
    45e2:	46c0      	nop			; (mov r8, r8)
    45e4:	1ffffa40 	.word	0x1ffffa40

000045e8 <cos>:
    45e8:	b510      	push	{r4, lr}
    45ea:	1c02      	adds	r2, r0, #0
    45ec:	4826      	ldr	r0, [pc, #152]	; (4688 <cos+0xa0>)
    45ee:	1c0b      	adds	r3, r1, #0
    45f0:	0049      	lsls	r1, r1, #1
    45f2:	b086      	sub	sp, #24
    45f4:	0849      	lsrs	r1, r1, #1
    45f6:	4281      	cmp	r1, r0
    45f8:	dd1e      	ble.n	4638 <cos+0x50>
    45fa:	4824      	ldr	r0, [pc, #144]	; (468c <cos+0xa4>)
    45fc:	4281      	cmp	r1, r0
    45fe:	dd05      	ble.n	460c <cos+0x24>
    4600:	1c10      	adds	r0, r2, #0
    4602:	1c19      	adds	r1, r3, #0
    4604:	f001 ff0c 	bl	6420 <__aeabi_dsub>
    4608:	b006      	add	sp, #24
    460a:	bd10      	pop	{r4, pc}
    460c:	1c10      	adds	r0, r2, #0
    460e:	1c19      	adds	r1, r3, #0
    4610:	aa02      	add	r2, sp, #8
    4612:	f000 f895 	bl	4740 <__ieee754_rem_pio2>
    4616:	2303      	movs	r3, #3
    4618:	4018      	ands	r0, r3
    461a:	2801      	cmp	r0, #1
    461c:	d01d      	beq.n	465a <cos+0x72>
    461e:	2802      	cmp	r0, #2
    4620:	d011      	beq.n	4646 <cos+0x5e>
    4622:	2800      	cmp	r0, #0
    4624:	d024      	beq.n	4670 <cos+0x88>
    4626:	2401      	movs	r4, #1
    4628:	9802      	ldr	r0, [sp, #8]
    462a:	9903      	ldr	r1, [sp, #12]
    462c:	9a04      	ldr	r2, [sp, #16]
    462e:	9b05      	ldr	r3, [sp, #20]
    4630:	9400      	str	r4, [sp, #0]
    4632:	f000 fffd 	bl	5630 <__kernel_sin>
    4636:	e7e7      	b.n	4608 <cos+0x20>
    4638:	1c10      	adds	r0, r2, #0
    463a:	1c19      	adds	r1, r3, #0
    463c:	4b11      	ldr	r3, [pc, #68]	; (4684 <cos+0x9c>)
    463e:	4a10      	ldr	r2, [pc, #64]	; (4680 <cos+0x98>)
    4640:	f000 faba 	bl	4bb8 <__kernel_cos>
    4644:	e7e0      	b.n	4608 <cos+0x20>
    4646:	9a04      	ldr	r2, [sp, #16]
    4648:	9b05      	ldr	r3, [sp, #20]
    464a:	9802      	ldr	r0, [sp, #8]
    464c:	9903      	ldr	r1, [sp, #12]
    464e:	f000 fab3 	bl	4bb8 <__kernel_cos>
    4652:	2380      	movs	r3, #128	; 0x80
    4654:	061b      	lsls	r3, r3, #24
    4656:	18c9      	adds	r1, r1, r3
    4658:	e7d6      	b.n	4608 <cos+0x20>
    465a:	9a04      	ldr	r2, [sp, #16]
    465c:	9b05      	ldr	r3, [sp, #20]
    465e:	9000      	str	r0, [sp, #0]
    4660:	9802      	ldr	r0, [sp, #8]
    4662:	9903      	ldr	r1, [sp, #12]
    4664:	f000 ffe4 	bl	5630 <__kernel_sin>
    4668:	2380      	movs	r3, #128	; 0x80
    466a:	061b      	lsls	r3, r3, #24
    466c:	18c9      	adds	r1, r1, r3
    466e:	e7cb      	b.n	4608 <cos+0x20>
    4670:	9802      	ldr	r0, [sp, #8]
    4672:	9903      	ldr	r1, [sp, #12]
    4674:	9a04      	ldr	r2, [sp, #16]
    4676:	9b05      	ldr	r3, [sp, #20]
    4678:	f000 fa9e 	bl	4bb8 <__kernel_cos>
    467c:	e7c4      	b.n	4608 <cos+0x20>
    467e:	46c0      	nop			; (mov r8, r8)
	...
    4688:	3fe921fb 	.word	0x3fe921fb
    468c:	7fefffff 	.word	0x7fefffff

00004690 <sin>:
    4690:	b510      	push	{r4, lr}
    4692:	1c02      	adds	r2, r0, #0
    4694:	4828      	ldr	r0, [pc, #160]	; (4738 <sin+0xa8>)
    4696:	1c0b      	adds	r3, r1, #0
    4698:	0049      	lsls	r1, r1, #1
    469a:	b086      	sub	sp, #24
    469c:	0849      	lsrs	r1, r1, #1
    469e:	4281      	cmp	r1, r0
    46a0:	dd1f      	ble.n	46e2 <sin+0x52>
    46a2:	4826      	ldr	r0, [pc, #152]	; (473c <sin+0xac>)
    46a4:	4281      	cmp	r1, r0
    46a6:	dd05      	ble.n	46b4 <sin+0x24>
    46a8:	1c10      	adds	r0, r2, #0
    46aa:	1c19      	adds	r1, r3, #0
    46ac:	f001 feb8 	bl	6420 <__aeabi_dsub>
    46b0:	b006      	add	sp, #24
    46b2:	bd10      	pop	{r4, pc}
    46b4:	1c10      	adds	r0, r2, #0
    46b6:	1c19      	adds	r1, r3, #0
    46b8:	aa02      	add	r2, sp, #8
    46ba:	f000 f841 	bl	4740 <__ieee754_rem_pio2>
    46be:	2303      	movs	r3, #3
    46c0:	4018      	ands	r0, r3
    46c2:	2801      	cmp	r0, #1
    46c4:	d022      	beq.n	470c <sin+0x7c>
    46c6:	2802      	cmp	r0, #2
    46c8:	d014      	beq.n	46f4 <sin+0x64>
    46ca:	2800      	cmp	r0, #0
    46cc:	d025      	beq.n	471a <sin+0x8a>
    46ce:	9a04      	ldr	r2, [sp, #16]
    46d0:	9b05      	ldr	r3, [sp, #20]
    46d2:	9802      	ldr	r0, [sp, #8]
    46d4:	9903      	ldr	r1, [sp, #12]
    46d6:	f000 fa6f 	bl	4bb8 <__kernel_cos>
    46da:	2380      	movs	r3, #128	; 0x80
    46dc:	061b      	lsls	r3, r3, #24
    46de:	18c9      	adds	r1, r1, r3
    46e0:	e7e6      	b.n	46b0 <sin+0x20>
    46e2:	2100      	movs	r1, #0
    46e4:	9100      	str	r1, [sp, #0]
    46e6:	1c10      	adds	r0, r2, #0
    46e8:	1c19      	adds	r1, r3, #0
    46ea:	4b12      	ldr	r3, [pc, #72]	; (4734 <sin+0xa4>)
    46ec:	4a10      	ldr	r2, [pc, #64]	; (4730 <sin+0xa0>)
    46ee:	f000 ff9f 	bl	5630 <__kernel_sin>
    46f2:	e7dd      	b.n	46b0 <sin+0x20>
    46f4:	2401      	movs	r4, #1
    46f6:	9a04      	ldr	r2, [sp, #16]
    46f8:	9b05      	ldr	r3, [sp, #20]
    46fa:	9802      	ldr	r0, [sp, #8]
    46fc:	9903      	ldr	r1, [sp, #12]
    46fe:	9400      	str	r4, [sp, #0]
    4700:	f000 ff96 	bl	5630 <__kernel_sin>
    4704:	2380      	movs	r3, #128	; 0x80
    4706:	061b      	lsls	r3, r3, #24
    4708:	18c9      	adds	r1, r1, r3
    470a:	e7d1      	b.n	46b0 <sin+0x20>
    470c:	9a04      	ldr	r2, [sp, #16]
    470e:	9b05      	ldr	r3, [sp, #20]
    4710:	9802      	ldr	r0, [sp, #8]
    4712:	9903      	ldr	r1, [sp, #12]
    4714:	f000 fa50 	bl	4bb8 <__kernel_cos>
    4718:	e7ca      	b.n	46b0 <sin+0x20>
    471a:	2401      	movs	r4, #1
    471c:	9802      	ldr	r0, [sp, #8]
    471e:	9903      	ldr	r1, [sp, #12]
    4720:	9a04      	ldr	r2, [sp, #16]
    4722:	9b05      	ldr	r3, [sp, #20]
    4724:	9400      	str	r4, [sp, #0]
    4726:	f000 ff83 	bl	5630 <__kernel_sin>
    472a:	e7c1      	b.n	46b0 <sin+0x20>
    472c:	46c0      	nop			; (mov r8, r8)
    472e:	46c0      	nop			; (mov r8, r8)
	...
    4738:	3fe921fb 	.word	0x3fe921fb
    473c:	7fefffff 	.word	0x7fefffff

00004740 <__ieee754_rem_pio2>:
    4740:	b5f0      	push	{r4, r5, r6, r7, lr}
    4742:	4656      	mov	r6, r10
    4744:	464d      	mov	r5, r9
    4746:	4644      	mov	r4, r8
    4748:	465f      	mov	r7, r11
    474a:	b4f0      	push	{r4, r5, r6, r7}
    474c:	004b      	lsls	r3, r1, #1
    474e:	085e      	lsrs	r6, r3, #1
    4750:	4ba3      	ldr	r3, [pc, #652]	; (49e0 <__ieee754_rem_pio2+0x2a0>)
    4752:	b091      	sub	sp, #68	; 0x44
    4754:	1c04      	adds	r4, r0, #0
    4756:	1c0d      	adds	r5, r1, #0
    4758:	4691      	mov	r9, r2
    475a:	468a      	mov	r10, r1
    475c:	429e      	cmp	r6, r3
    475e:	dc00      	bgt.n	4762 <__ieee754_rem_pio2+0x22>
    4760:	e086      	b.n	4870 <__ieee754_rem_pio2+0x130>
    4762:	4ba0      	ldr	r3, [pc, #640]	; (49e4 <__ieee754_rem_pio2+0x2a4>)
    4764:	429e      	cmp	r6, r3
    4766:	dc23      	bgt.n	47b0 <__ieee754_rem_pio2+0x70>
    4768:	2900      	cmp	r1, #0
    476a:	dc00      	bgt.n	476e <__ieee754_rem_pio2+0x2e>
    476c:	e1ce      	b.n	4b0c <__ieee754_rem_pio2+0x3cc>
    476e:	1c29      	adds	r1, r5, #0
    4770:	4b8c      	ldr	r3, [pc, #560]	; (49a4 <__ieee754_rem_pio2+0x264>)
    4772:	4a8b      	ldr	r2, [pc, #556]	; (49a0 <__ieee754_rem_pio2+0x260>)
    4774:	f001 fe54 	bl	6420 <__aeabi_dsub>
    4778:	4b9b      	ldr	r3, [pc, #620]	; (49e8 <__ieee754_rem_pio2+0x2a8>)
    477a:	1c04      	adds	r4, r0, #0
    477c:	1c0d      	adds	r5, r1, #0
    477e:	429e      	cmp	r6, r3
    4780:	d100      	bne.n	4784 <__ieee754_rem_pio2+0x44>
    4782:	e08f      	b.n	48a4 <__ieee754_rem_pio2+0x164>
    4784:	4a88      	ldr	r2, [pc, #544]	; (49a8 <__ieee754_rem_pio2+0x268>)
    4786:	4b89      	ldr	r3, [pc, #548]	; (49ac <__ieee754_rem_pio2+0x26c>)
    4788:	f001 fe4a 	bl	6420 <__aeabi_dsub>
    478c:	1c02      	adds	r2, r0, #0
    478e:	1c0b      	adds	r3, r1, #0
    4790:	4649      	mov	r1, r9
    4792:	600a      	str	r2, [r1, #0]
    4794:	604b      	str	r3, [r1, #4]
    4796:	1c20      	adds	r0, r4, #0
    4798:	1c29      	adds	r1, r5, #0
    479a:	f001 fe41 	bl	6420 <__aeabi_dsub>
    479e:	4a82      	ldr	r2, [pc, #520]	; (49a8 <__ieee754_rem_pio2+0x268>)
    47a0:	4b82      	ldr	r3, [pc, #520]	; (49ac <__ieee754_rem_pio2+0x26c>)
    47a2:	f001 fe3d 	bl	6420 <__aeabi_dsub>
    47a6:	464a      	mov	r2, r9
    47a8:	6090      	str	r0, [r2, #8]
    47aa:	60d1      	str	r1, [r2, #12]
    47ac:	2001      	movs	r0, #1
    47ae:	e067      	b.n	4880 <__ieee754_rem_pio2+0x140>
    47b0:	4b8e      	ldr	r3, [pc, #568]	; (49ec <__ieee754_rem_pio2+0x2ac>)
    47b2:	429e      	cmp	r6, r3
    47b4:	dc00      	bgt.n	47b8 <__ieee754_rem_pio2+0x78>
    47b6:	e091      	b.n	48dc <__ieee754_rem_pio2+0x19c>
    47b8:	4b8d      	ldr	r3, [pc, #564]	; (49f0 <__ieee754_rem_pio2+0x2b0>)
    47ba:	429e      	cmp	r6, r3
    47bc:	dc67      	bgt.n	488e <__ieee754_rem_pio2+0x14e>
    47be:	498d      	ldr	r1, [pc, #564]	; (49f4 <__ieee754_rem_pio2+0x2b4>)
    47c0:	1533      	asrs	r3, r6, #20
    47c2:	18c9      	adds	r1, r1, r3
    47c4:	050b      	lsls	r3, r1, #20
    47c6:	1af5      	subs	r5, r6, r3
    47c8:	468b      	mov	r11, r1
    47ca:	1c29      	adds	r1, r5, #0
    47cc:	1c04      	adds	r4, r0, #0
    47ce:	f7fe ff13 	bl	35f8 <__aeabi_d2iz>
    47d2:	f7fe ff45 	bl	3660 <__aeabi_i2d>
    47d6:	1c02      	adds	r2, r0, #0
    47d8:	1c0b      	adds	r3, r1, #0
    47da:	1c20      	adds	r0, r4, #0
    47dc:	1c29      	adds	r1, r5, #0
    47de:	920a      	str	r2, [sp, #40]	; 0x28
    47e0:	930b      	str	r3, [sp, #44]	; 0x2c
    47e2:	f001 fe1d 	bl	6420 <__aeabi_dsub>
    47e6:	4a72      	ldr	r2, [pc, #456]	; (49b0 <__ieee754_rem_pio2+0x270>)
    47e8:	4b72      	ldr	r3, [pc, #456]	; (49b4 <__ieee754_rem_pio2+0x274>)
    47ea:	f7fe fc75 	bl	30d8 <__aeabi_dmul>
    47ee:	1c0f      	adds	r7, r1, #0
    47f0:	1c06      	adds	r6, r0, #0
    47f2:	f7fe ff01 	bl	35f8 <__aeabi_d2iz>
    47f6:	f7fe ff33 	bl	3660 <__aeabi_i2d>
    47fa:	1c04      	adds	r4, r0, #0
    47fc:	1c0d      	adds	r5, r1, #0
    47fe:	1c22      	adds	r2, r4, #0
    4800:	1c2b      	adds	r3, r5, #0
    4802:	1c30      	adds	r0, r6, #0
    4804:	1c39      	adds	r1, r7, #0
    4806:	940c      	str	r4, [sp, #48]	; 0x30
    4808:	950d      	str	r5, [sp, #52]	; 0x34
    480a:	f001 fe09 	bl	6420 <__aeabi_dsub>
    480e:	4a68      	ldr	r2, [pc, #416]	; (49b0 <__ieee754_rem_pio2+0x270>)
    4810:	4b68      	ldr	r3, [pc, #416]	; (49b4 <__ieee754_rem_pio2+0x274>)
    4812:	f7fe fc61 	bl	30d8 <__aeabi_dmul>
    4816:	4a68      	ldr	r2, [pc, #416]	; (49b8 <__ieee754_rem_pio2+0x278>)
    4818:	4b68      	ldr	r3, [pc, #416]	; (49bc <__ieee754_rem_pio2+0x27c>)
    481a:	900e      	str	r0, [sp, #56]	; 0x38
    481c:	910f      	str	r1, [sp, #60]	; 0x3c
    481e:	f001 f96f 	bl	5b00 <__aeabi_dcmpeq>
    4822:	2800      	cmp	r0, #0
    4824:	d100      	bne.n	4828 <__ieee754_rem_pio2+0xe8>
    4826:	e192      	b.n	4b4e <__ieee754_rem_pio2+0x40e>
    4828:	4a63      	ldr	r2, [pc, #396]	; (49b8 <__ieee754_rem_pio2+0x278>)
    482a:	4b64      	ldr	r3, [pc, #400]	; (49bc <__ieee754_rem_pio2+0x27c>)
    482c:	1c20      	adds	r0, r4, #0
    482e:	1c29      	adds	r1, r5, #0
    4830:	f001 f966 	bl	5b00 <__aeabi_dcmpeq>
    4834:	1e43      	subs	r3, r0, #1
    4836:	4198      	sbcs	r0, r3
    4838:	2302      	movs	r3, #2
    483a:	1a1b      	subs	r3, r3, r0
    483c:	2202      	movs	r2, #2
    483e:	9200      	str	r2, [sp, #0]
    4840:	4a6d      	ldr	r2, [pc, #436]	; (49f8 <__ieee754_rem_pio2+0x2b8>)
    4842:	a80a      	add	r0, sp, #40	; 0x28
    4844:	9201      	str	r2, [sp, #4]
    4846:	4649      	mov	r1, r9
    4848:	465a      	mov	r2, r11
    484a:	f000 fad9 	bl	4e00 <__kernel_rem_pio2>
    484e:	4652      	mov	r2, r10
    4850:	2a00      	cmp	r2, #0
    4852:	da15      	bge.n	4880 <__ieee754_rem_pio2+0x140>
    4854:	464c      	mov	r4, r9
    4856:	6864      	ldr	r4, [r4, #4]
    4858:	2180      	movs	r1, #128	; 0x80
    485a:	0609      	lsls	r1, r1, #24
    485c:	1863      	adds	r3, r4, r1
    485e:	4649      	mov	r1, r9
    4860:	68ca      	ldr	r2, [r1, #12]
    4862:	2480      	movs	r4, #128	; 0x80
    4864:	0624      	lsls	r4, r4, #24
    4866:	604b      	str	r3, [r1, #4]
    4868:	1913      	adds	r3, r2, r4
    486a:	60cb      	str	r3, [r1, #12]
    486c:	4240      	negs	r0, r0
    486e:	e007      	b.n	4880 <__ieee754_rem_pio2+0x140>
    4870:	1c11      	adds	r1, r2, #0
    4872:	6014      	str	r4, [r2, #0]
    4874:	6055      	str	r5, [r2, #4]
    4876:	4a50      	ldr	r2, [pc, #320]	; (49b8 <__ieee754_rem_pio2+0x278>)
    4878:	4b50      	ldr	r3, [pc, #320]	; (49bc <__ieee754_rem_pio2+0x27c>)
    487a:	608a      	str	r2, [r1, #8]
    487c:	60cb      	str	r3, [r1, #12]
    487e:	2000      	movs	r0, #0
    4880:	b011      	add	sp, #68	; 0x44
    4882:	bc3c      	pop	{r2, r3, r4, r5}
    4884:	4690      	mov	r8, r2
    4886:	4699      	mov	r9, r3
    4888:	46a2      	mov	r10, r4
    488a:	46ab      	mov	r11, r5
    488c:	bdf0      	pop	{r4, r5, r6, r7, pc}
    488e:	1c22      	adds	r2, r4, #0
    4890:	1c2b      	adds	r3, r5, #0
    4892:	f001 fdc5 	bl	6420 <__aeabi_dsub>
    4896:	464a      	mov	r2, r9
    4898:	6090      	str	r0, [r2, #8]
    489a:	60d1      	str	r1, [r2, #12]
    489c:	6010      	str	r0, [r2, #0]
    489e:	6051      	str	r1, [r2, #4]
    48a0:	2000      	movs	r0, #0
    48a2:	e7ed      	b.n	4880 <__ieee754_rem_pio2+0x140>
    48a4:	4a46      	ldr	r2, [pc, #280]	; (49c0 <__ieee754_rem_pio2+0x280>)
    48a6:	4b47      	ldr	r3, [pc, #284]	; (49c4 <__ieee754_rem_pio2+0x284>)
    48a8:	f001 fdba 	bl	6420 <__aeabi_dsub>
    48ac:	4a46      	ldr	r2, [pc, #280]	; (49c8 <__ieee754_rem_pio2+0x288>)
    48ae:	4b47      	ldr	r3, [pc, #284]	; (49cc <__ieee754_rem_pio2+0x28c>)
    48b0:	1c04      	adds	r4, r0, #0
    48b2:	1c0d      	adds	r5, r1, #0
    48b4:	f001 fdb4 	bl	6420 <__aeabi_dsub>
    48b8:	1c02      	adds	r2, r0, #0
    48ba:	1c0b      	adds	r3, r1, #0
    48bc:	4649      	mov	r1, r9
    48be:	600a      	str	r2, [r1, #0]
    48c0:	604b      	str	r3, [r1, #4]
    48c2:	1c20      	adds	r0, r4, #0
    48c4:	1c29      	adds	r1, r5, #0
    48c6:	f001 fdab 	bl	6420 <__aeabi_dsub>
    48ca:	4a3f      	ldr	r2, [pc, #252]	; (49c8 <__ieee754_rem_pio2+0x288>)
    48cc:	4b3f      	ldr	r3, [pc, #252]	; (49cc <__ieee754_rem_pio2+0x28c>)
    48ce:	f001 fda7 	bl	6420 <__aeabi_dsub>
    48d2:	464a      	mov	r2, r9
    48d4:	6090      	str	r0, [r2, #8]
    48d6:	60d1      	str	r1, [r2, #12]
    48d8:	2001      	movs	r0, #1
    48da:	e7d1      	b.n	4880 <__ieee754_rem_pio2+0x140>
    48dc:	f000 ff54 	bl	5788 <fabs>
    48e0:	4a3b      	ldr	r2, [pc, #236]	; (49d0 <__ieee754_rem_pio2+0x290>)
    48e2:	4b3c      	ldr	r3, [pc, #240]	; (49d4 <__ieee754_rem_pio2+0x294>)
    48e4:	1c04      	adds	r4, r0, #0
    48e6:	1c0d      	adds	r5, r1, #0
    48e8:	f7fe fbf6 	bl	30d8 <__aeabi_dmul>
    48ec:	4a3a      	ldr	r2, [pc, #232]	; (49d8 <__ieee754_rem_pio2+0x298>)
    48ee:	4b3b      	ldr	r3, [pc, #236]	; (49dc <__ieee754_rem_pio2+0x29c>)
    48f0:	f001 f934 	bl	5b5c <__aeabi_dadd>
    48f4:	f7fe fe80 	bl	35f8 <__aeabi_d2iz>
    48f8:	4683      	mov	r11, r0
    48fa:	f7fe feb1 	bl	3660 <__aeabi_i2d>
    48fe:	4b29      	ldr	r3, [pc, #164]	; (49a4 <__ieee754_rem_pio2+0x264>)
    4900:	4a27      	ldr	r2, [pc, #156]	; (49a0 <__ieee754_rem_pio2+0x260>)
    4902:	9004      	str	r0, [sp, #16]
    4904:	9105      	str	r1, [sp, #20]
    4906:	f7fe fbe7 	bl	30d8 <__aeabi_dmul>
    490a:	1c02      	adds	r2, r0, #0
    490c:	1c0b      	adds	r3, r1, #0
    490e:	1c20      	adds	r0, r4, #0
    4910:	1c29      	adds	r1, r5, #0
    4912:	f001 fd85 	bl	6420 <__aeabi_dsub>
    4916:	4a24      	ldr	r2, [pc, #144]	; (49a8 <__ieee754_rem_pio2+0x268>)
    4918:	4b24      	ldr	r3, [pc, #144]	; (49ac <__ieee754_rem_pio2+0x26c>)
    491a:	9002      	str	r0, [sp, #8]
    491c:	9103      	str	r1, [sp, #12]
    491e:	9804      	ldr	r0, [sp, #16]
    4920:	9905      	ldr	r1, [sp, #20]
    4922:	f7fe fbd9 	bl	30d8 <__aeabi_dmul>
    4926:	465b      	mov	r3, r11
    4928:	9006      	str	r0, [sp, #24]
    492a:	9107      	str	r1, [sp, #28]
    492c:	9802      	ldr	r0, [sp, #8]
    492e:	9903      	ldr	r1, [sp, #12]
    4930:	2b1f      	cmp	r3, #31
    4932:	dc65      	bgt.n	4a00 <__ieee754_rem_pio2+0x2c0>
    4934:	465a      	mov	r2, r11
    4936:	3a01      	subs	r2, #1
    4938:	4b30      	ldr	r3, [pc, #192]	; (49fc <__ieee754_rem_pio2+0x2bc>)
    493a:	0092      	lsls	r2, r2, #2
    493c:	58d3      	ldr	r3, [r2, r3]
    493e:	42b3      	cmp	r3, r6
    4940:	d05e      	beq.n	4a00 <__ieee754_rem_pio2+0x2c0>
    4942:	9a06      	ldr	r2, [sp, #24]
    4944:	9b07      	ldr	r3, [sp, #28]
    4946:	f001 fd6b 	bl	6420 <__aeabi_dsub>
    494a:	1c0d      	adds	r5, r1, #0
    494c:	1c0f      	adds	r7, r1, #0
    494e:	1c04      	adds	r4, r0, #0
    4950:	4649      	mov	r1, r9
    4952:	600c      	str	r4, [r1, #0]
    4954:	604d      	str	r5, [r1, #4]
    4956:	4680      	mov	r8, r0
    4958:	4642      	mov	r2, r8
    495a:	1c3b      	adds	r3, r7, #0
    495c:	9802      	ldr	r0, [sp, #8]
    495e:	9903      	ldr	r1, [sp, #12]
    4960:	f001 fd5e 	bl	6420 <__aeabi_dsub>
    4964:	9a06      	ldr	r2, [sp, #24]
    4966:	9b07      	ldr	r3, [sp, #28]
    4968:	f001 fd5a 	bl	6420 <__aeabi_dsub>
    496c:	464a      	mov	r2, r9
    496e:	1c04      	adds	r4, r0, #0
    4970:	1c0d      	adds	r5, r1, #0
    4972:	6094      	str	r4, [r2, #8]
    4974:	60d5      	str	r5, [r2, #12]
    4976:	4654      	mov	r4, r10
    4978:	1c03      	adds	r3, r0, #0
    497a:	4658      	mov	r0, r11
    497c:	2c00      	cmp	r4, #0
    497e:	db00      	blt.n	4982 <__ieee754_rem_pio2+0x242>
    4980:	e77e      	b.n	4880 <__ieee754_rem_pio2+0x140>
    4982:	4644      	mov	r4, r8
    4984:	6014      	str	r4, [r2, #0]
    4986:	2280      	movs	r2, #128	; 0x80
    4988:	0612      	lsls	r2, r2, #24
    498a:	464c      	mov	r4, r9
    498c:	18bf      	adds	r7, r7, r2
    498e:	1889      	adds	r1, r1, r2
    4990:	6067      	str	r7, [r4, #4]
    4992:	60a3      	str	r3, [r4, #8]
    4994:	60e1      	str	r1, [r4, #12]
    4996:	4240      	negs	r0, r0
    4998:	e772      	b.n	4880 <__ieee754_rem_pio2+0x140>
    499a:	46c0      	nop			; (mov r8, r8)
    499c:	46c0      	nop			; (mov r8, r8)
    499e:	46c0      	nop			; (mov r8, r8)
    49a0:	54400000 	.word	0x54400000
    49a4:	3ff921fb 	.word	0x3ff921fb
    49a8:	1a626331 	.word	0x1a626331
    49ac:	3dd0b461 	.word	0x3dd0b461
    49b0:	00000000 	.word	0x00000000
    49b4:	41700000 	.word	0x41700000
	...
    49c0:	1a600000 	.word	0x1a600000
    49c4:	3dd0b461 	.word	0x3dd0b461
    49c8:	2e037073 	.word	0x2e037073
    49cc:	3ba3198a 	.word	0x3ba3198a
    49d0:	6dc9c883 	.word	0x6dc9c883
    49d4:	3fe45f30 	.word	0x3fe45f30
    49d8:	00000000 	.word	0x00000000
    49dc:	3fe00000 	.word	0x3fe00000
    49e0:	3fe921fb 	.word	0x3fe921fb
    49e4:	4002d97b 	.word	0x4002d97b
    49e8:	3ff921fb 	.word	0x3ff921fb
    49ec:	413921fb 	.word	0x413921fb
    49f0:	7fefffff 	.word	0x7fefffff
    49f4:	fffffbea 	.word	0xfffffbea
    49f8:	0000710c 	.word	0x0000710c
    49fc:	0000708c 	.word	0x0000708c
    4a00:	9a06      	ldr	r2, [sp, #24]
    4a02:	9b07      	ldr	r3, [sp, #28]
    4a04:	f001 fd0c 	bl	6420 <__aeabi_dsub>
    4a08:	004b      	lsls	r3, r1, #1
    4a0a:	1c04      	adds	r4, r0, #0
    4a0c:	1c0d      	adds	r5, r1, #0
    4a0e:	464a      	mov	r2, r9
    4a10:	1536      	asrs	r6, r6, #20
    4a12:	0d5b      	lsrs	r3, r3, #21
    4a14:	4680      	mov	r8, r0
    4a16:	1c0f      	adds	r7, r1, #0
    4a18:	6014      	str	r4, [r2, #0]
    4a1a:	6055      	str	r5, [r2, #4]
    4a1c:	1af3      	subs	r3, r6, r3
    4a1e:	2b10      	cmp	r3, #16
    4a20:	dd9a      	ble.n	4958 <__ieee754_rem_pio2+0x218>
    4a22:	4b58      	ldr	r3, [pc, #352]	; (4b84 <__ieee754_rem_pio2+0x444>)
    4a24:	4a56      	ldr	r2, [pc, #344]	; (4b80 <__ieee754_rem_pio2+0x440>)
    4a26:	9804      	ldr	r0, [sp, #16]
    4a28:	9905      	ldr	r1, [sp, #20]
    4a2a:	f7fe fb55 	bl	30d8 <__aeabi_dmul>
    4a2e:	1c04      	adds	r4, r0, #0
    4a30:	1c0d      	adds	r5, r1, #0
    4a32:	1c22      	adds	r2, r4, #0
    4a34:	1c2b      	adds	r3, r5, #0
    4a36:	9802      	ldr	r0, [sp, #8]
    4a38:	9903      	ldr	r1, [sp, #12]
    4a3a:	f001 fcf1 	bl	6420 <__aeabi_dsub>
    4a3e:	9008      	str	r0, [sp, #32]
    4a40:	9109      	str	r1, [sp, #36]	; 0x24
    4a42:	9a08      	ldr	r2, [sp, #32]
    4a44:	9b09      	ldr	r3, [sp, #36]	; 0x24
    4a46:	9802      	ldr	r0, [sp, #8]
    4a48:	9903      	ldr	r1, [sp, #12]
    4a4a:	f001 fce9 	bl	6420 <__aeabi_dsub>
    4a4e:	1c22      	adds	r2, r4, #0
    4a50:	1c2b      	adds	r3, r5, #0
    4a52:	f001 fce5 	bl	6420 <__aeabi_dsub>
    4a56:	4a4c      	ldr	r2, [pc, #304]	; (4b88 <__ieee754_rem_pio2+0x448>)
    4a58:	4b4c      	ldr	r3, [pc, #304]	; (4b8c <__ieee754_rem_pio2+0x44c>)
    4a5a:	1c04      	adds	r4, r0, #0
    4a5c:	1c0d      	adds	r5, r1, #0
    4a5e:	9804      	ldr	r0, [sp, #16]
    4a60:	9905      	ldr	r1, [sp, #20]
    4a62:	f7fe fb39 	bl	30d8 <__aeabi_dmul>
    4a66:	1c22      	adds	r2, r4, #0
    4a68:	1c2b      	adds	r3, r5, #0
    4a6a:	f001 fcd9 	bl	6420 <__aeabi_dsub>
    4a6e:	9006      	str	r0, [sp, #24]
    4a70:	9107      	str	r1, [sp, #28]
    4a72:	9a06      	ldr	r2, [sp, #24]
    4a74:	9b07      	ldr	r3, [sp, #28]
    4a76:	9808      	ldr	r0, [sp, #32]
    4a78:	9909      	ldr	r1, [sp, #36]	; 0x24
    4a7a:	f001 fcd1 	bl	6420 <__aeabi_dsub>
    4a7e:	464b      	mov	r3, r9
    4a80:	1c0d      	adds	r5, r1, #0
    4a82:	1c04      	adds	r4, r0, #0
    4a84:	601c      	str	r4, [r3, #0]
    4a86:	605d      	str	r5, [r3, #4]
    4a88:	004b      	lsls	r3, r1, #1
    4a8a:	0d5b      	lsrs	r3, r3, #21
    4a8c:	1c0f      	adds	r7, r1, #0
    4a8e:	4680      	mov	r8, r0
    4a90:	9908      	ldr	r1, [sp, #32]
    4a92:	9a09      	ldr	r2, [sp, #36]	; 0x24
    4a94:	1af3      	subs	r3, r6, r3
    4a96:	9102      	str	r1, [sp, #8]
    4a98:	9203      	str	r2, [sp, #12]
    4a9a:	2b31      	cmp	r3, #49	; 0x31
    4a9c:	dc00      	bgt.n	4aa0 <__ieee754_rem_pio2+0x360>
    4a9e:	e75b      	b.n	4958 <__ieee754_rem_pio2+0x218>
    4aa0:	4a3b      	ldr	r2, [pc, #236]	; (4b90 <__ieee754_rem_pio2+0x450>)
    4aa2:	4b3c      	ldr	r3, [pc, #240]	; (4b94 <__ieee754_rem_pio2+0x454>)
    4aa4:	9804      	ldr	r0, [sp, #16]
    4aa6:	9905      	ldr	r1, [sp, #20]
    4aa8:	f7fe fb16 	bl	30d8 <__aeabi_dmul>
    4aac:	1c04      	adds	r4, r0, #0
    4aae:	1c0d      	adds	r5, r1, #0
    4ab0:	1c22      	adds	r2, r4, #0
    4ab2:	1c2b      	adds	r3, r5, #0
    4ab4:	9802      	ldr	r0, [sp, #8]
    4ab6:	9903      	ldr	r1, [sp, #12]
    4ab8:	f001 fcb2 	bl	6420 <__aeabi_dsub>
    4abc:	9002      	str	r0, [sp, #8]
    4abe:	9103      	str	r1, [sp, #12]
    4ac0:	9a02      	ldr	r2, [sp, #8]
    4ac2:	9b03      	ldr	r3, [sp, #12]
    4ac4:	9808      	ldr	r0, [sp, #32]
    4ac6:	9909      	ldr	r1, [sp, #36]	; 0x24
    4ac8:	f001 fcaa 	bl	6420 <__aeabi_dsub>
    4acc:	1c22      	adds	r2, r4, #0
    4ace:	1c2b      	adds	r3, r5, #0
    4ad0:	f001 fca6 	bl	6420 <__aeabi_dsub>
    4ad4:	4a30      	ldr	r2, [pc, #192]	; (4b98 <__ieee754_rem_pio2+0x458>)
    4ad6:	4b31      	ldr	r3, [pc, #196]	; (4b9c <__ieee754_rem_pio2+0x45c>)
    4ad8:	1c04      	adds	r4, r0, #0
    4ada:	1c0d      	adds	r5, r1, #0
    4adc:	9804      	ldr	r0, [sp, #16]
    4ade:	9905      	ldr	r1, [sp, #20]
    4ae0:	f7fe fafa 	bl	30d8 <__aeabi_dmul>
    4ae4:	1c22      	adds	r2, r4, #0
    4ae6:	1c2b      	adds	r3, r5, #0
    4ae8:	f001 fc9a 	bl	6420 <__aeabi_dsub>
    4aec:	9006      	str	r0, [sp, #24]
    4aee:	9107      	str	r1, [sp, #28]
    4af0:	9a06      	ldr	r2, [sp, #24]
    4af2:	9b07      	ldr	r3, [sp, #28]
    4af4:	9802      	ldr	r0, [sp, #8]
    4af6:	9903      	ldr	r1, [sp, #12]
    4af8:	f001 fc92 	bl	6420 <__aeabi_dsub>
    4afc:	464a      	mov	r2, r9
    4afe:	1c04      	adds	r4, r0, #0
    4b00:	1c0d      	adds	r5, r1, #0
    4b02:	4680      	mov	r8, r0
    4b04:	1c0f      	adds	r7, r1, #0
    4b06:	6014      	str	r4, [r2, #0]
    4b08:	6055      	str	r5, [r2, #4]
    4b0a:	e725      	b.n	4958 <__ieee754_rem_pio2+0x218>
    4b0c:	1c29      	adds	r1, r5, #0
    4b0e:	4a24      	ldr	r2, [pc, #144]	; (4ba0 <__ieee754_rem_pio2+0x460>)
    4b10:	4b24      	ldr	r3, [pc, #144]	; (4ba4 <__ieee754_rem_pio2+0x464>)
    4b12:	f001 f823 	bl	5b5c <__aeabi_dadd>
    4b16:	4b26      	ldr	r3, [pc, #152]	; (4bb0 <__ieee754_rem_pio2+0x470>)
    4b18:	1c04      	adds	r4, r0, #0
    4b1a:	1c0d      	adds	r5, r1, #0
    4b1c:	429e      	cmp	r6, r3
    4b1e:	d018      	beq.n	4b52 <__ieee754_rem_pio2+0x412>
    4b20:	4a21      	ldr	r2, [pc, #132]	; (4ba8 <__ieee754_rem_pio2+0x468>)
    4b22:	4b22      	ldr	r3, [pc, #136]	; (4bac <__ieee754_rem_pio2+0x46c>)
    4b24:	f001 f81a 	bl	5b5c <__aeabi_dadd>
    4b28:	1c02      	adds	r2, r0, #0
    4b2a:	1c0b      	adds	r3, r1, #0
    4b2c:	4649      	mov	r1, r9
    4b2e:	600a      	str	r2, [r1, #0]
    4b30:	604b      	str	r3, [r1, #4]
    4b32:	1c20      	adds	r0, r4, #0
    4b34:	1c29      	adds	r1, r5, #0
    4b36:	f001 fc73 	bl	6420 <__aeabi_dsub>
    4b3a:	4a1b      	ldr	r2, [pc, #108]	; (4ba8 <__ieee754_rem_pio2+0x468>)
    4b3c:	4b1b      	ldr	r3, [pc, #108]	; (4bac <__ieee754_rem_pio2+0x46c>)
    4b3e:	f001 f80d 	bl	5b5c <__aeabi_dadd>
    4b42:	464a      	mov	r2, r9
    4b44:	6090      	str	r0, [r2, #8]
    4b46:	60d1      	str	r1, [r2, #12]
    4b48:	2001      	movs	r0, #1
    4b4a:	4240      	negs	r0, r0
    4b4c:	e698      	b.n	4880 <__ieee754_rem_pio2+0x140>
    4b4e:	2303      	movs	r3, #3
    4b50:	e674      	b.n	483c <__ieee754_rem_pio2+0xfc>
    4b52:	4b0c      	ldr	r3, [pc, #48]	; (4b84 <__ieee754_rem_pio2+0x444>)
    4b54:	4a0a      	ldr	r2, [pc, #40]	; (4b80 <__ieee754_rem_pio2+0x440>)
    4b56:	f001 f801 	bl	5b5c <__aeabi_dadd>
    4b5a:	4a0b      	ldr	r2, [pc, #44]	; (4b88 <__ieee754_rem_pio2+0x448>)
    4b5c:	4b0b      	ldr	r3, [pc, #44]	; (4b8c <__ieee754_rem_pio2+0x44c>)
    4b5e:	1c04      	adds	r4, r0, #0
    4b60:	1c0d      	adds	r5, r1, #0
    4b62:	f000 fffb 	bl	5b5c <__aeabi_dadd>
    4b66:	1c02      	adds	r2, r0, #0
    4b68:	1c0b      	adds	r3, r1, #0
    4b6a:	4649      	mov	r1, r9
    4b6c:	600a      	str	r2, [r1, #0]
    4b6e:	604b      	str	r3, [r1, #4]
    4b70:	1c20      	adds	r0, r4, #0
    4b72:	1c29      	adds	r1, r5, #0
    4b74:	f001 fc54 	bl	6420 <__aeabi_dsub>
    4b78:	4a03      	ldr	r2, [pc, #12]	; (4b88 <__ieee754_rem_pio2+0x448>)
    4b7a:	4b04      	ldr	r3, [pc, #16]	; (4b8c <__ieee754_rem_pio2+0x44c>)
    4b7c:	e7df      	b.n	4b3e <__ieee754_rem_pio2+0x3fe>
    4b7e:	46c0      	nop			; (mov r8, r8)
    4b80:	1a600000 	.word	0x1a600000
    4b84:	3dd0b461 	.word	0x3dd0b461
    4b88:	2e037073 	.word	0x2e037073
    4b8c:	3ba3198a 	.word	0x3ba3198a
    4b90:	2e000000 	.word	0x2e000000
    4b94:	3ba3198a 	.word	0x3ba3198a
    4b98:	252049c1 	.word	0x252049c1
    4b9c:	397b839a 	.word	0x397b839a
    4ba0:	54400000 	.word	0x54400000
    4ba4:	3ff921fb 	.word	0x3ff921fb
    4ba8:	1a626331 	.word	0x1a626331
    4bac:	3dd0b461 	.word	0x3dd0b461
    4bb0:	3ff921fb 	.word	0x3ff921fb
    4bb4:	46c0      	nop			; (mov r8, r8)
    4bb6:	46c0      	nop			; (mov r8, r8)

00004bb8 <__kernel_cos>:
    4bb8:	b5f0      	push	{r4, r5, r6, r7, lr}
    4bba:	4647      	mov	r7, r8
    4bbc:	b480      	push	{r7}
    4bbe:	b088      	sub	sp, #32
    4bc0:	9202      	str	r2, [sp, #8]
    4bc2:	9303      	str	r3, [sp, #12]
    4bc4:	004b      	lsls	r3, r1, #1
    4bc6:	085b      	lsrs	r3, r3, #1
    4bc8:	4698      	mov	r8, r3
    4bca:	4b89      	ldr	r3, [pc, #548]	; (4df0 <__kernel_cos+0x238>)
    4bcc:	1c06      	adds	r6, r0, #0
    4bce:	1c0f      	adds	r7, r1, #0
    4bd0:	4598      	cmp	r8, r3
    4bd2:	dc63      	bgt.n	4c9c <__kernel_cos+0xe4>
    4bd4:	f7fe fd10 	bl	35f8 <__aeabi_d2iz>
    4bd8:	2800      	cmp	r0, #0
    4bda:	d100      	bne.n	4bde <__kernel_cos+0x26>
    4bdc:	e0dd      	b.n	4d9a <__kernel_cos+0x1e2>
    4bde:	1c32      	adds	r2, r6, #0
    4be0:	1c3b      	adds	r3, r7, #0
    4be2:	1c30      	adds	r0, r6, #0
    4be4:	1c39      	adds	r1, r7, #0
    4be6:	f7fe fa77 	bl	30d8 <__aeabi_dmul>
    4bea:	4b6e      	ldr	r3, [pc, #440]	; (4da4 <__kernel_cos+0x1ec>)
    4bec:	4a6c      	ldr	r2, [pc, #432]	; (4da0 <__kernel_cos+0x1e8>)
    4bee:	1c04      	adds	r4, r0, #0
    4bf0:	1c0d      	adds	r5, r1, #0
    4bf2:	f7fe fa71 	bl	30d8 <__aeabi_dmul>
    4bf6:	4a6c      	ldr	r2, [pc, #432]	; (4da8 <__kernel_cos+0x1f0>)
    4bf8:	4b6c      	ldr	r3, [pc, #432]	; (4dac <__kernel_cos+0x1f4>)
    4bfa:	f000 ffaf 	bl	5b5c <__aeabi_dadd>
    4bfe:	1c22      	adds	r2, r4, #0
    4c00:	1c2b      	adds	r3, r5, #0
    4c02:	f7fe fa69 	bl	30d8 <__aeabi_dmul>
    4c06:	4a6a      	ldr	r2, [pc, #424]	; (4db0 <__kernel_cos+0x1f8>)
    4c08:	4b6a      	ldr	r3, [pc, #424]	; (4db4 <__kernel_cos+0x1fc>)
    4c0a:	f001 fc09 	bl	6420 <__aeabi_dsub>
    4c0e:	1c22      	adds	r2, r4, #0
    4c10:	1c2b      	adds	r3, r5, #0
    4c12:	f7fe fa61 	bl	30d8 <__aeabi_dmul>
    4c16:	4a68      	ldr	r2, [pc, #416]	; (4db8 <__kernel_cos+0x200>)
    4c18:	4b68      	ldr	r3, [pc, #416]	; (4dbc <__kernel_cos+0x204>)
    4c1a:	f000 ff9f 	bl	5b5c <__aeabi_dadd>
    4c1e:	1c22      	adds	r2, r4, #0
    4c20:	1c2b      	adds	r3, r5, #0
    4c22:	f7fe fa59 	bl	30d8 <__aeabi_dmul>
    4c26:	4a66      	ldr	r2, [pc, #408]	; (4dc0 <__kernel_cos+0x208>)
    4c28:	4b66      	ldr	r3, [pc, #408]	; (4dc4 <__kernel_cos+0x20c>)
    4c2a:	f001 fbf9 	bl	6420 <__aeabi_dsub>
    4c2e:	1c22      	adds	r2, r4, #0
    4c30:	1c2b      	adds	r3, r5, #0
    4c32:	f7fe fa51 	bl	30d8 <__aeabi_dmul>
    4c36:	4a64      	ldr	r2, [pc, #400]	; (4dc8 <__kernel_cos+0x210>)
    4c38:	4b64      	ldr	r3, [pc, #400]	; (4dcc <__kernel_cos+0x214>)
    4c3a:	f000 ff8f 	bl	5b5c <__aeabi_dadd>
    4c3e:	1c22      	adds	r2, r4, #0
    4c40:	1c2b      	adds	r3, r5, #0
    4c42:	f7fe fa49 	bl	30d8 <__aeabi_dmul>
    4c46:	9004      	str	r0, [sp, #16]
    4c48:	9105      	str	r1, [sp, #20]
    4c4a:	4a61      	ldr	r2, [pc, #388]	; (4dd0 <__kernel_cos+0x218>)
    4c4c:	4b61      	ldr	r3, [pc, #388]	; (4dd4 <__kernel_cos+0x21c>)
    4c4e:	1c20      	adds	r0, r4, #0
    4c50:	1c29      	adds	r1, r5, #0
    4c52:	f7fe fa41 	bl	30d8 <__aeabi_dmul>
    4c56:	9a04      	ldr	r2, [sp, #16]
    4c58:	9b05      	ldr	r3, [sp, #20]
    4c5a:	9000      	str	r0, [sp, #0]
    4c5c:	9101      	str	r1, [sp, #4]
    4c5e:	1c20      	adds	r0, r4, #0
    4c60:	1c29      	adds	r1, r5, #0
    4c62:	f7fe fa39 	bl	30d8 <__aeabi_dmul>
    4c66:	9a02      	ldr	r2, [sp, #8]
    4c68:	9b03      	ldr	r3, [sp, #12]
    4c6a:	1c04      	adds	r4, r0, #0
    4c6c:	1c0d      	adds	r5, r1, #0
    4c6e:	1c30      	adds	r0, r6, #0
    4c70:	1c39      	adds	r1, r7, #0
    4c72:	f7fe fa31 	bl	30d8 <__aeabi_dmul>
    4c76:	1c02      	adds	r2, r0, #0
    4c78:	1c0b      	adds	r3, r1, #0
    4c7a:	1c20      	adds	r0, r4, #0
    4c7c:	1c29      	adds	r1, r5, #0
    4c7e:	f001 fbcf 	bl	6420 <__aeabi_dsub>
    4c82:	1c02      	adds	r2, r0, #0
    4c84:	1c0b      	adds	r3, r1, #0
    4c86:	9800      	ldr	r0, [sp, #0]
    4c88:	9901      	ldr	r1, [sp, #4]
    4c8a:	f001 fbc9 	bl	6420 <__aeabi_dsub>
    4c8e:	1c02      	adds	r2, r0, #0
    4c90:	1c0b      	adds	r3, r1, #0
    4c92:	4851      	ldr	r0, [pc, #324]	; (4dd8 <__kernel_cos+0x220>)
    4c94:	4951      	ldr	r1, [pc, #324]	; (4ddc <__kernel_cos+0x224>)
    4c96:	f001 fbc3 	bl	6420 <__aeabi_dsub>
    4c9a:	e071      	b.n	4d80 <__kernel_cos+0x1c8>
    4c9c:	1c32      	adds	r2, r6, #0
    4c9e:	1c3b      	adds	r3, r7, #0
    4ca0:	f7fe fa1a 	bl	30d8 <__aeabi_dmul>
    4ca4:	4b3f      	ldr	r3, [pc, #252]	; (4da4 <__kernel_cos+0x1ec>)
    4ca6:	4a3e      	ldr	r2, [pc, #248]	; (4da0 <__kernel_cos+0x1e8>)
    4ca8:	1c04      	adds	r4, r0, #0
    4caa:	1c0d      	adds	r5, r1, #0
    4cac:	f7fe fa14 	bl	30d8 <__aeabi_dmul>
    4cb0:	4a3d      	ldr	r2, [pc, #244]	; (4da8 <__kernel_cos+0x1f0>)
    4cb2:	4b3e      	ldr	r3, [pc, #248]	; (4dac <__kernel_cos+0x1f4>)
    4cb4:	f000 ff52 	bl	5b5c <__aeabi_dadd>
    4cb8:	1c22      	adds	r2, r4, #0
    4cba:	1c2b      	adds	r3, r5, #0
    4cbc:	f7fe fa0c 	bl	30d8 <__aeabi_dmul>
    4cc0:	4a3b      	ldr	r2, [pc, #236]	; (4db0 <__kernel_cos+0x1f8>)
    4cc2:	4b3c      	ldr	r3, [pc, #240]	; (4db4 <__kernel_cos+0x1fc>)
    4cc4:	f001 fbac 	bl	6420 <__aeabi_dsub>
    4cc8:	1c22      	adds	r2, r4, #0
    4cca:	1c2b      	adds	r3, r5, #0
    4ccc:	f7fe fa04 	bl	30d8 <__aeabi_dmul>
    4cd0:	4a39      	ldr	r2, [pc, #228]	; (4db8 <__kernel_cos+0x200>)
    4cd2:	4b3a      	ldr	r3, [pc, #232]	; (4dbc <__kernel_cos+0x204>)
    4cd4:	f000 ff42 	bl	5b5c <__aeabi_dadd>
    4cd8:	1c22      	adds	r2, r4, #0
    4cda:	1c2b      	adds	r3, r5, #0
    4cdc:	f7fe f9fc 	bl	30d8 <__aeabi_dmul>
    4ce0:	4a37      	ldr	r2, [pc, #220]	; (4dc0 <__kernel_cos+0x208>)
    4ce2:	4b38      	ldr	r3, [pc, #224]	; (4dc4 <__kernel_cos+0x20c>)
    4ce4:	f001 fb9c 	bl	6420 <__aeabi_dsub>
    4ce8:	1c22      	adds	r2, r4, #0
    4cea:	1c2b      	adds	r3, r5, #0
    4cec:	f7fe f9f4 	bl	30d8 <__aeabi_dmul>
    4cf0:	4a35      	ldr	r2, [pc, #212]	; (4dc8 <__kernel_cos+0x210>)
    4cf2:	4b36      	ldr	r3, [pc, #216]	; (4dcc <__kernel_cos+0x214>)
    4cf4:	f000 ff32 	bl	5b5c <__aeabi_dadd>
    4cf8:	1c2b      	adds	r3, r5, #0
    4cfa:	1c22      	adds	r2, r4, #0
    4cfc:	f7fe f9ec 	bl	30d8 <__aeabi_dmul>
    4d00:	4b3c      	ldr	r3, [pc, #240]	; (4df4 <__kernel_cos+0x23c>)
    4d02:	9004      	str	r0, [sp, #16]
    4d04:	9105      	str	r1, [sp, #20]
    4d06:	4598      	cmp	r8, r3
    4d08:	dd9f      	ble.n	4c4a <__kernel_cos+0x92>
    4d0a:	4b3b      	ldr	r3, [pc, #236]	; (4df8 <__kernel_cos+0x240>)
    4d0c:	4598      	cmp	r8, r3
    4d0e:	dc3b      	bgt.n	4d88 <__kernel_cos+0x1d0>
    4d10:	493a      	ldr	r1, [pc, #232]	; (4dfc <__kernel_cos+0x244>)
    4d12:	2200      	movs	r2, #0
    4d14:	1c0b      	adds	r3, r1, #0
    4d16:	4443      	add	r3, r8
    4d18:	482f      	ldr	r0, [pc, #188]	; (4dd8 <__kernel_cos+0x220>)
    4d1a:	4930      	ldr	r1, [pc, #192]	; (4ddc <__kernel_cos+0x224>)
    4d1c:	9200      	str	r2, [sp, #0]
    4d1e:	9301      	str	r3, [sp, #4]
    4d20:	f001 fb7e 	bl	6420 <__aeabi_dsub>
    4d24:	9006      	str	r0, [sp, #24]
    4d26:	9107      	str	r1, [sp, #28]
    4d28:	4a29      	ldr	r2, [pc, #164]	; (4dd0 <__kernel_cos+0x218>)
    4d2a:	4b2a      	ldr	r3, [pc, #168]	; (4dd4 <__kernel_cos+0x21c>)
    4d2c:	1c20      	adds	r0, r4, #0
    4d2e:	1c29      	adds	r1, r5, #0
    4d30:	f7fe f9d2 	bl	30d8 <__aeabi_dmul>
    4d34:	9a00      	ldr	r2, [sp, #0]
    4d36:	9b01      	ldr	r3, [sp, #4]
    4d38:	f001 fb72 	bl	6420 <__aeabi_dsub>
    4d3c:	9a04      	ldr	r2, [sp, #16]
    4d3e:	9b05      	ldr	r3, [sp, #20]
    4d40:	9000      	str	r0, [sp, #0]
    4d42:	9101      	str	r1, [sp, #4]
    4d44:	1c20      	adds	r0, r4, #0
    4d46:	1c29      	adds	r1, r5, #0
    4d48:	f7fe f9c6 	bl	30d8 <__aeabi_dmul>
    4d4c:	9a02      	ldr	r2, [sp, #8]
    4d4e:	9b03      	ldr	r3, [sp, #12]
    4d50:	1c04      	adds	r4, r0, #0
    4d52:	1c0d      	adds	r5, r1, #0
    4d54:	1c30      	adds	r0, r6, #0
    4d56:	1c39      	adds	r1, r7, #0
    4d58:	f7fe f9be 	bl	30d8 <__aeabi_dmul>
    4d5c:	1c02      	adds	r2, r0, #0
    4d5e:	1c0b      	adds	r3, r1, #0
    4d60:	1c20      	adds	r0, r4, #0
    4d62:	1c29      	adds	r1, r5, #0
    4d64:	f001 fb5c 	bl	6420 <__aeabi_dsub>
    4d68:	1c02      	adds	r2, r0, #0
    4d6a:	1c0b      	adds	r3, r1, #0
    4d6c:	9800      	ldr	r0, [sp, #0]
    4d6e:	9901      	ldr	r1, [sp, #4]
    4d70:	f001 fb56 	bl	6420 <__aeabi_dsub>
    4d74:	1c02      	adds	r2, r0, #0
    4d76:	1c0b      	adds	r3, r1, #0
    4d78:	9806      	ldr	r0, [sp, #24]
    4d7a:	9907      	ldr	r1, [sp, #28]
    4d7c:	f001 fb50 	bl	6420 <__aeabi_dsub>
    4d80:	b008      	add	sp, #32
    4d82:	bc04      	pop	{r2}
    4d84:	4690      	mov	r8, r2
    4d86:	bdf0      	pop	{r4, r5, r6, r7, pc}
    4d88:	4a15      	ldr	r2, [pc, #84]	; (4de0 <__kernel_cos+0x228>)
    4d8a:	4b16      	ldr	r3, [pc, #88]	; (4de4 <__kernel_cos+0x22c>)
    4d8c:	9206      	str	r2, [sp, #24]
    4d8e:	9307      	str	r3, [sp, #28]
    4d90:	4915      	ldr	r1, [pc, #84]	; (4de8 <__kernel_cos+0x230>)
    4d92:	4a16      	ldr	r2, [pc, #88]	; (4dec <__kernel_cos+0x234>)
    4d94:	9100      	str	r1, [sp, #0]
    4d96:	9201      	str	r2, [sp, #4]
    4d98:	e7c6      	b.n	4d28 <__kernel_cos+0x170>
    4d9a:	480f      	ldr	r0, [pc, #60]	; (4dd8 <__kernel_cos+0x220>)
    4d9c:	490f      	ldr	r1, [pc, #60]	; (4ddc <__kernel_cos+0x224>)
    4d9e:	e7ef      	b.n	4d80 <__kernel_cos+0x1c8>
    4da0:	be8838d4 	.word	0xbe8838d4
    4da4:	bda8fae9 	.word	0xbda8fae9
    4da8:	bdb4b1c4 	.word	0xbdb4b1c4
    4dac:	3e21ee9e 	.word	0x3e21ee9e
    4db0:	809c52ad 	.word	0x809c52ad
    4db4:	3e927e4f 	.word	0x3e927e4f
    4db8:	19cb1590 	.word	0x19cb1590
    4dbc:	3efa01a0 	.word	0x3efa01a0
    4dc0:	16c15177 	.word	0x16c15177
    4dc4:	3f56c16c 	.word	0x3f56c16c
    4dc8:	5555554c 	.word	0x5555554c
    4dcc:	3fa55555 	.word	0x3fa55555
    4dd0:	00000000 	.word	0x00000000
    4dd4:	3fe00000 	.word	0x3fe00000
    4dd8:	00000000 	.word	0x00000000
    4ddc:	3ff00000 	.word	0x3ff00000
    4de0:	00000000 	.word	0x00000000
    4de4:	3fe70000 	.word	0x3fe70000
    4de8:	00000000 	.word	0x00000000
    4dec:	3fd20000 	.word	0x3fd20000
    4df0:	3e3fffff 	.word	0x3e3fffff
    4df4:	3fd33332 	.word	0x3fd33332
    4df8:	3fe90000 	.word	0x3fe90000
    4dfc:	ffe00000 	.word	0xffe00000

00004e00 <__kernel_rem_pio2>:
    4e00:	b5f0      	push	{r4, r5, r6, r7, lr}
    4e02:	4656      	mov	r6, r10
    4e04:	464d      	mov	r5, r9
    4e06:	4644      	mov	r4, r8
    4e08:	465f      	mov	r7, r11
    4e0a:	b4f0      	push	{r4, r5, r6, r7}
    4e0c:	4c8e      	ldr	r4, [pc, #568]	; (5048 <__kernel_rem_pio2+0x248>)
    4e0e:	4682      	mov	r10, r0
    4e10:	44a5      	add	sp, r4
    4e12:	9da8      	ldr	r5, [sp, #672]	; 0x2a0
    4e14:	9310      	str	r3, [sp, #64]	; 0x40
    4e16:	4b8d      	ldr	r3, [pc, #564]	; (504c <__kernel_rem_pio2+0x24c>)
    4e18:	1c14      	adds	r4, r2, #0
    4e1a:	00aa      	lsls	r2, r5, #2
    4e1c:	9d10      	ldr	r5, [sp, #64]	; 0x40
    4e1e:	58d2      	ldr	r2, [r2, r3]
    4e20:	910e      	str	r1, [sp, #56]	; 0x38
    4e22:	3d01      	subs	r5, #1
    4e24:	1ee0      	subs	r0, r4, #3
    4e26:	2118      	movs	r1, #24
    4e28:	920c      	str	r2, [sp, #48]	; 0x30
    4e2a:	9506      	str	r5, [sp, #24]
    4e2c:	f000 fdf8 	bl	5a20 <__aeabi_idiv>
    4e30:	43c3      	mvns	r3, r0
    4e32:	17db      	asrs	r3, r3, #31
    4e34:	4018      	ands	r0, r3
    4e36:	43c3      	mvns	r3, r0
    4e38:	005a      	lsls	r2, r3, #1
    4e3a:	18d3      	adds	r3, r2, r3
    4e3c:	00db      	lsls	r3, r3, #3
    4e3e:	191b      	adds	r3, r3, r4
    4e40:	900f      	str	r0, [sp, #60]	; 0x3c
    4e42:	1b44      	subs	r4, r0, r5
    4e44:	980c      	ldr	r0, [sp, #48]	; 0x30
    4e46:	930b      	str	r3, [sp, #44]	; 0x2c
    4e48:	182f      	adds	r7, r5, r0
    4e4a:	d417      	bmi.n	4e7c <__kernel_rem_pio2+0x7c>
    4e4c:	98a9      	ldr	r0, [sp, #676]	; 0x2a4
    4e4e:	00a5      	lsls	r5, r4, #2
    4e50:	19e7      	adds	r7, r4, r7
    4e52:	ae26      	add	r6, sp, #152	; 0x98
    4e54:	1945      	adds	r5, r0, r5
    4e56:	3701      	adds	r7, #1
    4e58:	e007      	b.n	4e6a <__kernel_rem_pio2+0x6a>
    4e5a:	6828      	ldr	r0, [r5, #0]
    4e5c:	f7fe fc00 	bl	3660 <__aeabi_i2d>
    4e60:	3401      	adds	r4, #1
    4e62:	c603      	stmia	r6!, {r0, r1}
    4e64:	3504      	adds	r5, #4
    4e66:	42bc      	cmp	r4, r7
    4e68:	d008      	beq.n	4e7c <__kernel_rem_pio2+0x7c>
    4e6a:	2c00      	cmp	r4, #0
    4e6c:	daf5      	bge.n	4e5a <__kernel_rem_pio2+0x5a>
    4e6e:	3401      	adds	r4, #1
    4e70:	496c      	ldr	r1, [pc, #432]	; (5024 <__kernel_rem_pio2+0x224>)
    4e72:	486b      	ldr	r0, [pc, #428]	; (5020 <__kernel_rem_pio2+0x220>)
    4e74:	3504      	adds	r5, #4
    4e76:	c603      	stmia	r6!, {r0, r1}
    4e78:	42bc      	cmp	r4, r7
    4e7a:	d1f6      	bne.n	4e6a <__kernel_rem_pio2+0x6a>
    4e7c:	9c0c      	ldr	r4, [sp, #48]	; 0x30
    4e7e:	2c00      	cmp	r4, #0
    4e80:	da00      	bge.n	4e84 <__kernel_rem_pio2+0x84>
    4e82:	e3ad      	b.n	55e0 <__kernel_rem_pio2+0x7e0>
    4e84:	9b0c      	ldr	r3, [sp, #48]	; 0x30
    4e86:	9c10      	ldr	r4, [sp, #64]	; 0x40
    4e88:	3301      	adds	r3, #1
    4e8a:	00db      	lsls	r3, r3, #3
    4e8c:	00e4      	lsls	r4, r4, #3
    4e8e:	ad9e      	add	r5, sp, #632	; 0x278
    4e90:	46a3      	mov	r11, r4
    4e92:	4699      	mov	r9, r3
    4e94:	1c2b      	adds	r3, r5, #0
    4e96:	445b      	add	r3, r11
    4e98:	3be9      	subs	r3, #233	; 0xe9
    4e9a:	2000      	movs	r0, #0
    4e9c:	ac76      	add	r4, sp, #472	; 0x1d8
    4e9e:	3bff      	subs	r3, #255	; 0xff
    4ea0:	4680      	mov	r8, r0
    4ea2:	940d      	str	r4, [sp, #52]	; 0x34
    4ea4:	9304      	str	r3, [sp, #16]
    4ea6:	9d06      	ldr	r5, [sp, #24]
    4ea8:	2d00      	cmp	r5, #0
    4eaa:	da00      	bge.n	4eae <__kernel_rem_pio2+0xae>
    4eac:	e1ac      	b.n	5208 <__kernel_rem_pio2+0x408>
    4eae:	9804      	ldr	r0, [sp, #16]
    4eb0:	2600      	movs	r6, #0
    4eb2:	1c07      	adds	r7, r0, #0
    4eb4:	4447      	add	r7, r8
    4eb6:	4d5b      	ldr	r5, [pc, #364]	; (5024 <__kernel_rem_pio2+0x224>)
    4eb8:	4c59      	ldr	r4, [pc, #356]	; (5020 <__kernel_rem_pio2+0x220>)
    4eba:	4650      	mov	r0, r10
    4ebc:	1983      	adds	r3, r0, r6
    4ebe:	6818      	ldr	r0, [r3, #0]
    4ec0:	6859      	ldr	r1, [r3, #4]
    4ec2:	683a      	ldr	r2, [r7, #0]
    4ec4:	687b      	ldr	r3, [r7, #4]
    4ec6:	f7fe f907 	bl	30d8 <__aeabi_dmul>
    4eca:	1c02      	adds	r2, r0, #0
    4ecc:	1c0b      	adds	r3, r1, #0
    4ece:	1c20      	adds	r0, r4, #0
    4ed0:	1c29      	adds	r1, r5, #0
    4ed2:	f000 fe43 	bl	5b5c <__aeabi_dadd>
    4ed6:	3608      	adds	r6, #8
    4ed8:	1c04      	adds	r4, r0, #0
    4eda:	1c0d      	adds	r5, r1, #0
    4edc:	3f08      	subs	r7, #8
    4ede:	455e      	cmp	r6, r11
    4ee0:	d1eb      	bne.n	4eba <__kernel_rem_pio2+0xba>
    4ee2:	990d      	ldr	r1, [sp, #52]	; 0x34
    4ee4:	2208      	movs	r2, #8
    4ee6:	1c0b      	adds	r3, r1, #0
    4ee8:	4443      	add	r3, r8
    4eea:	4490      	add	r8, r2
    4eec:	601c      	str	r4, [r3, #0]
    4eee:	605d      	str	r5, [r3, #4]
    4ef0:	45c8      	cmp	r8, r9
    4ef2:	d1d8      	bne.n	4ea6 <__kernel_rem_pio2+0xa6>
    4ef4:	9d0c      	ldr	r5, [sp, #48]	; 0x30
    4ef6:	ac11      	add	r4, sp, #68	; 0x44
    4ef8:	00ab      	lsls	r3, r5, #2
    4efa:	9408      	str	r4, [sp, #32]
    4efc:	18e4      	adds	r4, r4, r3
    4efe:	9411      	str	r4, [sp, #68]	; 0x44
    4f00:	950a      	str	r5, [sp, #40]	; 0x28
    4f02:	9c0a      	ldr	r4, [sp, #40]	; 0x28
    4f04:	9d0d      	ldr	r5, [sp, #52]	; 0x34
    4f06:	00e3      	lsls	r3, r4, #3
    4f08:	18eb      	adds	r3, r5, r3
    4f0a:	681e      	ldr	r6, [r3, #0]
    4f0c:	685f      	ldr	r7, [r3, #4]
    4f0e:	2c00      	cmp	r4, #0
    4f10:	dd38      	ble.n	4f84 <__kernel_rem_pio2+0x184>
    4f12:	1c23      	adds	r3, r4, #0
    4f14:	3b01      	subs	r3, #1
    4f16:	00db      	lsls	r3, r3, #3
    4f18:	18ed      	adds	r5, r5, r3
    4f1a:	a812      	add	r0, sp, #72	; 0x48
    4f1c:	00a3      	lsls	r3, r4, #2
    4f1e:	46a8      	mov	r8, r5
    4f20:	18c4      	adds	r4, r0, r3
    4f22:	4655      	mov	r5, r10
    4f24:	4681      	mov	r9, r0
    4f26:	9504      	str	r5, [sp, #16]
    4f28:	46a2      	mov	r10, r4
    4f2a:	4a3f      	ldr	r2, [pc, #252]	; (5028 <__kernel_rem_pio2+0x228>)
    4f2c:	4b3f      	ldr	r3, [pc, #252]	; (502c <__kernel_rem_pio2+0x22c>)
    4f2e:	1c30      	adds	r0, r6, #0
    4f30:	1c39      	adds	r1, r7, #0
    4f32:	f7fe f8d1 	bl	30d8 <__aeabi_dmul>
    4f36:	f7fe fb5f 	bl	35f8 <__aeabi_d2iz>
    4f3a:	f7fe fb91 	bl	3660 <__aeabi_i2d>
    4f3e:	4a3c      	ldr	r2, [pc, #240]	; (5030 <__kernel_rem_pio2+0x230>)
    4f40:	4b3c      	ldr	r3, [pc, #240]	; (5034 <__kernel_rem_pio2+0x234>)
    4f42:	1c04      	adds	r4, r0, #0
    4f44:	1c0d      	adds	r5, r1, #0
    4f46:	f7fe f8c7 	bl	30d8 <__aeabi_dmul>
    4f4a:	1c02      	adds	r2, r0, #0
    4f4c:	1c0b      	adds	r3, r1, #0
    4f4e:	1c30      	adds	r0, r6, #0
    4f50:	1c39      	adds	r1, r7, #0
    4f52:	f001 fa65 	bl	6420 <__aeabi_dsub>
    4f56:	f7fe fb4f 	bl	35f8 <__aeabi_d2iz>
    4f5a:	4649      	mov	r1, r9
    4f5c:	3104      	adds	r1, #4
    4f5e:	4689      	mov	r9, r1
    4f60:	3904      	subs	r1, #4
    4f62:	c101      	stmia	r1!, {r0}
    4f64:	1c20      	adds	r0, r4, #0
    4f66:	4644      	mov	r4, r8
    4f68:	1c29      	adds	r1, r5, #0
    4f6a:	6822      	ldr	r2, [r4, #0]
    4f6c:	6863      	ldr	r3, [r4, #4]
    4f6e:	f000 fdf5 	bl	5b5c <__aeabi_dadd>
    4f72:	2508      	movs	r5, #8
    4f74:	426d      	negs	r5, r5
    4f76:	1c06      	adds	r6, r0, #0
    4f78:	1c0f      	adds	r7, r1, #0
    4f7a:	44a8      	add	r8, r5
    4f7c:	45d1      	cmp	r9, r10
    4f7e:	d1d4      	bne.n	4f2a <__kernel_rem_pio2+0x12a>
    4f80:	9804      	ldr	r0, [sp, #16]
    4f82:	4682      	mov	r10, r0
    4f84:	1c30      	adds	r0, r6, #0
    4f86:	1c39      	adds	r1, r7, #0
    4f88:	9a0b      	ldr	r2, [sp, #44]	; 0x2c
    4f8a:	f000 fcb9 	bl	5900 <scalbn>
    4f8e:	4a2a      	ldr	r2, [pc, #168]	; (5038 <__kernel_rem_pio2+0x238>)
    4f90:	4b2a      	ldr	r3, [pc, #168]	; (503c <__kernel_rem_pio2+0x23c>)
    4f92:	1c04      	adds	r4, r0, #0
    4f94:	1c0d      	adds	r5, r1, #0
    4f96:	f7fe f89f 	bl	30d8 <__aeabi_dmul>
    4f9a:	f000 fbf9 	bl	5790 <floor>
    4f9e:	4a28      	ldr	r2, [pc, #160]	; (5040 <__kernel_rem_pio2+0x240>)
    4fa0:	4b28      	ldr	r3, [pc, #160]	; (5044 <__kernel_rem_pio2+0x244>)
    4fa2:	f7fe f899 	bl	30d8 <__aeabi_dmul>
    4fa6:	1c02      	adds	r2, r0, #0
    4fa8:	1c0b      	adds	r3, r1, #0
    4faa:	1c20      	adds	r0, r4, #0
    4fac:	1c29      	adds	r1, r5, #0
    4fae:	f001 fa37 	bl	6420 <__aeabi_dsub>
    4fb2:	1c04      	adds	r4, r0, #0
    4fb4:	1c0d      	adds	r5, r1, #0
    4fb6:	f7fe fb1f 	bl	35f8 <__aeabi_d2iz>
    4fba:	4681      	mov	r9, r0
    4fbc:	f7fe fb50 	bl	3660 <__aeabi_i2d>
    4fc0:	1c02      	adds	r2, r0, #0
    4fc2:	1c0b      	adds	r3, r1, #0
    4fc4:	1c20      	adds	r0, r4, #0
    4fc6:	1c29      	adds	r1, r5, #0
    4fc8:	f001 fa2a 	bl	6420 <__aeabi_dsub>
    4fcc:	9c0b      	ldr	r4, [sp, #44]	; 0x2c
    4fce:	1c06      	adds	r6, r0, #0
    4fd0:	1c0f      	adds	r7, r1, #0
    4fd2:	2c00      	cmp	r4, #0
    4fd4:	dc00      	bgt.n	4fd8 <__kernel_rem_pio2+0x1d8>
    4fd6:	e0f9      	b.n	51cc <__kernel_rem_pio2+0x3cc>
    4fd8:	9a0a      	ldr	r2, [sp, #40]	; 0x28
    4fda:	ad12      	add	r5, sp, #72	; 0x48
    4fdc:	3a01      	subs	r2, #1
    4fde:	0092      	lsls	r2, r2, #2
    4fe0:	58ab      	ldr	r3, [r5, r2]
    4fe2:	2118      	movs	r1, #24
    4fe4:	1b09      	subs	r1, r1, r4
    4fe6:	1c18      	adds	r0, r3, #0
    4fe8:	4108      	asrs	r0, r1
    4fea:	4481      	add	r9, r0
    4fec:	4088      	lsls	r0, r1
    4fee:	1a1b      	subs	r3, r3, r0
    4ff0:	50ab      	str	r3, [r5, r2]
    4ff2:	2517      	movs	r5, #23
    4ff4:	1b2d      	subs	r5, r5, r4
    4ff6:	412b      	asrs	r3, r5
    4ff8:	9309      	str	r3, [sp, #36]	; 0x24
    4ffa:	9d09      	ldr	r5, [sp, #36]	; 0x24
    4ffc:	2d00      	cmp	r5, #0
    4ffe:	dd50      	ble.n	50a2 <__kernel_rem_pio2+0x2a2>
    5000:	9c0a      	ldr	r4, [sp, #40]	; 0x28
    5002:	2501      	movs	r5, #1
    5004:	44a9      	add	r9, r5
    5006:	2c00      	cmp	r4, #0
    5008:	dc00      	bgt.n	500c <__kernel_rem_pio2+0x20c>
    500a:	e108      	b.n	521e <__kernel_rem_pio2+0x41e>
    500c:	00a1      	lsls	r1, r4, #2
    500e:	ab12      	add	r3, sp, #72	; 0x48
    5010:	2280      	movs	r2, #128	; 0x80
    5012:	1859      	adds	r1, r3, r1
    5014:	2400      	movs	r4, #0
    5016:	480e      	ldr	r0, [pc, #56]	; (5050 <__kernel_rem_pio2+0x250>)
    5018:	0455      	lsls	r5, r2, #17
    501a:	e023      	b.n	5064 <__kernel_rem_pio2+0x264>
    501c:	46c0      	nop			; (mov r8, r8)
    501e:	46c0      	nop			; (mov r8, r8)
	...
    502c:	3e700000 	.word	0x3e700000
    5030:	00000000 	.word	0x00000000
    5034:	41700000 	.word	0x41700000
    5038:	00000000 	.word	0x00000000
    503c:	3fc00000 	.word	0x3fc00000
    5040:	00000000 	.word	0x00000000
    5044:	40200000 	.word	0x40200000
    5048:	fffffd84 	.word	0xfffffd84
    504c:	00007214 	.word	0x00007214
    5050:	00ffffff 	.word	0x00ffffff
    5054:	2a00      	cmp	r2, #0
    5056:	d002      	beq.n	505e <__kernel_rem_pio2+0x25e>
    5058:	1aaa      	subs	r2, r5, r2
    505a:	601a      	str	r2, [r3, #0]
    505c:	2401      	movs	r4, #1
    505e:	3304      	adds	r3, #4
    5060:	428b      	cmp	r3, r1
    5062:	d008      	beq.n	5076 <__kernel_rem_pio2+0x276>
    5064:	681a      	ldr	r2, [r3, #0]
    5066:	2c00      	cmp	r4, #0
    5068:	d0f4      	beq.n	5054 <__kernel_rem_pio2+0x254>
    506a:	1a82      	subs	r2, r0, r2
    506c:	601a      	str	r2, [r3, #0]
    506e:	3304      	adds	r3, #4
    5070:	2401      	movs	r4, #1
    5072:	428b      	cmp	r3, r1
    5074:	d1f6      	bne.n	5064 <__kernel_rem_pio2+0x264>
    5076:	9d0b      	ldr	r5, [sp, #44]	; 0x2c
    5078:	2d00      	cmp	r5, #0
    507a:	dd0e      	ble.n	509a <__kernel_rem_pio2+0x29a>
    507c:	2d01      	cmp	r5, #1
    507e:	d100      	bne.n	5082 <__kernel_rem_pio2+0x282>
    5080:	e0af      	b.n	51e2 <__kernel_rem_pio2+0x3e2>
    5082:	2d02      	cmp	r5, #2
    5084:	d109      	bne.n	509a <__kernel_rem_pio2+0x29a>
    5086:	9b0a      	ldr	r3, [sp, #40]	; 0x28
    5088:	aa12      	add	r2, sp, #72	; 0x48
    508a:	3b01      	subs	r3, #1
    508c:	009b      	lsls	r3, r3, #2
    508e:	58d2      	ldr	r2, [r2, r3]
    5090:	ad12      	add	r5, sp, #72	; 0x48
    5092:	9202      	str	r2, [sp, #8]
    5094:	0292      	lsls	r2, r2, #10
    5096:	0a92      	lsrs	r2, r2, #10
    5098:	50ea      	str	r2, [r5, r3]
    509a:	9d09      	ldr	r5, [sp, #36]	; 0x24
    509c:	2d02      	cmp	r5, #2
    509e:	d100      	bne.n	50a2 <__kernel_rem_pio2+0x2a2>
    50a0:	e07b      	b.n	519a <__kernel_rem_pio2+0x39a>
    50a2:	1c30      	adds	r0, r6, #0
    50a4:	1c39      	adds	r1, r7, #0
    50a6:	4bcb      	ldr	r3, [pc, #812]	; (53d4 <__kernel_rem_pio2+0x5d4>)
    50a8:	4ac9      	ldr	r2, [pc, #804]	; (53d0 <__kernel_rem_pio2+0x5d0>)
    50aa:	f000 fd29 	bl	5b00 <__aeabi_dcmpeq>
    50ae:	2800      	cmp	r0, #0
    50b0:	d100      	bne.n	50b4 <__kernel_rem_pio2+0x2b4>
    50b2:	e0b6      	b.n	5222 <__kernel_rem_pio2+0x422>
    50b4:	980a      	ldr	r0, [sp, #40]	; 0x28
    50b6:	9c0c      	ldr	r4, [sp, #48]	; 0x30
    50b8:	3801      	subs	r0, #1
    50ba:	4284      	cmp	r4, r0
    50bc:	dc0c      	bgt.n	50d8 <__kernel_rem_pio2+0x2d8>
    50be:	0081      	lsls	r1, r0, #2
    50c0:	ad12      	add	r5, sp, #72	; 0x48
    50c2:	9c11      	ldr	r4, [sp, #68]	; 0x44
    50c4:	186b      	adds	r3, r5, r1
    50c6:	2200      	movs	r2, #0
    50c8:	681d      	ldr	r5, [r3, #0]
    50ca:	3b04      	subs	r3, #4
    50cc:	432a      	orrs	r2, r5
    50ce:	42a3      	cmp	r3, r4
    50d0:	d1fa      	bne.n	50c8 <__kernel_rem_pio2+0x2c8>
    50d2:	2a00      	cmp	r2, #0
    50d4:	d000      	beq.n	50d8 <__kernel_rem_pio2+0x2d8>
    50d6:	e267      	b.n	55a8 <__kernel_rem_pio2+0x7a8>
    50d8:	9b0c      	ldr	r3, [sp, #48]	; 0x30
    50da:	a812      	add	r0, sp, #72	; 0x48
    50dc:	3b01      	subs	r3, #1
    50de:	009b      	lsls	r3, r3, #2
    50e0:	58c3      	ldr	r3, [r0, r3]
    50e2:	2b00      	cmp	r3, #0
    50e4:	d000      	beq.n	50e8 <__kernel_rem_pio2+0x2e8>
    50e6:	e279      	b.n	55dc <__kernel_rem_pio2+0x7dc>
    50e8:	9b0c      	ldr	r3, [sp, #48]	; 0x30
    50ea:	2201      	movs	r2, #1
    50ec:	3b02      	subs	r3, #2
    50ee:	009b      	lsls	r3, r3, #2
    50f0:	18c3      	adds	r3, r0, r3
    50f2:	3b04      	subs	r3, #4
    50f4:	6859      	ldr	r1, [r3, #4]
    50f6:	3201      	adds	r2, #1
    50f8:	2900      	cmp	r1, #0
    50fa:	d0fa      	beq.n	50f2 <__kernel_rem_pio2+0x2f2>
    50fc:	9b0a      	ldr	r3, [sp, #40]	; 0x28
    50fe:	9c0a      	ldr	r4, [sp, #40]	; 0x28
    5100:	3301      	adds	r3, #1
    5102:	18a4      	adds	r4, r4, r2
    5104:	940a      	str	r4, [sp, #40]	; 0x28
    5106:	42a3      	cmp	r3, r4
    5108:	dd00      	ble.n	510c <__kernel_rem_pio2+0x30c>
    510a:	e6fa      	b.n	4f02 <__kernel_rem_pio2+0x102>
    510c:	9d0f      	ldr	r5, [sp, #60]	; 0x3c
    510e:	9ca9      	ldr	r4, [sp, #676]	; 0x2a4
    5110:	195a      	adds	r2, r3, r5
    5112:	0092      	lsls	r2, r2, #2
    5114:	18a4      	adds	r4, r4, r2
    5116:	9d06      	ldr	r5, [sp, #24]
    5118:	46a1      	mov	r9, r4
    511a:	9c0d      	ldr	r4, [sp, #52]	; 0x34
    511c:	18ea      	adds	r2, r5, r3
    511e:	00db      	lsls	r3, r3, #3
    5120:	18e3      	adds	r3, r4, r3
    5122:	9d10      	ldr	r5, [sp, #64]	; 0x40
    5124:	9c0a      	ldr	r4, [sp, #40]	; 0x28
    5126:	9304      	str	r3, [sp, #16]
    5128:	192b      	adds	r3, r5, r4
    512a:	00d2      	lsls	r2, r2, #3
    512c:	a826      	add	r0, sp, #152	; 0x98
    512e:	00db      	lsls	r3, r3, #3
    5130:	ad26      	add	r5, sp, #152	; 0x98
    5132:	1880      	adds	r0, r0, r2
    5134:	195d      	adds	r5, r3, r5
    5136:	4680      	mov	r8, r0
    5138:	9509      	str	r5, [sp, #36]	; 0x24
    513a:	4649      	mov	r1, r9
    513c:	6808      	ldr	r0, [r1, #0]
    513e:	f7fe fa8f 	bl	3660 <__aeabi_i2d>
    5142:	9c06      	ldr	r4, [sp, #24]
    5144:	4642      	mov	r2, r8
    5146:	6010      	str	r0, [r2, #0]
    5148:	6051      	str	r1, [r2, #4]
    514a:	2c00      	cmp	r4, #0
    514c:	db22      	blt.n	5194 <__kernel_rem_pio2+0x394>
    514e:	4647      	mov	r7, r8
    5150:	2600      	movs	r6, #0
    5152:	4da0      	ldr	r5, [pc, #640]	; (53d4 <__kernel_rem_pio2+0x5d4>)
    5154:	4c9e      	ldr	r4, [pc, #632]	; (53d0 <__kernel_rem_pio2+0x5d0>)
    5156:	4650      	mov	r0, r10
    5158:	1983      	adds	r3, r0, r6
    515a:	6818      	ldr	r0, [r3, #0]
    515c:	6859      	ldr	r1, [r3, #4]
    515e:	683a      	ldr	r2, [r7, #0]
    5160:	687b      	ldr	r3, [r7, #4]
    5162:	f7fd ffb9 	bl	30d8 <__aeabi_dmul>
    5166:	1c02      	adds	r2, r0, #0
    5168:	1c0b      	adds	r3, r1, #0
    516a:	1c20      	adds	r0, r4, #0
    516c:	1c29      	adds	r1, r5, #0
    516e:	f000 fcf5 	bl	5b5c <__aeabi_dadd>
    5172:	3608      	adds	r6, #8
    5174:	1c04      	adds	r4, r0, #0
    5176:	1c0d      	adds	r5, r1, #0
    5178:	3f08      	subs	r7, #8
    517a:	455e      	cmp	r6, r11
    517c:	d1eb      	bne.n	5156 <__kernel_rem_pio2+0x356>
    517e:	9904      	ldr	r1, [sp, #16]
    5180:	2308      	movs	r3, #8
    5182:	c130      	stmia	r1!, {r4, r5}
    5184:	9c09      	ldr	r4, [sp, #36]	; 0x24
    5186:	2204      	movs	r2, #4
    5188:	4498      	add	r8, r3
    518a:	9104      	str	r1, [sp, #16]
    518c:	4491      	add	r9, r2
    518e:	45a0      	cmp	r8, r4
    5190:	d1d3      	bne.n	513a <__kernel_rem_pio2+0x33a>
    5192:	e6b6      	b.n	4f02 <__kernel_rem_pio2+0x102>
    5194:	4d8f      	ldr	r5, [pc, #572]	; (53d4 <__kernel_rem_pio2+0x5d4>)
    5196:	4c8e      	ldr	r4, [pc, #568]	; (53d0 <__kernel_rem_pio2+0x5d0>)
    5198:	e7f1      	b.n	517e <__kernel_rem_pio2+0x37e>
    519a:	1c32      	adds	r2, r6, #0
    519c:	1c3b      	adds	r3, r7, #0
    519e:	488e      	ldr	r0, [pc, #568]	; (53d8 <__kernel_rem_pio2+0x5d8>)
    51a0:	498e      	ldr	r1, [pc, #568]	; (53dc <__kernel_rem_pio2+0x5dc>)
    51a2:	f001 f93d 	bl	6420 <__aeabi_dsub>
    51a6:	1c06      	adds	r6, r0, #0
    51a8:	1c0f      	adds	r7, r1, #0
    51aa:	2c00      	cmp	r4, #0
    51ac:	d100      	bne.n	51b0 <__kernel_rem_pio2+0x3b0>
    51ae:	e778      	b.n	50a2 <__kernel_rem_pio2+0x2a2>
    51b0:	9a0b      	ldr	r2, [sp, #44]	; 0x2c
    51b2:	4889      	ldr	r0, [pc, #548]	; (53d8 <__kernel_rem_pio2+0x5d8>)
    51b4:	4989      	ldr	r1, [pc, #548]	; (53dc <__kernel_rem_pio2+0x5dc>)
    51b6:	f000 fba3 	bl	5900 <scalbn>
    51ba:	1c02      	adds	r2, r0, #0
    51bc:	1c0b      	adds	r3, r1, #0
    51be:	1c30      	adds	r0, r6, #0
    51c0:	1c39      	adds	r1, r7, #0
    51c2:	f001 f92d 	bl	6420 <__aeabi_dsub>
    51c6:	1c06      	adds	r6, r0, #0
    51c8:	1c0f      	adds	r7, r1, #0
    51ca:	e76a      	b.n	50a2 <__kernel_rem_pio2+0x2a2>
    51cc:	9c0b      	ldr	r4, [sp, #44]	; 0x2c
    51ce:	2c00      	cmp	r4, #0
    51d0:	d111      	bne.n	51f6 <__kernel_rem_pio2+0x3f6>
    51d2:	9b0a      	ldr	r3, [sp, #40]	; 0x28
    51d4:	a812      	add	r0, sp, #72	; 0x48
    51d6:	3b01      	subs	r3, #1
    51d8:	009b      	lsls	r3, r3, #2
    51da:	58c5      	ldr	r5, [r0, r3]
    51dc:	15ed      	asrs	r5, r5, #23
    51de:	9509      	str	r5, [sp, #36]	; 0x24
    51e0:	e70b      	b.n	4ffa <__kernel_rem_pio2+0x1fa>
    51e2:	9b0a      	ldr	r3, [sp, #40]	; 0x28
    51e4:	a812      	add	r0, sp, #72	; 0x48
    51e6:	3b01      	subs	r3, #1
    51e8:	009b      	lsls	r3, r3, #2
    51ea:	58c0      	ldr	r0, [r0, r3]
    51ec:	a912      	add	r1, sp, #72	; 0x48
    51ee:	0242      	lsls	r2, r0, #9
    51f0:	0a52      	lsrs	r2, r2, #9
    51f2:	50ca      	str	r2, [r1, r3]
    51f4:	e751      	b.n	509a <__kernel_rem_pio2+0x29a>
    51f6:	4a7a      	ldr	r2, [pc, #488]	; (53e0 <__kernel_rem_pio2+0x5e0>)
    51f8:	4b7a      	ldr	r3, [pc, #488]	; (53e4 <__kernel_rem_pio2+0x5e4>)
    51fa:	f000 fca5 	bl	5b48 <__aeabi_dcmpge>
    51fe:	2800      	cmp	r0, #0
    5200:	d105      	bne.n	520e <__kernel_rem_pio2+0x40e>
    5202:	2400      	movs	r4, #0
    5204:	9409      	str	r4, [sp, #36]	; 0x24
    5206:	e74c      	b.n	50a2 <__kernel_rem_pio2+0x2a2>
    5208:	4d72      	ldr	r5, [pc, #456]	; (53d4 <__kernel_rem_pio2+0x5d4>)
    520a:	4c71      	ldr	r4, [pc, #452]	; (53d0 <__kernel_rem_pio2+0x5d0>)
    520c:	e669      	b.n	4ee2 <__kernel_rem_pio2+0xe2>
    520e:	2402      	movs	r4, #2
    5210:	9409      	str	r4, [sp, #36]	; 0x24
    5212:	9c0a      	ldr	r4, [sp, #40]	; 0x28
    5214:	2501      	movs	r5, #1
    5216:	44a9      	add	r9, r5
    5218:	2c00      	cmp	r4, #0
    521a:	dd00      	ble.n	521e <__kernel_rem_pio2+0x41e>
    521c:	e6f6      	b.n	500c <__kernel_rem_pio2+0x20c>
    521e:	2400      	movs	r4, #0
    5220:	e729      	b.n	5076 <__kernel_rem_pio2+0x276>
    5222:	9d0b      	ldr	r5, [sp, #44]	; 0x2c
    5224:	464c      	mov	r4, r9
    5226:	426a      	negs	r2, r5
    5228:	1c30      	adds	r0, r6, #0
    522a:	1c39      	adds	r1, r7, #0
    522c:	940f      	str	r4, [sp, #60]	; 0x3c
    522e:	f000 fb67 	bl	5900 <scalbn>
    5232:	4a6d      	ldr	r2, [pc, #436]	; (53e8 <__kernel_rem_pio2+0x5e8>)
    5234:	4b6d      	ldr	r3, [pc, #436]	; (53ec <__kernel_rem_pio2+0x5ec>)
    5236:	1c04      	adds	r4, r0, #0
    5238:	1c0d      	adds	r5, r1, #0
    523a:	f000 fc85 	bl	5b48 <__aeabi_dcmpge>
    523e:	2800      	cmp	r0, #0
    5240:	d100      	bne.n	5244 <__kernel_rem_pio2+0x444>
    5242:	e1d3      	b.n	55ec <__kernel_rem_pio2+0x7ec>
    5244:	4a6a      	ldr	r2, [pc, #424]	; (53f0 <__kernel_rem_pio2+0x5f0>)
    5246:	4b6b      	ldr	r3, [pc, #428]	; (53f4 <__kernel_rem_pio2+0x5f4>)
    5248:	1c20      	adds	r0, r4, #0
    524a:	1c29      	adds	r1, r5, #0
    524c:	f7fd ff44 	bl	30d8 <__aeabi_dmul>
    5250:	f7fe f9d2 	bl	35f8 <__aeabi_d2iz>
    5254:	1c06      	adds	r6, r0, #0
    5256:	980a      	ldr	r0, [sp, #40]	; 0x28
    5258:	0087      	lsls	r7, r0, #2
    525a:	1c30      	adds	r0, r6, #0
    525c:	f7fe fa00 	bl	3660 <__aeabi_i2d>
    5260:	4a61      	ldr	r2, [pc, #388]	; (53e8 <__kernel_rem_pio2+0x5e8>)
    5262:	4b62      	ldr	r3, [pc, #392]	; (53ec <__kernel_rem_pio2+0x5ec>)
    5264:	f7fd ff38 	bl	30d8 <__aeabi_dmul>
    5268:	1c02      	adds	r2, r0, #0
    526a:	1c0b      	adds	r3, r1, #0
    526c:	1c20      	adds	r0, r4, #0
    526e:	1c29      	adds	r1, r5, #0
    5270:	f001 f8d6 	bl	6420 <__aeabi_dsub>
    5274:	f7fe f9c0 	bl	35f8 <__aeabi_d2iz>
    5278:	9a0a      	ldr	r2, [sp, #40]	; 0x28
    527a:	9c0b      	ldr	r4, [sp, #44]	; 0x2c
    527c:	4690      	mov	r8, r2
    527e:	2201      	movs	r2, #1
    5280:	4490      	add	r8, r2
    5282:	4645      	mov	r5, r8
    5284:	a912      	add	r1, sp, #72	; 0x48
    5286:	3418      	adds	r4, #24
    5288:	00ab      	lsls	r3, r5, #2
    528a:	51c8      	str	r0, [r1, r7]
    528c:	940b      	str	r4, [sp, #44]	; 0x2c
    528e:	50ce      	str	r6, [r1, r3]
    5290:	4851      	ldr	r0, [pc, #324]	; (53d8 <__kernel_rem_pio2+0x5d8>)
    5292:	4952      	ldr	r1, [pc, #328]	; (53dc <__kernel_rem_pio2+0x5dc>)
    5294:	9a0b      	ldr	r2, [sp, #44]	; 0x2c
    5296:	f000 fb33 	bl	5900 <scalbn>
    529a:	4643      	mov	r3, r8
    529c:	1c04      	adds	r4, r0, #0
    529e:	1c0d      	adds	r5, r1, #0
    52a0:	2b00      	cmp	r3, #0
    52a2:	db5c      	blt.n	535e <__kernel_rem_pio2+0x55e>
    52a4:	990d      	ldr	r1, [sp, #52]	; 0x34
    52a6:	009e      	lsls	r6, r3, #2
    52a8:	00db      	lsls	r3, r3, #3
    52aa:	a812      	add	r0, sp, #72	; 0x48
    52ac:	469b      	mov	r11, r3
    52ae:	1c0f      	adds	r7, r1, #0
    52b0:	1986      	adds	r6, r0, r6
    52b2:	445f      	add	r7, r11
    52b4:	6830      	ldr	r0, [r6, #0]
    52b6:	f7fe f9d3 	bl	3660 <__aeabi_i2d>
    52ba:	1c22      	adds	r2, r4, #0
    52bc:	1c2b      	adds	r3, r5, #0
    52be:	f7fd ff0b 	bl	30d8 <__aeabi_dmul>
    52c2:	4a4b      	ldr	r2, [pc, #300]	; (53f0 <__kernel_rem_pio2+0x5f0>)
    52c4:	4b4b      	ldr	r3, [pc, #300]	; (53f4 <__kernel_rem_pio2+0x5f4>)
    52c6:	6038      	str	r0, [r7, #0]
    52c8:	6079      	str	r1, [r7, #4]
    52ca:	1c20      	adds	r0, r4, #0
    52cc:	1c29      	adds	r1, r5, #0
    52ce:	f7fd ff03 	bl	30d8 <__aeabi_dmul>
    52d2:	9a08      	ldr	r2, [sp, #32]
    52d4:	3e04      	subs	r6, #4
    52d6:	1c04      	adds	r4, r0, #0
    52d8:	1c0d      	adds	r5, r1, #0
    52da:	3f08      	subs	r7, #8
    52dc:	4296      	cmp	r6, r2
    52de:	d1e9      	bne.n	52b4 <__kernel_rem_pio2+0x4b4>
    52e0:	9b0d      	ldr	r3, [sp, #52]	; 0x34
    52e2:	4645      	mov	r5, r8
    52e4:	1c1c      	adds	r4, r3, #0
    52e6:	445c      	add	r4, r11
    52e8:	9a0c      	ldr	r2, [sp, #48]	; 0x30
    52ea:	9404      	str	r4, [sp, #16]
    52ec:	3501      	adds	r5, #1
    52ee:	2000      	movs	r0, #0
    52f0:	a94e      	add	r1, sp, #312	; 0x138
    52f2:	4644      	mov	r4, r8
    52f4:	9506      	str	r5, [sp, #24]
    52f6:	4683      	mov	r11, r0
    52f8:	4689      	mov	r9, r1
    52fa:	4692      	mov	r10, r2
    52fc:	940a      	str	r4, [sp, #40]	; 0x28
    52fe:	4650      	mov	r0, r10
    5300:	2800      	cmp	r0, #0
    5302:	db60      	blt.n	53c6 <__kernel_rem_pio2+0x5c6>
    5304:	493c      	ldr	r1, [pc, #240]	; (53f8 <__kernel_rem_pio2+0x5f8>)
    5306:	9f04      	ldr	r7, [sp, #16]
    5308:	4688      	mov	r8, r1
    530a:	4d32      	ldr	r5, [pc, #200]	; (53d4 <__kernel_rem_pio2+0x5d4>)
    530c:	4c30      	ldr	r4, [pc, #192]	; (53d0 <__kernel_rem_pio2+0x5d0>)
    530e:	2600      	movs	r6, #0
    5310:	e004      	b.n	531c <__kernel_rem_pio2+0x51c>
    5312:	2308      	movs	r3, #8
    5314:	4498      	add	r8, r3
    5316:	3708      	adds	r7, #8
    5318:	455e      	cmp	r6, r11
    531a:	dc11      	bgt.n	5340 <__kernel_rem_pio2+0x540>
    531c:	4642      	mov	r2, r8
    531e:	6810      	ldr	r0, [r2, #0]
    5320:	6851      	ldr	r1, [r2, #4]
    5322:	683a      	ldr	r2, [r7, #0]
    5324:	687b      	ldr	r3, [r7, #4]
    5326:	f7fd fed7 	bl	30d8 <__aeabi_dmul>
    532a:	1c02      	adds	r2, r0, #0
    532c:	1c0b      	adds	r3, r1, #0
    532e:	1c20      	adds	r0, r4, #0
    5330:	1c29      	adds	r1, r5, #0
    5332:	f000 fc13 	bl	5b5c <__aeabi_dadd>
    5336:	3601      	adds	r6, #1
    5338:	1c04      	adds	r4, r0, #0
    533a:	1c0d      	adds	r5, r1, #0
    533c:	45b2      	cmp	r10, r6
    533e:	dae8      	bge.n	5312 <__kernel_rem_pio2+0x512>
    5340:	4658      	mov	r0, r11
    5342:	00c3      	lsls	r3, r0, #3
    5344:	444b      	add	r3, r9
    5346:	601c      	str	r4, [r3, #0]
    5348:	605d      	str	r5, [r3, #4]
    534a:	9c04      	ldr	r4, [sp, #16]
    534c:	2101      	movs	r1, #1
    534e:	9d06      	ldr	r5, [sp, #24]
    5350:	3c08      	subs	r4, #8
    5352:	448b      	add	r11, r1
    5354:	9404      	str	r4, [sp, #16]
    5356:	45ab      	cmp	r11, r5
    5358:	d1d1      	bne.n	52fe <__kernel_rem_pio2+0x4fe>
    535a:	9a0a      	ldr	r2, [sp, #40]	; 0x28
    535c:	4690      	mov	r8, r2
    535e:	9ca8      	ldr	r4, [sp, #672]	; 0x2a0
    5360:	2c02      	cmp	r4, #2
    5362:	dc4b      	bgt.n	53fc <__kernel_rem_pio2+0x5fc>
    5364:	2c00      	cmp	r4, #0
    5366:	dd00      	ble.n	536a <__kernel_rem_pio2+0x56a>
    5368:	e0df      	b.n	552a <__kernel_rem_pio2+0x72a>
    536a:	d120      	bne.n	53ae <__kernel_rem_pio2+0x5ae>
    536c:	4643      	mov	r3, r8
    536e:	2b00      	cmp	r3, #0
    5370:	da00      	bge.n	5374 <__kernel_rem_pio2+0x574>
    5372:	e15a      	b.n	562a <__kernel_rem_pio2+0x82a>
    5374:	00dc      	lsls	r4, r3, #3
    5376:	ad4e      	add	r5, sp, #312	; 0x138
    5378:	192c      	adds	r4, r5, r4
    537a:	ae4c      	add	r6, sp, #304	; 0x130
    537c:	2500      	movs	r5, #0
    537e:	2300      	movs	r3, #0
    5380:	1c28      	adds	r0, r5, #0
    5382:	1c19      	adds	r1, r3, #0
    5384:	6822      	ldr	r2, [r4, #0]
    5386:	6863      	ldr	r3, [r4, #4]
    5388:	f000 fbe8 	bl	5b5c <__aeabi_dadd>
    538c:	3c08      	subs	r4, #8
    538e:	1c05      	adds	r5, r0, #0
    5390:	1c0b      	adds	r3, r1, #0
    5392:	42b4      	cmp	r4, r6
    5394:	d1f4      	bne.n	5380 <__kernel_rem_pio2+0x580>
    5396:	9c09      	ldr	r4, [sp, #36]	; 0x24
    5398:	1c19      	adds	r1, r3, #0
    539a:	2c00      	cmp	r4, #0
    539c:	d002      	beq.n	53a4 <__kernel_rem_pio2+0x5a4>
    539e:	2080      	movs	r0, #128	; 0x80
    53a0:	0600      	lsls	r0, r0, #24
    53a2:	1819      	adds	r1, r3, r0
    53a4:	9c0e      	ldr	r4, [sp, #56]	; 0x38
    53a6:	1c2a      	adds	r2, r5, #0
    53a8:	1c0b      	adds	r3, r1, #0
    53aa:	6022      	str	r2, [r4, #0]
    53ac:	6063      	str	r3, [r4, #4]
    53ae:	9c0f      	ldr	r4, [sp, #60]	; 0x3c
    53b0:	2007      	movs	r0, #7
    53b2:	4020      	ands	r0, r4
    53b4:	239f      	movs	r3, #159	; 0x9f
    53b6:	009b      	lsls	r3, r3, #2
    53b8:	449d      	add	sp, r3
    53ba:	bc3c      	pop	{r2, r3, r4, r5}
    53bc:	4690      	mov	r8, r2
    53be:	4699      	mov	r9, r3
    53c0:	46a2      	mov	r10, r4
    53c2:	46ab      	mov	r11, r5
    53c4:	bdf0      	pop	{r4, r5, r6, r7, pc}
    53c6:	4d03      	ldr	r5, [pc, #12]	; (53d4 <__kernel_rem_pio2+0x5d4>)
    53c8:	4c01      	ldr	r4, [pc, #4]	; (53d0 <__kernel_rem_pio2+0x5d0>)
    53ca:	e7b9      	b.n	5340 <__kernel_rem_pio2+0x540>
    53cc:	46c0      	nop			; (mov r8, r8)
    53ce:	46c0      	nop			; (mov r8, r8)
	...
    53dc:	3ff00000 	.word	0x3ff00000
    53e0:	00000000 	.word	0x00000000
    53e4:	3fe00000 	.word	0x3fe00000
    53e8:	00000000 	.word	0x00000000
    53ec:	41700000 	.word	0x41700000
    53f0:	00000000 	.word	0x00000000
    53f4:	3e700000 	.word	0x3e700000
    53f8:	00007228 	.word	0x00007228
    53fc:	9da8      	ldr	r5, [sp, #672]	; 0x2a0
    53fe:	2d03      	cmp	r5, #3
    5400:	d1d5      	bne.n	53ae <__kernel_rem_pio2+0x5ae>
    5402:	4640      	mov	r0, r8
    5404:	2800      	cmp	r0, #0
    5406:	dc00      	bgt.n	540a <__kernel_rem_pio2+0x60a>
    5408:	e10a      	b.n	5620 <__kernel_rem_pio2+0x820>
    540a:	4640      	mov	r0, r8
    540c:	ad4e      	add	r5, sp, #312	; 0x138
    540e:	00c0      	lsls	r0, r0, #3
    5410:	4683      	mov	r11, r0
    5412:	1c2b      	adds	r3, r5, #0
    5414:	445b      	add	r3, r11
    5416:	681e      	ldr	r6, [r3, #0]
    5418:	685f      	ldr	r7, [r3, #4]
    541a:	4643      	mov	r3, r8
    541c:	3b01      	subs	r3, #1
    541e:	46a9      	mov	r9, r5
    5420:	00db      	lsls	r3, r3, #3
    5422:	444b      	add	r3, r9
    5424:	ac4c      	add	r4, sp, #304	; 0x130
    5426:	9304      	str	r3, [sp, #16]
    5428:	940a      	str	r4, [sp, #40]	; 0x28
    542a:	469a      	mov	r10, r3
    542c:	e001      	b.n	5432 <__kernel_rem_pio2+0x632>
    542e:	1c26      	adds	r6, r4, #0
    5430:	1c2f      	adds	r7, r5, #0
    5432:	4655      	mov	r5, r10
    5434:	682c      	ldr	r4, [r5, #0]
    5436:	686d      	ldr	r5, [r5, #4]
    5438:	1c32      	adds	r2, r6, #0
    543a:	1c20      	adds	r0, r4, #0
    543c:	1c29      	adds	r1, r5, #0
    543e:	1c3b      	adds	r3, r7, #0
    5440:	9406      	str	r4, [sp, #24]
    5442:	9507      	str	r5, [sp, #28]
    5444:	f000 fb8a 	bl	5b5c <__aeabi_dadd>
    5448:	1c04      	adds	r4, r0, #0
    544a:	1c0d      	adds	r5, r1, #0
    544c:	1c22      	adds	r2, r4, #0
    544e:	1c2b      	adds	r3, r5, #0
    5450:	9806      	ldr	r0, [sp, #24]
    5452:	9907      	ldr	r1, [sp, #28]
    5454:	f000 ffe4 	bl	6420 <__aeabi_dsub>
    5458:	1c32      	adds	r2, r6, #0
    545a:	1c3b      	adds	r3, r7, #0
    545c:	f000 fb7e 	bl	5b5c <__aeabi_dadd>
    5460:	4652      	mov	r2, r10
    5462:	6090      	str	r0, [r2, #8]
    5464:	60d1      	str	r1, [r2, #12]
    5466:	2008      	movs	r0, #8
    5468:	4240      	negs	r0, r0
    546a:	990a      	ldr	r1, [sp, #40]	; 0x28
    546c:	4482      	add	r10, r0
    546e:	6014      	str	r4, [r2, #0]
    5470:	6055      	str	r5, [r2, #4]
    5472:	458a      	cmp	r10, r1
    5474:	d1db      	bne.n	542e <__kernel_rem_pio2+0x62e>
    5476:	4642      	mov	r2, r8
    5478:	2700      	movs	r7, #0
    547a:	2600      	movs	r6, #0
    547c:	2a01      	cmp	r2, #1
    547e:	dd3a      	ble.n	54f6 <__kernel_rem_pio2+0x6f6>
    5480:	464b      	mov	r3, r9
    5482:	9d04      	ldr	r5, [sp, #16]
    5484:	445b      	add	r3, r11
    5486:	681e      	ldr	r6, [r3, #0]
    5488:	685f      	ldr	r7, [r3, #4]
    548a:	46a8      	mov	r8, r5
    548c:	e001      	b.n	5492 <__kernel_rem_pio2+0x692>
    548e:	1c26      	adds	r6, r4, #0
    5490:	1c2f      	adds	r7, r5, #0
    5492:	4645      	mov	r5, r8
    5494:	682c      	ldr	r4, [r5, #0]
    5496:	686d      	ldr	r5, [r5, #4]
    5498:	1c32      	adds	r2, r6, #0
    549a:	1c20      	adds	r0, r4, #0
    549c:	1c29      	adds	r1, r5, #0
    549e:	1c3b      	adds	r3, r7, #0
    54a0:	9404      	str	r4, [sp, #16]
    54a2:	9505      	str	r5, [sp, #20]
    54a4:	f000 fb5a 	bl	5b5c <__aeabi_dadd>
    54a8:	1c04      	adds	r4, r0, #0
    54aa:	1c0d      	adds	r5, r1, #0
    54ac:	1c22      	adds	r2, r4, #0
    54ae:	1c2b      	adds	r3, r5, #0
    54b0:	9804      	ldr	r0, [sp, #16]
    54b2:	9905      	ldr	r1, [sp, #20]
    54b4:	f000 ffb4 	bl	6420 <__aeabi_dsub>
    54b8:	1c32      	adds	r2, r6, #0
    54ba:	1c3b      	adds	r3, r7, #0
    54bc:	f000 fb4e 	bl	5b5c <__aeabi_dadd>
    54c0:	4642      	mov	r2, r8
    54c2:	6090      	str	r0, [r2, #8]
    54c4:	60d1      	str	r1, [r2, #12]
    54c6:	2008      	movs	r0, #8
    54c8:	4240      	negs	r0, r0
    54ca:	4480      	add	r8, r0
    54cc:	6014      	str	r4, [r2, #0]
    54ce:	6055      	str	r5, [r2, #4]
    54d0:	45c1      	cmp	r9, r8
    54d2:	d1dc      	bne.n	548e <__kernel_rem_pio2+0x68e>
    54d4:	464c      	mov	r4, r9
    54d6:	464d      	mov	r5, r9
    54d8:	445c      	add	r4, r11
    54da:	3508      	adds	r5, #8
    54dc:	2700      	movs	r7, #0
    54de:	2600      	movs	r6, #0
    54e0:	1c38      	adds	r0, r7, #0
    54e2:	1c31      	adds	r1, r6, #0
    54e4:	6822      	ldr	r2, [r4, #0]
    54e6:	6863      	ldr	r3, [r4, #4]
    54e8:	f000 fb38 	bl	5b5c <__aeabi_dadd>
    54ec:	3c08      	subs	r4, #8
    54ee:	1c07      	adds	r7, r0, #0
    54f0:	1c0e      	adds	r6, r1, #0
    54f2:	42ac      	cmp	r4, r5
    54f4:	d1f4      	bne.n	54e0 <__kernel_rem_pio2+0x6e0>
    54f6:	9c09      	ldr	r4, [sp, #36]	; 0x24
    54f8:	2c00      	cmp	r4, #0
    54fa:	d100      	bne.n	54fe <__kernel_rem_pio2+0x6fe>
    54fc:	e081      	b.n	5602 <__kernel_rem_pio2+0x802>
    54fe:	9c0e      	ldr	r4, [sp, #56]	; 0x38
    5500:	984e      	ldr	r0, [sp, #312]	; 0x138
    5502:	464d      	mov	r5, r9
    5504:	6020      	str	r0, [r4, #0]
    5506:	686d      	ldr	r5, [r5, #4]
    5508:	2080      	movs	r0, #128	; 0x80
    550a:	0600      	lsls	r0, r0, #24
    550c:	182b      	adds	r3, r5, r0
    550e:	4649      	mov	r1, r9
    5510:	6063      	str	r3, [r4, #4]
    5512:	4648      	mov	r0, r9
    5514:	68cb      	ldr	r3, [r1, #12]
    5516:	2280      	movs	r2, #128	; 0x80
    5518:	0612      	lsls	r2, r2, #24
    551a:	6880      	ldr	r0, [r0, #8]
    551c:	189b      	adds	r3, r3, r2
    551e:	18b6      	adds	r6, r6, r2
    5520:	60a0      	str	r0, [r4, #8]
    5522:	60e3      	str	r3, [r4, #12]
    5524:	6127      	str	r7, [r4, #16]
    5526:	6166      	str	r6, [r4, #20]
    5528:	e741      	b.n	53ae <__kernel_rem_pio2+0x5ae>
    552a:	4642      	mov	r2, r8
    552c:	2500      	movs	r5, #0
    552e:	2400      	movs	r4, #0
    5530:	2a00      	cmp	r2, #0
    5532:	db10      	blt.n	5556 <__kernel_rem_pio2+0x756>
    5534:	00d3      	lsls	r3, r2, #3
    5536:	a84e      	add	r0, sp, #312	; 0x138
    5538:	18c6      	adds	r6, r0, r3
    553a:	af4c      	add	r7, sp, #304	; 0x130
    553c:	2500      	movs	r5, #0
    553e:	2400      	movs	r4, #0
    5540:	1c28      	adds	r0, r5, #0
    5542:	1c21      	adds	r1, r4, #0
    5544:	6832      	ldr	r2, [r6, #0]
    5546:	6873      	ldr	r3, [r6, #4]
    5548:	f000 fb08 	bl	5b5c <__aeabi_dadd>
    554c:	3e08      	subs	r6, #8
    554e:	1c05      	adds	r5, r0, #0
    5550:	1c0c      	adds	r4, r1, #0
    5552:	42be      	cmp	r6, r7
    5554:	d1f4      	bne.n	5540 <__kernel_rem_pio2+0x740>
    5556:	9a09      	ldr	r2, [sp, #36]	; 0x24
    5558:	1c21      	adds	r1, r4, #0
    555a:	2a00      	cmp	r2, #0
    555c:	d002      	beq.n	5564 <__kernel_rem_pio2+0x764>
    555e:	2380      	movs	r3, #128	; 0x80
    5560:	061b      	lsls	r3, r3, #24
    5562:	18e1      	adds	r1, r4, r3
    5564:	980e      	ldr	r0, [sp, #56]	; 0x38
    5566:	1c0b      	adds	r3, r1, #0
    5568:	1c2a      	adds	r2, r5, #0
    556a:	6002      	str	r2, [r0, #0]
    556c:	6043      	str	r3, [r0, #4]
    556e:	984e      	ldr	r0, [sp, #312]	; 0x138
    5570:	994f      	ldr	r1, [sp, #316]	; 0x13c
    5572:	1c2a      	adds	r2, r5, #0
    5574:	1c23      	adds	r3, r4, #0
    5576:	f000 ff53 	bl	6420 <__aeabi_dsub>
    557a:	4642      	mov	r2, r8
    557c:	2a00      	cmp	r2, #0
    557e:	dd07      	ble.n	5590 <__kernel_rem_pio2+0x790>
    5580:	ac50      	add	r4, sp, #320	; 0x140
    5582:	00d5      	lsls	r5, r2, #3
    5584:	1965      	adds	r5, r4, r5
    5586:	cc0c      	ldmia	r4!, {r2, r3}
    5588:	f000 fae8 	bl	5b5c <__aeabi_dadd>
    558c:	42ac      	cmp	r4, r5
    558e:	d1fa      	bne.n	5586 <__kernel_rem_pio2+0x786>
    5590:	9c09      	ldr	r4, [sp, #36]	; 0x24
    5592:	2c00      	cmp	r4, #0
    5594:	d002      	beq.n	559c <__kernel_rem_pio2+0x79c>
    5596:	2580      	movs	r5, #128	; 0x80
    5598:	062d      	lsls	r5, r5, #24
    559a:	1949      	adds	r1, r1, r5
    559c:	9c0e      	ldr	r4, [sp, #56]	; 0x38
    559e:	1c02      	adds	r2, r0, #0
    55a0:	1c0b      	adds	r3, r1, #0
    55a2:	60a2      	str	r2, [r4, #8]
    55a4:	60e3      	str	r3, [r4, #12]
    55a6:	e702      	b.n	53ae <__kernel_rem_pio2+0x5ae>
    55a8:	9d0b      	ldr	r5, [sp, #44]	; 0x2c
    55aa:	4680      	mov	r8, r0
    55ac:	a812      	add	r0, sp, #72	; 0x48
    55ae:	5843      	ldr	r3, [r0, r1]
    55b0:	464c      	mov	r4, r9
    55b2:	3d18      	subs	r5, #24
    55b4:	940f      	str	r4, [sp, #60]	; 0x3c
    55b6:	950b      	str	r5, [sp, #44]	; 0x2c
    55b8:	2b00      	cmp	r3, #0
    55ba:	d000      	beq.n	55be <__kernel_rem_pio2+0x7be>
    55bc:	e668      	b.n	5290 <__kernel_rem_pio2+0x490>
    55be:	4642      	mov	r2, r8
    55c0:	3a01      	subs	r2, #1
    55c2:	0093      	lsls	r3, r2, #2
    55c4:	18c3      	adds	r3, r0, r3
    55c6:	1c29      	adds	r1, r5, #0
    55c8:	e000      	b.n	55cc <__kernel_rem_pio2+0x7cc>
    55ca:	3a01      	subs	r2, #1
    55cc:	3b04      	subs	r3, #4
    55ce:	685d      	ldr	r5, [r3, #4]
    55d0:	3918      	subs	r1, #24
    55d2:	2d00      	cmp	r5, #0
    55d4:	d0f9      	beq.n	55ca <__kernel_rem_pio2+0x7ca>
    55d6:	4690      	mov	r8, r2
    55d8:	910b      	str	r1, [sp, #44]	; 0x2c
    55da:	e659      	b.n	5290 <__kernel_rem_pio2+0x490>
    55dc:	2201      	movs	r2, #1
    55de:	e58d      	b.n	50fc <__kernel_rem_pio2+0x2fc>
    55e0:	9d10      	ldr	r5, [sp, #64]	; 0x40
    55e2:	ac76      	add	r4, sp, #472	; 0x1d8
    55e4:	00ed      	lsls	r5, r5, #3
    55e6:	46ab      	mov	r11, r5
    55e8:	940d      	str	r4, [sp, #52]	; 0x34
    55ea:	e483      	b.n	4ef4 <__kernel_rem_pio2+0xf4>
    55ec:	980a      	ldr	r0, [sp, #40]	; 0x28
    55ee:	1c29      	adds	r1, r5, #0
    55f0:	0086      	lsls	r6, r0, #2
    55f2:	1c20      	adds	r0, r4, #0
    55f4:	f7fe f800 	bl	35f8 <__aeabi_d2iz>
    55f8:	9a0a      	ldr	r2, [sp, #40]	; 0x28
    55fa:	a912      	add	r1, sp, #72	; 0x48
    55fc:	5188      	str	r0, [r1, r6]
    55fe:	4690      	mov	r8, r2
    5600:	e646      	b.n	5290 <__kernel_rem_pio2+0x490>
    5602:	9c0e      	ldr	r4, [sp, #56]	; 0x38
    5604:	984e      	ldr	r0, [sp, #312]	; 0x138
    5606:	994f      	ldr	r1, [sp, #316]	; 0x13c
    5608:	1c3a      	adds	r2, r7, #0
    560a:	6020      	str	r0, [r4, #0]
    560c:	6061      	str	r1, [r4, #4]
    560e:	1c33      	adds	r3, r6, #0
    5610:	4649      	mov	r1, r9
    5612:	6888      	ldr	r0, [r1, #8]
    5614:	68c9      	ldr	r1, [r1, #12]
    5616:	6122      	str	r2, [r4, #16]
    5618:	6163      	str	r3, [r4, #20]
    561a:	60a0      	str	r0, [r4, #8]
    561c:	60e1      	str	r1, [r4, #12]
    561e:	e6c6      	b.n	53ae <__kernel_rem_pio2+0x5ae>
    5620:	a94e      	add	r1, sp, #312	; 0x138
    5622:	2700      	movs	r7, #0
    5624:	2600      	movs	r6, #0
    5626:	4689      	mov	r9, r1
    5628:	e765      	b.n	54f6 <__kernel_rem_pio2+0x6f6>
    562a:	2500      	movs	r5, #0
    562c:	2300      	movs	r3, #0
    562e:	e6b2      	b.n	5396 <__kernel_rem_pio2+0x596>

00005630 <__kernel_sin>:
    5630:	b5f0      	push	{r4, r5, r6, r7, lr}
    5632:	b089      	sub	sp, #36	; 0x24
    5634:	9204      	str	r2, [sp, #16]
    5636:	9305      	str	r3, [sp, #20]
    5638:	4b51      	ldr	r3, [pc, #324]	; (5780 <__kernel_sin+0x150>)
    563a:	004a      	lsls	r2, r1, #1
    563c:	1c06      	adds	r6, r0, #0
    563e:	1c0f      	adds	r7, r1, #0
    5640:	0852      	lsrs	r2, r2, #1
    5642:	429a      	cmp	r2, r3
    5644:	dc06      	bgt.n	5654 <__kernel_sin+0x24>
    5646:	f7fd ffd7 	bl	35f8 <__aeabi_d2iz>
    564a:	1c39      	adds	r1, r7, #0
    564c:	1c03      	adds	r3, r0, #0
    564e:	1c30      	adds	r0, r6, #0
    5650:	2b00      	cmp	r3, #0
    5652:	d064      	beq.n	571e <__kernel_sin+0xee>
    5654:	1c32      	adds	r2, r6, #0
    5656:	1c3b      	adds	r3, r7, #0
    5658:	1c30      	adds	r0, r6, #0
    565a:	1c39      	adds	r1, r7, #0
    565c:	f7fd fd3c 	bl	30d8 <__aeabi_dmul>
    5660:	1c32      	adds	r2, r6, #0
    5662:	1c3b      	adds	r3, r7, #0
    5664:	1c04      	adds	r4, r0, #0
    5666:	1c0d      	adds	r5, r1, #0
    5668:	f7fd fd36 	bl	30d8 <__aeabi_dmul>
    566c:	4b37      	ldr	r3, [pc, #220]	; (574c <__kernel_sin+0x11c>)
    566e:	4a36      	ldr	r2, [pc, #216]	; (5748 <__kernel_sin+0x118>)
    5670:	9002      	str	r0, [sp, #8]
    5672:	9103      	str	r1, [sp, #12]
    5674:	1c20      	adds	r0, r4, #0
    5676:	1c29      	adds	r1, r5, #0
    5678:	f7fd fd2e 	bl	30d8 <__aeabi_dmul>
    567c:	4a34      	ldr	r2, [pc, #208]	; (5750 <__kernel_sin+0x120>)
    567e:	4b35      	ldr	r3, [pc, #212]	; (5754 <__kernel_sin+0x124>)
    5680:	f000 fece 	bl	6420 <__aeabi_dsub>
    5684:	1c22      	adds	r2, r4, #0
    5686:	1c2b      	adds	r3, r5, #0
    5688:	f7fd fd26 	bl	30d8 <__aeabi_dmul>
    568c:	4a32      	ldr	r2, [pc, #200]	; (5758 <__kernel_sin+0x128>)
    568e:	4b33      	ldr	r3, [pc, #204]	; (575c <__kernel_sin+0x12c>)
    5690:	f000 fa64 	bl	5b5c <__aeabi_dadd>
    5694:	1c22      	adds	r2, r4, #0
    5696:	1c2b      	adds	r3, r5, #0
    5698:	f7fd fd1e 	bl	30d8 <__aeabi_dmul>
    569c:	4a30      	ldr	r2, [pc, #192]	; (5760 <__kernel_sin+0x130>)
    569e:	4b31      	ldr	r3, [pc, #196]	; (5764 <__kernel_sin+0x134>)
    56a0:	f000 febe 	bl	6420 <__aeabi_dsub>
    56a4:	1c22      	adds	r2, r4, #0
    56a6:	1c2b      	adds	r3, r5, #0
    56a8:	f7fd fd16 	bl	30d8 <__aeabi_dmul>
    56ac:	4a2e      	ldr	r2, [pc, #184]	; (5768 <__kernel_sin+0x138>)
    56ae:	4b2f      	ldr	r3, [pc, #188]	; (576c <__kernel_sin+0x13c>)
    56b0:	f000 fa54 	bl	5b5c <__aeabi_dadd>
    56b4:	9b0e      	ldr	r3, [sp, #56]	; 0x38
    56b6:	9006      	str	r0, [sp, #24]
    56b8:	9107      	str	r1, [sp, #28]
    56ba:	2b00      	cmp	r3, #0
    56bc:	d031      	beq.n	5722 <__kernel_sin+0xf2>
    56be:	4a2c      	ldr	r2, [pc, #176]	; (5770 <__kernel_sin+0x140>)
    56c0:	4b2c      	ldr	r3, [pc, #176]	; (5774 <__kernel_sin+0x144>)
    56c2:	9804      	ldr	r0, [sp, #16]
    56c4:	9905      	ldr	r1, [sp, #20]
    56c6:	f7fd fd07 	bl	30d8 <__aeabi_dmul>
    56ca:	9a06      	ldr	r2, [sp, #24]
    56cc:	9b07      	ldr	r3, [sp, #28]
    56ce:	9000      	str	r0, [sp, #0]
    56d0:	9101      	str	r1, [sp, #4]
    56d2:	9802      	ldr	r0, [sp, #8]
    56d4:	9903      	ldr	r1, [sp, #12]
    56d6:	f7fd fcff 	bl	30d8 <__aeabi_dmul>
    56da:	1c02      	adds	r2, r0, #0
    56dc:	1c0b      	adds	r3, r1, #0
    56de:	9800      	ldr	r0, [sp, #0]
    56e0:	9901      	ldr	r1, [sp, #4]
    56e2:	f000 fe9d 	bl	6420 <__aeabi_dsub>
    56e6:	1c22      	adds	r2, r4, #0
    56e8:	1c2b      	adds	r3, r5, #0
    56ea:	f7fd fcf5 	bl	30d8 <__aeabi_dmul>
    56ee:	9a04      	ldr	r2, [sp, #16]
    56f0:	9b05      	ldr	r3, [sp, #20]
    56f2:	f000 fe95 	bl	6420 <__aeabi_dsub>
    56f6:	4a20      	ldr	r2, [pc, #128]	; (5778 <__kernel_sin+0x148>)
    56f8:	4b20      	ldr	r3, [pc, #128]	; (577c <__kernel_sin+0x14c>)
    56fa:	1c04      	adds	r4, r0, #0
    56fc:	1c0d      	adds	r5, r1, #0
    56fe:	9802      	ldr	r0, [sp, #8]
    5700:	9903      	ldr	r1, [sp, #12]
    5702:	f7fd fce9 	bl	30d8 <__aeabi_dmul>
    5706:	1c02      	adds	r2, r0, #0
    5708:	1c0b      	adds	r3, r1, #0
    570a:	1c20      	adds	r0, r4, #0
    570c:	1c29      	adds	r1, r5, #0
    570e:	f000 fa25 	bl	5b5c <__aeabi_dadd>
    5712:	1c02      	adds	r2, r0, #0
    5714:	1c0b      	adds	r3, r1, #0
    5716:	1c30      	adds	r0, r6, #0
    5718:	1c39      	adds	r1, r7, #0
    571a:	f000 fe81 	bl	6420 <__aeabi_dsub>
    571e:	b009      	add	sp, #36	; 0x24
    5720:	bdf0      	pop	{r4, r5, r6, r7, pc}
    5722:	9a06      	ldr	r2, [sp, #24]
    5724:	9b07      	ldr	r3, [sp, #28]
    5726:	1c20      	adds	r0, r4, #0
    5728:	1c29      	adds	r1, r5, #0
    572a:	f7fd fcd5 	bl	30d8 <__aeabi_dmul>
    572e:	4a12      	ldr	r2, [pc, #72]	; (5778 <__kernel_sin+0x148>)
    5730:	4b12      	ldr	r3, [pc, #72]	; (577c <__kernel_sin+0x14c>)
    5732:	f000 fe75 	bl	6420 <__aeabi_dsub>
    5736:	9a02      	ldr	r2, [sp, #8]
    5738:	9b03      	ldr	r3, [sp, #12]
    573a:	f7fd fccd 	bl	30d8 <__aeabi_dmul>
    573e:	1c32      	adds	r2, r6, #0
    5740:	1c3b      	adds	r3, r7, #0
    5742:	f000 fa0b 	bl	5b5c <__aeabi_dadd>
    5746:	e7ea      	b.n	571e <__kernel_sin+0xee>
    5748:	5acfd57c 	.word	0x5acfd57c
    574c:	3de5d93a 	.word	0x3de5d93a
    5750:	8a2b9ceb 	.word	0x8a2b9ceb
    5754:	3e5ae5e6 	.word	0x3e5ae5e6
    5758:	57b1fe7d 	.word	0x57b1fe7d
    575c:	3ec71de3 	.word	0x3ec71de3
    5760:	19c161d5 	.word	0x19c161d5
    5764:	3f2a01a0 	.word	0x3f2a01a0
    5768:	1110f8a6 	.word	0x1110f8a6
    576c:	3f811111 	.word	0x3f811111
    5770:	00000000 	.word	0x00000000
    5774:	3fe00000 	.word	0x3fe00000
    5778:	55555549 	.word	0x55555549
    577c:	3fc55555 	.word	0x3fc55555
    5780:	3e3fffff 	.word	0x3e3fffff
    5784:	46c0      	nop			; (mov r8, r8)
    5786:	46c0      	nop			; (mov r8, r8)

00005788 <fabs>:
    5788:	004b      	lsls	r3, r1, #1
    578a:	0859      	lsrs	r1, r3, #1
    578c:	4770      	bx	lr
    578e:	46c0      	nop			; (mov r8, r8)

00005790 <floor>:
    5790:	b5f0      	push	{r4, r5, r6, r7, lr}
    5792:	4656      	mov	r6, r10
    5794:	464d      	mov	r5, r9
    5796:	4644      	mov	r4, r8
    5798:	465f      	mov	r7, r11
    579a:	b4f0      	push	{r4, r5, r6, r7}
    579c:	4a52      	ldr	r2, [pc, #328]	; (58e8 <floor+0x158>)
    579e:	004f      	lsls	r7, r1, #1
    57a0:	0d7f      	lsrs	r7, r7, #21
    57a2:	b083      	sub	sp, #12
    57a4:	18be      	adds	r6, r7, r2
    57a6:	1c04      	adds	r4, r0, #0
    57a8:	1c0d      	adds	r5, r1, #0
    57aa:	4689      	mov	r9, r1
    57ac:	468a      	mov	r10, r1
    57ae:	4680      	mov	r8, r0
    57b0:	9701      	str	r7, [sp, #4]
    57b2:	2e13      	cmp	r6, #19
    57b4:	dc2a      	bgt.n	580c <floor+0x7c>
    57b6:	2e00      	cmp	r6, #0
    57b8:	db56      	blt.n	5868 <floor+0xd8>
    57ba:	4f4c      	ldr	r7, [pc, #304]	; (58ec <floor+0x15c>)
    57bc:	1c02      	adds	r2, r0, #0
    57be:	4137      	asrs	r7, r6
    57c0:	1c3b      	adds	r3, r7, #0
    57c2:	400b      	ands	r3, r1
    57c4:	4303      	orrs	r3, r0
    57c6:	469c      	mov	r12, r3
    57c8:	46bb      	mov	r11, r7
    57ca:	4667      	mov	r7, r12
    57cc:	1c0b      	adds	r3, r1, #0
    57ce:	2f00      	cmp	r7, #0
    57d0:	d013      	beq.n	57fa <floor+0x6a>
    57d2:	4b42      	ldr	r3, [pc, #264]	; (58dc <floor+0x14c>)
    57d4:	4a40      	ldr	r2, [pc, #256]	; (58d8 <floor+0x148>)
    57d6:	f000 f9c1 	bl	5b5c <__aeabi_dadd>
    57da:	4a41      	ldr	r2, [pc, #260]	; (58e0 <floor+0x150>)
    57dc:	4b41      	ldr	r3, [pc, #260]	; (58e4 <floor+0x154>)
    57de:	f000 f9a9 	bl	5b34 <__aeabi_dcmpgt>
    57e2:	2800      	cmp	r0, #0
    57e4:	d007      	beq.n	57f6 <floor+0x66>
    57e6:	2d00      	cmp	r5, #0
    57e8:	db4e      	blt.n	5888 <floor+0xf8>
    57ea:	4653      	mov	r3, r10
    57ec:	465f      	mov	r7, r11
    57ee:	43bb      	bics	r3, r7
    57f0:	2200      	movs	r2, #0
    57f2:	4699      	mov	r9, r3
    57f4:	4690      	mov	r8, r2
    57f6:	464b      	mov	r3, r9
    57f8:	4642      	mov	r2, r8
    57fa:	1c10      	adds	r0, r2, #0
    57fc:	1c19      	adds	r1, r3, #0
    57fe:	b003      	add	sp, #12
    5800:	bc3c      	pop	{r2, r3, r4, r5}
    5802:	4690      	mov	r8, r2
    5804:	4699      	mov	r9, r3
    5806:	46a2      	mov	r10, r4
    5808:	46ab      	mov	r11, r5
    580a:	bdf0      	pop	{r4, r5, r6, r7, pc}
    580c:	2e33      	cmp	r6, #51	; 0x33
    580e:	dd0b      	ble.n	5828 <floor+0x98>
    5810:	1c0b      	adds	r3, r1, #0
    5812:	2180      	movs	r1, #128	; 0x80
    5814:	1c02      	adds	r2, r0, #0
    5816:	00c9      	lsls	r1, r1, #3
    5818:	428e      	cmp	r6, r1
    581a:	d1ee      	bne.n	57fa <floor+0x6a>
    581c:	1c29      	adds	r1, r5, #0
    581e:	f000 f99d 	bl	5b5c <__aeabi_dadd>
    5822:	1c02      	adds	r2, r0, #0
    5824:	1c0b      	adds	r3, r1, #0
    5826:	e7e8      	b.n	57fa <floor+0x6a>
    5828:	9f01      	ldr	r7, [sp, #4]
    582a:	4a31      	ldr	r2, [pc, #196]	; (58f0 <floor+0x160>)
    582c:	18bb      	adds	r3, r7, r2
    582e:	2201      	movs	r2, #1
    5830:	4252      	negs	r2, r2
    5832:	40da      	lsrs	r2, r3
    5834:	4693      	mov	r11, r2
    5836:	465f      	mov	r7, r11
    5838:	1c02      	adds	r2, r0, #0
    583a:	1c0b      	adds	r3, r1, #0
    583c:	4207      	tst	r7, r0
    583e:	d0dc      	beq.n	57fa <floor+0x6a>
    5840:	4b26      	ldr	r3, [pc, #152]	; (58dc <floor+0x14c>)
    5842:	4a25      	ldr	r2, [pc, #148]	; (58d8 <floor+0x148>)
    5844:	f000 f98a 	bl	5b5c <__aeabi_dadd>
    5848:	4a25      	ldr	r2, [pc, #148]	; (58e0 <floor+0x150>)
    584a:	4b26      	ldr	r3, [pc, #152]	; (58e4 <floor+0x154>)
    584c:	f000 f972 	bl	5b34 <__aeabi_dcmpgt>
    5850:	2800      	cmp	r0, #0
    5852:	d0d0      	beq.n	57f6 <floor+0x66>
    5854:	2d00      	cmp	r5, #0
    5856:	db1d      	blt.n	5894 <floor+0x104>
    5858:	4642      	mov	r2, r8
    585a:	465b      	mov	r3, r11
    585c:	439a      	bics	r2, r3
    585e:	4690      	mov	r8, r2
    5860:	46d1      	mov	r9, r10
    5862:	464b      	mov	r3, r9
    5864:	4642      	mov	r2, r8
    5866:	e7c8      	b.n	57fa <floor+0x6a>
    5868:	4b1c      	ldr	r3, [pc, #112]	; (58dc <floor+0x14c>)
    586a:	4a1b      	ldr	r2, [pc, #108]	; (58d8 <floor+0x148>)
    586c:	f000 f976 	bl	5b5c <__aeabi_dadd>
    5870:	4a1b      	ldr	r2, [pc, #108]	; (58e0 <floor+0x150>)
    5872:	4b1c      	ldr	r3, [pc, #112]	; (58e4 <floor+0x154>)
    5874:	f000 f95e 	bl	5b34 <__aeabi_dcmpgt>
    5878:	2800      	cmp	r0, #0
    587a:	d0bc      	beq.n	57f6 <floor+0x66>
    587c:	2d00      	cmp	r5, #0
    587e:	db17      	blt.n	58b0 <floor+0x120>
    5880:	2700      	movs	r7, #0
    5882:	46b8      	mov	r8, r7
    5884:	46b9      	mov	r9, r7
    5886:	e7b6      	b.n	57f6 <floor+0x66>
    5888:	2380      	movs	r3, #128	; 0x80
    588a:	035b      	lsls	r3, r3, #13
    588c:	4133      	asrs	r3, r6
    588e:	195e      	adds	r6, r3, r5
    5890:	46b2      	mov	r10, r6
    5892:	e7aa      	b.n	57ea <floor+0x5a>
    5894:	2e14      	cmp	r6, #20
    5896:	d019      	beq.n	58cc <floor+0x13c>
    5898:	4b16      	ldr	r3, [pc, #88]	; (58f4 <floor+0x164>)
    589a:	9a01      	ldr	r2, [sp, #4]
    589c:	1a9f      	subs	r7, r3, r2
    589e:	2301      	movs	r3, #1
    58a0:	40bb      	lsls	r3, r7
    58a2:	191b      	adds	r3, r3, r4
    58a4:	429c      	cmp	r4, r3
    58a6:	d90f      	bls.n	58c8 <floor+0x138>
    58a8:	1c6f      	adds	r7, r5, #1
    58aa:	46ba      	mov	r10, r7
    58ac:	4698      	mov	r8, r3
    58ae:	e7d3      	b.n	5858 <floor+0xc8>
    58b0:	006b      	lsls	r3, r5, #1
    58b2:	085b      	lsrs	r3, r3, #1
    58b4:	431c      	orrs	r4, r3
    58b6:	d102      	bne.n	58be <floor+0x12e>
    58b8:	2700      	movs	r7, #0
    58ba:	46b8      	mov	r8, r7
    58bc:	e79b      	b.n	57f6 <floor+0x66>
    58be:	4f0e      	ldr	r7, [pc, #56]	; (58f8 <floor+0x168>)
    58c0:	2300      	movs	r3, #0
    58c2:	4698      	mov	r8, r3
    58c4:	46b9      	mov	r9, r7
    58c6:	e796      	b.n	57f6 <floor+0x66>
    58c8:	4698      	mov	r8, r3
    58ca:	e7c5      	b.n	5858 <floor+0xc8>
    58cc:	1c6b      	adds	r3, r5, #1
    58ce:	469a      	mov	r10, r3
    58d0:	e7c2      	b.n	5858 <floor+0xc8>
    58d2:	46c0      	nop			; (mov r8, r8)
    58d4:	46c0      	nop			; (mov r8, r8)
    58d6:	46c0      	nop			; (mov r8, r8)
    58d8:	8800759c 	.word	0x8800759c
    58dc:	7e37e43c 	.word	0x7e37e43c
	...
    58e8:	fffffc01 	.word	0xfffffc01
    58ec:	000fffff 	.word	0x000fffff
    58f0:	fffffbed 	.word	0xfffffbed
    58f4:	00000433 	.word	0x00000433
    58f8:	bff00000 	.word	0xbff00000
    58fc:	46c0      	nop			; (mov r8, r8)
    58fe:	46c0      	nop			; (mov r8, r8)

00005900 <scalbn>:
    5900:	b5f8      	push	{r3, r4, r5, r6, r7, lr}
    5902:	4e3d      	ldr	r6, [pc, #244]	; (59f8 <scalbn+0xf8>)
    5904:	1c17      	adds	r7, r2, #0
    5906:	1c33      	adds	r3, r6, #0
    5908:	400b      	ands	r3, r1
    590a:	1c04      	adds	r4, r0, #0
    590c:	1c0d      	adds	r5, r1, #0
    590e:	1c0a      	adds	r2, r1, #0
    5910:	151b      	asrs	r3, r3, #20
    5912:	d125      	bne.n	5960 <scalbn+0x60>
    5914:	004b      	lsls	r3, r1, #1
    5916:	085b      	lsrs	r3, r3, #1
    5918:	4318      	orrs	r0, r3
    591a:	d01e      	beq.n	595a <scalbn+0x5a>
    591c:	1c20      	adds	r0, r4, #0
    591e:	1c29      	adds	r1, r5, #0
    5920:	4b2e      	ldr	r3, [pc, #184]	; (59dc <scalbn+0xdc>)
    5922:	4a2d      	ldr	r2, [pc, #180]	; (59d8 <scalbn+0xd8>)
    5924:	f7fd fbd8 	bl	30d8 <__aeabi_dmul>
    5928:	4b34      	ldr	r3, [pc, #208]	; (59fc <scalbn+0xfc>)
    592a:	1c04      	adds	r4, r0, #0
    592c:	1c0d      	adds	r5, r1, #0
    592e:	429f      	cmp	r7, r3
    5930:	db31      	blt.n	5996 <scalbn+0x96>
    5932:	400e      	ands	r6, r1
    5934:	1533      	asrs	r3, r6, #20
    5936:	1c0a      	adds	r2, r1, #0
    5938:	3b36      	subs	r3, #54	; 0x36
    593a:	4931      	ldr	r1, [pc, #196]	; (5a00 <scalbn+0x100>)
    593c:	19db      	adds	r3, r3, r7
    593e:	428b      	cmp	r3, r1
    5940:	dd15      	ble.n	596e <scalbn+0x6e>
    5942:	1c22      	adds	r2, r4, #0
    5944:	1c2b      	adds	r3, r5, #0
    5946:	4826      	ldr	r0, [pc, #152]	; (59e0 <scalbn+0xe0>)
    5948:	4926      	ldr	r1, [pc, #152]	; (59e4 <scalbn+0xe4>)
    594a:	f000 f861 	bl	5a10 <copysign>
    594e:	4a24      	ldr	r2, [pc, #144]	; (59e0 <scalbn+0xe0>)
    5950:	4b24      	ldr	r3, [pc, #144]	; (59e4 <scalbn+0xe4>)
    5952:	f7fd fbc1 	bl	30d8 <__aeabi_dmul>
    5956:	1c04      	adds	r4, r0, #0
    5958:	1c0d      	adds	r5, r1, #0
    595a:	1c29      	adds	r1, r5, #0
    595c:	1c20      	adds	r0, r4, #0
    595e:	bdf8      	pop	{r3, r4, r5, r6, r7, pc}
    5960:	4928      	ldr	r1, [pc, #160]	; (5a04 <scalbn+0x104>)
    5962:	428b      	cmp	r3, r1
    5964:	d01e      	beq.n	59a4 <scalbn+0xa4>
    5966:	4926      	ldr	r1, [pc, #152]	; (5a00 <scalbn+0x100>)
    5968:	19db      	adds	r3, r3, r7
    596a:	428b      	cmp	r3, r1
    596c:	dce9      	bgt.n	5942 <scalbn+0x42>
    596e:	2b00      	cmp	r3, #0
    5970:	dd05      	ble.n	597e <scalbn+0x7e>
    5972:	4925      	ldr	r1, [pc, #148]	; (5a08 <scalbn+0x108>)
    5974:	051b      	lsls	r3, r3, #20
    5976:	400a      	ands	r2, r1
    5978:	1c1d      	adds	r5, r3, #0
    597a:	4315      	orrs	r5, r2
    597c:	e7ed      	b.n	595a <scalbn+0x5a>
    597e:	1c19      	adds	r1, r3, #0
    5980:	3135      	adds	r1, #53	; 0x35
    5982:	da18      	bge.n	59b6 <scalbn+0xb6>
    5984:	4b21      	ldr	r3, [pc, #132]	; (5a0c <scalbn+0x10c>)
    5986:	429f      	cmp	r7, r3
    5988:	dcdb      	bgt.n	5942 <scalbn+0x42>
    598a:	4817      	ldr	r0, [pc, #92]	; (59e8 <scalbn+0xe8>)
    598c:	4917      	ldr	r1, [pc, #92]	; (59ec <scalbn+0xec>)
    598e:	1c22      	adds	r2, r4, #0
    5990:	1c2b      	adds	r3, r5, #0
    5992:	f000 f83d 	bl	5a10 <copysign>
    5996:	4a14      	ldr	r2, [pc, #80]	; (59e8 <scalbn+0xe8>)
    5998:	4b14      	ldr	r3, [pc, #80]	; (59ec <scalbn+0xec>)
    599a:	f7fd fb9d 	bl	30d8 <__aeabi_dmul>
    599e:	1c04      	adds	r4, r0, #0
    59a0:	1c0d      	adds	r5, r1, #0
    59a2:	e7da      	b.n	595a <scalbn+0x5a>
    59a4:	1c20      	adds	r0, r4, #0
    59a6:	1c29      	adds	r1, r5, #0
    59a8:	1c22      	adds	r2, r4, #0
    59aa:	1c2b      	adds	r3, r5, #0
    59ac:	f000 f8d6 	bl	5b5c <__aeabi_dadd>
    59b0:	1c04      	adds	r4, r0, #0
    59b2:	1c0d      	adds	r5, r1, #0
    59b4:	e7d1      	b.n	595a <scalbn+0x5a>
    59b6:	4914      	ldr	r1, [pc, #80]	; (5a08 <scalbn+0x108>)
    59b8:	3336      	adds	r3, #54	; 0x36
    59ba:	051b      	lsls	r3, r3, #20
    59bc:	400a      	ands	r2, r1
    59be:	1c1d      	adds	r5, r3, #0
    59c0:	4315      	orrs	r5, r2
    59c2:	1c20      	adds	r0, r4, #0
    59c4:	1c29      	adds	r1, r5, #0
    59c6:	4a0a      	ldr	r2, [pc, #40]	; (59f0 <scalbn+0xf0>)
    59c8:	4b0a      	ldr	r3, [pc, #40]	; (59f4 <scalbn+0xf4>)
    59ca:	f7fd fb85 	bl	30d8 <__aeabi_dmul>
    59ce:	1c04      	adds	r4, r0, #0
    59d0:	1c0d      	adds	r5, r1, #0
    59d2:	e7c2      	b.n	595a <scalbn+0x5a>
    59d4:	46c0      	nop			; (mov r8, r8)
    59d6:	46c0      	nop			; (mov r8, r8)
    59d8:	00000000 	.word	0x00000000
    59dc:	43500000 	.word	0x43500000
    59e0:	8800759c 	.word	0x8800759c
    59e4:	7e37e43c 	.word	0x7e37e43c
    59e8:	c2f8f359 	.word	0xc2f8f359
    59ec:	01a56e1f 	.word	0x01a56e1f
    59f0:	00000000 	.word	0x00000000
    59f4:	3c900000 	.word	0x3c900000
    59f8:	7ff00000 	.word	0x7ff00000
    59fc:	ffff3cb0 	.word	0xffff3cb0
    5a00:	000007fe 	.word	0x000007fe
    5a04:	000007ff 	.word	0x000007ff
    5a08:	800fffff 	.word	0x800fffff
    5a0c:	0000c350 	.word	0x0000c350

00005a10 <copysign>:
    5a10:	b530      	push	{r4, r5, lr}
    5a12:	0fda      	lsrs	r2, r3, #31
    5a14:	07d2      	lsls	r2, r2, #31
    5a16:	004b      	lsls	r3, r1, #1
    5a18:	085b      	lsrs	r3, r3, #1
    5a1a:	1c11      	adds	r1, r2, #0
    5a1c:	4319      	orrs	r1, r3
    5a1e:	bd30      	pop	{r4, r5, pc}

00005a20 <__aeabi_idiv>:
    5a20:	2900      	cmp	r1, #0
    5a22:	d041      	beq.n	5aa8 <.divsi3_skip_div0_test+0x84>

00005a24 <.divsi3_skip_div0_test>:
    5a24:	b410      	push	{r4}
    5a26:	1c04      	adds	r4, r0, #0
    5a28:	404c      	eors	r4, r1
    5a2a:	46a4      	mov	r12, r4
    5a2c:	2301      	movs	r3, #1
    5a2e:	2200      	movs	r2, #0
    5a30:	2900      	cmp	r1, #0
    5a32:	d500      	bpl.n	5a36 <.divsi3_skip_div0_test+0x12>
    5a34:	4249      	negs	r1, r1
    5a36:	2800      	cmp	r0, #0
    5a38:	d500      	bpl.n	5a3c <.divsi3_skip_div0_test+0x18>
    5a3a:	4240      	negs	r0, r0
    5a3c:	4288      	cmp	r0, r1
    5a3e:	d32c      	bcc.n	5a9a <.divsi3_skip_div0_test+0x76>
    5a40:	2401      	movs	r4, #1
    5a42:	0724      	lsls	r4, r4, #28
    5a44:	42a1      	cmp	r1, r4
    5a46:	d204      	bcs.n	5a52 <.divsi3_skip_div0_test+0x2e>
    5a48:	4281      	cmp	r1, r0
    5a4a:	d202      	bcs.n	5a52 <.divsi3_skip_div0_test+0x2e>
    5a4c:	0109      	lsls	r1, r1, #4
    5a4e:	011b      	lsls	r3, r3, #4
    5a50:	e7f8      	b.n	5a44 <.divsi3_skip_div0_test+0x20>
    5a52:	00e4      	lsls	r4, r4, #3
    5a54:	42a1      	cmp	r1, r4
    5a56:	d204      	bcs.n	5a62 <.divsi3_skip_div0_test+0x3e>
    5a58:	4281      	cmp	r1, r0
    5a5a:	d202      	bcs.n	5a62 <.divsi3_skip_div0_test+0x3e>
    5a5c:	0049      	lsls	r1, r1, #1
    5a5e:	005b      	lsls	r3, r3, #1
    5a60:	e7f8      	b.n	5a54 <.divsi3_skip_div0_test+0x30>
    5a62:	4288      	cmp	r0, r1
    5a64:	d301      	bcc.n	5a6a <.divsi3_skip_div0_test+0x46>
    5a66:	1a40      	subs	r0, r0, r1
    5a68:	431a      	orrs	r2, r3
    5a6a:	084c      	lsrs	r4, r1, #1
    5a6c:	42a0      	cmp	r0, r4
    5a6e:	d302      	bcc.n	5a76 <.divsi3_skip_div0_test+0x52>
    5a70:	1b00      	subs	r0, r0, r4
    5a72:	085c      	lsrs	r4, r3, #1
    5a74:	4322      	orrs	r2, r4
    5a76:	088c      	lsrs	r4, r1, #2
    5a78:	42a0      	cmp	r0, r4
    5a7a:	d302      	bcc.n	5a82 <.divsi3_skip_div0_test+0x5e>
    5a7c:	1b00      	subs	r0, r0, r4
    5a7e:	089c      	lsrs	r4, r3, #2
    5a80:	4322      	orrs	r2, r4
    5a82:	08cc      	lsrs	r4, r1, #3
    5a84:	42a0      	cmp	r0, r4
    5a86:	d302      	bcc.n	5a8e <.divsi3_skip_div0_test+0x6a>
    5a88:	1b00      	subs	r0, r0, r4
    5a8a:	08dc      	lsrs	r4, r3, #3
    5a8c:	4322      	orrs	r2, r4
    5a8e:	2800      	cmp	r0, #0
    5a90:	d003      	beq.n	5a9a <.divsi3_skip_div0_test+0x76>
    5a92:	091b      	lsrs	r3, r3, #4
    5a94:	d001      	beq.n	5a9a <.divsi3_skip_div0_test+0x76>
    5a96:	0909      	lsrs	r1, r1, #4
    5a98:	e7e3      	b.n	5a62 <.divsi3_skip_div0_test+0x3e>
    5a9a:	1c10      	adds	r0, r2, #0
    5a9c:	4664      	mov	r4, r12
    5a9e:	2c00      	cmp	r4, #0
    5aa0:	d500      	bpl.n	5aa4 <.divsi3_skip_div0_test+0x80>
    5aa2:	4240      	negs	r0, r0
    5aa4:	bc10      	pop	{r4}
    5aa6:	4770      	bx	lr
    5aa8:	2800      	cmp	r0, #0
    5aaa:	d006      	beq.n	5aba <.divsi3_skip_div0_test+0x96>
    5aac:	db03      	blt.n	5ab6 <.divsi3_skip_div0_test+0x92>
    5aae:	2000      	movs	r0, #0
    5ab0:	43c0      	mvns	r0, r0
    5ab2:	0840      	lsrs	r0, r0, #1
    5ab4:	e001      	b.n	5aba <.divsi3_skip_div0_test+0x96>
    5ab6:	2080      	movs	r0, #128	; 0x80
    5ab8:	0600      	lsls	r0, r0, #24
    5aba:	b407      	push	{r0, r1, r2}
    5abc:	4802      	ldr	r0, [pc, #8]	; (5ac8 <.divsi3_skip_div0_test+0xa4>)
    5abe:	a102      	add	r1, pc, #8	; (adr r1, 5ac8 <.divsi3_skip_div0_test+0xa4>)
    5ac0:	1840      	adds	r0, r0, r1
    5ac2:	9002      	str	r0, [sp, #8]
    5ac4:	bd03      	pop	{r0, r1, pc}
    5ac6:	46c0      	nop			; (mov r8, r8)
    5ac8:	ffffcd31 	.word	0xffffcd31

00005acc <__aeabi_idivmod>:
    5acc:	2900      	cmp	r1, #0
    5ace:	d0eb      	beq.n	5aa8 <.divsi3_skip_div0_test+0x84>
    5ad0:	b503      	push	{r0, r1, lr}
    5ad2:	f7ff ffa7 	bl	5a24 <.divsi3_skip_div0_test>
    5ad6:	bc0e      	pop	{r1, r2, r3}
    5ad8:	4342      	muls	r2, r0
    5ada:	1a89      	subs	r1, r1, r2
    5adc:	4718      	bx	r3
    5ade:	46c0      	nop			; (mov r8, r8)

00005ae0 <__aeabi_cdrcmple>:
    5ae0:	4684      	mov	r12, r0
    5ae2:	1c10      	adds	r0, r2, #0
    5ae4:	4662      	mov	r2, r12
    5ae6:	468c      	mov	r12, r1
    5ae8:	1c19      	adds	r1, r3, #0
    5aea:	4663      	mov	r3, r12
    5aec:	e000      	b.n	5af0 <__aeabi_cdcmpeq>
    5aee:	46c0      	nop			; (mov r8, r8)

00005af0 <__aeabi_cdcmpeq>:
    5af0:	b51f      	push	{r0, r1, r2, r3, r4, lr}
    5af2:	f000 fc17 	bl	6324 <__ledf2>
    5af6:	2800      	cmp	r0, #0
    5af8:	d401      	bmi.n	5afe <__aeabi_cdcmpeq+0xe>
    5afa:	2100      	movs	r1, #0
    5afc:	42c8      	cmn	r0, r1
    5afe:	bd1f      	pop	{r0, r1, r2, r3, r4, pc}

00005b00 <__aeabi_dcmpeq>:
    5b00:	b510      	push	{r4, lr}
    5b02:	f000 fb47 	bl	6194 <__eqdf2>
    5b06:	4240      	negs	r0, r0
    5b08:	3001      	adds	r0, #1
    5b0a:	bd10      	pop	{r4, pc}

00005b0c <__aeabi_dcmplt>:
    5b0c:	b510      	push	{r4, lr}
    5b0e:	f000 fc09 	bl	6324 <__ledf2>
    5b12:	2800      	cmp	r0, #0
    5b14:	db01      	blt.n	5b1a <__aeabi_dcmplt+0xe>
    5b16:	2000      	movs	r0, #0
    5b18:	bd10      	pop	{r4, pc}
    5b1a:	2001      	movs	r0, #1
    5b1c:	bd10      	pop	{r4, pc}
    5b1e:	46c0      	nop			; (mov r8, r8)

00005b20 <__aeabi_dcmple>:
    5b20:	b510      	push	{r4, lr}
    5b22:	f000 fbff 	bl	6324 <__ledf2>
    5b26:	2800      	cmp	r0, #0
    5b28:	dd01      	ble.n	5b2e <__aeabi_dcmple+0xe>
    5b2a:	2000      	movs	r0, #0
    5b2c:	bd10      	pop	{r4, pc}
    5b2e:	2001      	movs	r0, #1
    5b30:	bd10      	pop	{r4, pc}
    5b32:	46c0      	nop			; (mov r8, r8)

00005b34 <__aeabi_dcmpgt>:
    5b34:	b510      	push	{r4, lr}
    5b36:	f000 fb77 	bl	6228 <__gedf2>
    5b3a:	2800      	cmp	r0, #0
    5b3c:	dc01      	bgt.n	5b42 <__aeabi_dcmpgt+0xe>
    5b3e:	2000      	movs	r0, #0
    5b40:	bd10      	pop	{r4, pc}
    5b42:	2001      	movs	r0, #1
    5b44:	bd10      	pop	{r4, pc}
    5b46:	46c0      	nop			; (mov r8, r8)

00005b48 <__aeabi_dcmpge>:
    5b48:	b510      	push	{r4, lr}
    5b4a:	f000 fb6d 	bl	6228 <__gedf2>
    5b4e:	2800      	cmp	r0, #0
    5b50:	da01      	bge.n	5b56 <__aeabi_dcmpge+0xe>
    5b52:	2000      	movs	r0, #0
    5b54:	bd10      	pop	{r4, pc}
    5b56:	2001      	movs	r0, #1
    5b58:	bd10      	pop	{r4, pc}
    5b5a:	46c0      	nop			; (mov r8, r8)

00005b5c <__aeabi_dadd>:
    5b5c:	b5f8      	push	{r3, r4, r5, r6, r7, lr}
    5b5e:	465f      	mov	r7, r11
    5b60:	4656      	mov	r6, r10
    5b62:	4644      	mov	r4, r8
    5b64:	464d      	mov	r5, r9
    5b66:	b4f0      	push	{r4, r5, r6, r7}
    5b68:	030c      	lsls	r4, r1, #12
    5b6a:	004d      	lsls	r5, r1, #1
    5b6c:	0fce      	lsrs	r6, r1, #31
    5b6e:	0a61      	lsrs	r1, r4, #9
    5b70:	0f44      	lsrs	r4, r0, #29
    5b72:	4321      	orrs	r1, r4
    5b74:	00c4      	lsls	r4, r0, #3
    5b76:	0318      	lsls	r0, r3, #12
    5b78:	4680      	mov	r8, r0
    5b7a:	0058      	lsls	r0, r3, #1
    5b7c:	0d40      	lsrs	r0, r0, #21
    5b7e:	4682      	mov	r10, r0
    5b80:	0fd8      	lsrs	r0, r3, #31
    5b82:	4684      	mov	r12, r0
    5b84:	4640      	mov	r0, r8
    5b86:	0a40      	lsrs	r0, r0, #9
    5b88:	0f53      	lsrs	r3, r2, #29
    5b8a:	4303      	orrs	r3, r0
    5b8c:	00d0      	lsls	r0, r2, #3
    5b8e:	0d6d      	lsrs	r5, r5, #21
    5b90:	1c37      	adds	r7, r6, #0
    5b92:	4683      	mov	r11, r0
    5b94:	4652      	mov	r2, r10
    5b96:	4566      	cmp	r6, r12
    5b98:	d100      	bne.n	5b9c <__aeabi_dadd+0x40>
    5b9a:	e09d      	b.n	5cd8 <__aeabi_dadd+0x17c>
    5b9c:	1aaf      	subs	r7, r5, r2
    5b9e:	2f00      	cmp	r7, #0
    5ba0:	dc00      	bgt.n	5ba4 <__aeabi_dadd+0x48>
    5ba2:	e103      	b.n	5dac <__aeabi_dadd+0x250>
    5ba4:	2a00      	cmp	r2, #0
    5ba6:	d138      	bne.n	5c1a <__aeabi_dadd+0xbe>
    5ba8:	4318      	orrs	r0, r3
    5baa:	d000      	beq.n	5bae <__aeabi_dadd+0x52>
    5bac:	e0e4      	b.n	5d78 <__aeabi_dadd+0x21c>
    5bae:	0763      	lsls	r3, r4, #29
    5bb0:	d009      	beq.n	5bc6 <__aeabi_dadd+0x6a>
    5bb2:	230f      	movs	r3, #15
    5bb4:	4023      	ands	r3, r4
    5bb6:	2b04      	cmp	r3, #4
    5bb8:	d005      	beq.n	5bc6 <__aeabi_dadd+0x6a>
    5bba:	1d23      	adds	r3, r4, #4
    5bbc:	42a3      	cmp	r3, r4
    5bbe:	41a4      	sbcs	r4, r4
    5bc0:	4264      	negs	r4, r4
    5bc2:	1909      	adds	r1, r1, r4
    5bc4:	1c1c      	adds	r4, r3, #0
    5bc6:	0208      	lsls	r0, r1, #8
    5bc8:	d400      	bmi.n	5bcc <__aeabi_dadd+0x70>
    5bca:	e078      	b.n	5cbe <__aeabi_dadd+0x162>
    5bcc:	4bce      	ldr	r3, [pc, #824]	; (5f08 <__aeabi_dadd+0x3ac>)
    5bce:	1c6a      	adds	r2, r5, #1
    5bd0:	429a      	cmp	r2, r3
    5bd2:	d100      	bne.n	5bd6 <__aeabi_dadd+0x7a>
    5bd4:	e105      	b.n	5de2 <__aeabi_dadd+0x286>
    5bd6:	4bcd      	ldr	r3, [pc, #820]	; (5f0c <__aeabi_dadd+0x3b0>)
    5bd8:	08e4      	lsrs	r4, r4, #3
    5bda:	4019      	ands	r1, r3
    5bdc:	0748      	lsls	r0, r1, #29
    5bde:	0552      	lsls	r2, r2, #21
    5be0:	0249      	lsls	r1, r1, #9
    5be2:	4304      	orrs	r4, r0
    5be4:	0b0b      	lsrs	r3, r1, #12
    5be6:	0d52      	lsrs	r2, r2, #21
    5be8:	1c37      	adds	r7, r6, #0
    5bea:	2000      	movs	r0, #0
    5bec:	2100      	movs	r1, #0
    5bee:	031b      	lsls	r3, r3, #12
    5bf0:	1c20      	adds	r0, r4, #0
    5bf2:	0b1c      	lsrs	r4, r3, #12
    5bf4:	0d0b      	lsrs	r3, r1, #20
    5bf6:	051b      	lsls	r3, r3, #20
    5bf8:	4dc5      	ldr	r5, [pc, #788]	; (5f10 <__aeabi_dadd+0x3b4>)
    5bfa:	4323      	orrs	r3, r4
    5bfc:	0552      	lsls	r2, r2, #21
    5bfe:	0852      	lsrs	r2, r2, #1
    5c00:	401d      	ands	r5, r3
    5c02:	4315      	orrs	r5, r2
    5c04:	006d      	lsls	r5, r5, #1
    5c06:	086d      	lsrs	r5, r5, #1
    5c08:	07ff      	lsls	r7, r7, #31
    5c0a:	1c29      	adds	r1, r5, #0
    5c0c:	4339      	orrs	r1, r7
    5c0e:	bc3c      	pop	{r2, r3, r4, r5}
    5c10:	4690      	mov	r8, r2
    5c12:	4699      	mov	r9, r3
    5c14:	46a2      	mov	r10, r4
    5c16:	46ab      	mov	r11, r5
    5c18:	bdf8      	pop	{r3, r4, r5, r6, r7, pc}
    5c1a:	48bb      	ldr	r0, [pc, #748]	; (5f08 <__aeabi_dadd+0x3ac>)
    5c1c:	4285      	cmp	r5, r0
    5c1e:	d0c6      	beq.n	5bae <__aeabi_dadd+0x52>
    5c20:	2080      	movs	r0, #128	; 0x80
    5c22:	0400      	lsls	r0, r0, #16
    5c24:	4303      	orrs	r3, r0
    5c26:	2f38      	cmp	r7, #56	; 0x38
    5c28:	dd00      	ble.n	5c2c <__aeabi_dadd+0xd0>
    5c2a:	e0ec      	b.n	5e06 <__aeabi_dadd+0x2aa>
    5c2c:	2f1f      	cmp	r7, #31
    5c2e:	dd00      	ble.n	5c32 <__aeabi_dadd+0xd6>
    5c30:	e120      	b.n	5e74 <__aeabi_dadd+0x318>
    5c32:	2020      	movs	r0, #32
    5c34:	1bc0      	subs	r0, r0, r7
    5c36:	1c1a      	adds	r2, r3, #0
    5c38:	4681      	mov	r9, r0
    5c3a:	4082      	lsls	r2, r0
    5c3c:	4658      	mov	r0, r11
    5c3e:	40f8      	lsrs	r0, r7
    5c40:	4302      	orrs	r2, r0
    5c42:	4694      	mov	r12, r2
    5c44:	4658      	mov	r0, r11
    5c46:	464a      	mov	r2, r9
    5c48:	4090      	lsls	r0, r2
    5c4a:	1e42      	subs	r2, r0, #1
    5c4c:	4190      	sbcs	r0, r2
    5c4e:	40fb      	lsrs	r3, r7
    5c50:	4662      	mov	r2, r12
    5c52:	4302      	orrs	r2, r0
    5c54:	1c1f      	adds	r7, r3, #0
    5c56:	1aa2      	subs	r2, r4, r2
    5c58:	4294      	cmp	r4, r2
    5c5a:	41a4      	sbcs	r4, r4
    5c5c:	4264      	negs	r4, r4
    5c5e:	1bc9      	subs	r1, r1, r7
    5c60:	1b09      	subs	r1, r1, r4
    5c62:	1c14      	adds	r4, r2, #0
    5c64:	020b      	lsls	r3, r1, #8
    5c66:	d5a2      	bpl.n	5bae <__aeabi_dadd+0x52>
    5c68:	0249      	lsls	r1, r1, #9
    5c6a:	0a4f      	lsrs	r7, r1, #9
    5c6c:	2f00      	cmp	r7, #0
    5c6e:	d100      	bne.n	5c72 <__aeabi_dadd+0x116>
    5c70:	e0c4      	b.n	5dfc <__aeabi_dadd+0x2a0>
    5c72:	1c38      	adds	r0, r7, #0
    5c74:	f7fd fd32 	bl	36dc <__clzsi2>
    5c78:	1c02      	adds	r2, r0, #0
    5c7a:	3a08      	subs	r2, #8
    5c7c:	2a1f      	cmp	r2, #31
    5c7e:	dd00      	ble.n	5c82 <__aeabi_dadd+0x126>
    5c80:	e0b7      	b.n	5df2 <__aeabi_dadd+0x296>
    5c82:	2128      	movs	r1, #40	; 0x28
    5c84:	1a09      	subs	r1, r1, r0
    5c86:	1c20      	adds	r0, r4, #0
    5c88:	4097      	lsls	r7, r2
    5c8a:	40c8      	lsrs	r0, r1
    5c8c:	4307      	orrs	r7, r0
    5c8e:	4094      	lsls	r4, r2
    5c90:	4295      	cmp	r5, r2
    5c92:	dd00      	ble.n	5c96 <__aeabi_dadd+0x13a>
    5c94:	e0a9      	b.n	5dea <__aeabi_dadd+0x28e>
    5c96:	1b55      	subs	r5, r2, r5
    5c98:	1c69      	adds	r1, r5, #1
    5c9a:	291f      	cmp	r1, #31
    5c9c:	dd00      	ble.n	5ca0 <__aeabi_dadd+0x144>
    5c9e:	e0d8      	b.n	5e52 <__aeabi_dadd+0x2f6>
    5ca0:	221f      	movs	r2, #31
    5ca2:	1b55      	subs	r5, r2, r5
    5ca4:	1c3b      	adds	r3, r7, #0
    5ca6:	1c22      	adds	r2, r4, #0
    5ca8:	40ab      	lsls	r3, r5
    5caa:	40ca      	lsrs	r2, r1
    5cac:	40ac      	lsls	r4, r5
    5cae:	1e65      	subs	r5, r4, #1
    5cb0:	41ac      	sbcs	r4, r5
    5cb2:	4313      	orrs	r3, r2
    5cb4:	40cf      	lsrs	r7, r1
    5cb6:	431c      	orrs	r4, r3
    5cb8:	1c39      	adds	r1, r7, #0
    5cba:	2500      	movs	r5, #0
    5cbc:	e777      	b.n	5bae <__aeabi_dadd+0x52>
    5cbe:	0748      	lsls	r0, r1, #29
    5cc0:	08e4      	lsrs	r4, r4, #3
    5cc2:	056a      	lsls	r2, r5, #21
    5cc4:	08c9      	lsrs	r1, r1, #3
    5cc6:	0d52      	lsrs	r2, r2, #21
    5cc8:	1c37      	adds	r7, r6, #0
    5cca:	4304      	orrs	r4, r0
    5ccc:	4b8e      	ldr	r3, [pc, #568]	; (5f08 <__aeabi_dadd+0x3ac>)
    5cce:	429d      	cmp	r5, r3
    5cd0:	d048      	beq.n	5d64 <__aeabi_dadd+0x208>
    5cd2:	0309      	lsls	r1, r1, #12
    5cd4:	0b0b      	lsrs	r3, r1, #12
    5cd6:	e788      	b.n	5bea <__aeabi_dadd+0x8e>
    5cd8:	1aaa      	subs	r2, r5, r2
    5cda:	4694      	mov	r12, r2
    5cdc:	2a00      	cmp	r2, #0
    5cde:	dc00      	bgt.n	5ce2 <__aeabi_dadd+0x186>
    5ce0:	e098      	b.n	5e14 <__aeabi_dadd+0x2b8>
    5ce2:	4650      	mov	r0, r10
    5ce4:	2800      	cmp	r0, #0
    5ce6:	d053      	beq.n	5d90 <__aeabi_dadd+0x234>
    5ce8:	4887      	ldr	r0, [pc, #540]	; (5f08 <__aeabi_dadd+0x3ac>)
    5cea:	4285      	cmp	r5, r0
    5cec:	d100      	bne.n	5cf0 <__aeabi_dadd+0x194>
    5cee:	e75e      	b.n	5bae <__aeabi_dadd+0x52>
    5cf0:	2080      	movs	r0, #128	; 0x80
    5cf2:	0400      	lsls	r0, r0, #16
    5cf4:	4303      	orrs	r3, r0
    5cf6:	4662      	mov	r2, r12
    5cf8:	2a38      	cmp	r2, #56	; 0x38
    5cfa:	dd00      	ble.n	5cfe <__aeabi_dadd+0x1a2>
    5cfc:	e0fd      	b.n	5efa <__aeabi_dadd+0x39e>
    5cfe:	2a1f      	cmp	r2, #31
    5d00:	dd00      	ble.n	5d04 <__aeabi_dadd+0x1a8>
    5d02:	e14b      	b.n	5f9c <__aeabi_dadd+0x440>
    5d04:	2220      	movs	r2, #32
    5d06:	4660      	mov	r0, r12
    5d08:	1a10      	subs	r0, r2, r0
    5d0a:	1c1a      	adds	r2, r3, #0
    5d0c:	4082      	lsls	r2, r0
    5d0e:	4682      	mov	r10, r0
    5d10:	4691      	mov	r9, r2
    5d12:	4658      	mov	r0, r11
    5d14:	4662      	mov	r2, r12
    5d16:	40d0      	lsrs	r0, r2
    5d18:	464a      	mov	r2, r9
    5d1a:	4302      	orrs	r2, r0
    5d1c:	4690      	mov	r8, r2
    5d1e:	4658      	mov	r0, r11
    5d20:	4652      	mov	r2, r10
    5d22:	4090      	lsls	r0, r2
    5d24:	1e42      	subs	r2, r0, #1
    5d26:	4190      	sbcs	r0, r2
    5d28:	4642      	mov	r2, r8
    5d2a:	4302      	orrs	r2, r0
    5d2c:	4660      	mov	r0, r12
    5d2e:	40c3      	lsrs	r3, r0
    5d30:	1912      	adds	r2, r2, r4
    5d32:	42a2      	cmp	r2, r4
    5d34:	41a4      	sbcs	r4, r4
    5d36:	4264      	negs	r4, r4
    5d38:	1859      	adds	r1, r3, r1
    5d3a:	1909      	adds	r1, r1, r4
    5d3c:	1c14      	adds	r4, r2, #0
    5d3e:	0208      	lsls	r0, r1, #8
    5d40:	d400      	bmi.n	5d44 <__aeabi_dadd+0x1e8>
    5d42:	e734      	b.n	5bae <__aeabi_dadd+0x52>
    5d44:	4b70      	ldr	r3, [pc, #448]	; (5f08 <__aeabi_dadd+0x3ac>)
    5d46:	3501      	adds	r5, #1
    5d48:	429d      	cmp	r5, r3
    5d4a:	d100      	bne.n	5d4e <__aeabi_dadd+0x1f2>
    5d4c:	e124      	b.n	5f98 <__aeabi_dadd+0x43c>
    5d4e:	4b6f      	ldr	r3, [pc, #444]	; (5f0c <__aeabi_dadd+0x3b0>)
    5d50:	0860      	lsrs	r0, r4, #1
    5d52:	4019      	ands	r1, r3
    5d54:	2301      	movs	r3, #1
    5d56:	4023      	ands	r3, r4
    5d58:	1c1c      	adds	r4, r3, #0
    5d5a:	4304      	orrs	r4, r0
    5d5c:	07cb      	lsls	r3, r1, #31
    5d5e:	431c      	orrs	r4, r3
    5d60:	0849      	lsrs	r1, r1, #1
    5d62:	e724      	b.n	5bae <__aeabi_dadd+0x52>
    5d64:	1c0b      	adds	r3, r1, #0
    5d66:	4323      	orrs	r3, r4
    5d68:	d100      	bne.n	5d6c <__aeabi_dadd+0x210>
    5d6a:	e1c7      	b.n	60fc <__aeabi_dadd+0x5a0>
    5d6c:	2380      	movs	r3, #128	; 0x80
    5d6e:	031b      	lsls	r3, r3, #12
    5d70:	430b      	orrs	r3, r1
    5d72:	031b      	lsls	r3, r3, #12
    5d74:	0b1b      	lsrs	r3, r3, #12
    5d76:	e738      	b.n	5bea <__aeabi_dadd+0x8e>
    5d78:	3f01      	subs	r7, #1
    5d7a:	2f00      	cmp	r7, #0
    5d7c:	d164      	bne.n	5e48 <__aeabi_dadd+0x2ec>
    5d7e:	4658      	mov	r0, r11
    5d80:	1a22      	subs	r2, r4, r0
    5d82:	4294      	cmp	r4, r2
    5d84:	41a4      	sbcs	r4, r4
    5d86:	4264      	negs	r4, r4
    5d88:	1ac9      	subs	r1, r1, r3
    5d8a:	1b09      	subs	r1, r1, r4
    5d8c:	1c14      	adds	r4, r2, #0
    5d8e:	e769      	b.n	5c64 <__aeabi_dadd+0x108>
    5d90:	4658      	mov	r0, r11
    5d92:	4318      	orrs	r0, r3
    5d94:	d100      	bne.n	5d98 <__aeabi_dadd+0x23c>
    5d96:	e70a      	b.n	5bae <__aeabi_dadd+0x52>
    5d98:	2201      	movs	r2, #1
    5d9a:	4252      	negs	r2, r2
    5d9c:	4494      	add	r12, r2
    5d9e:	4660      	mov	r0, r12
    5da0:	2800      	cmp	r0, #0
    5da2:	d000      	beq.n	5da6 <__aeabi_dadd+0x24a>
    5da4:	e0c5      	b.n	5f32 <__aeabi_dadd+0x3d6>
    5da6:	4658      	mov	r0, r11
    5da8:	1902      	adds	r2, r0, r4
    5daa:	e7c2      	b.n	5d32 <__aeabi_dadd+0x1d6>
    5dac:	2f00      	cmp	r7, #0
    5dae:	d172      	bne.n	5e96 <__aeabi_dadd+0x33a>
    5db0:	1c68      	adds	r0, r5, #1
    5db2:	0540      	lsls	r0, r0, #21
    5db4:	0d40      	lsrs	r0, r0, #21
    5db6:	2801      	cmp	r0, #1
    5db8:	dc00      	bgt.n	5dbc <__aeabi_dadd+0x260>
    5dba:	e0de      	b.n	5f7a <__aeabi_dadd+0x41e>
    5dbc:	465a      	mov	r2, r11
    5dbe:	1aa2      	subs	r2, r4, r2
    5dc0:	4294      	cmp	r4, r2
    5dc2:	41bf      	sbcs	r7, r7
    5dc4:	1ac8      	subs	r0, r1, r3
    5dc6:	427f      	negs	r7, r7
    5dc8:	1bc7      	subs	r7, r0, r7
    5dca:	0238      	lsls	r0, r7, #8
    5dcc:	d400      	bmi.n	5dd0 <__aeabi_dadd+0x274>
    5dce:	e088      	b.n	5ee2 <__aeabi_dadd+0x386>
    5dd0:	465a      	mov	r2, r11
    5dd2:	1b14      	subs	r4, r2, r4
    5dd4:	45a3      	cmp	r11, r4
    5dd6:	4192      	sbcs	r2, r2
    5dd8:	1a59      	subs	r1, r3, r1
    5dda:	4252      	negs	r2, r2
    5ddc:	1a8f      	subs	r7, r1, r2
    5dde:	4666      	mov	r6, r12
    5de0:	e744      	b.n	5c6c <__aeabi_dadd+0x110>
    5de2:	1c37      	adds	r7, r6, #0
    5de4:	2300      	movs	r3, #0
    5de6:	2400      	movs	r4, #0
    5de8:	e6ff      	b.n	5bea <__aeabi_dadd+0x8e>
    5dea:	4948      	ldr	r1, [pc, #288]	; (5f0c <__aeabi_dadd+0x3b0>)
    5dec:	1aad      	subs	r5, r5, r2
    5dee:	4039      	ands	r1, r7
    5df0:	e6dd      	b.n	5bae <__aeabi_dadd+0x52>
    5df2:	1c27      	adds	r7, r4, #0
    5df4:	3828      	subs	r0, #40	; 0x28
    5df6:	4087      	lsls	r7, r0
    5df8:	2400      	movs	r4, #0
    5dfa:	e749      	b.n	5c90 <__aeabi_dadd+0x134>
    5dfc:	1c20      	adds	r0, r4, #0
    5dfe:	f7fd fc6d 	bl	36dc <__clzsi2>
    5e02:	3020      	adds	r0, #32
    5e04:	e738      	b.n	5c78 <__aeabi_dadd+0x11c>
    5e06:	465a      	mov	r2, r11
    5e08:	431a      	orrs	r2, r3
    5e0a:	1e53      	subs	r3, r2, #1
    5e0c:	419a      	sbcs	r2, r3
    5e0e:	b2d2      	uxtb	r2, r2
    5e10:	2700      	movs	r7, #0
    5e12:	e720      	b.n	5c56 <__aeabi_dadd+0xfa>
    5e14:	2a00      	cmp	r2, #0
    5e16:	d000      	beq.n	5e1a <__aeabi_dadd+0x2be>
    5e18:	e0dd      	b.n	5fd6 <__aeabi_dadd+0x47a>
    5e1a:	1c68      	adds	r0, r5, #1
    5e1c:	0542      	lsls	r2, r0, #21
    5e1e:	0d52      	lsrs	r2, r2, #21
    5e20:	2a01      	cmp	r2, #1
    5e22:	dc00      	bgt.n	5e26 <__aeabi_dadd+0x2ca>
    5e24:	e08e      	b.n	5f44 <__aeabi_dadd+0x3e8>
    5e26:	4d38      	ldr	r5, [pc, #224]	; (5f08 <__aeabi_dadd+0x3ac>)
    5e28:	42a8      	cmp	r0, r5
    5e2a:	d100      	bne.n	5e2e <__aeabi_dadd+0x2d2>
    5e2c:	e0b3      	b.n	5f96 <__aeabi_dadd+0x43a>
    5e2e:	465d      	mov	r5, r11
    5e30:	192a      	adds	r2, r5, r4
    5e32:	42a2      	cmp	r2, r4
    5e34:	41a4      	sbcs	r4, r4
    5e36:	4264      	negs	r4, r4
    5e38:	1859      	adds	r1, r3, r1
    5e3a:	1909      	adds	r1, r1, r4
    5e3c:	07cc      	lsls	r4, r1, #31
    5e3e:	0852      	lsrs	r2, r2, #1
    5e40:	4314      	orrs	r4, r2
    5e42:	0849      	lsrs	r1, r1, #1
    5e44:	1c05      	adds	r5, r0, #0
    5e46:	e6b2      	b.n	5bae <__aeabi_dadd+0x52>
    5e48:	482f      	ldr	r0, [pc, #188]	; (5f08 <__aeabi_dadd+0x3ac>)
    5e4a:	4285      	cmp	r5, r0
    5e4c:	d000      	beq.n	5e50 <__aeabi_dadd+0x2f4>
    5e4e:	e6ea      	b.n	5c26 <__aeabi_dadd+0xca>
    5e50:	e6ad      	b.n	5bae <__aeabi_dadd+0x52>
    5e52:	1c2b      	adds	r3, r5, #0
    5e54:	3b1f      	subs	r3, #31
    5e56:	1c3a      	adds	r2, r7, #0
    5e58:	40da      	lsrs	r2, r3
    5e5a:	1c13      	adds	r3, r2, #0
    5e5c:	2920      	cmp	r1, #32
    5e5e:	d06d      	beq.n	5f3c <__aeabi_dadd+0x3e0>
    5e60:	223f      	movs	r2, #63	; 0x3f
    5e62:	1b55      	subs	r5, r2, r5
    5e64:	40af      	lsls	r7, r5
    5e66:	433c      	orrs	r4, r7
    5e68:	1e60      	subs	r0, r4, #1
    5e6a:	4184      	sbcs	r4, r0
    5e6c:	431c      	orrs	r4, r3
    5e6e:	2100      	movs	r1, #0
    5e70:	2500      	movs	r5, #0
    5e72:	e69c      	b.n	5bae <__aeabi_dadd+0x52>
    5e74:	1c38      	adds	r0, r7, #0
    5e76:	3820      	subs	r0, #32
    5e78:	1c1a      	adds	r2, r3, #0
    5e7a:	40c2      	lsrs	r2, r0
    5e7c:	1c10      	adds	r0, r2, #0
    5e7e:	2f20      	cmp	r7, #32
    5e80:	d05e      	beq.n	5f40 <__aeabi_dadd+0x3e4>
    5e82:	2240      	movs	r2, #64	; 0x40
    5e84:	1bd7      	subs	r7, r2, r7
    5e86:	40bb      	lsls	r3, r7
    5e88:	465a      	mov	r2, r11
    5e8a:	431a      	orrs	r2, r3
    5e8c:	1e53      	subs	r3, r2, #1
    5e8e:	419a      	sbcs	r2, r3
    5e90:	4302      	orrs	r2, r0
    5e92:	2700      	movs	r7, #0
    5e94:	e6df      	b.n	5c56 <__aeabi_dadd+0xfa>
    5e96:	2d00      	cmp	r5, #0
    5e98:	d03c      	beq.n	5f14 <__aeabi_dadd+0x3b8>
    5e9a:	4d1b      	ldr	r5, [pc, #108]	; (5f08 <__aeabi_dadd+0x3ac>)
    5e9c:	45aa      	cmp	r10, r5
    5e9e:	d100      	bne.n	5ea2 <__aeabi_dadd+0x346>
    5ea0:	e094      	b.n	5fcc <__aeabi_dadd+0x470>
    5ea2:	2580      	movs	r5, #128	; 0x80
    5ea4:	042d      	lsls	r5, r5, #16
    5ea6:	427f      	negs	r7, r7
    5ea8:	4329      	orrs	r1, r5
    5eaa:	2f38      	cmp	r7, #56	; 0x38
    5eac:	dd00      	ble.n	5eb0 <__aeabi_dadd+0x354>
    5eae:	e0ad      	b.n	600c <__aeabi_dadd+0x4b0>
    5eb0:	2f1f      	cmp	r7, #31
    5eb2:	dd00      	ble.n	5eb6 <__aeabi_dadd+0x35a>
    5eb4:	e12c      	b.n	6110 <__aeabi_dadd+0x5b4>
    5eb6:	2520      	movs	r5, #32
    5eb8:	1bed      	subs	r5, r5, r7
    5eba:	1c08      	adds	r0, r1, #0
    5ebc:	1c26      	adds	r6, r4, #0
    5ebe:	40a8      	lsls	r0, r5
    5ec0:	40fe      	lsrs	r6, r7
    5ec2:	40ac      	lsls	r4, r5
    5ec4:	4306      	orrs	r6, r0
    5ec6:	1e65      	subs	r5, r4, #1
    5ec8:	41ac      	sbcs	r4, r5
    5eca:	4334      	orrs	r4, r6
    5ecc:	40f9      	lsrs	r1, r7
    5ece:	465d      	mov	r5, r11
    5ed0:	1b2c      	subs	r4, r5, r4
    5ed2:	45a3      	cmp	r11, r4
    5ed4:	4192      	sbcs	r2, r2
    5ed6:	1a5b      	subs	r3, r3, r1
    5ed8:	4252      	negs	r2, r2
    5eda:	1a99      	subs	r1, r3, r2
    5edc:	4655      	mov	r5, r10
    5ede:	4666      	mov	r6, r12
    5ee0:	e6c0      	b.n	5c64 <__aeabi_dadd+0x108>
    5ee2:	1c13      	adds	r3, r2, #0
    5ee4:	433b      	orrs	r3, r7
    5ee6:	1c14      	adds	r4, r2, #0
    5ee8:	2b00      	cmp	r3, #0
    5eea:	d000      	beq.n	5eee <__aeabi_dadd+0x392>
    5eec:	e6be      	b.n	5c6c <__aeabi_dadd+0x110>
    5eee:	2700      	movs	r7, #0
    5ef0:	2200      	movs	r2, #0
    5ef2:	2500      	movs	r5, #0
    5ef4:	2100      	movs	r1, #0
    5ef6:	2400      	movs	r4, #0
    5ef8:	e6e8      	b.n	5ccc <__aeabi_dadd+0x170>
    5efa:	465a      	mov	r2, r11
    5efc:	431a      	orrs	r2, r3
    5efe:	1e53      	subs	r3, r2, #1
    5f00:	419a      	sbcs	r2, r3
    5f02:	b2d2      	uxtb	r2, r2
    5f04:	2300      	movs	r3, #0
    5f06:	e713      	b.n	5d30 <__aeabi_dadd+0x1d4>
    5f08:	000007ff 	.word	0x000007ff
    5f0c:	ff7fffff 	.word	0xff7fffff
    5f10:	800fffff 	.word	0x800fffff
    5f14:	1c0d      	adds	r5, r1, #0
    5f16:	4325      	orrs	r5, r4
    5f18:	d058      	beq.n	5fcc <__aeabi_dadd+0x470>
    5f1a:	43ff      	mvns	r7, r7
    5f1c:	2f00      	cmp	r7, #0
    5f1e:	d151      	bne.n	5fc4 <__aeabi_dadd+0x468>
    5f20:	1b04      	subs	r4, r0, r4
    5f22:	45a3      	cmp	r11, r4
    5f24:	4192      	sbcs	r2, r2
    5f26:	1a59      	subs	r1, r3, r1
    5f28:	4252      	negs	r2, r2
    5f2a:	1a89      	subs	r1, r1, r2
    5f2c:	4655      	mov	r5, r10
    5f2e:	4666      	mov	r6, r12
    5f30:	e698      	b.n	5c64 <__aeabi_dadd+0x108>
    5f32:	4896      	ldr	r0, [pc, #600]	; (618c <__aeabi_dadd+0x630>)
    5f34:	4285      	cmp	r5, r0
    5f36:	d000      	beq.n	5f3a <__aeabi_dadd+0x3de>
    5f38:	e6dd      	b.n	5cf6 <__aeabi_dadd+0x19a>
    5f3a:	e638      	b.n	5bae <__aeabi_dadd+0x52>
    5f3c:	2700      	movs	r7, #0
    5f3e:	e792      	b.n	5e66 <__aeabi_dadd+0x30a>
    5f40:	2300      	movs	r3, #0
    5f42:	e7a1      	b.n	5e88 <__aeabi_dadd+0x32c>
    5f44:	1c08      	adds	r0, r1, #0
    5f46:	4320      	orrs	r0, r4
    5f48:	2d00      	cmp	r5, #0
    5f4a:	d000      	beq.n	5f4e <__aeabi_dadd+0x3f2>
    5f4c:	e0c0      	b.n	60d0 <__aeabi_dadd+0x574>
    5f4e:	2800      	cmp	r0, #0
    5f50:	d100      	bne.n	5f54 <__aeabi_dadd+0x3f8>
    5f52:	e0fb      	b.n	614c <__aeabi_dadd+0x5f0>
    5f54:	4658      	mov	r0, r11
    5f56:	4318      	orrs	r0, r3
    5f58:	d100      	bne.n	5f5c <__aeabi_dadd+0x400>
    5f5a:	e628      	b.n	5bae <__aeabi_dadd+0x52>
    5f5c:	4658      	mov	r0, r11
    5f5e:	1902      	adds	r2, r0, r4
    5f60:	42a2      	cmp	r2, r4
    5f62:	41a4      	sbcs	r4, r4
    5f64:	4264      	negs	r4, r4
    5f66:	1859      	adds	r1, r3, r1
    5f68:	1909      	adds	r1, r1, r4
    5f6a:	1c14      	adds	r4, r2, #0
    5f6c:	020a      	lsls	r2, r1, #8
    5f6e:	d400      	bmi.n	5f72 <__aeabi_dadd+0x416>
    5f70:	e61d      	b.n	5bae <__aeabi_dadd+0x52>
    5f72:	4b87      	ldr	r3, [pc, #540]	; (6190 <__aeabi_dadd+0x634>)
    5f74:	2501      	movs	r5, #1
    5f76:	4019      	ands	r1, r3
    5f78:	e619      	b.n	5bae <__aeabi_dadd+0x52>
    5f7a:	1c08      	adds	r0, r1, #0
    5f7c:	4320      	orrs	r0, r4
    5f7e:	2d00      	cmp	r5, #0
    5f80:	d139      	bne.n	5ff6 <__aeabi_dadd+0x49a>
    5f82:	2800      	cmp	r0, #0
    5f84:	d16d      	bne.n	6062 <__aeabi_dadd+0x506>
    5f86:	4659      	mov	r1, r11
    5f88:	4319      	orrs	r1, r3
    5f8a:	d100      	bne.n	5f8e <__aeabi_dadd+0x432>
    5f8c:	e0bd      	b.n	610a <__aeabi_dadd+0x5ae>
    5f8e:	1c19      	adds	r1, r3, #0
    5f90:	465c      	mov	r4, r11
    5f92:	4666      	mov	r6, r12
    5f94:	e60b      	b.n	5bae <__aeabi_dadd+0x52>
    5f96:	1c05      	adds	r5, r0, #0
    5f98:	1c2a      	adds	r2, r5, #0
    5f9a:	e7ab      	b.n	5ef4 <__aeabi_dadd+0x398>
    5f9c:	4660      	mov	r0, r12
    5f9e:	3820      	subs	r0, #32
    5fa0:	1c1a      	adds	r2, r3, #0
    5fa2:	40c2      	lsrs	r2, r0
    5fa4:	4660      	mov	r0, r12
    5fa6:	4691      	mov	r9, r2
    5fa8:	2820      	cmp	r0, #32
    5faa:	d100      	bne.n	5fae <__aeabi_dadd+0x452>
    5fac:	e0ab      	b.n	6106 <__aeabi_dadd+0x5aa>
    5fae:	2240      	movs	r2, #64	; 0x40
    5fb0:	1a12      	subs	r2, r2, r0
    5fb2:	4093      	lsls	r3, r2
    5fb4:	465a      	mov	r2, r11
    5fb6:	431a      	orrs	r2, r3
    5fb8:	1e53      	subs	r3, r2, #1
    5fba:	419a      	sbcs	r2, r3
    5fbc:	464b      	mov	r3, r9
    5fbe:	431a      	orrs	r2, r3
    5fc0:	2300      	movs	r3, #0
    5fc2:	e6b5      	b.n	5d30 <__aeabi_dadd+0x1d4>
    5fc4:	4d71      	ldr	r5, [pc, #452]	; (618c <__aeabi_dadd+0x630>)
    5fc6:	45aa      	cmp	r10, r5
    5fc8:	d000      	beq.n	5fcc <__aeabi_dadd+0x470>
    5fca:	e76e      	b.n	5eaa <__aeabi_dadd+0x34e>
    5fcc:	1c19      	adds	r1, r3, #0
    5fce:	465c      	mov	r4, r11
    5fd0:	4655      	mov	r5, r10
    5fd2:	4666      	mov	r6, r12
    5fd4:	e5eb      	b.n	5bae <__aeabi_dadd+0x52>
    5fd6:	2d00      	cmp	r5, #0
    5fd8:	d11e      	bne.n	6018 <__aeabi_dadd+0x4bc>
    5fda:	1c0d      	adds	r5, r1, #0
    5fdc:	4325      	orrs	r5, r4
    5fde:	d073      	beq.n	60c8 <__aeabi_dadd+0x56c>
    5fe0:	43d5      	mvns	r5, r2
    5fe2:	2d00      	cmp	r5, #0
    5fe4:	d16d      	bne.n	60c2 <__aeabi_dadd+0x566>
    5fe6:	445c      	add	r4, r11
    5fe8:	455c      	cmp	r4, r11
    5fea:	4192      	sbcs	r2, r2
    5fec:	1859      	adds	r1, r3, r1
    5fee:	4252      	negs	r2, r2
    5ff0:	1889      	adds	r1, r1, r2
    5ff2:	4655      	mov	r5, r10
    5ff4:	e6a3      	b.n	5d3e <__aeabi_dadd+0x1e2>
    5ff6:	2800      	cmp	r0, #0
    5ff8:	d149      	bne.n	608e <__aeabi_dadd+0x532>
    5ffa:	4659      	mov	r1, r11
    5ffc:	4319      	orrs	r1, r3
    5ffe:	d100      	bne.n	6002 <__aeabi_dadd+0x4a6>
    6000:	e096      	b.n	6130 <__aeabi_dadd+0x5d4>
    6002:	1c19      	adds	r1, r3, #0
    6004:	465c      	mov	r4, r11
    6006:	4666      	mov	r6, r12
    6008:	4d60      	ldr	r5, [pc, #384]	; (618c <__aeabi_dadd+0x630>)
    600a:	e5d0      	b.n	5bae <__aeabi_dadd+0x52>
    600c:	430c      	orrs	r4, r1
    600e:	1e61      	subs	r1, r4, #1
    6010:	418c      	sbcs	r4, r1
    6012:	b2e4      	uxtb	r4, r4
    6014:	2100      	movs	r1, #0
    6016:	e75a      	b.n	5ece <__aeabi_dadd+0x372>
    6018:	4d5c      	ldr	r5, [pc, #368]	; (618c <__aeabi_dadd+0x630>)
    601a:	45aa      	cmp	r10, r5
    601c:	d054      	beq.n	60c8 <__aeabi_dadd+0x56c>
    601e:	4255      	negs	r5, r2
    6020:	2280      	movs	r2, #128	; 0x80
    6022:	0410      	lsls	r0, r2, #16
    6024:	4301      	orrs	r1, r0
    6026:	2d38      	cmp	r5, #56	; 0x38
    6028:	dd00      	ble.n	602c <__aeabi_dadd+0x4d0>
    602a:	e085      	b.n	6138 <__aeabi_dadd+0x5dc>
    602c:	2d1f      	cmp	r5, #31
    602e:	dd00      	ble.n	6032 <__aeabi_dadd+0x4d6>
    6030:	e095      	b.n	615e <__aeabi_dadd+0x602>
    6032:	2220      	movs	r2, #32
    6034:	1b50      	subs	r0, r2, r5
    6036:	1c0a      	adds	r2, r1, #0
    6038:	4684      	mov	r12, r0
    603a:	4082      	lsls	r2, r0
    603c:	1c20      	adds	r0, r4, #0
    603e:	40e8      	lsrs	r0, r5
    6040:	4302      	orrs	r2, r0
    6042:	4690      	mov	r8, r2
    6044:	4662      	mov	r2, r12
    6046:	4094      	lsls	r4, r2
    6048:	1e60      	subs	r0, r4, #1
    604a:	4184      	sbcs	r4, r0
    604c:	4642      	mov	r2, r8
    604e:	4314      	orrs	r4, r2
    6050:	40e9      	lsrs	r1, r5
    6052:	445c      	add	r4, r11
    6054:	455c      	cmp	r4, r11
    6056:	4192      	sbcs	r2, r2
    6058:	18cb      	adds	r3, r1, r3
    605a:	4252      	negs	r2, r2
    605c:	1899      	adds	r1, r3, r2
    605e:	4655      	mov	r5, r10
    6060:	e66d      	b.n	5d3e <__aeabi_dadd+0x1e2>
    6062:	4658      	mov	r0, r11
    6064:	4318      	orrs	r0, r3
    6066:	d100      	bne.n	606a <__aeabi_dadd+0x50e>
    6068:	e5a1      	b.n	5bae <__aeabi_dadd+0x52>
    606a:	4658      	mov	r0, r11
    606c:	1a27      	subs	r7, r4, r0
    606e:	42bc      	cmp	r4, r7
    6070:	4192      	sbcs	r2, r2
    6072:	1ac8      	subs	r0, r1, r3
    6074:	4252      	negs	r2, r2
    6076:	1a80      	subs	r0, r0, r2
    6078:	0202      	lsls	r2, r0, #8
    607a:	d56a      	bpl.n	6152 <__aeabi_dadd+0x5f6>
    607c:	4658      	mov	r0, r11
    607e:	1b04      	subs	r4, r0, r4
    6080:	45a3      	cmp	r11, r4
    6082:	4192      	sbcs	r2, r2
    6084:	1a59      	subs	r1, r3, r1
    6086:	4252      	negs	r2, r2
    6088:	1a89      	subs	r1, r1, r2
    608a:	4666      	mov	r6, r12
    608c:	e58f      	b.n	5bae <__aeabi_dadd+0x52>
    608e:	4658      	mov	r0, r11
    6090:	4318      	orrs	r0, r3
    6092:	d036      	beq.n	6102 <__aeabi_dadd+0x5a6>
    6094:	0748      	lsls	r0, r1, #29
    6096:	08e4      	lsrs	r4, r4, #3
    6098:	4304      	orrs	r4, r0
    609a:	2080      	movs	r0, #128	; 0x80
    609c:	08c9      	lsrs	r1, r1, #3
    609e:	0300      	lsls	r0, r0, #12
    60a0:	4201      	tst	r1, r0
    60a2:	d008      	beq.n	60b6 <__aeabi_dadd+0x55a>
    60a4:	08dd      	lsrs	r5, r3, #3
    60a6:	4205      	tst	r5, r0
    60a8:	d105      	bne.n	60b6 <__aeabi_dadd+0x55a>
    60aa:	4659      	mov	r1, r11
    60ac:	08ca      	lsrs	r2, r1, #3
    60ae:	075c      	lsls	r4, r3, #29
    60b0:	4314      	orrs	r4, r2
    60b2:	1c29      	adds	r1, r5, #0
    60b4:	4666      	mov	r6, r12
    60b6:	0f63      	lsrs	r3, r4, #29
    60b8:	00c9      	lsls	r1, r1, #3
    60ba:	4319      	orrs	r1, r3
    60bc:	00e4      	lsls	r4, r4, #3
    60be:	4d33      	ldr	r5, [pc, #204]	; (618c <__aeabi_dadd+0x630>)
    60c0:	e575      	b.n	5bae <__aeabi_dadd+0x52>
    60c2:	4a32      	ldr	r2, [pc, #200]	; (618c <__aeabi_dadd+0x630>)
    60c4:	4592      	cmp	r10, r2
    60c6:	d1ae      	bne.n	6026 <__aeabi_dadd+0x4ca>
    60c8:	1c19      	adds	r1, r3, #0
    60ca:	465c      	mov	r4, r11
    60cc:	4655      	mov	r5, r10
    60ce:	e56e      	b.n	5bae <__aeabi_dadd+0x52>
    60d0:	2800      	cmp	r0, #0
    60d2:	d037      	beq.n	6144 <__aeabi_dadd+0x5e8>
    60d4:	4658      	mov	r0, r11
    60d6:	4318      	orrs	r0, r3
    60d8:	d013      	beq.n	6102 <__aeabi_dadd+0x5a6>
    60da:	2580      	movs	r5, #128	; 0x80
    60dc:	0748      	lsls	r0, r1, #29
    60de:	08e4      	lsrs	r4, r4, #3
    60e0:	08c9      	lsrs	r1, r1, #3
    60e2:	032d      	lsls	r5, r5, #12
    60e4:	4304      	orrs	r4, r0
    60e6:	4229      	tst	r1, r5
    60e8:	d0e5      	beq.n	60b6 <__aeabi_dadd+0x55a>
    60ea:	08d8      	lsrs	r0, r3, #3
    60ec:	4228      	tst	r0, r5
    60ee:	d1e2      	bne.n	60b6 <__aeabi_dadd+0x55a>
    60f0:	465d      	mov	r5, r11
    60f2:	08ea      	lsrs	r2, r5, #3
    60f4:	075c      	lsls	r4, r3, #29
    60f6:	4314      	orrs	r4, r2
    60f8:	1c01      	adds	r1, r0, #0
    60fa:	e7dc      	b.n	60b6 <__aeabi_dadd+0x55a>
    60fc:	2300      	movs	r3, #0
    60fe:	2400      	movs	r4, #0
    6100:	e573      	b.n	5bea <__aeabi_dadd+0x8e>
    6102:	4d22      	ldr	r5, [pc, #136]	; (618c <__aeabi_dadd+0x630>)
    6104:	e553      	b.n	5bae <__aeabi_dadd+0x52>
    6106:	2300      	movs	r3, #0
    6108:	e754      	b.n	5fb4 <__aeabi_dadd+0x458>
    610a:	2700      	movs	r7, #0
    610c:	2200      	movs	r2, #0
    610e:	e6f1      	b.n	5ef4 <__aeabi_dadd+0x398>
    6110:	1c3d      	adds	r5, r7, #0
    6112:	3d20      	subs	r5, #32
    6114:	1c0a      	adds	r2, r1, #0
    6116:	40ea      	lsrs	r2, r5
    6118:	1c15      	adds	r5, r2, #0
    611a:	2f20      	cmp	r7, #32
    611c:	d031      	beq.n	6182 <__aeabi_dadd+0x626>
    611e:	2640      	movs	r6, #64	; 0x40
    6120:	1bf7      	subs	r7, r6, r7
    6122:	40b9      	lsls	r1, r7
    6124:	430c      	orrs	r4, r1
    6126:	1e61      	subs	r1, r4, #1
    6128:	418c      	sbcs	r4, r1
    612a:	432c      	orrs	r4, r5
    612c:	2100      	movs	r1, #0
    612e:	e6ce      	b.n	5ece <__aeabi_dadd+0x372>
    6130:	4a16      	ldr	r2, [pc, #88]	; (618c <__aeabi_dadd+0x630>)
    6132:	2700      	movs	r7, #0
    6134:	1c15      	adds	r5, r2, #0
    6136:	e6dd      	b.n	5ef4 <__aeabi_dadd+0x398>
    6138:	430c      	orrs	r4, r1
    613a:	1e61      	subs	r1, r4, #1
    613c:	418c      	sbcs	r4, r1
    613e:	b2e4      	uxtb	r4, r4
    6140:	2100      	movs	r1, #0
    6142:	e786      	b.n	6052 <__aeabi_dadd+0x4f6>
    6144:	1c19      	adds	r1, r3, #0
    6146:	465c      	mov	r4, r11
    6148:	4d10      	ldr	r5, [pc, #64]	; (618c <__aeabi_dadd+0x630>)
    614a:	e530      	b.n	5bae <__aeabi_dadd+0x52>
    614c:	1c19      	adds	r1, r3, #0
    614e:	465c      	mov	r4, r11
    6150:	e52d      	b.n	5bae <__aeabi_dadd+0x52>
    6152:	1c03      	adds	r3, r0, #0
    6154:	433b      	orrs	r3, r7
    6156:	d0d8      	beq.n	610a <__aeabi_dadd+0x5ae>
    6158:	1c01      	adds	r1, r0, #0
    615a:	1c3c      	adds	r4, r7, #0
    615c:	e527      	b.n	5bae <__aeabi_dadd+0x52>
    615e:	2020      	movs	r0, #32
    6160:	4240      	negs	r0, r0
    6162:	1940      	adds	r0, r0, r5
    6164:	1c0a      	adds	r2, r1, #0
    6166:	40c2      	lsrs	r2, r0
    6168:	4690      	mov	r8, r2
    616a:	2d20      	cmp	r5, #32
    616c:	d00b      	beq.n	6186 <__aeabi_dadd+0x62a>
    616e:	2040      	movs	r0, #64	; 0x40
    6170:	1b45      	subs	r5, r0, r5
    6172:	40a9      	lsls	r1, r5
    6174:	430c      	orrs	r4, r1
    6176:	1e61      	subs	r1, r4, #1
    6178:	418c      	sbcs	r4, r1
    617a:	4645      	mov	r5, r8
    617c:	432c      	orrs	r4, r5
    617e:	2100      	movs	r1, #0
    6180:	e767      	b.n	6052 <__aeabi_dadd+0x4f6>
    6182:	2100      	movs	r1, #0
    6184:	e7ce      	b.n	6124 <__aeabi_dadd+0x5c8>
    6186:	2100      	movs	r1, #0
    6188:	e7f4      	b.n	6174 <__aeabi_dadd+0x618>
    618a:	46c0      	nop			; (mov r8, r8)
    618c:	000007ff 	.word	0x000007ff
    6190:	ff7fffff 	.word	0xff7fffff

00006194 <__eqdf2>:
    6194:	b5f0      	push	{r4, r5, r6, r7, lr}
    6196:	465f      	mov	r7, r11
    6198:	4656      	mov	r6, r10
    619a:	464d      	mov	r5, r9
    619c:	4644      	mov	r4, r8
    619e:	b4f0      	push	{r4, r5, r6, r7}
    61a0:	1c0d      	adds	r5, r1, #0
    61a2:	1c04      	adds	r4, r0, #0
    61a4:	4680      	mov	r8, r0
    61a6:	0fe8      	lsrs	r0, r5, #31
    61a8:	4681      	mov	r9, r0
    61aa:	0318      	lsls	r0, r3, #12
    61ac:	030f      	lsls	r7, r1, #12
    61ae:	0b00      	lsrs	r0, r0, #12
    61b0:	0b3f      	lsrs	r7, r7, #12
    61b2:	b083      	sub	sp, #12
    61b4:	4684      	mov	r12, r0
    61b6:	481b      	ldr	r0, [pc, #108]	; (6224 <__eqdf2+0x90>)
    61b8:	9700      	str	r7, [sp, #0]
    61ba:	0049      	lsls	r1, r1, #1
    61bc:	005e      	lsls	r6, r3, #1
    61be:	0fdf      	lsrs	r7, r3, #31
    61c0:	0d49      	lsrs	r1, r1, #21
    61c2:	4692      	mov	r10, r2
    61c4:	0d76      	lsrs	r6, r6, #21
    61c6:	46bb      	mov	r11, r7
    61c8:	4281      	cmp	r1, r0
    61ca:	d00c      	beq.n	61e6 <__eqdf2+0x52>
    61cc:	4815      	ldr	r0, [pc, #84]	; (6224 <__eqdf2+0x90>)
    61ce:	4286      	cmp	r6, r0
    61d0:	d010      	beq.n	61f4 <__eqdf2+0x60>
    61d2:	2001      	movs	r0, #1
    61d4:	42b1      	cmp	r1, r6
    61d6:	d015      	beq.n	6204 <__eqdf2+0x70>
    61d8:	b003      	add	sp, #12
    61da:	bc3c      	pop	{r2, r3, r4, r5}
    61dc:	4690      	mov	r8, r2
    61de:	4699      	mov	r9, r3
    61e0:	46a2      	mov	r10, r4
    61e2:	46ab      	mov	r11, r5
    61e4:	bdf0      	pop	{r4, r5, r6, r7, pc}
    61e6:	9f00      	ldr	r7, [sp, #0]
    61e8:	2001      	movs	r0, #1
    61ea:	4327      	orrs	r7, r4
    61ec:	d1f4      	bne.n	61d8 <__eqdf2+0x44>
    61ee:	480d      	ldr	r0, [pc, #52]	; (6224 <__eqdf2+0x90>)
    61f0:	4286      	cmp	r6, r0
    61f2:	d1ee      	bne.n	61d2 <__eqdf2+0x3e>
    61f4:	4660      	mov	r0, r12
    61f6:	4302      	orrs	r2, r0
    61f8:	2001      	movs	r0, #1
    61fa:	2a00      	cmp	r2, #0
    61fc:	d1ec      	bne.n	61d8 <__eqdf2+0x44>
    61fe:	2001      	movs	r0, #1
    6200:	42b1      	cmp	r1, r6
    6202:	d1e9      	bne.n	61d8 <__eqdf2+0x44>
    6204:	9b00      	ldr	r3, [sp, #0]
    6206:	4563      	cmp	r3, r12
    6208:	d1e6      	bne.n	61d8 <__eqdf2+0x44>
    620a:	45d0      	cmp	r8, r10
    620c:	d1e4      	bne.n	61d8 <__eqdf2+0x44>
    620e:	45d9      	cmp	r9, r11
    6210:	d006      	beq.n	6220 <__eqdf2+0x8c>
    6212:	2900      	cmp	r1, #0
    6214:	d1e0      	bne.n	61d8 <__eqdf2+0x44>
    6216:	431c      	orrs	r4, r3
    6218:	1c20      	adds	r0, r4, #0
    621a:	1e44      	subs	r4, r0, #1
    621c:	41a0      	sbcs	r0, r4
    621e:	e7db      	b.n	61d8 <__eqdf2+0x44>
    6220:	2000      	movs	r0, #0
    6222:	e7d9      	b.n	61d8 <__eqdf2+0x44>
    6224:	000007ff 	.word	0x000007ff

00006228 <__gedf2>:
    6228:	b5f0      	push	{r4, r5, r6, r7, lr}
    622a:	465f      	mov	r7, r11
    622c:	4656      	mov	r6, r10
    622e:	464d      	mov	r5, r9
    6230:	4644      	mov	r4, r8
    6232:	b4f0      	push	{r4, r5, r6, r7}
    6234:	0fcd      	lsrs	r5, r1, #31
    6236:	0fde      	lsrs	r6, r3, #31
    6238:	46ac      	mov	r12, r5
    623a:	031d      	lsls	r5, r3, #12
    623c:	0b2d      	lsrs	r5, r5, #12
    623e:	46b1      	mov	r9, r6
    6240:	4e37      	ldr	r6, [pc, #220]	; (6320 <__gedf2+0xf8>)
    6242:	030f      	lsls	r7, r1, #12
    6244:	004c      	lsls	r4, r1, #1
    6246:	46ab      	mov	r11, r5
    6248:	005d      	lsls	r5, r3, #1
    624a:	4680      	mov	r8, r0
    624c:	0b3f      	lsrs	r7, r7, #12
    624e:	0d64      	lsrs	r4, r4, #21
    6250:	4692      	mov	r10, r2
    6252:	0d6d      	lsrs	r5, r5, #21
    6254:	42b4      	cmp	r4, r6
    6256:	d032      	beq.n	62be <__gedf2+0x96>
    6258:	4e31      	ldr	r6, [pc, #196]	; (6320 <__gedf2+0xf8>)
    625a:	42b5      	cmp	r5, r6
    625c:	d035      	beq.n	62ca <__gedf2+0xa2>
    625e:	2c00      	cmp	r4, #0
    6260:	d10e      	bne.n	6280 <__gedf2+0x58>
    6262:	4338      	orrs	r0, r7
    6264:	4241      	negs	r1, r0
    6266:	4141      	adcs	r1, r0
    6268:	1c08      	adds	r0, r1, #0
    626a:	2d00      	cmp	r5, #0
    626c:	d00b      	beq.n	6286 <__gedf2+0x5e>
    626e:	2900      	cmp	r1, #0
    6270:	d119      	bne.n	62a6 <__gedf2+0x7e>
    6272:	45cc      	cmp	r12, r9
    6274:	d02d      	beq.n	62d2 <__gedf2+0xaa>
    6276:	4665      	mov	r5, r12
    6278:	4268      	negs	r0, r5
    627a:	2301      	movs	r3, #1
    627c:	4318      	orrs	r0, r3
    627e:	e018      	b.n	62b2 <__gedf2+0x8a>
    6280:	2d00      	cmp	r5, #0
    6282:	d1f6      	bne.n	6272 <__gedf2+0x4a>
    6284:	1c28      	adds	r0, r5, #0
    6286:	4659      	mov	r1, r11
    6288:	430a      	orrs	r2, r1
    628a:	4253      	negs	r3, r2
    628c:	4153      	adcs	r3, r2
    628e:	2800      	cmp	r0, #0
    6290:	d106      	bne.n	62a0 <__gedf2+0x78>
    6292:	2b00      	cmp	r3, #0
    6294:	d0ed      	beq.n	6272 <__gedf2+0x4a>
    6296:	4663      	mov	r3, r12
    6298:	4258      	negs	r0, r3
    629a:	2301      	movs	r3, #1
    629c:	4318      	orrs	r0, r3
    629e:	e008      	b.n	62b2 <__gedf2+0x8a>
    62a0:	2000      	movs	r0, #0
    62a2:	2b00      	cmp	r3, #0
    62a4:	d105      	bne.n	62b2 <__gedf2+0x8a>
    62a6:	464a      	mov	r2, r9
    62a8:	4250      	negs	r0, r2
    62aa:	4150      	adcs	r0, r2
    62ac:	4240      	negs	r0, r0
    62ae:	2301      	movs	r3, #1
    62b0:	4318      	orrs	r0, r3
    62b2:	bc3c      	pop	{r2, r3, r4, r5}
    62b4:	4690      	mov	r8, r2
    62b6:	4699      	mov	r9, r3
    62b8:	46a2      	mov	r10, r4
    62ba:	46ab      	mov	r11, r5
    62bc:	bdf0      	pop	{r4, r5, r6, r7, pc}
    62be:	1c3e      	adds	r6, r7, #0
    62c0:	4306      	orrs	r6, r0
    62c2:	d0c9      	beq.n	6258 <__gedf2+0x30>
    62c4:	2002      	movs	r0, #2
    62c6:	4240      	negs	r0, r0
    62c8:	e7f3      	b.n	62b2 <__gedf2+0x8a>
    62ca:	465e      	mov	r6, r11
    62cc:	4316      	orrs	r6, r2
    62ce:	d0c6      	beq.n	625e <__gedf2+0x36>
    62d0:	e7f8      	b.n	62c4 <__gedf2+0x9c>
    62d2:	42ac      	cmp	r4, r5
    62d4:	dc07      	bgt.n	62e6 <__gedf2+0xbe>
    62d6:	da0b      	bge.n	62f0 <__gedf2+0xc8>
    62d8:	4661      	mov	r1, r12
    62da:	4248      	negs	r0, r1
    62dc:	4148      	adcs	r0, r1
    62de:	4240      	negs	r0, r0
    62e0:	2301      	movs	r3, #1
    62e2:	4318      	orrs	r0, r3
    62e4:	e7e5      	b.n	62b2 <__gedf2+0x8a>
    62e6:	4666      	mov	r6, r12
    62e8:	4270      	negs	r0, r6
    62ea:	2301      	movs	r3, #1
    62ec:	4318      	orrs	r0, r3
    62ee:	e7e0      	b.n	62b2 <__gedf2+0x8a>
    62f0:	455f      	cmp	r7, r11
    62f2:	d80a      	bhi.n	630a <__gedf2+0xe2>
    62f4:	d00e      	beq.n	6314 <__gedf2+0xec>
    62f6:	2000      	movs	r0, #0
    62f8:	455f      	cmp	r7, r11
    62fa:	d2da      	bcs.n	62b2 <__gedf2+0x8a>
    62fc:	4665      	mov	r5, r12
    62fe:	4268      	negs	r0, r5
    6300:	4168      	adcs	r0, r5
    6302:	4240      	negs	r0, r0
    6304:	2301      	movs	r3, #1
    6306:	4318      	orrs	r0, r3
    6308:	e7d3      	b.n	62b2 <__gedf2+0x8a>
    630a:	4662      	mov	r2, r12
    630c:	4250      	negs	r0, r2
    630e:	2301      	movs	r3, #1
    6310:	4318      	orrs	r0, r3
    6312:	e7ce      	b.n	62b2 <__gedf2+0x8a>
    6314:	45d0      	cmp	r8, r10
    6316:	d8f8      	bhi.n	630a <__gedf2+0xe2>
    6318:	2000      	movs	r0, #0
    631a:	45d0      	cmp	r8, r10
    631c:	d3ee      	bcc.n	62fc <__gedf2+0xd4>
    631e:	e7c8      	b.n	62b2 <__gedf2+0x8a>
    6320:	000007ff 	.word	0x000007ff

00006324 <__ledf2>:
    6324:	b5f0      	push	{r4, r5, r6, r7, lr}
    6326:	4656      	mov	r6, r10
    6328:	464d      	mov	r5, r9
    632a:	4644      	mov	r4, r8
    632c:	465f      	mov	r7, r11
    632e:	b4f0      	push	{r4, r5, r6, r7}
    6330:	1c0d      	adds	r5, r1, #0
    6332:	b083      	sub	sp, #12
    6334:	1c04      	adds	r4, r0, #0
    6336:	9001      	str	r0, [sp, #4]
    6338:	0fe8      	lsrs	r0, r5, #31
    633a:	4681      	mov	r9, r0
    633c:	0318      	lsls	r0, r3, #12
    633e:	030f      	lsls	r7, r1, #12
    6340:	0b00      	lsrs	r0, r0, #12
    6342:	0b3f      	lsrs	r7, r7, #12
    6344:	4684      	mov	r12, r0
    6346:	4835      	ldr	r0, [pc, #212]	; (641c <__ledf2+0xf8>)
    6348:	9700      	str	r7, [sp, #0]
    634a:	0049      	lsls	r1, r1, #1
    634c:	005e      	lsls	r6, r3, #1
    634e:	0fdf      	lsrs	r7, r3, #31
    6350:	0d49      	lsrs	r1, r1, #21
    6352:	4692      	mov	r10, r2
    6354:	0d76      	lsrs	r6, r6, #21
    6356:	46b8      	mov	r8, r7
    6358:	4281      	cmp	r1, r0
    635a:	d034      	beq.n	63c6 <__ledf2+0xa2>
    635c:	482f      	ldr	r0, [pc, #188]	; (641c <__ledf2+0xf8>)
    635e:	4286      	cmp	r6, r0
    6360:	d036      	beq.n	63d0 <__ledf2+0xac>
    6362:	2900      	cmp	r1, #0
    6364:	d018      	beq.n	6398 <__ledf2+0x74>
    6366:	2e00      	cmp	r6, #0
    6368:	d11f      	bne.n	63aa <__ledf2+0x86>
    636a:	1c34      	adds	r4, r6, #0
    636c:	4667      	mov	r7, r12
    636e:	433a      	orrs	r2, r7
    6370:	4253      	negs	r3, r2
    6372:	4153      	adcs	r3, r2
    6374:	2c00      	cmp	r4, #0
    6376:	d01f      	beq.n	63b8 <__ledf2+0x94>
    6378:	2000      	movs	r0, #0
    637a:	2b00      	cmp	r3, #0
    637c:	d105      	bne.n	638a <__ledf2+0x66>
    637e:	4642      	mov	r2, r8
    6380:	4250      	negs	r0, r2
    6382:	4150      	adcs	r0, r2
    6384:	4240      	negs	r0, r0
    6386:	2301      	movs	r3, #1
    6388:	4318      	orrs	r0, r3
    638a:	b003      	add	sp, #12
    638c:	bc3c      	pop	{r2, r3, r4, r5}
    638e:	4690      	mov	r8, r2
    6390:	4699      	mov	r9, r3
    6392:	46a2      	mov	r10, r4
    6394:	46ab      	mov	r11, r5
    6396:	bdf0      	pop	{r4, r5, r6, r7, pc}
    6398:	9800      	ldr	r0, [sp, #0]
    639a:	4304      	orrs	r4, r0
    639c:	4260      	negs	r0, r4
    639e:	4160      	adcs	r0, r4
    63a0:	1c04      	adds	r4, r0, #0
    63a2:	2e00      	cmp	r6, #0
    63a4:	d0e2      	beq.n	636c <__ledf2+0x48>
    63a6:	2800      	cmp	r0, #0
    63a8:	d1e9      	bne.n	637e <__ledf2+0x5a>
    63aa:	45c1      	cmp	r9, r8
    63ac:	d015      	beq.n	63da <__ledf2+0xb6>
    63ae:	464f      	mov	r7, r9
    63b0:	4278      	negs	r0, r7
    63b2:	2301      	movs	r3, #1
    63b4:	4318      	orrs	r0, r3
    63b6:	e7e8      	b.n	638a <__ledf2+0x66>
    63b8:	2b00      	cmp	r3, #0
    63ba:	d0f6      	beq.n	63aa <__ledf2+0x86>
    63bc:	464b      	mov	r3, r9
    63be:	4258      	negs	r0, r3
    63c0:	2301      	movs	r3, #1
    63c2:	4318      	orrs	r0, r3
    63c4:	e7e1      	b.n	638a <__ledf2+0x66>
    63c6:	9f00      	ldr	r7, [sp, #0]
    63c8:	2002      	movs	r0, #2
    63ca:	4327      	orrs	r7, r4
    63cc:	d1dd      	bne.n	638a <__ledf2+0x66>
    63ce:	e7c5      	b.n	635c <__ledf2+0x38>
    63d0:	4667      	mov	r7, r12
    63d2:	2002      	movs	r0, #2
    63d4:	4317      	orrs	r7, r2
    63d6:	d1d8      	bne.n	638a <__ledf2+0x66>
    63d8:	e7c3      	b.n	6362 <__ledf2+0x3e>
    63da:	42b1      	cmp	r1, r6
    63dc:	dd04      	ble.n	63e8 <__ledf2+0xc4>
    63de:	464a      	mov	r2, r9
    63e0:	4250      	negs	r0, r2
    63e2:	2301      	movs	r3, #1
    63e4:	4318      	orrs	r0, r3
    63e6:	e7d0      	b.n	638a <__ledf2+0x66>
    63e8:	42b1      	cmp	r1, r6
    63ea:	db07      	blt.n	63fc <__ledf2+0xd8>
    63ec:	9800      	ldr	r0, [sp, #0]
    63ee:	4560      	cmp	r0, r12
    63f0:	d8e4      	bhi.n	63bc <__ledf2+0x98>
    63f2:	d00a      	beq.n	640a <__ledf2+0xe6>
    63f4:	9f00      	ldr	r7, [sp, #0]
    63f6:	2000      	movs	r0, #0
    63f8:	4567      	cmp	r7, r12
    63fa:	d2c6      	bcs.n	638a <__ledf2+0x66>
    63fc:	464f      	mov	r7, r9
    63fe:	4278      	negs	r0, r7
    6400:	4178      	adcs	r0, r7
    6402:	4240      	negs	r0, r0
    6404:	2301      	movs	r3, #1
    6406:	4318      	orrs	r0, r3
    6408:	e7bf      	b.n	638a <__ledf2+0x66>
    640a:	9a01      	ldr	r2, [sp, #4]
    640c:	4552      	cmp	r2, r10
    640e:	d8d5      	bhi.n	63bc <__ledf2+0x98>
    6410:	9a01      	ldr	r2, [sp, #4]
    6412:	2000      	movs	r0, #0
    6414:	4552      	cmp	r2, r10
    6416:	d3f1      	bcc.n	63fc <__ledf2+0xd8>
    6418:	e7b7      	b.n	638a <__ledf2+0x66>
    641a:	46c0      	nop			; (mov r8, r8)
    641c:	000007ff 	.word	0x000007ff

00006420 <__aeabi_dsub>:
    6420:	b5f8      	push	{r3, r4, r5, r6, r7, lr}
    6422:	465f      	mov	r7, r11
    6424:	4656      	mov	r6, r10
    6426:	4644      	mov	r4, r8
    6428:	464d      	mov	r5, r9
    642a:	b4f0      	push	{r4, r5, r6, r7}
    642c:	030c      	lsls	r4, r1, #12
    642e:	004d      	lsls	r5, r1, #1
    6430:	0fcf      	lsrs	r7, r1, #31
    6432:	0a61      	lsrs	r1, r4, #9
    6434:	0f44      	lsrs	r4, r0, #29
    6436:	4321      	orrs	r1, r4
    6438:	00c4      	lsls	r4, r0, #3
    643a:	0318      	lsls	r0, r3, #12
    643c:	0fde      	lsrs	r6, r3, #31
    643e:	4680      	mov	r8, r0
    6440:	46b4      	mov	r12, r6
    6442:	4646      	mov	r6, r8
    6444:	0058      	lsls	r0, r3, #1
    6446:	0a76      	lsrs	r6, r6, #9
    6448:	0f53      	lsrs	r3, r2, #29
    644a:	4333      	orrs	r3, r6
    644c:	00d6      	lsls	r6, r2, #3
    644e:	4ac9      	ldr	r2, [pc, #804]	; (6774 <__aeabi_dsub+0x354>)
    6450:	0d6d      	lsrs	r5, r5, #21
    6452:	46ba      	mov	r10, r7
    6454:	0d40      	lsrs	r0, r0, #21
    6456:	46b3      	mov	r11, r6
    6458:	4290      	cmp	r0, r2
    645a:	d100      	bne.n	645e <__aeabi_dsub+0x3e>
    645c:	e0eb      	b.n	6636 <__aeabi_dsub+0x216>
    645e:	4662      	mov	r2, r12
    6460:	2601      	movs	r6, #1
    6462:	4072      	eors	r2, r6
    6464:	4694      	mov	r12, r2
    6466:	4567      	cmp	r7, r12
    6468:	d100      	bne.n	646c <__aeabi_dsub+0x4c>
    646a:	e0a1      	b.n	65b0 <__aeabi_dsub+0x190>
    646c:	1a2f      	subs	r7, r5, r0
    646e:	2f00      	cmp	r7, #0
    6470:	dc00      	bgt.n	6474 <__aeabi_dsub+0x54>
    6472:	e108      	b.n	6686 <__aeabi_dsub+0x266>
    6474:	2800      	cmp	r0, #0
    6476:	d13b      	bne.n	64f0 <__aeabi_dsub+0xd0>
    6478:	4658      	mov	r0, r11
    647a:	4318      	orrs	r0, r3
    647c:	d000      	beq.n	6480 <__aeabi_dsub+0x60>
    647e:	e0e8      	b.n	6652 <__aeabi_dsub+0x232>
    6480:	0760      	lsls	r0, r4, #29
    6482:	d009      	beq.n	6498 <__aeabi_dsub+0x78>
    6484:	230f      	movs	r3, #15
    6486:	4023      	ands	r3, r4
    6488:	2b04      	cmp	r3, #4
    648a:	d005      	beq.n	6498 <__aeabi_dsub+0x78>
    648c:	1d23      	adds	r3, r4, #4
    648e:	42a3      	cmp	r3, r4
    6490:	41a4      	sbcs	r4, r4
    6492:	4264      	negs	r4, r4
    6494:	1909      	adds	r1, r1, r4
    6496:	1c1c      	adds	r4, r3, #0
    6498:	020a      	lsls	r2, r1, #8
    649a:	d400      	bmi.n	649e <__aeabi_dsub+0x7e>
    649c:	e079      	b.n	6592 <__aeabi_dsub+0x172>
    649e:	4bb5      	ldr	r3, [pc, #724]	; (6774 <__aeabi_dsub+0x354>)
    64a0:	1c6a      	adds	r2, r5, #1
    64a2:	429a      	cmp	r2, r3
    64a4:	d100      	bne.n	64a8 <__aeabi_dsub+0x88>
    64a6:	e109      	b.n	66bc <__aeabi_dsub+0x29c>
    64a8:	4bb3      	ldr	r3, [pc, #716]	; (6778 <__aeabi_dsub+0x358>)
    64aa:	08e4      	lsrs	r4, r4, #3
    64ac:	4019      	ands	r1, r3
    64ae:	0748      	lsls	r0, r1, #29
    64b0:	4304      	orrs	r4, r0
    64b2:	0249      	lsls	r1, r1, #9
    64b4:	0552      	lsls	r2, r2, #21
    64b6:	2701      	movs	r7, #1
    64b8:	4650      	mov	r0, r10
    64ba:	0b0b      	lsrs	r3, r1, #12
    64bc:	0d52      	lsrs	r2, r2, #21
    64be:	4007      	ands	r7, r0
    64c0:	2000      	movs	r0, #0
    64c2:	2100      	movs	r1, #0
    64c4:	031b      	lsls	r3, r3, #12
    64c6:	1c20      	adds	r0, r4, #0
    64c8:	0b1c      	lsrs	r4, r3, #12
    64ca:	0d0b      	lsrs	r3, r1, #20
    64cc:	051b      	lsls	r3, r3, #20
    64ce:	4dab      	ldr	r5, [pc, #684]	; (677c <__aeabi_dsub+0x35c>)
    64d0:	4323      	orrs	r3, r4
    64d2:	0552      	lsls	r2, r2, #21
    64d4:	0852      	lsrs	r2, r2, #1
    64d6:	401d      	ands	r5, r3
    64d8:	4315      	orrs	r5, r2
    64da:	006d      	lsls	r5, r5, #1
    64dc:	086d      	lsrs	r5, r5, #1
    64de:	07ff      	lsls	r7, r7, #31
    64e0:	1c29      	adds	r1, r5, #0
    64e2:	4339      	orrs	r1, r7
    64e4:	bc3c      	pop	{r2, r3, r4, r5}
    64e6:	4690      	mov	r8, r2
    64e8:	4699      	mov	r9, r3
    64ea:	46a2      	mov	r10, r4
    64ec:	46ab      	mov	r11, r5
    64ee:	bdf8      	pop	{r3, r4, r5, r6, r7, pc}
    64f0:	48a0      	ldr	r0, [pc, #640]	; (6774 <__aeabi_dsub+0x354>)
    64f2:	4285      	cmp	r5, r0
    64f4:	d0c4      	beq.n	6480 <__aeabi_dsub+0x60>
    64f6:	2080      	movs	r0, #128	; 0x80
    64f8:	0400      	lsls	r0, r0, #16
    64fa:	4303      	orrs	r3, r0
    64fc:	2f38      	cmp	r7, #56	; 0x38
    64fe:	dd00      	ble.n	6502 <__aeabi_dsub+0xe2>
    6500:	e0f0      	b.n	66e4 <__aeabi_dsub+0x2c4>
    6502:	2f1f      	cmp	r7, #31
    6504:	dd00      	ble.n	6508 <__aeabi_dsub+0xe8>
    6506:	e124      	b.n	6752 <__aeabi_dsub+0x332>
    6508:	2020      	movs	r0, #32
    650a:	1bc0      	subs	r0, r0, r7
    650c:	1c1a      	adds	r2, r3, #0
    650e:	465e      	mov	r6, r11
    6510:	4082      	lsls	r2, r0
    6512:	40fe      	lsrs	r6, r7
    6514:	4332      	orrs	r2, r6
    6516:	4694      	mov	r12, r2
    6518:	465a      	mov	r2, r11
    651a:	4082      	lsls	r2, r0
    651c:	1c10      	adds	r0, r2, #0
    651e:	1e42      	subs	r2, r0, #1
    6520:	4190      	sbcs	r0, r2
    6522:	40fb      	lsrs	r3, r7
    6524:	4662      	mov	r2, r12
    6526:	4302      	orrs	r2, r0
    6528:	1c1f      	adds	r7, r3, #0
    652a:	1aa2      	subs	r2, r4, r2
    652c:	4294      	cmp	r4, r2
    652e:	41a4      	sbcs	r4, r4
    6530:	4264      	negs	r4, r4
    6532:	1bc9      	subs	r1, r1, r7
    6534:	1b09      	subs	r1, r1, r4
    6536:	1c14      	adds	r4, r2, #0
    6538:	020a      	lsls	r2, r1, #8
    653a:	d5a1      	bpl.n	6480 <__aeabi_dsub+0x60>
    653c:	0249      	lsls	r1, r1, #9
    653e:	0a4f      	lsrs	r7, r1, #9
    6540:	2f00      	cmp	r7, #0
    6542:	d100      	bne.n	6546 <__aeabi_dsub+0x126>
    6544:	e0c9      	b.n	66da <__aeabi_dsub+0x2ba>
    6546:	1c38      	adds	r0, r7, #0
    6548:	f7fd f8c8 	bl	36dc <__clzsi2>
    654c:	1c02      	adds	r2, r0, #0
    654e:	3a08      	subs	r2, #8
    6550:	2a1f      	cmp	r2, #31
    6552:	dd00      	ble.n	6556 <__aeabi_dsub+0x136>
    6554:	e0bc      	b.n	66d0 <__aeabi_dsub+0x2b0>
    6556:	2128      	movs	r1, #40	; 0x28
    6558:	1c23      	adds	r3, r4, #0
    655a:	1a09      	subs	r1, r1, r0
    655c:	4097      	lsls	r7, r2
    655e:	40cb      	lsrs	r3, r1
    6560:	431f      	orrs	r7, r3
    6562:	4094      	lsls	r4, r2
    6564:	4295      	cmp	r5, r2
    6566:	dd00      	ble.n	656a <__aeabi_dsub+0x14a>
    6568:	e0ae      	b.n	66c8 <__aeabi_dsub+0x2a8>
    656a:	1b55      	subs	r5, r2, r5
    656c:	1c69      	adds	r1, r5, #1
    656e:	291f      	cmp	r1, #31
    6570:	dd00      	ble.n	6574 <__aeabi_dsub+0x154>
    6572:	e0dd      	b.n	6730 <__aeabi_dsub+0x310>
    6574:	221f      	movs	r2, #31
    6576:	1b55      	subs	r5, r2, r5
    6578:	1c3b      	adds	r3, r7, #0
    657a:	1c22      	adds	r2, r4, #0
    657c:	40ab      	lsls	r3, r5
    657e:	40ca      	lsrs	r2, r1
    6580:	40ac      	lsls	r4, r5
    6582:	1e65      	subs	r5, r4, #1
    6584:	41ac      	sbcs	r4, r5
    6586:	4313      	orrs	r3, r2
    6588:	40cf      	lsrs	r7, r1
    658a:	431c      	orrs	r4, r3
    658c:	1c39      	adds	r1, r7, #0
    658e:	2500      	movs	r5, #0
    6590:	e776      	b.n	6480 <__aeabi_dsub+0x60>
    6592:	0748      	lsls	r0, r1, #29
    6594:	08e4      	lsrs	r4, r4, #3
    6596:	056a      	lsls	r2, r5, #21
    6598:	2701      	movs	r7, #1
    659a:	4656      	mov	r6, r10
    659c:	08c9      	lsrs	r1, r1, #3
    659e:	0d52      	lsrs	r2, r2, #21
    65a0:	4037      	ands	r7, r6
    65a2:	4304      	orrs	r4, r0
    65a4:	4b73      	ldr	r3, [pc, #460]	; (6774 <__aeabi_dsub+0x354>)
    65a6:	429d      	cmp	r5, r3
    65a8:	d049      	beq.n	663e <__aeabi_dsub+0x21e>
    65aa:	0309      	lsls	r1, r1, #12
    65ac:	0b0b      	lsrs	r3, r1, #12
    65ae:	e787      	b.n	64c0 <__aeabi_dsub+0xa0>
    65b0:	1a2a      	subs	r2, r5, r0
    65b2:	4694      	mov	r12, r2
    65b4:	2a00      	cmp	r2, #0
    65b6:	dc00      	bgt.n	65ba <__aeabi_dsub+0x19a>
    65b8:	e09b      	b.n	66f2 <__aeabi_dsub+0x2d2>
    65ba:	2800      	cmp	r0, #0
    65bc:	d055      	beq.n	666a <__aeabi_dsub+0x24a>
    65be:	486d      	ldr	r0, [pc, #436]	; (6774 <__aeabi_dsub+0x354>)
    65c0:	4285      	cmp	r5, r0
    65c2:	d100      	bne.n	65c6 <__aeabi_dsub+0x1a6>
    65c4:	e75c      	b.n	6480 <__aeabi_dsub+0x60>
    65c6:	2080      	movs	r0, #128	; 0x80
    65c8:	0400      	lsls	r0, r0, #16
    65ca:	4303      	orrs	r3, r0
    65cc:	4660      	mov	r0, r12
    65ce:	2838      	cmp	r0, #56	; 0x38
    65d0:	dd00      	ble.n	65d4 <__aeabi_dsub+0x1b4>
    65d2:	e109      	b.n	67e8 <__aeabi_dsub+0x3c8>
    65d4:	281f      	cmp	r0, #31
    65d6:	dd00      	ble.n	65da <__aeabi_dsub+0x1ba>
    65d8:	e150      	b.n	687c <__aeabi_dsub+0x45c>
    65da:	4662      	mov	r2, r12
    65dc:	2020      	movs	r0, #32
    65de:	1a80      	subs	r0, r0, r2
    65e0:	1c1e      	adds	r6, r3, #0
    65e2:	4086      	lsls	r6, r0
    65e4:	46b1      	mov	r9, r6
    65e6:	465e      	mov	r6, r11
    65e8:	40d6      	lsrs	r6, r2
    65ea:	464a      	mov	r2, r9
    65ec:	4332      	orrs	r2, r6
    65ee:	465e      	mov	r6, r11
    65f0:	4086      	lsls	r6, r0
    65f2:	4690      	mov	r8, r2
    65f4:	1c30      	adds	r0, r6, #0
    65f6:	1e42      	subs	r2, r0, #1
    65f8:	4190      	sbcs	r0, r2
    65fa:	4642      	mov	r2, r8
    65fc:	4302      	orrs	r2, r0
    65fe:	4660      	mov	r0, r12
    6600:	40c3      	lsrs	r3, r0
    6602:	1912      	adds	r2, r2, r4
    6604:	42a2      	cmp	r2, r4
    6606:	41a4      	sbcs	r4, r4
    6608:	4264      	negs	r4, r4
    660a:	1859      	adds	r1, r3, r1
    660c:	1909      	adds	r1, r1, r4
    660e:	1c14      	adds	r4, r2, #0
    6610:	0208      	lsls	r0, r1, #8
    6612:	d400      	bmi.n	6616 <__aeabi_dsub+0x1f6>
    6614:	e734      	b.n	6480 <__aeabi_dsub+0x60>
    6616:	4b57      	ldr	r3, [pc, #348]	; (6774 <__aeabi_dsub+0x354>)
    6618:	3501      	adds	r5, #1
    661a:	429d      	cmp	r5, r3
    661c:	d100      	bne.n	6620 <__aeabi_dsub+0x200>
    661e:	e142      	b.n	68a6 <__aeabi_dsub+0x486>
    6620:	4b55      	ldr	r3, [pc, #340]	; (6778 <__aeabi_dsub+0x358>)
    6622:	0860      	lsrs	r0, r4, #1
    6624:	4019      	ands	r1, r3
    6626:	2301      	movs	r3, #1
    6628:	4023      	ands	r3, r4
    662a:	1c1c      	adds	r4, r3, #0
    662c:	4304      	orrs	r4, r0
    662e:	07cb      	lsls	r3, r1, #31
    6630:	431c      	orrs	r4, r3
    6632:	0849      	lsrs	r1, r1, #1
    6634:	e724      	b.n	6480 <__aeabi_dsub+0x60>
    6636:	431e      	orrs	r6, r3
    6638:	d000      	beq.n	663c <__aeabi_dsub+0x21c>
    663a:	e714      	b.n	6466 <__aeabi_dsub+0x46>
    663c:	e70f      	b.n	645e <__aeabi_dsub+0x3e>
    663e:	1c0b      	adds	r3, r1, #0
    6640:	4323      	orrs	r3, r4
    6642:	d100      	bne.n	6646 <__aeabi_dsub+0x226>
    6644:	e1cf      	b.n	69e6 <__aeabi_dsub+0x5c6>
    6646:	2380      	movs	r3, #128	; 0x80
    6648:	031b      	lsls	r3, r3, #12
    664a:	430b      	orrs	r3, r1
    664c:	031b      	lsls	r3, r3, #12
    664e:	0b1b      	lsrs	r3, r3, #12
    6650:	e736      	b.n	64c0 <__aeabi_dsub+0xa0>
    6652:	3f01      	subs	r7, #1
    6654:	2f00      	cmp	r7, #0
    6656:	d166      	bne.n	6726 <__aeabi_dsub+0x306>
    6658:	465e      	mov	r6, r11
    665a:	1ba2      	subs	r2, r4, r6
    665c:	4294      	cmp	r4, r2
    665e:	41a4      	sbcs	r4, r4
    6660:	4264      	negs	r4, r4
    6662:	1ac9      	subs	r1, r1, r3
    6664:	1b09      	subs	r1, r1, r4
    6666:	1c14      	adds	r4, r2, #0
    6668:	e766      	b.n	6538 <__aeabi_dsub+0x118>
    666a:	4658      	mov	r0, r11
    666c:	4318      	orrs	r0, r3
    666e:	d100      	bne.n	6672 <__aeabi_dsub+0x252>
    6670:	e706      	b.n	6480 <__aeabi_dsub+0x60>
    6672:	2601      	movs	r6, #1
    6674:	4276      	negs	r6, r6
    6676:	44b4      	add	r12, r6
    6678:	4660      	mov	r0, r12
    667a:	2800      	cmp	r0, #0
    667c:	d000      	beq.n	6680 <__aeabi_dsub+0x260>
    667e:	e0ca      	b.n	6816 <__aeabi_dsub+0x3f6>
    6680:	465e      	mov	r6, r11
    6682:	1932      	adds	r2, r6, r4
    6684:	e7be      	b.n	6604 <__aeabi_dsub+0x1e4>
    6686:	2f00      	cmp	r7, #0
    6688:	d17a      	bne.n	6780 <__aeabi_dsub+0x360>
    668a:	1c68      	adds	r0, r5, #1
    668c:	0540      	lsls	r0, r0, #21
    668e:	0d40      	lsrs	r0, r0, #21
    6690:	2801      	cmp	r0, #1
    6692:	dc00      	bgt.n	6696 <__aeabi_dsub+0x276>
    6694:	e0e3      	b.n	685e <__aeabi_dsub+0x43e>
    6696:	465a      	mov	r2, r11
    6698:	1aa2      	subs	r2, r4, r2
    669a:	4294      	cmp	r4, r2
    669c:	41bf      	sbcs	r7, r7
    669e:	1ac8      	subs	r0, r1, r3
    66a0:	427f      	negs	r7, r7
    66a2:	1bc7      	subs	r7, r0, r7
    66a4:	023e      	lsls	r6, r7, #8
    66a6:	d400      	bmi.n	66aa <__aeabi_dsub+0x28a>
    66a8:	e092      	b.n	67d0 <__aeabi_dsub+0x3b0>
    66aa:	4658      	mov	r0, r11
    66ac:	1b04      	subs	r4, r0, r4
    66ae:	45a3      	cmp	r11, r4
    66b0:	4192      	sbcs	r2, r2
    66b2:	1a59      	subs	r1, r3, r1
    66b4:	4252      	negs	r2, r2
    66b6:	1a8f      	subs	r7, r1, r2
    66b8:	46e2      	mov	r10, r12
    66ba:	e741      	b.n	6540 <__aeabi_dsub+0x120>
    66bc:	4653      	mov	r3, r10
    66be:	2701      	movs	r7, #1
    66c0:	401f      	ands	r7, r3
    66c2:	2400      	movs	r4, #0
    66c4:	2300      	movs	r3, #0
    66c6:	e6fb      	b.n	64c0 <__aeabi_dsub+0xa0>
    66c8:	492b      	ldr	r1, [pc, #172]	; (6778 <__aeabi_dsub+0x358>)
    66ca:	1aad      	subs	r5, r5, r2
    66cc:	4039      	ands	r1, r7
    66ce:	e6d7      	b.n	6480 <__aeabi_dsub+0x60>
    66d0:	1c27      	adds	r7, r4, #0
    66d2:	3828      	subs	r0, #40	; 0x28
    66d4:	4087      	lsls	r7, r0
    66d6:	2400      	movs	r4, #0
    66d8:	e744      	b.n	6564 <__aeabi_dsub+0x144>
    66da:	1c20      	adds	r0, r4, #0
    66dc:	f7fc fffe 	bl	36dc <__clzsi2>
    66e0:	3020      	adds	r0, #32
    66e2:	e733      	b.n	654c <__aeabi_dsub+0x12c>
    66e4:	465a      	mov	r2, r11
    66e6:	431a      	orrs	r2, r3
    66e8:	1e53      	subs	r3, r2, #1
    66ea:	419a      	sbcs	r2, r3
    66ec:	b2d2      	uxtb	r2, r2
    66ee:	2700      	movs	r7, #0
    66f0:	e71b      	b.n	652a <__aeabi_dsub+0x10a>
    66f2:	2a00      	cmp	r2, #0
    66f4:	d000      	beq.n	66f8 <__aeabi_dsub+0x2d8>
    66f6:	e0e1      	b.n	68bc <__aeabi_dsub+0x49c>
    66f8:	1c68      	adds	r0, r5, #1
    66fa:	0546      	lsls	r6, r0, #21
    66fc:	0d76      	lsrs	r6, r6, #21
    66fe:	2e01      	cmp	r6, #1
    6700:	dc00      	bgt.n	6704 <__aeabi_dsub+0x2e4>
    6702:	e091      	b.n	6828 <__aeabi_dsub+0x408>
    6704:	4d1b      	ldr	r5, [pc, #108]	; (6774 <__aeabi_dsub+0x354>)
    6706:	42a8      	cmp	r0, r5
    6708:	d100      	bne.n	670c <__aeabi_dsub+0x2ec>
    670a:	e0f7      	b.n	68fc <__aeabi_dsub+0x4dc>
    670c:	465e      	mov	r6, r11
    670e:	1932      	adds	r2, r6, r4
    6710:	42a2      	cmp	r2, r4
    6712:	41a4      	sbcs	r4, r4
    6714:	4264      	negs	r4, r4
    6716:	1859      	adds	r1, r3, r1
    6718:	1909      	adds	r1, r1, r4
    671a:	07cc      	lsls	r4, r1, #31
    671c:	0852      	lsrs	r2, r2, #1
    671e:	4314      	orrs	r4, r2
    6720:	0849      	lsrs	r1, r1, #1
    6722:	1c05      	adds	r5, r0, #0
    6724:	e6ac      	b.n	6480 <__aeabi_dsub+0x60>
    6726:	4813      	ldr	r0, [pc, #76]	; (6774 <__aeabi_dsub+0x354>)
    6728:	4285      	cmp	r5, r0
    672a:	d000      	beq.n	672e <__aeabi_dsub+0x30e>
    672c:	e6e6      	b.n	64fc <__aeabi_dsub+0xdc>
    672e:	e6a7      	b.n	6480 <__aeabi_dsub+0x60>
    6730:	1c2b      	adds	r3, r5, #0
    6732:	3b1f      	subs	r3, #31
    6734:	1c3e      	adds	r6, r7, #0
    6736:	40de      	lsrs	r6, r3
    6738:	1c33      	adds	r3, r6, #0
    673a:	2920      	cmp	r1, #32
    673c:	d070      	beq.n	6820 <__aeabi_dsub+0x400>
    673e:	223f      	movs	r2, #63	; 0x3f
    6740:	1b55      	subs	r5, r2, r5
    6742:	40af      	lsls	r7, r5
    6744:	433c      	orrs	r4, r7
    6746:	1e60      	subs	r0, r4, #1
    6748:	4184      	sbcs	r4, r0
    674a:	431c      	orrs	r4, r3
    674c:	2100      	movs	r1, #0
    674e:	2500      	movs	r5, #0
    6750:	e696      	b.n	6480 <__aeabi_dsub+0x60>
    6752:	1c38      	adds	r0, r7, #0
    6754:	3820      	subs	r0, #32
    6756:	1c1e      	adds	r6, r3, #0
    6758:	40c6      	lsrs	r6, r0
    675a:	1c30      	adds	r0, r6, #0
    675c:	2f20      	cmp	r7, #32
    675e:	d061      	beq.n	6824 <__aeabi_dsub+0x404>
    6760:	2240      	movs	r2, #64	; 0x40
    6762:	1bd7      	subs	r7, r2, r7
    6764:	40bb      	lsls	r3, r7
    6766:	465a      	mov	r2, r11
    6768:	431a      	orrs	r2, r3
    676a:	1e53      	subs	r3, r2, #1
    676c:	419a      	sbcs	r2, r3
    676e:	4302      	orrs	r2, r0
    6770:	2700      	movs	r7, #0
    6772:	e6da      	b.n	652a <__aeabi_dsub+0x10a>
    6774:	000007ff 	.word	0x000007ff
    6778:	ff7fffff 	.word	0xff7fffff
    677c:	800fffff 	.word	0x800fffff
    6780:	2d00      	cmp	r5, #0
    6782:	d038      	beq.n	67f6 <__aeabi_dsub+0x3d6>
    6784:	4db9      	ldr	r5, [pc, #740]	; (6a6c <__aeabi_dsub+0x64c>)
    6786:	42a8      	cmp	r0, r5
    6788:	d100      	bne.n	678c <__aeabi_dsub+0x36c>
    678a:	e092      	b.n	68b2 <__aeabi_dsub+0x492>
    678c:	2580      	movs	r5, #128	; 0x80
    678e:	042d      	lsls	r5, r5, #16
    6790:	427f      	negs	r7, r7
    6792:	4329      	orrs	r1, r5
    6794:	2f38      	cmp	r7, #56	; 0x38
    6796:	dd00      	ble.n	679a <__aeabi_dsub+0x37a>
    6798:	e0aa      	b.n	68f0 <__aeabi_dsub+0x4d0>
    679a:	2f1f      	cmp	r7, #31
    679c:	dd00      	ble.n	67a0 <__aeabi_dsub+0x380>
    679e:	e12c      	b.n	69fa <__aeabi_dsub+0x5da>
    67a0:	2520      	movs	r5, #32
    67a2:	1bed      	subs	r5, r5, r7
    67a4:	1c0e      	adds	r6, r1, #0
    67a6:	40ae      	lsls	r6, r5
    67a8:	46b0      	mov	r8, r6
    67aa:	1c26      	adds	r6, r4, #0
    67ac:	40fe      	lsrs	r6, r7
    67ae:	4642      	mov	r2, r8
    67b0:	40ac      	lsls	r4, r5
    67b2:	4316      	orrs	r6, r2
    67b4:	1e65      	subs	r5, r4, #1
    67b6:	41ac      	sbcs	r4, r5
    67b8:	4334      	orrs	r4, r6
    67ba:	40f9      	lsrs	r1, r7
    67bc:	465a      	mov	r2, r11
    67be:	1b14      	subs	r4, r2, r4
    67c0:	45a3      	cmp	r11, r4
    67c2:	4192      	sbcs	r2, r2
    67c4:	1a5b      	subs	r3, r3, r1
    67c6:	4252      	negs	r2, r2
    67c8:	1a99      	subs	r1, r3, r2
    67ca:	1c05      	adds	r5, r0, #0
    67cc:	46e2      	mov	r10, r12
    67ce:	e6b3      	b.n	6538 <__aeabi_dsub+0x118>
    67d0:	1c13      	adds	r3, r2, #0
    67d2:	433b      	orrs	r3, r7
    67d4:	1c14      	adds	r4, r2, #0
    67d6:	2b00      	cmp	r3, #0
    67d8:	d000      	beq.n	67dc <__aeabi_dsub+0x3bc>
    67da:	e6b1      	b.n	6540 <__aeabi_dsub+0x120>
    67dc:	2700      	movs	r7, #0
    67de:	2200      	movs	r2, #0
    67e0:	2500      	movs	r5, #0
    67e2:	2100      	movs	r1, #0
    67e4:	2400      	movs	r4, #0
    67e6:	e6dd      	b.n	65a4 <__aeabi_dsub+0x184>
    67e8:	465a      	mov	r2, r11
    67ea:	431a      	orrs	r2, r3
    67ec:	1e53      	subs	r3, r2, #1
    67ee:	419a      	sbcs	r2, r3
    67f0:	b2d2      	uxtb	r2, r2
    67f2:	2300      	movs	r3, #0
    67f4:	e705      	b.n	6602 <__aeabi_dsub+0x1e2>
    67f6:	1c0d      	adds	r5, r1, #0
    67f8:	4325      	orrs	r5, r4
    67fa:	d05a      	beq.n	68b2 <__aeabi_dsub+0x492>
    67fc:	43ff      	mvns	r7, r7
    67fe:	2f00      	cmp	r7, #0
    6800:	d153      	bne.n	68aa <__aeabi_dsub+0x48a>
    6802:	465a      	mov	r2, r11
    6804:	1b14      	subs	r4, r2, r4
    6806:	45a3      	cmp	r11, r4
    6808:	4192      	sbcs	r2, r2
    680a:	1a59      	subs	r1, r3, r1
    680c:	4252      	negs	r2, r2
    680e:	1a89      	subs	r1, r1, r2
    6810:	1c05      	adds	r5, r0, #0
    6812:	46e2      	mov	r10, r12
    6814:	e690      	b.n	6538 <__aeabi_dsub+0x118>
    6816:	4895      	ldr	r0, [pc, #596]	; (6a6c <__aeabi_dsub+0x64c>)
    6818:	4285      	cmp	r5, r0
    681a:	d000      	beq.n	681e <__aeabi_dsub+0x3fe>
    681c:	e6d6      	b.n	65cc <__aeabi_dsub+0x1ac>
    681e:	e62f      	b.n	6480 <__aeabi_dsub+0x60>
    6820:	2700      	movs	r7, #0
    6822:	e78f      	b.n	6744 <__aeabi_dsub+0x324>
    6824:	2300      	movs	r3, #0
    6826:	e79e      	b.n	6766 <__aeabi_dsub+0x346>
    6828:	1c08      	adds	r0, r1, #0
    682a:	4320      	orrs	r0, r4
    682c:	2d00      	cmp	r5, #0
    682e:	d000      	beq.n	6832 <__aeabi_dsub+0x412>
    6830:	e0c3      	b.n	69ba <__aeabi_dsub+0x59a>
    6832:	2800      	cmp	r0, #0
    6834:	d100      	bne.n	6838 <__aeabi_dsub+0x418>
    6836:	e0f6      	b.n	6a26 <__aeabi_dsub+0x606>
    6838:	4658      	mov	r0, r11
    683a:	4318      	orrs	r0, r3
    683c:	d100      	bne.n	6840 <__aeabi_dsub+0x420>
    683e:	e61f      	b.n	6480 <__aeabi_dsub+0x60>
    6840:	4658      	mov	r0, r11
    6842:	1902      	adds	r2, r0, r4
    6844:	42a2      	cmp	r2, r4
    6846:	41a4      	sbcs	r4, r4
    6848:	4264      	negs	r4, r4
    684a:	1859      	adds	r1, r3, r1
    684c:	1909      	adds	r1, r1, r4
    684e:	1c14      	adds	r4, r2, #0
    6850:	020a      	lsls	r2, r1, #8
    6852:	d400      	bmi.n	6856 <__aeabi_dsub+0x436>
    6854:	e614      	b.n	6480 <__aeabi_dsub+0x60>
    6856:	4b86      	ldr	r3, [pc, #536]	; (6a70 <__aeabi_dsub+0x650>)
    6858:	2501      	movs	r5, #1
    685a:	4019      	ands	r1, r3
    685c:	e610      	b.n	6480 <__aeabi_dsub+0x60>
    685e:	1c08      	adds	r0, r1, #0
    6860:	4320      	orrs	r0, r4
    6862:	2d00      	cmp	r5, #0
    6864:	d13a      	bne.n	68dc <__aeabi_dsub+0x4bc>
    6866:	2800      	cmp	r0, #0
    6868:	d000      	beq.n	686c <__aeabi_dsub+0x44c>
    686a:	e089      	b.n	6980 <__aeabi_dsub+0x560>
    686c:	4659      	mov	r1, r11
    686e:	4319      	orrs	r1, r3
    6870:	d100      	bne.n	6874 <__aeabi_dsub+0x454>
    6872:	e0bf      	b.n	69f4 <__aeabi_dsub+0x5d4>
    6874:	1c19      	adds	r1, r3, #0
    6876:	465c      	mov	r4, r11
    6878:	46e2      	mov	r10, r12
    687a:	e601      	b.n	6480 <__aeabi_dsub+0x60>
    687c:	4660      	mov	r0, r12
    687e:	3820      	subs	r0, #32
    6880:	1c1a      	adds	r2, r3, #0
    6882:	40c2      	lsrs	r2, r0
    6884:	4666      	mov	r6, r12
    6886:	1c10      	adds	r0, r2, #0
    6888:	2e20      	cmp	r6, #32
    688a:	d100      	bne.n	688e <__aeabi_dsub+0x46e>
    688c:	e0b0      	b.n	69f0 <__aeabi_dsub+0x5d0>
    688e:	2240      	movs	r2, #64	; 0x40
    6890:	1b92      	subs	r2, r2, r6
    6892:	4093      	lsls	r3, r2
    6894:	465a      	mov	r2, r11
    6896:	431a      	orrs	r2, r3
    6898:	1e53      	subs	r3, r2, #1
    689a:	419a      	sbcs	r2, r3
    689c:	4302      	orrs	r2, r0
    689e:	2300      	movs	r3, #0
    68a0:	e6af      	b.n	6602 <__aeabi_dsub+0x1e2>
    68a2:	4d72      	ldr	r5, [pc, #456]	; (6a6c <__aeabi_dsub+0x64c>)
    68a4:	2700      	movs	r7, #0
    68a6:	1c2a      	adds	r2, r5, #0
    68a8:	e79b      	b.n	67e2 <__aeabi_dsub+0x3c2>
    68aa:	4d70      	ldr	r5, [pc, #448]	; (6a6c <__aeabi_dsub+0x64c>)
    68ac:	42a8      	cmp	r0, r5
    68ae:	d000      	beq.n	68b2 <__aeabi_dsub+0x492>
    68b0:	e770      	b.n	6794 <__aeabi_dsub+0x374>
    68b2:	1c19      	adds	r1, r3, #0
    68b4:	465c      	mov	r4, r11
    68b6:	1c05      	adds	r5, r0, #0
    68b8:	46e2      	mov	r10, r12
    68ba:	e5e1      	b.n	6480 <__aeabi_dsub+0x60>
    68bc:	2d00      	cmp	r5, #0
    68be:	d120      	bne.n	6902 <__aeabi_dsub+0x4e2>
    68c0:	1c0d      	adds	r5, r1, #0
    68c2:	4325      	orrs	r5, r4
    68c4:	d075      	beq.n	69b2 <__aeabi_dsub+0x592>
    68c6:	43d5      	mvns	r5, r2
    68c8:	2d00      	cmp	r5, #0
    68ca:	d16f      	bne.n	69ac <__aeabi_dsub+0x58c>
    68cc:	445c      	add	r4, r11
    68ce:	455c      	cmp	r4, r11
    68d0:	4192      	sbcs	r2, r2
    68d2:	1859      	adds	r1, r3, r1
    68d4:	4252      	negs	r2, r2
    68d6:	1889      	adds	r1, r1, r2
    68d8:	1c05      	adds	r5, r0, #0
    68da:	e699      	b.n	6610 <__aeabi_dsub+0x1f0>
    68dc:	2800      	cmp	r0, #0
    68de:	d135      	bne.n	694c <__aeabi_dsub+0x52c>
    68e0:	4659      	mov	r1, r11
    68e2:	4319      	orrs	r1, r3
    68e4:	d0dd      	beq.n	68a2 <__aeabi_dsub+0x482>
    68e6:	1c19      	adds	r1, r3, #0
    68e8:	465c      	mov	r4, r11
    68ea:	46e2      	mov	r10, r12
    68ec:	4d5f      	ldr	r5, [pc, #380]	; (6a6c <__aeabi_dsub+0x64c>)
    68ee:	e5c7      	b.n	6480 <__aeabi_dsub+0x60>
    68f0:	430c      	orrs	r4, r1
    68f2:	1e61      	subs	r1, r4, #1
    68f4:	418c      	sbcs	r4, r1
    68f6:	b2e4      	uxtb	r4, r4
    68f8:	2100      	movs	r1, #0
    68fa:	e75f      	b.n	67bc <__aeabi_dsub+0x39c>
    68fc:	1c05      	adds	r5, r0, #0
    68fe:	1c02      	adds	r2, r0, #0
    6900:	e76f      	b.n	67e2 <__aeabi_dsub+0x3c2>
    6902:	4d5a      	ldr	r5, [pc, #360]	; (6a6c <__aeabi_dsub+0x64c>)
    6904:	42a8      	cmp	r0, r5
    6906:	d054      	beq.n	69b2 <__aeabi_dsub+0x592>
    6908:	4255      	negs	r5, r2
    690a:	2280      	movs	r2, #128	; 0x80
    690c:	0416      	lsls	r6, r2, #16
    690e:	4331      	orrs	r1, r6
    6910:	2d38      	cmp	r5, #56	; 0x38
    6912:	dd00      	ble.n	6916 <__aeabi_dsub+0x4f6>
    6914:	e081      	b.n	6a1a <__aeabi_dsub+0x5fa>
    6916:	2d1f      	cmp	r5, #31
    6918:	dd00      	ble.n	691c <__aeabi_dsub+0x4fc>
    691a:	e091      	b.n	6a40 <__aeabi_dsub+0x620>
    691c:	2220      	movs	r2, #32
    691e:	1b56      	subs	r6, r2, r5
    6920:	1c0a      	adds	r2, r1, #0
    6922:	46b4      	mov	r12, r6
    6924:	40b2      	lsls	r2, r6
    6926:	1c26      	adds	r6, r4, #0
    6928:	40ee      	lsrs	r6, r5
    692a:	4332      	orrs	r2, r6
    692c:	4690      	mov	r8, r2
    692e:	4662      	mov	r2, r12
    6930:	4094      	lsls	r4, r2
    6932:	1e66      	subs	r6, r4, #1
    6934:	41b4      	sbcs	r4, r6
    6936:	4642      	mov	r2, r8
    6938:	4314      	orrs	r4, r2
    693a:	40e9      	lsrs	r1, r5
    693c:	445c      	add	r4, r11
    693e:	455c      	cmp	r4, r11
    6940:	4192      	sbcs	r2, r2
    6942:	18cb      	adds	r3, r1, r3
    6944:	4252      	negs	r2, r2
    6946:	1899      	adds	r1, r3, r2
    6948:	1c05      	adds	r5, r0, #0
    694a:	e661      	b.n	6610 <__aeabi_dsub+0x1f0>
    694c:	4658      	mov	r0, r11
    694e:	4318      	orrs	r0, r3
    6950:	d04c      	beq.n	69ec <__aeabi_dsub+0x5cc>
    6952:	0748      	lsls	r0, r1, #29
    6954:	08e4      	lsrs	r4, r4, #3
    6956:	4304      	orrs	r4, r0
    6958:	2080      	movs	r0, #128	; 0x80
    695a:	08c9      	lsrs	r1, r1, #3
    695c:	0300      	lsls	r0, r0, #12
    695e:	4201      	tst	r1, r0
    6960:	d008      	beq.n	6974 <__aeabi_dsub+0x554>
    6962:	08dd      	lsrs	r5, r3, #3
    6964:	4205      	tst	r5, r0
    6966:	d105      	bne.n	6974 <__aeabi_dsub+0x554>
    6968:	4659      	mov	r1, r11
    696a:	08ca      	lsrs	r2, r1, #3
    696c:	075c      	lsls	r4, r3, #29
    696e:	4314      	orrs	r4, r2
    6970:	1c29      	adds	r1, r5, #0
    6972:	46e2      	mov	r10, r12
    6974:	0f63      	lsrs	r3, r4, #29
    6976:	00c9      	lsls	r1, r1, #3
    6978:	4319      	orrs	r1, r3
    697a:	00e4      	lsls	r4, r4, #3
    697c:	4d3b      	ldr	r5, [pc, #236]	; (6a6c <__aeabi_dsub+0x64c>)
    697e:	e57f      	b.n	6480 <__aeabi_dsub+0x60>
    6980:	4658      	mov	r0, r11
    6982:	4318      	orrs	r0, r3
    6984:	d100      	bne.n	6988 <__aeabi_dsub+0x568>
    6986:	e57b      	b.n	6480 <__aeabi_dsub+0x60>
    6988:	465e      	mov	r6, r11
    698a:	1ba7      	subs	r7, r4, r6
    698c:	42bc      	cmp	r4, r7
    698e:	4192      	sbcs	r2, r2
    6990:	1ac8      	subs	r0, r1, r3
    6992:	4252      	negs	r2, r2
    6994:	1a80      	subs	r0, r0, r2
    6996:	0206      	lsls	r6, r0, #8
    6998:	d54c      	bpl.n	6a34 <__aeabi_dsub+0x614>
    699a:	4658      	mov	r0, r11
    699c:	1b04      	subs	r4, r0, r4
    699e:	45a3      	cmp	r11, r4
    69a0:	4192      	sbcs	r2, r2
    69a2:	1a59      	subs	r1, r3, r1
    69a4:	4252      	negs	r2, r2
    69a6:	1a89      	subs	r1, r1, r2
    69a8:	46e2      	mov	r10, r12
    69aa:	e569      	b.n	6480 <__aeabi_dsub+0x60>
    69ac:	4a2f      	ldr	r2, [pc, #188]	; (6a6c <__aeabi_dsub+0x64c>)
    69ae:	4290      	cmp	r0, r2
    69b0:	d1ae      	bne.n	6910 <__aeabi_dsub+0x4f0>
    69b2:	1c19      	adds	r1, r3, #0
    69b4:	465c      	mov	r4, r11
    69b6:	1c05      	adds	r5, r0, #0
    69b8:	e562      	b.n	6480 <__aeabi_dsub+0x60>
    69ba:	2800      	cmp	r0, #0
    69bc:	d036      	beq.n	6a2c <__aeabi_dsub+0x60c>
    69be:	4658      	mov	r0, r11
    69c0:	4318      	orrs	r0, r3
    69c2:	d013      	beq.n	69ec <__aeabi_dsub+0x5cc>
    69c4:	2580      	movs	r5, #128	; 0x80
    69c6:	0748      	lsls	r0, r1, #29
    69c8:	08e4      	lsrs	r4, r4, #3
    69ca:	08c9      	lsrs	r1, r1, #3
    69cc:	032d      	lsls	r5, r5, #12
    69ce:	4304      	orrs	r4, r0
    69d0:	4229      	tst	r1, r5
    69d2:	d0cf      	beq.n	6974 <__aeabi_dsub+0x554>
    69d4:	08d8      	lsrs	r0, r3, #3
    69d6:	4228      	tst	r0, r5
    69d8:	d1cc      	bne.n	6974 <__aeabi_dsub+0x554>
    69da:	465d      	mov	r5, r11
    69dc:	08ea      	lsrs	r2, r5, #3
    69de:	075c      	lsls	r4, r3, #29
    69e0:	4314      	orrs	r4, r2
    69e2:	1c01      	adds	r1, r0, #0
    69e4:	e7c6      	b.n	6974 <__aeabi_dsub+0x554>
    69e6:	2300      	movs	r3, #0
    69e8:	2400      	movs	r4, #0
    69ea:	e569      	b.n	64c0 <__aeabi_dsub+0xa0>
    69ec:	4d1f      	ldr	r5, [pc, #124]	; (6a6c <__aeabi_dsub+0x64c>)
    69ee:	e547      	b.n	6480 <__aeabi_dsub+0x60>
    69f0:	2300      	movs	r3, #0
    69f2:	e74f      	b.n	6894 <__aeabi_dsub+0x474>
    69f4:	2700      	movs	r7, #0
    69f6:	2200      	movs	r2, #0
    69f8:	e6f3      	b.n	67e2 <__aeabi_dsub+0x3c2>
    69fa:	1c3d      	adds	r5, r7, #0
    69fc:	3d20      	subs	r5, #32
    69fe:	1c0e      	adds	r6, r1, #0
    6a00:	40ee      	lsrs	r6, r5
    6a02:	1c35      	adds	r5, r6, #0
    6a04:	2f20      	cmp	r7, #32
    6a06:	d02d      	beq.n	6a64 <__aeabi_dsub+0x644>
    6a08:	2640      	movs	r6, #64	; 0x40
    6a0a:	1bf7      	subs	r7, r6, r7
    6a0c:	40b9      	lsls	r1, r7
    6a0e:	430c      	orrs	r4, r1
    6a10:	1e61      	subs	r1, r4, #1
    6a12:	418c      	sbcs	r4, r1
    6a14:	432c      	orrs	r4, r5
    6a16:	2100      	movs	r1, #0
    6a18:	e6d0      	b.n	67bc <__aeabi_dsub+0x39c>
    6a1a:	430c      	orrs	r4, r1
    6a1c:	1e61      	subs	r1, r4, #1
    6a1e:	418c      	sbcs	r4, r1
    6a20:	b2e4      	uxtb	r4, r4
    6a22:	2100      	movs	r1, #0
    6a24:	e78a      	b.n	693c <__aeabi_dsub+0x51c>
    6a26:	1c19      	adds	r1, r3, #0
    6a28:	465c      	mov	r4, r11
    6a2a:	e529      	b.n	6480 <__aeabi_dsub+0x60>
    6a2c:	1c19      	adds	r1, r3, #0
    6a2e:	465c      	mov	r4, r11
    6a30:	4d0e      	ldr	r5, [pc, #56]	; (6a6c <__aeabi_dsub+0x64c>)
    6a32:	e525      	b.n	6480 <__aeabi_dsub+0x60>
    6a34:	1c03      	adds	r3, r0, #0
    6a36:	433b      	orrs	r3, r7
    6a38:	d0dc      	beq.n	69f4 <__aeabi_dsub+0x5d4>
    6a3a:	1c01      	adds	r1, r0, #0
    6a3c:	1c3c      	adds	r4, r7, #0
    6a3e:	e51f      	b.n	6480 <__aeabi_dsub+0x60>
    6a40:	2620      	movs	r6, #32
    6a42:	4276      	negs	r6, r6
    6a44:	1976      	adds	r6, r6, r5
    6a46:	1c0a      	adds	r2, r1, #0
    6a48:	40f2      	lsrs	r2, r6
    6a4a:	4690      	mov	r8, r2
    6a4c:	2d20      	cmp	r5, #32
    6a4e:	d00b      	beq.n	6a68 <__aeabi_dsub+0x648>
    6a50:	2640      	movs	r6, #64	; 0x40
    6a52:	1b75      	subs	r5, r6, r5
    6a54:	40a9      	lsls	r1, r5
    6a56:	430c      	orrs	r4, r1
    6a58:	1e61      	subs	r1, r4, #1
    6a5a:	418c      	sbcs	r4, r1
    6a5c:	4645      	mov	r5, r8
    6a5e:	432c      	orrs	r4, r5
    6a60:	2100      	movs	r1, #0
    6a62:	e76b      	b.n	693c <__aeabi_dsub+0x51c>
    6a64:	2100      	movs	r1, #0
    6a66:	e7d2      	b.n	6a0e <__aeabi_dsub+0x5ee>
    6a68:	2100      	movs	r1, #0
    6a6a:	e7f4      	b.n	6a56 <__aeabi_dsub+0x636>
    6a6c:	000007ff 	.word	0x000007ff
    6a70:	ff7fffff 	.word	0xff7fffff

00006a74 <_init>:
    6a74:	b5f8      	push	{r3, r4, r5, r6, r7, lr}
    6a76:	46c0      	nop			; (mov r8, r8)
    6a78:	bcf8      	pop	{r3, r4, r5, r6, r7}
    6a7a:	bc08      	pop	{r3}
    6a7c:	469e      	mov	lr, r3
    6a7e:	4770      	bx	lr

00006a80 <_fini>:
    6a80:	b5f8      	push	{r3, r4, r5, r6, r7, lr}
    6a82:	46c0      	nop			; (mov r8, r8)
    6a84:	bcf8      	pop	{r3, r4, r5, r6, r7}
    6a86:	bc08      	pop	{r3}
    6a88:	469e      	mov	lr, r3
    6a8a:	4770      	bx	lr
    6a8c:	00000802 	.word	0x00000802
    6a90:	00000806 	.word	0x00000806
    6a94:	00000812 	.word	0x00000812
    6a98:	000007d6 	.word	0x000007d6
    6a9c:	0000080e 	.word	0x0000080e
    6aa0:	0000080a 	.word	0x0000080a
    6aa4:	00000b2a 	.word	0x00000b2a
    6aa8:	00000b30 	.word	0x00000b30
    6aac:	00000b26 	.word	0x00000b26
    6ab0:	00000b36 	.word	0x00000b36
    6ab4:	00000b26 	.word	0x00000b26
    6ab8:	00000b3c 	.word	0x00000b3c
    6abc:	00000b58 	.word	0x00000b58
    6ac0:	00000b26 	.word	0x00000b26
    6ac4:	00000b8c 	.word	0x00000b8c
    6ac8:	00000baa 	.word	0x00000baa
    6acc:	00000b1c 	.word	0x00000b1c
    6ad0:	00000b5e 	.word	0x00000b5e
    6ad4:	00000000 	.word	0x00000000

00006ad8 <vtable for USBDevice>:
	...
    6ae0:	00000675 00000ca9 00000975 00000989     u.......u.......
    6af0:	00000699 0000069d 000005dd 000005e1     ................
    6b00:	000005e5 000005e9 000005ed 000005f1     ................
    6b10:	000005f5 000005f9 000005fd 00000601     ................
    6b20:	00000605 00000609 0000060d 00000611     ................
    6b30:	00000615 00000619 0000061d 00000621     ............!...
    6b40:	00000625 00000629 0000062d 00000631     %...)...-...1...
    6b50:	00000635 00000639 0000063d 00000641     5...9...=...A...
    6b60:	00000645 00000649 0000064d 00000651     E...I...M...Q...
    6b70:	00000655 00000659 0000065d 00000661     U...Y...]...a...
    6b80:	00000665 00000669 000006d1 0000066d     e...i.......m...
    6b90:	000006a1 000006a9 000006c9 000006b1     ................
    6ba0:	000006b9 000006c1 00000671 00000000     ........q.......

00006bb0 <vtable for USBHAL>:
	...
    6bb8:	00000e01 00000e05 00000e09 00000e0d     ................
    6bc8:	00000e11 00000e15 000005dd 000005e1     ................
    6bd8:	000005e5 000005e9 000005ed 000005f1     ................
    6be8:	000005f5 000005f9 000005fd 00000601     ................
    6bf8:	00000605 00000609 0000060d 00000611     ................
    6c08:	00000615 00000619 0000061d 00000621     ............!...
    6c18:	00000625 00000629 0000062d 00000631     %...)...-...1...
    6c28:	00000635 00000639 0000063d 00000641     5...9...=...A...
    6c38:	00000645 00000649 0000064d 00000651     E...I...M...Q...
    6c48:	00000655 00000000                       U.......

00006c50 <vtable for USBHID>:
	...
    6c58:	00000675 00000ca9 00000975 00000989     u.......u.......
    6c68:	00000699 0000069d 000005dd 000005e1     ................
    6c78:	000005e5 000005e9 000005ed 000005f1     ................
    6c88:	000005f5 000005f9 000005fd 00000601     ................
    6c98:	00000605 00000609 0000060d 00000611     ................
    6ca8:	00000615 00000619 0000061d 00000621     ............!...
    6cb8:	00000625 00000629 0000062d 00000631     %...)...-...1...
    6cc8:	00000635 00000639 0000063d 00000641     5...9...=...A...
    6cd8:	00000645 00000649 0000064d 00000651     E...I...M...Q...
    6ce8:	00000655 00000659 000016e9 00000661     U...Y.......a...
    6cf8:	000017e1 00000669 000006d1 00001811     ....i...........
    6d08:	000006a1 000006a9 000016e1 000006b1     ................
    6d18:	000006b9 000016d9 000016c5 00001799     ................
    6d28:	000016c1 00000000                       ........

00006d30 <vtable for USBMouse>:
	...
    6d38:	00000675 00000ca9 00000975 00000989     u.......u.......
    6d48:	00000699 0000069d 000005dd 000005e1     ................
    6d58:	000005e5 000005e9 000005ed 000005f1     ................
    6d68:	000005f5 000005f9 000005fd 00000601     ................
    6d78:	00000605 00000609 0000060d 00000611     ................
    6d88:	00000615 00000619 0000061d 00000621     ............!...
    6d98:	00000625 00000629 0000062d 00000631     %...)...-...1...
    6da8:	00000635 00000639 0000063d 00000641     5...9...=...A...
    6db8:	00000645 00000649 0000064d 00000651     E...I...M...Q...
    6dc8:	00000655 00000659 000016e9 00000661     U...Y.......a...
    6dd8:	000017e1 00000669 000006d1 000018e9     ....i...........
    6de8:	000006a1 000006a9 000016e1 000006b1     ................
    6df8:	000006b9 000016d9 000016c5 000018b5     ................
    6e08:	000016c1 00000000 6c756f63 6f6e2064     ........could no
    6e18:	69702074 74756f6e 00000000 6d6e6970     t pinout....pinm
    6e28:	6d207061 6d2d7369 68637461 00000000     ap mis-match....
    6e38:	6d6e6970 6e207061 6620746f 646e756f     pinmap not found
    6e48:	726f6620 72657020 65687069 006c6172      for peripheral.

00006e58 <PinMap_UART_RX>:
    6e58:	0000200c 4006b000 00000003 00000004     . .....@........
    6e68:	4006a000 00000002 00003010 4006c000     ...@.....0.....@
    6e78:	00000003 00003008 4006c000 00000003     .....0.....@....
    6e88:	00003018 4006a000 00000003 0000405c     .0.....@....\@..
    6e98:	4006c000 00000004 00004054 4006a000     ...@....T@.....@
    6ea8:	00000004 00004004 4006b000 00000003     .....@.....@....
    6eb8:	0000ffff ffffffff 00000000              ............

00006ec4 <PinMap_UART_TX>:
    6ec4:	00002010 4006b000 00000003 00000008     . .....@........
    6ed4:	4006a000 00000002 00003014 4006c000     ...@.....0.....@
    6ee4:	00000003 0000300c 4006c000 00000003     .....0.....@....
    6ef4:	0000301c 4006a000 00000003 00004050     .0.....@....P@..
    6f04:	4006a000 00000004 00004058 4006c000     ...@....X@.....@
    6f14:	00000004 00004000 4006b000 00000003     .....@.....@....
    6f24:	0000ffff ffffffff 00000000 00002924     ............$)..
    6f34:	0000291e 0000291e 00002914 00002874     .)...)...)..t(..
    6f44:	00002874 0000290a 00002914 00002874     t(...)...)..t(..
    6f54:	0000290a 00002874 00002914 00002872     .)..t(...)..r(..
    6f64:	00002872 00002872 000029ac 00002c78     r(..r(...)..x,..
    6f74:	00002c14 00002c5c 00002b42 00002c5c     .,..\,..B+..\,..
    6f84:	00002c50 00002c5c 00002b42 00002c14     P,..\,..B+...,..
    6f94:	00002c14 00002c50 00002b42 00002b38     .,..P,..B+..8+..
    6fa4:	00002b38 00002b38 00002e9c 000032bc     8+..8+.......2..
    6fb4:	000034aa 000034aa 0000329c 00003186     .4...4...2...1..
    6fc4:	00003186 0000328e 0000329c 00003186     .1...2...2...1..
    6fd4:	0000328e 00003186 0000329c 00003184     .2...1...2...1..
    6fe4:	00003184 00003184 000034b2              .1...1...4..

00006ff0 <__sf_fake_stdin>:
	...

00007010 <__sf_fake_stdout>:
	...

00007030 <__sf_fake_stderr>:
	...
    7050:	00000043                                C...

00007054 <_global_impure_ptr>:
    7054:	1ffff24c 2b302d23 6c680020 6665004c     L...#-0+ .hlL.ef
    7064:	47464567 32313000 36353433 41393837     gEFG.0123456789A
    7074:	45444342 31300046 35343332 39383736     BCDEF.0123456789
    7084:	64636261 00006665                       abcdef..

0000708c <npio2_hw>:
    708c:	3ff921fb 400921fb 4012d97c 401921fb     .!.?.!.@|..@.!.@
    709c:	401f6a7a 4022d97c 4025fdbb 402921fb     zj.@|."@..%@.!)@
    70ac:	402c463a 402f6a7a 4031475c 4032d97c     :F,@zj/@\G1@|.2@
    70bc:	40346b9c 4035fdbb 40378fdb 403921fb     .k4@..5@..7@.!9@
    70cc:	403ab41b 403c463a 403dd85a 403f6a7a     ..:@:F<@Z.=@zj?@
    70dc:	40407e4c 4041475c 4042106c 4042d97c     L~@@\GA@l.B@|.B@
    70ec:	4043a28c 40446b9c 404534ac 4045fdbb     ..C@.kD@.4E@..E@
    70fc:	4046c6cb 40478fdb 404858eb 404921fb     ..F@..G@.XH@.!I@

0000710c <two_over_pi>:
    710c:	00a2f983 006e4e44 001529fc 002757d1     ....DNn..)...W'.
    711c:	00f534dd 00c0db62 0095993c 00439041     .4..b...<...A.C.
    712c:	00fe5163 00abdebb 00c561b7 00246e3a     cQ.......a..:n$.
    713c:	00424dd2 00e00649 002eea09 00d1921c     .MB.I...........
    714c:	00fe1deb 001cb129 00a73ee8 008235f5     ....)....>...5..
    715c:	002ebb44 0084e99c 007026b4 005f7e41     D........&p.A~_.
    716c:	003991d6 00398353 0039f49c 00845f8b     ..9.S.9...9.._..
    717c:	00bdf928 003b1ff8 0097ffde 0005980f     (.....;.........
    718c:	00ef2f11 008b5a0a 006d1f6d 00367ecf     ./...Z..m.m..~6.
    719c:	0027cb09 00b74f46 003f669e 005fea2d     ..'.FO...f?.-._.
    71ac:	007527ba 00c7ebe5 00f17b3d 000739f7     .'u.....={...9..
    71bc:	008a5292 00ea6bfb 005fb11f 008d5d08     .R...k...._..]..
    71cc:	00560330 0046fc7b 006babf0 00cfbc20     0.V.{.F...k. ...
    71dc:	009af436 001da9e3 0091615e 00e61b08     6.......^a......
    71ec:	00659985 005f14a0 0068408d 00ffd880     ..e..._..@h.....
    71fc:	004d7327 00310606 001556ca 0073a8c9     'sM...1..V....s.
    720c:	0060e27b 00c08c6b                       {.`.k...

00007214 <init_jk>:
    7214:	00000002 00000003 00000004 00000006     ................
    7224:	00000000                                ....

00007228 <PIo2>:
    7228:	40000000 3ff921fb 00000000 3e74442d     ...@.!.?....-Dt>
    7238:	80000000 3cf84698 60000000 3b78cc51     .....F.<...`Q.x;
    7248:	80000000 39f01b83 40000000 387a2520     .......9...@ %z8
    7258:	80000000 36e38222 00000000 3569f31d     ...."..6......i5

00007268 <__EH_FRAME_BEGIN__>:
    7268:	00000000                                ....
