
LPC1768/StdIO.elf:     file format elf32-littlearm
architecture: arm, flags 0x00000112:
EXEC_P, HAS_SYMS, D_PAGED
start address 0x000003dd


Disassembly of section .text:

00000000 <__isr_vector>:
       0:	10008000 	.word	0x10008000
       4:	000003dd 	.word	0x000003dd
       8:	0000040d 	.word	0x0000040d
       c:	0000040f 	.word	0x0000040f
      10:	00000411 	.word	0x00000411
      14:	00000413 	.word	0x00000413
      18:	00000415 	.word	0x00000415
	...
      2c:	00000417 	.word	0x00000417
      30:	00000419 	.word	0x00000419
      34:	00000000 	.word	0x00000000
      38:	0000041b 	.word	0x0000041b
      3c:	0000041d 	.word	0x0000041d
      40:	0000041f 	.word	0x0000041f
      44:	0000041f 	.word	0x0000041f
      48:	0000041f 	.word	0x0000041f
      4c:	0000041f 	.word	0x0000041f
      50:	0000041f 	.word	0x0000041f
      54:	0000041f 	.word	0x0000041f
      58:	0000041f 	.word	0x0000041f
      5c:	0000041f 	.word	0x0000041f
      60:	0000041f 	.word	0x0000041f
      64:	0000041f 	.word	0x0000041f
      68:	0000041f 	.word	0x0000041f
      6c:	0000041f 	.word	0x0000041f
      70:	0000041f 	.word	0x0000041f
      74:	0000041f 	.word	0x0000041f
      78:	0000041f 	.word	0x0000041f
      7c:	0000041f 	.word	0x0000041f
      80:	0000041f 	.word	0x0000041f
      84:	0000041f 	.word	0x0000041f
      88:	0000041f 	.word	0x0000041f
      8c:	0000041f 	.word	0x0000041f
      90:	0000041f 	.word	0x0000041f
      94:	0000041f 	.word	0x0000041f
      98:	0000041f 	.word	0x0000041f
      9c:	0000041f 	.word	0x0000041f
      a0:	0000041f 	.word	0x0000041f
      a4:	0000041f 	.word	0x0000041f
      a8:	0000041f 	.word	0x0000041f
      ac:	0000041f 	.word	0x0000041f
      b0:	0000041f 	.word	0x0000041f
      b4:	0000041f 	.word	0x0000041f
      b8:	0000041f 	.word	0x0000041f
      bc:	0000041f 	.word	0x0000041f
      c0:	0000041f 	.word	0x0000041f
      c4:	0000041f 	.word	0x0000041f
      c8:	0000041f 	.word	0x0000041f

000000cc <__do_global_dtors_aux>:
      cc:	b510      	push	{r4, lr}
      ce:	4c05      	ldr	r4, [pc, #20]	; (e4 <__do_global_dtors_aux+0x18>)
      d0:	7823      	ldrb	r3, [r4, #0]
      d2:	b933      	cbnz	r3, e2 <__do_global_dtors_aux+0x16>
      d4:	4b04      	ldr	r3, [pc, #16]	; (e8 <__do_global_dtors_aux+0x1c>)
      d6:	b113      	cbz	r3, de <__do_global_dtors_aux+0x12>
      d8:	4804      	ldr	r0, [pc, #16]	; (ec <__do_global_dtors_aux+0x20>)
      da:	f3af 8000 	nop.w
      de:	2301      	movs	r3, #1
      e0:	7023      	strb	r3, [r4, #0]
      e2:	bd10      	pop	{r4, pc}
      e4:	10000140 	.word	0x10000140
      e8:	00000000 	.word	0x00000000
      ec:	0000308c 	.word	0x0000308c

000000f0 <frame_dummy>:
      f0:	b508      	push	{r3, lr}
      f2:	4b06      	ldr	r3, [pc, #24]	; (10c <frame_dummy+0x1c>)
      f4:	b11b      	cbz	r3, fe <frame_dummy+0xe>
      f6:	4806      	ldr	r0, [pc, #24]	; (110 <frame_dummy+0x20>)
      f8:	4906      	ldr	r1, [pc, #24]	; (114 <frame_dummy+0x24>)
      fa:	f3af 8000 	nop.w
      fe:	4806      	ldr	r0, [pc, #24]	; (118 <frame_dummy+0x28>)
     100:	6803      	ldr	r3, [r0, #0]
     102:	b113      	cbz	r3, 10a <frame_dummy+0x1a>
     104:	4b05      	ldr	r3, [pc, #20]	; (11c <frame_dummy+0x2c>)
     106:	b103      	cbz	r3, 10a <frame_dummy+0x1a>
     108:	4798      	blx	r3
     10a:	bd08      	pop	{r3, pc}
     10c:	00000000 	.word	0x00000000
     110:	0000308c 	.word	0x0000308c
     114:	10000144 	.word	0x10000144
     118:	10000140 	.word	0x10000140
     11c:	00000000 	.word	0x00000000

00000120 <main>:
     120:	b530      	push	{r4, r5, lr}
     122:	b083      	sub	sp, #12
     124:	f04f 33ff 	mov.w	r3, #4294967295	; 0xffffffff
     128:	ac02      	add	r4, sp, #8
     12a:	481e      	ldr	r0, [pc, #120]	; (1a4 <main+0x84>)
     12c:	f844 3d04 	str.w	r3, [r4, #-4]!
     130:	f001 fb4a 	bl	17c8 <puts>
     134:	481c      	ldr	r0, [pc, #112]	; (1a8 <main+0x88>)
     136:	f001 fb47 	bl	17c8 <puts>
     13a:	481c      	ldr	r0, [pc, #112]	; (1ac <main+0x8c>)
     13c:	f001 fb44 	bl	17c8 <puts>
     140:	481b      	ldr	r0, [pc, #108]	; (1b0 <main+0x90>)
     142:	f001 fb41 	bl	17c8 <puts>
     146:	481b      	ldr	r0, [pc, #108]	; (1b4 <main+0x94>)
     148:	f001 fac6 	bl	16d8 <iprintf>
     14c:	4d1a      	ldr	r5, [pc, #104]	; (1b8 <main+0x98>)
     14e:	4621      	mov	r1, r4
     150:	481a      	ldr	r0, [pc, #104]	; (1bc <main+0x9c>)
     152:	f001 fb51 	bl	17f8 <iscanf>
     156:	9901      	ldr	r1, [sp, #4]
     158:	4819      	ldr	r0, [pc, #100]	; (1c0 <main+0xa0>)
     15a:	f001 fabd 	bl	16d8 <iprintf>
     15e:	682b      	ldr	r3, [r5, #0]
     160:	2101      	movs	r1, #1
     162:	689b      	ldr	r3, [r3, #8]
     164:	2223      	movs	r2, #35	; 0x23
     166:	4817      	ldr	r0, [pc, #92]	; (1c4 <main+0xa4>)
     168:	f001 f9e0 	bl	152c <fwrite>
     16c:	682b      	ldr	r3, [r5, #0]
     16e:	2101      	movs	r1, #1
     170:	68db      	ldr	r3, [r3, #12]
     172:	2223      	movs	r2, #35	; 0x23
     174:	4814      	ldr	r0, [pc, #80]	; (1c8 <main+0xa8>)
     176:	f001 f9d9 	bl	152c <fwrite>
     17a:	4814      	ldr	r0, [pc, #80]	; (1cc <main+0xac>)
     17c:	f001 fb24 	bl	17c8 <puts>
     180:	480c      	ldr	r0, [pc, #48]	; (1b4 <main+0x94>)
     182:	f001 faa9 	bl	16d8 <iprintf>
     186:	682b      	ldr	r3, [r5, #0]
     188:	4622      	mov	r2, r4
     18a:	6858      	ldr	r0, [r3, #4]
     18c:	490b      	ldr	r1, [pc, #44]	; (1bc <main+0x9c>)
     18e:	f001 f929 	bl	13e4 <fiscanf>
     192:	480b      	ldr	r0, [pc, #44]	; (1c0 <main+0xa0>)
     194:	9901      	ldr	r1, [sp, #4]
     196:	f001 fa9f 	bl	16d8 <iprintf>
     19a:	480d      	ldr	r0, [pc, #52]	; (1d0 <main+0xb0>)
     19c:	f001 fb14 	bl	17c8 <puts>
     1a0:	e7fe      	b.n	1a0 <main+0x80>
     1a2:	bf00      	nop
     1a4:	00002c38 	.word	0x00002c38
     1a8:	00002c54 	.word	0x00002c54
     1ac:	00002c70 	.word	0x00002c70
     1b0:	00002c88 	.word	0x00002c88
     1b4:	00002ca0 	.word	0x00002ca0
     1b8:	10000130 	.word	0x10000130
     1bc:	00002cc4 	.word	0x00002cc4
     1c0:	00002cc8 	.word	0x00002cc8
     1c4:	00002ce4 	.word	0x00002ce4
     1c8:	00002d08 	.word	0x00002d08
     1cc:	00002d2c 	.word	0x00002d2c
     1d0:	00002d50 	.word	0x00002d50

000001d4 <_start>:
     1d4:	4807      	ldr	r0, [pc, #28]	; (1f4 <_start+0x20>)
     1d6:	4a08      	ldr	r2, [pc, #32]	; (1f8 <_start+0x24>)
     1d8:	b508      	push	{r3, lr}
     1da:	1a12      	subs	r2, r2, r0
     1dc:	2100      	movs	r1, #0
     1de:	f001 f9db 	bl	1598 <memset>
     1e2:	f3af 8000 	nop.w
     1e6:	f001 f9b1 	bl	154c <__libc_init_array>
     1ea:	f7ff ff99 	bl	120 <main>
     1ee:	f000 f80b 	bl	208 <exit>
     1f2:	bf00      	nop
     1f4:	10000140 	.word	0x10000140
     1f8:	10000364 	.word	0x10000364

000001fc <__wrap__isatty>:
     1fc:	2802      	cmp	r0, #2
     1fe:	dc01      	bgt.n	204 <__wrap__isatty+0x8>
     200:	2001      	movs	r0, #1
     202:	4770      	bx	lr
     204:	f000 b89e 	b.w	344 <_isatty>

00000208 <exit>:
     208:	4c0a      	ldr	r4, [pc, #40]	; (234 <exit+0x2c>)
     20a:	b508      	push	{r3, lr}
     20c:	6823      	ldr	r3, [r4, #0]
     20e:	4605      	mov	r5, r0
     210:	6898      	ldr	r0, [r3, #8]
     212:	f001 f817 	bl	1244 <fflush>
     216:	6823      	ldr	r3, [r4, #0]
     218:	68d8      	ldr	r0, [r3, #12]
     21a:	f001 f813 	bl	1244 <fflush>
     21e:	f000 f80b 	bl	238 <mbed_interface_connected>
     222:	b920      	cbnz	r0, 22e <exit+0x26>
     224:	b905      	cbnz	r5, 228 <exit+0x20>
     226:	e7fe      	b.n	226 <exit+0x1e>
     228:	f000 fd5c 	bl	ce4 <mbed_die>
     22c:	e7fb      	b.n	226 <exit+0x1e>
     22e:	f000 f805 	bl	23c <semihost_exit>
     232:	e7f7      	b.n	224 <exit+0x1c>
     234:	10000130 	.word	0x10000130

00000238 <mbed_interface_connected>:
     238:	f000 b80c 	b.w	254 <semihost_connected>

0000023c <semihost_exit>:
     23c:	b530      	push	{r4, r5, lr}
     23e:	b085      	sub	sp, #20
     240:	2418      	movs	r4, #24
     242:	466d      	mov	r5, sp
     244:	4620      	mov	r0, r4
     246:	4629      	mov	r1, r5
     248:	beab      	bkpt	0x00ab
     24a:	4604      	mov	r4, r0
     24c:	4620      	mov	r0, r4
     24e:	b005      	add	sp, #20
     250:	bd30      	pop	{r4, r5, pc}
     252:	bf00      	nop

00000254 <semihost_connected>:
     254:	4b02      	ldr	r3, [pc, #8]	; (260 <semihost_connected+0xc>)
     256:	6818      	ldr	r0, [r3, #0]
     258:	f000 0001 	and.w	r0, r0, #1
     25c:	4770      	bx	lr
     25e:	bf00      	nop
     260:	e000edf0 	.word	0xe000edf0

00000264 <init_serial() [clone .part.0]>:
     264:	4802      	ldr	r0, [pc, #8]	; (270 <init_serial() [clone .part.0]+0xc>)
     266:	4903      	ldr	r1, [pc, #12]	; (274 <init_serial() [clone .part.0]+0x10>)
     268:	4a03      	ldr	r2, [pc, #12]	; (278 <init_serial() [clone .part.0]+0x14>)
     26a:	f000 bbf7 	b.w	a5c <serial_init>
     26e:	bf00      	nop
     270:	10000358 	.word	0x10000358
     274:	2009c002 	.word	0x2009c002
     278:	2009c003 	.word	0x2009c003

0000027c <_close>:
     27c:	2802      	cmp	r0, #2
     27e:	b508      	push	{r3, lr}
     280:	dd0b      	ble.n	29a <_close+0x1e>
     282:	4b08      	ldr	r3, [pc, #32]	; (2a4 <_close+0x28>)
     284:	1ec2      	subs	r2, r0, #3
     286:	f853 0022 	ldr.w	r0, [r3, r2, lsl #2]
     28a:	2100      	movs	r1, #0
     28c:	f843 1022 	str.w	r1, [r3, r2, lsl #2]
     290:	b128      	cbz	r0, 29e <_close+0x22>
     292:	6803      	ldr	r3, [r0, #0]
     294:	685b      	ldr	r3, [r3, #4]
     296:	4798      	blx	r3
     298:	bd08      	pop	{r3, pc}
     29a:	2000      	movs	r0, #0
     29c:	bd08      	pop	{r3, pc}
     29e:	f04f 30ff 	mov.w	r0, #4294967295	; 0xffffffff
     2a2:	bd08      	pop	{r3, pc}
     2a4:	1000015c 	.word	0x1000015c

000002a8 <_write>:
     2a8:	2802      	cmp	r0, #2
     2aa:	b570      	push	{r4, r5, r6, lr}
     2ac:	460c      	mov	r4, r1
     2ae:	4616      	mov	r6, r2
     2b0:	dc0f      	bgt.n	2d2 <_write+0x2a>
     2b2:	4b0e      	ldr	r3, [pc, #56]	; (2ec <_write+0x44>)
     2b4:	681b      	ldr	r3, [r3, #0]
     2b6:	b90b      	cbnz	r3, 2bc <_write+0x14>
     2b8:	f7ff ffd4 	bl	264 <init_serial() [clone .part.0]>
     2bc:	19a5      	adds	r5, r4, r6
     2be:	b136      	cbz	r6, 2ce <_write+0x26>
     2c0:	f814 1b01 	ldrb.w	r1, [r4], #1
     2c4:	480a      	ldr	r0, [pc, #40]	; (2f0 <_write+0x48>)
     2c6:	f000 fb19 	bl	8fc <serial_putc>
     2ca:	42ac      	cmp	r4, r5
     2cc:	d1f8      	bne.n	2c0 <_write+0x18>
     2ce:	4630      	mov	r0, r6
     2d0:	bd70      	pop	{r4, r5, r6, pc}
     2d2:	4b08      	ldr	r3, [pc, #32]	; (2f4 <_write+0x4c>)
     2d4:	3803      	subs	r0, #3
     2d6:	f853 0020 	ldr.w	r0, [r3, r0, lsl #2]
     2da:	b118      	cbz	r0, 2e4 <_write+0x3c>
     2dc:	6803      	ldr	r3, [r0, #0]
     2de:	681b      	ldr	r3, [r3, #0]
     2e0:	4798      	blx	r3
     2e2:	bd70      	pop	{r4, r5, r6, pc}
     2e4:	f04f 30ff 	mov.w	r0, #4294967295	; 0xffffffff
     2e8:	bd70      	pop	{r4, r5, r6, pc}
     2ea:	bf00      	nop
     2ec:	1000025c 	.word	0x1000025c
     2f0:	10000358 	.word	0x10000358
     2f4:	1000015c 	.word	0x1000015c

000002f8 <_read>:
     2f8:	2802      	cmp	r0, #2
     2fa:	b510      	push	{r4, lr}
     2fc:	460c      	mov	r4, r1
     2fe:	dc09      	bgt.n	314 <_read+0x1c>
     300:	4b0d      	ldr	r3, [pc, #52]	; (338 <_read+0x40>)
     302:	681b      	ldr	r3, [r3, #0]
     304:	b18b      	cbz	r3, 32a <_read+0x32>
     306:	480d      	ldr	r0, [pc, #52]	; (33c <_read+0x44>)
     308:	f000 faac 	bl	864 <serial_getc>
     30c:	2301      	movs	r3, #1
     30e:	7020      	strb	r0, [r4, #0]
     310:	4618      	mov	r0, r3
     312:	bd10      	pop	{r4, pc}
     314:	4b0a      	ldr	r3, [pc, #40]	; (340 <_read+0x48>)
     316:	3803      	subs	r0, #3
     318:	f853 0020 	ldr.w	r0, [r3, r0, lsl #2]
     31c:	b140      	cbz	r0, 330 <_read+0x38>
     31e:	6803      	ldr	r3, [r0, #0]
     320:	689b      	ldr	r3, [r3, #8]
     322:	4798      	blx	r3
     324:	4603      	mov	r3, r0
     326:	4618      	mov	r0, r3
     328:	bd10      	pop	{r4, pc}
     32a:	f7ff ff9b 	bl	264 <init_serial() [clone .part.0]>
     32e:	e7ea      	b.n	306 <_read+0xe>
     330:	f04f 33ff 	mov.w	r3, #4294967295	; 0xffffffff
     334:	e7ec      	b.n	310 <_read+0x18>
     336:	bf00      	nop
     338:	1000025c 	.word	0x1000025c
     33c:	10000358 	.word	0x10000358
     340:	1000015c 	.word	0x1000015c

00000344 <_isatty>:
     344:	2802      	cmp	r0, #2
     346:	b508      	push	{r3, lr}
     348:	dd08      	ble.n	35c <_isatty+0x18>
     34a:	4b07      	ldr	r3, [pc, #28]	; (368 <_isatty+0x24>)
     34c:	3803      	subs	r0, #3
     34e:	f853 0020 	ldr.w	r0, [r3, r0, lsl #2]
     352:	b128      	cbz	r0, 360 <_isatty+0x1c>
     354:	6803      	ldr	r3, [r0, #0]
     356:	68db      	ldr	r3, [r3, #12]
     358:	4798      	blx	r3
     35a:	bd08      	pop	{r3, pc}
     35c:	2001      	movs	r0, #1
     35e:	bd08      	pop	{r3, pc}
     360:	f04f 30ff 	mov.w	r0, #4294967295	; 0xffffffff
     364:	bd08      	pop	{r3, pc}
     366:	bf00      	nop
     368:	1000015c 	.word	0x1000015c

0000036c <_lseek>:
     36c:	2802      	cmp	r0, #2
     36e:	b508      	push	{r3, lr}
     370:	dd08      	ble.n	384 <_lseek+0x18>
     372:	4b07      	ldr	r3, [pc, #28]	; (390 <_lseek+0x24>)
     374:	3803      	subs	r0, #3
     376:	f853 0020 	ldr.w	r0, [r3, r0, lsl #2]
     37a:	b128      	cbz	r0, 388 <_lseek+0x1c>
     37c:	6803      	ldr	r3, [r0, #0]
     37e:	691b      	ldr	r3, [r3, #16]
     380:	4798      	blx	r3
     382:	bd08      	pop	{r3, pc}
     384:	2000      	movs	r0, #0
     386:	bd08      	pop	{r3, pc}
     388:	f04f 30ff 	mov.w	r0, #4294967295	; 0xffffffff
     38c:	bd08      	pop	{r3, pc}
     38e:	bf00      	nop
     390:	1000015c 	.word	0x1000015c

00000394 <_fstat>:
     394:	2802      	cmp	r0, #2
     396:	b508      	push	{r3, lr}
     398:	d804      	bhi.n	3a4 <_fstat+0x10>
     39a:	f44f 5300 	mov.w	r3, #8192	; 0x2000
     39e:	604b      	str	r3, [r1, #4]
     3a0:	2000      	movs	r0, #0
     3a2:	bd08      	pop	{r3, pc}
     3a4:	f000 fe9a 	bl	10dc <__errno>
     3a8:	2309      	movs	r3, #9
     3aa:	6003      	str	r3, [r0, #0]
     3ac:	f04f 30ff 	mov.w	r0, #4294967295	; 0xffffffff
     3b0:	bd08      	pop	{r3, pc}
     3b2:	bf00      	nop

000003b4 <_sbrk>:
     3b4:	4a07      	ldr	r2, [pc, #28]	; (3d4 <_sbrk+0x20>)
     3b6:	6813      	ldr	r3, [r2, #0]
     3b8:	4418      	add	r0, r3
     3ba:	f3ef 8108 	mrs	r1, MSP
     3be:	4288      	cmp	r0, r1
     3c0:	d202      	bcs.n	3c8 <_sbrk+0x14>
     3c2:	6010      	str	r0, [r2, #0]
     3c4:	4618      	mov	r0, r3
     3c6:	4770      	bx	lr
     3c8:	4b03      	ldr	r3, [pc, #12]	; (3d8 <_sbrk+0x24>)
     3ca:	220c      	movs	r2, #12
     3cc:	601a      	str	r2, [r3, #0]
     3ce:	f04f 30ff 	mov.w	r0, #4294967295	; 0xffffffff
     3d2:	4770      	bx	lr
     3d4:	100000c8 	.word	0x100000c8
     3d8:	10000360 	.word	0x10000360

000003dc <Reset_Handler>:
     3dc:	4906      	ldr	r1, [pc, #24]	; (3f8 <Reset_Handler+0x1c>)
     3de:	4a07      	ldr	r2, [pc, #28]	; (3fc <Reset_Handler+0x20>)
     3e0:	4b07      	ldr	r3, [pc, #28]	; (400 <Reset_Handler+0x24>)
     3e2:	429a      	cmp	r2, r3
     3e4:	bfbe      	ittt	lt
     3e6:	f851 0b04 	ldrlt.w	r0, [r1], #4
     3ea:	f842 0b04 	strlt.w	r0, [r2], #4
     3ee:	e7f8      	blt.n	3e2 <Reset_Handler+0x6>
     3f0:	4804      	ldr	r0, [pc, #16]	; (404 <Reset_Handler+0x28>)
     3f2:	4780      	blx	r0
     3f4:	4804      	ldr	r0, [pc, #16]	; (408 <Reset_Handler+0x2c>)
     3f6:	4700      	bx	r0
     3f8:	00003090 	.word	0x00003090
     3fc:	100000c8 	.word	0x100000c8
     400:	10000140 	.word	0x10000140
     404:	00000c2d 	.word	0x00000c2d
     408:	000001d5 	.word	0x000001d5

0000040c <NMI_Handler>:
     40c:	e7fe      	b.n	40c <NMI_Handler>

0000040e <HardFault_Handler>:
     40e:	e7fe      	b.n	40e <HardFault_Handler>

00000410 <MemManage_Handler>:
     410:	e7fe      	b.n	410 <MemManage_Handler>

00000412 <BusFault_Handler>:
     412:	e7fe      	b.n	412 <BusFault_Handler>

00000414 <UsageFault_Handler>:
     414:	e7fe      	b.n	414 <UsageFault_Handler>

00000416 <SVC_Handler>:
     416:	e7fe      	b.n	416 <SVC_Handler>

00000418 <DebugMon_Handler>:
     418:	e7fe      	b.n	418 <DebugMon_Handler>

0000041a <PendSV_Handler>:
     41a:	e7fe      	b.n	41a <PendSV_Handler>

0000041c <SysTick_Handler>:
     41c:	e7fe      	b.n	41c <SysTick_Handler>

0000041e <ADC_IRQHandler>:
     41e:	e7fe      	b.n	41e <ADC_IRQHandler>

00000420 <uart2_irq>:
     420:	b508      	push	{r3, lr}
     422:	4a15      	ldr	r2, [pc, #84]	; (478 <uart2_irq+0x58>)
     424:	6893      	ldr	r3, [r2, #8]
     426:	f3c3 0342 	ubfx	r3, r3, #1, #3
     42a:	2b01      	cmp	r3, #1
     42c:	d01e      	beq.n	46c <uart2_irq+0x4c>
     42e:	2b02      	cmp	r3, #2
     430:	d119      	bne.n	466 <uart2_irq+0x46>
     432:	4b12      	ldr	r3, [pc, #72]	; (47c <uart2_irq+0x5c>)
     434:	6f59      	ldr	r1, [r3, #116]	; 0x74
     436:	3101      	adds	r1, #1
     438:	d00a      	beq.n	450 <uart2_irq+0x30>
     43a:	f8d3 1080 	ldr.w	r1, [r3, #128]	; 0x80
     43e:	6f98      	ldr	r0, [r3, #120]	; 0x78
     440:	6008      	str	r0, [r1, #0]
     442:	f893 10a6 	ldrb.w	r1, [r3, #166]	; 0xa6
     446:	b919      	cbnz	r1, 450 <uart2_irq+0x30>
     448:	6851      	ldr	r1, [r2, #4]
     44a:	f021 0101 	bic.w	r1, r1, #1
     44e:	6051      	str	r1, [r2, #4]
     450:	6f18      	ldr	r0, [r3, #112]	; 0x70
     452:	4b0a      	ldr	r3, [pc, #40]	; (47c <uart2_irq+0x5c>)
     454:	b148      	cbz	r0, 46a <uart2_irq+0x4a>
     456:	f893 30a6 	ldrb.w	r3, [r3, #166]	; 0xa6
     45a:	b12b      	cbz	r3, 468 <uart2_irq+0x48>
     45c:	2100      	movs	r1, #0
     45e:	4a08      	ldr	r2, [pc, #32]	; (480 <uart2_irq+0x60>)
     460:	6813      	ldr	r3, [r2, #0]
     462:	4798      	blx	r3
     464:	bd08      	pop	{r3, pc}
     466:	bd08      	pop	{r3, pc}
     468:	bd08      	pop	{r3, pc}
     46a:	bd08      	pop	{r3, pc}
     46c:	4a03      	ldr	r2, [pc, #12]	; (47c <uart2_irq+0x5c>)
     46e:	6f10      	ldr	r0, [r2, #112]	; 0x70
     470:	2800      	cmp	r0, #0
     472:	d0f9      	beq.n	468 <uart2_irq+0x48>
     474:	4619      	mov	r1, r3
     476:	e7f2      	b.n	45e <uart2_irq+0x3e>
     478:	40098000 	.word	0x40098000
     47c:	10000264 	.word	0x10000264
     480:	10000260 	.word	0x10000260

00000484 <serial_irq_set_internal>:
     484:	b570      	push	{r4, r5, r6, lr}
     486:	6803      	ldr	r3, [r0, #0]
     488:	4c29      	ldr	r4, [pc, #164]	; (530 <serial_irq_set_internal+0xac>)
     48a:	42a3      	cmp	r3, r4
     48c:	d049      	beq.n	522 <serial_irq_set_internal+0x9e>
     48e:	dd41      	ble.n	514 <serial_irq_set_internal+0x90>
     490:	4c28      	ldr	r4, [pc, #160]	; (534 <serial_irq_set_internal+0xb0>)
     492:	42a3      	cmp	r3, r4
     494:	d02a      	beq.n	4ec <serial_irq_set_internal+0x68>
     496:	f504 4480 	add.w	r4, r4, #16384	; 0x4000
     49a:	42a3      	cmp	r3, r4
     49c:	d144      	bne.n	528 <serial_irq_set_internal+0xa4>
     49e:	4c26      	ldr	r4, [pc, #152]	; (538 <serial_irq_set_internal+0xb4>)
     4a0:	2608      	movs	r6, #8
     4a2:	bb3a      	cbnz	r2, 4f4 <serial_irq_set_internal+0x70>
     4a4:	2901      	cmp	r1, #1
     4a6:	d00b      	beq.n	4c0 <serial_irq_set_internal+0x3c>
     4a8:	6845      	ldr	r5, [r0, #4]
     4aa:	4a24      	ldr	r2, [pc, #144]	; (53c <serial_irq_set_internal+0xb8>)
     4ac:	ebc5 05c5 	rsb	r5, r5, r5, lsl #3
     4b0:	eb02 04c5 	add.w	r4, r2, r5, lsl #3
     4b4:	f894 5035 	ldrb.w	r5, [r4, #53]	; 0x35
     4b8:	f894 2036 	ldrb.w	r2, [r4, #54]	; 0x36
     4bc:	42ea      	cmn	r2, r5
     4be:	d114      	bne.n	4ea <serial_irq_set_internal+0x66>
     4c0:	2201      	movs	r2, #1
     4c2:	fa02 f501 	lsl.w	r5, r2, r1
     4c6:	f1d1 0101 	rsbs	r1, r1, #1
     4ca:	bf38      	it	cc
     4cc:	2100      	movcc	r1, #0
     4ce:	fa02 f101 	lsl.w	r1, r2, r1
     4d2:	685c      	ldr	r4, [r3, #4]
     4d4:	ea24 0405 	bic.w	r4, r4, r5
     4d8:	605c      	str	r4, [r3, #4]
     4da:	6803      	ldr	r3, [r0, #0]
     4dc:	685b      	ldr	r3, [r3, #4]
     4de:	4219      	tst	r1, r3
     4e0:	d103      	bne.n	4ea <serial_irq_set_internal+0x66>
     4e2:	40b2      	lsls	r2, r6
     4e4:	4b16      	ldr	r3, [pc, #88]	; (540 <serial_irq_set_internal+0xbc>)
     4e6:	f8c3 2080 	str.w	r2, [r3, #128]	; 0x80
     4ea:	bd70      	pop	{r4, r5, r6, pc}
     4ec:	4c15      	ldr	r4, [pc, #84]	; (544 <serial_irq_set_internal+0xc0>)
     4ee:	2607      	movs	r6, #7
     4f0:	2a00      	cmp	r2, #0
     4f2:	d0d7      	beq.n	4a4 <serial_irq_set_internal+0x20>
     4f4:	2501      	movs	r5, #1
     4f6:	fa05 f101 	lsl.w	r1, r5, r1
     4fa:	b276      	sxtb	r6, r6
     4fc:	4630      	mov	r0, r6
     4fe:	fa05 f606 	lsl.w	r6, r5, r6
     502:	685a      	ldr	r2, [r3, #4]
     504:	430a      	orrs	r2, r1
     506:	605a      	str	r2, [r3, #4]
     508:	4621      	mov	r1, r4
     50a:	f000 fb71 	bl	bf0 <NVIC_SetVector>
     50e:	4b0c      	ldr	r3, [pc, #48]	; (540 <serial_irq_set_internal+0xbc>)
     510:	601e      	str	r6, [r3, #0]
     512:	bd70      	pop	{r4, r5, r6, pc}
     514:	f5a4 4480 	sub.w	r4, r4, #16384	; 0x4000
     518:	42a3      	cmp	r3, r4
     51a:	d105      	bne.n	528 <serial_irq_set_internal+0xa4>
     51c:	4c0a      	ldr	r4, [pc, #40]	; (548 <serial_irq_set_internal+0xc4>)
     51e:	2605      	movs	r6, #5
     520:	e7bf      	b.n	4a2 <serial_irq_set_internal+0x1e>
     522:	4c0a      	ldr	r4, [pc, #40]	; (54c <serial_irq_set_internal+0xc8>)
     524:	2606      	movs	r6, #6
     526:	e7bc      	b.n	4a2 <serial_irq_set_internal+0x1e>
     528:	2400      	movs	r4, #0
     52a:	4626      	mov	r6, r4
     52c:	e7b9      	b.n	4a2 <serial_irq_set_internal+0x1e>
     52e:	bf00      	nop
     530:	40010000 	.word	0x40010000
     534:	40098000 	.word	0x40098000
     538:	00000551 	.word	0x00000551
     53c:	10000264 	.word	0x10000264
     540:	e000e100 	.word	0xe000e100
     544:	00000421 	.word	0x00000421
     548:	000005bd 	.word	0x000005bd
     54c:	00000621 	.word	0x00000621

00000550 <uart3_irq>:
     550:	b508      	push	{r3, lr}
     552:	4a17      	ldr	r2, [pc, #92]	; (5b0 <uart3_irq+0x60>)
     554:	6893      	ldr	r3, [r2, #8]
     556:	f3c3 0342 	ubfx	r3, r3, #1, #3
     55a:	2b01      	cmp	r3, #1
     55c:	d021      	beq.n	5a2 <uart3_irq+0x52>
     55e:	2b02      	cmp	r3, #2
     560:	d11c      	bne.n	59c <uart3_irq+0x4c>
     562:	4b14      	ldr	r3, [pc, #80]	; (5b4 <uart3_irq+0x64>)
     564:	f8d3 10ac 	ldr.w	r1, [r3, #172]	; 0xac
     568:	3101      	adds	r1, #1
     56a:	d00b      	beq.n	584 <uart3_irq+0x34>
     56c:	f8d3 10b8 	ldr.w	r1, [r3, #184]	; 0xb8
     570:	f8d3 00b0 	ldr.w	r0, [r3, #176]	; 0xb0
     574:	6008      	str	r0, [r1, #0]
     576:	f893 10de 	ldrb.w	r1, [r3, #222]	; 0xde
     57a:	b919      	cbnz	r1, 584 <uart3_irq+0x34>
     57c:	6851      	ldr	r1, [r2, #4]
     57e:	f021 0101 	bic.w	r1, r1, #1
     582:	6051      	str	r1, [r2, #4]
     584:	f8d3 00a8 	ldr.w	r0, [r3, #168]	; 0xa8
     588:	4b0a      	ldr	r3, [pc, #40]	; (5b4 <uart3_irq+0x64>)
     58a:	b148      	cbz	r0, 5a0 <uart3_irq+0x50>
     58c:	f893 30de 	ldrb.w	r3, [r3, #222]	; 0xde
     590:	b12b      	cbz	r3, 59e <uart3_irq+0x4e>
     592:	2100      	movs	r1, #0
     594:	4a08      	ldr	r2, [pc, #32]	; (5b8 <uart3_irq+0x68>)
     596:	6813      	ldr	r3, [r2, #0]
     598:	4798      	blx	r3
     59a:	bd08      	pop	{r3, pc}
     59c:	bd08      	pop	{r3, pc}
     59e:	bd08      	pop	{r3, pc}
     5a0:	bd08      	pop	{r3, pc}
     5a2:	4a04      	ldr	r2, [pc, #16]	; (5b4 <uart3_irq+0x64>)
     5a4:	f8d2 00a8 	ldr.w	r0, [r2, #168]	; 0xa8
     5a8:	2800      	cmp	r0, #0
     5aa:	d0f8      	beq.n	59e <uart3_irq+0x4e>
     5ac:	4619      	mov	r1, r3
     5ae:	e7f1      	b.n	594 <uart3_irq+0x44>
     5b0:	4009c000 	.word	0x4009c000
     5b4:	10000264 	.word	0x10000264
     5b8:	10000260 	.word	0x10000260

000005bc <uart0_irq>:
     5bc:	b508      	push	{r3, lr}
     5be:	4a15      	ldr	r2, [pc, #84]	; (614 <uart0_irq+0x58>)
     5c0:	6893      	ldr	r3, [r2, #8]
     5c2:	f3c3 0342 	ubfx	r3, r3, #1, #3
     5c6:	2b01      	cmp	r3, #1
     5c8:	d01d      	beq.n	606 <uart0_irq+0x4a>
     5ca:	2b02      	cmp	r3, #2
     5cc:	d118      	bne.n	600 <uart0_irq+0x44>
     5ce:	4b12      	ldr	r3, [pc, #72]	; (618 <uart0_irq+0x5c>)
     5d0:	6859      	ldr	r1, [r3, #4]
     5d2:	3101      	adds	r1, #1
     5d4:	d009      	beq.n	5ea <uart0_irq+0x2e>
     5d6:	6919      	ldr	r1, [r3, #16]
     5d8:	6898      	ldr	r0, [r3, #8]
     5da:	6008      	str	r0, [r1, #0]
     5dc:	f893 1036 	ldrb.w	r1, [r3, #54]	; 0x36
     5e0:	b919      	cbnz	r1, 5ea <uart0_irq+0x2e>
     5e2:	6851      	ldr	r1, [r2, #4]
     5e4:	f021 0101 	bic.w	r1, r1, #1
     5e8:	6051      	str	r1, [r2, #4]
     5ea:	6818      	ldr	r0, [r3, #0]
     5ec:	4b0a      	ldr	r3, [pc, #40]	; (618 <uart0_irq+0x5c>)
     5ee:	b148      	cbz	r0, 604 <uart0_irq+0x48>
     5f0:	f893 3036 	ldrb.w	r3, [r3, #54]	; 0x36
     5f4:	b12b      	cbz	r3, 602 <uart0_irq+0x46>
     5f6:	2100      	movs	r1, #0
     5f8:	4a08      	ldr	r2, [pc, #32]	; (61c <uart0_irq+0x60>)
     5fa:	6813      	ldr	r3, [r2, #0]
     5fc:	4798      	blx	r3
     5fe:	bd08      	pop	{r3, pc}
     600:	bd08      	pop	{r3, pc}
     602:	bd08      	pop	{r3, pc}
     604:	bd08      	pop	{r3, pc}
     606:	4a04      	ldr	r2, [pc, #16]	; (618 <uart0_irq+0x5c>)
     608:	6810      	ldr	r0, [r2, #0]
     60a:	2800      	cmp	r0, #0
     60c:	d0f9      	beq.n	602 <uart0_irq+0x46>
     60e:	4619      	mov	r1, r3
     610:	e7f2      	b.n	5f8 <uart0_irq+0x3c>
     612:	bf00      	nop
     614:	4000c000 	.word	0x4000c000
     618:	10000264 	.word	0x10000264
     61c:	10000260 	.word	0x10000260

00000620 <uart1_irq>:
     620:	b508      	push	{r3, lr}
     622:	4a15      	ldr	r2, [pc, #84]	; (678 <uart1_irq+0x58>)
     624:	6893      	ldr	r3, [r2, #8]
     626:	f3c3 0342 	ubfx	r3, r3, #1, #3
     62a:	2b01      	cmp	r3, #1
     62c:	d01d      	beq.n	66a <uart1_irq+0x4a>
     62e:	2b02      	cmp	r3, #2
     630:	d118      	bne.n	664 <uart1_irq+0x44>
     632:	4b12      	ldr	r3, [pc, #72]	; (67c <uart1_irq+0x5c>)
     634:	6bd9      	ldr	r1, [r3, #60]	; 0x3c
     636:	3101      	adds	r1, #1
     638:	d009      	beq.n	64e <uart1_irq+0x2e>
     63a:	6c99      	ldr	r1, [r3, #72]	; 0x48
     63c:	6c18      	ldr	r0, [r3, #64]	; 0x40
     63e:	6008      	str	r0, [r1, #0]
     640:	f893 106e 	ldrb.w	r1, [r3, #110]	; 0x6e
     644:	b919      	cbnz	r1, 64e <uart1_irq+0x2e>
     646:	6851      	ldr	r1, [r2, #4]
     648:	f021 0101 	bic.w	r1, r1, #1
     64c:	6051      	str	r1, [r2, #4]
     64e:	6b98      	ldr	r0, [r3, #56]	; 0x38
     650:	4b0a      	ldr	r3, [pc, #40]	; (67c <uart1_irq+0x5c>)
     652:	b148      	cbz	r0, 668 <uart1_irq+0x48>
     654:	f893 306e 	ldrb.w	r3, [r3, #110]	; 0x6e
     658:	b12b      	cbz	r3, 666 <uart1_irq+0x46>
     65a:	2100      	movs	r1, #0
     65c:	4a08      	ldr	r2, [pc, #32]	; (680 <uart1_irq+0x60>)
     65e:	6813      	ldr	r3, [r2, #0]
     660:	4798      	blx	r3
     662:	bd08      	pop	{r3, pc}
     664:	bd08      	pop	{r3, pc}
     666:	bd08      	pop	{r3, pc}
     668:	bd08      	pop	{r3, pc}
     66a:	4a04      	ldr	r2, [pc, #16]	; (67c <uart1_irq+0x5c>)
     66c:	6b90      	ldr	r0, [r2, #56]	; 0x38
     66e:	2800      	cmp	r0, #0
     670:	d0f9      	beq.n	666 <uart1_irq+0x46>
     672:	4619      	mov	r1, r3
     674:	e7f2      	b.n	65c <uart1_irq+0x3c>
     676:	bf00      	nop
     678:	40010000 	.word	0x40010000
     67c:	10000264 	.word	0x10000264
     680:	10000260 	.word	0x10000260

00000684 <serial_baud>:
     684:	e92d 0ff0 	stmdb	sp!, {r4, r5, r6, r7, r8, r9, r10, r11}
     688:	b08a      	sub	sp, #40	; 0x28
     68a:	9008      	str	r0, [sp, #32]
     68c:	4b71      	ldr	r3, [pc, #452]	; (854 <Heap_Size+0x54>)
     68e:	6800      	ldr	r0, [r0, #0]
     690:	4298      	cmp	r0, r3
     692:	9009      	str	r0, [sp, #36]	; 0x24
     694:	f000 80cf 	beq.w	836 <Heap_Size+0x36>
     698:	f340 80ba 	ble.w	810 <Heap_Size+0x10>
     69c:	4b6e      	ldr	r3, [pc, #440]	; (858 <Heap_Size+0x58>)
     69e:	9a09      	ldr	r2, [sp, #36]	; 0x24
     6a0:	429a      	cmp	r2, r3
     6a2:	f000 8090 	beq.w	7c6 <serial_baud+0x142>
     6a6:	f503 4380 	add.w	r3, r3, #16384	; 0x4000
     6aa:	429a      	cmp	r2, r3
     6ac:	d10c      	bne.n	6c8 <serial_baud+0x44>
     6ae:	4b6b      	ldr	r3, [pc, #428]	; (85c <Heap_Size+0x5c>)
     6b0:	f8d3 21ac 	ldr.w	r2, [r3, #428]	; 0x1ac
     6b4:	f422 2240 	bic.w	r2, r2, #786432	; 0xc0000
     6b8:	f8c3 21ac 	str.w	r2, [r3, #428]	; 0x1ac
     6bc:	f8d3 21ac 	ldr.w	r2, [r3, #428]	; 0x1ac
     6c0:	f442 2280 	orr.w	r2, r2, #262144	; 0x40000
     6c4:	f8c3 21ac 	str.w	r2, [r3, #428]	; 0x1ac
     6c8:	4b65      	ldr	r3, [pc, #404]	; (860 <Heap_Size+0x60>)
     6ca:	010a      	lsls	r2, r1, #4
     6cc:	681b      	ldr	r3, [r3, #0]
     6ce:	9305      	str	r3, [sp, #20]
     6d0:	9c05      	ldr	r4, [sp, #20]
     6d2:	fbb3 f3f2 	udiv	r3, r3, r2
     6d6:	fb02 4213 	mls	r2, r2, r3, r4
     6da:	b29b      	uxth	r3, r3
     6dc:	9301      	str	r3, [sp, #4]
     6de:	2a00      	cmp	r2, #0
     6e0:	f000 8094 	beq.w	80c <Heap_Size+0xc>
     6e4:	0060      	lsls	r0, r4, #1
     6e6:	00a2      	lsls	r2, r4, #2
     6e8:	f04f 0901 	mov.w	r9, #1
     6ec:	2300      	movs	r3, #0
     6ee:	9007      	str	r0, [sp, #28]
     6f0:	9206      	str	r2, [sp, #24]
     6f2:	4680      	mov	r8, r0
     6f4:	4693      	mov	r11, r2
     6f6:	f8cd 900c 	str.w	r9, [sp, #12]
     6fa:	9104      	str	r1, [sp, #16]
     6fc:	46a2      	mov	r10, r4
     6fe:	468c      	mov	r12, r1
     700:	9302      	str	r3, [sp, #8]
     702:	2200      	movs	r2, #0
     704:	9c04      	ldr	r4, [sp, #16]
     706:	4610      	mov	r0, r2
     708:	fa5f f789 	uxtb.w	r7, r9
     70c:	f1b8 0f00 	cmp.w	r8, #0
     710:	bfb5      	itete	lt
     712:	fbb8 f3f4 	udivlt	r3, r8, r4
     716:	fbbb f3f4 	udivge	r3, r11, r4
     71a:	091b      	lsrlt	r3, r3, #4
     71c:	095b      	lsrge	r3, r3, #5
     71e:	3301      	adds	r3, #1
     720:	f3c3 034f 	ubfx	r3, r3, #1, #16
     724:	eb02 0609 	add.w	r6, r2, r9
     728:	2b00      	cmp	r3, #0
     72a:	d15a      	bne.n	7e2 <serial_baud+0x15e>
     72c:	2301      	movs	r3, #1
     72e:	2800      	cmp	r0, #0
     730:	d15b      	bne.n	7ea <serial_baud+0x166>
     732:	fb03 f506 	mul.w	r5, r3, r6
     736:	00ed      	lsls	r5, r5, #3
     738:	fbba f5f5 	udiv	r5, r10, r5
     73c:	3501      	adds	r5, #1
     73e:	ebc1 0555 	rsb	r5, r1, r5, lsr #1
     742:	2d00      	cmp	r5, #0
     744:	bfb8      	it	lt
     746:	426d      	neglt	r5, r5
     748:	4565      	cmp	r5, r12
     74a:	da05      	bge.n	758 <serial_baud+0xd4>
     74c:	428d      	cmp	r5, r1
     74e:	d04e      	beq.n	7ee <serial_baud+0x16a>
     750:	46ac      	mov	r12, r5
     752:	9002      	str	r0, [sp, #8]
     754:	9301      	str	r3, [sp, #4]
     756:	9703      	str	r7, [sp, #12]
     758:	3201      	adds	r2, #1
     75a:	b2d0      	uxtb	r0, r2
     75c:	4287      	cmp	r7, r0
     75e:	440c      	add	r4, r1
     760:	d8d4      	bhi.n	70c <serial_baud+0x88>
     762:	f1b9 0f0f 	cmp.w	r9, #15
     766:	f04f 0300 	mov.w	r3, #0
     76a:	d049      	beq.n	800 <Heap_Size>
     76c:	9a05      	ldr	r2, [sp, #20]
     76e:	9c07      	ldr	r4, [sp, #28]
     770:	4492      	add	r10, r2
     772:	9a04      	ldr	r2, [sp, #16]
     774:	9806      	ldr	r0, [sp, #24]
     776:	440a      	add	r2, r1
     778:	f109 0901 	add.w	r9, r9, #1
     77c:	44a0      	add	r8, r4
     77e:	4483      	add	r11, r0
     780:	9204      	str	r2, [sp, #16]
     782:	2b00      	cmp	r3, #0
     784:	d0bd      	beq.n	702 <serial_baud+0x7e>
     786:	9b02      	ldr	r3, [sp, #8]
     788:	9c03      	ldr	r4, [sp, #12]
     78a:	ea43 1004 	orr.w	r0, r3, r4, lsl #4
     78e:	b2c0      	uxtb	r0, r0
     790:	9a09      	ldr	r2, [sp, #36]	; 0x24
     792:	9c01      	ldr	r4, [sp, #4]
     794:	7b13      	ldrb	r3, [r2, #12]
     796:	f3c4 2107 	ubfx	r1, r4, #8, #8
     79a:	f043 0380 	orr.w	r3, r3, #128	; 0x80
     79e:	7313      	strb	r3, [r2, #12]
     7a0:	9a08      	ldr	r2, [sp, #32]
     7a2:	6813      	ldr	r3, [r2, #0]
     7a4:	b2e2      	uxtb	r2, r4
     7a6:	9c08      	ldr	r4, [sp, #32]
     7a8:	7119      	strb	r1, [r3, #4]
     7aa:	6823      	ldr	r3, [r4, #0]
     7ac:	701a      	strb	r2, [r3, #0]
     7ae:	6823      	ldr	r3, [r4, #0]
     7b0:	f883 0028 	strb.w	r0, [r3, #40]	; 0x28
     7b4:	6823      	ldr	r3, [r4, #0]
     7b6:	7b1a      	ldrb	r2, [r3, #12]
     7b8:	f002 027f 	and.w	r2, r2, #127	; 0x7f
     7bc:	731a      	strb	r2, [r3, #12]
     7be:	b00a      	add	sp, #40	; 0x28
     7c0:	e8bd 0ff0 	ldmia.w	sp!, {r4, r5, r6, r7, r8, r9, r10, r11}
     7c4:	4770      	bx	lr
     7c6:	4b25      	ldr	r3, [pc, #148]	; (85c <Heap_Size+0x5c>)
     7c8:	f8d3 21ac 	ldr.w	r2, [r3, #428]	; 0x1ac
     7cc:	f422 3240 	bic.w	r2, r2, #196608	; 0x30000
     7d0:	f8c3 21ac 	str.w	r2, [r3, #428]	; 0x1ac
     7d4:	f8d3 21ac 	ldr.w	r2, [r3, #428]	; 0x1ac
     7d8:	f442 3280 	orr.w	r2, r2, #65536	; 0x10000
     7dc:	f8c3 21ac 	str.w	r2, [r3, #428]	; 0x1ac
     7e0:	e772      	b.n	6c8 <serial_baud+0x44>
     7e2:	2800      	cmp	r0, #0
     7e4:	d0a5      	beq.n	732 <serial_baud+0xae>
     7e6:	2b01      	cmp	r3, #1
     7e8:	d8a3      	bhi.n	732 <serial_baud+0xae>
     7ea:	2302      	movs	r3, #2
     7ec:	e7a1      	b.n	732 <serial_baud+0xae>
     7ee:	f1b9 0f0f 	cmp.w	r9, #15
     7f2:	9301      	str	r3, [sp, #4]
     7f4:	9703      	str	r7, [sp, #12]
     7f6:	9002      	str	r0, [sp, #8]
     7f8:	468c      	mov	r12, r1
     7fa:	f04f 0301 	mov.w	r3, #1
     7fe:	d1b5      	bne.n	76c <serial_baud+0xe8>
     800:	9c02      	ldr	r4, [sp, #8]
     802:	9903      	ldr	r1, [sp, #12]
     804:	ea44 1001 	orr.w	r0, r4, r1, lsl #4
     808:	b2c0      	uxtb	r0, r0
     80a:	e7c1      	b.n	790 <serial_baud+0x10c>
     80c:	2010      	movs	r0, #16
     80e:	e7bf      	b.n	790 <serial_baud+0x10c>
     810:	f5a3 4380 	sub.w	r3, r3, #16384	; 0x4000
     814:	4298      	cmp	r0, r3
     816:	f47f af57 	bne.w	6c8 <serial_baud+0x44>
     81a:	4b10      	ldr	r3, [pc, #64]	; (85c <Heap_Size+0x5c>)
     81c:	f8d3 21a8 	ldr.w	r2, [r3, #424]	; 0x1a8
     820:	f022 02c0 	bic.w	r2, r2, #192	; 0xc0
     824:	f8c3 21a8 	str.w	r2, [r3, #424]	; 0x1a8
     828:	f8d3 21a8 	ldr.w	r2, [r3, #424]	; 0x1a8
     82c:	f042 0240 	orr.w	r2, r2, #64	; 0x40
     830:	f8c3 21a8 	str.w	r2, [r3, #424]	; 0x1a8
     834:	e748      	b.n	6c8 <serial_baud+0x44>
     836:	4b09      	ldr	r3, [pc, #36]	; (85c <Heap_Size+0x5c>)
     838:	f8d3 21a8 	ldr.w	r2, [r3, #424]	; 0x1a8
     83c:	f422 7240 	bic.w	r2, r2, #768	; 0x300
     840:	f8c3 21a8 	str.w	r2, [r3, #424]	; 0x1a8
     844:	f8d3 21a8 	ldr.w	r2, [r3, #424]	; 0x1a8
     848:	f442 7280 	orr.w	r2, r2, #256	; 0x100
     84c:	f8c3 21a8 	str.w	r2, [r3, #424]	; 0x1a8
     850:	e73a      	b.n	6c8 <serial_baud+0x44>
     852:	bf00      	nop
     854:	40010000 	.word	0x40010000
     858:	40098000 	.word	0x40098000
     85c:	400fc000 	.word	0x400fc000
     860:	100000cc 	.word	0x100000cc

00000864 <serial_getc>:
     864:	6802      	ldr	r2, [r0, #0]
     866:	7d13      	ldrb	r3, [r2, #20]
     868:	07db      	lsls	r3, r3, #31
     86a:	d5fc      	bpl.n	866 <serial_getc+0x2>
     86c:	6843      	ldr	r3, [r0, #4]
     86e:	4909      	ldr	r1, [pc, #36]	; (894 <serial_getc+0x30>)
     870:	ebc3 03c3 	rsb	r3, r3, r3, lsl #3
     874:	eb01 03c3 	add.w	r3, r1, r3, lsl #3
     878:	6859      	ldr	r1, [r3, #4]
     87a:	7810      	ldrb	r0, [r2, #0]
     87c:	3101      	adds	r1, #1
     87e:	b2c0      	uxtb	r0, r0
     880:	d007      	beq.n	892 <serial_getc+0x2e>
     882:	6959      	ldr	r1, [r3, #20]
     884:	3304      	adds	r3, #4
     886:	685b      	ldr	r3, [r3, #4]
     888:	600b      	str	r3, [r1, #0]
     88a:	6853      	ldr	r3, [r2, #4]
     88c:	f043 0301 	orr.w	r3, r3, #1
     890:	6053      	str	r3, [r2, #4]
     892:	4770      	bx	lr
     894:	10000264 	.word	0x10000264

00000898 <serial_writable>:
     898:	6843      	ldr	r3, [r0, #4]
     89a:	4a17      	ldr	r2, [pc, #92]	; (8f8 <serial_writable+0x60>)
     89c:	ebc3 03c3 	rsb	r3, r3, r3, lsl #3
     8a0:	00db      	lsls	r3, r3, #3
     8a2:	18d1      	adds	r1, r2, r3
     8a4:	b410      	push	{r4}
     8a6:	69cc      	ldr	r4, [r1, #28]
     8a8:	3401      	adds	r4, #1
     8aa:	d011      	beq.n	8d0 <serial_writable+0x38>
     8ac:	6b0a      	ldr	r2, [r1, #48]	; 0x30
     8ae:	f101 031c 	add.w	r3, r1, #28
     8b2:	685b      	ldr	r3, [r3, #4]
     8b4:	6812      	ldr	r2, [r2, #0]
     8b6:	421a      	tst	r2, r3
     8b8:	d003      	beq.n	8c2 <serial_writable+0x2a>
     8ba:	2000      	movs	r0, #0
     8bc:	f85d 4b04 	ldr.w	r4, [sp], #4
     8c0:	4770      	bx	lr
     8c2:	6803      	ldr	r3, [r0, #0]
     8c4:	f85d 4b04 	ldr.w	r4, [sp], #4
     8c8:	7d18      	ldrb	r0, [r3, #20]
     8ca:	f3c0 1080 	ubfx	r0, r0, #6, #1
     8ce:	4770      	bx	lr
     8d0:	6803      	ldr	r3, [r0, #0]
     8d2:	7d1b      	ldrb	r3, [r3, #20]
     8d4:	069b      	lsls	r3, r3, #26
     8d6:	d408      	bmi.n	8ea <serial_writable+0x52>
     8d8:	f891 0034 	ldrb.w	r0, [r1, #52]	; 0x34
     8dc:	f85d 4b04 	ldr.w	r4, [sp], #4
     8e0:	280f      	cmp	r0, #15
     8e2:	bf8c      	ite	hi
     8e4:	2000      	movhi	r0, #0
     8e6:	2001      	movls	r0, #1
     8e8:	4770      	bx	lr
     8ea:	2300      	movs	r3, #0
     8ec:	f881 3034 	strb.w	r3, [r1, #52]	; 0x34
     8f0:	2001      	movs	r0, #1
     8f2:	f85d 4b04 	ldr.w	r4, [sp], #4
     8f6:	4770      	bx	lr
     8f8:	10000264 	.word	0x10000264

000008fc <serial_putc>:
     8fc:	b538      	push	{r3, r4, r5, lr}
     8fe:	4604      	mov	r4, r0
     900:	460d      	mov	r5, r1
     902:	4620      	mov	r0, r4
     904:	f7ff ffc8 	bl	898 <serial_writable>
     908:	2800      	cmp	r0, #0
     90a:	d0fa      	beq.n	902 <serial_putc+0x6>
     90c:	6823      	ldr	r3, [r4, #0]
     90e:	b2ed      	uxtb	r5, r5
     910:	701d      	strb	r5, [r3, #0]
     912:	6862      	ldr	r2, [r4, #4]
     914:	4b05      	ldr	r3, [pc, #20]	; (92c <serial_putc+0x30>)
     916:	ebc2 02c2 	rsb	r2, r2, r2, lsl #3
     91a:	eb03 03c2 	add.w	r3, r3, r2, lsl #3
     91e:	f893 2034 	ldrb.w	r2, [r3, #52]	; 0x34
     922:	3201      	adds	r2, #1
     924:	f883 2034 	strb.w	r2, [r3, #52]	; 0x34
     928:	bd38      	pop	{r3, r4, r5, pc}
     92a:	bf00      	nop
     92c:	10000264 	.word	0x10000264

00000930 <serial_set_flow_control>:
     930:	e92d 4ff0 	stmdb	sp!, {r4, r5, r6, r7, r8, r9, r10, r11, lr}
     934:	4604      	mov	r4, r0
     936:	4d45      	ldr	r5, [pc, #276]	; (a4c <serial_set_flow_control+0x11c>)
     938:	6800      	ldr	r0, [r0, #0]
     93a:	b083      	sub	sp, #12
     93c:	42a8      	cmp	r0, r5
     93e:	460e      	mov	r6, r1
     940:	4690      	mov	r8, r2
     942:	4699      	mov	r9, r3
     944:	d043      	beq.n	9ce <serial_set_flow_control+0x9e>
     946:	6865      	ldr	r5, [r4, #4]
     948:	2300      	movs	r3, #0
     94a:	9301      	str	r3, [sp, #4]
     94c:	462a      	mov	r2, r5
     94e:	f8df a108 	ldr.w	r10, [pc, #264]	; a58 <serial_set_flow_control+0x128>
     952:	00ef      	lsls	r7, r5, #3
     954:	ebc2 02c2 	rsb	r2, r2, r2, lsl #3
     958:	1b78      	subs	r0, r7, r5
     95a:	f04f 0e00 	mov.w	lr, #0
     95e:	eb0a 00c0 	add.w	r0, r10, r0, lsl #3
     962:	eb0a 0cc2 	add.w	r12, r10, r2, lsl #3
     966:	f04f 33ff 	mov.w	r3, #4294967295	; 0xffffffff
     96a:	61c3      	str	r3, [r0, #28]
     96c:	6043      	str	r3, [r0, #4]
     96e:	4671      	mov	r1, lr
     970:	4672      	mov	r2, lr
     972:	4620      	mov	r0, r4
     974:	f88c e035 	strb.w	lr, [r12, #53]	; 0x35
     978:	f7ff fd84 	bl	484 <serial_irq_set_internal>
     97c:	b916      	cbnz	r6, 984 <serial_set_flow_control+0x54>
     97e:	b003      	add	sp, #12
     980:	e8bd 8ff0 	ldmia.w	sp!, {r4, r5, r6, r7, r8, r9, r10, r11, pc}
     984:	4932      	ldr	r1, [pc, #200]	; (a50 <serial_set_flow_control+0x120>)
     986:	4640      	mov	r0, r8
     988:	f000 fa6e 	bl	e68 <pinmap_find_peripheral>
     98c:	4931      	ldr	r1, [pc, #196]	; (a54 <serial_set_flow_control+0x124>)
     98e:	4683      	mov	r11, r0
     990:	4648      	mov	r0, r9
     992:	f000 fa69 	bl	e68 <pinmap_find_peripheral>
     996:	1eb2      	subs	r2, r6, #2
     998:	2a01      	cmp	r2, #1
     99a:	d938      	bls.n	a0e <serial_set_flow_control+0xde>
     99c:	2e01      	cmp	r6, #1
     99e:	d1ee      	bne.n	97e <serial_set_flow_control+0x4e>
     9a0:	f1b8 3fff 	cmp.w	r8, #4294967295	; 0xffffffff
     9a4:	d0eb      	beq.n	97e <serial_set_flow_control+0x4e>
     9a6:	4929      	ldr	r1, [pc, #164]	; (a4c <serial_set_flow_control+0x11c>)
     9a8:	6822      	ldr	r2, [r4, #0]
     9aa:	2007      	movs	r0, #7
     9ac:	458b      	cmp	r11, r1
     9ae:	7210      	strb	r0, [r2, #8]
     9b0:	d115      	bne.n	9de <serial_set_flow_control+0xae>
     9b2:	9b01      	ldr	r3, [sp, #4]
     9b4:	b19b      	cbz	r3, 9de <serial_set_flow_control+0xae>
     9b6:	7c1b      	ldrb	r3, [r3, #16]
     9b8:	9a01      	ldr	r2, [sp, #4]
     9ba:	4925      	ldr	r1, [pc, #148]	; (a50 <serial_set_flow_control+0x120>)
     9bc:	f043 0340 	orr.w	r3, r3, #64	; 0x40
     9c0:	4640      	mov	r0, r8
     9c2:	7413      	strb	r3, [r2, #16]
     9c4:	b003      	add	sp, #12
     9c6:	e8bd 4ff0 	ldmia.w	sp!, {r4, r5, r6, r7, r8, r9, r10, r11, lr}
     9ca:	f000 ba1b 	b.w	e04 <pinmap_pinout>
     9ce:	7c03      	ldrb	r3, [r0, #16]
     9d0:	6865      	ldr	r5, [r4, #4]
     9d2:	f003 033f 	and.w	r3, r3, #63	; 0x3f
     9d6:	7403      	strb	r3, [r0, #16]
     9d8:	6862      	ldr	r2, [r4, #4]
     9da:	9001      	str	r0, [sp, #4]
     9dc:	e7b7      	b.n	94e <serial_set_flow_control+0x1e>
     9de:	1b7d      	subs	r5, r7, r5
     9e0:	eb0a 00c5 	add.w	r0, r10, r5, lsl #3
     9e4:	4641      	mov	r1, r8
     9e6:	3004      	adds	r0, #4
     9e8:	2200      	movs	r2, #0
     9ea:	f000 f9ef 	bl	dcc <gpio_init_out_ex>
     9ee:	6862      	ldr	r2, [r4, #4]
     9f0:	2501      	movs	r5, #1
     9f2:	ebc2 02c2 	rsb	r2, r2, r2, lsl #3
     9f6:	eb0a 03c2 	add.w	r3, r10, r2, lsl #3
     9fa:	4620      	mov	r0, r4
     9fc:	462a      	mov	r2, r5
     9fe:	2100      	movs	r1, #0
     a00:	f883 5035 	strb.w	r5, [r3, #53]	; 0x35
     a04:	b003      	add	sp, #12
     a06:	e8bd 4ff0 	ldmia.w	sp!, {r4, r5, r6, r7, r8, r9, r10, r11, lr}
     a0a:	f7ff bd3b 	b.w	484 <serial_irq_set_internal>
     a0e:	f1b9 3fff 	cmp.w	r9, #4294967295	; 0xffffffff
     a12:	d009      	beq.n	a28 <serial_set_flow_control+0xf8>
     a14:	4a0d      	ldr	r2, [pc, #52]	; (a4c <serial_set_flow_control+0x11c>)
     a16:	4290      	cmp	r0, r2
     a18:	d00c      	beq.n	a34 <serial_set_flow_control+0x104>
     a1a:	1b78      	subs	r0, r7, r5
     a1c:	eb0a 00c0 	add.w	r0, r10, r0, lsl #3
     a20:	4649      	mov	r1, r9
     a22:	301c      	adds	r0, #28
     a24:	f000 f9aa 	bl	d7c <gpio_init_in>
     a28:	2e03      	cmp	r6, #3
     a2a:	d1a8      	bne.n	97e <serial_set_flow_control+0x4e>
     a2c:	f1b8 3fff 	cmp.w	r8, #4294967295	; 0xffffffff
     a30:	d1b9      	bne.n	9a6 <serial_set_flow_control+0x76>
     a32:	e7a4      	b.n	97e <serial_set_flow_control+0x4e>
     a34:	9b01      	ldr	r3, [sp, #4]
     a36:	2b00      	cmp	r3, #0
     a38:	d0ef      	beq.n	a1a <serial_set_flow_control+0xea>
     a3a:	7c1a      	ldrb	r2, [r3, #16]
     a3c:	4648      	mov	r0, r9
     a3e:	f042 0280 	orr.w	r2, r2, #128	; 0x80
     a42:	741a      	strb	r2, [r3, #16]
     a44:	4903      	ldr	r1, [pc, #12]	; (a54 <serial_set_flow_control+0x124>)
     a46:	f000 f9dd 	bl	e04 <pinmap_pinout>
     a4a:	e7ed      	b.n	a28 <serial_set_flow_control+0xf8>
     a4c:	40010000 	.word	0x40010000
     a50:	00002d60 	.word	0x00002d60
     a54:	00002e5c 	.word	0x00002e5c
     a58:	10000264 	.word	0x10000264

00000a5c <serial_init>:
     a5c:	e92d 41f0 	stmdb	sp!, {r4, r5, r6, r7, r8, lr}
     a60:	4605      	mov	r5, r0
     a62:	460f      	mov	r7, r1
     a64:	4608      	mov	r0, r1
     a66:	4959      	ldr	r1, [pc, #356]	; (bcc <serial_init+0x170>)
     a68:	4616      	mov	r6, r2
     a6a:	f000 fa0b 	bl	e84 <pinmap_peripheral>
     a6e:	4958      	ldr	r1, [pc, #352]	; (bd0 <serial_init+0x174>)
     a70:	4604      	mov	r4, r0
     a72:	4630      	mov	r0, r6
     a74:	f000 fa06 	bl	e84 <pinmap_peripheral>
     a78:	4601      	mov	r1, r0
     a7a:	4620      	mov	r0, r4
     a7c:	f000 f9e2 	bl	e44 <pinmap_merge>
     a80:	4b54      	ldr	r3, [pc, #336]	; (bd4 <serial_init+0x178>)
     a82:	4604      	mov	r4, r0
     a84:	4298      	cmp	r0, r3
     a86:	6028      	str	r0, [r5, #0]
     a88:	d07f      	beq.n	b8a <serial_init+0x12e>
     a8a:	d96f      	bls.n	b6c <serial_init+0x110>
     a8c:	4b52      	ldr	r3, [pc, #328]	; (bd8 <serial_init+0x17c>)
     a8e:	4298      	cmp	r0, r3
     a90:	d04b      	beq.n	b2a <serial_init+0xce>
     a92:	f503 4380 	add.w	r3, r3, #16384	; 0x4000
     a96:	4298      	cmp	r0, r3
     a98:	d106      	bne.n	aa8 <serial_init+0x4c>
     a9a:	4b50      	ldr	r3, [pc, #320]	; (bdc <serial_init+0x180>)
     a9c:	f8d3 20c4 	ldr.w	r2, [r3, #196]	; 0xc4
     aa0:	f042 7200 	orr.w	r2, r2, #33554432	; 0x2000000
     aa4:	f8c3 20c4 	str.w	r2, [r3, #196]	; 0xc4
     aa8:	2301      	movs	r3, #1
     aaa:	7223      	strb	r3, [r4, #8]
     aac:	682b      	ldr	r3, [r5, #0]
     aae:	f04f 0800 	mov.w	r8, #0
     ab2:	f8c3 8004 	str.w	r8, [r3, #4]
     ab6:	4628      	mov	r0, r5
     ab8:	f44f 5116 	mov.w	r1, #9600	; 0x2580
     abc:	f7ff fde2 	bl	684 <serial_baud>
     ac0:	682b      	ldr	r3, [r5, #0]
     ac2:	2203      	movs	r2, #3
     ac4:	731a      	strb	r2, [r3, #12]
     ac6:	4638      	mov	r0, r7
     ac8:	4940      	ldr	r1, [pc, #256]	; (bcc <serial_init+0x170>)
     aca:	f000 f99b 	bl	e04 <pinmap_pinout>
     ace:	4630      	mov	r0, r6
     ad0:	493f      	ldr	r1, [pc, #252]	; (bd0 <serial_init+0x174>)
     ad2:	f000 f997 	bl	e04 <pinmap_pinout>
     ad6:	1c7a      	adds	r2, r7, #1
     ad8:	d003      	beq.n	ae2 <serial_init+0x86>
     ada:	4638      	mov	r0, r7
     adc:	4641      	mov	r1, r8
     ade:	f000 fa47 	bl	f70 <pin_mode>
     ae2:	1c73      	adds	r3, r6, #1
     ae4:	d003      	beq.n	aee <serial_init+0x92>
     ae6:	4630      	mov	r0, r6
     ae8:	2100      	movs	r1, #0
     aea:	f000 fa41 	bl	f70 <pin_mode>
     aee:	4b39      	ldr	r3, [pc, #228]	; (bd4 <serial_init+0x178>)
     af0:	429c      	cmp	r4, r3
     af2:	d047      	beq.n	b84 <serial_init+0x128>
     af4:	d921      	bls.n	b3a <serial_init+0xde>
     af6:	4b38      	ldr	r3, [pc, #224]	; (bd8 <serial_init+0x17c>)
     af8:	429c      	cmp	r4, r3
     afa:	d063      	beq.n	bc4 <serial_init+0x168>
     afc:	f503 4380 	add.w	r3, r3, #16384	; 0x4000
     b00:	429c      	cmp	r4, r3
     b02:	d14a      	bne.n	b9a <serial_init+0x13e>
     b04:	2303      	movs	r3, #3
     b06:	606b      	str	r3, [r5, #4]
     b08:	4935      	ldr	r1, [pc, #212]	; (be0 <serial_init+0x184>)
     b0a:	ebc3 03c3 	rsb	r3, r3, r3, lsl #3
     b0e:	f04f 34ff 	mov.w	r4, #4294967295	; 0xffffffff
     b12:	4628      	mov	r0, r5
     b14:	eb01 05c3 	add.w	r5, r1, r3, lsl #3
     b18:	4622      	mov	r2, r4
     b1a:	4623      	mov	r3, r4
     b1c:	606c      	str	r4, [r5, #4]
     b1e:	61ec      	str	r4, [r5, #28]
     b20:	2100      	movs	r1, #0
     b22:	e8bd 41f0 	ldmia.w	sp!, {r4, r5, r6, r7, r8, lr}
     b26:	f7ff bf03 	b.w	930 <serial_set_flow_control>
     b2a:	4b2c      	ldr	r3, [pc, #176]	; (bdc <serial_init+0x180>)
     b2c:	f8d3 20c4 	ldr.w	r2, [r3, #196]	; 0xc4
     b30:	f042 7280 	orr.w	r2, r2, #16777216	; 0x1000000
     b34:	f8c3 20c4 	str.w	r2, [r3, #196]	; 0xc4
     b38:	e7b6      	b.n	aa8 <serial_init+0x4c>
     b3a:	f5a3 4380 	sub.w	r3, r3, #16384	; 0x4000
     b3e:	429c      	cmp	r4, r3
     b40:	d12b      	bne.n	b9a <serial_init+0x13e>
     b42:	4e27      	ldr	r6, [pc, #156]	; (be0 <serial_init+0x184>)
     b44:	f04f 34ff 	mov.w	r4, #4294967295	; 0xffffffff
     b48:	2100      	movs	r1, #0
     b4a:	6069      	str	r1, [r5, #4]
     b4c:	4622      	mov	r2, r4
     b4e:	4623      	mov	r3, r4
     b50:	4628      	mov	r0, r5
     b52:	6074      	str	r4, [r6, #4]
     b54:	61f4      	str	r4, [r6, #28]
     b56:	f7ff feeb 	bl	930 <serial_set_flow_control>
     b5a:	4b22      	ldr	r3, [pc, #136]	; (be4 <serial_init+0x188>)
     b5c:	2201      	movs	r2, #1
     b5e:	601a      	str	r2, [r3, #0]
     b60:	6828      	ldr	r0, [r5, #0]
     b62:	6869      	ldr	r1, [r5, #4]
     b64:	4b20      	ldr	r3, [pc, #128]	; (be8 <serial_init+0x18c>)
     b66:	c303      	stmia	r3!, {r0, r1}
     b68:	e8bd 81f0 	ldmia.w	sp!, {r4, r5, r6, r7, r8, pc}
     b6c:	f5a3 4380 	sub.w	r3, r3, #16384	; 0x4000
     b70:	4298      	cmp	r0, r3
     b72:	d199      	bne.n	aa8 <serial_init+0x4c>
     b74:	4b19      	ldr	r3, [pc, #100]	; (bdc <serial_init+0x180>)
     b76:	f8d3 20c4 	ldr.w	r2, [r3, #196]	; 0xc4
     b7a:	f042 0208 	orr.w	r2, r2, #8
     b7e:	f8c3 20c4 	str.w	r2, [r3, #196]	; 0xc4
     b82:	e791      	b.n	aa8 <serial_init+0x4c>
     b84:	2301      	movs	r3, #1
     b86:	606b      	str	r3, [r5, #4]
     b88:	e7be      	b.n	b08 <serial_init+0xac>
     b8a:	4b14      	ldr	r3, [pc, #80]	; (bdc <serial_init+0x180>)
     b8c:	f8d3 20c4 	ldr.w	r2, [r3, #196]	; 0xc4
     b90:	f042 0210 	orr.w	r2, r2, #16
     b94:	f8c3 20c4 	str.w	r2, [r3, #196]	; 0xc4
     b98:	e786      	b.n	aa8 <serial_init+0x4c>
     b9a:	686b      	ldr	r3, [r5, #4]
     b9c:	4910      	ldr	r1, [pc, #64]	; (be0 <serial_init+0x184>)
     b9e:	ebc3 03c3 	rsb	r3, r3, r3, lsl #3
     ba2:	f04f 36ff 	mov.w	r6, #4294967295	; 0xffffffff
     ba6:	eb01 07c3 	add.w	r7, r1, r3, lsl #3
     baa:	4632      	mov	r2, r6
     bac:	4633      	mov	r3, r6
     bae:	4628      	mov	r0, r5
     bb0:	2100      	movs	r1, #0
     bb2:	607e      	str	r6, [r7, #4]
     bb4:	61fe      	str	r6, [r7, #28]
     bb6:	f7ff febb 	bl	930 <serial_set_flow_control>
     bba:	4b0c      	ldr	r3, [pc, #48]	; (bec <serial_init+0x190>)
     bbc:	429c      	cmp	r4, r3
     bbe:	d0cc      	beq.n	b5a <serial_init+0xfe>
     bc0:	e8bd 81f0 	ldmia.w	sp!, {r4, r5, r6, r7, r8, pc}
     bc4:	2302      	movs	r3, #2
     bc6:	606b      	str	r3, [r5, #4]
     bc8:	e79e      	b.n	b08 <serial_init+0xac>
     bca:	bf00      	nop
     bcc:	00002df0 	.word	0x00002df0
     bd0:	00002d84 	.word	0x00002d84
     bd4:	40010000 	.word	0x40010000
     bd8:	40098000 	.word	0x40098000
     bdc:	400fc000 	.word	0x400fc000
     be0:	10000264 	.word	0x10000264
     be4:	1000025c 	.word	0x1000025c
     be8:	10000358 	.word	0x10000358
     bec:	4000c000 	.word	0x4000c000

00000bf0 <NVIC_SetVector>:
     bf0:	4a0c      	ldr	r2, [pc, #48]	; (c24 <Stack_Size+0x24>)
     bf2:	b430      	push	{r4, r5}
     bf4:	6893      	ldr	r3, [r2, #8]
     bf6:	6894      	ldr	r4, [r2, #8]
     bf8:	461a      	mov	r2, r3
     bfa:	f1b4 5f80 	cmp.w	r4, #268435456	; 0x10000000
     bfe:	d20c      	bcs.n	c1a <Stack_Size+0x1a>
     c00:	4a09      	ldr	r2, [pc, #36]	; (c28 <Stack_Size+0x28>)
     c02:	f103 05c4 	add.w	r5, r3, #196	; 0xc4
     c06:	f853 4b04 	ldr.w	r4, [r3], #4
     c0a:	42ab      	cmp	r3, r5
     c0c:	f842 4f04 	str.w	r4, [r2, #4]!
     c10:	d1f9      	bne.n	c06 <Stack_Size+0x6>
     c12:	4b04      	ldr	r3, [pc, #16]	; (c24 <Stack_Size+0x24>)
     c14:	f04f 5280 	mov.w	r2, #268435456	; 0x10000000
     c18:	609a      	str	r2, [r3, #8]
     c1a:	3010      	adds	r0, #16
     c1c:	f842 1020 	str.w	r1, [r2, r0, lsl #2]
     c20:	bc30      	pop	{r4, r5}
     c22:	4770      	bx	lr
     c24:	e000ed00 	.word	0xe000ed00
     c28:	0ffffffc 	.word	0x0ffffffc

00000c2c <SystemInit>:
     c2c:	4a2b      	ldr	r2, [pc, #172]	; (cdc <SystemInit+0xb0>)
     c2e:	2320      	movs	r3, #32
     c30:	b470      	push	{r4, r5, r6}
     c32:	f8c2 31a0 	str.w	r3, [r2, #416]	; 0x1a0
     c36:	f8d2 31a0 	ldr.w	r3, [r2, #416]	; 0x1a0
     c3a:	0698      	lsls	r0, r3, #26
     c3c:	d445      	bmi.n	cca <SystemInit+0x9e>
     c3e:	4b27      	ldr	r3, [pc, #156]	; (cdc <SystemInit+0xb0>)
     c40:	2102      	movs	r1, #2
     c42:	2500      	movs	r5, #0
     c44:	2401      	movs	r4, #1
     c46:	20aa      	movs	r0, #170	; 0xaa
     c48:	2255      	movs	r2, #85	; 0x55
     c4a:	260b      	movs	r6, #11
     c4c:	f8c3 1104 	str.w	r1, [r3, #260]	; 0x104
     c50:	f8c3 51a8 	str.w	r5, [r3, #424]	; 0x1a8
     c54:	4619      	mov	r1, r3
     c56:	f8c3 51ac 	str.w	r5, [r3, #428]	; 0x1ac
     c5a:	f8c3 410c 	str.w	r4, [r3, #268]	; 0x10c
     c5e:	f8c3 6084 	str.w	r6, [r3, #132]	; 0x84
     c62:	f8c3 008c 	str.w	r0, [r3, #140]	; 0x8c
     c66:	f8c3 208c 	str.w	r2, [r3, #140]	; 0x8c
     c6a:	f8c3 4080 	str.w	r4, [r3, #128]	; 0x80
     c6e:	f8c3 008c 	str.w	r0, [r3, #140]	; 0x8c
     c72:	f8c3 208c 	str.w	r2, [r3, #140]	; 0x8c
     c76:	f8d1 3088 	ldr.w	r3, [r1, #136]	; 0x88
     c7a:	4a18      	ldr	r2, [pc, #96]	; (cdc <SystemInit+0xb0>)
     c7c:	015b      	lsls	r3, r3, #5
     c7e:	d5fa      	bpl.n	c76 <SystemInit+0x4a>
     c80:	2103      	movs	r1, #3
     c82:	20aa      	movs	r0, #170	; 0xaa
     c84:	2355      	movs	r3, #85	; 0x55
     c86:	f8c2 1080 	str.w	r1, [r2, #128]	; 0x80
     c8a:	f8c2 008c 	str.w	r0, [r2, #140]	; 0x8c
     c8e:	4611      	mov	r1, r2
     c90:	f8c2 308c 	str.w	r3, [r2, #140]	; 0x8c
     c94:	f8d1 3088 	ldr.w	r3, [r1, #136]	; 0x88
     c98:	4a10      	ldr	r2, [pc, #64]	; (cdc <SystemInit+0xb0>)
     c9a:	f013 7f40 	tst.w	r3, #50331648	; 0x3000000
     c9e:	d0f9      	beq.n	c94 <SystemInit+0x68>
     ca0:	490f      	ldr	r1, [pc, #60]	; (ce0 <SystemInit+0xb4>)
     ca2:	2300      	movs	r3, #0
     ca4:	2005      	movs	r0, #5
     ca6:	f8c2 0108 	str.w	r0, [r2, #264]	; 0x108
     caa:	f8c2 10c4 	str.w	r1, [r2, #196]	; 0xc4
     cae:	f8c2 31c8 	str.w	r3, [r2, #456]	; 0x1c8
     cb2:	6813      	ldr	r3, [r2, #0]
     cb4:	bc70      	pop	{r4, r5, r6}
     cb6:	f423 4370 	bic.w	r3, r3, #61440	; 0xf000
     cba:	f023 033a 	bic.w	r3, r3, #58	; 0x3a
     cbe:	f443 5340 	orr.w	r3, r3, #12288	; 0x3000
     cc2:	f043 033a 	orr.w	r3, r3, #58	; 0x3a
     cc6:	6013      	str	r3, [r2, #0]
     cc8:	4770      	bx	lr
     cca:	f8d2 31a0 	ldr.w	r3, [r2, #416]	; 0x1a0
     cce:	0659      	lsls	r1, r3, #25
     cd0:	d4b5      	bmi.n	c3e <SystemInit+0x12>
     cd2:	f8d2 31a0 	ldr.w	r3, [r2, #416]	; 0x1a0
     cd6:	0659      	lsls	r1, r3, #25
     cd8:	d5f7      	bpl.n	cca <SystemInit+0x9e>
     cda:	e7b0      	b.n	c3e <SystemInit+0x12>
     cdc:	400fc000 	.word	0x400fc000
     ce0:	042887de 	.word	0x042887de

00000ce4 <mbed_die>:
     ce4:	b500      	push	{lr}
     ce6:	b099      	sub	sp, #100	; 0x64
     ce8:	b672      	cpsid	i
     cea:	4917      	ldr	r1, [pc, #92]	; (d48 <mbed_die+0x64>)
     cec:	4668      	mov	r0, sp
     cee:	f000 f857 	bl	da0 <gpio_init_out>
     cf2:	a806      	add	r0, sp, #24
     cf4:	4915      	ldr	r1, [pc, #84]	; (d4c <mbed_die+0x68>)
     cf6:	f000 f853 	bl	da0 <gpio_init_out>
     cfa:	a80c      	add	r0, sp, #48	; 0x30
     cfc:	4914      	ldr	r1, [pc, #80]	; (d50 <mbed_die+0x6c>)
     cfe:	f000 f84f 	bl	da0 <gpio_init_out>
     d02:	a812      	add	r0, sp, #72	; 0x48
     d04:	4913      	ldr	r1, [pc, #76]	; (d54 <mbed_die+0x70>)
     d06:	f000 f84b 	bl	da0 <gpio_init_out>
     d0a:	9b03      	ldr	r3, [sp, #12]
     d0c:	9a01      	ldr	r2, [sp, #4]
     d0e:	980a      	ldr	r0, [sp, #40]	; 0x28
     d10:	601a      	str	r2, [r3, #0]
     d12:	9b07      	ldr	r3, [sp, #28]
     d14:	9910      	ldr	r1, [sp, #64]	; 0x40
     d16:	6003      	str	r3, [r0, #0]
     d18:	9b0d      	ldr	r3, [sp, #52]	; 0x34
     d1a:	9a15      	ldr	r2, [sp, #84]	; 0x54
     d1c:	600b      	str	r3, [r1, #0]
     d1e:	9b13      	ldr	r3, [sp, #76]	; 0x4c
     d20:	2096      	movs	r0, #150	; 0x96
     d22:	6013      	str	r3, [r2, #0]
     d24:	f000 f8d4 	bl	ed0 <wait_ms>
     d28:	9b04      	ldr	r3, [sp, #16]
     d2a:	9a01      	ldr	r2, [sp, #4]
     d2c:	9809      	ldr	r0, [sp, #36]	; 0x24
     d2e:	601a      	str	r2, [r3, #0]
     d30:	9b07      	ldr	r3, [sp, #28]
     d32:	990f      	ldr	r1, [sp, #60]	; 0x3c
     d34:	6003      	str	r3, [r0, #0]
     d36:	9b0d      	ldr	r3, [sp, #52]	; 0x34
     d38:	9a16      	ldr	r2, [sp, #88]	; 0x58
     d3a:	600b      	str	r3, [r1, #0]
     d3c:	9b13      	ldr	r3, [sp, #76]	; 0x4c
     d3e:	2096      	movs	r0, #150	; 0x96
     d40:	6013      	str	r3, [r2, #0]
     d42:	f000 f8c5 	bl	ed0 <wait_ms>
     d46:	e7e0      	b.n	d0a <mbed_die+0x26>
     d48:	2009c032 	.word	0x2009c032
     d4c:	2009c034 	.word	0x2009c034
     d50:	2009c035 	.word	0x2009c035
     d54:	2009c037 	.word	0x2009c037

00000d58 <error>:
     d58:	b40f      	push	{r0, r1, r2, r3}
     d5a:	b500      	push	{lr}
     d5c:	4a06      	ldr	r2, [pc, #24]	; (d78 <error+0x20>)
     d5e:	b083      	sub	sp, #12
     d60:	ab04      	add	r3, sp, #16
     d62:	6812      	ldr	r2, [r2, #0]
     d64:	f853 1b04 	ldr.w	r1, [r3], #4
     d68:	68d0      	ldr	r0, [r2, #12]
     d6a:	461a      	mov	r2, r3
     d6c:	9301      	str	r3, [sp, #4]
     d6e:	f000 ff7d 	bl	1c6c <vfiprintf>
     d72:	2001      	movs	r0, #1
     d74:	f7ff fa48 	bl	208 <exit>
     d78:	10000130 	.word	0x10000130

00000d7c <gpio_init_in>:
     d7c:	b538      	push	{r3, r4, r5, lr}
     d7e:	460d      	mov	r5, r1
     d80:	4604      	mov	r4, r0
     d82:	f000 f8ab 	bl	edc <gpio_init>
     d86:	3501      	adds	r5, #1
     d88:	d009      	beq.n	d9e <gpio_init_in+0x22>
     d8a:	4620      	mov	r0, r4
     d8c:	2100      	movs	r1, #0
     d8e:	f000 f8c5 	bl	f1c <gpio_dir>
     d92:	4620      	mov	r0, r4
     d94:	2103      	movs	r1, #3
     d96:	e8bd 4038 	ldmia.w	sp!, {r3, r4, r5, lr}
     d9a:	f000 b8bb 	b.w	f14 <gpio_mode>
     d9e:	bd38      	pop	{r3, r4, r5, pc}

00000da0 <gpio_init_out>:
     da0:	b538      	push	{r3, r4, r5, lr}
     da2:	460d      	mov	r5, r1
     da4:	4604      	mov	r4, r0
     da6:	f000 f899 	bl	edc <gpio_init>
     daa:	3501      	adds	r5, #1
     dac:	d00c      	beq.n	dc8 <gpio_init_out+0x28>
     dae:	6923      	ldr	r3, [r4, #16]
     db0:	6862      	ldr	r2, [r4, #4]
     db2:	4620      	mov	r0, r4
     db4:	601a      	str	r2, [r3, #0]
     db6:	2101      	movs	r1, #1
     db8:	f000 f8b0 	bl	f1c <gpio_dir>
     dbc:	4620      	mov	r0, r4
     dbe:	2102      	movs	r1, #2
     dc0:	e8bd 4038 	ldmia.w	sp!, {r3, r4, r5, lr}
     dc4:	f000 b8a6 	b.w	f14 <gpio_mode>
     dc8:	bd38      	pop	{r3, r4, r5, pc}
     dca:	bf00      	nop

00000dcc <gpio_init_out_ex>:
     dcc:	b570      	push	{r4, r5, r6, lr}
     dce:	460d      	mov	r5, r1
     dd0:	4616      	mov	r6, r2
     dd2:	4604      	mov	r4, r0
     dd4:	f000 f882 	bl	edc <gpio_init>
     dd8:	3501      	adds	r5, #1
     dda:	d011      	beq.n	e00 <gpio_init_out_ex+0x34>
     ddc:	b966      	cbnz	r6, df8 <gpio_init_out_ex+0x2c>
     dde:	6923      	ldr	r3, [r4, #16]
     de0:	6862      	ldr	r2, [r4, #4]
     de2:	601a      	str	r2, [r3, #0]
     de4:	4620      	mov	r0, r4
     de6:	2101      	movs	r1, #1
     de8:	f000 f898 	bl	f1c <gpio_dir>
     dec:	4620      	mov	r0, r4
     dee:	2102      	movs	r1, #2
     df0:	e8bd 4070 	ldmia.w	sp!, {r4, r5, r6, lr}
     df4:	f000 b88e 	b.w	f14 <gpio_mode>
     df8:	68e3      	ldr	r3, [r4, #12]
     dfa:	6862      	ldr	r2, [r4, #4]
     dfc:	601a      	str	r2, [r3, #0]
     dfe:	e7f1      	b.n	de4 <gpio_init_out_ex+0x18>
     e00:	bd70      	pop	{r4, r5, r6, pc}
     e02:	bf00      	nop

00000e04 <pinmap_pinout>:
     e04:	1c43      	adds	r3, r0, #1
     e06:	b510      	push	{r4, lr}
     e08:	4604      	mov	r4, r0
     e0a:	d018      	beq.n	e3e <pinmap_pinout+0x3a>
     e0c:	680b      	ldr	r3, [r1, #0]
     e0e:	1c58      	adds	r0, r3, #1
     e10:	d104      	bne.n	e1c <pinmap_pinout+0x18>
     e12:	e00f      	b.n	e34 <pinmap_pinout+0x30>
     e14:	f851 3f0c 	ldr.w	r3, [r1, #12]!
     e18:	1c5a      	adds	r2, r3, #1
     e1a:	d00b      	beq.n	e34 <pinmap_pinout+0x30>
     e1c:	429c      	cmp	r4, r3
     e1e:	d1f9      	bne.n	e14 <pinmap_pinout+0x10>
     e20:	4620      	mov	r0, r4
     e22:	6889      	ldr	r1, [r1, #8]
     e24:	f000 f88c 	bl	f40 <pin_function>
     e28:	4620      	mov	r0, r4
     e2a:	2102      	movs	r1, #2
     e2c:	e8bd 4010 	ldmia.w	sp!, {r4, lr}
     e30:	f000 b89e 	b.w	f70 <pin_mode>
     e34:	4802      	ldr	r0, [pc, #8]	; (e40 <pinmap_pinout+0x3c>)
     e36:	e8bd 4010 	ldmia.w	sp!, {r4, lr}
     e3a:	f7ff bf8d 	b.w	d58 <error>
     e3e:	bd10      	pop	{r4, pc}
     e40:	00002e80 	.word	0x00002e80

00000e44 <pinmap_merge>:
     e44:	4288      	cmp	r0, r1
     e46:	b508      	push	{r3, lr}
     e48:	d00a      	beq.n	e60 <pinmap_merge+0x1c>
     e4a:	1c43      	adds	r3, r0, #1
     e4c:	d007      	beq.n	e5e <pinmap_merge+0x1a>
     e4e:	3101      	adds	r1, #1
     e50:	d006      	beq.n	e60 <pinmap_merge+0x1c>
     e52:	4804      	ldr	r0, [pc, #16]	; (e64 <pinmap_merge+0x20>)
     e54:	f7ff ff80 	bl	d58 <error>
     e58:	f04f 30ff 	mov.w	r0, #4294967295	; 0xffffffff
     e5c:	bd08      	pop	{r3, pc}
     e5e:	4608      	mov	r0, r1
     e60:	bd08      	pop	{r3, pc}
     e62:	bf00      	nop
     e64:	00002e94 	.word	0x00002e94

00000e68 <pinmap_find_peripheral>:
     e68:	680b      	ldr	r3, [r1, #0]
     e6a:	1c5a      	adds	r2, r3, #1
     e6c:	d104      	bne.n	e78 <pinmap_find_peripheral+0x10>
     e6e:	e007      	b.n	e80 <pinmap_find_peripheral+0x18>
     e70:	f851 3f0c 	ldr.w	r3, [r1, #12]!
     e74:	1c5a      	adds	r2, r3, #1
     e76:	d003      	beq.n	e80 <pinmap_find_peripheral+0x18>
     e78:	4283      	cmp	r3, r0
     e7a:	d1f9      	bne.n	e70 <pinmap_find_peripheral+0x8>
     e7c:	6848      	ldr	r0, [r1, #4]
     e7e:	4770      	bx	lr
     e80:	4618      	mov	r0, r3
     e82:	4770      	bx	lr

00000e84 <pinmap_peripheral>:
     e84:	b508      	push	{r3, lr}
     e86:	1c43      	adds	r3, r0, #1
     e88:	d00c      	beq.n	ea4 <pinmap_peripheral+0x20>
     e8a:	680b      	ldr	r3, [r1, #0]
     e8c:	1c5a      	adds	r2, r3, #1
     e8e:	d104      	bne.n	e9a <pinmap_peripheral+0x16>
     e90:	e009      	b.n	ea6 <pinmap_peripheral+0x22>
     e92:	f851 3f0c 	ldr.w	r3, [r1, #12]!
     e96:	1c5a      	adds	r2, r3, #1
     e98:	d005      	beq.n	ea6 <pinmap_peripheral+0x22>
     e9a:	4298      	cmp	r0, r3
     e9c:	d1f9      	bne.n	e92 <pinmap_peripheral+0xe>
     e9e:	6848      	ldr	r0, [r1, #4]
     ea0:	1c41      	adds	r1, r0, #1
     ea2:	d000      	beq.n	ea6 <pinmap_peripheral+0x22>
     ea4:	bd08      	pop	{r3, pc}
     ea6:	4803      	ldr	r0, [pc, #12]	; (eb4 <pinmap_peripheral+0x30>)
     ea8:	f7ff ff56 	bl	d58 <error>
     eac:	f04f 30ff 	mov.w	r0, #4294967295	; 0xffffffff
     eb0:	e7f8      	b.n	ea4 <pinmap_peripheral+0x20>
     eb2:	bf00      	nop
     eb4:	00002ea8 	.word	0x00002ea8

00000eb8 <wait_us>:
     eb8:	b538      	push	{r3, r4, r5, lr}
     eba:	4605      	mov	r5, r0
     ebc:	f000 f8bc 	bl	1038 <us_ticker_read>
     ec0:	4604      	mov	r4, r0
     ec2:	f000 f8b9 	bl	1038 <us_ticker_read>
     ec6:	1b00      	subs	r0, r0, r4
     ec8:	42a8      	cmp	r0, r5
     eca:	d3fa      	bcc.n	ec2 <wait_us+0xa>
     ecc:	bd38      	pop	{r3, r4, r5, pc}
     ece:	bf00      	nop

00000ed0 <wait_ms>:
     ed0:	f44f 737a 	mov.w	r3, #1000	; 0x3e8
     ed4:	fb03 f000 	mul.w	r0, r3, r0
     ed8:	f7ff bfee 	b.w	eb8 <wait_us>

00000edc <gpio_init>:
     edc:	b538      	push	{r3, r4, r5, lr}
     ede:	4604      	mov	r4, r0
     ee0:	1c4b      	adds	r3, r1, #1
     ee2:	460d      	mov	r5, r1
     ee4:	6021      	str	r1, [r4, #0]
     ee6:	d014      	beq.n	f12 <gpio_init+0x36>
     ee8:	4608      	mov	r0, r1
     eea:	2100      	movs	r1, #0
     eec:	f000 f828 	bl	f40 <pin_function>
     ef0:	f005 031f 	and.w	r3, r5, #31
     ef4:	2001      	movs	r0, #1
     ef6:	4098      	lsls	r0, r3
     ef8:	f025 051f 	bic.w	r5, r5, #31
     efc:	f105 0118 	add.w	r1, r5, #24
     f00:	f105 021c 	add.w	r2, r5, #28
     f04:	f105 0314 	add.w	r3, r5, #20
     f08:	60a5      	str	r5, [r4, #8]
     f0a:	6060      	str	r0, [r4, #4]
     f0c:	60e1      	str	r1, [r4, #12]
     f0e:	6122      	str	r2, [r4, #16]
     f10:	6163      	str	r3, [r4, #20]
     f12:	bd38      	pop	{r3, r4, r5, pc}

00000f14 <gpio_mode>:
     f14:	6800      	ldr	r0, [r0, #0]
     f16:	f000 b82b 	b.w	f70 <pin_mode>
     f1a:	bf00      	nop

00000f1c <gpio_dir>:
     f1c:	b141      	cbz	r1, f30 <gpio_dir+0x14>
     f1e:	2901      	cmp	r1, #1
     f20:	d105      	bne.n	f2e <gpio_dir+0x12>
     f22:	6883      	ldr	r3, [r0, #8]
     f24:	6842      	ldr	r2, [r0, #4]
     f26:	6819      	ldr	r1, [r3, #0]
     f28:	430a      	orrs	r2, r1
     f2a:	601a      	str	r2, [r3, #0]
     f2c:	4770      	bx	lr
     f2e:	4770      	bx	lr
     f30:	6883      	ldr	r3, [r0, #8]
     f32:	6841      	ldr	r1, [r0, #4]
     f34:	681a      	ldr	r2, [r3, #0]
     f36:	ea22 0201 	bic.w	r2, r2, r1
     f3a:	601a      	str	r2, [r3, #0]
     f3c:	4770      	bx	lr
     f3e:	bf00      	nop

00000f40 <pin_function>:
     f40:	f100 4060 	add.w	r0, r0, #3758096384	; 0xe0000000
     f44:	f5a0 201c 	sub.w	r0, r0, #638976	; 0x9c000
     f48:	f000 030f 	and.w	r3, r0, #15
     f4c:	005b      	lsls	r3, r3, #1
     f4e:	2203      	movs	r2, #3
     f50:	409a      	lsls	r2, r3
     f52:	4099      	lsls	r1, r3
     f54:	0903      	lsrs	r3, r0, #4
     f56:	009b      	lsls	r3, r3, #2
     f58:	f103 4380 	add.w	r3, r3, #1073741824	; 0x40000000
     f5c:	f503 3330 	add.w	r3, r3, #180224	; 0x2c000
     f60:	6818      	ldr	r0, [r3, #0]
     f62:	ea20 0202 	bic.w	r2, r0, r2
     f66:	601a      	str	r2, [r3, #0]
     f68:	681a      	ldr	r2, [r3, #0]
     f6a:	4311      	orrs	r1, r2
     f6c:	6019      	str	r1, [r3, #0]
     f6e:	4770      	bx	lr

00000f70 <pin_mode>:
     f70:	f100 4060 	add.w	r0, r0, #3758096384	; 0xe0000000
     f74:	f5a0 201c 	sub.w	r0, r0, #638976	; 0x9c000
     f78:	b430      	push	{r4, r5}
     f7a:	f3c1 0280 	ubfx	r2, r1, #2, #1
     f7e:	f000 041f 	and.w	r4, r0, #31
     f82:	fa02 f404 	lsl.w	r4, r2, r4
     f86:	0943      	lsrs	r3, r0, #5
     f88:	009b      	lsls	r3, r3, #2
     f8a:	f103 4380 	add.w	r3, r3, #1073741824	; 0x40000000
     f8e:	f503 3330 	add.w	r3, r3, #180224	; 0x2c000
     f92:	6e9d      	ldr	r5, [r3, #104]	; 0x68
     f94:	ea25 0504 	bic.w	r5, r5, r4
     f98:	669d      	str	r5, [r3, #104]	; 0x68
     f9a:	6e9d      	ldr	r5, [r3, #104]	; 0x68
     f9c:	432c      	orrs	r4, r5
     f9e:	669c      	str	r4, [r3, #104]	; 0x68
     fa0:	b99a      	cbnz	r2, fca <pin_mode+0x5a>
     fa2:	f000 030f 	and.w	r3, r0, #15
     fa6:	005b      	lsls	r3, r3, #1
     fa8:	2203      	movs	r2, #3
     faa:	409a      	lsls	r2, r3
     fac:	fa01 f303 	lsl.w	r3, r1, r3
     fb0:	0900      	lsrs	r0, r0, #4
     fb2:	0080      	lsls	r0, r0, #2
     fb4:	f100 4080 	add.w	r0, r0, #1073741824	; 0x40000000
     fb8:	f500 3030 	add.w	r0, r0, #180224	; 0x2c000
     fbc:	6c01      	ldr	r1, [r0, #64]	; 0x40
     fbe:	ea21 0202 	bic.w	r2, r1, r2
     fc2:	6402      	str	r2, [r0, #64]	; 0x40
     fc4:	6c02      	ldr	r2, [r0, #64]	; 0x40
     fc6:	4313      	orrs	r3, r2
     fc8:	6403      	str	r3, [r0, #64]	; 0x40
     fca:	bc30      	pop	{r4, r5}
     fcc:	4770      	bx	lr
     fce:	bf00      	nop

00000fd0 <us_ticker_init>:
     fd0:	4a13      	ldr	r2, [pc, #76]	; (1020 <us_ticker_init+0x50>)
     fd2:	b538      	push	{r3, r4, r5, lr}
     fd4:	6813      	ldr	r3, [r2, #0]
     fd6:	bb0b      	cbnz	r3, 101c <us_ticker_init+0x4c>
     fd8:	4912      	ldr	r1, [pc, #72]	; (1024 <us_ticker_init+0x54>)
     fda:	2401      	movs	r4, #1
     fdc:	f8d1 50c4 	ldr.w	r5, [r1, #196]	; 0xc4
     fe0:	6014      	str	r4, [r2, #0]
     fe2:	4a11      	ldr	r2, [pc, #68]	; (1028 <us_ticker_init+0x58>)
     fe4:	4811      	ldr	r0, [pc, #68]	; (102c <us_ticker_init+0x5c>)
     fe6:	f445 0500 	orr.w	r5, r5, #8388608	; 0x800000
     fea:	f8c1 50c4 	str.w	r5, [r1, #196]	; 0xc4
     fee:	6713      	str	r3, [r2, #112]	; 0x70
     ff0:	6803      	ldr	r3, [r0, #0]
     ff2:	f101 7143 	add.w	r1, r1, #51118080	; 0x30c0000
     ff6:	f501 51f4 	add.w	r1, r1, #7808	; 0x1e80
     ffa:	3103      	adds	r1, #3
     ffc:	089b      	lsrs	r3, r3, #2
     ffe:	fba1 0303 	umull	r0, r3, r1, r3
    1002:	0c9b      	lsrs	r3, r3, #18
    1004:	3b01      	subs	r3, #1
    1006:	2102      	movs	r1, #2
    1008:	6051      	str	r1, [r2, #4]
    100a:	2004      	movs	r0, #4
    100c:	60d3      	str	r3, [r2, #12]
    100e:	4908      	ldr	r1, [pc, #32]	; (1030 <us_ticker_init+0x60>)
    1010:	6054      	str	r4, [r2, #4]
    1012:	f7ff fded 	bl	bf0 <NVIC_SetVector>
    1016:	4b07      	ldr	r3, [pc, #28]	; (1034 <us_ticker_init+0x64>)
    1018:	2210      	movs	r2, #16
    101a:	601a      	str	r2, [r3, #0]
    101c:	bd38      	pop	{r3, r4, r5, pc}
    101e:	bf00      	nop
    1020:	10000344 	.word	0x10000344
    1024:	400fc000 	.word	0x400fc000
    1028:	40094000 	.word	0x40094000
    102c:	100000cc 	.word	0x100000cc
    1030:	00001085 	.word	0x00001085
    1034:	e000e100 	.word	0xe000e100

00001038 <us_ticker_read>:
    1038:	b508      	push	{r3, lr}
    103a:	4b04      	ldr	r3, [pc, #16]	; (104c <us_ticker_read+0x14>)
    103c:	681b      	ldr	r3, [r3, #0]
    103e:	b90b      	cbnz	r3, 1044 <us_ticker_read+0xc>
    1040:	f7ff ffc6 	bl	fd0 <us_ticker_init>
    1044:	4b02      	ldr	r3, [pc, #8]	; (1050 <us_ticker_read+0x18>)
    1046:	6898      	ldr	r0, [r3, #8]
    1048:	bd08      	pop	{r3, pc}
    104a:	bf00      	nop
    104c:	10000344 	.word	0x10000344
    1050:	40094000 	.word	0x40094000

00001054 <us_ticker_set_interrupt>:
    1054:	4b03      	ldr	r3, [pc, #12]	; (1064 <us_ticker_set_interrupt+0x10>)
    1056:	6198      	str	r0, [r3, #24]
    1058:	695a      	ldr	r2, [r3, #20]
    105a:	f042 0201 	orr.w	r2, r2, #1
    105e:	615a      	str	r2, [r3, #20]
    1060:	4770      	bx	lr
    1062:	bf00      	nop
    1064:	40094000 	.word	0x40094000

00001068 <us_ticker_disable_interrupt>:
    1068:	4b02      	ldr	r3, [pc, #8]	; (1074 <us_ticker_disable_interrupt+0xc>)
    106a:	695a      	ldr	r2, [r3, #20]
    106c:	f022 0201 	bic.w	r2, r2, #1
    1070:	615a      	str	r2, [r3, #20]
    1072:	4770      	bx	lr
    1074:	40094000 	.word	0x40094000

00001078 <us_ticker_clear_interrupt>:
    1078:	4b01      	ldr	r3, [pc, #4]	; (1080 <us_ticker_clear_interrupt+0x8>)
    107a:	2201      	movs	r2, #1
    107c:	601a      	str	r2, [r3, #0]
    107e:	4770      	bx	lr
    1080:	40094000 	.word	0x40094000

00001084 <us_ticker_irq_handler>:
    1084:	b5f8      	push	{r3, r4, r5, r6, r7, lr}
    1086:	f7ff fff7 	bl	1078 <us_ticker_clear_interrupt>
    108a:	4e12      	ldr	r6, [pc, #72]	; (10d4 <us_ticker_irq_handler+0x50>)
    108c:	4f12      	ldr	r7, [pc, #72]	; (10d8 <us_ticker_irq_handler+0x54>)
    108e:	6833      	ldr	r3, [r6, #0]
    1090:	b1ab      	cbz	r3, 10be <us_ticker_irq_handler+0x3a>
    1092:	e9d3 4500 	ldrd	r4, r5, [r3]
    1096:	f7ff ffcf 	bl	1038 <us_ticker_read>
    109a:	1a22      	subs	r2, r4, r0
    109c:	f165 0300 	sbc.w	r3, r5, #0
    10a0:	4610      	mov	r0, r2
    10a2:	4619      	mov	r1, r3
    10a4:	2801      	cmp	r0, #1
    10a6:	f171 0300 	sbcs.w	r3, r1, #0
    10aa:	da0c      	bge.n	10c6 <us_ticker_irq_handler+0x42>
    10ac:	6831      	ldr	r1, [r6, #0]
    10ae:	683a      	ldr	r2, [r7, #0]
    10b0:	68cb      	ldr	r3, [r1, #12]
    10b2:	6033      	str	r3, [r6, #0]
    10b4:	2a00      	cmp	r2, #0
    10b6:	d0eb      	beq.n	1090 <us_ticker_irq_handler+0xc>
    10b8:	6888      	ldr	r0, [r1, #8]
    10ba:	4790      	blx	r2
    10bc:	e7e7      	b.n	108e <us_ticker_irq_handler+0xa>
    10be:	e8bd 40f8 	ldmia.w	sp!, {r3, r4, r5, r6, r7, lr}
    10c2:	f7ff bfd1 	b.w	1068 <us_ticker_disable_interrupt>
    10c6:	6833      	ldr	r3, [r6, #0]
    10c8:	e9d3 0100 	ldrd	r0, r1, [r3]
    10cc:	e8bd 40f8 	ldmia.w	sp!, {r3, r4, r5, r6, r7, lr}
    10d0:	f7ff bfc0 	b.w	1054 <us_ticker_set_interrupt>
    10d4:	10000348 	.word	0x10000348
    10d8:	1000034c 	.word	0x1000034c

000010dc <__errno>:
    10dc:	4b01      	ldr	r3, [pc, #4]	; (10e4 <__errno+0x8>)
    10de:	6818      	ldr	r0, [r3, #0]
    10e0:	4770      	bx	lr
    10e2:	bf00      	nop
    10e4:	10000130 	.word	0x10000130

000010e8 <__sflush_r>:
    10e8:	898a      	ldrh	r2, [r1, #12]
    10ea:	e92d 41f0 	stmdb	sp!, {r4, r5, r6, r7, r8, lr}
    10ee:	4605      	mov	r5, r0
    10f0:	0710      	lsls	r0, r2, #28
    10f2:	460c      	mov	r4, r1
    10f4:	d457      	bmi.n	11a6 <__sflush_r+0xbe>
    10f6:	684b      	ldr	r3, [r1, #4]
    10f8:	2b00      	cmp	r3, #0
    10fa:	dc02      	bgt.n	1102 <__sflush_r+0x1a>
    10fc:	6c0b      	ldr	r3, [r1, #64]	; 0x40
    10fe:	2b00      	cmp	r3, #0
    1100:	dd18      	ble.n	1134 <__sflush_r+0x4c>
    1102:	6ae6      	ldr	r6, [r4, #44]	; 0x2c
    1104:	b1b6      	cbz	r6, 1134 <__sflush_r+0x4c>
    1106:	f402 5280 	and.w	r2, r2, #4096	; 0x1000
    110a:	2300      	movs	r3, #0
    110c:	b292      	uxth	r2, r2
    110e:	682f      	ldr	r7, [r5, #0]
    1110:	602b      	str	r3, [r5, #0]
    1112:	b10a      	cbz	r2, 1118 <__sflush_r+0x30>
    1114:	6d62      	ldr	r2, [r4, #84]	; 0x54
    1116:	e010      	b.n	113a <__sflush_r+0x52>
    1118:	6a21      	ldr	r1, [r4, #32]
    111a:	4628      	mov	r0, r5
    111c:	2301      	movs	r3, #1
    111e:	47b0      	blx	r6
    1120:	1c41      	adds	r1, r0, #1
    1122:	4602      	mov	r2, r0
    1124:	d109      	bne.n	113a <__sflush_r+0x52>
    1126:	682b      	ldr	r3, [r5, #0]
    1128:	b13b      	cbz	r3, 113a <__sflush_r+0x52>
    112a:	2b1d      	cmp	r3, #29
    112c:	d001      	beq.n	1132 <__sflush_r+0x4a>
    112e:	2b16      	cmp	r3, #22
    1130:	d146      	bne.n	11c0 <__sflush_r+0xd8>
    1132:	602f      	str	r7, [r5, #0]
    1134:	2000      	movs	r0, #0
    1136:	e8bd 81f0 	ldmia.w	sp!, {r4, r5, r6, r7, r8, pc}
    113a:	89a3      	ldrh	r3, [r4, #12]
    113c:	075b      	lsls	r3, r3, #29
    113e:	d505      	bpl.n	114c <__sflush_r+0x64>
    1140:	6863      	ldr	r3, [r4, #4]
    1142:	1ad2      	subs	r2, r2, r3
    1144:	6b63      	ldr	r3, [r4, #52]	; 0x34
    1146:	b10b      	cbz	r3, 114c <__sflush_r+0x64>
    1148:	6c23      	ldr	r3, [r4, #64]	; 0x40
    114a:	1ad2      	subs	r2, r2, r3
    114c:	6ae6      	ldr	r6, [r4, #44]	; 0x2c
    114e:	4628      	mov	r0, r5
    1150:	6a21      	ldr	r1, [r4, #32]
    1152:	2300      	movs	r3, #0
    1154:	47b0      	blx	r6
    1156:	1c46      	adds	r6, r0, #1
    1158:	89a2      	ldrh	r2, [r4, #12]
    115a:	d105      	bne.n	1168 <__sflush_r+0x80>
    115c:	682b      	ldr	r3, [r5, #0]
    115e:	b11b      	cbz	r3, 1168 <__sflush_r+0x80>
    1160:	2b1d      	cmp	r3, #29
    1162:	d001      	beq.n	1168 <__sflush_r+0x80>
    1164:	2b16      	cmp	r3, #22
    1166:	d119      	bne.n	119c <__sflush_r+0xb4>
    1168:	2300      	movs	r3, #0
    116a:	6063      	str	r3, [r4, #4]
    116c:	6923      	ldr	r3, [r4, #16]
    116e:	04d1      	lsls	r1, r2, #19
    1170:	6023      	str	r3, [r4, #0]
    1172:	d504      	bpl.n	117e <__sflush_r+0x96>
    1174:	1c42      	adds	r2, r0, #1
    1176:	d101      	bne.n	117c <__sflush_r+0x94>
    1178:	682b      	ldr	r3, [r5, #0]
    117a:	b903      	cbnz	r3, 117e <__sflush_r+0x96>
    117c:	6560      	str	r0, [r4, #84]	; 0x54
    117e:	6b61      	ldr	r1, [r4, #52]	; 0x34
    1180:	602f      	str	r7, [r5, #0]
    1182:	2900      	cmp	r1, #0
    1184:	d0d6      	beq.n	1134 <__sflush_r+0x4c>
    1186:	f104 0344 	add.w	r3, r4, #68	; 0x44
    118a:	4299      	cmp	r1, r3
    118c:	d002      	beq.n	1194 <__sflush_r+0xac>
    118e:	4628      	mov	r0, r5
    1190:	f000 fa0a 	bl	15a8 <_free_r>
    1194:	2000      	movs	r0, #0
    1196:	6360      	str	r0, [r4, #52]	; 0x34
    1198:	e8bd 81f0 	ldmia.w	sp!, {r4, r5, r6, r7, r8, pc}
    119c:	f042 0240 	orr.w	r2, r2, #64	; 0x40
    11a0:	81a2      	strh	r2, [r4, #12]
    11a2:	e8bd 81f0 	ldmia.w	sp!, {r4, r5, r6, r7, r8, pc}
    11a6:	690e      	ldr	r6, [r1, #16]
    11a8:	2e00      	cmp	r6, #0
    11aa:	d0c3      	beq.n	1134 <__sflush_r+0x4c>
    11ac:	680b      	ldr	r3, [r1, #0]
    11ae:	600e      	str	r6, [r1, #0]
    11b0:	ebc6 0803 	rsb	r8, r6, r3
    11b4:	0793      	lsls	r3, r2, #30
    11b6:	bf0c      	ite	eq
    11b8:	694b      	ldreq	r3, [r1, #20]
    11ba:	2300      	movne	r3, #0
    11bc:	608b      	str	r3, [r1, #8]
    11be:	e012      	b.n	11e6 <__sflush_r+0xfe>
    11c0:	89a3      	ldrh	r3, [r4, #12]
    11c2:	f04f 30ff 	mov.w	r0, #4294967295	; 0xffffffff
    11c6:	f043 0340 	orr.w	r3, r3, #64	; 0x40
    11ca:	81a3      	strh	r3, [r4, #12]
    11cc:	e8bd 81f0 	ldmia.w	sp!, {r4, r5, r6, r7, r8, pc}
    11d0:	6aa7      	ldr	r7, [r4, #40]	; 0x28
    11d2:	4628      	mov	r0, r5
    11d4:	6a21      	ldr	r1, [r4, #32]
    11d6:	4632      	mov	r2, r6
    11d8:	4643      	mov	r3, r8
    11da:	47b8      	blx	r7
    11dc:	2800      	cmp	r0, #0
    11de:	ddef      	ble.n	11c0 <__sflush_r+0xd8>
    11e0:	4406      	add	r6, r0
    11e2:	ebc0 0808 	rsb	r8, r0, r8
    11e6:	f1b8 0f00 	cmp.w	r8, #0
    11ea:	dcf1      	bgt.n	11d0 <__sflush_r+0xe8>
    11ec:	e7a2      	b.n	1134 <__sflush_r+0x4c>
	...

000011f0 <_fflush_r>:
    11f0:	b538      	push	{r3, r4, r5, lr}
    11f2:	690b      	ldr	r3, [r1, #16]
    11f4:	4605      	mov	r5, r0
    11f6:	460c      	mov	r4, r1
    11f8:	b1db      	cbz	r3, 1232 <_fflush_r+0x42>
    11fa:	b118      	cbz	r0, 1204 <_fflush_r+0x14>
    11fc:	6983      	ldr	r3, [r0, #24]
    11fe:	b90b      	cbnz	r3, 1204 <_fflush_r+0x14>
    1200:	f000 f886 	bl	1310 <__sinit>
    1204:	4b0c      	ldr	r3, [pc, #48]	; (1238 <_fflush_r+0x48>)
    1206:	429c      	cmp	r4, r3
    1208:	d101      	bne.n	120e <_fflush_r+0x1e>
    120a:	686c      	ldr	r4, [r5, #4]
    120c:	e008      	b.n	1220 <_fflush_r+0x30>
    120e:	4b0b      	ldr	r3, [pc, #44]	; (123c <_fflush_r+0x4c>)
    1210:	429c      	cmp	r4, r3
    1212:	d101      	bne.n	1218 <_fflush_r+0x28>
    1214:	68ac      	ldr	r4, [r5, #8]
    1216:	e003      	b.n	1220 <_fflush_r+0x30>
    1218:	4b09      	ldr	r3, [pc, #36]	; (1240 <_fflush_r+0x50>)
    121a:	429c      	cmp	r4, r3
    121c:	bf08      	it	eq
    121e:	68ec      	ldreq	r4, [r5, #12]
    1220:	f9b4 300c 	ldrsh.w	r3, [r4, #12]
    1224:	b12b      	cbz	r3, 1232 <_fflush_r+0x42>
    1226:	4628      	mov	r0, r5
    1228:	4621      	mov	r1, r4
    122a:	e8bd 4038 	ldmia.w	sp!, {r3, r4, r5, lr}
    122e:	f7ff bf5b 	b.w	10e8 <__sflush_r>
    1232:	2000      	movs	r0, #0
    1234:	bd38      	pop	{r3, r4, r5, pc}
    1236:	bf00      	nop
    1238:	00002ec8 	.word	0x00002ec8
    123c:	00002ee8 	.word	0x00002ee8
    1240:	00002f08 	.word	0x00002f08

00001244 <fflush>:
    1244:	4601      	mov	r1, r0
    1246:	b920      	cbnz	r0, 1252 <fflush+0xe>
    1248:	4b04      	ldr	r3, [pc, #16]	; (125c <fflush+0x18>)
    124a:	4905      	ldr	r1, [pc, #20]	; (1260 <fflush+0x1c>)
    124c:	6818      	ldr	r0, [r3, #0]
    124e:	f000 b8f7 	b.w	1440 <_fwalk_reent>
    1252:	4b04      	ldr	r3, [pc, #16]	; (1264 <fflush+0x20>)
    1254:	6818      	ldr	r0, [r3, #0]
    1256:	f7ff bfcb 	b.w	11f0 <_fflush_r>
    125a:	bf00      	nop
    125c:	00002f2c 	.word	0x00002f2c
    1260:	000011f1 	.word	0x000011f1
    1264:	10000130 	.word	0x10000130

00001268 <_cleanup_r>:
    1268:	b5f8      	push	{r3, r4, r5, r6, r7, lr}
    126a:	4607      	mov	r7, r0
    126c:	f100 0448 	add.w	r4, r0, #72	; 0x48
    1270:	b194      	cbz	r4, 1298 <_cleanup_r+0x30>
    1272:	68a5      	ldr	r5, [r4, #8]
    1274:	6866      	ldr	r6, [r4, #4]
    1276:	3e01      	subs	r6, #1
    1278:	d40c      	bmi.n	1294 <_cleanup_r+0x2c>
    127a:	89ab      	ldrh	r3, [r5, #12]
    127c:	2b01      	cmp	r3, #1
    127e:	d907      	bls.n	1290 <_cleanup_r+0x28>
    1280:	f9b5 300e 	ldrsh.w	r3, [r5, #14]
    1284:	3301      	adds	r3, #1
    1286:	d003      	beq.n	1290 <_cleanup_r+0x28>
    1288:	4638      	mov	r0, r7
    128a:	4629      	mov	r1, r5
    128c:	f7ff ffb0 	bl	11f0 <_fflush_r>
    1290:	3568      	adds	r5, #104	; 0x68
    1292:	e7f0      	b.n	1276 <_cleanup_r+0xe>
    1294:	6824      	ldr	r4, [r4, #0]
    1296:	e7eb      	b.n	1270 <_cleanup_r+0x8>
    1298:	bdf8      	pop	{r3, r4, r5, r6, r7, pc}
	...

0000129c <std.isra.0>:
    129c:	2300      	movs	r3, #0
    129e:	b510      	push	{r4, lr}
    12a0:	4604      	mov	r4, r0
    12a2:	6003      	str	r3, [r0, #0]
    12a4:	6043      	str	r3, [r0, #4]
    12a6:	6083      	str	r3, [r0, #8]
    12a8:	8181      	strh	r1, [r0, #12]
    12aa:	6643      	str	r3, [r0, #100]	; 0x64
    12ac:	81c2      	strh	r2, [r0, #14]
    12ae:	6103      	str	r3, [r0, #16]
    12b0:	6143      	str	r3, [r0, #20]
    12b2:	6183      	str	r3, [r0, #24]
    12b4:	4619      	mov	r1, r3
    12b6:	305c      	adds	r0, #92	; 0x5c
    12b8:	2208      	movs	r2, #8
    12ba:	f000 f96d 	bl	1598 <memset>
    12be:	4b05      	ldr	r3, [pc, #20]	; (12d4 <std.isra.0+0x38>)
    12c0:	6224      	str	r4, [r4, #32]
    12c2:	6263      	str	r3, [r4, #36]	; 0x24
    12c4:	4b04      	ldr	r3, [pc, #16]	; (12d8 <std.isra.0+0x3c>)
    12c6:	62a3      	str	r3, [r4, #40]	; 0x28
    12c8:	4b04      	ldr	r3, [pc, #16]	; (12dc <std.isra.0+0x40>)
    12ca:	62e3      	str	r3, [r4, #44]	; 0x2c
    12cc:	4b04      	ldr	r3, [pc, #16]	; (12e0 <std.isra.0+0x44>)
    12ce:	6323      	str	r3, [r4, #48]	; 0x30
    12d0:	bd10      	pop	{r4, pc}
    12d2:	bf00      	nop
    12d4:	00001829 	.word	0x00001829
    12d8:	0000184b 	.word	0x0000184b
    12dc:	00001883 	.word	0x00001883
    12e0:	000018a7 	.word	0x000018a7

000012e4 <__sfmoreglue>:
    12e4:	b570      	push	{r4, r5, r6, lr}
    12e6:	1e4b      	subs	r3, r1, #1
    12e8:	2568      	movs	r5, #104	; 0x68
    12ea:	435d      	muls	r5, r3
    12ec:	460e      	mov	r6, r1
    12ee:	f105 0174 	add.w	r1, r5, #116	; 0x74
    12f2:	f000 f99d 	bl	1630 <_malloc_r>
    12f6:	4604      	mov	r4, r0
    12f8:	b140      	cbz	r0, 130c <__sfmoreglue+0x28>
    12fa:	2100      	movs	r1, #0
    12fc:	e880 0042 	stmia.w	r0, {r1, r6}
    1300:	300c      	adds	r0, #12
    1302:	60a0      	str	r0, [r4, #8]
    1304:	f105 0268 	add.w	r2, r5, #104	; 0x68
    1308:	f000 f946 	bl	1598 <memset>
    130c:	4620      	mov	r0, r4
    130e:	bd70      	pop	{r4, r5, r6, pc}

00001310 <__sinit>:
    1310:	6983      	ldr	r3, [r0, #24]
    1312:	b510      	push	{r4, lr}
    1314:	4604      	mov	r4, r0
    1316:	bb33      	cbnz	r3, 1366 <__sinit+0x56>
    1318:	6483      	str	r3, [r0, #72]	; 0x48
    131a:	64c3      	str	r3, [r0, #76]	; 0x4c
    131c:	6503      	str	r3, [r0, #80]	; 0x50
    131e:	4b12      	ldr	r3, [pc, #72]	; (1368 <__sinit+0x58>)
    1320:	4a12      	ldr	r2, [pc, #72]	; (136c <__sinit+0x5c>)
    1322:	681b      	ldr	r3, [r3, #0]
    1324:	6282      	str	r2, [r0, #40]	; 0x28
    1326:	4298      	cmp	r0, r3
    1328:	bf04      	itt	eq
    132a:	2301      	moveq	r3, #1
    132c:	6183      	streq	r3, [r0, #24]
    132e:	f000 f81f 	bl	1370 <__sfp>
    1332:	6060      	str	r0, [r4, #4]
    1334:	4620      	mov	r0, r4
    1336:	f000 f81b 	bl	1370 <__sfp>
    133a:	60a0      	str	r0, [r4, #8]
    133c:	4620      	mov	r0, r4
    133e:	f000 f817 	bl	1370 <__sfp>
    1342:	2104      	movs	r1, #4
    1344:	60e0      	str	r0, [r4, #12]
    1346:	2200      	movs	r2, #0
    1348:	6860      	ldr	r0, [r4, #4]
    134a:	f7ff ffa7 	bl	129c <std.isra.0>
    134e:	68a0      	ldr	r0, [r4, #8]
    1350:	2109      	movs	r1, #9
    1352:	2201      	movs	r2, #1
    1354:	f7ff ffa2 	bl	129c <std.isra.0>
    1358:	68e0      	ldr	r0, [r4, #12]
    135a:	2112      	movs	r1, #18
    135c:	2202      	movs	r2, #2
    135e:	f7ff ff9d 	bl	129c <std.isra.0>
    1362:	2301      	movs	r3, #1
    1364:	61a3      	str	r3, [r4, #24]
    1366:	bd10      	pop	{r4, pc}
    1368:	00002f2c 	.word	0x00002f2c
    136c:	00001269 	.word	0x00001269

00001370 <__sfp>:
    1370:	b5f8      	push	{r3, r4, r5, r6, r7, lr}
    1372:	4b1b      	ldr	r3, [pc, #108]	; (13e0 <__sfp+0x70>)
    1374:	4607      	mov	r7, r0
    1376:	681e      	ldr	r6, [r3, #0]
    1378:	69b3      	ldr	r3, [r6, #24]
    137a:	b913      	cbnz	r3, 1382 <__sfp+0x12>
    137c:	4630      	mov	r0, r6
    137e:	f7ff ffc7 	bl	1310 <__sinit>
    1382:	3648      	adds	r6, #72	; 0x48
    1384:	68b4      	ldr	r4, [r6, #8]
    1386:	6873      	ldr	r3, [r6, #4]
    1388:	3b01      	subs	r3, #1
    138a:	d404      	bmi.n	1396 <__sfp+0x26>
    138c:	f9b4 500c 	ldrsh.w	r5, [r4, #12]
    1390:	b175      	cbz	r5, 13b0 <__sfp+0x40>
    1392:	3468      	adds	r4, #104	; 0x68
    1394:	e7f8      	b.n	1388 <__sfp+0x18>
    1396:	6833      	ldr	r3, [r6, #0]
    1398:	b92b      	cbnz	r3, 13a6 <__sfp+0x36>
    139a:	4638      	mov	r0, r7
    139c:	2104      	movs	r1, #4
    139e:	f7ff ffa1 	bl	12e4 <__sfmoreglue>
    13a2:	6030      	str	r0, [r6, #0]
    13a4:	b108      	cbz	r0, 13aa <__sfp+0x3a>
    13a6:	6836      	ldr	r6, [r6, #0]
    13a8:	e7ec      	b.n	1384 <__sfp+0x14>
    13aa:	230c      	movs	r3, #12
    13ac:	603b      	str	r3, [r7, #0]
    13ae:	bdf8      	pop	{r3, r4, r5, r6, r7, pc}
    13b0:	f64f 73ff 	movw	r3, #65535	; 0xffff
    13b4:	81e3      	strh	r3, [r4, #14]
    13b6:	2301      	movs	r3, #1
    13b8:	81a3      	strh	r3, [r4, #12]
    13ba:	6665      	str	r5, [r4, #100]	; 0x64
    13bc:	6025      	str	r5, [r4, #0]
    13be:	60a5      	str	r5, [r4, #8]
    13c0:	6065      	str	r5, [r4, #4]
    13c2:	6125      	str	r5, [r4, #16]
    13c4:	6165      	str	r5, [r4, #20]
    13c6:	61a5      	str	r5, [r4, #24]
    13c8:	f104 005c 	add.w	r0, r4, #92	; 0x5c
    13cc:	4629      	mov	r1, r5
    13ce:	2208      	movs	r2, #8
    13d0:	f000 f8e2 	bl	1598 <memset>
    13d4:	6365      	str	r5, [r4, #52]	; 0x34
    13d6:	63a5      	str	r5, [r4, #56]	; 0x38
    13d8:	64a5      	str	r5, [r4, #72]	; 0x48
    13da:	64e5      	str	r5, [r4, #76]	; 0x4c
    13dc:	4620      	mov	r0, r4
    13de:	bdf8      	pop	{r3, r4, r5, r6, r7, pc}
    13e0:	00002f2c 	.word	0x00002f2c

000013e4 <fiscanf>:
    13e4:	b40e      	push	{r1, r2, r3}
    13e6:	b503      	push	{r0, r1, lr}
    13e8:	4601      	mov	r1, r0
    13ea:	ab03      	add	r3, sp, #12
    13ec:	4805      	ldr	r0, [pc, #20]	; (1404 <fiscanf+0x20>)
    13ee:	f853 2b04 	ldr.w	r2, [r3], #4
    13f2:	6800      	ldr	r0, [r0, #0]
    13f4:	9301      	str	r3, [sp, #4]
    13f6:	f000 ff1b 	bl	2230 <_vfiscanf_r>
    13fa:	b002      	add	sp, #8
    13fc:	f85d eb04 	ldr.w	lr, [sp], #4
    1400:	b003      	add	sp, #12
    1402:	4770      	bx	lr
    1404:	10000130 	.word	0x10000130

00001408 <_fwalk>:
    1408:	e92d 41f0 	stmdb	sp!, {r4, r5, r6, r7, r8, lr}
    140c:	4688      	mov	r8, r1
    140e:	f100 0448 	add.w	r4, r0, #72	; 0x48
    1412:	2600      	movs	r6, #0
    1414:	b18c      	cbz	r4, 143a <_fwalk+0x32>
    1416:	68a5      	ldr	r5, [r4, #8]
    1418:	6867      	ldr	r7, [r4, #4]
    141a:	3f01      	subs	r7, #1
    141c:	d40b      	bmi.n	1436 <_fwalk+0x2e>
    141e:	89ab      	ldrh	r3, [r5, #12]
    1420:	2b01      	cmp	r3, #1
    1422:	d906      	bls.n	1432 <_fwalk+0x2a>
    1424:	f9b5 300e 	ldrsh.w	r3, [r5, #14]
    1428:	3301      	adds	r3, #1
    142a:	d002      	beq.n	1432 <_fwalk+0x2a>
    142c:	4628      	mov	r0, r5
    142e:	47c0      	blx	r8
    1430:	4306      	orrs	r6, r0
    1432:	3568      	adds	r5, #104	; 0x68
    1434:	e7f1      	b.n	141a <_fwalk+0x12>
    1436:	6824      	ldr	r4, [r4, #0]
    1438:	e7ec      	b.n	1414 <_fwalk+0xc>
    143a:	4630      	mov	r0, r6
    143c:	e8bd 81f0 	ldmia.w	sp!, {r4, r5, r6, r7, r8, pc}

00001440 <_fwalk_reent>:
    1440:	e92d 43f8 	stmdb	sp!, {r3, r4, r5, r6, r7, r8, r9, lr}
    1444:	4680      	mov	r8, r0
    1446:	4689      	mov	r9, r1
    1448:	f100 0448 	add.w	r4, r0, #72	; 0x48
    144c:	2600      	movs	r6, #0
    144e:	b194      	cbz	r4, 1476 <_fwalk_reent+0x36>
    1450:	68a5      	ldr	r5, [r4, #8]
    1452:	6867      	ldr	r7, [r4, #4]
    1454:	3f01      	subs	r7, #1
    1456:	d40c      	bmi.n	1472 <_fwalk_reent+0x32>
    1458:	89ab      	ldrh	r3, [r5, #12]
    145a:	2b01      	cmp	r3, #1
    145c:	d907      	bls.n	146e <_fwalk_reent+0x2e>
    145e:	f9b5 300e 	ldrsh.w	r3, [r5, #14]
    1462:	3301      	adds	r3, #1
    1464:	d003      	beq.n	146e <_fwalk_reent+0x2e>
    1466:	4640      	mov	r0, r8
    1468:	4629      	mov	r1, r5
    146a:	47c8      	blx	r9
    146c:	4306      	orrs	r6, r0
    146e:	3568      	adds	r5, #104	; 0x68
    1470:	e7f0      	b.n	1454 <_fwalk_reent+0x14>
    1472:	6824      	ldr	r4, [r4, #0]
    1474:	e7eb      	b.n	144e <_fwalk_reent+0xe>
    1476:	4630      	mov	r0, r6
    1478:	e8bd 83f8 	ldmia.w	sp!, {r3, r4, r5, r6, r7, r8, r9, pc}

0000147c <_fwrite_r>:
    147c:	e92d 47f0 	stmdb	sp!, {r4, r5, r6, r7, r8, r9, r10, lr}
    1480:	9c08      	ldr	r4, [sp, #32]
    1482:	468a      	mov	r10, r1
    1484:	4690      	mov	r8, r2
    1486:	fb02 f903 	mul.w	r9, r2, r3
    148a:	4605      	mov	r5, r0
    148c:	b118      	cbz	r0, 1496 <_fwrite_r+0x1a>
    148e:	6983      	ldr	r3, [r0, #24]
    1490:	b90b      	cbnz	r3, 1496 <_fwrite_r+0x1a>
    1492:	f7ff ff3d 	bl	1310 <__sinit>
    1496:	4b22      	ldr	r3, [pc, #136]	; (1520 <_fwrite_r+0xa4>)
    1498:	429c      	cmp	r4, r3
    149a:	d101      	bne.n	14a0 <_fwrite_r+0x24>
    149c:	686c      	ldr	r4, [r5, #4]
    149e:	e008      	b.n	14b2 <_fwrite_r+0x36>
    14a0:	4b20      	ldr	r3, [pc, #128]	; (1524 <_fwrite_r+0xa8>)
    14a2:	429c      	cmp	r4, r3
    14a4:	d101      	bne.n	14aa <_fwrite_r+0x2e>
    14a6:	68ac      	ldr	r4, [r5, #8]
    14a8:	e003      	b.n	14b2 <_fwrite_r+0x36>
    14aa:	4b1f      	ldr	r3, [pc, #124]	; (1528 <_fwrite_r+0xac>)
    14ac:	429c      	cmp	r4, r3
    14ae:	bf08      	it	eq
    14b0:	68ec      	ldreq	r4, [r5, #12]
    14b2:	89a3      	ldrh	r3, [r4, #12]
    14b4:	071a      	lsls	r2, r3, #28
    14b6:	d503      	bpl.n	14c0 <_fwrite_r+0x44>
    14b8:	6923      	ldr	r3, [r4, #16]
    14ba:	b10b      	cbz	r3, 14c0 <_fwrite_r+0x44>
    14bc:	2600      	movs	r6, #0
    14be:	e01b      	b.n	14f8 <_fwrite_r+0x7c>
    14c0:	4628      	mov	r0, r5
    14c2:	4621      	mov	r1, r4
    14c4:	f001 f898 	bl	25f8 <__swsetup_r>
    14c8:	2800      	cmp	r0, #0
    14ca:	d0f7      	beq.n	14bc <_fwrite_r+0x40>
    14cc:	2600      	movs	r6, #0
    14ce:	e023      	b.n	1518 <_fwrite_r+0x9c>
    14d0:	68a7      	ldr	r7, [r4, #8]
    14d2:	3f01      	subs	r7, #1
    14d4:	60a7      	str	r7, [r4, #8]
    14d6:	2f00      	cmp	r7, #0
    14d8:	f81a 1006 	ldrb.w	r1, [r10, r6]
    14dc:	da16      	bge.n	150c <_fwrite_r+0x90>
    14de:	69a3      	ldr	r3, [r4, #24]
    14e0:	429f      	cmp	r7, r3
    14e2:	da0c      	bge.n	14fe <_fwrite_r+0x82>
    14e4:	4628      	mov	r0, r5
    14e6:	4622      	mov	r2, r4
    14e8:	f001 f820 	bl	252c <__swbuf_r>
    14ec:	f1b0 33ff 	subs.w	r3, r0, #4294967295	; 0xffffffff
    14f0:	4258      	negs	r0, r3
    14f2:	4158      	adcs	r0, r3
    14f4:	b980      	cbnz	r0, 1518 <_fwrite_r+0x9c>
    14f6:	3601      	adds	r6, #1
    14f8:	454e      	cmp	r6, r9
    14fa:	d1e9      	bne.n	14d0 <_fwrite_r+0x54>
    14fc:	e00c      	b.n	1518 <_fwrite_r+0x9c>
    14fe:	6823      	ldr	r3, [r4, #0]
    1500:	7019      	strb	r1, [r3, #0]
    1502:	6823      	ldr	r3, [r4, #0]
    1504:	7819      	ldrb	r1, [r3, #0]
    1506:	290a      	cmp	r1, #10
    1508:	d103      	bne.n	1512 <_fwrite_r+0x96>
    150a:	e7eb      	b.n	14e4 <_fwrite_r+0x68>
    150c:	6823      	ldr	r3, [r4, #0]
    150e:	7019      	strb	r1, [r3, #0]
    1510:	6823      	ldr	r3, [r4, #0]
    1512:	3301      	adds	r3, #1
    1514:	6023      	str	r3, [r4, #0]
    1516:	e7ee      	b.n	14f6 <_fwrite_r+0x7a>
    1518:	fbb6 f0f8 	udiv	r0, r6, r8
    151c:	e8bd 87f0 	ldmia.w	sp!, {r4, r5, r6, r7, r8, r9, r10, pc}
    1520:	00002ec8 	.word	0x00002ec8
    1524:	00002ee8 	.word	0x00002ee8
    1528:	00002f08 	.word	0x00002f08

0000152c <fwrite>:
    152c:	b573      	push	{r0, r1, r4, r5, r6, lr}
    152e:	9300      	str	r3, [sp, #0]
    1530:	4b05      	ldr	r3, [pc, #20]	; (1548 <fwrite+0x1c>)
    1532:	4606      	mov	r6, r0
    1534:	460d      	mov	r5, r1
    1536:	4614      	mov	r4, r2
    1538:	6818      	ldr	r0, [r3, #0]
    153a:	4631      	mov	r1, r6
    153c:	462a      	mov	r2, r5
    153e:	4623      	mov	r3, r4
    1540:	f7ff ff9c 	bl	147c <_fwrite_r>
    1544:	b002      	add	sp, #8
    1546:	bd70      	pop	{r4, r5, r6, pc}
    1548:	10000130 	.word	0x10000130

0000154c <__libc_init_array>:
    154c:	b570      	push	{r4, r5, r6, lr}
    154e:	4b0e      	ldr	r3, [pc, #56]	; (1588 <__libc_init_array+0x3c>)
    1550:	4d0e      	ldr	r5, [pc, #56]	; (158c <__libc_init_array+0x40>)
    1552:	2400      	movs	r4, #0
    1554:	1aed      	subs	r5, r5, r3
    1556:	10ad      	asrs	r5, r5, #2
    1558:	461e      	mov	r6, r3
    155a:	42ac      	cmp	r4, r5
    155c:	d004      	beq.n	1568 <__libc_init_array+0x1c>
    155e:	f856 2024 	ldr.w	r2, [r6, r4, lsl #2]
    1562:	4790      	blx	r2
    1564:	3401      	adds	r4, #1
    1566:	e7f8      	b.n	155a <__libc_init_array+0xe>
    1568:	f001 fb5a 	bl	2c20 <_init>
    156c:	4d08      	ldr	r5, [pc, #32]	; (1590 <__libc_init_array+0x44>)
    156e:	4b09      	ldr	r3, [pc, #36]	; (1594 <__libc_init_array+0x48>)
    1570:	2400      	movs	r4, #0
    1572:	1aed      	subs	r5, r5, r3
    1574:	10ad      	asrs	r5, r5, #2
    1576:	461e      	mov	r6, r3
    1578:	42ac      	cmp	r4, r5
    157a:	d004      	beq.n	1586 <__libc_init_array+0x3a>
    157c:	f856 2024 	ldr.w	r2, [r6, r4, lsl #2]
    1580:	4790      	blx	r2
    1582:	3401      	adds	r4, #1
    1584:	e7f8      	b.n	1578 <__libc_init_array+0x2c>
    1586:	bd70      	pop	{r4, r5, r6, pc}
    1588:	10000138 	.word	0x10000138
    158c:	10000138 	.word	0x10000138
    1590:	1000013c 	.word	0x1000013c
    1594:	10000138 	.word	0x10000138

00001598 <memset>:
    1598:	4402      	add	r2, r0
    159a:	4603      	mov	r3, r0
    159c:	4293      	cmp	r3, r2
    159e:	d002      	beq.n	15a6 <memset+0xe>
    15a0:	f803 1b01 	strb.w	r1, [r3], #1
    15a4:	e7fa      	b.n	159c <memset+0x4>
    15a6:	4770      	bx	lr

000015a8 <_free_r>:
    15a8:	b530      	push	{r4, r5, lr}
    15aa:	2900      	cmp	r1, #0
    15ac:	d03c      	beq.n	1628 <_free_r+0x80>
    15ae:	f851 2c04 	ldr.w	r2, [r1, #-4]
    15b2:	1f0b      	subs	r3, r1, #4
    15b4:	491d      	ldr	r1, [pc, #116]	; (162c <_free_r+0x84>)
    15b6:	2a00      	cmp	r2, #0
    15b8:	bfb8      	it	lt
    15ba:	189b      	addlt	r3, r3, r2
    15bc:	680a      	ldr	r2, [r1, #0]
    15be:	460c      	mov	r4, r1
    15c0:	b912      	cbnz	r2, 15c8 <_free_r+0x20>
    15c2:	605a      	str	r2, [r3, #4]
    15c4:	600b      	str	r3, [r1, #0]
    15c6:	bd30      	pop	{r4, r5, pc}
    15c8:	4293      	cmp	r3, r2
    15ca:	d20d      	bcs.n	15e8 <_free_r+0x40>
    15cc:	6819      	ldr	r1, [r3, #0]
    15ce:	1858      	adds	r0, r3, r1
    15d0:	4290      	cmp	r0, r2
    15d2:	d103      	bne.n	15dc <_free_r+0x34>
    15d4:	585a      	ldr	r2, [r3, r1]
    15d6:	4411      	add	r1, r2
    15d8:	6842      	ldr	r2, [r0, #4]
    15da:	6019      	str	r1, [r3, #0]
    15dc:	605a      	str	r2, [r3, #4]
    15de:	6023      	str	r3, [r4, #0]
    15e0:	bd30      	pop	{r4, r5, pc}
    15e2:	4299      	cmp	r1, r3
    15e4:	d803      	bhi.n	15ee <_free_r+0x46>
    15e6:	460a      	mov	r2, r1
    15e8:	6851      	ldr	r1, [r2, #4]
    15ea:	2900      	cmp	r1, #0
    15ec:	d1f9      	bne.n	15e2 <_free_r+0x3a>
    15ee:	6814      	ldr	r4, [r2, #0]
    15f0:	1915      	adds	r5, r2, r4
    15f2:	429d      	cmp	r5, r3
    15f4:	d10a      	bne.n	160c <_free_r+0x64>
    15f6:	681b      	ldr	r3, [r3, #0]
    15f8:	4423      	add	r3, r4
    15fa:	18d0      	adds	r0, r2, r3
    15fc:	4288      	cmp	r0, r1
    15fe:	6013      	str	r3, [r2, #0]
    1600:	d112      	bne.n	1628 <_free_r+0x80>
    1602:	6808      	ldr	r0, [r1, #0]
    1604:	4403      	add	r3, r0
    1606:	6013      	str	r3, [r2, #0]
    1608:	684b      	ldr	r3, [r1, #4]
    160a:	e00c      	b.n	1626 <_free_r+0x7e>
    160c:	d902      	bls.n	1614 <_free_r+0x6c>
    160e:	230c      	movs	r3, #12
    1610:	6003      	str	r3, [r0, #0]
    1612:	bd30      	pop	{r4, r5, pc}
    1614:	6818      	ldr	r0, [r3, #0]
    1616:	181c      	adds	r4, r3, r0
    1618:	428c      	cmp	r4, r1
    161a:	d103      	bne.n	1624 <_free_r+0x7c>
    161c:	680c      	ldr	r4, [r1, #0]
    161e:	6849      	ldr	r1, [r1, #4]
    1620:	4420      	add	r0, r4
    1622:	6018      	str	r0, [r3, #0]
    1624:	6059      	str	r1, [r3, #4]
    1626:	6053      	str	r3, [r2, #4]
    1628:	bd30      	pop	{r4, r5, pc}
    162a:	bf00      	nop
    162c:	10000354 	.word	0x10000354

00001630 <_malloc_r>:
    1630:	b570      	push	{r4, r5, r6, lr}
    1632:	1ccd      	adds	r5, r1, #3
    1634:	f025 0503 	bic.w	r5, r5, #3
    1638:	3508      	adds	r5, #8
    163a:	2d0c      	cmp	r5, #12
    163c:	bf38      	it	cc
    163e:	250c      	movcc	r5, #12
    1640:	2d00      	cmp	r5, #0
    1642:	4606      	mov	r6, r0
    1644:	db3f      	blt.n	16c6 <_malloc_r+0x96>
    1646:	428d      	cmp	r5, r1
    1648:	d33d      	bcc.n	16c6 <_malloc_r+0x96>
    164a:	4b21      	ldr	r3, [pc, #132]	; (16d0 <_malloc_r+0xa0>)
    164c:	681c      	ldr	r4, [r3, #0]
    164e:	4618      	mov	r0, r3
    1650:	4621      	mov	r1, r4
    1652:	b1a1      	cbz	r1, 167e <_malloc_r+0x4e>
    1654:	680b      	ldr	r3, [r1, #0]
    1656:	1b5b      	subs	r3, r3, r5
    1658:	d40e      	bmi.n	1678 <_malloc_r+0x48>
    165a:	2b0b      	cmp	r3, #11
    165c:	d903      	bls.n	1666 <_malloc_r+0x36>
    165e:	600b      	str	r3, [r1, #0]
    1660:	18cc      	adds	r4, r1, r3
    1662:	50cd      	str	r5, [r1, r3]
    1664:	e01f      	b.n	16a6 <_malloc_r+0x76>
    1666:	428c      	cmp	r4, r1
    1668:	d102      	bne.n	1670 <_malloc_r+0x40>
    166a:	6862      	ldr	r2, [r4, #4]
    166c:	6002      	str	r2, [r0, #0]
    166e:	e01a      	b.n	16a6 <_malloc_r+0x76>
    1670:	684b      	ldr	r3, [r1, #4]
    1672:	6063      	str	r3, [r4, #4]
    1674:	460c      	mov	r4, r1
    1676:	e016      	b.n	16a6 <_malloc_r+0x76>
    1678:	460c      	mov	r4, r1
    167a:	6849      	ldr	r1, [r1, #4]
    167c:	e7e9      	b.n	1652 <_malloc_r+0x22>
    167e:	4c15      	ldr	r4, [pc, #84]	; (16d4 <_malloc_r+0xa4>)
    1680:	6823      	ldr	r3, [r4, #0]
    1682:	b91b      	cbnz	r3, 168c <_malloc_r+0x5c>
    1684:	4630      	mov	r0, r6
    1686:	f000 f8a7 	bl	17d8 <_sbrk_r>
    168a:	6020      	str	r0, [r4, #0]
    168c:	4629      	mov	r1, r5
    168e:	4630      	mov	r0, r6
    1690:	f000 f8a2 	bl	17d8 <_sbrk_r>
    1694:	1c43      	adds	r3, r0, #1
    1696:	4601      	mov	r1, r0
    1698:	d015      	beq.n	16c6 <_malloc_r+0x96>
    169a:	1cc4      	adds	r4, r0, #3
    169c:	f024 0403 	bic.w	r4, r4, #3
    16a0:	4284      	cmp	r4, r0
    16a2:	d10a      	bne.n	16ba <_malloc_r+0x8a>
    16a4:	6025      	str	r5, [r4, #0]
    16a6:	f104 000b 	add.w	r0, r4, #11
    16aa:	1d23      	adds	r3, r4, #4
    16ac:	f020 0007 	bic.w	r0, r0, #7
    16b0:	1ac3      	subs	r3, r0, r3
    16b2:	d00b      	beq.n	16cc <_malloc_r+0x9c>
    16b4:	425a      	negs	r2, r3
    16b6:	50e2      	str	r2, [r4, r3]
    16b8:	bd70      	pop	{r4, r5, r6, pc}
    16ba:	4630      	mov	r0, r6
    16bc:	1a61      	subs	r1, r4, r1
    16be:	f000 f88b 	bl	17d8 <_sbrk_r>
    16c2:	3001      	adds	r0, #1
    16c4:	d1ee      	bne.n	16a4 <_malloc_r+0x74>
    16c6:	230c      	movs	r3, #12
    16c8:	6033      	str	r3, [r6, #0]
    16ca:	2000      	movs	r0, #0
    16cc:	bd70      	pop	{r4, r5, r6, pc}
    16ce:	bf00      	nop
    16d0:	10000354 	.word	0x10000354
    16d4:	10000350 	.word	0x10000350

000016d8 <iprintf>:
    16d8:	b40f      	push	{r0, r1, r2, r3}
    16da:	4b0a      	ldr	r3, [pc, #40]	; (1704 <iprintf+0x2c>)
    16dc:	b513      	push	{r0, r1, r4, lr}
    16de:	681c      	ldr	r4, [r3, #0]
    16e0:	b124      	cbz	r4, 16ec <iprintf+0x14>
    16e2:	69a3      	ldr	r3, [r4, #24]
    16e4:	b913      	cbnz	r3, 16ec <iprintf+0x14>
    16e6:	4620      	mov	r0, r4
    16e8:	f7ff fe12 	bl	1310 <__sinit>
    16ec:	ab05      	add	r3, sp, #20
    16ee:	4620      	mov	r0, r4
    16f0:	68a1      	ldr	r1, [r4, #8]
    16f2:	9a04      	ldr	r2, [sp, #16]
    16f4:	9301      	str	r3, [sp, #4]
    16f6:	f000 f9b5 	bl	1a64 <_vfiprintf_r>
    16fa:	b002      	add	sp, #8
    16fc:	e8bd 4010 	ldmia.w	sp!, {r4, lr}
    1700:	b004      	add	sp, #16
    1702:	4770      	bx	lr
    1704:	10000130 	.word	0x10000130

00001708 <_puts_r>:
    1708:	b570      	push	{r4, r5, r6, lr}
    170a:	460e      	mov	r6, r1
    170c:	4605      	mov	r5, r0
    170e:	b118      	cbz	r0, 1718 <_puts_r+0x10>
    1710:	6983      	ldr	r3, [r0, #24]
    1712:	b90b      	cbnz	r3, 1718 <_puts_r+0x10>
    1714:	f7ff fdfc 	bl	1310 <__sinit>
    1718:	68ac      	ldr	r4, [r5, #8]
    171a:	89a3      	ldrh	r3, [r4, #12]
    171c:	0719      	lsls	r1, r3, #28
    171e:	d501      	bpl.n	1724 <_puts_r+0x1c>
    1720:	6923      	ldr	r3, [r4, #16]
    1722:	b983      	cbnz	r3, 1746 <_puts_r+0x3e>
    1724:	4628      	mov	r0, r5
    1726:	4621      	mov	r1, r4
    1728:	f000 ff66 	bl	25f8 <__swsetup_r>
    172c:	b158      	cbz	r0, 1746 <_puts_r+0x3e>
    172e:	f04f 30ff 	mov.w	r0, #4294967295	; 0xffffffff
    1732:	bd70      	pop	{r4, r5, r6, pc}
    1734:	2b00      	cmp	r3, #0
    1736:	db0e      	blt.n	1756 <_puts_r+0x4e>
    1738:	6823      	ldr	r3, [r4, #0]
    173a:	f816 2c01 	ldrb.w	r2, [r6, #-1]
    173e:	701a      	strb	r2, [r3, #0]
    1740:	6823      	ldr	r3, [r4, #0]
    1742:	3301      	adds	r3, #1
    1744:	6023      	str	r3, [r4, #0]
    1746:	68a3      	ldr	r3, [r4, #8]
    1748:	f816 2b01 	ldrb.w	r2, [r6], #1
    174c:	3b01      	subs	r3, #1
    174e:	60a3      	str	r3, [r4, #8]
    1750:	2a00      	cmp	r2, #0
    1752:	d1ef      	bne.n	1734 <_puts_r+0x2c>
    1754:	e017      	b.n	1786 <_puts_r+0x7e>
    1756:	69a2      	ldr	r2, [r4, #24]
    1758:	4293      	cmp	r3, r2
    175a:	db09      	blt.n	1770 <_puts_r+0x68>
    175c:	6823      	ldr	r3, [r4, #0]
    175e:	f816 2c01 	ldrb.w	r2, [r6, #-1]
    1762:	701a      	strb	r2, [r3, #0]
    1764:	6823      	ldr	r3, [r4, #0]
    1766:	7819      	ldrb	r1, [r3, #0]
    1768:	290a      	cmp	r1, #10
    176a:	d1ea      	bne.n	1742 <_puts_r+0x3a>
    176c:	4628      	mov	r0, r5
    176e:	e002      	b.n	1776 <_puts_r+0x6e>
    1770:	f816 1c01 	ldrb.w	r1, [r6, #-1]
    1774:	4628      	mov	r0, r5
    1776:	4622      	mov	r2, r4
    1778:	f000 fed8 	bl	252c <__swbuf_r>
    177c:	f1b0 32ff 	subs.w	r2, r0, #4294967295	; 0xffffffff
    1780:	4250      	negs	r0, r2
    1782:	4150      	adcs	r0, r2
    1784:	e7d2      	b.n	172c <_puts_r+0x24>
    1786:	2b00      	cmp	r3, #0
    1788:	da16      	bge.n	17b8 <_puts_r+0xb0>
    178a:	69a2      	ldr	r2, [r4, #24]
    178c:	4293      	cmp	r3, r2
    178e:	db08      	blt.n	17a2 <_puts_r+0x9a>
    1790:	6823      	ldr	r3, [r4, #0]
    1792:	220a      	movs	r2, #10
    1794:	701a      	strb	r2, [r3, #0]
    1796:	6823      	ldr	r3, [r4, #0]
    1798:	7819      	ldrb	r1, [r3, #0]
    179a:	4291      	cmp	r1, r2
    179c:	d110      	bne.n	17c0 <_puts_r+0xb8>
    179e:	4628      	mov	r0, r5
    17a0:	e001      	b.n	17a6 <_puts_r+0x9e>
    17a2:	4628      	mov	r0, r5
    17a4:	210a      	movs	r1, #10
    17a6:	4622      	mov	r2, r4
    17a8:	f000 fec0 	bl	252c <__swbuf_r>
    17ac:	f1b0 33ff 	subs.w	r3, r0, #4294967295	; 0xffffffff
    17b0:	4258      	negs	r0, r3
    17b2:	4158      	adcs	r0, r3
    17b4:	b130      	cbz	r0, 17c4 <_puts_r+0xbc>
    17b6:	e7ba      	b.n	172e <_puts_r+0x26>
    17b8:	6823      	ldr	r3, [r4, #0]
    17ba:	220a      	movs	r2, #10
    17bc:	701a      	strb	r2, [r3, #0]
    17be:	6823      	ldr	r3, [r4, #0]
    17c0:	3301      	adds	r3, #1
    17c2:	6023      	str	r3, [r4, #0]
    17c4:	200a      	movs	r0, #10
    17c6:	bd70      	pop	{r4, r5, r6, pc}

000017c8 <puts>:
    17c8:	4b02      	ldr	r3, [pc, #8]	; (17d4 <puts+0xc>)
    17ca:	4601      	mov	r1, r0
    17cc:	6818      	ldr	r0, [r3, #0]
    17ce:	f7ff bf9b 	b.w	1708 <_puts_r>
    17d2:	bf00      	nop
    17d4:	10000130 	.word	0x10000130

000017d8 <_sbrk_r>:
    17d8:	b538      	push	{r3, r4, r5, lr}
    17da:	4c06      	ldr	r4, [pc, #24]	; (17f4 <_sbrk_r+0x1c>)
    17dc:	2300      	movs	r3, #0
    17de:	4605      	mov	r5, r0
    17e0:	4608      	mov	r0, r1
    17e2:	6023      	str	r3, [r4, #0]
    17e4:	f7fe fde6 	bl	3b4 <_sbrk>
    17e8:	1c43      	adds	r3, r0, #1
    17ea:	d102      	bne.n	17f2 <_sbrk_r+0x1a>
    17ec:	6823      	ldr	r3, [r4, #0]
    17ee:	b103      	cbz	r3, 17f2 <_sbrk_r+0x1a>
    17f0:	602b      	str	r3, [r5, #0]
    17f2:	bd38      	pop	{r3, r4, r5, pc}
    17f4:	10000360 	.word	0x10000360

000017f8 <iscanf>:
    17f8:	b40f      	push	{r0, r1, r2, r3}
    17fa:	4b0a      	ldr	r3, [pc, #40]	; (1824 <iscanf+0x2c>)
    17fc:	b513      	push	{r0, r1, r4, lr}
    17fe:	681c      	ldr	r4, [r3, #0]
    1800:	b124      	cbz	r4, 180c <iscanf+0x14>
    1802:	69a3      	ldr	r3, [r4, #24]
    1804:	b913      	cbnz	r3, 180c <iscanf+0x14>
    1806:	4620      	mov	r0, r4
    1808:	f7ff fd82 	bl	1310 <__sinit>
    180c:	ab05      	add	r3, sp, #20
    180e:	4620      	mov	r0, r4
    1810:	6861      	ldr	r1, [r4, #4]
    1812:	9a04      	ldr	r2, [sp, #16]
    1814:	9301      	str	r3, [sp, #4]
    1816:	f000 fd0b 	bl	2230 <_vfiscanf_r>
    181a:	b002      	add	sp, #8
    181c:	e8bd 4010 	ldmia.w	sp!, {r4, lr}
    1820:	b004      	add	sp, #16
    1822:	4770      	bx	lr
    1824:	10000130 	.word	0x10000130

00001828 <__sread>:
    1828:	b510      	push	{r4, lr}
    182a:	460c      	mov	r4, r1
    182c:	f9b1 100e 	ldrsh.w	r1, [r1, #14]
    1830:	f000 fffc 	bl	282c <_read_r>
    1834:	2800      	cmp	r0, #0
    1836:	db03      	blt.n	1840 <__sread+0x18>
    1838:	6d63      	ldr	r3, [r4, #84]	; 0x54
    183a:	4403      	add	r3, r0
    183c:	6563      	str	r3, [r4, #84]	; 0x54
    183e:	bd10      	pop	{r4, pc}
    1840:	89a3      	ldrh	r3, [r4, #12]
    1842:	f423 5380 	bic.w	r3, r3, #4096	; 0x1000
    1846:	81a3      	strh	r3, [r4, #12]
    1848:	bd10      	pop	{r4, pc}

0000184a <__swrite>:
    184a:	e92d 41f0 	stmdb	sp!, {r4, r5, r6, r7, r8, lr}
    184e:	461d      	mov	r5, r3
    1850:	898b      	ldrh	r3, [r1, #12]
    1852:	4607      	mov	r7, r0
    1854:	05db      	lsls	r3, r3, #23
    1856:	460c      	mov	r4, r1
    1858:	4616      	mov	r6, r2
    185a:	d505      	bpl.n	1868 <__swrite+0x1e>
    185c:	f9b1 100e 	ldrsh.w	r1, [r1, #14]
    1860:	2200      	movs	r2, #0
    1862:	2302      	movs	r3, #2
    1864:	f000 ff46 	bl	26f4 <_lseek_r>
    1868:	89a3      	ldrh	r3, [r4, #12]
    186a:	4638      	mov	r0, r7
    186c:	f423 5380 	bic.w	r3, r3, #4096	; 0x1000
    1870:	81a3      	strh	r3, [r4, #12]
    1872:	f9b4 100e 	ldrsh.w	r1, [r4, #14]
    1876:	4632      	mov	r2, r6
    1878:	462b      	mov	r3, r5
    187a:	e8bd 41f0 	ldmia.w	sp!, {r4, r5, r6, r7, r8, lr}
    187e:	f000 bea9 	b.w	25d4 <_write_r>

00001882 <__sseek>:
    1882:	b510      	push	{r4, lr}
    1884:	460c      	mov	r4, r1
    1886:	f9b1 100e 	ldrsh.w	r1, [r1, #14]
    188a:	f000 ff33 	bl	26f4 <_lseek_r>
    188e:	1c43      	adds	r3, r0, #1
    1890:	89a3      	ldrh	r3, [r4, #12]
    1892:	d103      	bne.n	189c <__sseek+0x1a>
    1894:	f423 5380 	bic.w	r3, r3, #4096	; 0x1000
    1898:	81a3      	strh	r3, [r4, #12]
    189a:	bd10      	pop	{r4, pc}
    189c:	f443 5380 	orr.w	r3, r3, #4096	; 0x1000
    18a0:	81a3      	strh	r3, [r4, #12]
    18a2:	6560      	str	r0, [r4, #84]	; 0x54
    18a4:	bd10      	pop	{r4, pc}

000018a6 <__sclose>:
    18a6:	f9b1 100e 	ldrsh.w	r1, [r1, #14]
    18aa:	f000 bf13 	b.w	26d4 <_close_r>

000018ae <strlen>:
    18ae:	4603      	mov	r3, r0
    18b0:	f813 2b01 	ldrb.w	r2, [r3], #1
    18b4:	2a00      	cmp	r2, #0
    18b6:	d1fb      	bne.n	18b0 <strlen+0x2>
    18b8:	1a18      	subs	r0, r3, r0
    18ba:	3801      	subs	r0, #1
    18bc:	4770      	bx	lr

000018be <__submore>:
    18be:	e92d 41f0 	stmdb	sp!, {r4, r5, r6, r7, r8, lr}
    18c2:	460c      	mov	r4, r1
    18c4:	6b49      	ldr	r1, [r1, #52]	; 0x34
    18c6:	f104 0344 	add.w	r3, r4, #68	; 0x44
    18ca:	4299      	cmp	r1, r3
    18cc:	d11a      	bne.n	1904 <__submore+0x46>
    18ce:	f44f 6180 	mov.w	r1, #1024	; 0x400
    18d2:	f7ff fead 	bl	1630 <_malloc_r>
    18d6:	b918      	cbnz	r0, 18e0 <__submore+0x22>
    18d8:	f04f 30ff 	mov.w	r0, #4294967295	; 0xffffffff
    18dc:	e8bd 81f0 	ldmia.w	sp!, {r4, r5, r6, r7, r8, pc}
    18e0:	f44f 6380 	mov.w	r3, #1024	; 0x400
    18e4:	63a3      	str	r3, [r4, #56]	; 0x38
    18e6:	f894 3046 	ldrb.w	r3, [r4, #70]	; 0x46
    18ea:	6360      	str	r0, [r4, #52]	; 0x34
    18ec:	f880 33ff 	strb.w	r3, [r0, #1023]	; 0x3ff
    18f0:	f894 3045 	ldrb.w	r3, [r4, #69]	; 0x45
    18f4:	f200 30fd 	addw	r0, r0, #1021	; 0x3fd
    18f8:	7043      	strb	r3, [r0, #1]
    18fa:	f894 3044 	ldrb.w	r3, [r4, #68]	; 0x44
    18fe:	7003      	strb	r3, [r0, #0]
    1900:	6020      	str	r0, [r4, #0]
    1902:	e012      	b.n	192a <__submore+0x6c>
    1904:	6ba6      	ldr	r6, [r4, #56]	; 0x38
    1906:	0077      	lsls	r7, r6, #1
    1908:	463a      	mov	r2, r7
    190a:	f000 ff68 	bl	27de <_realloc_r>
    190e:	4605      	mov	r5, r0
    1910:	2800      	cmp	r0, #0
    1912:	d0e1      	beq.n	18d8 <__submore+0x1a>
    1914:	eb00 0806 	add.w	r8, r0, r6
    1918:	4640      	mov	r0, r8
    191a:	4629      	mov	r1, r5
    191c:	4632      	mov	r2, r6
    191e:	f000 ff55 	bl	27cc <memcpy>
    1922:	f8c4 8000 	str.w	r8, [r4]
    1926:	6365      	str	r5, [r4, #52]	; 0x34
    1928:	63a7      	str	r7, [r4, #56]	; 0x38
    192a:	2000      	movs	r0, #0
    192c:	e8bd 81f0 	ldmia.w	sp!, {r4, r5, r6, r7, r8, pc}

00001930 <_ungetc_r>:
    1930:	1c4b      	adds	r3, r1, #1
    1932:	b570      	push	{r4, r5, r6, lr}
    1934:	4605      	mov	r5, r0
    1936:	460e      	mov	r6, r1
    1938:	4614      	mov	r4, r2
    193a:	d102      	bne.n	1942 <_ungetc_r+0x12>
    193c:	f04f 30ff 	mov.w	r0, #4294967295	; 0xffffffff
    1940:	bd70      	pop	{r4, r5, r6, pc}
    1942:	b118      	cbz	r0, 194c <_ungetc_r+0x1c>
    1944:	6983      	ldr	r3, [r0, #24]
    1946:	b90b      	cbnz	r3, 194c <_ungetc_r+0x1c>
    1948:	f7ff fce2 	bl	1310 <__sinit>
    194c:	4b2e      	ldr	r3, [pc, #184]	; (1a08 <_ungetc_r+0xd8>)
    194e:	429c      	cmp	r4, r3
    1950:	d101      	bne.n	1956 <_ungetc_r+0x26>
    1952:	686c      	ldr	r4, [r5, #4]
    1954:	e008      	b.n	1968 <_ungetc_r+0x38>
    1956:	4b2d      	ldr	r3, [pc, #180]	; (1a0c <_ungetc_r+0xdc>)
    1958:	429c      	cmp	r4, r3
    195a:	d101      	bne.n	1960 <_ungetc_r+0x30>
    195c:	68ac      	ldr	r4, [r5, #8]
    195e:	e003      	b.n	1968 <_ungetc_r+0x38>
    1960:	4b2b      	ldr	r3, [pc, #172]	; (1a10 <_ungetc_r+0xe0>)
    1962:	429c      	cmp	r4, r3
    1964:	bf08      	it	eq
    1966:	68ec      	ldreq	r4, [r5, #12]
    1968:	89a3      	ldrh	r3, [r4, #12]
    196a:	f023 0320 	bic.w	r3, r3, #32
    196e:	b29b      	uxth	r3, r3
    1970:	81a3      	strh	r3, [r4, #12]
    1972:	b29b      	uxth	r3, r3
    1974:	0759      	lsls	r1, r3, #29
    1976:	d413      	bmi.n	19a0 <_ungetc_r+0x70>
    1978:	06da      	lsls	r2, r3, #27
    197a:	d5df      	bpl.n	193c <_ungetc_r+0xc>
    197c:	071b      	lsls	r3, r3, #28
    197e:	d50b      	bpl.n	1998 <_ungetc_r+0x68>
    1980:	4628      	mov	r0, r5
    1982:	4621      	mov	r1, r4
    1984:	f7ff fc34 	bl	11f0 <_fflush_r>
    1988:	2800      	cmp	r0, #0
    198a:	d1d7      	bne.n	193c <_ungetc_r+0xc>
    198c:	89a3      	ldrh	r3, [r4, #12]
    198e:	60a0      	str	r0, [r4, #8]
    1990:	f023 0308 	bic.w	r3, r3, #8
    1994:	81a3      	strh	r3, [r4, #12]
    1996:	61a0      	str	r0, [r4, #24]
    1998:	89a3      	ldrh	r3, [r4, #12]
    199a:	f043 0304 	orr.w	r3, r3, #4
    199e:	81a3      	strh	r3, [r4, #12]
    19a0:	6b63      	ldr	r3, [r4, #52]	; 0x34
    19a2:	b2f6      	uxtb	r6, r6
    19a4:	6862      	ldr	r2, [r4, #4]
    19a6:	b18b      	cbz	r3, 19cc <_ungetc_r+0x9c>
    19a8:	6ba3      	ldr	r3, [r4, #56]	; 0x38
    19aa:	429a      	cmp	r2, r3
    19ac:	da07      	bge.n	19be <_ungetc_r+0x8e>
    19ae:	6823      	ldr	r3, [r4, #0]
    19b0:	1e5a      	subs	r2, r3, #1
    19b2:	6022      	str	r2, [r4, #0]
    19b4:	f803 6c01 	strb.w	r6, [r3, #-1]
    19b8:	6863      	ldr	r3, [r4, #4]
    19ba:	3301      	adds	r3, #1
    19bc:	e020      	b.n	1a00 <_ungetc_r+0xd0>
    19be:	4628      	mov	r0, r5
    19c0:	4621      	mov	r1, r4
    19c2:	f7ff ff7c 	bl	18be <__submore>
    19c6:	2800      	cmp	r0, #0
    19c8:	d0f1      	beq.n	19ae <_ungetc_r+0x7e>
    19ca:	e7b7      	b.n	193c <_ungetc_r+0xc>
    19cc:	6921      	ldr	r1, [r4, #16]
    19ce:	6823      	ldr	r3, [r4, #0]
    19d0:	b151      	cbz	r1, 19e8 <_ungetc_r+0xb8>
    19d2:	428b      	cmp	r3, r1
    19d4:	d908      	bls.n	19e8 <_ungetc_r+0xb8>
    19d6:	f813 0c01 	ldrb.w	r0, [r3, #-1]
    19da:	42b0      	cmp	r0, r6
    19dc:	d104      	bne.n	19e8 <_ungetc_r+0xb8>
    19de:	3b01      	subs	r3, #1
    19e0:	3201      	adds	r2, #1
    19e2:	6023      	str	r3, [r4, #0]
    19e4:	6062      	str	r2, [r4, #4]
    19e6:	bd70      	pop	{r4, r5, r6, pc}
    19e8:	63e3      	str	r3, [r4, #60]	; 0x3c
    19ea:	f104 0344 	add.w	r3, r4, #68	; 0x44
    19ee:	6363      	str	r3, [r4, #52]	; 0x34
    19f0:	2303      	movs	r3, #3
    19f2:	63a3      	str	r3, [r4, #56]	; 0x38
    19f4:	4623      	mov	r3, r4
    19f6:	6422      	str	r2, [r4, #64]	; 0x40
    19f8:	f803 6f46 	strb.w	r6, [r3, #70]!
    19fc:	6023      	str	r3, [r4, #0]
    19fe:	2301      	movs	r3, #1
    1a00:	6063      	str	r3, [r4, #4]
    1a02:	4630      	mov	r0, r6
    1a04:	bd70      	pop	{r4, r5, r6, pc}
    1a06:	bf00      	nop
    1a08:	00002ec8 	.word	0x00002ec8
    1a0c:	00002ee8 	.word	0x00002ee8
    1a10:	00002f08 	.word	0x00002f08

00001a14 <__sfputc_r>:
    1a14:	6893      	ldr	r3, [r2, #8]
    1a16:	b510      	push	{r4, lr}
    1a18:	3b01      	subs	r3, #1
    1a1a:	2b00      	cmp	r3, #0
    1a1c:	6093      	str	r3, [r2, #8]
    1a1e:	da05      	bge.n	1a2c <__sfputc_r+0x18>
    1a20:	6994      	ldr	r4, [r2, #24]
    1a22:	42a3      	cmp	r3, r4
    1a24:	db08      	blt.n	1a38 <__sfputc_r+0x24>
    1a26:	b2cb      	uxtb	r3, r1
    1a28:	2b0a      	cmp	r3, #10
    1a2a:	d005      	beq.n	1a38 <__sfputc_r+0x24>
    1a2c:	6813      	ldr	r3, [r2, #0]
    1a2e:	1c58      	adds	r0, r3, #1
    1a30:	6010      	str	r0, [r2, #0]
    1a32:	7019      	strb	r1, [r3, #0]
    1a34:	b2c8      	uxtb	r0, r1
    1a36:	bd10      	pop	{r4, pc}
    1a38:	e8bd 4010 	ldmia.w	sp!, {r4, lr}
    1a3c:	f000 bd76 	b.w	252c <__swbuf_r>

00001a40 <__sfputs_r>:
    1a40:	b5f8      	push	{r3, r4, r5, r6, r7, lr}
    1a42:	4605      	mov	r5, r0
    1a44:	460e      	mov	r6, r1
    1a46:	4614      	mov	r4, r2
    1a48:	18d7      	adds	r7, r2, r3
    1a4a:	42bc      	cmp	r4, r7
    1a4c:	d008      	beq.n	1a60 <__sfputs_r+0x20>
    1a4e:	4628      	mov	r0, r5
    1a50:	f814 1b01 	ldrb.w	r1, [r4], #1
    1a54:	4632      	mov	r2, r6
    1a56:	f7ff ffdd 	bl	1a14 <__sfputc_r>
    1a5a:	1c43      	adds	r3, r0, #1
    1a5c:	d1f5      	bne.n	1a4a <__sfputs_r+0xa>
    1a5e:	e000      	b.n	1a62 <__sfputs_r+0x22>
    1a60:	2000      	movs	r0, #0
    1a62:	bdf8      	pop	{r3, r4, r5, r6, r7, pc}

00001a64 <_vfiprintf_r>:
    1a64:	e92d 43f0 	stmdb	sp!, {r4, r5, r6, r7, r8, r9, lr}
    1a68:	b09d      	sub	sp, #116	; 0x74
    1a6a:	460d      	mov	r5, r1
    1a6c:	4617      	mov	r7, r2
    1a6e:	9303      	str	r3, [sp, #12]
    1a70:	4606      	mov	r6, r0
    1a72:	b118      	cbz	r0, 1a7c <_vfiprintf_r+0x18>
    1a74:	6983      	ldr	r3, [r0, #24]
    1a76:	b90b      	cbnz	r3, 1a7c <_vfiprintf_r+0x18>
    1a78:	f7ff fc4a 	bl	1310 <__sinit>
    1a7c:	4b73      	ldr	r3, [pc, #460]	; (1c4c <_vfiprintf_r+0x1e8>)
    1a7e:	429d      	cmp	r5, r3
    1a80:	d101      	bne.n	1a86 <_vfiprintf_r+0x22>
    1a82:	6875      	ldr	r5, [r6, #4]
    1a84:	e008      	b.n	1a98 <_vfiprintf_r+0x34>
    1a86:	4b72      	ldr	r3, [pc, #456]	; (1c50 <_vfiprintf_r+0x1ec>)
    1a88:	429d      	cmp	r5, r3
    1a8a:	d101      	bne.n	1a90 <_vfiprintf_r+0x2c>
    1a8c:	68b5      	ldr	r5, [r6, #8]
    1a8e:	e003      	b.n	1a98 <_vfiprintf_r+0x34>
    1a90:	4b70      	ldr	r3, [pc, #448]	; (1c54 <_vfiprintf_r+0x1f0>)
    1a92:	429d      	cmp	r5, r3
    1a94:	bf08      	it	eq
    1a96:	68f5      	ldreq	r5, [r6, #12]
    1a98:	89ab      	ldrh	r3, [r5, #12]
    1a9a:	0718      	lsls	r0, r3, #28
    1a9c:	d50a      	bpl.n	1ab4 <_vfiprintf_r+0x50>
    1a9e:	692b      	ldr	r3, [r5, #16]
    1aa0:	b143      	cbz	r3, 1ab4 <_vfiprintf_r+0x50>
    1aa2:	2300      	movs	r3, #0
    1aa4:	9309      	str	r3, [sp, #36]	; 0x24
    1aa6:	2320      	movs	r3, #32
    1aa8:	f88d 3029 	strb.w	r3, [sp, #41]	; 0x29
    1aac:	2330      	movs	r3, #48	; 0x30
    1aae:	f88d 302a 	strb.w	r3, [sp, #42]	; 0x2a
    1ab2:	e038      	b.n	1b26 <_vfiprintf_r+0xc2>
    1ab4:	4630      	mov	r0, r6
    1ab6:	4629      	mov	r1, r5
    1ab8:	f000 fd9e 	bl	25f8 <__swsetup_r>
    1abc:	2800      	cmp	r0, #0
    1abe:	d0f0      	beq.n	1aa2 <_vfiprintf_r+0x3e>
    1ac0:	f04f 30ff 	mov.w	r0, #4294967295	; 0xffffffff
    1ac4:	e0be      	b.n	1c44 <_vfiprintf_r+0x1e0>
    1ac6:	9a03      	ldr	r2, [sp, #12]
    1ac8:	1d11      	adds	r1, r2, #4
    1aca:	6812      	ldr	r2, [r2, #0]
    1acc:	9103      	str	r1, [sp, #12]
    1ace:	2a00      	cmp	r2, #0
    1ad0:	db70      	blt.n	1bb4 <_vfiprintf_r+0x150>
    1ad2:	9207      	str	r2, [sp, #28]
    1ad4:	3401      	adds	r4, #1
    1ad6:	7823      	ldrb	r3, [r4, #0]
    1ad8:	2b2e      	cmp	r3, #46	; 0x2e
    1ada:	d07d      	beq.n	1bd8 <_vfiprintf_r+0x174>
    1adc:	4f5e      	ldr	r7, [pc, #376]	; (1c58 <_vfiprintf_r+0x1f4>)
    1ade:	7821      	ldrb	r1, [r4, #0]
    1ae0:	4638      	mov	r0, r7
    1ae2:	2203      	movs	r2, #3
    1ae4:	f000 fe64 	bl	27b0 <memchr>
    1ae8:	b130      	cbz	r0, 1af8 <_vfiprintf_r+0x94>
    1aea:	1bc7      	subs	r7, r0, r7
    1aec:	2040      	movs	r0, #64	; 0x40
    1aee:	40b8      	lsls	r0, r7
    1af0:	9b04      	ldr	r3, [sp, #16]
    1af2:	3401      	adds	r4, #1
    1af4:	4303      	orrs	r3, r0
    1af6:	9304      	str	r3, [sp, #16]
    1af8:	7821      	ldrb	r1, [r4, #0]
    1afa:	4858      	ldr	r0, [pc, #352]	; (1c5c <_vfiprintf_r+0x1f8>)
    1afc:	2206      	movs	r2, #6
    1afe:	1c67      	adds	r7, r4, #1
    1b00:	f88d 1028 	strb.w	r1, [sp, #40]	; 0x28
    1b04:	f000 fe54 	bl	27b0 <memchr>
    1b08:	2800      	cmp	r0, #0
    1b0a:	f000 8089 	beq.w	1c20 <_vfiprintf_r+0x1bc>
    1b0e:	4b54      	ldr	r3, [pc, #336]	; (1c60 <_vfiprintf_r+0x1fc>)
    1b10:	2b00      	cmp	r3, #0
    1b12:	d17c      	bne.n	1c0e <_vfiprintf_r+0x1aa>
    1b14:	9b03      	ldr	r3, [sp, #12]
    1b16:	3307      	adds	r3, #7
    1b18:	f023 0307 	bic.w	r3, r3, #7
    1b1c:	3308      	adds	r3, #8
    1b1e:	9303      	str	r3, [sp, #12]
    1b20:	9b09      	ldr	r3, [sp, #36]	; 0x24
    1b22:	4443      	add	r3, r8
    1b24:	9309      	str	r3, [sp, #36]	; 0x24
    1b26:	463b      	mov	r3, r7
    1b28:	461c      	mov	r4, r3
    1b2a:	f813 2b01 	ldrb.w	r2, [r3], #1
    1b2e:	b91a      	cbnz	r2, 1b38 <_vfiprintf_r+0xd4>
    1b30:	ebb4 0907 	subs.w	r9, r4, r7
    1b34:	d00e      	beq.n	1b54 <_vfiprintf_r+0xf0>
    1b36:	e002      	b.n	1b3e <_vfiprintf_r+0xda>
    1b38:	2a25      	cmp	r2, #37	; 0x25
    1b3a:	d1f5      	bne.n	1b28 <_vfiprintf_r+0xc4>
    1b3c:	e7f8      	b.n	1b30 <_vfiprintf_r+0xcc>
    1b3e:	4630      	mov	r0, r6
    1b40:	4629      	mov	r1, r5
    1b42:	463a      	mov	r2, r7
    1b44:	464b      	mov	r3, r9
    1b46:	f7ff ff7b 	bl	1a40 <__sfputs_r>
    1b4a:	3001      	adds	r0, #1
    1b4c:	d075      	beq.n	1c3a <_vfiprintf_r+0x1d6>
    1b4e:	9b09      	ldr	r3, [sp, #36]	; 0x24
    1b50:	444b      	add	r3, r9
    1b52:	9309      	str	r3, [sp, #36]	; 0x24
    1b54:	7823      	ldrb	r3, [r4, #0]
    1b56:	2b00      	cmp	r3, #0
    1b58:	d06f      	beq.n	1c3a <_vfiprintf_r+0x1d6>
    1b5a:	2300      	movs	r3, #0
    1b5c:	f04f 32ff 	mov.w	r2, #4294967295	; 0xffffffff
    1b60:	9304      	str	r3, [sp, #16]
    1b62:	9307      	str	r3, [sp, #28]
    1b64:	9205      	str	r2, [sp, #20]
    1b66:	9306      	str	r3, [sp, #24]
    1b68:	f88d 3053 	strb.w	r3, [sp, #83]	; 0x53
    1b6c:	931a      	str	r3, [sp, #104]	; 0x68
    1b6e:	f104 0901 	add.w	r9, r4, #1
    1b72:	4f3c      	ldr	r7, [pc, #240]	; (1c64 <_vfiprintf_r+0x200>)
    1b74:	464c      	mov	r4, r9
    1b76:	4638      	mov	r0, r7
    1b78:	7821      	ldrb	r1, [r4, #0]
    1b7a:	2205      	movs	r2, #5
    1b7c:	f000 fe18 	bl	27b0 <memchr>
    1b80:	f109 0901 	add.w	r9, r9, #1
    1b84:	9b04      	ldr	r3, [sp, #16]
    1b86:	b128      	cbz	r0, 1b94 <_vfiprintf_r+0x130>
    1b88:	1bc7      	subs	r7, r0, r7
    1b8a:	2001      	movs	r0, #1
    1b8c:	40b8      	lsls	r0, r7
    1b8e:	4303      	orrs	r3, r0
    1b90:	9304      	str	r3, [sp, #16]
    1b92:	e7ee      	b.n	1b72 <_vfiprintf_r+0x10e>
    1b94:	06d9      	lsls	r1, r3, #27
    1b96:	bf44      	itt	mi
    1b98:	2220      	movmi	r2, #32
    1b9a:	f88d 2053 	strbmi.w	r2, [sp, #83]	; 0x53
    1b9e:	071a      	lsls	r2, r3, #28
    1ba0:	bf44      	itt	mi
    1ba2:	222b      	movmi	r2, #43	; 0x2b
    1ba4:	f88d 2053 	strbmi.w	r2, [sp, #83]	; 0x53
    1ba8:	7822      	ldrb	r2, [r4, #0]
    1baa:	2a2a      	cmp	r2, #42	; 0x2a
    1bac:	d08b      	beq.n	1ac6 <_vfiprintf_r+0x62>
    1bae:	9b07      	ldr	r3, [sp, #28]
    1bb0:	4621      	mov	r1, r4
    1bb2:	e005      	b.n	1bc0 <_vfiprintf_r+0x15c>
    1bb4:	4252      	negs	r2, r2
    1bb6:	f043 0302 	orr.w	r3, r3, #2
    1bba:	9207      	str	r2, [sp, #28]
    1bbc:	9304      	str	r3, [sp, #16]
    1bbe:	e789      	b.n	1ad4 <_vfiprintf_r+0x70>
    1bc0:	460c      	mov	r4, r1
    1bc2:	7822      	ldrb	r2, [r4, #0]
    1bc4:	3101      	adds	r1, #1
    1bc6:	3a30      	subs	r2, #48	; 0x30
    1bc8:	2a09      	cmp	r2, #9
    1bca:	d803      	bhi.n	1bd4 <_vfiprintf_r+0x170>
    1bcc:	200a      	movs	r0, #10
    1bce:	fb00 2303 	mla	r3, r0, r3, r2
    1bd2:	e7f5      	b.n	1bc0 <_vfiprintf_r+0x15c>
    1bd4:	9307      	str	r3, [sp, #28]
    1bd6:	e77e      	b.n	1ad6 <_vfiprintf_r+0x72>
    1bd8:	7863      	ldrb	r3, [r4, #1]
    1bda:	2b2a      	cmp	r3, #42	; 0x2a
    1bdc:	d109      	bne.n	1bf2 <_vfiprintf_r+0x18e>
    1bde:	9b03      	ldr	r3, [sp, #12]
    1be0:	3402      	adds	r4, #2
    1be2:	1d1a      	adds	r2, r3, #4
    1be4:	681b      	ldr	r3, [r3, #0]
    1be6:	9203      	str	r2, [sp, #12]
    1be8:	2b00      	cmp	r3, #0
    1bea:	bfb8      	it	lt
    1bec:	f04f 33ff 	movlt.w	r3, #4294967295	; 0xffffffff
    1bf0:	e00b      	b.n	1c0a <_vfiprintf_r+0x1a6>
    1bf2:	1c61      	adds	r1, r4, #1
    1bf4:	2300      	movs	r3, #0
    1bf6:	460c      	mov	r4, r1
    1bf8:	7822      	ldrb	r2, [r4, #0]
    1bfa:	3101      	adds	r1, #1
    1bfc:	3a30      	subs	r2, #48	; 0x30
    1bfe:	2a09      	cmp	r2, #9
    1c00:	d803      	bhi.n	1c0a <_vfiprintf_r+0x1a6>
    1c02:	200a      	movs	r0, #10
    1c04:	fb00 2303 	mla	r3, r0, r3, r2
    1c08:	e7f5      	b.n	1bf6 <_vfiprintf_r+0x192>
    1c0a:	9305      	str	r3, [sp, #20]
    1c0c:	e766      	b.n	1adc <_vfiprintf_r+0x78>
    1c0e:	ab03      	add	r3, sp, #12
    1c10:	9300      	str	r3, [sp, #0]
    1c12:	4630      	mov	r0, r6
    1c14:	a904      	add	r1, sp, #16
    1c16:	462a      	mov	r2, r5
    1c18:	4b13      	ldr	r3, [pc, #76]	; (1c68 <_vfiprintf_r+0x204>)
    1c1a:	f3af 8000 	nop.w
    1c1e:	e007      	b.n	1c30 <_vfiprintf_r+0x1cc>
    1c20:	ab03      	add	r3, sp, #12
    1c22:	9300      	str	r3, [sp, #0]
    1c24:	4630      	mov	r0, r6
    1c26:	a904      	add	r1, sp, #16
    1c28:	462a      	mov	r2, r5
    1c2a:	4b0f      	ldr	r3, [pc, #60]	; (1c68 <_vfiprintf_r+0x204>)
    1c2c:	f000 f89e 	bl	1d6c <_printf_i>
    1c30:	f1b0 3fff 	cmp.w	r0, #4294967295	; 0xffffffff
    1c34:	4680      	mov	r8, r0
    1c36:	f47f af73 	bne.w	1b20 <_vfiprintf_r+0xbc>
    1c3a:	89ab      	ldrh	r3, [r5, #12]
    1c3c:	065b      	lsls	r3, r3, #25
    1c3e:	f53f af3f 	bmi.w	1ac0 <_vfiprintf_r+0x5c>
    1c42:	9809      	ldr	r0, [sp, #36]	; 0x24
    1c44:	b01d      	add	sp, #116	; 0x74
    1c46:	e8bd 83f0 	ldmia.w	sp!, {r4, r5, r6, r7, r8, r9, pc}
    1c4a:	bf00      	nop
    1c4c:	00002ec8 	.word	0x00002ec8
    1c50:	00002ee8 	.word	0x00002ee8
    1c54:	00002f08 	.word	0x00002f08
    1c58:	00002f36 	.word	0x00002f36
    1c5c:	00002f3a 	.word	0x00002f3a
    1c60:	00000000 	.word	0x00000000
    1c64:	00002f30 	.word	0x00002f30
    1c68:	00001a41 	.word	0x00001a41

00001c6c <vfiprintf>:
    1c6c:	b530      	push	{r4, r5, lr}
    1c6e:	4613      	mov	r3, r2
    1c70:	4a04      	ldr	r2, [pc, #16]	; (1c84 <vfiprintf+0x18>)
    1c72:	4605      	mov	r5, r0
    1c74:	460c      	mov	r4, r1
    1c76:	6810      	ldr	r0, [r2, #0]
    1c78:	4629      	mov	r1, r5
    1c7a:	4622      	mov	r2, r4
    1c7c:	e8bd 4030 	ldmia.w	sp!, {r4, r5, lr}
    1c80:	f7ff bef0 	b.w	1a64 <_vfiprintf_r>
    1c84:	10000130 	.word	0x10000130

00001c88 <_printf_common>:
    1c88:	e92d 43f8 	stmdb	sp!, {r3, r4, r5, r6, r7, r8, r9, lr}
    1c8c:	4615      	mov	r5, r2
    1c8e:	461f      	mov	r7, r3
    1c90:	688a      	ldr	r2, [r1, #8]
    1c92:	690b      	ldr	r3, [r1, #16]
    1c94:	4606      	mov	r6, r0
    1c96:	429a      	cmp	r2, r3
    1c98:	bfa8      	it	ge
    1c9a:	4613      	movge	r3, r2
    1c9c:	602b      	str	r3, [r5, #0]
    1c9e:	f891 2043 	ldrb.w	r2, [r1, #67]	; 0x43
    1ca2:	460c      	mov	r4, r1
    1ca4:	f8dd 8020 	ldr.w	r8, [sp, #32]
    1ca8:	b10a      	cbz	r2, 1cae <_printf_common+0x26>
    1caa:	3301      	adds	r3, #1
    1cac:	602b      	str	r3, [r5, #0]
    1cae:	6823      	ldr	r3, [r4, #0]
    1cb0:	0699      	lsls	r1, r3, #26
    1cb2:	d502      	bpl.n	1cba <_printf_common+0x32>
    1cb4:	682b      	ldr	r3, [r5, #0]
    1cb6:	3302      	adds	r3, #2
    1cb8:	602b      	str	r3, [r5, #0]
    1cba:	6823      	ldr	r3, [r4, #0]
    1cbc:	f013 0906 	ands.w	r9, r3, #6
    1cc0:	d01d      	beq.n	1cfe <_printf_common+0x76>
    1cc2:	f894 3043 	ldrb.w	r3, [r4, #67]	; 0x43
    1cc6:	6822      	ldr	r2, [r4, #0]
    1cc8:	3300      	adds	r3, #0
    1cca:	bf18      	it	ne
    1ccc:	2301      	movne	r3, #1
    1cce:	0692      	lsls	r2, r2, #26
    1cd0:	d51f      	bpl.n	1d12 <_printf_common+0x8a>
    1cd2:	18e1      	adds	r1, r4, r3
    1cd4:	2030      	movs	r0, #48	; 0x30
    1cd6:	f881 0043 	strb.w	r0, [r1, #67]	; 0x43
    1cda:	1c5a      	adds	r2, r3, #1
    1cdc:	f894 1045 	ldrb.w	r1, [r4, #69]	; 0x45
    1ce0:	4422      	add	r2, r4
    1ce2:	3302      	adds	r3, #2
    1ce4:	f882 1043 	strb.w	r1, [r2, #67]	; 0x43
    1ce8:	e013      	b.n	1d12 <_printf_common+0x8a>
    1cea:	4630      	mov	r0, r6
    1cec:	4639      	mov	r1, r7
    1cee:	f104 0219 	add.w	r2, r4, #25
    1cf2:	2301      	movs	r3, #1
    1cf4:	47c0      	blx	r8
    1cf6:	3001      	adds	r0, #1
    1cf8:	d007      	beq.n	1d0a <_printf_common+0x82>
    1cfa:	f109 0901 	add.w	r9, r9, #1
    1cfe:	68e2      	ldr	r2, [r4, #12]
    1d00:	682b      	ldr	r3, [r5, #0]
    1d02:	1ad3      	subs	r3, r2, r3
    1d04:	4599      	cmp	r9, r3
    1d06:	dbf0      	blt.n	1cea <_printf_common+0x62>
    1d08:	e7db      	b.n	1cc2 <_printf_common+0x3a>
    1d0a:	f04f 30ff 	mov.w	r0, #4294967295	; 0xffffffff
    1d0e:	e8bd 83f8 	ldmia.w	sp!, {r3, r4, r5, r6, r7, r8, r9, pc}
    1d12:	4630      	mov	r0, r6
    1d14:	4639      	mov	r1, r7
    1d16:	f104 0243 	add.w	r2, r4, #67	; 0x43
    1d1a:	47c0      	blx	r8
    1d1c:	3001      	adds	r0, #1
    1d1e:	d0f4      	beq.n	1d0a <_printf_common+0x82>
    1d20:	6823      	ldr	r3, [r4, #0]
    1d22:	682a      	ldr	r2, [r5, #0]
    1d24:	f003 0306 	and.w	r3, r3, #6
    1d28:	68e1      	ldr	r1, [r4, #12]
    1d2a:	2b04      	cmp	r3, #4
    1d2c:	bf08      	it	eq
    1d2e:	ebc2 0501 	rsbeq	r5, r2, r1
    1d32:	6923      	ldr	r3, [r4, #16]
    1d34:	68a2      	ldr	r2, [r4, #8]
    1d36:	bf0c      	ite	eq
    1d38:	ea25 75e5 	biceq.w	r5, r5, r5, asr #31
    1d3c:	2500      	movne	r5, #0
    1d3e:	429a      	cmp	r2, r3
    1d40:	bfc4      	itt	gt
    1d42:	ebc3 0302 	rsbgt	r3, r3, r2
    1d46:	18ed      	addgt	r5, r5, r3
    1d48:	f04f 0900 	mov.w	r9, #0
    1d4c:	45a9      	cmp	r9, r5
    1d4e:	da0a      	bge.n	1d66 <_printf_common+0xde>
    1d50:	4630      	mov	r0, r6
    1d52:	4639      	mov	r1, r7
    1d54:	f104 021a 	add.w	r2, r4, #26
    1d58:	2301      	movs	r3, #1
    1d5a:	47c0      	blx	r8
    1d5c:	3001      	adds	r0, #1
    1d5e:	d0d4      	beq.n	1d0a <_printf_common+0x82>
    1d60:	f109 0901 	add.w	r9, r9, #1
    1d64:	e7f2      	b.n	1d4c <_printf_common+0xc4>
    1d66:	2000      	movs	r0, #0
    1d68:	e8bd 83f8 	ldmia.w	sp!, {r3, r4, r5, r6, r7, r8, r9, pc}

00001d6c <_printf_i>:
    1d6c:	e92d 47ff 	stmdb	sp!, {r0, r1, r2, r3, r4, r5, r6, r7, r8, r9, r10, lr}
    1d70:	7e0e      	ldrb	r6, [r1, #24]
    1d72:	4680      	mov	r8, r0
    1d74:	2e6e      	cmp	r6, #110	; 0x6e
    1d76:	460c      	mov	r4, r1
    1d78:	4691      	mov	r9, r2
    1d7a:	469a      	mov	r10, r3
    1d7c:	9d0c      	ldr	r5, [sp, #48]	; 0x30
    1d7e:	f101 0043 	add.w	r0, r1, #67	; 0x43
    1d82:	f000 80a5 	beq.w	1ed0 <_printf_i+0x164>
    1d86:	d811      	bhi.n	1dac <_printf_i+0x40>
    1d88:	2e63      	cmp	r6, #99	; 0x63
    1d8a:	d022      	beq.n	1dd2 <_printf_i+0x66>
    1d8c:	d809      	bhi.n	1da2 <_printf_i+0x36>
    1d8e:	2e00      	cmp	r6, #0
    1d90:	f000 80af 	beq.w	1ef2 <_printf_i+0x186>
    1d94:	2e58      	cmp	r6, #88	; 0x58
    1d96:	f040 80bf 	bne.w	1f18 <_printf_i+0x1ac>
    1d9a:	f881 6045 	strb.w	r6, [r1, #69]	; 0x45
    1d9e:	4a7b      	ldr	r2, [pc, #492]	; (1f8c <_printf_i+0x220>)
    1da0:	e04f      	b.n	1e42 <_printf_i+0xd6>
    1da2:	2e64      	cmp	r6, #100	; 0x64
    1da4:	d01e      	beq.n	1de4 <_printf_i+0x78>
    1da6:	2e69      	cmp	r6, #105	; 0x69
    1da8:	d01c      	beq.n	1de4 <_printf_i+0x78>
    1daa:	e0b5      	b.n	1f18 <_printf_i+0x1ac>
    1dac:	2e73      	cmp	r6, #115	; 0x73
    1dae:	f000 80a4 	beq.w	1efa <_printf_i+0x18e>
    1db2:	d809      	bhi.n	1dc8 <_printf_i+0x5c>
    1db4:	2e6f      	cmp	r6, #111	; 0x6f
    1db6:	d02b      	beq.n	1e10 <_printf_i+0xa4>
    1db8:	2e70      	cmp	r6, #112	; 0x70
    1dba:	f040 80ad 	bne.w	1f18 <_printf_i+0x1ac>
    1dbe:	680b      	ldr	r3, [r1, #0]
    1dc0:	f043 0320 	orr.w	r3, r3, #32
    1dc4:	600b      	str	r3, [r1, #0]
    1dc6:	e038      	b.n	1e3a <_printf_i+0xce>
    1dc8:	2e75      	cmp	r6, #117	; 0x75
    1dca:	d021      	beq.n	1e10 <_printf_i+0xa4>
    1dcc:	2e78      	cmp	r6, #120	; 0x78
    1dce:	d034      	beq.n	1e3a <_printf_i+0xce>
    1dd0:	e0a2      	b.n	1f18 <_printf_i+0x1ac>
    1dd2:	682b      	ldr	r3, [r5, #0]
    1dd4:	f101 0742 	add.w	r7, r1, #66	; 0x42
    1dd8:	1d1a      	adds	r2, r3, #4
    1dda:	681b      	ldr	r3, [r3, #0]
    1ddc:	602a      	str	r2, [r5, #0]
    1dde:	f881 3042 	strb.w	r3, [r1, #66]	; 0x42
    1de2:	e09d      	b.n	1f20 <_printf_i+0x1b4>
    1de4:	6822      	ldr	r2, [r4, #0]
    1de6:	682b      	ldr	r3, [r5, #0]
    1de8:	f012 0f80 	tst.w	r2, #128	; 0x80
    1dec:	d003      	beq.n	1df6 <_printf_i+0x8a>
    1dee:	1d1a      	adds	r2, r3, #4
    1df0:	602a      	str	r2, [r5, #0]
    1df2:	681d      	ldr	r5, [r3, #0]
    1df4:	e005      	b.n	1e02 <_printf_i+0x96>
    1df6:	0651      	lsls	r1, r2, #25
    1df8:	d5f9      	bpl.n	1dee <_printf_i+0x82>
    1dfa:	1d1a      	adds	r2, r3, #4
    1dfc:	602a      	str	r2, [r5, #0]
    1dfe:	f9b3 5000 	ldrsh.w	r5, [r3]
    1e02:	2d00      	cmp	r5, #0
    1e04:	da39      	bge.n	1e7a <_printf_i+0x10e>
    1e06:	232d      	movs	r3, #45	; 0x2d
    1e08:	426d      	negs	r5, r5
    1e0a:	f884 3043 	strb.w	r3, [r4, #67]	; 0x43
    1e0e:	e034      	b.n	1e7a <_printf_i+0x10e>
    1e10:	6822      	ldr	r2, [r4, #0]
    1e12:	682b      	ldr	r3, [r5, #0]
    1e14:	f012 0f80 	tst.w	r2, #128	; 0x80
    1e18:	d003      	beq.n	1e22 <_printf_i+0xb6>
    1e1a:	1d1a      	adds	r2, r3, #4
    1e1c:	602a      	str	r2, [r5, #0]
    1e1e:	681d      	ldr	r5, [r3, #0]
    1e20:	e004      	b.n	1e2c <_printf_i+0xc0>
    1e22:	0652      	lsls	r2, r2, #25
    1e24:	d5f9      	bpl.n	1e1a <_printf_i+0xae>
    1e26:	1d1a      	adds	r2, r3, #4
    1e28:	602a      	str	r2, [r5, #0]
    1e2a:	881d      	ldrh	r5, [r3, #0]
    1e2c:	7e23      	ldrb	r3, [r4, #24]
    1e2e:	4a57      	ldr	r2, [pc, #348]	; (1f8c <_printf_i+0x220>)
    1e30:	2b6f      	cmp	r3, #111	; 0x6f
    1e32:	bf14      	ite	ne
    1e34:	230a      	movne	r3, #10
    1e36:	2308      	moveq	r3, #8
    1e38:	e01b      	b.n	1e72 <_printf_i+0x106>
    1e3a:	2378      	movs	r3, #120	; 0x78
    1e3c:	4a54      	ldr	r2, [pc, #336]	; (1f90 <_printf_i+0x224>)
    1e3e:	f884 3045 	strb.w	r3, [r4, #69]	; 0x45
    1e42:	6823      	ldr	r3, [r4, #0]
    1e44:	6829      	ldr	r1, [r5, #0]
    1e46:	f013 0f80 	tst.w	r3, #128	; 0x80
    1e4a:	f101 0604 	add.w	r6, r1, #4
    1e4e:	602e      	str	r6, [r5, #0]
    1e50:	d001      	beq.n	1e56 <_printf_i+0xea>
    1e52:	680d      	ldr	r5, [r1, #0]
    1e54:	e002      	b.n	1e5c <_printf_i+0xf0>
    1e56:	065f      	lsls	r7, r3, #25
    1e58:	d5fb      	bpl.n	1e52 <_printf_i+0xe6>
    1e5a:	880d      	ldrh	r5, [r1, #0]
    1e5c:	07de      	lsls	r6, r3, #31
    1e5e:	bf44      	itt	mi
    1e60:	f043 0320 	orrmi.w	r3, r3, #32
    1e64:	6023      	strmi	r3, [r4, #0]
    1e66:	b91d      	cbnz	r5, 1e70 <_printf_i+0x104>
    1e68:	6823      	ldr	r3, [r4, #0]
    1e6a:	f023 0320 	bic.w	r3, r3, #32
    1e6e:	6023      	str	r3, [r4, #0]
    1e70:	2310      	movs	r3, #16
    1e72:	2100      	movs	r1, #0
    1e74:	f884 1043 	strb.w	r1, [r4, #67]	; 0x43
    1e78:	e001      	b.n	1e7e <_printf_i+0x112>
    1e7a:	4a44      	ldr	r2, [pc, #272]	; (1f8c <_printf_i+0x220>)
    1e7c:	230a      	movs	r3, #10
    1e7e:	6866      	ldr	r6, [r4, #4]
    1e80:	2e00      	cmp	r6, #0
    1e82:	60a6      	str	r6, [r4, #8]
    1e84:	db03      	blt.n	1e8e <_printf_i+0x122>
    1e86:	6821      	ldr	r1, [r4, #0]
    1e88:	f021 0104 	bic.w	r1, r1, #4
    1e8c:	6021      	str	r1, [r4, #0]
    1e8e:	b905      	cbnz	r5, 1e92 <_printf_i+0x126>
    1e90:	b16e      	cbz	r6, 1eae <_printf_i+0x142>
    1e92:	f104 0142 	add.w	r1, r4, #66	; 0x42
    1e96:	fbb5 f6f3 	udiv	r6, r5, r3
    1e9a:	fb03 5516 	mls	r5, r3, r6, r5
    1e9e:	5d55      	ldrb	r5, [r2, r5]
    1ea0:	460f      	mov	r7, r1
    1ea2:	f801 5901 	strb.w	r5, [r1], #-1
    1ea6:	4635      	mov	r5, r6
    1ea8:	2e00      	cmp	r6, #0
    1eaa:	d1f4      	bne.n	1e96 <_printf_i+0x12a>
    1eac:	e000      	b.n	1eb0 <_printf_i+0x144>
    1eae:	4607      	mov	r7, r0
    1eb0:	2b08      	cmp	r3, #8
    1eb2:	d10a      	bne.n	1eca <_printf_i+0x15e>
    1eb4:	6823      	ldr	r3, [r4, #0]
    1eb6:	07dd      	lsls	r5, r3, #31
    1eb8:	d507      	bpl.n	1eca <_printf_i+0x15e>
    1eba:	6862      	ldr	r2, [r4, #4]
    1ebc:	6923      	ldr	r3, [r4, #16]
    1ebe:	429a      	cmp	r2, r3
    1ec0:	dc03      	bgt.n	1eca <_printf_i+0x15e>
    1ec2:	2330      	movs	r3, #48	; 0x30
    1ec4:	f807 3c01 	strb.w	r3, [r7, #-1]
    1ec8:	3f01      	subs	r7, #1
    1eca:	1bc0      	subs	r0, r0, r7
    1ecc:	6120      	str	r0, [r4, #16]
    1ece:	e02c      	b.n	1f2a <_printf_i+0x1be>
    1ed0:	6809      	ldr	r1, [r1, #0]
    1ed2:	682b      	ldr	r3, [r5, #0]
    1ed4:	f011 0f80 	tst.w	r1, #128	; 0x80
    1ed8:	6962      	ldr	r2, [r4, #20]
    1eda:	d004      	beq.n	1ee6 <_printf_i+0x17a>
    1edc:	1d19      	adds	r1, r3, #4
    1ede:	6029      	str	r1, [r5, #0]
    1ee0:	681b      	ldr	r3, [r3, #0]
    1ee2:	601a      	str	r2, [r3, #0]
    1ee4:	e005      	b.n	1ef2 <_printf_i+0x186>
    1ee6:	0649      	lsls	r1, r1, #25
    1ee8:	d5f8      	bpl.n	1edc <_printf_i+0x170>
    1eea:	1d19      	adds	r1, r3, #4
    1eec:	6029      	str	r1, [r5, #0]
    1eee:	681b      	ldr	r3, [r3, #0]
    1ef0:	801a      	strh	r2, [r3, #0]
    1ef2:	2300      	movs	r3, #0
    1ef4:	6123      	str	r3, [r4, #16]
    1ef6:	4607      	mov	r7, r0
    1ef8:	e017      	b.n	1f2a <_printf_i+0x1be>
    1efa:	682b      	ldr	r3, [r5, #0]
    1efc:	1d1a      	adds	r2, r3, #4
    1efe:	602a      	str	r2, [r5, #0]
    1f00:	681f      	ldr	r7, [r3, #0]
    1f02:	4638      	mov	r0, r7
    1f04:	f7ff fcd3 	bl	18ae <strlen>
    1f08:	6863      	ldr	r3, [r4, #4]
    1f0a:	6120      	str	r0, [r4, #16]
    1f0c:	4298      	cmp	r0, r3
    1f0e:	bf88      	it	hi
    1f10:	6123      	strhi	r3, [r4, #16]
    1f12:	6923      	ldr	r3, [r4, #16]
    1f14:	6063      	str	r3, [r4, #4]
    1f16:	e005      	b.n	1f24 <_printf_i+0x1b8>
    1f18:	f104 0742 	add.w	r7, r4, #66	; 0x42
    1f1c:	f884 6042 	strb.w	r6, [r4, #66]	; 0x42
    1f20:	2301      	movs	r3, #1
    1f22:	6123      	str	r3, [r4, #16]
    1f24:	2300      	movs	r3, #0
    1f26:	f884 3043 	strb.w	r3, [r4, #67]	; 0x43
    1f2a:	f8cd a000 	str.w	r10, [sp]
    1f2e:	4640      	mov	r0, r8
    1f30:	4621      	mov	r1, r4
    1f32:	aa03      	add	r2, sp, #12
    1f34:	464b      	mov	r3, r9
    1f36:	f7ff fea7 	bl	1c88 <_printf_common>
    1f3a:	3001      	adds	r0, #1
    1f3c:	d102      	bne.n	1f44 <_printf_i+0x1d8>
    1f3e:	f04f 30ff 	mov.w	r0, #4294967295	; 0xffffffff
    1f42:	e01f      	b.n	1f84 <_printf_i+0x218>
    1f44:	4640      	mov	r0, r8
    1f46:	4649      	mov	r1, r9
    1f48:	463a      	mov	r2, r7
    1f4a:	6923      	ldr	r3, [r4, #16]
    1f4c:	47d0      	blx	r10
    1f4e:	3001      	adds	r0, #1
    1f50:	d0f5      	beq.n	1f3e <_printf_i+0x1d2>
    1f52:	6823      	ldr	r3, [r4, #0]
    1f54:	079b      	lsls	r3, r3, #30
    1f56:	d405      	bmi.n	1f64 <_printf_i+0x1f8>
    1f58:	68e0      	ldr	r0, [r4, #12]
    1f5a:	9b03      	ldr	r3, [sp, #12]
    1f5c:	4298      	cmp	r0, r3
    1f5e:	bfb8      	it	lt
    1f60:	4618      	movlt	r0, r3
    1f62:	e00f      	b.n	1f84 <_printf_i+0x218>
    1f64:	2500      	movs	r5, #0
    1f66:	68e2      	ldr	r2, [r4, #12]
    1f68:	9b03      	ldr	r3, [sp, #12]
    1f6a:	1ad3      	subs	r3, r2, r3
    1f6c:	429d      	cmp	r5, r3
    1f6e:	daf3      	bge.n	1f58 <_printf_i+0x1ec>
    1f70:	4640      	mov	r0, r8
    1f72:	4649      	mov	r1, r9
    1f74:	f104 0219 	add.w	r2, r4, #25
    1f78:	2301      	movs	r3, #1
    1f7a:	47d0      	blx	r10
    1f7c:	3001      	adds	r0, #1
    1f7e:	d0de      	beq.n	1f3e <_printf_i+0x1d2>
    1f80:	3501      	adds	r5, #1
    1f82:	e7f0      	b.n	1f66 <_printf_i+0x1fa>
    1f84:	b004      	add	sp, #16
    1f86:	e8bd 87f0 	ldmia.w	sp!, {r4, r5, r6, r7, r8, r9, r10, pc}
    1f8a:	bf00      	nop
    1f8c:	00002f41 	.word	0x00002f41
    1f90:	00002f52 	.word	0x00002f52

00001f94 <__svfiscanf_r>:
    1f94:	e92d 47f0 	stmdb	sp!, {r4, r5, r6, r7, r8, r9, r10, lr}
    1f98:	f5ad 7d24 	sub.w	sp, sp, #656	; 0x290
    1f9c:	9301      	str	r3, [sp, #4]
    1f9e:	2300      	movs	r3, #0
    1fa0:	9346      	str	r3, [sp, #280]	; 0x118
    1fa2:	9347      	str	r3, [sp, #284]	; 0x11c
    1fa4:	4b9d      	ldr	r3, [pc, #628]	; (221c <__svfiscanf_r+0x288>)
    1fa6:	f10d 090c 	add.w	r9, sp, #12
    1faa:	93a2      	str	r3, [sp, #648]	; 0x288
    1fac:	4b9c      	ldr	r3, [pc, #624]	; (2220 <__svfiscanf_r+0x28c>)
    1fae:	4607      	mov	r7, r0
    1fb0:	460c      	mov	r4, r1
    1fb2:	4690      	mov	r8, r2
    1fb4:	f8cd 9120 	str.w	r9, [sp, #288]	; 0x120
    1fb8:	93a3      	str	r3, [sp, #652]	; 0x28c
    1fba:	f898 5000 	ldrb.w	r5, [r8]
    1fbe:	2d00      	cmp	r5, #0
    1fc0:	f000 8124 	beq.w	220c <__svfiscanf_r+0x278>
    1fc4:	4997      	ldr	r1, [pc, #604]	; (2224 <__svfiscanf_r+0x290>)
    1fc6:	680b      	ldr	r3, [r1, #0]
    1fc8:	468a      	mov	r10, r1
    1fca:	442b      	add	r3, r5
    1fcc:	785a      	ldrb	r2, [r3, #1]
    1fce:	f002 0208 	and.w	r2, r2, #8
    1fd2:	f002 03ff 	and.w	r3, r2, #255	; 0xff
    1fd6:	b1ea      	cbz	r2, 2014 <__svfiscanf_r+0x80>
    1fd8:	6863      	ldr	r3, [r4, #4]
    1fda:	2b00      	cmp	r3, #0
    1fdc:	dd10      	ble.n	2000 <__svfiscanf_r+0x6c>
    1fde:	6823      	ldr	r3, [r4, #0]
    1fe0:	f8da 2000 	ldr.w	r2, [r10]
    1fe4:	7819      	ldrb	r1, [r3, #0]
    1fe6:	440a      	add	r2, r1
    1fe8:	7852      	ldrb	r2, [r2, #1]
    1fea:	0715      	lsls	r5, r2, #28
    1fec:	d50e      	bpl.n	200c <__svfiscanf_r+0x78>
    1fee:	9a47      	ldr	r2, [sp, #284]	; 0x11c
    1ff0:	3301      	adds	r3, #1
    1ff2:	3201      	adds	r2, #1
    1ff4:	9247      	str	r2, [sp, #284]	; 0x11c
    1ff6:	6862      	ldr	r2, [r4, #4]
    1ff8:	6023      	str	r3, [r4, #0]
    1ffa:	3a01      	subs	r2, #1
    1ffc:	6062      	str	r2, [r4, #4]
    1ffe:	e7eb      	b.n	1fd8 <__svfiscanf_r+0x44>
    2000:	9ba3      	ldr	r3, [sp, #652]	; 0x28c
    2002:	4638      	mov	r0, r7
    2004:	4621      	mov	r1, r4
    2006:	4798      	blx	r3
    2008:	2800      	cmp	r0, #0
    200a:	d0e8      	beq.n	1fde <__svfiscanf_r+0x4a>
    200c:	f108 0601 	add.w	r6, r8, #1
    2010:	46b0      	mov	r8, r6
    2012:	e7d2      	b.n	1fba <__svfiscanf_r+0x26>
    2014:	2d25      	cmp	r5, #37	; 0x25
    2016:	f108 0601 	add.w	r6, r8, #1
    201a:	d14f      	bne.n	20bc <__svfiscanf_r+0x128>
    201c:	9345      	str	r3, [sp, #276]	; 0x114
    201e:	9343      	str	r3, [sp, #268]	; 0x10c
    2020:	f898 3001 	ldrb.w	r3, [r8, #1]
    2024:	2b2a      	cmp	r3, #42	; 0x2a
    2026:	d103      	bne.n	2030 <__svfiscanf_r+0x9c>
    2028:	2310      	movs	r3, #16
    202a:	9343      	str	r3, [sp, #268]	; 0x10c
    202c:	f108 0602 	add.w	r6, r8, #2
    2030:	7831      	ldrb	r1, [r6, #0]
    2032:	4635      	mov	r5, r6
    2034:	f1a1 0330 	sub.w	r3, r1, #48	; 0x30
    2038:	2b09      	cmp	r3, #9
    203a:	f106 0601 	add.w	r6, r6, #1
    203e:	d806      	bhi.n	204e <__svfiscanf_r+0xba>
    2040:	9b45      	ldr	r3, [sp, #276]	; 0x114
    2042:	220a      	movs	r2, #10
    2044:	fb02 1303 	mla	r3, r2, r3, r1
    2048:	3b30      	subs	r3, #48	; 0x30
    204a:	9345      	str	r3, [sp, #276]	; 0x114
    204c:	e7f0      	b.n	2030 <__svfiscanf_r+0x9c>
    204e:	f8df 81dc 	ldr.w	r8, [pc, #476]	; 222c <__svfiscanf_r+0x298>
    2052:	2203      	movs	r2, #3
    2054:	4640      	mov	r0, r8
    2056:	f000 fbab 	bl	27b0 <memchr>
    205a:	b140      	cbz	r0, 206e <__svfiscanf_r+0xda>
    205c:	ebc8 0800 	rsb	r8, r8, r0
    2060:	2001      	movs	r0, #1
    2062:	fa00 f008 	lsl.w	r0, r0, r8
    2066:	9b43      	ldr	r3, [sp, #268]	; 0x10c
    2068:	4635      	mov	r5, r6
    206a:	4303      	orrs	r3, r0
    206c:	9343      	str	r3, [sp, #268]	; 0x10c
    206e:	1c6e      	adds	r6, r5, #1
    2070:	782d      	ldrb	r5, [r5, #0]
    2072:	2d67      	cmp	r5, #103	; 0x67
    2074:	d80f      	bhi.n	2096 <__svfiscanf_r+0x102>
    2076:	2d65      	cmp	r5, #101	; 0x65
    2078:	d278      	bcs.n	216c <__svfiscanf_r+0x1d8>
    207a:	2d5b      	cmp	r5, #91	; 0x5b
    207c:	d054      	beq.n	2128 <__svfiscanf_r+0x194>
    207e:	d805      	bhi.n	208c <__svfiscanf_r+0xf8>
    2080:	2d00      	cmp	r5, #0
    2082:	f000 80c5 	beq.w	2210 <__svfiscanf_r+0x27c>
    2086:	2d25      	cmp	r5, #37	; 0x25
    2088:	d018      	beq.n	20bc <__svfiscanf_r+0x128>
    208a:	e071      	b.n	2170 <__svfiscanf_r+0x1dc>
    208c:	2d63      	cmp	r5, #99	; 0x63
    208e:	d057      	beq.n	2140 <__svfiscanf_r+0x1ac>
    2090:	2d64      	cmp	r5, #100	; 0x64
    2092:	d03f      	beq.n	2114 <__svfiscanf_r+0x180>
    2094:	e06c      	b.n	2170 <__svfiscanf_r+0x1dc>
    2096:	2d70      	cmp	r5, #112	; 0x70
    2098:	d032      	beq.n	2100 <__svfiscanf_r+0x16c>
    209a:	d807      	bhi.n	20ac <__svfiscanf_r+0x118>
    209c:	2d6e      	cmp	r5, #110	; 0x6e
    209e:	d055      	beq.n	214c <__svfiscanf_r+0x1b8>
    20a0:	d83a      	bhi.n	2118 <__svfiscanf_r+0x184>
    20a2:	2d69      	cmp	r5, #105	; 0x69
    20a4:	d164      	bne.n	2170 <__svfiscanf_r+0x1dc>
    20a6:	2300      	movs	r3, #0
    20a8:	9344      	str	r3, [sp, #272]	; 0x110
    20aa:	e039      	b.n	2120 <__svfiscanf_r+0x18c>
    20ac:	2d75      	cmp	r5, #117	; 0x75
    20ae:	d031      	beq.n	2114 <__svfiscanf_r+0x180>
    20b0:	2d78      	cmp	r5, #120	; 0x78
    20b2:	d029      	beq.n	2108 <__svfiscanf_r+0x174>
    20b4:	2d73      	cmp	r5, #115	; 0x73
    20b6:	d15b      	bne.n	2170 <__svfiscanf_r+0x1dc>
    20b8:	2302      	movs	r3, #2
    20ba:	e03f      	b.n	213c <__svfiscanf_r+0x1a8>
    20bc:	6863      	ldr	r3, [r4, #4]
    20be:	2b00      	cmp	r3, #0
    20c0:	dd0d      	ble.n	20de <__svfiscanf_r+0x14a>
    20c2:	6823      	ldr	r3, [r4, #0]
    20c4:	781a      	ldrb	r2, [r3, #0]
    20c6:	42aa      	cmp	r2, r5
    20c8:	f040 80a0 	bne.w	220c <__svfiscanf_r+0x278>
    20cc:	3301      	adds	r3, #1
    20ce:	6862      	ldr	r2, [r4, #4]
    20d0:	6023      	str	r3, [r4, #0]
    20d2:	9b47      	ldr	r3, [sp, #284]	; 0x11c
    20d4:	3a01      	subs	r2, #1
    20d6:	3301      	adds	r3, #1
    20d8:	6062      	str	r2, [r4, #4]
    20da:	9347      	str	r3, [sp, #284]	; 0x11c
    20dc:	e798      	b.n	2010 <__svfiscanf_r+0x7c>
    20de:	9ba3      	ldr	r3, [sp, #652]	; 0x28c
    20e0:	4638      	mov	r0, r7
    20e2:	4621      	mov	r1, r4
    20e4:	4798      	blx	r3
    20e6:	2800      	cmp	r0, #0
    20e8:	d0eb      	beq.n	20c2 <__svfiscanf_r+0x12e>
    20ea:	9846      	ldr	r0, [sp, #280]	; 0x118
    20ec:	2800      	cmp	r0, #0
    20ee:	f000 808f 	beq.w	2210 <__svfiscanf_r+0x27c>
    20f2:	89a3      	ldrh	r3, [r4, #12]
    20f4:	f013 0f40 	tst.w	r3, #64	; 0x40
    20f8:	bf18      	it	ne
    20fa:	f04f 30ff 	movne.w	r0, #4294967295	; 0xffffffff
    20fe:	e089      	b.n	2214 <__svfiscanf_r+0x280>
    2100:	9b43      	ldr	r3, [sp, #268]	; 0x10c
    2102:	f043 0320 	orr.w	r3, r3, #32
    2106:	9343      	str	r3, [sp, #268]	; 0x10c
    2108:	9b43      	ldr	r3, [sp, #268]	; 0x10c
    210a:	f443 7300 	orr.w	r3, r3, #512	; 0x200
    210e:	9343      	str	r3, [sp, #268]	; 0x10c
    2110:	2310      	movs	r3, #16
    2112:	e002      	b.n	211a <__svfiscanf_r+0x186>
    2114:	230a      	movs	r3, #10
    2116:	e000      	b.n	211a <__svfiscanf_r+0x186>
    2118:	2308      	movs	r3, #8
    211a:	2d6e      	cmp	r5, #110	; 0x6e
    211c:	9344      	str	r3, [sp, #272]	; 0x110
    211e:	dc01      	bgt.n	2124 <__svfiscanf_r+0x190>
    2120:	2303      	movs	r3, #3
    2122:	e00b      	b.n	213c <__svfiscanf_r+0x1a8>
    2124:	2304      	movs	r3, #4
    2126:	e009      	b.n	213c <__svfiscanf_r+0x1a8>
    2128:	4631      	mov	r1, r6
    212a:	4648      	mov	r0, r9
    212c:	f000 fc20 	bl	2970 <__sccl>
    2130:	9b43      	ldr	r3, [sp, #268]	; 0x10c
    2132:	4606      	mov	r6, r0
    2134:	f043 0340 	orr.w	r3, r3, #64	; 0x40
    2138:	9343      	str	r3, [sp, #268]	; 0x10c
    213a:	2301      	movs	r3, #1
    213c:	9349      	str	r3, [sp, #292]	; 0x124
    213e:	e01b      	b.n	2178 <__svfiscanf_r+0x1e4>
    2140:	9b43      	ldr	r3, [sp, #268]	; 0x10c
    2142:	f043 0340 	orr.w	r3, r3, #64	; 0x40
    2146:	9343      	str	r3, [sp, #268]	; 0x10c
    2148:	2300      	movs	r3, #0
    214a:	e7f7      	b.n	213c <__svfiscanf_r+0x1a8>
    214c:	9a43      	ldr	r2, [sp, #268]	; 0x10c
    214e:	06d0      	lsls	r0, r2, #27
    2150:	f53f af5e 	bmi.w	2010 <__svfiscanf_r+0x7c>
    2154:	f012 0f01 	tst.w	r2, #1
    2158:	9a01      	ldr	r2, [sp, #4]
    215a:	9b47      	ldr	r3, [sp, #284]	; 0x11c
    215c:	f102 0104 	add.w	r1, r2, #4
    2160:	9101      	str	r1, [sp, #4]
    2162:	6812      	ldr	r2, [r2, #0]
    2164:	bf14      	ite	ne
    2166:	8013      	strhne	r3, [r2, #0]
    2168:	6013      	streq	r3, [r2, #0]
    216a:	e751      	b.n	2010 <__svfiscanf_r+0x7c>
    216c:	2305      	movs	r3, #5
    216e:	e7e5      	b.n	213c <__svfiscanf_r+0x1a8>
    2170:	2303      	movs	r3, #3
    2172:	9349      	str	r3, [sp, #292]	; 0x124
    2174:	230a      	movs	r3, #10
    2176:	9344      	str	r3, [sp, #272]	; 0x110
    2178:	6863      	ldr	r3, [r4, #4]
    217a:	2b00      	cmp	r3, #0
    217c:	dd03      	ble.n	2186 <__svfiscanf_r+0x1f2>
    217e:	9b43      	ldr	r3, [sp, #268]	; 0x10c
    2180:	0659      	lsls	r1, r3, #25
    2182:	d511      	bpl.n	21a8 <__svfiscanf_r+0x214>
    2184:	e018      	b.n	21b8 <__svfiscanf_r+0x224>
    2186:	9ba3      	ldr	r3, [sp, #652]	; 0x28c
    2188:	4638      	mov	r0, r7
    218a:	4621      	mov	r1, r4
    218c:	4798      	blx	r3
    218e:	2800      	cmp	r0, #0
    2190:	d0f5      	beq.n	217e <__svfiscanf_r+0x1ea>
    2192:	e7aa      	b.n	20ea <__svfiscanf_r+0x156>
    2194:	9a47      	ldr	r2, [sp, #284]	; 0x11c
    2196:	3201      	adds	r2, #1
    2198:	9247      	str	r2, [sp, #284]	; 0x11c
    219a:	6862      	ldr	r2, [r4, #4]
    219c:	3a01      	subs	r2, #1
    219e:	2a00      	cmp	r2, #0
    21a0:	6062      	str	r2, [r4, #4]
    21a2:	dd13      	ble.n	21cc <__svfiscanf_r+0x238>
    21a4:	3301      	adds	r3, #1
    21a6:	6023      	str	r3, [r4, #0]
    21a8:	6823      	ldr	r3, [r4, #0]
    21aa:	f8da 2000 	ldr.w	r2, [r10]
    21ae:	7819      	ldrb	r1, [r3, #0]
    21b0:	440a      	add	r2, r1
    21b2:	7852      	ldrb	r2, [r2, #1]
    21b4:	0712      	lsls	r2, r2, #28
    21b6:	d4ed      	bmi.n	2194 <__svfiscanf_r+0x200>
    21b8:	9b49      	ldr	r3, [sp, #292]	; 0x124
    21ba:	2b02      	cmp	r3, #2
    21bc:	dc0d      	bgt.n	21da <__svfiscanf_r+0x246>
    21be:	4638      	mov	r0, r7
    21c0:	a943      	add	r1, sp, #268	; 0x10c
    21c2:	4622      	mov	r2, r4
    21c4:	ab01      	add	r3, sp, #4
    21c6:	f000 f85b 	bl	2280 <_scanf_chars>
    21ca:	e019      	b.n	2200 <__svfiscanf_r+0x26c>
    21cc:	9ba3      	ldr	r3, [sp, #652]	; 0x28c
    21ce:	4638      	mov	r0, r7
    21d0:	4621      	mov	r1, r4
    21d2:	4798      	blx	r3
    21d4:	2800      	cmp	r0, #0
    21d6:	d0e7      	beq.n	21a8 <__svfiscanf_r+0x214>
    21d8:	e787      	b.n	20ea <__svfiscanf_r+0x156>
    21da:	2b04      	cmp	r3, #4
    21dc:	dc06      	bgt.n	21ec <__svfiscanf_r+0x258>
    21de:	4638      	mov	r0, r7
    21e0:	a943      	add	r1, sp, #268	; 0x10c
    21e2:	4622      	mov	r2, r4
    21e4:	ab01      	add	r3, sp, #4
    21e6:	f000 f8ab 	bl	2340 <_scanf_i>
    21ea:	e009      	b.n	2200 <__svfiscanf_r+0x26c>
    21ec:	4b0e      	ldr	r3, [pc, #56]	; (2228 <__svfiscanf_r+0x294>)
    21ee:	2b00      	cmp	r3, #0
    21f0:	f43f af0e 	beq.w	2010 <__svfiscanf_r+0x7c>
    21f4:	4638      	mov	r0, r7
    21f6:	a943      	add	r1, sp, #268	; 0x10c
    21f8:	4622      	mov	r2, r4
    21fa:	ab01      	add	r3, sp, #4
    21fc:	f3af 8000 	nop.w
    2200:	2801      	cmp	r0, #1
    2202:	d003      	beq.n	220c <__svfiscanf_r+0x278>
    2204:	2802      	cmp	r0, #2
    2206:	f47f af03 	bne.w	2010 <__svfiscanf_r+0x7c>
    220a:	e76e      	b.n	20ea <__svfiscanf_r+0x156>
    220c:	9846      	ldr	r0, [sp, #280]	; 0x118
    220e:	e001      	b.n	2214 <__svfiscanf_r+0x280>
    2210:	f04f 30ff 	mov.w	r0, #4294967295	; 0xffffffff
    2214:	f50d 7d24 	add.w	sp, sp, #656	; 0x290
    2218:	e8bd 87f0 	ldmia.w	sp!, {r4, r5, r6, r7, r8, r9, r10, pc}
    221c:	00001931 	.word	0x00001931
    2220:	00002865 	.word	0x00002865
    2224:	10000134 	.word	0x10000134
    2228:	00000000 	.word	0x00000000
    222c:	00002f36 	.word	0x00002f36

00002230 <_vfiscanf_r>:
    2230:	e92d 41f0 	stmdb	sp!, {r4, r5, r6, r7, r8, lr}
    2234:	460c      	mov	r4, r1
    2236:	4617      	mov	r7, r2
    2238:	461e      	mov	r6, r3
    223a:	4605      	mov	r5, r0
    223c:	b118      	cbz	r0, 2246 <_vfiscanf_r+0x16>
    223e:	6981      	ldr	r1, [r0, #24]
    2240:	b909      	cbnz	r1, 2246 <_vfiscanf_r+0x16>
    2242:	f7ff f865 	bl	1310 <__sinit>
    2246:	4b0b      	ldr	r3, [pc, #44]	; (2274 <_vfiscanf_r+0x44>)
    2248:	429c      	cmp	r4, r3
    224a:	bf08      	it	eq
    224c:	686c      	ldreq	r4, [r5, #4]
    224e:	d008      	beq.n	2262 <_vfiscanf_r+0x32>
    2250:	4b09      	ldr	r3, [pc, #36]	; (2278 <_vfiscanf_r+0x48>)
    2252:	429c      	cmp	r4, r3
    2254:	bf08      	it	eq
    2256:	68ac      	ldreq	r4, [r5, #8]
    2258:	d003      	beq.n	2262 <_vfiscanf_r+0x32>
    225a:	4b08      	ldr	r3, [pc, #32]	; (227c <_vfiscanf_r+0x4c>)
    225c:	429c      	cmp	r4, r3
    225e:	bf08      	it	eq
    2260:	68ec      	ldreq	r4, [r5, #12]
    2262:	4628      	mov	r0, r5
    2264:	4621      	mov	r1, r4
    2266:	463a      	mov	r2, r7
    2268:	4633      	mov	r3, r6
    226a:	e8bd 41f0 	ldmia.w	sp!, {r4, r5, r6, r7, r8, lr}
    226e:	f7ff be91 	b.w	1f94 <__svfiscanf_r>
    2272:	bf00      	nop
    2274:	00002ec8 	.word	0x00002ec8
    2278:	00002ee8 	.word	0x00002ee8
    227c:	00002f08 	.word	0x00002f08

00002280 <_scanf_chars>:
    2280:	e92d 41f0 	stmdb	sp!, {r4, r5, r6, r7, r8, lr}
    2284:	4615      	mov	r5, r2
    2286:	688a      	ldr	r2, [r1, #8]
    2288:	4680      	mov	r8, r0
    228a:	460c      	mov	r4, r1
    228c:	b932      	cbnz	r2, 229c <_scanf_chars+0x1c>
    228e:	698a      	ldr	r2, [r1, #24]
    2290:	2a00      	cmp	r2, #0
    2292:	bf14      	ite	ne
    2294:	f04f 32ff 	movne.w	r2, #4294967295	; 0xffffffff
    2298:	2201      	moveq	r2, #1
    229a:	608a      	str	r2, [r1, #8]
    229c:	6822      	ldr	r2, [r4, #0]
    229e:	06d1      	lsls	r1, r2, #27
    22a0:	d403      	bmi.n	22aa <_scanf_chars+0x2a>
    22a2:	681a      	ldr	r2, [r3, #0]
    22a4:	1d11      	adds	r1, r2, #4
    22a6:	6019      	str	r1, [r3, #0]
    22a8:	6817      	ldr	r7, [r2, #0]
    22aa:	2600      	movs	r6, #0
    22ac:	69a0      	ldr	r0, [r4, #24]
    22ae:	b9e0      	cbnz	r0, 22ea <_scanf_chars+0x6a>
    22b0:	6823      	ldr	r3, [r4, #0]
    22b2:	3601      	adds	r6, #1
    22b4:	06da      	lsls	r2, r3, #27
    22b6:	d404      	bmi.n	22c2 <_scanf_chars+0x42>
    22b8:	682b      	ldr	r3, [r5, #0]
    22ba:	3701      	adds	r7, #1
    22bc:	781b      	ldrb	r3, [r3, #0]
    22be:	f807 3c01 	strb.w	r3, [r7, #-1]
    22c2:	682a      	ldr	r2, [r5, #0]
    22c4:	686b      	ldr	r3, [r5, #4]
    22c6:	3201      	adds	r2, #1
    22c8:	602a      	str	r2, [r5, #0]
    22ca:	68a2      	ldr	r2, [r4, #8]
    22cc:	3b01      	subs	r3, #1
    22ce:	3a01      	subs	r2, #1
    22d0:	606b      	str	r3, [r5, #4]
    22d2:	60a2      	str	r2, [r4, #8]
    22d4:	b312      	cbz	r2, 231c <_scanf_chars+0x9c>
    22d6:	2b00      	cmp	r3, #0
    22d8:	dce8      	bgt.n	22ac <_scanf_chars+0x2c>
    22da:	f8d4 3180 	ldr.w	r3, [r4, #384]	; 0x180
    22de:	4640      	mov	r0, r8
    22e0:	4629      	mov	r1, r5
    22e2:	4798      	blx	r3
    22e4:	2800      	cmp	r0, #0
    22e6:	d0e1      	beq.n	22ac <_scanf_chars+0x2c>
    22e8:	e018      	b.n	231c <_scanf_chars+0x9c>
    22ea:	2801      	cmp	r0, #1
    22ec:	d107      	bne.n	22fe <_scanf_chars+0x7e>
    22ee:	682a      	ldr	r2, [r5, #0]
    22f0:	7811      	ldrb	r1, [r2, #0]
    22f2:	6962      	ldr	r2, [r4, #20]
    22f4:	5c52      	ldrb	r2, [r2, r1]
    22f6:	2a00      	cmp	r2, #0
    22f8:	d1da      	bne.n	22b0 <_scanf_chars+0x30>
    22fa:	b1ee      	cbz	r6, 2338 <_scanf_chars+0xb8>
    22fc:	e00e      	b.n	231c <_scanf_chars+0x9c>
    22fe:	2802      	cmp	r0, #2
    2300:	d001      	beq.n	2306 <_scanf_chars+0x86>
    2302:	b14e      	cbz	r6, 2318 <_scanf_chars+0x98>
    2304:	e00a      	b.n	231c <_scanf_chars+0x9c>
    2306:	682a      	ldr	r2, [r5, #0]
    2308:	490c      	ldr	r1, [pc, #48]	; (233c <_scanf_chars+0xbc>)
    230a:	7812      	ldrb	r2, [r2, #0]
    230c:	6809      	ldr	r1, [r1, #0]
    230e:	440a      	add	r2, r1
    2310:	7852      	ldrb	r2, [r2, #1]
    2312:	0713      	lsls	r3, r2, #28
    2314:	d5cc      	bpl.n	22b0 <_scanf_chars+0x30>
    2316:	e7f4      	b.n	2302 <_scanf_chars+0x82>
    2318:	2801      	cmp	r0, #1
    231a:	d00d      	beq.n	2338 <_scanf_chars+0xb8>
    231c:	6823      	ldr	r3, [r4, #0]
    231e:	f013 0310 	ands.w	r3, r3, #16
    2322:	d105      	bne.n	2330 <_scanf_chars+0xb0>
    2324:	68e2      	ldr	r2, [r4, #12]
    2326:	3201      	adds	r2, #1
    2328:	60e2      	str	r2, [r4, #12]
    232a:	69a2      	ldr	r2, [r4, #24]
    232c:	b102      	cbz	r2, 2330 <_scanf_chars+0xb0>
    232e:	703b      	strb	r3, [r7, #0]
    2330:	6923      	ldr	r3, [r4, #16]
    2332:	2000      	movs	r0, #0
    2334:	441e      	add	r6, r3
    2336:	6126      	str	r6, [r4, #16]
    2338:	e8bd 81f0 	ldmia.w	sp!, {r4, r5, r6, r7, r8, pc}
    233c:	10000134 	.word	0x10000134

00002340 <_scanf_i>:
    2340:	e92d 4ff0 	stmdb	sp!, {r4, r5, r6, r7, r8, r9, r10, r11, lr}
    2344:	b089      	sub	sp, #36	; 0x24
    2346:	460c      	mov	r4, r1
    2348:	4698      	mov	r8, r3
    234a:	a905      	add	r1, sp, #20
    234c:	4b73      	ldr	r3, [pc, #460]	; (251c <_scanf_i+0x1dc>)
    234e:	9102      	str	r1, [sp, #8]
    2350:	4681      	mov	r9, r0
    2352:	4616      	mov	r6, r2
    2354:	e893 0007 	ldmia.w	r3, {r0, r1, r2}
    2358:	9b02      	ldr	r3, [sp, #8]
    235a:	e883 0007 	stmia.w	r3, {r0, r1, r2}
    235e:	69a3      	ldr	r3, [r4, #24]
    2360:	4a6f      	ldr	r2, [pc, #444]	; (2520 <_scanf_i+0x1e0>)
    2362:	4970      	ldr	r1, [pc, #448]	; (2524 <_scanf_i+0x1e4>)
    2364:	2b03      	cmp	r3, #3
    2366:	bf08      	it	eq
    2368:	4611      	moveq	r1, r2
    236a:	68a3      	ldr	r3, [r4, #8]
    236c:	9103      	str	r1, [sp, #12]
    236e:	1e5a      	subs	r2, r3, #1
    2370:	f5b2 7fae 	cmp.w	r2, #348	; 0x15c
    2374:	d907      	bls.n	2386 <_scanf_i+0x46>
    2376:	f46f 75ae 	mvn.w	r5, #348	; 0x15c
    237a:	eb03 0a05 	add.w	r10, r3, r5
    237e:	f240 135d 	movw	r3, #349	; 0x15d
    2382:	60a3      	str	r3, [r4, #8]
    2384:	e001      	b.n	238a <_scanf_i+0x4a>
    2386:	f04f 0a00 	mov.w	r10, #0
    238a:	6823      	ldr	r3, [r4, #0]
    238c:	f104 071c 	add.w	r7, r4, #28
    2390:	f443 6350 	orr.w	r3, r3, #3328	; 0xd00
    2394:	6023      	str	r3, [r4, #0]
    2396:	46bb      	mov	r11, r7
    2398:	2300      	movs	r3, #0
    239a:	6832      	ldr	r2, [r6, #0]
    239c:	a905      	add	r1, sp, #20
    239e:	f851 0023 	ldr.w	r0, [r1, r3, lsl #2]
    23a2:	7811      	ldrb	r1, [r2, #0]
    23a4:	2202      	movs	r2, #2
    23a6:	9301      	str	r3, [sp, #4]
    23a8:	f000 fa02 	bl	27b0 <memchr>
    23ac:	9b01      	ldr	r3, [sp, #4]
    23ae:	2800      	cmp	r0, #0
    23b0:	d035      	beq.n	241e <_scanf_i+0xde>
    23b2:	2b01      	cmp	r3, #1
    23b4:	d10b      	bne.n	23ce <_scanf_i+0x8e>
    23b6:	6862      	ldr	r2, [r4, #4]
    23b8:	b92a      	cbnz	r2, 23c6 <_scanf_i+0x86>
    23ba:	2208      	movs	r2, #8
    23bc:	6062      	str	r2, [r4, #4]
    23be:	6822      	ldr	r2, [r4, #0]
    23c0:	f442 7200 	orr.w	r2, r2, #512	; 0x200
    23c4:	6022      	str	r2, [r4, #0]
    23c6:	6822      	ldr	r2, [r4, #0]
    23c8:	f422 62a0 	bic.w	r2, r2, #1280	; 0x500
    23cc:	e00b      	b.n	23e6 <_scanf_i+0xa6>
    23ce:	2b02      	cmp	r3, #2
    23d0:	d10a      	bne.n	23e8 <_scanf_i+0xa8>
    23d2:	6822      	ldr	r2, [r4, #0]
    23d4:	f402 61c0 	and.w	r1, r2, #1536	; 0x600
    23d8:	f5b1 7f00 	cmp.w	r1, #512	; 0x200
    23dc:	d11f      	bne.n	241e <_scanf_i+0xde>
    23de:	2110      	movs	r1, #16
    23e0:	6061      	str	r1, [r4, #4]
    23e2:	f442 7280 	orr.w	r2, r2, #256	; 0x100
    23e6:	6022      	str	r2, [r4, #0]
    23e8:	68a2      	ldr	r2, [r4, #8]
    23ea:	1e51      	subs	r1, r2, #1
    23ec:	60a1      	str	r1, [r4, #8]
    23ee:	b1b2      	cbz	r2, 241e <_scanf_i+0xde>
    23f0:	6832      	ldr	r2, [r6, #0]
    23f2:	f10b 0501 	add.w	r5, r11, #1
    23f6:	1c51      	adds	r1, r2, #1
    23f8:	6031      	str	r1, [r6, #0]
    23fa:	7812      	ldrb	r2, [r2, #0]
    23fc:	f88b 2000 	strb.w	r2, [r11]
    2400:	6872      	ldr	r2, [r6, #4]
    2402:	3a01      	subs	r2, #1
    2404:	2a00      	cmp	r2, #0
    2406:	6072      	str	r2, [r6, #4]
    2408:	dc08      	bgt.n	241c <_scanf_i+0xdc>
    240a:	9301      	str	r3, [sp, #4]
    240c:	f8d4 2180 	ldr.w	r2, [r4, #384]	; 0x180
    2410:	4648      	mov	r0, r9
    2412:	4631      	mov	r1, r6
    2414:	4790      	blx	r2
    2416:	9b01      	ldr	r3, [sp, #4]
    2418:	2800      	cmp	r0, #0
    241a:	d141      	bne.n	24a0 <_scanf_i+0x160>
    241c:	46ab      	mov	r11, r5
    241e:	3301      	adds	r3, #1
    2420:	2b03      	cmp	r3, #3
    2422:	d1ba      	bne.n	239a <_scanf_i+0x5a>
    2424:	6863      	ldr	r3, [r4, #4]
    2426:	b90b      	cbnz	r3, 242c <_scanf_i+0xec>
    2428:	230a      	movs	r3, #10
    242a:	6063      	str	r3, [r4, #4]
    242c:	6863      	ldr	r3, [r4, #4]
    242e:	493e      	ldr	r1, [pc, #248]	; (2528 <_scanf_i+0x1e8>)
    2430:	6960      	ldr	r0, [r4, #20]
    2432:	1ac9      	subs	r1, r1, r3
    2434:	f000 fa9c 	bl	2970 <__sccl>
    2438:	465d      	mov	r5, r11
    243a:	f04f 0b00 	mov.w	r11, #0
    243e:	68a3      	ldr	r3, [r4, #8]
    2440:	2b00      	cmp	r3, #0
    2442:	d02f      	beq.n	24a4 <_scanf_i+0x164>
    2444:	6832      	ldr	r2, [r6, #0]
    2446:	6960      	ldr	r0, [r4, #20]
    2448:	7811      	ldrb	r1, [r2, #0]
    244a:	5c40      	ldrb	r0, [r0, r1]
    244c:	b350      	cbz	r0, 24a4 <_scanf_i+0x164>
    244e:	2930      	cmp	r1, #48	; 0x30
    2450:	6821      	ldr	r1, [r4, #0]
    2452:	d10b      	bne.n	246c <_scanf_i+0x12c>
    2454:	0508      	lsls	r0, r1, #20
    2456:	d509      	bpl.n	246c <_scanf_i+0x12c>
    2458:	f10b 0b01 	add.w	r11, r11, #1
    245c:	f1ba 0f00 	cmp.w	r10, #0
    2460:	d00b      	beq.n	247a <_scanf_i+0x13a>
    2462:	3301      	adds	r3, #1
    2464:	f10a 3aff 	add.w	r10, r10, #4294967295	; 0xffffffff
    2468:	60a3      	str	r3, [r4, #8]
    246a:	e006      	b.n	247a <_scanf_i+0x13a>
    246c:	f421 6110 	bic.w	r1, r1, #2304	; 0x900
    2470:	6021      	str	r1, [r4, #0]
    2472:	7813      	ldrb	r3, [r2, #0]
    2474:	3501      	adds	r5, #1
    2476:	f805 3c01 	strb.w	r3, [r5, #-1]
    247a:	6873      	ldr	r3, [r6, #4]
    247c:	3b01      	subs	r3, #1
    247e:	2b00      	cmp	r3, #0
    2480:	6073      	str	r3, [r6, #4]
    2482:	dd03      	ble.n	248c <_scanf_i+0x14c>
    2484:	6833      	ldr	r3, [r6, #0]
    2486:	3301      	adds	r3, #1
    2488:	6033      	str	r3, [r6, #0]
    248a:	e005      	b.n	2498 <_scanf_i+0x158>
    248c:	f8d4 3180 	ldr.w	r3, [r4, #384]	; 0x180
    2490:	4648      	mov	r0, r9
    2492:	4631      	mov	r1, r6
    2494:	4798      	blx	r3
    2496:	b928      	cbnz	r0, 24a4 <_scanf_i+0x164>
    2498:	68a3      	ldr	r3, [r4, #8]
    249a:	3b01      	subs	r3, #1
    249c:	60a3      	str	r3, [r4, #8]
    249e:	e7ce      	b.n	243e <_scanf_i+0xfe>
    24a0:	f04f 0b00 	mov.w	r11, #0
    24a4:	6823      	ldr	r3, [r4, #0]
    24a6:	05d9      	lsls	r1, r3, #23
    24a8:	d50d      	bpl.n	24c6 <_scanf_i+0x186>
    24aa:	42bd      	cmp	r5, r7
    24ac:	d909      	bls.n	24c2 <_scanf_i+0x182>
    24ae:	f815 1c01 	ldrb.w	r1, [r5, #-1]
    24b2:	f8d4 317c 	ldr.w	r3, [r4, #380]	; 0x17c
    24b6:	4648      	mov	r0, r9
    24b8:	4632      	mov	r2, r6
    24ba:	4798      	blx	r3
    24bc:	f105 3aff 	add.w	r10, r5, #4294967295	; 0xffffffff
    24c0:	4655      	mov	r5, r10
    24c2:	42bd      	cmp	r5, r7
    24c4:	d026      	beq.n	2514 <_scanf_i+0x1d4>
    24c6:	6822      	ldr	r2, [r4, #0]
    24c8:	f012 0210 	ands.w	r2, r2, #16
    24cc:	d11b      	bne.n	2506 <_scanf_i+0x1c6>
    24ce:	702a      	strb	r2, [r5, #0]
    24d0:	6863      	ldr	r3, [r4, #4]
    24d2:	4648      	mov	r0, r9
    24d4:	4639      	mov	r1, r7
    24d6:	9e03      	ldr	r6, [sp, #12]
    24d8:	47b0      	blx	r6
    24da:	6822      	ldr	r2, [r4, #0]
    24dc:	f8d8 3000 	ldr.w	r3, [r8]
    24e0:	f012 0f20 	tst.w	r2, #32
    24e4:	d107      	bne.n	24f6 <_scanf_i+0x1b6>
    24e6:	07d2      	lsls	r2, r2, #31
    24e8:	d505      	bpl.n	24f6 <_scanf_i+0x1b6>
    24ea:	1d1a      	adds	r2, r3, #4
    24ec:	f8c8 2000 	str.w	r2, [r8]
    24f0:	681b      	ldr	r3, [r3, #0]
    24f2:	8018      	strh	r0, [r3, #0]
    24f4:	e004      	b.n	2500 <_scanf_i+0x1c0>
    24f6:	1d1a      	adds	r2, r3, #4
    24f8:	f8c8 2000 	str.w	r2, [r8]
    24fc:	681b      	ldr	r3, [r3, #0]
    24fe:	6018      	str	r0, [r3, #0]
    2500:	68e3      	ldr	r3, [r4, #12]
    2502:	3301      	adds	r3, #1
    2504:	60e3      	str	r3, [r4, #12]
    2506:	6923      	ldr	r3, [r4, #16]
    2508:	1bed      	subs	r5, r5, r7
    250a:	44ab      	add	r11, r5
    250c:	445b      	add	r3, r11
    250e:	6123      	str	r3, [r4, #16]
    2510:	2000      	movs	r0, #0
    2512:	e000      	b.n	2516 <_scanf_i+0x1d6>
    2514:	2001      	movs	r0, #1
    2516:	b009      	add	sp, #36	; 0x24
    2518:	e8bd 8ff0 	ldmia.w	sp!, {r4, r5, r6, r7, r8, r9, r10, r11, pc}
    251c:	00002f64 	.word	0x00002f64
    2520:	000029d5 	.word	0x000029d5
    2524:	00002ad9 	.word	0x00002ad9
    2528:	00002f80 	.word	0x00002f80

0000252c <__swbuf_r>:
    252c:	b570      	push	{r4, r5, r6, lr}
    252e:	460e      	mov	r6, r1
    2530:	4614      	mov	r4, r2
    2532:	4605      	mov	r5, r0
    2534:	b118      	cbz	r0, 253e <__swbuf_r+0x12>
    2536:	6983      	ldr	r3, [r0, #24]
    2538:	b90b      	cbnz	r3, 253e <__swbuf_r+0x12>
    253a:	f7fe fee9 	bl	1310 <__sinit>
    253e:	4b22      	ldr	r3, [pc, #136]	; (25c8 <__swbuf_r+0x9c>)
    2540:	429c      	cmp	r4, r3
    2542:	d101      	bne.n	2548 <__swbuf_r+0x1c>
    2544:	686c      	ldr	r4, [r5, #4]
    2546:	e008      	b.n	255a <__swbuf_r+0x2e>
    2548:	4b20      	ldr	r3, [pc, #128]	; (25cc <__swbuf_r+0xa0>)
    254a:	429c      	cmp	r4, r3
    254c:	d101      	bne.n	2552 <__swbuf_r+0x26>
    254e:	68ac      	ldr	r4, [r5, #8]
    2550:	e003      	b.n	255a <__swbuf_r+0x2e>
    2552:	4b1f      	ldr	r3, [pc, #124]	; (25d0 <__swbuf_r+0xa4>)
    2554:	429c      	cmp	r4, r3
    2556:	bf08      	it	eq
    2558:	68ec      	ldreq	r4, [r5, #12]
    255a:	69a3      	ldr	r3, [r4, #24]
    255c:	60a3      	str	r3, [r4, #8]
    255e:	89a3      	ldrh	r3, [r4, #12]
    2560:	071a      	lsls	r2, r3, #28
    2562:	d509      	bpl.n	2578 <__swbuf_r+0x4c>
    2564:	6923      	ldr	r3, [r4, #16]
    2566:	b13b      	cbz	r3, 2578 <__swbuf_r+0x4c>
    2568:	6923      	ldr	r3, [r4, #16]
    256a:	6820      	ldr	r0, [r4, #0]
    256c:	b2f6      	uxtb	r6, r6
    256e:	1ac0      	subs	r0, r0, r3
    2570:	6963      	ldr	r3, [r4, #20]
    2572:	4298      	cmp	r0, r3
    2574:	db0f      	blt.n	2596 <__swbuf_r+0x6a>
    2576:	e008      	b.n	258a <__swbuf_r+0x5e>
    2578:	4628      	mov	r0, r5
    257a:	4621      	mov	r1, r4
    257c:	f000 f83c 	bl	25f8 <__swsetup_r>
    2580:	2800      	cmp	r0, #0
    2582:	d0f1      	beq.n	2568 <__swbuf_r+0x3c>
    2584:	f04f 30ff 	mov.w	r0, #4294967295	; 0xffffffff
    2588:	bd70      	pop	{r4, r5, r6, pc}
    258a:	4628      	mov	r0, r5
    258c:	4621      	mov	r1, r4
    258e:	f7fe fe2f 	bl	11f0 <_fflush_r>
    2592:	2800      	cmp	r0, #0
    2594:	d1f6      	bne.n	2584 <__swbuf_r+0x58>
    2596:	68a3      	ldr	r3, [r4, #8]
    2598:	3001      	adds	r0, #1
    259a:	3b01      	subs	r3, #1
    259c:	60a3      	str	r3, [r4, #8]
    259e:	6823      	ldr	r3, [r4, #0]
    25a0:	1c5a      	adds	r2, r3, #1
    25a2:	6022      	str	r2, [r4, #0]
    25a4:	701e      	strb	r6, [r3, #0]
    25a6:	6963      	ldr	r3, [r4, #20]
    25a8:	4298      	cmp	r0, r3
    25aa:	d004      	beq.n	25b6 <__swbuf_r+0x8a>
    25ac:	89a3      	ldrh	r3, [r4, #12]
    25ae:	07db      	lsls	r3, r3, #31
    25b0:	d507      	bpl.n	25c2 <__swbuf_r+0x96>
    25b2:	2e0a      	cmp	r6, #10
    25b4:	d105      	bne.n	25c2 <__swbuf_r+0x96>
    25b6:	4628      	mov	r0, r5
    25b8:	4621      	mov	r1, r4
    25ba:	f7fe fe19 	bl	11f0 <_fflush_r>
    25be:	2800      	cmp	r0, #0
    25c0:	d1e0      	bne.n	2584 <__swbuf_r+0x58>
    25c2:	4630      	mov	r0, r6
    25c4:	bd70      	pop	{r4, r5, r6, pc}
    25c6:	bf00      	nop
    25c8:	00002ec8 	.word	0x00002ec8
    25cc:	00002ee8 	.word	0x00002ee8
    25d0:	00002f08 	.word	0x00002f08

000025d4 <_write_r>:
    25d4:	b538      	push	{r3, r4, r5, lr}
    25d6:	4c07      	ldr	r4, [pc, #28]	; (25f4 <_write_r+0x20>)
    25d8:	4605      	mov	r5, r0
    25da:	2000      	movs	r0, #0
    25dc:	6020      	str	r0, [r4, #0]
    25de:	4608      	mov	r0, r1
    25e0:	4611      	mov	r1, r2
    25e2:	461a      	mov	r2, r3
    25e4:	f7fd fe60 	bl	2a8 <_write>
    25e8:	1c43      	adds	r3, r0, #1
    25ea:	d102      	bne.n	25f2 <_write_r+0x1e>
    25ec:	6823      	ldr	r3, [r4, #0]
    25ee:	b103      	cbz	r3, 25f2 <_write_r+0x1e>
    25f0:	602b      	str	r3, [r5, #0]
    25f2:	bd38      	pop	{r3, r4, r5, pc}
    25f4:	10000360 	.word	0x10000360

000025f8 <__swsetup_r>:
    25f8:	4b32      	ldr	r3, [pc, #200]	; (26c4 <__swsetup_r+0xcc>)
    25fa:	b570      	push	{r4, r5, r6, lr}
    25fc:	681d      	ldr	r5, [r3, #0]
    25fe:	4606      	mov	r6, r0
    2600:	460c      	mov	r4, r1
    2602:	b125      	cbz	r5, 260e <__swsetup_r+0x16>
    2604:	69ab      	ldr	r3, [r5, #24]
    2606:	b913      	cbnz	r3, 260e <__swsetup_r+0x16>
    2608:	4628      	mov	r0, r5
    260a:	f7fe fe81 	bl	1310 <__sinit>
    260e:	4b2e      	ldr	r3, [pc, #184]	; (26c8 <__swsetup_r+0xd0>)
    2610:	429c      	cmp	r4, r3
    2612:	d101      	bne.n	2618 <__swsetup_r+0x20>
    2614:	686c      	ldr	r4, [r5, #4]
    2616:	e008      	b.n	262a <__swsetup_r+0x32>
    2618:	4b2c      	ldr	r3, [pc, #176]	; (26cc <__swsetup_r+0xd4>)
    261a:	429c      	cmp	r4, r3
    261c:	d101      	bne.n	2622 <__swsetup_r+0x2a>
    261e:	68ac      	ldr	r4, [r5, #8]
    2620:	e003      	b.n	262a <__swsetup_r+0x32>
    2622:	4b2b      	ldr	r3, [pc, #172]	; (26d0 <__swsetup_r+0xd8>)
    2624:	429c      	cmp	r4, r3
    2626:	bf08      	it	eq
    2628:	68ec      	ldreq	r4, [r5, #12]
    262a:	89a2      	ldrh	r2, [r4, #12]
    262c:	b293      	uxth	r3, r2
    262e:	0719      	lsls	r1, r3, #28
    2630:	d420      	bmi.n	2674 <__swsetup_r+0x7c>
    2632:	06dd      	lsls	r5, r3, #27
    2634:	d405      	bmi.n	2642 <__swsetup_r+0x4a>
    2636:	2309      	movs	r3, #9
    2638:	f042 0240 	orr.w	r2, r2, #64	; 0x40
    263c:	6033      	str	r3, [r6, #0]
    263e:	81a2      	strh	r2, [r4, #12]
    2640:	e03b      	b.n	26ba <__swsetup_r+0xc2>
    2642:	0758      	lsls	r0, r3, #29
    2644:	d512      	bpl.n	266c <__swsetup_r+0x74>
    2646:	6b61      	ldr	r1, [r4, #52]	; 0x34
    2648:	b141      	cbz	r1, 265c <__swsetup_r+0x64>
    264a:	f104 0344 	add.w	r3, r4, #68	; 0x44
    264e:	4299      	cmp	r1, r3
    2650:	d002      	beq.n	2658 <__swsetup_r+0x60>
    2652:	4630      	mov	r0, r6
    2654:	f7fe ffa8 	bl	15a8 <_free_r>
    2658:	2300      	movs	r3, #0
    265a:	6363      	str	r3, [r4, #52]	; 0x34
    265c:	89a3      	ldrh	r3, [r4, #12]
    265e:	f023 0324 	bic.w	r3, r3, #36	; 0x24
    2662:	81a3      	strh	r3, [r4, #12]
    2664:	2300      	movs	r3, #0
    2666:	6063      	str	r3, [r4, #4]
    2668:	6923      	ldr	r3, [r4, #16]
    266a:	6023      	str	r3, [r4, #0]
    266c:	89a3      	ldrh	r3, [r4, #12]
    266e:	f043 0308 	orr.w	r3, r3, #8
    2672:	81a3      	strh	r3, [r4, #12]
    2674:	6923      	ldr	r3, [r4, #16]
    2676:	b94b      	cbnz	r3, 268c <__swsetup_r+0x94>
    2678:	89a3      	ldrh	r3, [r4, #12]
    267a:	f403 7320 	and.w	r3, r3, #640	; 0x280
    267e:	f5b3 7f00 	cmp.w	r3, #512	; 0x200
    2682:	d003      	beq.n	268c <__swsetup_r+0x94>
    2684:	4630      	mov	r0, r6
    2686:	4621      	mov	r1, r4
    2688:	f000 f846 	bl	2718 <__smakebuf_r>
    268c:	89a3      	ldrh	r3, [r4, #12]
    268e:	f013 0201 	ands.w	r2, r3, #1
    2692:	d005      	beq.n	26a0 <__swsetup_r+0xa8>
    2694:	2200      	movs	r2, #0
    2696:	60a2      	str	r2, [r4, #8]
    2698:	6962      	ldr	r2, [r4, #20]
    269a:	4252      	negs	r2, r2
    269c:	61a2      	str	r2, [r4, #24]
    269e:	e003      	b.n	26a8 <__swsetup_r+0xb0>
    26a0:	0799      	lsls	r1, r3, #30
    26a2:	bf58      	it	pl
    26a4:	6962      	ldrpl	r2, [r4, #20]
    26a6:	60a2      	str	r2, [r4, #8]
    26a8:	6922      	ldr	r2, [r4, #16]
    26aa:	b94a      	cbnz	r2, 26c0 <__swsetup_r+0xc8>
    26ac:	f003 0080 	and.w	r0, r3, #128	; 0x80
    26b0:	b280      	uxth	r0, r0
    26b2:	b130      	cbz	r0, 26c2 <__swsetup_r+0xca>
    26b4:	f043 0340 	orr.w	r3, r3, #64	; 0x40
    26b8:	81a3      	strh	r3, [r4, #12]
    26ba:	f04f 30ff 	mov.w	r0, #4294967295	; 0xffffffff
    26be:	bd70      	pop	{r4, r5, r6, pc}
    26c0:	2000      	movs	r0, #0
    26c2:	bd70      	pop	{r4, r5, r6, pc}
    26c4:	10000130 	.word	0x10000130
    26c8:	00002ec8 	.word	0x00002ec8
    26cc:	00002ee8 	.word	0x00002ee8
    26d0:	00002f08 	.word	0x00002f08

000026d4 <_close_r>:
    26d4:	b538      	push	{r3, r4, r5, lr}
    26d6:	4c06      	ldr	r4, [pc, #24]	; (26f0 <_close_r+0x1c>)
    26d8:	2300      	movs	r3, #0
    26da:	4605      	mov	r5, r0
    26dc:	4608      	mov	r0, r1
    26de:	6023      	str	r3, [r4, #0]
    26e0:	f7fd fdcc 	bl	27c <_close>
    26e4:	1c43      	adds	r3, r0, #1
    26e6:	d102      	bne.n	26ee <_close_r+0x1a>
    26e8:	6823      	ldr	r3, [r4, #0]
    26ea:	b103      	cbz	r3, 26ee <_close_r+0x1a>
    26ec:	602b      	str	r3, [r5, #0]
    26ee:	bd38      	pop	{r3, r4, r5, pc}
    26f0:	10000360 	.word	0x10000360

000026f4 <_lseek_r>:
    26f4:	b538      	push	{r3, r4, r5, lr}
    26f6:	4c07      	ldr	r4, [pc, #28]	; (2714 <_lseek_r+0x20>)
    26f8:	4605      	mov	r5, r0
    26fa:	2000      	movs	r0, #0
    26fc:	6020      	str	r0, [r4, #0]
    26fe:	4608      	mov	r0, r1
    2700:	4611      	mov	r1, r2
    2702:	461a      	mov	r2, r3
    2704:	f7fd fe32 	bl	36c <_lseek>
    2708:	1c43      	adds	r3, r0, #1
    270a:	d102      	bne.n	2712 <_lseek_r+0x1e>
    270c:	6823      	ldr	r3, [r4, #0]
    270e:	b103      	cbz	r3, 2712 <_lseek_r+0x1e>
    2710:	602b      	str	r3, [r5, #0]
    2712:	bd38      	pop	{r3, r4, r5, pc}
    2714:	10000360 	.word	0x10000360

00002718 <__smakebuf_r>:
    2718:	b5f0      	push	{r4, r5, r6, r7, lr}
    271a:	898b      	ldrh	r3, [r1, #12]
    271c:	b091      	sub	sp, #68	; 0x44
    271e:	079e      	lsls	r6, r3, #30
    2720:	4605      	mov	r5, r0
    2722:	460c      	mov	r4, r1
    2724:	d425      	bmi.n	2772 <__smakebuf_r+0x5a>
    2726:	f9b1 100e 	ldrsh.w	r1, [r1, #14]
    272a:	2900      	cmp	r1, #0
    272c:	da08      	bge.n	2740 <__smakebuf_r+0x28>
    272e:	89a3      	ldrh	r3, [r4, #12]
    2730:	2700      	movs	r7, #0
    2732:	f013 0f80 	tst.w	r3, #128	; 0x80
    2736:	bf14      	ite	ne
    2738:	2640      	movne	r6, #64	; 0x40
    273a:	f44f 6680 	moveq.w	r6, #1024	; 0x400
    273e:	e00d      	b.n	275c <__smakebuf_r+0x44>
    2740:	aa01      	add	r2, sp, #4
    2742:	f000 fa41 	bl	2bc8 <_fstat_r>
    2746:	2800      	cmp	r0, #0
    2748:	dbf1      	blt.n	272e <__smakebuf_r+0x16>
    274a:	9f02      	ldr	r7, [sp, #8]
    274c:	f44f 6680 	mov.w	r6, #1024	; 0x400
    2750:	f407 4770 	and.w	r7, r7, #61440	; 0xf000
    2754:	f5b7 5100 	subs.w	r1, r7, #8192	; 0x2000
    2758:	424f      	negs	r7, r1
    275a:	414f      	adcs	r7, r1
    275c:	4628      	mov	r0, r5
    275e:	4631      	mov	r1, r6
    2760:	f7fe ff66 	bl	1630 <_malloc_r>
    2764:	b960      	cbnz	r0, 2780 <__smakebuf_r+0x68>
    2766:	89a3      	ldrh	r3, [r4, #12]
    2768:	059a      	lsls	r2, r3, #22
    276a:	d41d      	bmi.n	27a8 <__smakebuf_r+0x90>
    276c:	f043 0302 	orr.w	r3, r3, #2
    2770:	81a3      	strh	r3, [r4, #12]
    2772:	f104 0347 	add.w	r3, r4, #71	; 0x47
    2776:	6023      	str	r3, [r4, #0]
    2778:	6123      	str	r3, [r4, #16]
    277a:	2301      	movs	r3, #1
    277c:	6163      	str	r3, [r4, #20]
    277e:	e013      	b.n	27a8 <__smakebuf_r+0x90>
    2780:	4b0a      	ldr	r3, [pc, #40]	; (27ac <__smakebuf_r+0x94>)
    2782:	62ab      	str	r3, [r5, #40]	; 0x28
    2784:	89a3      	ldrh	r3, [r4, #12]
    2786:	6020      	str	r0, [r4, #0]
    2788:	f043 0380 	orr.w	r3, r3, #128	; 0x80
    278c:	81a3      	strh	r3, [r4, #12]
    278e:	6120      	str	r0, [r4, #16]
    2790:	6166      	str	r6, [r4, #20]
    2792:	b14f      	cbz	r7, 27a8 <__smakebuf_r+0x90>
    2794:	4628      	mov	r0, r5
    2796:	f9b4 100e 	ldrsh.w	r1, [r4, #14]
    279a:	f000 fa27 	bl	2bec <_isatty_r>
    279e:	b118      	cbz	r0, 27a8 <__smakebuf_r+0x90>
    27a0:	89a3      	ldrh	r3, [r4, #12]
    27a2:	f043 0301 	orr.w	r3, r3, #1
    27a6:	81a3      	strh	r3, [r4, #12]
    27a8:	b011      	add	sp, #68	; 0x44
    27aa:	bdf0      	pop	{r4, r5, r6, r7, pc}
    27ac:	00001269 	.word	0x00001269

000027b0 <memchr>:
    27b0:	b510      	push	{r4, lr}
    27b2:	b2c9      	uxtb	r1, r1
    27b4:	4402      	add	r2, r0
    27b6:	4290      	cmp	r0, r2
    27b8:	4603      	mov	r3, r0
    27ba:	d005      	beq.n	27c8 <memchr+0x18>
    27bc:	781c      	ldrb	r4, [r3, #0]
    27be:	3001      	adds	r0, #1
    27c0:	428c      	cmp	r4, r1
    27c2:	d1f8      	bne.n	27b6 <memchr+0x6>
    27c4:	4618      	mov	r0, r3
    27c6:	bd10      	pop	{r4, pc}
    27c8:	2000      	movs	r0, #0
    27ca:	bd10      	pop	{r4, pc}

000027cc <memcpy>:
    27cc:	b510      	push	{r4, lr}
    27ce:	2300      	movs	r3, #0
    27d0:	4293      	cmp	r3, r2
    27d2:	d003      	beq.n	27dc <memcpy+0x10>
    27d4:	5ccc      	ldrb	r4, [r1, r3]
    27d6:	54c4      	strb	r4, [r0, r3]
    27d8:	3301      	adds	r3, #1
    27da:	e7f9      	b.n	27d0 <memcpy+0x4>
    27dc:	bd10      	pop	{r4, pc}

000027de <_realloc_r>:
    27de:	b5f8      	push	{r3, r4, r5, r6, r7, lr}
    27e0:	4606      	mov	r6, r0
    27e2:	4614      	mov	r4, r2
    27e4:	460d      	mov	r5, r1
    27e6:	b921      	cbnz	r1, 27f2 <_realloc_r+0x14>
    27e8:	4611      	mov	r1, r2
    27ea:	e8bd 40f8 	ldmia.w	sp!, {r3, r4, r5, r6, r7, lr}
    27ee:	f7fe bf1f 	b.w	1630 <_malloc_r>
    27f2:	b91a      	cbnz	r2, 27fc <_realloc_r+0x1e>
    27f4:	f7fe fed8 	bl	15a8 <_free_r>
    27f8:	4620      	mov	r0, r4
    27fa:	bdf8      	pop	{r3, r4, r5, r6, r7, pc}
    27fc:	f000 fa06 	bl	2c0c <_malloc_usable_size_r>
    2800:	42a0      	cmp	r0, r4
    2802:	d20e      	bcs.n	2822 <_realloc_r+0x44>
    2804:	4630      	mov	r0, r6
    2806:	4621      	mov	r1, r4
    2808:	f7fe ff12 	bl	1630 <_malloc_r>
    280c:	4607      	mov	r7, r0
    280e:	b150      	cbz	r0, 2826 <_realloc_r+0x48>
    2810:	4629      	mov	r1, r5
    2812:	4622      	mov	r2, r4
    2814:	f7ff ffda 	bl	27cc <memcpy>
    2818:	4630      	mov	r0, r6
    281a:	4629      	mov	r1, r5
    281c:	f7fe fec4 	bl	15a8 <_free_r>
    2820:	e001      	b.n	2826 <_realloc_r+0x48>
    2822:	4628      	mov	r0, r5
    2824:	bdf8      	pop	{r3, r4, r5, r6, r7, pc}
    2826:	4638      	mov	r0, r7
    2828:	bdf8      	pop	{r3, r4, r5, r6, r7, pc}
	...

0000282c <_read_r>:
    282c:	b538      	push	{r3, r4, r5, lr}
    282e:	4c07      	ldr	r4, [pc, #28]	; (284c <_read_r+0x20>)
    2830:	4605      	mov	r5, r0
    2832:	2000      	movs	r0, #0
    2834:	6020      	str	r0, [r4, #0]
    2836:	4608      	mov	r0, r1
    2838:	4611      	mov	r1, r2
    283a:	461a      	mov	r2, r3
    283c:	f7fd fd5c 	bl	2f8 <_read>
    2840:	1c43      	adds	r3, r0, #1
    2842:	d102      	bne.n	284a <_read_r+0x1e>
    2844:	6823      	ldr	r3, [r4, #0]
    2846:	b103      	cbz	r3, 284a <_read_r+0x1e>
    2848:	602b      	str	r3, [r5, #0]
    284a:	bd38      	pop	{r3, r4, r5, pc}
    284c:	10000360 	.word	0x10000360

00002850 <lflush>:
    2850:	8983      	ldrh	r3, [r0, #12]
    2852:	f003 0309 	and.w	r3, r3, #9
    2856:	2b09      	cmp	r3, #9
    2858:	d101      	bne.n	285e <lflush+0xe>
    285a:	f7fe bcf3 	b.w	1244 <fflush>
    285e:	2000      	movs	r0, #0
    2860:	4770      	bx	lr
	...

00002864 <__srefill_r>:
    2864:	b5f8      	push	{r3, r4, r5, r6, r7, lr}
    2866:	460c      	mov	r4, r1
    2868:	4605      	mov	r5, r0
    286a:	b118      	cbz	r0, 2874 <__srefill_r+0x10>
    286c:	6983      	ldr	r3, [r0, #24]
    286e:	b90b      	cbnz	r3, 2874 <__srefill_r+0x10>
    2870:	f7fe fd4e 	bl	1310 <__sinit>
    2874:	4b39      	ldr	r3, [pc, #228]	; (295c <__srefill_r+0xf8>)
    2876:	429c      	cmp	r4, r3
    2878:	d101      	bne.n	287e <__srefill_r+0x1a>
    287a:	686c      	ldr	r4, [r5, #4]
    287c:	e008      	b.n	2890 <__srefill_r+0x2c>
    287e:	4b38      	ldr	r3, [pc, #224]	; (2960 <__srefill_r+0xfc>)
    2880:	429c      	cmp	r4, r3
    2882:	d101      	bne.n	2888 <__srefill_r+0x24>
    2884:	68ac      	ldr	r4, [r5, #8]
    2886:	e003      	b.n	2890 <__srefill_r+0x2c>
    2888:	4b36      	ldr	r3, [pc, #216]	; (2964 <__srefill_r+0x100>)
    288a:	429c      	cmp	r4, r3
    288c:	bf08      	it	eq
    288e:	68ec      	ldreq	r4, [r5, #12]
    2890:	89a2      	ldrh	r2, [r4, #12]
    2892:	2300      	movs	r3, #0
    2894:	6063      	str	r3, [r4, #4]
    2896:	b293      	uxth	r3, r2
    2898:	069e      	lsls	r6, r3, #26
    289a:	d45a      	bmi.n	2952 <__srefill_r+0xee>
    289c:	0758      	lsls	r0, r3, #29
    289e:	d41a      	bmi.n	28d6 <__srefill_r+0x72>
    28a0:	06d9      	lsls	r1, r3, #27
    28a2:	d405      	bmi.n	28b0 <__srefill_r+0x4c>
    28a4:	2309      	movs	r3, #9
    28a6:	f042 0240 	orr.w	r2, r2, #64	; 0x40
    28aa:	602b      	str	r3, [r5, #0]
    28ac:	81a2      	strh	r2, [r4, #12]
    28ae:	e050      	b.n	2952 <__srefill_r+0xee>
    28b0:	071a      	lsls	r2, r3, #28
    28b2:	d50b      	bpl.n	28cc <__srefill_r+0x68>
    28b4:	4628      	mov	r0, r5
    28b6:	4621      	mov	r1, r4
    28b8:	f7fe fc9a 	bl	11f0 <_fflush_r>
    28bc:	2800      	cmp	r0, #0
    28be:	d148      	bne.n	2952 <__srefill_r+0xee>
    28c0:	89a3      	ldrh	r3, [r4, #12]
    28c2:	60a0      	str	r0, [r4, #8]
    28c4:	f023 0308 	bic.w	r3, r3, #8
    28c8:	81a3      	strh	r3, [r4, #12]
    28ca:	61a0      	str	r0, [r4, #24]
    28cc:	89a3      	ldrh	r3, [r4, #12]
    28ce:	f043 0304 	orr.w	r3, r3, #4
    28d2:	81a3      	strh	r3, [r4, #12]
    28d4:	e010      	b.n	28f8 <__srefill_r+0x94>
    28d6:	6b61      	ldr	r1, [r4, #52]	; 0x34
    28d8:	b171      	cbz	r1, 28f8 <__srefill_r+0x94>
    28da:	f104 0344 	add.w	r3, r4, #68	; 0x44
    28de:	4299      	cmp	r1, r3
    28e0:	d002      	beq.n	28e8 <__srefill_r+0x84>
    28e2:	4628      	mov	r0, r5
    28e4:	f7fe fe60 	bl	15a8 <_free_r>
    28e8:	6c23      	ldr	r3, [r4, #64]	; 0x40
    28ea:	2000      	movs	r0, #0
    28ec:	6360      	str	r0, [r4, #52]	; 0x34
    28ee:	6063      	str	r3, [r4, #4]
    28f0:	b113      	cbz	r3, 28f8 <__srefill_r+0x94>
    28f2:	6be3      	ldr	r3, [r4, #60]	; 0x3c
    28f4:	6023      	str	r3, [r4, #0]
    28f6:	bdf8      	pop	{r3, r4, r5, r6, r7, pc}
    28f8:	6923      	ldr	r3, [r4, #16]
    28fa:	b91b      	cbnz	r3, 2904 <__srefill_r+0xa0>
    28fc:	4628      	mov	r0, r5
    28fe:	4621      	mov	r1, r4
    2900:	f7ff ff0a 	bl	2718 <__smakebuf_r>
    2904:	89a7      	ldrh	r7, [r4, #12]
    2906:	b2be      	uxth	r6, r7
    2908:	07b3      	lsls	r3, r6, #30
    290a:	d00f      	beq.n	292c <__srefill_r+0xc8>
    290c:	2301      	movs	r3, #1
    290e:	81a3      	strh	r3, [r4, #12]
    2910:	4b15      	ldr	r3, [pc, #84]	; (2968 <__srefill_r+0x104>)
    2912:	4916      	ldr	r1, [pc, #88]	; (296c <__srefill_r+0x108>)
    2914:	6818      	ldr	r0, [r3, #0]
    2916:	f006 0609 	and.w	r6, r6, #9
    291a:	f7fe fd75 	bl	1408 <_fwalk>
    291e:	2e09      	cmp	r6, #9
    2920:	81a7      	strh	r7, [r4, #12]
    2922:	d103      	bne.n	292c <__srefill_r+0xc8>
    2924:	4628      	mov	r0, r5
    2926:	4621      	mov	r1, r4
    2928:	f7fe fbde 	bl	10e8 <__sflush_r>
    292c:	6922      	ldr	r2, [r4, #16]
    292e:	6a66      	ldr	r6, [r4, #36]	; 0x24
    2930:	6022      	str	r2, [r4, #0]
    2932:	4628      	mov	r0, r5
    2934:	6a21      	ldr	r1, [r4, #32]
    2936:	6963      	ldr	r3, [r4, #20]
    2938:	47b0      	blx	r6
    293a:	2800      	cmp	r0, #0
    293c:	6060      	str	r0, [r4, #4]
    293e:	dc0b      	bgt.n	2958 <__srefill_r+0xf4>
    2940:	89a3      	ldrh	r3, [r4, #12]
    2942:	bf17      	itett	ne
    2944:	2200      	movne	r2, #0
    2946:	f043 0320 	orreq.w	r3, r3, #32
    294a:	f043 0340 	orrne.w	r3, r3, #64	; 0x40
    294e:	6062      	strne	r2, [r4, #4]
    2950:	81a3      	strh	r3, [r4, #12]
    2952:	f04f 30ff 	mov.w	r0, #4294967295	; 0xffffffff
    2956:	bdf8      	pop	{r3, r4, r5, r6, r7, pc}
    2958:	2000      	movs	r0, #0
    295a:	bdf8      	pop	{r3, r4, r5, r6, r7, pc}
    295c:	00002ec8 	.word	0x00002ec8
    2960:	00002ee8 	.word	0x00002ee8
    2964:	00002f08 	.word	0x00002f08
    2968:	00002f2c 	.word	0x00002f2c
    296c:	00002851 	.word	0x00002851

00002970 <__sccl>:
    2970:	b5f0      	push	{r4, r5, r6, r7, lr}
    2972:	780b      	ldrb	r3, [r1, #0]
    2974:	2b5e      	cmp	r3, #94	; 0x5e
    2976:	d002      	beq.n	297e <__sccl+0xe>
    2978:	1c4c      	adds	r4, r1, #1
    297a:	2100      	movs	r1, #0
    297c:	e002      	b.n	2984 <__sccl+0x14>
    297e:	1c8c      	adds	r4, r1, #2
    2980:	784b      	ldrb	r3, [r1, #1]
    2982:	2101      	movs	r1, #1
    2984:	2200      	movs	r2, #0
    2986:	5481      	strb	r1, [r0, r2]
    2988:	3201      	adds	r2, #1
    298a:	f5b2 7f80 	cmp.w	r2, #256	; 0x100
    298e:	d1fa      	bne.n	2986 <__sccl+0x16>
    2990:	b90b      	cbnz	r3, 2996 <__sccl+0x26>
    2992:	1e65      	subs	r5, r4, #1
    2994:	e01b      	b.n	29ce <__sccl+0x5e>
    2996:	f1c1 0701 	rsb	r7, r1, #1
    299a:	b2fe      	uxtb	r6, r7
    299c:	54c6      	strb	r6, [r0, r3]
    299e:	1c62      	adds	r2, r4, #1
    29a0:	f812 1c01 	ldrb.w	r1, [r2, #-1]
    29a4:	1e55      	subs	r5, r2, #1
    29a6:	292d      	cmp	r1, #45	; 0x2d
    29a8:	4614      	mov	r4, r2
    29aa:	d004      	beq.n	29b6 <__sccl+0x46>
    29ac:	295d      	cmp	r1, #93	; 0x5d
    29ae:	d00d      	beq.n	29cc <__sccl+0x5c>
    29b0:	b169      	cbz	r1, 29ce <__sccl+0x5e>
    29b2:	460b      	mov	r3, r1
    29b4:	e7f1      	b.n	299a <__sccl+0x2a>
    29b6:	7815      	ldrb	r5, [r2, #0]
    29b8:	2d5d      	cmp	r5, #93	; 0x5d
    29ba:	d0fa      	beq.n	29b2 <__sccl+0x42>
    29bc:	429d      	cmp	r5, r3
    29be:	dbf8      	blt.n	29b2 <__sccl+0x42>
    29c0:	3301      	adds	r3, #1
    29c2:	42ab      	cmp	r3, r5
    29c4:	54c6      	strb	r6, [r0, r3]
    29c6:	dbfb      	blt.n	29c0 <__sccl+0x50>
    29c8:	3202      	adds	r2, #2
    29ca:	e7e9      	b.n	29a0 <__sccl+0x30>
    29cc:	4615      	mov	r5, r2
    29ce:	4628      	mov	r0, r5
    29d0:	bdf0      	pop	{r4, r5, r6, r7, pc}
	...

000029d4 <_strtol_r>:
    29d4:	4684      	mov	r12, r0
    29d6:	483f      	ldr	r0, [pc, #252]	; (2ad4 <_strtol_r+0x100>)
    29d8:	e92d 4ff0 	stmdb	sp!, {r4, r5, r6, r7, r8, r9, r10, r11, lr}
    29dc:	f8d0 8000 	ldr.w	r8, [r0]
    29e0:	460e      	mov	r6, r1
    29e2:	4634      	mov	r4, r6
    29e4:	f814 5b01 	ldrb.w	r5, [r4], #1
    29e8:	eb08 0005 	add.w	r0, r8, r5
    29ec:	7840      	ldrb	r0, [r0, #1]
    29ee:	f000 0008 	and.w	r0, r0, #8
    29f2:	f000 07ff 	and.w	r7, r0, #255	; 0xff
    29f6:	b108      	cbz	r0, 29fc <_strtol_r+0x28>
    29f8:	4626      	mov	r6, r4
    29fa:	e7f2      	b.n	29e2 <_strtol_r+0xe>
    29fc:	2d2d      	cmp	r5, #45	; 0x2d
    29fe:	d103      	bne.n	2a08 <_strtol_r+0x34>
    2a00:	1cb4      	adds	r4, r6, #2
    2a02:	7875      	ldrb	r5, [r6, #1]
    2a04:	2701      	movs	r7, #1
    2a06:	e003      	b.n	2a10 <_strtol_r+0x3c>
    2a08:	2d2b      	cmp	r5, #43	; 0x2b
    2a0a:	bf04      	itt	eq
    2a0c:	7875      	ldrbeq	r5, [r6, #1]
    2a0e:	1cb4      	addeq	r4, r6, #2
    2a10:	f033 0010 	bics.w	r0, r3, #16
    2a14:	d10d      	bne.n	2a32 <_strtol_r+0x5e>
    2a16:	2d30      	cmp	r5, #48	; 0x30
    2a18:	d108      	bne.n	2a2c <_strtol_r+0x58>
    2a1a:	7820      	ldrb	r0, [r4, #0]
    2a1c:	f000 00df 	and.w	r0, r0, #223	; 0xdf
    2a20:	2858      	cmp	r0, #88	; 0x58
    2a22:	d151      	bne.n	2ac8 <_strtol_r+0xf4>
    2a24:	7865      	ldrb	r5, [r4, #1]
    2a26:	2310      	movs	r3, #16
    2a28:	3402      	adds	r4, #2
    2a2a:	e002      	b.n	2a32 <_strtol_r+0x5e>
    2a2c:	2b00      	cmp	r3, #0
    2a2e:	bf08      	it	eq
    2a30:	230a      	moveq	r3, #10
    2a32:	2f00      	cmp	r7, #0
    2a34:	bf0c      	ite	eq
    2a36:	f06f 4a00 	mvneq.w	r10, #2147483648	; 0x80000000
    2a3a:	f04f 4a00 	movne.w	r10, #2147483648	; 0x80000000
    2a3e:	fbba f9f3 	udiv	r9, r10, r3
    2a42:	fb03 aa19 	mls	r10, r3, r9, r10
    2a46:	2600      	movs	r6, #0
    2a48:	4630      	mov	r0, r6
    2a4a:	eb08 0b05 	add.w	r11, r8, r5
    2a4e:	f89b b001 	ldrb.w	r11, [r11, #1]
    2a52:	f01b 0f04 	tst.w	r11, #4
    2a56:	d001      	beq.n	2a5c <_strtol_r+0x88>
    2a58:	3d30      	subs	r5, #48	; 0x30
    2a5a:	e00b      	b.n	2a74 <_strtol_r+0xa0>
    2a5c:	f01b 0b03 	ands.w	r11, r11, #3
    2a60:	d01b      	beq.n	2a9a <_strtol_r+0xc6>
    2a62:	f1bb 0f01 	cmp.w	r11, #1
    2a66:	bf14      	ite	ne
    2a68:	f04f 0b57 	movne.w	r11, #87	; 0x57
    2a6c:	f04f 0b37 	moveq.w	r11, #55	; 0x37
    2a70:	ebcb 0505 	rsb	r5, r11, r5
    2a74:	429d      	cmp	r5, r3
    2a76:	da10      	bge.n	2a9a <_strtol_r+0xc6>
    2a78:	f1b6 3fff 	cmp.w	r6, #4294967295	; 0xffffffff
    2a7c:	d00a      	beq.n	2a94 <_strtol_r+0xc0>
    2a7e:	4548      	cmp	r0, r9
    2a80:	d806      	bhi.n	2a90 <_strtol_r+0xbc>
    2a82:	d101      	bne.n	2a88 <_strtol_r+0xb4>
    2a84:	4555      	cmp	r5, r10
    2a86:	dc03      	bgt.n	2a90 <_strtol_r+0xbc>
    2a88:	fb03 5000 	mla	r0, r3, r0, r5
    2a8c:	2601      	movs	r6, #1
    2a8e:	e001      	b.n	2a94 <_strtol_r+0xc0>
    2a90:	f04f 36ff 	mov.w	r6, #4294967295	; 0xffffffff
    2a94:	f814 5b01 	ldrb.w	r5, [r4], #1
    2a98:	e7d7      	b.n	2a4a <_strtol_r+0x76>
    2a9a:	1c73      	adds	r3, r6, #1
    2a9c:	d10c      	bne.n	2ab8 <_strtol_r+0xe4>
    2a9e:	2f00      	cmp	r7, #0
    2aa0:	f04f 0322 	mov.w	r3, #34	; 0x22
    2aa4:	bf0c      	ite	eq
    2aa6:	f06f 4000 	mvneq.w	r0, #2147483648	; 0x80000000
    2aaa:	f04f 4000 	movne.w	r0, #2147483648	; 0x80000000
    2aae:	f8cc 3000 	str.w	r3, [r12]
    2ab2:	b92a      	cbnz	r2, 2ac0 <_strtol_r+0xec>
    2ab4:	e8bd 8ff0 	ldmia.w	sp!, {r4, r5, r6, r7, r8, r9, r10, r11, pc}
    2ab8:	b107      	cbz	r7, 2abc <_strtol_r+0xe8>
    2aba:	4240      	negs	r0, r0
    2abc:	b142      	cbz	r2, 2ad0 <_strtol_r+0xfc>
    2abe:	b106      	cbz	r6, 2ac2 <_strtol_r+0xee>
    2ac0:	1e61      	subs	r1, r4, #1
    2ac2:	6011      	str	r1, [r2, #0]
    2ac4:	e8bd 8ff0 	ldmia.w	sp!, {r4, r5, r6, r7, r8, r9, r10, r11, pc}
    2ac8:	2b00      	cmp	r3, #0
    2aca:	bf08      	it	eq
    2acc:	2308      	moveq	r3, #8
    2ace:	e7b0      	b.n	2a32 <_strtol_r+0x5e>
    2ad0:	e8bd 8ff0 	ldmia.w	sp!, {r4, r5, r6, r7, r8, r9, r10, r11, pc}
    2ad4:	10000134 	.word	0x10000134

00002ad8 <_strtoul_r>:
    2ad8:	4684      	mov	r12, r0
    2ada:	483a      	ldr	r0, [pc, #232]	; (2bc4 <_strtoul_r+0xec>)
    2adc:	e92d 4ff0 	stmdb	sp!, {r4, r5, r6, r7, r8, r9, r10, r11, lr}
    2ae0:	f8d0 8000 	ldr.w	r8, [r0]
    2ae4:	460e      	mov	r6, r1
    2ae6:	4634      	mov	r4, r6
    2ae8:	f814 5b01 	ldrb.w	r5, [r4], #1
    2aec:	eb08 0005 	add.w	r0, r8, r5
    2af0:	7840      	ldrb	r0, [r0, #1]
    2af2:	f000 0008 	and.w	r0, r0, #8
    2af6:	f000 07ff 	and.w	r7, r0, #255	; 0xff
    2afa:	b108      	cbz	r0, 2b00 <_strtoul_r+0x28>
    2afc:	4626      	mov	r6, r4
    2afe:	e7f2      	b.n	2ae6 <_strtoul_r+0xe>
    2b00:	2d2d      	cmp	r5, #45	; 0x2d
    2b02:	d103      	bne.n	2b0c <_strtoul_r+0x34>
    2b04:	1cb4      	adds	r4, r6, #2
    2b06:	7875      	ldrb	r5, [r6, #1]
    2b08:	2701      	movs	r7, #1
    2b0a:	e003      	b.n	2b14 <_strtoul_r+0x3c>
    2b0c:	2d2b      	cmp	r5, #43	; 0x2b
    2b0e:	bf04      	itt	eq
    2b10:	7875      	ldrbeq	r5, [r6, #1]
    2b12:	1cb4      	addeq	r4, r6, #2
    2b14:	f033 0010 	bics.w	r0, r3, #16
    2b18:	d10d      	bne.n	2b36 <_strtoul_r+0x5e>
    2b1a:	2d30      	cmp	r5, #48	; 0x30
    2b1c:	d108      	bne.n	2b30 <_strtoul_r+0x58>
    2b1e:	7820      	ldrb	r0, [r4, #0]
    2b20:	f000 00df 	and.w	r0, r0, #223	; 0xdf
    2b24:	2858      	cmp	r0, #88	; 0x58
    2b26:	d147      	bne.n	2bb8 <_strtoul_r+0xe0>
    2b28:	7865      	ldrb	r5, [r4, #1]
    2b2a:	2310      	movs	r3, #16
    2b2c:	3402      	adds	r4, #2
    2b2e:	e002      	b.n	2b36 <_strtoul_r+0x5e>
    2b30:	2b00      	cmp	r3, #0
    2b32:	bf08      	it	eq
    2b34:	230a      	moveq	r3, #10
    2b36:	f04f 39ff 	mov.w	r9, #4294967295	; 0xffffffff
    2b3a:	fbb9 f9f3 	udiv	r9, r9, r3
    2b3e:	fb03 fa09 	mul.w	r10, r3, r9
    2b42:	2600      	movs	r6, #0
    2b44:	ea6f 0a0a 	mvn.w	r10, r10
    2b48:	4630      	mov	r0, r6
    2b4a:	eb08 0b05 	add.w	r11, r8, r5
    2b4e:	f89b b001 	ldrb.w	r11, [r11, #1]
    2b52:	f01b 0f04 	tst.w	r11, #4
    2b56:	d001      	beq.n	2b5c <_strtoul_r+0x84>
    2b58:	3d30      	subs	r5, #48	; 0x30
    2b5a:	e00b      	b.n	2b74 <_strtoul_r+0x9c>
    2b5c:	f01b 0b03 	ands.w	r11, r11, #3
    2b60:	d01a      	beq.n	2b98 <_strtoul_r+0xc0>
    2b62:	f1bb 0f01 	cmp.w	r11, #1
    2b66:	bf14      	ite	ne
    2b68:	f04f 0b57 	movne.w	r11, #87	; 0x57
    2b6c:	f04f 0b37 	moveq.w	r11, #55	; 0x37
    2b70:	ebcb 0505 	rsb	r5, r11, r5
    2b74:	429d      	cmp	r5, r3
    2b76:	da0f      	bge.n	2b98 <_strtoul_r+0xc0>
    2b78:	2e00      	cmp	r6, #0
    2b7a:	db08      	blt.n	2b8e <_strtoul_r+0xb6>
    2b7c:	4548      	cmp	r0, r9
    2b7e:	d806      	bhi.n	2b8e <_strtoul_r+0xb6>
    2b80:	d101      	bne.n	2b86 <_strtoul_r+0xae>
    2b82:	4555      	cmp	r5, r10
    2b84:	dc03      	bgt.n	2b8e <_strtoul_r+0xb6>
    2b86:	fb03 5000 	mla	r0, r3, r0, r5
    2b8a:	2601      	movs	r6, #1
    2b8c:	e001      	b.n	2b92 <_strtoul_r+0xba>
    2b8e:	f04f 36ff 	mov.w	r6, #4294967295	; 0xffffffff
    2b92:	f814 5b01 	ldrb.w	r5, [r4], #1
    2b96:	e7d8      	b.n	2b4a <_strtoul_r+0x72>
    2b98:	2e00      	cmp	r6, #0
    2b9a:	da05      	bge.n	2ba8 <_strtoul_r+0xd0>
    2b9c:	2322      	movs	r3, #34	; 0x22
    2b9e:	f8cc 3000 	str.w	r3, [r12]
    2ba2:	f04f 30ff 	mov.w	r0, #4294967295	; 0xffffffff
    2ba6:	e001      	b.n	2bac <_strtoul_r+0xd4>
    2ba8:	b107      	cbz	r7, 2bac <_strtoul_r+0xd4>
    2baa:	4240      	negs	r0, r0
    2bac:	b142      	cbz	r2, 2bc0 <_strtoul_r+0xe8>
    2bae:	b106      	cbz	r6, 2bb2 <_strtoul_r+0xda>
    2bb0:	1e61      	subs	r1, r4, #1
    2bb2:	6011      	str	r1, [r2, #0]
    2bb4:	e8bd 8ff0 	ldmia.w	sp!, {r4, r5, r6, r7, r8, r9, r10, r11, pc}
    2bb8:	2b00      	cmp	r3, #0
    2bba:	bf08      	it	eq
    2bbc:	2308      	moveq	r3, #8
    2bbe:	e7ba      	b.n	2b36 <_strtoul_r+0x5e>
    2bc0:	e8bd 8ff0 	ldmia.w	sp!, {r4, r5, r6, r7, r8, r9, r10, r11, pc}
    2bc4:	10000134 	.word	0x10000134

00002bc8 <_fstat_r>:
    2bc8:	b538      	push	{r3, r4, r5, lr}
    2bca:	4c07      	ldr	r4, [pc, #28]	; (2be8 <_fstat_r+0x20>)
    2bcc:	2300      	movs	r3, #0
    2bce:	4605      	mov	r5, r0
    2bd0:	4608      	mov	r0, r1
    2bd2:	4611      	mov	r1, r2
    2bd4:	6023      	str	r3, [r4, #0]
    2bd6:	f7fd fbdd 	bl	394 <_fstat>
    2bda:	1c43      	adds	r3, r0, #1
    2bdc:	d102      	bne.n	2be4 <_fstat_r+0x1c>
    2bde:	6823      	ldr	r3, [r4, #0]
    2be0:	b103      	cbz	r3, 2be4 <_fstat_r+0x1c>
    2be2:	602b      	str	r3, [r5, #0]
    2be4:	bd38      	pop	{r3, r4, r5, pc}
    2be6:	bf00      	nop
    2be8:	10000360 	.word	0x10000360

00002bec <_isatty_r>:
    2bec:	b538      	push	{r3, r4, r5, lr}
    2bee:	4c06      	ldr	r4, [pc, #24]	; (2c08 <_isatty_r+0x1c>)
    2bf0:	2300      	movs	r3, #0
    2bf2:	4605      	mov	r5, r0
    2bf4:	4608      	mov	r0, r1
    2bf6:	6023      	str	r3, [r4, #0]
    2bf8:	f7fd fb00 	bl	1fc <__wrap__isatty>
    2bfc:	1c43      	adds	r3, r0, #1
    2bfe:	d102      	bne.n	2c06 <_isatty_r+0x1a>
    2c00:	6823      	ldr	r3, [r4, #0]
    2c02:	b103      	cbz	r3, 2c06 <_isatty_r+0x1a>
    2c04:	602b      	str	r3, [r5, #0]
    2c06:	bd38      	pop	{r3, r4, r5, pc}
    2c08:	10000360 	.word	0x10000360

00002c0c <_malloc_usable_size_r>:
    2c0c:	f851 0c04 	ldr.w	r0, [r1, #-4]
    2c10:	2800      	cmp	r0, #0
    2c12:	da02      	bge.n	2c1a <_malloc_usable_size_r+0xe>
    2c14:	3904      	subs	r1, #4
    2c16:	580b      	ldr	r3, [r1, r0]
    2c18:	4418      	add	r0, r3
    2c1a:	3804      	subs	r0, #4
    2c1c:	4770      	bx	lr
	...

00002c20 <_init>:
    2c20:	b5f8      	push	{r3, r4, r5, r6, r7, lr}
    2c22:	bf00      	nop
    2c24:	bcf8      	pop	{r3, r4, r5, r6, r7}
    2c26:	bc08      	pop	{r3}
    2c28:	469e      	mov	lr, r3
    2c2a:	4770      	bx	lr

00002c2c <_fini>:
    2c2c:	b5f8      	push	{r3, r4, r5, r6, r7, lr}
    2c2e:	bf00      	nop
    2c30:	bcf8      	pop	{r3, r4, r5, r6, r7}
    2c32:	bc08      	pop	{r3}
    2c34:	469e      	mov	lr, r3
    2c36:	4770      	bx	lr
    2c38:	0a0d0a0d 	.word	0x0a0d0a0d
    2c3c:	34434347 	.word	0x34434347
    2c40:	4445424d 	.word	0x4445424d
    2c44:	73655420 	.word	0x73655420
    2c48:	75532074 	.word	0x75532074
    2c4c:	0d657469 	.word	0x0d657469
    2c50:	00000000 	.word	0x00000000
    2c54:	6e617453 	.word	0x6e617453
    2c58:	64726164 	.word	0x64726164
    2c5c:	4f2f4920 	.word	0x4f2f4920
    2c60:	696e5520 	.word	0x696e5520
    2c64:	65542074 	.word	0x65542074
    2c68:	0d737473 	.word	0x0d737473
    2c6c:	00000000 	.word	0x00000000
    2c70:	74736554 	.word	0x74736554
    2c74:	203a3120 	.word	0x203a3120
    2c78:	6e697270 	.word	0x6e697270
    2c7c:	29286674 	.word	0x29286674
    2c80:	73657420 	.word	0x73657420
    2c84:	00000d74 	.word	0x00000d74
    2c88:	74736554 	.word	0x74736554
    2c8c:	203a3220 	.word	0x203a3220
    2c90:	6e616373 	.word	0x6e616373
    2c94:	20292866 	.word	0x20292866
    2c98:	74736574 	.word	0x74736574
    2c9c:	0000000d 	.word	0x0000000d
    2ca0:	20202020 	.word	0x20202020
    2ca4:	65707954 	.word	0x65707954
    2ca8:	6d756e20 	.word	0x6d756e20
    2cac:	20726562 	.word	0x20726562
    2cb0:	20646e61 	.word	0x20646e61
    2cb4:	73657270 	.word	0x73657270
    2cb8:	6e452073 	.word	0x6e452073
    2cbc:	3a726574 	.word	0x3a726574
    2cc0:	00000020 	.word	0x00000020
    2cc4:	00006425 	.word	0x00006425
    2cc8:	2020200a 	.word	0x2020200a
    2ccc:	756f5920 	.word	0x756f5920
    2cd0:	61762072 	.word	0x61762072
    2cd4:	2065756c 	.word	0x2065756c
    2cd8:	3a736177 	.word	0x3a736177
    2cdc:	0d642520 	.word	0x0d642520
    2ce0:	0000000a 	.word	0x0000000a
    2ce4:	74736554 	.word	0x74736554
    2ce8:	203a3320 	.word	0x203a3320
    2cec:	69727066 	.word	0x69727066
    2cf0:	2866746e 	.word	0x2866746e
    2cf4:	6f647473 	.word	0x6f647473
    2cf8:	202c7475 	.word	0x202c7475
    2cfc:	292e2e2e 	.word	0x292e2e2e
    2d00:	73657420 	.word	0x73657420
    2d04:	000a0d74 	.word	0x000a0d74
    2d08:	74736554 	.word	0x74736554
    2d0c:	203a3420 	.word	0x203a3420
    2d10:	69727066 	.word	0x69727066
    2d14:	2866746e 	.word	0x2866746e
    2d18:	65647473 	.word	0x65647473
    2d1c:	202c7272 	.word	0x202c7272
    2d20:	292e2e2e 	.word	0x292e2e2e
    2d24:	73657420 	.word	0x73657420
    2d28:	000a0d74 	.word	0x000a0d74
    2d2c:	74736554 	.word	0x74736554
    2d30:	203a3520 	.word	0x203a3520
    2d34:	61637366 	.word	0x61637366
    2d38:	7328666e 	.word	0x7328666e
    2d3c:	6e696474 	.word	0x6e696474
    2d40:	2e2e202c 	.word	0x2e2e202c
    2d44:	7420292e 	.word	0x7420292e
    2d48:	0d747365 	.word	0x0d747365
    2d4c:	00000000 	.word	0x00000000
    2d50:	74736554 	.word	0x74736554
    2d54:	6d6f6320 	.word	0x6d6f6320
    2d58:	74656c70 	.word	0x74656c70
    2d5c:	00000d65 	.word	0x00000d65

00002d60 <PinMap_UART_RTS>:
    2d60:	2009c016 40010000 00000001 2009c047     ... ...@....G.. 
    2d70:	40010000 00000002 ffffffff ffffffff     ...@............
    2d80:	00000000                                ....

00002d84 <PinMap_UART_RX>:
    2d84:	2009c001 4009c000 00000002 2009c003     ... ...@....... 
    2d94:	4000c000 00000001 2009c00b 40098000     ...@....... ...@
    2da4:	00000001 2009c010 40010000 00000001     ....... ...@....
    2db4:	2009c01a 4009c000 00000003 2009c041     ... ...@....A.. 
    2dc4:	40010000 00000002 2009c049 40098000     ...@....I.. ...@
    2dd4:	00000002 2009c09d 4009c000 00000003     ....... ...@....
    2de4:	ffffffff ffffffff 00000000              ............

00002df0 <PinMap_UART_TX>:
    2df0:	2009c000 4009c000 00000002 2009c002     ... ...@....... 
    2e00:	4000c000 00000001 2009c00a 40098000     ...@....... ...@
    2e10:	00000001 2009c00f 40010000 00000001     ....... ...@....
    2e20:	2009c019 4009c000 00000003 2009c040     ... ...@....@.. 
    2e30:	40010000 00000002 2009c048 40098000     ...@....H.. ...@
    2e40:	00000002 2009c09c 4009c000 00000003     ....... ...@....
    2e50:	ffffffff ffffffff 00000000              ............

00002e5c <PinMap_UART_CTS>:
    2e5c:	2009c011 40010000 00000001 2009c042     ... ...@....B.. 
    2e6c:	40010000 00000002 ffffffff ffffffff     ...@............
    2e7c:	00000000 6c756f63 6f6e2064 69702074     ....could not pi
    2e8c:	74756f6e 00000000 6d6e6970 6d207061     nout....pinmap m
    2e9c:	6d2d7369 68637461 00000000 6d6e6970     is-match....pinm
    2eac:	6e207061 6620746f 646e756f 726f6620     ap not found for
    2ebc:	72657020 65687069 006c6172               peripheral.

00002ec8 <__sf_fake_stdin>:
	...

00002ee8 <__sf_fake_stdout>:
	...

00002f08 <__sf_fake_stderr>:
	...
    2f28:	00000043                                C...

00002f2c <_global_impure_ptr>:
    2f2c:	100000d0 2b302d23 6c680020 6665004c     ....#-0+ .hlL.ef
    2f3c:	47464567 32313000 36353433 41393837     gEFG.0123456789A
    2f4c:	45444342 31300046 35343332 39383736     BCDEF.0123456789
    2f5c:	64636261 00006665 00002f82 00002f85     abcdef.../.../..
    2f6c:	00002f88 61462d41 3938662d 33323130     ./..A-Fa-f890123
    2f7c:	37363534 2d2b005d 00303000 00005878              4567].+-.00.xX.

00002f8b <_ctype_>:
    2f8b:	20202000 20202020 28282020 20282828     .         ((((( 
    2f9b:	20202020 20202020 20202020 20202020                     
    2fab:	10108820 10101010 10101010 10101010      ...............
    2fbb:	04040410 04040404 10040404 10101010     ................
    2fcb:	41411010 41414141 01010101 01010101     ..AAAAAA........
    2fdb:	01010101 01010101 01010101 10101010     ................
    2feb:	42421010 42424242 02020202 02020202     ..BBBBBB........
    2ffb:	02020202 02020202 02020202 10101010     ................
    300b:	00000020 00000000 00000000 00000000      ...............
	...

0000308c <__EH_FRAME_BEGIN__>:
    308c:	00000000                                ....
