
LPC1768/USBMouse.elf:     file format elf32-littlearm
architecture: arm, flags 0x00000112:
EXEC_P, HAS_SYMS, D_PAGED
start address 0x00001979


Disassembly of section .text:

00000000 <__isr_vector>:
       0:	10008000 	.word	0x10008000
       4:	00001979 	.word	0x00001979
       8:	000019a9 	.word	0x000019a9
       c:	000019ab 	.word	0x000019ab
      10:	000019ad 	.word	0x000019ad
      14:	000019af 	.word	0x000019af
      18:	000019b1 	.word	0x000019b1
	...
      2c:	000019b3 	.word	0x000019b3
      30:	000019b5 	.word	0x000019b5
      34:	00000000 	.word	0x00000000
      38:	000019b7 	.word	0x000019b7
      3c:	000019b9 	.word	0x000019b9
      40:	000019bb 	.word	0x000019bb
      44:	000019bb 	.word	0x000019bb
      48:	000019bb 	.word	0x000019bb
      4c:	000019bb 	.word	0x000019bb
      50:	000019bb 	.word	0x000019bb
      54:	000019bb 	.word	0x000019bb
      58:	000019bb 	.word	0x000019bb
      5c:	000019bb 	.word	0x000019bb
      60:	000019bb 	.word	0x000019bb
      64:	000019bb 	.word	0x000019bb
      68:	000019bb 	.word	0x000019bb
      6c:	000019bb 	.word	0x000019bb
      70:	000019bb 	.word	0x000019bb
      74:	000019bb 	.word	0x000019bb
      78:	000019bb 	.word	0x000019bb
      7c:	000019bb 	.word	0x000019bb
      80:	000019bb 	.word	0x000019bb
      84:	000019bb 	.word	0x000019bb
      88:	000019bb 	.word	0x000019bb
      8c:	000019bb 	.word	0x000019bb
      90:	000019bb 	.word	0x000019bb
      94:	000019bb 	.word	0x000019bb
      98:	000019bb 	.word	0x000019bb
      9c:	000019bb 	.word	0x000019bb
      a0:	000019bb 	.word	0x000019bb
      a4:	000019bb 	.word	0x000019bb
      a8:	000019bb 	.word	0x000019bb
      ac:	000019bb 	.word	0x000019bb
      b0:	000019bb 	.word	0x000019bb
      b4:	000019bb 	.word	0x000019bb
      b8:	000019bb 	.word	0x000019bb
      bc:	000019bb 	.word	0x000019bb
      c0:	000019bb 	.word	0x000019bb
      c4:	000019bb 	.word	0x000019bb
      c8:	000019bb 	.word	0x000019bb

000000cc <__do_global_dtors_aux>:
      cc:	b510      	push	{r4, lr}
      ce:	4c05      	ldr	r4, [pc, #20]	; (e4 <__do_global_dtors_aux+0x18>)
      d0:	7823      	ldrb	r3, [r4, #0]
      d2:	b933      	cbnz	r3, e2 <__do_global_dtors_aux+0x16>
      d4:	4b04      	ldr	r3, [pc, #16]	; (e8 <__do_global_dtors_aux+0x1c>)
      d6:	b113      	cbz	r3, de <__do_global_dtors_aux+0x12>
      d8:	4804      	ldr	r0, [pc, #16]	; (ec <__do_global_dtors_aux+0x20>)
      da:	f3af 8000 	nop.w
      de:	2301      	movs	r3, #1
      e0:	7023      	strb	r3, [r4, #0]
      e2:	bd10      	pop	{r4, pc}
      e4:	100002bc 	.word	0x100002bc
      e8:	00000000 	.word	0x00000000
      ec:	00005aa0 	.word	0x00005aa0

000000f0 <frame_dummy>:
      f0:	b508      	push	{r3, lr}
      f2:	4b06      	ldr	r3, [pc, #24]	; (10c <frame_dummy+0x1c>)
      f4:	b11b      	cbz	r3, fe <frame_dummy+0xe>
      f6:	4806      	ldr	r0, [pc, #24]	; (110 <frame_dummy+0x20>)
      f8:	4906      	ldr	r1, [pc, #24]	; (114 <frame_dummy+0x24>)
      fa:	f3af 8000 	nop.w
      fe:	4806      	ldr	r0, [pc, #24]	; (118 <frame_dummy+0x28>)
     100:	6803      	ldr	r3, [r0, #0]
     102:	b113      	cbz	r3, 10a <frame_dummy+0x1a>
     104:	4b05      	ldr	r3, [pc, #20]	; (11c <frame_dummy+0x2c>)
     106:	b103      	cbz	r3, 10a <frame_dummy+0x1a>
     108:	4798      	blx	r3
     10a:	bd08      	pop	{r3, pc}
     10c:	00000000 	.word	0x00000000
     110:	00005aa0 	.word	0x00005aa0
     114:	100002c0 	.word	0x100002c0
     118:	100002bc 	.word	0x100002bc
     11c:	00000000 	.word	0x00000000

00000120 <USBMouse::~USBMouse()>:
     120:	b510      	push	{r4, lr}
     122:	4b03      	ldr	r3, [pc, #12]	; (130 <USBMouse::~USBMouse()+0x10>)
     124:	4604      	mov	r4, r0
     126:	6003      	str	r3, [r0, #0]
     128:	f000 fdde 	bl	ce8 <USBHAL::~USBHAL()>
     12c:	4620      	mov	r0, r4
     12e:	bd10      	pop	{r4, pc}
     130:	00005390 	.word	0x00005390
     134:	00000000 	.word	0x00000000

00000138 <main>:
     138:	e92d 41f0 	stmdb	sp!, {r4, r5, r6, r7, r8, lr}
     13c:	4f1e      	ldr	r7, [pc, #120]	; (1b8 <main+0x80>)
     13e:	2400      	movs	r4, #0
     140:	2500      	movs	r5, #0
     142:	2600      	movs	r6, #0
     144:	f04f 0800 	mov.w	r8, #0
     148:	2200      	movs	r2, #0
     14a:	4b1c      	ldr	r3, [pc, #112]	; (1bc <main+0x84>)
     14c:	4630      	mov	r0, r6
     14e:	4639      	mov	r1, r7
     150:	f002 fc30 	bl	29b4 <__aeabi_dmul>
     154:	f002 fe40 	bl	2dd8 <__aeabi_d2iz>
     158:	4b18      	ldr	r3, [pc, #96]	; (1bc <main+0x84>)
     15a:	2200      	movs	r2, #0
     15c:	b206      	sxth	r6, r0
     15e:	4629      	mov	r1, r5
     160:	4620      	mov	r0, r4
     162:	f002 fc27 	bl	29b4 <__aeabi_dmul>
     166:	f002 fe37 	bl	2dd8 <__aeabi_d2iz>
     16a:	4631      	mov	r1, r6
     16c:	b202      	sxth	r2, r0
     16e:	4814      	ldr	r0, [pc, #80]	; (1c0 <main+0x88>)
     170:	f001 fad2 	bl	1718 <USBMouse::move(short, short)>
     174:	f108 0803 	add.w	r8, r8, #3
     178:	4812      	ldr	r0, [pc, #72]	; (1c4 <main+0x8c>)
     17a:	f001 fb2f 	bl	17dc <wait>
     17e:	4640      	mov	r0, r8
     180:	f002 fbb2 	bl	28e8 <__aeabi_i2d>
     184:	a30a      	add	r3, pc, #40	; (adr r3, 1b0 <main+0x78>)
     186:	e9d3 2300 	ldrd	r2, r3, [r3]
     18a:	f002 fc13 	bl	29b4 <__aeabi_dmul>
     18e:	2200      	movs	r2, #0
     190:	4b0d      	ldr	r3, [pc, #52]	; (1c8 <main+0x90>)
     192:	f002 fd39 	bl	2c08 <__aeabi_ddiv>
     196:	4604      	mov	r4, r0
     198:	460d      	mov	r5, r1
     19a:	f003 fed3 	bl	3f44 <cos>
     19e:	4606      	mov	r6, r0
     1a0:	460f      	mov	r7, r1
     1a2:	4620      	mov	r0, r4
     1a4:	4629      	mov	r1, r5
     1a6:	f003 ff13 	bl	3fd0 <sin>
     1aa:	4604      	mov	r4, r0
     1ac:	460d      	mov	r5, r1
     1ae:	e7cb      	b.n	148 <main+0x10>
     1b0:	51eb851f 	.word	0x51eb851f
     1b4:	40091eb8 	.word	0x40091eb8
     1b8:	3ff00000 	.word	0x3ff00000
     1bc:	40240000 	.word	0x40240000
     1c0:	100002d8 	.word	0x100002d8
     1c4:	3a83126f 	.word	0x3a83126f
     1c8:	40668000 	.word	0x40668000
     1cc:	f3af 8000 	nop.w

000001d0 <_GLOBAL__sub_I_mouse>:
     1d0:	b570      	push	{r4, r5, r6, lr}
     1d2:	4c10      	ldr	r4, [pc, #64]	; (214 <_GLOBAL__sub_I_mouse+0x44>)
     1d4:	b084      	sub	sp, #16
     1d6:	2501      	movs	r5, #1
     1d8:	2600      	movs	r6, #0
     1da:	4632      	mov	r2, r6
     1dc:	4631      	mov	r1, r6
     1de:	4620      	mov	r0, r4
     1e0:	9500      	str	r5, [sp, #0]
     1e2:	9501      	str	r5, [sp, #4]
     1e4:	9602      	str	r6, [sp, #8]
     1e6:	f241 2334 	movw	r3, #4660	; 0x1234
     1ea:	f001 f973 	bl	14d4 <USBHID::USBHID(unsigned char, unsigned char, unsigned short, unsigned short, unsigned short, bool)>
     1ee:	4b0a      	ldr	r3, [pc, #40]	; (218 <_GLOBAL__sub_I_mouse+0x48>)
     1f0:	4629      	mov	r1, r5
     1f2:	4620      	mov	r0, r4
     1f4:	f884 6167 	strb.w	r6, [r4, #359]	; 0x167
     1f8:	f884 5166 	strb.w	r5, [r4, #358]	; 0x166
     1fc:	6023      	str	r3, [r4, #0]
     1fe:	f000 fb7d 	bl	8fc <USBDevice::connect(bool)>
     202:	4906      	ldr	r1, [pc, #24]	; (21c <_GLOBAL__sub_I_mouse+0x4c>)
     204:	4a06      	ldr	r2, [pc, #24]	; (220 <_GLOBAL__sub_I_mouse+0x50>)
     206:	4620      	mov	r0, r4
     208:	b004      	add	sp, #16
     20a:	e8bd 4070 	ldmia.w	sp!, {r4, r5, r6, lr}
     20e:	f002 ba03 	b.w	2618 <__aeabi_atexit>
     212:	bf00      	nop
     214:	100002d8 	.word	0x100002d8
     218:	000055e8 	.word	0x000055e8
     21c:	00000121 	.word	0x00000121
     220:	100000c8 	.word	0x100000c8

00000224 <_start>:
     224:	4807      	ldr	r0, [pc, #28]	; (244 <_start+0x20>)
     226:	4a08      	ldr	r2, [pc, #32]	; (248 <_start+0x24>)
     228:	b508      	push	{r3, lr}
     22a:	1a12      	subs	r2, r2, r0
     22c:	2100      	movs	r1, #0
     22e:	f003 f949 	bl	34c4 <memset>
     232:	f3af 8000 	nop.w
     236:	f003 f91f 	bl	3478 <__libc_init_array>
     23a:	f7ff ff7d 	bl	138 <main>
     23e:	f001 fa93 	bl	1768 <exit>
     242:	bf00      	nop
     244:	100002bc 	.word	0x100002bc
     248:	1000066c 	.word	0x1000066c

0000024c <__wrap__isatty>:
     24c:	2802      	cmp	r0, #2
     24e:	dc01      	bgt.n	254 <__wrap__isatty+0x8>
     250:	2001      	movs	r0, #1
     252:	4770      	bx	lr
     254:	f001 bb44 	b.w	18e0 <_isatty>

00000258 <abort>:
     258:	b508      	push	{r3, lr}
     25a:	2001      	movs	r0, #1
     25c:	f001 fa84 	bl	1768 <exit>

00000260 <USBHAL::SOF(int)>:
     260:	4770      	bx	lr
     262:	bf00      	nop

00000264 <USBHAL::EP1_OUT_callback()>:
     264:	2000      	movs	r0, #0
     266:	4770      	bx	lr

00000268 <USBHAL::EP1_IN_callback()>:
     268:	2000      	movs	r0, #0
     26a:	4770      	bx	lr

0000026c <USBHAL::EP2_OUT_callback()>:
     26c:	2000      	movs	r0, #0
     26e:	4770      	bx	lr

00000270 <USBHAL::EP2_IN_callback()>:
     270:	2000      	movs	r0, #0
     272:	4770      	bx	lr

00000274 <USBHAL::EP3_OUT_callback()>:
     274:	2000      	movs	r0, #0
     276:	4770      	bx	lr

00000278 <USBHAL::EP3_IN_callback()>:
     278:	2000      	movs	r0, #0
     27a:	4770      	bx	lr

0000027c <USBHAL::EP4_OUT_callback()>:
     27c:	2000      	movs	r0, #0
     27e:	4770      	bx	lr

00000280 <USBHAL::EP4_IN_callback()>:
     280:	2000      	movs	r0, #0
     282:	4770      	bx	lr

00000284 <USBHAL::EP5_OUT_callback()>:
     284:	2000      	movs	r0, #0
     286:	4770      	bx	lr

00000288 <USBHAL::EP5_IN_callback()>:
     288:	2000      	movs	r0, #0
     28a:	4770      	bx	lr

0000028c <USBHAL::EP6_OUT_callback()>:
     28c:	2000      	movs	r0, #0
     28e:	4770      	bx	lr

00000290 <USBHAL::EP6_IN_callback()>:
     290:	2000      	movs	r0, #0
     292:	4770      	bx	lr

00000294 <USBHAL::EP7_OUT_callback()>:
     294:	2000      	movs	r0, #0
     296:	4770      	bx	lr

00000298 <USBHAL::EP7_IN_callback()>:
     298:	2000      	movs	r0, #0
     29a:	4770      	bx	lr

0000029c <USBHAL::EP8_OUT_callback()>:
     29c:	2000      	movs	r0, #0
     29e:	4770      	bx	lr

000002a0 <USBHAL::EP8_IN_callback()>:
     2a0:	2000      	movs	r0, #0
     2a2:	4770      	bx	lr

000002a4 <USBHAL::EP9_OUT_callback()>:
     2a4:	2000      	movs	r0, #0
     2a6:	4770      	bx	lr

000002a8 <USBHAL::EP9_IN_callback()>:
     2a8:	2000      	movs	r0, #0
     2aa:	4770      	bx	lr

000002ac <USBHAL::EP10_OUT_callback()>:
     2ac:	2000      	movs	r0, #0
     2ae:	4770      	bx	lr

000002b0 <USBHAL::EP10_IN_callback()>:
     2b0:	2000      	movs	r0, #0
     2b2:	4770      	bx	lr

000002b4 <USBHAL::EP11_OUT_callback()>:
     2b4:	2000      	movs	r0, #0
     2b6:	4770      	bx	lr

000002b8 <USBHAL::EP11_IN_callback()>:
     2b8:	2000      	movs	r0, #0
     2ba:	4770      	bx	lr

000002bc <USBHAL::EP12_OUT_callback()>:
     2bc:	2000      	movs	r0, #0
     2be:	4770      	bx	lr

000002c0 <USBHAL::EP12_IN_callback()>:
     2c0:	2000      	movs	r0, #0
     2c2:	4770      	bx	lr

000002c4 <USBHAL::EP13_OUT_callback()>:
     2c4:	2000      	movs	r0, #0
     2c6:	4770      	bx	lr

000002c8 <USBHAL::EP13_IN_callback()>:
     2c8:	2000      	movs	r0, #0
     2ca:	4770      	bx	lr

000002cc <USBHAL::EP14_OUT_callback()>:
     2cc:	2000      	movs	r0, #0
     2ce:	4770      	bx	lr

000002d0 <USBHAL::EP14_IN_callback()>:
     2d0:	2000      	movs	r0, #0
     2d2:	4770      	bx	lr

000002d4 <USBHAL::EP15_OUT_callback()>:
     2d4:	2000      	movs	r0, #0
     2d6:	4770      	bx	lr

000002d8 <USBHAL::EP15_IN_callback()>:
     2d8:	2000      	movs	r0, #0
     2da:	4770      	bx	lr

000002dc <USBDevice::USBCallback_busReset()>:
     2dc:	4770      	bx	lr
     2de:	bf00      	nop

000002e0 <USBDevice::USBCallback_request()>:
     2e0:	2000      	movs	r0, #0
     2e2:	4770      	bx	lr

000002e4 <USBDevice::USBCallback_requestCompleted(unsigned char*, unsigned long)>:
     2e4:	4770      	bx	lr
     2e6:	bf00      	nop

000002e8 <USBDevice::USBCallback_setConfiguration(unsigned char)>:
     2e8:	2000      	movs	r0, #0
     2ea:	4770      	bx	lr

000002ec <USBDevice::USBCallback_setInterface(unsigned short, unsigned char)>:
     2ec:	2000      	movs	r0, #0
     2ee:	4770      	bx	lr

000002f0 <USBDevice::configurationDesc()>:
     2f0:	2000      	movs	r0, #0
     2f2:	4770      	bx	lr

000002f4 <USBDevice::reportDescLength()>:
     2f4:	2000      	movs	r0, #0
     2f6:	4770      	bx	lr

000002f8 <USBDevice::busReset()>:
     2f8:	b510      	push	{r4, lr}
     2fa:	2200      	movs	r2, #0
     2fc:	6801      	ldr	r1, [r0, #0]
     2fe:	2402      	movs	r4, #2
     300:	f880 2115 	strb.w	r2, [r0, #277]	; 0x115
     304:	f8d1 1094 	ldr.w	r1, [r1, #148]	; 0x94
     308:	f880 4114 	strb.w	r4, [r0, #276]	; 0x114
     30c:	f880 2116 	strb.w	r2, [r0, #278]	; 0x116
     310:	4788      	blx	r1
     312:	bd10      	pop	{r4, pc}

00000314 <USBDevice::connectStateChanged(unsigned int)>:
     314:	4770      	bx	lr
     316:	bf00      	nop

00000318 <USBDevice::suspendStateChanged(unsigned int)>:
     318:	4770      	bx	lr
     31a:	bf00      	nop

0000031c <USBDevice::stringLangidDesc()>:
     31c:	4800      	ldr	r0, [pc, #0]	; (320 <USBDevice::stringLangidDesc()+0x4>)
     31e:	4770      	bx	lr
     320:	10000104 	.word	0x10000104

00000324 <USBDevice::stringImanufacturerDesc()>:
     324:	4800      	ldr	r0, [pc, #0]	; (328 <USBDevice::stringImanufacturerDesc()+0x4>)
     326:	4770      	bx	lr
     328:	100000d4 	.word	0x100000d4

0000032c <USBDevice::stringIserialDesc()>:
     32c:	4800      	ldr	r0, [pc, #0]	; (330 <USBDevice::stringIserialDesc()+0x4>)
     32e:	4770      	bx	lr
     330:	10000120 	.word	0x10000120

00000334 <USBDevice::stringIConfigurationDesc()>:
     334:	4800      	ldr	r0, [pc, #0]	; (338 <USBDevice::stringIConfigurationDesc()+0x4>)
     336:	4770      	bx	lr
     338:	100000fc 	.word	0x100000fc

0000033c <USBDevice::stringIinterfaceDesc()>:
     33c:	4800      	ldr	r0, [pc, #0]	; (340 <USBDevice::stringIinterfaceDesc()+0x4>)
     33e:	4770      	bx	lr
     340:	100000cc 	.word	0x100000cc

00000344 <USBDevice::stringIproductDesc()>:
     344:	4800      	ldr	r0, [pc, #0]	; (348 <USBDevice::stringIproductDesc()+0x4>)
     346:	4770      	bx	lr
     348:	10000108 	.word	0x10000108

0000034c <USBDevice::deviceDesc()>:
     34c:	b5f8      	push	{r3, r4, r5, r6, r7, lr}
     34e:	4c10      	ldr	r4, [pc, #64]	; (390 <USBDevice::deviceDesc()+0x44>)
     350:	4605      	mov	r5, r0
     352:	6823      	ldr	r3, [r4, #0]
     354:	07db      	lsls	r3, r3, #31
     356:	d501      	bpl.n	35c <USBDevice::deviceDesc()+0x10>
     358:	480e      	ldr	r0, [pc, #56]	; (394 <USBDevice::deviceDesc()+0x48>)
     35a:	bdf8      	pop	{r3, r4, r5, r6, r7, pc}
     35c:	4620      	mov	r0, r4
     35e:	f002 f960 	bl	2622 <__cxa_guard_acquire>
     362:	2800      	cmp	r0, #0
     364:	d0f8      	beq.n	358 <USBDevice::deviceDesc()+0xc>
     366:	f8b5 60f4 	ldrh.w	r6, [r5, #244]	; 0xf4
     36a:	f8b5 20f8 	ldrh.w	r2, [r5, #248]	; 0xf8
     36e:	f8b5 10f6 	ldrh.w	r1, [r5, #246]	; 0xf6
     372:	4b08      	ldr	r3, [pc, #32]	; (394 <USBDevice::deviceDesc()+0x48>)
     374:	4620      	mov	r0, r4
     376:	0a0d      	lsrs	r5, r1, #8
     378:	0a14      	lsrs	r4, r2, #8
     37a:	0a37      	lsrs	r7, r6, #8
     37c:	725f      	strb	r7, [r3, #9]
     37e:	721e      	strb	r6, [r3, #8]
     380:	7299      	strb	r1, [r3, #10]
     382:	72dd      	strb	r5, [r3, #11]
     384:	731a      	strb	r2, [r3, #12]
     386:	735c      	strb	r4, [r3, #13]
     388:	f002 f959 	bl	263e <__cxa_guard_release>
     38c:	4801      	ldr	r0, [pc, #4]	; (394 <USBDevice::deviceDesc()+0x48>)
     38e:	bdf8      	pop	{r3, r4, r5, r6, r7, pc}
     390:	10000444 	.word	0x10000444
     394:	100000e8 	.word	0x100000e8

00000398 <USBDevice::requestGetDescriptor()>:
     398:	f8b0 2100 	ldrh.w	r2, [r0, #256]	; 0x100
     39c:	b570      	push	{r4, r5, r6, lr}
     39e:	1213      	asrs	r3, r2, #8
     3a0:	2b02      	cmp	r3, #2
     3a2:	4604      	mov	r4, r0
     3a4:	d030      	beq.n	408 <USBDevice::requestGetDescriptor()+0x70>
     3a6:	2b03      	cmp	r3, #3
     3a8:	d026      	beq.n	3f8 <USBDevice::requestGetDescriptor()+0x60>
     3aa:	2b01      	cmp	r3, #1
     3ac:	d001      	beq.n	3b2 <USBDevice::requestGetDescriptor()+0x1a>
     3ae:	2000      	movs	r0, #0
     3b0:	bd70      	pop	{r4, r5, r6, pc}
     3b2:	6803      	ldr	r3, [r0, #0]
     3b4:	f8d3 30a8 	ldr.w	r3, [r3, #168]	; 0xa8
     3b8:	4798      	blx	r3
     3ba:	2800      	cmp	r0, #0
     3bc:	d0f7      	beq.n	3ae <USBDevice::requestGetDescriptor()+0x16>
     3be:	6823      	ldr	r3, [r4, #0]
     3c0:	4620      	mov	r0, r4
     3c2:	f8d3 30a8 	ldr.w	r3, [r3, #168]	; 0xa8
     3c6:	4798      	blx	r3
     3c8:	7805      	ldrb	r5, [r0, #0]
     3ca:	2d12      	cmp	r5, #18
     3cc:	d1ef      	bne.n	3ae <USBDevice::requestGetDescriptor()+0x16>
     3ce:	6823      	ldr	r3, [r4, #0]
     3d0:	4620      	mov	r0, r4
     3d2:	f8d3 30a8 	ldr.w	r3, [r3, #168]	; 0xa8
     3d6:	4798      	blx	r3
     3d8:	7846      	ldrb	r6, [r0, #1]
     3da:	2e01      	cmp	r6, #1
     3dc:	d1e7      	bne.n	3ae <USBDevice::requestGetDescriptor()+0x16>
     3de:	6823      	ldr	r3, [r4, #0]
     3e0:	f8c4 510c 	str.w	r5, [r4, #268]	; 0x10c
     3e4:	f8d3 30a8 	ldr.w	r3, [r3, #168]	; 0xa8
     3e8:	4620      	mov	r0, r4
     3ea:	4798      	blx	r3
     3ec:	f884 6110 	strb.w	r6, [r4, #272]	; 0x110
     3f0:	f8c4 0108 	str.w	r0, [r4, #264]	; 0x108
     3f4:	4630      	mov	r0, r6
     3f6:	bd70      	pop	{r4, r5, r6, pc}
     3f8:	b2d2      	uxtb	r2, r2
     3fa:	2a05      	cmp	r2, #5
     3fc:	d8d7      	bhi.n	3ae <USBDevice::requestGetDescriptor()+0x16>
     3fe:	e8df f002 	tbb	[pc, r2]
     402:	4056      	.short	0x4056
     404:	612d6c4b 	.word	0x612d6c4b
     408:	6803      	ldr	r3, [r0, #0]
     40a:	f8d3 30ac 	ldr.w	r3, [r3, #172]	; 0xac
     40e:	4798      	blx	r3
     410:	2800      	cmp	r0, #0
     412:	d0cc      	beq.n	3ae <USBDevice::requestGetDescriptor()+0x16>
     414:	6823      	ldr	r3, [r4, #0]
     416:	4620      	mov	r0, r4
     418:	f8d3 30ac 	ldr.w	r3, [r3, #172]	; 0xac
     41c:	4798      	blx	r3
     41e:	7803      	ldrb	r3, [r0, #0]
     420:	2b09      	cmp	r3, #9
     422:	d1c4      	bne.n	3ae <USBDevice::requestGetDescriptor()+0x16>
     424:	6823      	ldr	r3, [r4, #0]
     426:	4620      	mov	r0, r4
     428:	f8d3 30ac 	ldr.w	r3, [r3, #172]	; 0xac
     42c:	4798      	blx	r3
     42e:	7843      	ldrb	r3, [r0, #1]
     430:	2b02      	cmp	r3, #2
     432:	d1bc      	bne.n	3ae <USBDevice::requestGetDescriptor()+0x16>
     434:	6823      	ldr	r3, [r4, #0]
     436:	4620      	mov	r0, r4
     438:	f8d3 30ac 	ldr.w	r3, [r3, #172]	; 0xac
     43c:	4798      	blx	r3
     43e:	6823      	ldr	r3, [r4, #0]
     440:	7885      	ldrb	r5, [r0, #2]
     442:	f8d3 30ac 	ldr.w	r3, [r3, #172]	; 0xac
     446:	4620      	mov	r0, r4
     448:	4798      	blx	r3
     44a:	78c2      	ldrb	r2, [r0, #3]
     44c:	6823      	ldr	r3, [r4, #0]
     44e:	ea45 2502 	orr.w	r5, r5, r2, lsl #8
     452:	f8c4 510c 	str.w	r5, [r4, #268]	; 0x10c
     456:	f8d3 30ac 	ldr.w	r3, [r3, #172]	; 0xac
     45a:	e009      	b.n	470 <USBDevice::requestGetDescriptor()+0xd8>
     45c:	6803      	ldr	r3, [r0, #0]
     45e:	f8d3 30c0 	ldr.w	r3, [r3, #192]	; 0xc0
     462:	4798      	blx	r3
     464:	6823      	ldr	r3, [r4, #0]
     466:	7802      	ldrb	r2, [r0, #0]
     468:	f8d3 30c0 	ldr.w	r3, [r3, #192]	; 0xc0
     46c:	f8c4 210c 	str.w	r2, [r4, #268]	; 0x10c
     470:	4620      	mov	r0, r4
     472:	4798      	blx	r3
     474:	2301      	movs	r3, #1
     476:	f884 3110 	strb.w	r3, [r4, #272]	; 0x110
     47a:	f8c4 0108 	str.w	r0, [r4, #264]	; 0x108
     47e:	4618      	mov	r0, r3
     480:	bd70      	pop	{r4, r5, r6, pc}
     482:	6803      	ldr	r3, [r0, #0]
     484:	f8d3 30b4 	ldr.w	r3, [r3, #180]	; 0xb4
     488:	4798      	blx	r3
     48a:	6823      	ldr	r3, [r4, #0]
     48c:	7802      	ldrb	r2, [r0, #0]
     48e:	f8d3 30b4 	ldr.w	r3, [r3, #180]	; 0xb4
     492:	f8c4 210c 	str.w	r2, [r4, #268]	; 0x10c
     496:	e7eb      	b.n	470 <USBDevice::requestGetDescriptor()+0xd8>
     498:	6803      	ldr	r3, [r0, #0]
     49a:	f8d3 30b8 	ldr.w	r3, [r3, #184]	; 0xb8
     49e:	4798      	blx	r3
     4a0:	6823      	ldr	r3, [r4, #0]
     4a2:	7802      	ldrb	r2, [r0, #0]
     4a4:	f8d3 30b8 	ldr.w	r3, [r3, #184]	; 0xb8
     4a8:	f8c4 210c 	str.w	r2, [r4, #268]	; 0x10c
     4ac:	e7e0      	b.n	470 <USBDevice::requestGetDescriptor()+0xd8>
     4ae:	6803      	ldr	r3, [r0, #0]
     4b0:	f8d3 30b0 	ldr.w	r3, [r3, #176]	; 0xb0
     4b4:	4798      	blx	r3
     4b6:	6823      	ldr	r3, [r4, #0]
     4b8:	7802      	ldrb	r2, [r0, #0]
     4ba:	f8d3 30b0 	ldr.w	r3, [r3, #176]	; 0xb0
     4be:	f8c4 210c 	str.w	r2, [r4, #268]	; 0x10c
     4c2:	e7d5      	b.n	470 <USBDevice::requestGetDescriptor()+0xd8>
     4c4:	6803      	ldr	r3, [r0, #0]
     4c6:	f8d3 30c4 	ldr.w	r3, [r3, #196]	; 0xc4
     4ca:	4798      	blx	r3
     4cc:	6823      	ldr	r3, [r4, #0]
     4ce:	7802      	ldrb	r2, [r0, #0]
     4d0:	f8d3 30c4 	ldr.w	r3, [r3, #196]	; 0xc4
     4d4:	f8c4 210c 	str.w	r2, [r4, #268]	; 0x10c
     4d8:	e7ca      	b.n	470 <USBDevice::requestGetDescriptor()+0xd8>
     4da:	6803      	ldr	r3, [r0, #0]
     4dc:	f8d3 30bc 	ldr.w	r3, [r3, #188]	; 0xbc
     4e0:	4798      	blx	r3
     4e2:	6823      	ldr	r3, [r4, #0]
     4e4:	7802      	ldrb	r2, [r0, #0]
     4e6:	f8d3 30bc 	ldr.w	r3, [r3, #188]	; 0xbc
     4ea:	f8c4 210c 	str.w	r2, [r4, #268]	; 0x10c
     4ee:	e7bf      	b.n	470 <USBDevice::requestGetDescriptor()+0xd8>

000004f0 <USBDevice::decodeSetupPacket(unsigned char*, SETUP_PACKET*)>:
     4f0:	780b      	ldrb	r3, [r1, #0]
     4f2:	09db      	lsrs	r3, r3, #7
     4f4:	7013      	strb	r3, [r2, #0]
     4f6:	780b      	ldrb	r3, [r1, #0]
     4f8:	f3c3 1341 	ubfx	r3, r3, #5, #2
     4fc:	7053      	strb	r3, [r2, #1]
     4fe:	780b      	ldrb	r3, [r1, #0]
     500:	f003 031f 	and.w	r3, r3, #31
     504:	7093      	strb	r3, [r2, #2]
     506:	784b      	ldrb	r3, [r1, #1]
     508:	70d3      	strb	r3, [r2, #3]
     50a:	78c8      	ldrb	r0, [r1, #3]
     50c:	788b      	ldrb	r3, [r1, #2]
     50e:	ea43 2300 	orr.w	r3, r3, r0, lsl #8
     512:	8093      	strh	r3, [r2, #4]
     514:	7948      	ldrb	r0, [r1, #5]
     516:	790b      	ldrb	r3, [r1, #4]
     518:	ea43 2300 	orr.w	r3, r3, r0, lsl #8
     51c:	80d3      	strh	r3, [r2, #6]
     51e:	79c8      	ldrb	r0, [r1, #7]
     520:	798b      	ldrb	r3, [r1, #6]
     522:	ea43 2300 	orr.w	r3, r3, r0, lsl #8
     526:	8113      	strh	r3, [r2, #8]
     528:	4770      	bx	lr
     52a:	bf00      	nop

0000052c <USBDevice::controlOut()>:
     52c:	b530      	push	{r4, r5, lr}
     52e:	f890 3110 	ldrb.w	r3, [r0, #272]	; 0x110
     532:	b091      	sub	sp, #68	; 0x44
     534:	4604      	mov	r4, r0
     536:	b113      	cbz	r3, 53e <USBDevice::controlOut()+0x12>
     538:	2000      	movs	r0, #0
     53a:	b011      	add	sp, #68	; 0x44
     53c:	bd30      	pop	{r4, r5, pc}
     53e:	4669      	mov	r1, sp
     540:	f000 fc5e 	bl	e00 <USBHAL::EP0getReadResult(unsigned char*)>
     544:	f8d4 310c 	ldr.w	r3, [r4, #268]	; 0x10c
     548:	4298      	cmp	r0, r3
     54a:	d8f5      	bhi.n	538 <USBDevice::controlOut()+0xc>
     54c:	f8d4 2108 	ldr.w	r2, [r4, #264]	; 0x108
     550:	1a1d      	subs	r5, r3, r0
     552:	4402      	add	r2, r0
     554:	f8c4 510c 	str.w	r5, [r4, #268]	; 0x10c
     558:	f8c4 2108 	str.w	r2, [r4, #264]	; 0x108
     55c:	b99d      	cbnz	r5, 586 <USBDevice::controlOut()+0x5a>
     55e:	f894 3112 	ldrb.w	r3, [r4, #274]	; 0x112
     562:	b143      	cbz	r3, 576 <USBDevice::controlOut()+0x4a>
     564:	6823      	ldr	r3, [r4, #0]
     566:	4602      	mov	r2, r0
     568:	4669      	mov	r1, sp
     56a:	f8d3 309c 	ldr.w	r3, [r3, #156]	; 0x9c
     56e:	4620      	mov	r0, r4
     570:	4798      	blx	r3
     572:	f884 5112 	strb.w	r5, [r4, #274]	; 0x112
     576:	2100      	movs	r1, #0
     578:	4620      	mov	r0, r4
     57a:	460a      	mov	r2, r1
     57c:	f000 fc44 	bl	e08 <USBHAL::EP0write(unsigned char*, unsigned long)>
     580:	2001      	movs	r0, #1
     582:	b011      	add	sp, #68	; 0x44
     584:	bd30      	pop	{r4, r5, pc}
     586:	4620      	mov	r0, r4
     588:	f000 fc36 	bl	df8 <USBHAL::EP0read()>
     58c:	2001      	movs	r0, #1
     58e:	e7d4      	b.n	53a <USBDevice::controlOut()+0xe>

00000590 <USBDevice::EP0out()>:
     590:	b510      	push	{r4, lr}
     592:	4604      	mov	r4, r0
     594:	f7ff ffca 	bl	52c <USBDevice::controlOut()>
     598:	b100      	cbz	r0, 59c <USBDevice::EP0out()+0xc>
     59a:	bd10      	pop	{r4, pc}
     59c:	4620      	mov	r0, r4
     59e:	e8bd 4010 	ldmia.w	sp!, {r4, lr}
     5a2:	f000 bc35 	b.w	e10 <USBHAL::EP0stall()>
     5a6:	bf00      	nop

000005a8 <USBDevice::controlIn()>:
     5a8:	b570      	push	{r4, r5, r6, lr}
     5aa:	f8d0 510c 	ldr.w	r5, [r0, #268]	; 0x10c
     5ae:	4604      	mov	r4, r0
     5b0:	b96d      	cbnz	r5, 5ce <USBDevice::controlIn()+0x26>
     5b2:	f890 3111 	ldrb.w	r3, [r0, #273]	; 0x111
     5b6:	bb7b      	cbnz	r3, 618 <USBDevice::controlIn()+0x70>
     5b8:	f894 3112 	ldrb.w	r3, [r4, #274]	; 0x112
     5bc:	b96b      	cbnz	r3, 5da <USBDevice::controlIn()+0x32>
     5be:	4620      	mov	r0, r4
     5c0:	f000 fc1a 	bl	df8 <USBHAL::EP0read()>
     5c4:	4620      	mov	r0, r4
     5c6:	f000 fc19 	bl	dfc <USBHAL::EP0readStage()>
     5ca:	2001      	movs	r0, #1
     5cc:	bd70      	pop	{r4, r5, r6, pc}
     5ce:	f890 6110 	ldrb.w	r6, [r0, #272]	; 0x110
     5d2:	2e01      	cmp	r6, #1
     5d4:	d00c      	beq.n	5f0 <USBDevice::controlIn()+0x48>
     5d6:	2000      	movs	r0, #0
     5d8:	bd70      	pop	{r4, r5, r6, pc}
     5da:	6823      	ldr	r3, [r4, #0]
     5dc:	2100      	movs	r1, #0
     5de:	f8d3 309c 	ldr.w	r3, [r3, #156]	; 0x9c
     5e2:	460a      	mov	r2, r1
     5e4:	4620      	mov	r0, r4
     5e6:	4798      	blx	r3
     5e8:	2300      	movs	r3, #0
     5ea:	f884 3112 	strb.w	r3, [r4, #274]	; 0x112
     5ee:	e7e6      	b.n	5be <USBDevice::controlIn()+0x16>
     5f0:	2d40      	cmp	r5, #64	; 0x40
     5f2:	bf28      	it	cs
     5f4:	2540      	movcs	r5, #64	; 0x40
     5f6:	462a      	mov	r2, r5
     5f8:	f8d0 1108 	ldr.w	r1, [r0, #264]	; 0x108
     5fc:	f000 fc04 	bl	e08 <USBHAL::EP0write(unsigned char*, unsigned long)>
     600:	f8d4 2108 	ldr.w	r2, [r4, #264]	; 0x108
     604:	f8d4 310c 	ldr.w	r3, [r4, #268]	; 0x10c
     608:	442a      	add	r2, r5
     60a:	1b5d      	subs	r5, r3, r5
     60c:	4630      	mov	r0, r6
     60e:	f8c4 2108 	str.w	r2, [r4, #264]	; 0x108
     612:	f8c4 510c 	str.w	r5, [r4, #268]	; 0x10c
     616:	bd70      	pop	{r4, r5, r6, pc}
     618:	4629      	mov	r1, r5
     61a:	462a      	mov	r2, r5
     61c:	f000 fbf4 	bl	e08 <USBHAL::EP0write(unsigned char*, unsigned long)>
     620:	f894 3112 	ldrb.w	r3, [r4, #274]	; 0x112
     624:	f884 5111 	strb.w	r5, [r4, #273]	; 0x111
     628:	2b00      	cmp	r3, #0
     62a:	d0c8      	beq.n	5be <USBDevice::controlIn()+0x16>
     62c:	e7d5      	b.n	5da <USBDevice::controlIn()+0x32>
     62e:	bf00      	nop

00000630 <USBDevice::EP0in()>:
     630:	b510      	push	{r4, lr}
     632:	4604      	mov	r4, r0
     634:	f7ff ffb8 	bl	5a8 <USBDevice::controlIn()>
     638:	b100      	cbz	r0, 63c <USBDevice::EP0in()+0xc>
     63a:	bd10      	pop	{r4, pc}
     63c:	4620      	mov	r0, r4
     63e:	e8bd 4010 	ldmia.w	sp!, {r4, lr}
     642:	f000 bbe5 	b.w	e10 <USBHAL::EP0stall()>
     646:	bf00      	nop

00000648 <USBDevice::requestSetConfiguration()>:
     648:	f890 1100 	ldrb.w	r1, [r0, #256]	; 0x100
     64c:	b510      	push	{r4, lr}
     64e:	4604      	mov	r4, r0
     650:	f880 1115 	strb.w	r1, [r0, #277]	; 0x115
     654:	b169      	cbz	r1, 672 <USBDevice::requestSetConfiguration()+0x2a>
     656:	6803      	ldr	r3, [r0, #0]
     658:	f8d3 30a0 	ldr.w	r3, [r3, #160]	; 0xa0
     65c:	4798      	blx	r3
     65e:	b900      	cbnz	r0, 662 <USBDevice::requestSetConfiguration()+0x1a>
     660:	bd10      	pop	{r4, pc}
     662:	4620      	mov	r0, r4
     664:	f000 fb82 	bl	d6c <USBHAL::configureDevice()>
     668:	2304      	movs	r3, #4
     66a:	f884 3114 	strb.w	r3, [r4, #276]	; 0x114
     66e:	2001      	movs	r0, #1
     670:	bd10      	pop	{r4, pc}
     672:	f000 fb9b 	bl	dac <USBHAL::unconfigureDevice()>
     676:	2303      	movs	r3, #3
     678:	f884 3114 	strb.w	r3, [r4, #276]	; 0x114
     67c:	2001      	movs	r0, #1
     67e:	bd10      	pop	{r4, pc}

00000680 <USBDevice::requestSetFeature()>:
     680:	b508      	push	{r3, lr}
     682:	f890 3114 	ldrb.w	r3, [r0, #276]	; 0x114
     686:	2b04      	cmp	r3, #4
     688:	d002      	beq.n	690 <USBDevice::requestSetFeature()+0x10>
     68a:	f8b0 3102 	ldrh.w	r3, [r0, #258]	; 0x102
     68e:	b993      	cbnz	r3, 6b6 <USBDevice::requestSetFeature()+0x36>
     690:	f890 30fe 	ldrb.w	r3, [r0, #254]	; 0xfe
     694:	2b02      	cmp	r3, #2
     696:	d10e      	bne.n	6b6 <USBDevice::requestSetFeature()+0x36>
     698:	f8b0 3100 	ldrh.w	r3, [r0, #256]	; 0x100
     69c:	b95b      	cbnz	r3, 6b6 <USBDevice::requestSetFeature()+0x36>
     69e:	f8b0 3102 	ldrh.w	r3, [r0, #258]	; 0x102
     6a2:	f003 010f 	and.w	r1, r3, #15
     6a6:	f3c3 13c0 	ubfx	r3, r3, #7, #1
     6aa:	eb03 0141 	add.w	r1, r3, r1, lsl #1
     6ae:	f000 fd0b 	bl	10c8 <USBHAL::stallEndpoint(unsigned char)>
     6b2:	2001      	movs	r0, #1
     6b4:	bd08      	pop	{r3, pc}
     6b6:	2000      	movs	r0, #0
     6b8:	bd08      	pop	{r3, pc}
     6ba:	bf00      	nop

000006bc <USBDevice::requestClearFeature()>:
     6bc:	b508      	push	{r3, lr}
     6be:	f890 3114 	ldrb.w	r3, [r0, #276]	; 0x114
     6c2:	2b04      	cmp	r3, #4
     6c4:	d002      	beq.n	6cc <USBDevice::requestClearFeature()+0x10>
     6c6:	f8b0 3102 	ldrh.w	r3, [r0, #258]	; 0x102
     6ca:	b993      	cbnz	r3, 6f2 <USBDevice::requestClearFeature()+0x36>
     6cc:	f890 30fe 	ldrb.w	r3, [r0, #254]	; 0xfe
     6d0:	2b02      	cmp	r3, #2
     6d2:	d10e      	bne.n	6f2 <USBDevice::requestClearFeature()+0x36>
     6d4:	f8b0 3100 	ldrh.w	r3, [r0, #256]	; 0x100
     6d8:	b95b      	cbnz	r3, 6f2 <USBDevice::requestClearFeature()+0x36>
     6da:	f8b0 3102 	ldrh.w	r3, [r0, #258]	; 0x102
     6de:	f003 010f 	and.w	r1, r3, #15
     6e2:	f3c3 13c0 	ubfx	r3, r3, #7, #1
     6e6:	eb03 0141 	add.w	r1, r3, r1, lsl #1
     6ea:	f000 fd05 	bl	10f8 <USBHAL::unstallEndpoint(unsigned char)>
     6ee:	2001      	movs	r0, #1
     6f0:	bd08      	pop	{r3, pc}
     6f2:	2000      	movs	r0, #0
     6f4:	bd08      	pop	{r3, pc}
     6f6:	bf00      	nop

000006f8 <USBDevice::requestGetStatus()>:
     6f8:	f890 3114 	ldrb.w	r3, [r0, #276]	; 0x114
     6fc:	b510      	push	{r4, lr}
     6fe:	2b04      	cmp	r3, #4
     700:	4604      	mov	r4, r0
     702:	d002      	beq.n	70a <USBDevice::requestGetStatus()+0x12>
     704:	f8b0 3102 	ldrh.w	r3, [r0, #258]	; 0x102
     708:	b9f3      	cbnz	r3, 748 <USBDevice::requestGetStatus()+0x50>
     70a:	f894 30fe 	ldrb.w	r3, [r4, #254]	; 0xfe
     70e:	2b01      	cmp	r3, #1
     710:	d020      	beq.n	754 <USBDevice::requestGetStatus()+0x5c>
     712:	d31b      	bcc.n	74c <USBDevice::requestGetStatus()+0x54>
     714:	2b02      	cmp	r3, #2
     716:	d117      	bne.n	748 <USBDevice::requestGetStatus()+0x50>
     718:	f8b4 3102 	ldrh.w	r3, [r4, #258]	; 0x102
     71c:	4620      	mov	r0, r4
     71e:	f3c3 11c0 	ubfx	r1, r3, #7, #1
     722:	f003 030f 	and.w	r3, r3, #15
     726:	eb01 0143 	add.w	r1, r1, r3, lsl #1
     72a:	f000 fcf7 	bl	111c <USBHAL::getEndpointStallState(unsigned char)>
     72e:	4b0c      	ldr	r3, [pc, #48]	; (760 <USBDevice::requestGetStatus()+0x68>)
     730:	b1a0      	cbz	r0, 75c <USBDevice::requestGetStatus()+0x64>
     732:	2201      	movs	r2, #1
     734:	801a      	strh	r2, [r3, #0]
     736:	2001      	movs	r0, #1
     738:	2202      	movs	r2, #2
     73a:	f884 0110 	strb.w	r0, [r4, #272]	; 0x110
     73e:	f8c4 3108 	str.w	r3, [r4, #264]	; 0x108
     742:	f8c4 210c 	str.w	r2, [r4, #268]	; 0x10c
     746:	bd10      	pop	{r4, pc}
     748:	2000      	movs	r0, #0
     74a:	bd10      	pop	{r4, pc}
     74c:	4b04      	ldr	r3, [pc, #16]	; (760 <USBDevice::requestGetStatus()+0x68>)
     74e:	2201      	movs	r2, #1
     750:	801a      	strh	r2, [r3, #0]
     752:	e7f0      	b.n	736 <USBDevice::requestGetStatus()+0x3e>
     754:	4b02      	ldr	r3, [pc, #8]	; (760 <USBDevice::requestGetStatus()+0x68>)
     756:	2200      	movs	r2, #0
     758:	801a      	strh	r2, [r3, #0]
     75a:	e7ec      	b.n	736 <USBDevice::requestGetStatus()+0x3e>
     75c:	8018      	strh	r0, [r3, #0]
     75e:	e7ea      	b.n	736 <USBDevice::requestGetStatus()+0x3e>
     760:	10000440 	.word	0x10000440

00000764 <USBDevice::requestSetup()>:
     764:	b510      	push	{r4, lr}
     766:	f890 30fd 	ldrb.w	r3, [r0, #253]	; 0xfd
     76a:	4604      	mov	r4, r0
     76c:	b97b      	cbnz	r3, 78e <USBDevice::requestSetup()+0x2a>
     76e:	f890 30ff 	ldrb.w	r3, [r0, #255]	; 0xff
     772:	2b0b      	cmp	r3, #11
     774:	d80b      	bhi.n	78e <USBDevice::requestSetup()+0x2a>
     776:	e8df f003 	tbb	[pc, r3]
     77a:	100c      	.short	0x100c
     77c:	180a140a 	.word	0x180a140a
     780:	463c0a24 	.word	0x463c0a24
     784:	2806      	.short	0x2806
     786:	f890 3114 	ldrb.w	r3, [r0, #276]	; 0x114
     78a:	2b04      	cmp	r3, #4
     78c:	d044      	beq.n	818 <Heap_Size+0x18>
     78e:	2000      	movs	r0, #0
     790:	bd10      	pop	{r4, pc}
     792:	e8bd 4010 	ldmia.w	sp!, {r4, lr}
     796:	f7ff bfaf 	b.w	6f8 <USBDevice::requestGetStatus()>
     79a:	e8bd 4010 	ldmia.w	sp!, {r4, lr}
     79e:	f7ff bf8d 	b.w	6bc <USBDevice::requestClearFeature()>
     7a2:	e8bd 4010 	ldmia.w	sp!, {r4, lr}
     7a6:	f7ff bf6b 	b.w	680 <USBDevice::requestSetFeature()>
     7aa:	f894 1100 	ldrb.w	r1, [r4, #256]	; 0x100
     7ae:	f000 fb1b 	bl	de8 <USBHAL::setAddress(unsigned char)>
     7b2:	f8b4 3100 	ldrh.w	r3, [r4, #256]	; 0x100
     7b6:	bb53      	cbnz	r3, 80e <Heap_Size+0xe>
     7b8:	2302      	movs	r3, #2
     7ba:	f884 3114 	strb.w	r3, [r4, #276]	; 0x114
     7be:	2001      	movs	r0, #1
     7c0:	bd10      	pop	{r4, pc}
     7c2:	e8bd 4010 	ldmia.w	sp!, {r4, lr}
     7c6:	f7ff bde7 	b.w	398 <USBDevice::requestGetDescriptor()>
     7ca:	6803      	ldr	r3, [r0, #0]
     7cc:	f8b4 1102 	ldrh.w	r1, [r4, #258]	; 0x102
     7d0:	f8d3 30a4 	ldr.w	r3, [r3, #164]	; 0xa4
     7d4:	f894 2100 	ldrb.w	r2, [r4, #256]	; 0x100
     7d8:	4798      	blx	r3
     7da:	2800      	cmp	r0, #0
     7dc:	d0d7      	beq.n	78e <USBDevice::requestSetup()+0x2a>
     7de:	f8b4 3100 	ldrh.w	r3, [r4, #256]	; 0x100
     7e2:	f8b4 2102 	ldrh.w	r2, [r4, #258]	; 0x102
     7e6:	f884 311a 	strb.w	r3, [r4, #282]	; 0x11a
     7ea:	f8a4 2118 	strh.w	r2, [r4, #280]	; 0x118
     7ee:	2001      	movs	r0, #1
     7f0:	bd10      	pop	{r4, pc}
     7f2:	f200 1315 	addw	r3, r0, #277	; 0x115
     7f6:	2001      	movs	r0, #1
     7f8:	f884 0110 	strb.w	r0, [r4, #272]	; 0x110
     7fc:	f8c4 3108 	str.w	r3, [r4, #264]	; 0x108
     800:	f8c4 010c 	str.w	r0, [r4, #268]	; 0x10c
     804:	bd10      	pop	{r4, pc}
     806:	e8bd 4010 	ldmia.w	sp!, {r4, lr}
     80a:	f7ff bf1d 	b.w	648 <USBDevice::requestSetConfiguration()>
     80e:	2303      	movs	r3, #3
     810:	f884 3114 	strb.w	r3, [r4, #276]	; 0x114
     814:	2001      	movs	r0, #1
     816:	bd10      	pop	{r4, pc}
     818:	f8b0 2118 	ldrh.w	r2, [r0, #280]	; 0x118
     81c:	f500 738d 	add.w	r3, r0, #282	; 0x11a
     820:	2001      	movs	r0, #1
     822:	f884 0110 	strb.w	r0, [r4, #272]	; 0x110
     826:	f8a4 2102 	strh.w	r2, [r4, #258]	; 0x102
     82a:	f8c4 3108 	str.w	r3, [r4, #264]	; 0x108
     82e:	f8c4 010c 	str.w	r0, [r4, #268]	; 0x10c
     832:	bd10      	pop	{r4, pc}

00000834 <USBDevice::controlSetup()>:
     834:	b510      	push	{r4, lr}
     836:	b090      	sub	sp, #64	; 0x40
     838:	4604      	mov	r4, r0
     83a:	4669      	mov	r1, sp
     83c:	f000 fad8 	bl	df0 <USBHAL::EP0setup(unsigned char*)>
     840:	4620      	mov	r0, r4
     842:	f104 02fc 	add.w	r2, r4, #252	; 0xfc
     846:	4669      	mov	r1, sp
     848:	f7ff fe52 	bl	4f0 <USBDevice::decodeSetupPacket(unsigned char*, SETUP_PACKET*)>
     84c:	2300      	movs	r3, #0
     84e:	6822      	ldr	r2, [r4, #0]
     850:	f8c4 3108 	str.w	r3, [r4, #264]	; 0x108
     854:	f884 3110 	strb.w	r3, [r4, #272]	; 0x110
     858:	f8d2 2098 	ldr.w	r2, [r2, #152]	; 0x98
     85c:	4620      	mov	r0, r4
     85e:	f8c4 310c 	str.w	r3, [r4, #268]	; 0x10c
     862:	f884 3111 	strb.w	r3, [r4, #273]	; 0x111
     866:	f884 3112 	strb.w	r3, [r4, #274]	; 0x112
     86a:	4790      	blx	r2
     86c:	b308      	cbz	r0, 8b2 <USBDevice::controlSetup()+0x7e>
     86e:	f8b4 3104 	ldrh.w	r3, [r4, #260]	; 0x104
     872:	b94b      	cbnz	r3, 888 <USBDevice::controlSetup()+0x54>
     874:	f8d4 110c 	ldr.w	r1, [r4, #268]	; 0x10c
     878:	b9c1      	cbnz	r1, 8ac <USBDevice::controlSetup()+0x78>
     87a:	4620      	mov	r0, r4
     87c:	460a      	mov	r2, r1
     87e:	f000 fac3 	bl	e08 <USBHAL::EP0write(unsigned char*, unsigned long)>
     882:	2001      	movs	r0, #1
     884:	b010      	add	sp, #64	; 0x40
     886:	bd10      	pop	{r4, pc}
     888:	f894 20fc 	ldrb.w	r2, [r4, #252]	; 0xfc
     88c:	2a01      	cmp	r2, #1
     88e:	f894 2110 	ldrb.w	r2, [r4, #272]	; 0x110
     892:	d009      	beq.n	8a8 <USBDevice::controlSetup()+0x74>
     894:	b952      	cbnz	r2, 8ac <USBDevice::controlSetup()+0x78>
     896:	f8d4 210c 	ldr.w	r2, [r4, #268]	; 0x10c
     89a:	429a      	cmp	r2, r3
     89c:	d106      	bne.n	8ac <USBDevice::controlSetup()+0x78>
     89e:	4620      	mov	r0, r4
     8a0:	f000 faaa 	bl	df8 <USBHAL::EP0read()>
     8a4:	2001      	movs	r0, #1
     8a6:	e7ed      	b.n	884 <USBDevice::controlSetup()+0x50>
     8a8:	2a01      	cmp	r2, #1
     8aa:	d009      	beq.n	8c0 <USBDevice::controlSetup()+0x8c>
     8ac:	2000      	movs	r0, #0
     8ae:	b010      	add	sp, #64	; 0x40
     8b0:	bd10      	pop	{r4, pc}
     8b2:	4620      	mov	r0, r4
     8b4:	f7ff ff56 	bl	764 <USBDevice::requestSetup()>
     8b8:	2800      	cmp	r0, #0
     8ba:	d1d8      	bne.n	86e <USBDevice::controlSetup()+0x3a>
     8bc:	2000      	movs	r0, #0
     8be:	e7f6      	b.n	8ae <USBDevice::controlSetup()+0x7a>
     8c0:	f8d4 110c 	ldr.w	r1, [r4, #268]	; 0x10c
     8c4:	4299      	cmp	r1, r3
     8c6:	d907      	bls.n	8d8 <USBDevice::controlSetup()+0xa4>
     8c8:	f8c4 310c 	str.w	r3, [r4, #268]	; 0x10c
     8cc:	4620      	mov	r0, r4
     8ce:	f7ff fe6b 	bl	5a8 <USBDevice::controlIn()>
     8d2:	2001      	movs	r0, #1
     8d4:	b010      	add	sp, #64	; 0x40
     8d6:	bd10      	pop	{r4, pc}
     8d8:	d2f8      	bcs.n	8cc <USBDevice::controlSetup()+0x98>
     8da:	068b      	lsls	r3, r1, #26
     8dc:	bf08      	it	eq
     8de:	f884 2111 	strbeq.w	r2, [r4, #273]	; 0x111
     8e2:	e7f3      	b.n	8cc <USBDevice::controlSetup()+0x98>

000008e4 <USBDevice::EP0setupCallback()>:
     8e4:	b510      	push	{r4, lr}
     8e6:	4604      	mov	r4, r0
     8e8:	f7ff ffa4 	bl	834 <USBDevice::controlSetup()>
     8ec:	b100      	cbz	r0, 8f0 <USBDevice::EP0setupCallback()+0xc>
     8ee:	bd10      	pop	{r4, pc}
     8f0:	4620      	mov	r0, r4
     8f2:	e8bd 4010 	ldmia.w	sp!, {r4, lr}
     8f6:	f000 ba8b 	b.w	e10 <USBHAL::EP0stall()>
     8fa:	bf00      	nop

000008fc <USBDevice::connect(bool)>:
     8fc:	b538      	push	{r3, r4, r5, lr}
     8fe:	460d      	mov	r5, r1
     900:	4604      	mov	r4, r0
     902:	f000 fa03 	bl	d0c <USBHAL::connect()>
     906:	b11d      	cbz	r5, 910 <USBDevice::connect(bool)+0x14>
     908:	f894 3114 	ldrb.w	r3, [r4, #276]	; 0x114
     90c:	2b04      	cmp	r3, #4
     90e:	d1fb      	bne.n	908 <USBDevice::connect(bool)+0xc>
     910:	bd38      	pop	{r3, r4, r5, pc}
     912:	bf00      	nop

00000914 <USBDevice::getTransferPtr()>:
     914:	30fc      	adds	r0, #252	; 0xfc
     916:	4770      	bx	lr

00000918 <USBDevice::addEndpoint(unsigned char, unsigned long)>:
     918:	2300      	movs	r3, #0
     91a:	f000 baad 	b.w	e78 <USBHAL::realiseEndpoint(unsigned char, unsigned long, unsigned long)>
     91e:	bf00      	nop

00000920 <USBDevice::findDescriptor(unsigned char)>:
     920:	b5f8      	push	{r3, r4, r5, r6, r7, lr}
     922:	6803      	ldr	r3, [r0, #0]
     924:	4605      	mov	r5, r0
     926:	f8d3 30ac 	ldr.w	r3, [r3, #172]	; 0xac
     92a:	460e      	mov	r6, r1
     92c:	4798      	blx	r3
     92e:	b138      	cbz	r0, 940 <USBDevice::findDescriptor(unsigned char)+0x20>
     930:	682b      	ldr	r3, [r5, #0]
     932:	4628      	mov	r0, r5
     934:	f8d3 30ac 	ldr.w	r3, [r3, #172]	; 0xac
     938:	4798      	blx	r3
     93a:	7803      	ldrb	r3, [r0, #0]
     93c:	2b09      	cmp	r3, #9
     93e:	d001      	beq.n	944 <USBDevice::findDescriptor(unsigned char)+0x24>
     940:	2000      	movs	r0, #0
     942:	bdf8      	pop	{r3, r4, r5, r6, r7, pc}
     944:	682b      	ldr	r3, [r5, #0]
     946:	4628      	mov	r0, r5
     948:	f8d3 30ac 	ldr.w	r3, [r3, #172]	; 0xac
     94c:	4798      	blx	r3
     94e:	7843      	ldrb	r3, [r0, #1]
     950:	2b02      	cmp	r3, #2
     952:	d1f5      	bne.n	940 <USBDevice::findDescriptor(unsigned char)+0x20>
     954:	682b      	ldr	r3, [r5, #0]
     956:	4628      	mov	r0, r5
     958:	f8d3 30ac 	ldr.w	r3, [r3, #172]	; 0xac
     95c:	4798      	blx	r3
     95e:	682b      	ldr	r3, [r5, #0]
     960:	7884      	ldrb	r4, [r0, #2]
     962:	f8d3 30ac 	ldr.w	r3, [r3, #172]	; 0xac
     966:	4628      	mov	r0, r5
     968:	4798      	blx	r3
     96a:	78c7      	ldrb	r7, [r0, #3]
     96c:	ea44 2707 	orr.w	r7, r4, r7, lsl #8
     970:	2f0b      	cmp	r7, #11
     972:	d9e5      	bls.n	940 <USBDevice::findDescriptor(unsigned char)+0x20>
     974:	682b      	ldr	r3, [r5, #0]
     976:	4628      	mov	r0, r5
     978:	f8d3 30ac 	ldr.w	r3, [r3, #172]	; 0xac
     97c:	4798      	blx	r3
     97e:	f100 0409 	add.w	r4, r0, #9
     982:	e008      	b.n	996 <USBDevice::findDescriptor(unsigned char)+0x76>
     984:	682b      	ldr	r3, [r5, #0]
     986:	7822      	ldrb	r2, [r4, #0]
     988:	f8d3 30ac 	ldr.w	r3, [r3, #172]	; 0xac
     98c:	4414      	add	r4, r2
     98e:	4798      	blx	r3
     990:	4438      	add	r0, r7
     992:	4284      	cmp	r4, r0
     994:	d2d4      	bcs.n	940 <USBDevice::findDescriptor(unsigned char)+0x20>
     996:	7863      	ldrb	r3, [r4, #1]
     998:	4628      	mov	r0, r5
     99a:	42b3      	cmp	r3, r6
     99c:	d1f2      	bne.n	984 <USBDevice::findDescriptor(unsigned char)+0x64>
     99e:	4620      	mov	r0, r4
     9a0:	bdf8      	pop	{r3, r4, r5, r6, r7, pc}
     9a2:	bf00      	nop

000009a4 <USBDevice::USBDevice(unsigned short, unsigned short, unsigned short)>:
     9a4:	b5f8      	push	{r3, r4, r5, r6, r7, lr}
     9a6:	4604      	mov	r4, r0
     9a8:	4616      	mov	r6, r2
     9aa:	461f      	mov	r7, r3
     9ac:	460d      	mov	r5, r1
     9ae:	f000 fa91 	bl	ed4 <USBHAL::USBHAL()>
     9b2:	2000      	movs	r0, #0
     9b4:	4a08      	ldr	r2, [pc, #32]	; (9d8 <USBDevice::USBDevice(unsigned short, unsigned short, unsigned short)+0x34>)
     9b6:	2301      	movs	r3, #1
     9b8:	f884 0115 	strb.w	r0, [r4, #277]	; 0x115
     9bc:	f884 0116 	strb.w	r0, [r4, #278]	; 0x116
     9c0:	f8a4 50f4 	strh.w	r5, [r4, #244]	; 0xf4
     9c4:	f8a4 60f6 	strh.w	r6, [r4, #246]	; 0xf6
     9c8:	f8a4 70f8 	strh.w	r7, [r4, #248]	; 0xf8
     9cc:	6022      	str	r2, [r4, #0]
     9ce:	f884 3114 	strb.w	r3, [r4, #276]	; 0x114
     9d2:	4620      	mov	r0, r4
     9d4:	bdf8      	pop	{r3, r4, r5, r6, r7, pc}
     9d6:	bf00      	nop
     9d8:	00005390 	.word	0x00005390

000009dc <USBDevice::readStart(unsigned char, unsigned long)>:
     9dc:	b508      	push	{r3, lr}
     9de:	f000 fa1b 	bl	e18 <USBHAL::endpointRead(unsigned char, unsigned long)>
     9e2:	1e43      	subs	r3, r0, #1
     9e4:	4258      	negs	r0, r3
     9e6:	4158      	adcs	r0, r3
     9e8:	bd08      	pop	{r3, pc}
     9ea:	bf00      	nop

000009ec <USBDevice::write(unsigned char, unsigned char*, unsigned long, unsigned long)>:
     9ec:	b570      	push	{r4, r5, r6, lr}
     9ee:	9c04      	ldr	r4, [sp, #16]
     9f0:	4605      	mov	r5, r0
     9f2:	42a3      	cmp	r3, r4
     9f4:	460e      	mov	r6, r1
     9f6:	d803      	bhi.n	a00 <USBDevice::write(unsigned char, unsigned char*, unsigned long, unsigned long)+0x14>
     9f8:	f890 4114 	ldrb.w	r4, [r0, #276]	; 0x114
     9fc:	2c04      	cmp	r4, #4
     9fe:	d001      	beq.n	a04 <USBDevice::write(unsigned char, unsigned char*, unsigned long, unsigned long)+0x18>
     a00:	2000      	movs	r0, #0
     a02:	bd70      	pop	{r4, r5, r6, pc}
     a04:	f000 fa0a 	bl	e1c <USBHAL::endpointWrite(unsigned char, unsigned char*, unsigned long)>
     a08:	2801      	cmp	r0, #1
     a0a:	d1f9      	bne.n	a00 <USBDevice::write(unsigned char, unsigned char*, unsigned long, unsigned long)+0x14>
     a0c:	4628      	mov	r0, r5
     a0e:	4631      	mov	r1, r6
     a10:	f000 fa20 	bl	e54 <USBHAL::endpointWriteResult(unsigned char)>
     a14:	2801      	cmp	r0, #1
     a16:	d004      	beq.n	a22 <USBDevice::write(unsigned char, unsigned char*, unsigned long, unsigned long)+0x36>
     a18:	f1d0 0001 	rsbs	r0, r0, #1
     a1c:	bf38      	it	cc
     a1e:	2000      	movcc	r0, #0
     a20:	bd70      	pop	{r4, r5, r6, pc}
     a22:	f895 3114 	ldrb.w	r3, [r5, #276]	; 0x114
     a26:	2b04      	cmp	r3, #4
     a28:	d0f0      	beq.n	a0c <USBDevice::write(unsigned char, unsigned char*, unsigned long, unsigned long)+0x20>
     a2a:	f1d0 0001 	rsbs	r0, r0, #1
     a2e:	bf38      	it	cc
     a30:	2000      	movcc	r0, #0
     a32:	bd70      	pop	{r4, r5, r6, pc}

00000a34 <USBHAL::busReset()>:
     a34:	4770      	bx	lr
     a36:	bf00      	nop

00000a38 <USBHAL::EP0setupCallback()>:
     a38:	4770      	bx	lr
     a3a:	bf00      	nop

00000a3c <USBHAL::EP0out()>:
     a3c:	4770      	bx	lr
     a3e:	bf00      	nop

00000a40 <USBHAL::EP0in()>:
     a40:	4770      	bx	lr
     a42:	bf00      	nop

00000a44 <USBHAL::connectStateChanged(unsigned int)>:
     a44:	4770      	bx	lr
     a46:	bf00      	nop

00000a48 <USBHAL::suspendStateChanged(unsigned int)>:
     a48:	4770      	bx	lr
     a4a:	bf00      	nop

00000a4c <SIEsetDeviceStatus(unsigned char)>:
     a4c:	4b0d      	ldr	r3, [pc, #52]	; (a84 <SIEsetDeviceStatus(unsigned char)+0x38>)
     a4e:	4a0e      	ldr	r2, [pc, #56]	; (a88 <SIEsetDeviceStatus(unsigned char)+0x3c>)
     a50:	2110      	movs	r1, #16
     a52:	f8c3 1208 	str.w	r1, [r3, #520]	; 0x208
     a56:	4619      	mov	r1, r3
     a58:	f8c3 2210 	str.w	r2, [r3, #528]	; 0x210
     a5c:	f8d1 3200 	ldr.w	r3, [r1, #512]	; 0x200
     a60:	4a08      	ldr	r2, [pc, #32]	; (a84 <SIEsetDeviceStatus(unsigned char)+0x38>)
     a62:	06db      	lsls	r3, r3, #27
     a64:	d5fa      	bpl.n	a5c <SIEsetDeviceStatus(unsigned char)+0x10>
     a66:	0400      	lsls	r0, r0, #16
     a68:	f440 7080 	orr.w	r0, r0, #256	; 0x100
     a6c:	2310      	movs	r3, #16
     a6e:	f8c2 3208 	str.w	r3, [r2, #520]	; 0x208
     a72:	4611      	mov	r1, r2
     a74:	f8c2 0210 	str.w	r0, [r2, #528]	; 0x210
     a78:	f8d1 3200 	ldr.w	r3, [r1, #512]	; 0x200
     a7c:	06db      	lsls	r3, r3, #27
     a7e:	d5fb      	bpl.n	a78 <SIEsetDeviceStatus(unsigned char)+0x2c>
     a80:	4770      	bx	lr
     a82:	bf00      	nop
     a84:	5000c000 	.word	0x5000c000
     a88:	00fe0500 	.word	0x00fe0500

00000a8c <SIEselectEndpoint(unsigned char)>:
     a8c:	4b0f      	ldr	r3, [pc, #60]	; (acc <SIEselectEndpoint(unsigned char)+0x40>)
     a8e:	0400      	lsls	r0, r0, #16
     a90:	2110      	movs	r1, #16
     a92:	f440 62a0 	orr.w	r2, r0, #1280	; 0x500
     a96:	f8c3 1208 	str.w	r1, [r3, #520]	; 0x208
     a9a:	4619      	mov	r1, r3
     a9c:	f8c3 2210 	str.w	r2, [r3, #528]	; 0x210
     aa0:	f8d1 3200 	ldr.w	r3, [r1, #512]	; 0x200
     aa4:	4a09      	ldr	r2, [pc, #36]	; (acc <SIEselectEndpoint(unsigned char)+0x40>)
     aa6:	06db      	lsls	r3, r3, #27
     aa8:	d5fa      	bpl.n	aa0 <SIEselectEndpoint(unsigned char)+0x14>
     aaa:	f440 7000 	orr.w	r0, r0, #512	; 0x200
     aae:	2320      	movs	r3, #32
     ab0:	f8c2 3208 	str.w	r3, [r2, #520]	; 0x208
     ab4:	4611      	mov	r1, r2
     ab6:	f8c2 0210 	str.w	r0, [r2, #528]	; 0x210
     aba:	f8d1 3200 	ldr.w	r3, [r1, #512]	; 0x200
     abe:	4a03      	ldr	r2, [pc, #12]	; (acc <SIEselectEndpoint(unsigned char)+0x40>)
     ac0:	069b      	lsls	r3, r3, #26
     ac2:	d5fa      	bpl.n	aba <SIEselectEndpoint(unsigned char)+0x2e>
     ac4:	f8d2 0214 	ldr.w	r0, [r2, #532]	; 0x214
     ac8:	b2c0      	uxtb	r0, r0
     aca:	4770      	bx	lr
     acc:	5000c000 	.word	0x5000c000

00000ad0 <SIEsetEndpointStatus(unsigned char, unsigned char)>:
     ad0:	3040      	adds	r0, #64	; 0x40
     ad2:	4b0e      	ldr	r3, [pc, #56]	; (b0c <SIEsetEndpointStatus(unsigned char, unsigned char)+0x3c>)
     ad4:	0402      	lsls	r2, r0, #16
     ad6:	f442 62a0 	orr.w	r2, r2, #1280	; 0x500
     ada:	2010      	movs	r0, #16
     adc:	f8c3 0208 	str.w	r0, [r3, #520]	; 0x208
     ae0:	4618      	mov	r0, r3
     ae2:	f8c3 2210 	str.w	r2, [r3, #528]	; 0x210
     ae6:	f8d0 3200 	ldr.w	r3, [r0, #512]	; 0x200
     aea:	4a08      	ldr	r2, [pc, #32]	; (b0c <SIEsetEndpointStatus(unsigned char, unsigned char)+0x3c>)
     aec:	06db      	lsls	r3, r3, #27
     aee:	d5fa      	bpl.n	ae6 <SIEsetEndpointStatus(unsigned char, unsigned char)+0x16>
     af0:	0409      	lsls	r1, r1, #16
     af2:	f441 7180 	orr.w	r1, r1, #256	; 0x100
     af6:	2310      	movs	r3, #16
     af8:	f8c2 3208 	str.w	r3, [r2, #520]	; 0x208
     afc:	4610      	mov	r0, r2
     afe:	f8c2 1210 	str.w	r1, [r2, #528]	; 0x210
     b02:	f8d0 3200 	ldr.w	r3, [r0, #512]	; 0x200
     b06:	06db      	lsls	r3, r3, #27
     b08:	d5fb      	bpl.n	b02 <SIEsetEndpointStatus(unsigned char, unsigned char)+0x32>
     b0a:	4770      	bx	lr
     b0c:	5000c000 	.word	0x5000c000

00000b10 <SIEdisconnect()>:
     b10:	4b0f      	ldr	r3, [pc, #60]	; (b50 <SIEdisconnect()+0x40>)
     b12:	4a10      	ldr	r2, [pc, #64]	; (b54 <SIEdisconnect()+0x44>)
     b14:	2110      	movs	r1, #16
     b16:	f8c3 1208 	str.w	r1, [r3, #520]	; 0x208
     b1a:	4619      	mov	r1, r3
     b1c:	f8c3 2210 	str.w	r2, [r3, #528]	; 0x210
     b20:	f8d1 3200 	ldr.w	r3, [r1, #512]	; 0x200
     b24:	4a0a      	ldr	r2, [pc, #40]	; (b50 <SIEdisconnect()+0x40>)
     b26:	06d8      	lsls	r0, r3, #27
     b28:	d5fa      	bpl.n	b20 <SIEdisconnect()+0x10>
     b2a:	4b0b      	ldr	r3, [pc, #44]	; (b58 <SIEdisconnect()+0x48>)
     b2c:	2120      	movs	r1, #32
     b2e:	f8c2 1208 	str.w	r1, [r2, #520]	; 0x208
     b32:	4611      	mov	r1, r2
     b34:	f8c2 3210 	str.w	r3, [r2, #528]	; 0x210
     b38:	f8d1 3200 	ldr.w	r3, [r1, #512]	; 0x200
     b3c:	4a04      	ldr	r2, [pc, #16]	; (b50 <SIEdisconnect()+0x40>)
     b3e:	069b      	lsls	r3, r3, #26
     b40:	d5fa      	bpl.n	b38 <SIEdisconnect()+0x28>
     b42:	f8d2 0214 	ldr.w	r0, [r2, #532]	; 0x214
     b46:	f000 00fe 	and.w	r0, r0, #254	; 0xfe
     b4a:	f7ff bf7f 	b.w	a4c <SIEsetDeviceStatus(unsigned char)>
     b4e:	bf00      	nop
     b50:	5000c000 	.word	0x5000c000
     b54:	00fe0500 	.word	0x00fe0500
     b58:	00fe0200 	.word	0x00fe0200

00000b5c <endpointWritecore(unsigned char, unsigned char*, unsigned long)>:
     b5c:	b5f8      	push	{r3, r4, r5, r6, r7, lr}
     b5e:	1043      	asrs	r3, r0, #1
     b60:	4c1b      	ldr	r4, [pc, #108]	; (bd0 <endpointWritecore(unsigned char, unsigned char*, unsigned long)+0x74>)
     b62:	009b      	lsls	r3, r3, #2
     b64:	f043 0302 	orr.w	r3, r3, #2
     b68:	f8c4 3228 	str.w	r3, [r4, #552]	; 0x228
     b6c:	f8c4 2224 	str.w	r2, [r4, #548]	; 0x224
     b70:	b35a      	cbz	r2, bca <endpointWritecore(unsigned char, unsigned char*, unsigned long)+0x6e>
     b72:	2300      	movs	r3, #0
     b74:	4627      	mov	r7, r4
     b76:	461c      	mov	r4, r3
     b78:	f811 6b01 	ldrb.w	r6, [r1], #1
     b7c:	f103 0508 	add.w	r5, r3, #8
     b80:	fa06 f303 	lsl.w	r3, r6, r3
     b84:	431c      	orrs	r4, r3
     b86:	f015 031f 	ands.w	r3, r5, #31
     b8a:	f102 32ff 	add.w	r2, r2, #4294967295	; 0xffffffff
     b8e:	d016      	beq.n	bbe <endpointWritecore(unsigned char, unsigned char*, unsigned long)+0x62>
     b90:	2a00      	cmp	r2, #0
     b92:	d1f1      	bne.n	b78 <endpointWritecore(unsigned char, unsigned char*, unsigned long)+0x1c>
     b94:	4b0e      	ldr	r3, [pc, #56]	; (bd0 <endpointWritecore(unsigned char, unsigned char*, unsigned long)+0x74>)
     b96:	f8c3 421c 	str.w	r4, [r3, #540]	; 0x21c
     b9a:	4c0d      	ldr	r4, [pc, #52]	; (bd0 <endpointWritecore(unsigned char, unsigned char*, unsigned long)+0x74>)
     b9c:	2300      	movs	r3, #0
     b9e:	f8c4 3228 	str.w	r3, [r4, #552]	; 0x228
     ba2:	f7ff ff73 	bl	a8c <SIEselectEndpoint(unsigned char)>
     ba6:	4b0b      	ldr	r3, [pc, #44]	; (bd4 <endpointWritecore(unsigned char, unsigned char*, unsigned long)+0x78>)
     ba8:	2210      	movs	r2, #16
     baa:	f8c4 2208 	str.w	r2, [r4, #520]	; 0x208
     bae:	4622      	mov	r2, r4
     bb0:	f8c4 3210 	str.w	r3, [r4, #528]	; 0x210
     bb4:	f8d2 3200 	ldr.w	r3, [r2, #512]	; 0x200
     bb8:	06db      	lsls	r3, r3, #27
     bba:	d5fb      	bpl.n	bb4 <endpointWritecore(unsigned char, unsigned char*, unsigned long)+0x58>
     bbc:	bdf8      	pop	{r3, r4, r5, r6, r7, pc}
     bbe:	f8c7 421c 	str.w	r4, [r7, #540]	; 0x21c
     bc2:	2a00      	cmp	r2, #0
     bc4:	d0e9      	beq.n	b9a <endpointWritecore(unsigned char, unsigned char*, unsigned long)+0x3e>
     bc6:	461c      	mov	r4, r3
     bc8:	e7d6      	b.n	b78 <endpointWritecore(unsigned char, unsigned char*, unsigned long)+0x1c>
     bca:	f8c4 221c 	str.w	r2, [r4, #540]	; 0x21c
     bce:	e7e4      	b.n	b9a <endpointWritecore(unsigned char, unsigned char*, unsigned long)+0x3e>
     bd0:	5000c000 	.word	0x5000c000
     bd4:	00fa0500 	.word	0x00fa0500

00000bd8 <SIEsetAddress(unsigned char)>:
     bd8:	4b0e      	ldr	r3, [pc, #56]	; (c14 <Stack_Size+0x14>)
     bda:	4a0f      	ldr	r2, [pc, #60]	; (c18 <Stack_Size+0x18>)
     bdc:	2110      	movs	r1, #16
     bde:	f8c3 1208 	str.w	r1, [r3, #520]	; 0x208
     be2:	4619      	mov	r1, r3
     be4:	f8c3 2210 	str.w	r2, [r3, #528]	; 0x210
     be8:	f8d1 3200 	ldr.w	r3, [r1, #512]	; 0x200
     bec:	4a09      	ldr	r2, [pc, #36]	; (c14 <Stack_Size+0x14>)
     bee:	06db      	lsls	r3, r3, #27
     bf0:	d5fa      	bpl.n	be8 <SIEsetAddress(unsigned char)+0x10>
     bf2:	0400      	lsls	r0, r0, #16
     bf4:	f440 0000 	orr.w	r0, r0, #8388608	; 0x800000
     bf8:	f440 7080 	orr.w	r0, r0, #256	; 0x100
     bfc:	2310      	movs	r3, #16
     bfe:	f8c2 3208 	str.w	r3, [r2, #520]	; 0x208
     c02:	4611      	mov	r1, r2
     c04:	f8c2 0210 	str.w	r0, [r2, #528]	; 0x210
     c08:	f8d1 3200 	ldr.w	r3, [r1, #512]	; 0x200
     c0c:	06db      	lsls	r3, r3, #27
     c0e:	d5fb      	bpl.n	c08 <Stack_Size+0x8>
     c10:	4770      	bx	lr
     c12:	bf00      	nop
     c14:	5000c000 	.word	0x5000c000
     c18:	00d00500 	.word	0x00d00500

00000c1c <USBHAL::endpointReadcore(unsigned char, unsigned char*)>:
     c1c:	e92d 41f0 	stmdb	sp!, {r4, r5, r6, r7, r8, lr}
     c20:	ea4f 0861 	mov.w	r8, r1, asr #1
     c24:	ea4f 0388 	mov.w	r3, r8, lsl #2
     c28:	4d2a      	ldr	r5, [pc, #168]	; (cd4 <USBHAL::endpointReadcore(unsigned char, unsigned char*)+0xb8>)
     c2a:	f043 0301 	orr.w	r3, r3, #1
     c2e:	f8c5 3228 	str.w	r3, [r5, #552]	; 0x228
     c32:	f8d5 3220 	ldr.w	r3, [r5, #544]	; 0x220
     c36:	4c27      	ldr	r4, [pc, #156]	; (cd4 <USBHAL::endpointReadcore(unsigned char, unsigned char*)+0xb8>)
     c38:	051e      	lsls	r6, r3, #20
     c3a:	d5fa      	bpl.n	c32 <USBHAL::endpointReadcore(unsigned char, unsigned char*)+0x16>
     c3c:	f8d4 6220 	ldr.w	r6, [r4, #544]	; 0x220
     c40:	f3c6 0609 	ubfx	r6, r6, #0, #10
     c44:	2e00      	cmp	r6, #0
     c46:	d03f      	beq.n	cc8 <USBHAL::endpointReadcore(unsigned char, unsigned char*)+0xac>
     c48:	2300      	movs	r3, #0
     c4a:	461f      	mov	r7, r3
     c4c:	eb02 0c06 	add.w	r12, r2, r6
     c50:	f103 0508 	add.w	r5, r3, #8
     c54:	b90b      	cbnz	r3, c5a <USBHAL::endpointReadcore(unsigned char, unsigned char*)+0x3e>
     c56:	f8d4 7218 	ldr.w	r7, [r4, #536]	; 0x218
     c5a:	fa27 f303 	lsr.w	r3, r7, r3
     c5e:	f802 3b01 	strb.w	r3, [r2], #1
     c62:	4562      	cmp	r2, r12
     c64:	f005 031f 	and.w	r3, r5, #31
     c68:	d1f2      	bne.n	c50 <USBHAL::endpointReadcore(unsigned char, unsigned char*)+0x34>
     c6a:	4b1b      	ldr	r3, [pc, #108]	; (cd8 <USBHAL::endpointReadcore(unsigned char, unsigned char*)+0xbc>)
     c6c:	4a19      	ldr	r2, [pc, #100]	; (cd4 <USBHAL::endpointReadcore(unsigned char, unsigned char*)+0xb8>)
     c6e:	fb83 0308 	smull	r0, r3, r3, r8
     c72:	eb03 0343 	add.w	r3, r3, r3, lsl #1
     c76:	2000      	movs	r0, #0
     c78:	4598      	cmp	r8, r3
     c7a:	f8c2 0228 	str.w	r0, [r2, #552]	; 0x228
     c7e:	d102      	bne.n	c86 <USBHAL::endpointReadcore(unsigned char, unsigned char*)+0x6a>
     c80:	f1b8 0f00 	cmp.w	r8, #0
     c84:	d11d      	bne.n	cc2 <USBHAL::endpointReadcore(unsigned char, unsigned char*)+0xa6>
     c86:	4608      	mov	r0, r1
     c88:	f7ff ff00 	bl	a8c <SIEselectEndpoint(unsigned char)>
     c8c:	4b11      	ldr	r3, [pc, #68]	; (cd4 <USBHAL::endpointReadcore(unsigned char, unsigned char*)+0xb8>)
     c8e:	4a13      	ldr	r2, [pc, #76]	; (cdc <USBHAL::endpointReadcore(unsigned char, unsigned char*)+0xc0>)
     c90:	2110      	movs	r1, #16
     c92:	f8c3 1208 	str.w	r1, [r3, #520]	; 0x208
     c96:	4619      	mov	r1, r3
     c98:	f8c3 2210 	str.w	r2, [r3, #528]	; 0x210
     c9c:	f8d1 3200 	ldr.w	r3, [r1, #512]	; 0x200
     ca0:	4a0c      	ldr	r2, [pc, #48]	; (cd4 <USBHAL::endpointReadcore(unsigned char, unsigned char*)+0xb8>)
     ca2:	06d8      	lsls	r0, r3, #27
     ca4:	d5fa      	bpl.n	c9c <USBHAL::endpointReadcore(unsigned char, unsigned char*)+0x80>
     ca6:	4b0e      	ldr	r3, [pc, #56]	; (ce0 <USBHAL::endpointReadcore(unsigned char, unsigned char*)+0xc4>)
     ca8:	2120      	movs	r1, #32
     caa:	f8c2 1208 	str.w	r1, [r2, #520]	; 0x208
     cae:	4611      	mov	r1, r2
     cb0:	f8c2 3210 	str.w	r3, [r2, #528]	; 0x210
     cb4:	f8d1 3200 	ldr.w	r3, [r1, #512]	; 0x200
     cb8:	4a06      	ldr	r2, [pc, #24]	; (cd4 <USBHAL::endpointReadcore(unsigned char, unsigned char*)+0xb8>)
     cba:	069b      	lsls	r3, r3, #26
     cbc:	d5fa      	bpl.n	cb4 <USBHAL::endpointReadcore(unsigned char, unsigned char*)+0x98>
     cbe:	f8d2 3214 	ldr.w	r3, [r2, #532]	; 0x214
     cc2:	4630      	mov	r0, r6
     cc4:	e8bd 81f0 	ldmia.w	sp!, {r4, r5, r6, r7, r8, pc}
     cc8:	f8d4 2218 	ldr.w	r2, [r4, #536]	; 0x218
     ccc:	4b05      	ldr	r3, [pc, #20]	; (ce4 <USBHAL::endpointReadcore(unsigned char, unsigned char*)+0xc8>)
     cce:	601a      	str	r2, [r3, #0]
     cd0:	e7cb      	b.n	c6a <USBHAL::endpointReadcore(unsigned char, unsigned char*)+0x4e>
     cd2:	bf00      	nop
     cd4:	5000c000 	.word	0x5000c000
     cd8:	55555556 	.word	0x55555556
     cdc:	00f20500 	.word	0x00f20500
     ce0:	00f20200 	.word	0x00f20200
     ce4:	10000448 	.word	0x10000448

00000ce8 <USBHAL::~USBHAL()>:
     ce8:	b510      	push	{r4, lr}
     cea:	4b06      	ldr	r3, [pc, #24]	; (d04 <USBHAL::~USBHAL()+0x1c>)
     cec:	4604      	mov	r4, r0
     cee:	6003      	str	r3, [r0, #0]
     cf0:	f7ff ff0e 	bl	b10 <SIEdisconnect()>
     cf4:	4b04      	ldr	r3, [pc, #16]	; (d08 <USBHAL::~USBHAL()+0x20>)
     cf6:	f04f 7280 	mov.w	r2, #16777216	; 0x1000000
     cfa:	4620      	mov	r0, r4
     cfc:	f8c3 2080 	str.w	r2, [r3, #128]	; 0x80
     d00:	bd10      	pop	{r4, pc}
     d02:	bf00      	nop
     d04:	00005468 	.word	0x00005468
     d08:	e000e100 	.word	0xe000e100

00000d0c <USBHAL::connect()>:
     d0c:	4b13      	ldr	r3, [pc, #76]	; (d5c <USBHAL::connect()+0x50>)
     d0e:	4914      	ldr	r1, [pc, #80]	; (d60 <USBHAL::connect()+0x54>)
     d10:	4a14      	ldr	r2, [pc, #80]	; (d64 <USBHAL::connect()+0x58>)
     d12:	b410      	push	{r4}
     d14:	2010      	movs	r0, #16
     d16:	f04f 7480 	mov.w	r4, #16777216	; 0x1000000
     d1a:	600c      	str	r4, [r1, #0]
     d1c:	f8c3 0208 	str.w	r0, [r3, #520]	; 0x208
     d20:	4619      	mov	r1, r3
     d22:	f8c3 2210 	str.w	r2, [r3, #528]	; 0x210
     d26:	f8d1 3200 	ldr.w	r3, [r1, #512]	; 0x200
     d2a:	4a0c      	ldr	r2, [pc, #48]	; (d5c <USBHAL::connect()+0x50>)
     d2c:	06d8      	lsls	r0, r3, #27
     d2e:	d5fa      	bpl.n	d26 <USBHAL::connect()+0x1a>
     d30:	4b0d      	ldr	r3, [pc, #52]	; (d68 <USBHAL::connect()+0x5c>)
     d32:	2120      	movs	r1, #32
     d34:	f8c2 1208 	str.w	r1, [r2, #520]	; 0x208
     d38:	4611      	mov	r1, r2
     d3a:	f8c2 3210 	str.w	r3, [r2, #528]	; 0x210
     d3e:	f8d1 3200 	ldr.w	r3, [r1, #512]	; 0x200
     d42:	4a06      	ldr	r2, [pc, #24]	; (d5c <USBHAL::connect()+0x50>)
     d44:	069b      	lsls	r3, r3, #26
     d46:	d5fa      	bpl.n	d3e <USBHAL::connect()+0x32>
     d48:	f8d2 0214 	ldr.w	r0, [r2, #532]	; 0x214
     d4c:	f85d 4b04 	ldr.w	r4, [sp], #4
     d50:	f040 0001 	orr.w	r0, r0, #1
     d54:	b2c0      	uxtb	r0, r0
     d56:	f7ff be79 	b.w	a4c <SIEsetDeviceStatus(unsigned char)>
     d5a:	bf00      	nop
     d5c:	5000c000 	.word	0x5000c000
     d60:	e000e100 	.word	0xe000e100
     d64:	00fe0500 	.word	0x00fe0500
     d68:	00fe0200 	.word	0x00fe0200

00000d6c <USBHAL::configureDevice()>:
     d6c:	4b0c      	ldr	r3, [pc, #48]	; (da0 <USBHAL::configureDevice()+0x34>)
     d6e:	4a0d      	ldr	r2, [pc, #52]	; (da4 <USBHAL::configureDevice()+0x38>)
     d70:	2110      	movs	r1, #16
     d72:	f8c3 1208 	str.w	r1, [r3, #520]	; 0x208
     d76:	4619      	mov	r1, r3
     d78:	f8c3 2210 	str.w	r2, [r3, #528]	; 0x210
     d7c:	f8d1 3200 	ldr.w	r3, [r1, #512]	; 0x200
     d80:	4a07      	ldr	r2, [pc, #28]	; (da0 <USBHAL::configureDevice()+0x34>)
     d82:	06d8      	lsls	r0, r3, #27
     d84:	d5fa      	bpl.n	d7c <USBHAL::configureDevice()+0x10>
     d86:	4b08      	ldr	r3, [pc, #32]	; (da8 <USBHAL::configureDevice()+0x3c>)
     d88:	2110      	movs	r1, #16
     d8a:	f8c2 1208 	str.w	r1, [r2, #520]	; 0x208
     d8e:	4611      	mov	r1, r2
     d90:	f8c2 3210 	str.w	r3, [r2, #528]	; 0x210
     d94:	f8d1 3200 	ldr.w	r3, [r1, #512]	; 0x200
     d98:	06db      	lsls	r3, r3, #27
     d9a:	d5fb      	bpl.n	d94 <USBHAL::configureDevice()+0x28>
     d9c:	4770      	bx	lr
     d9e:	bf00      	nop
     da0:	5000c000 	.word	0x5000c000
     da4:	00d80500 	.word	0x00d80500
     da8:	00010100 	.word	0x00010100

00000dac <USBHAL::unconfigureDevice()>:
     dac:	4b0c      	ldr	r3, [pc, #48]	; (de0 <USBHAL::unconfigureDevice()+0x34>)
     dae:	4a0d      	ldr	r2, [pc, #52]	; (de4 <USBHAL::unconfigureDevice()+0x38>)
     db0:	2110      	movs	r1, #16
     db2:	f8c3 1208 	str.w	r1, [r3, #520]	; 0x208
     db6:	4619      	mov	r1, r3
     db8:	f8c3 2210 	str.w	r2, [r3, #528]	; 0x210
     dbc:	f8d1 3200 	ldr.w	r3, [r1, #512]	; 0x200
     dc0:	4a07      	ldr	r2, [pc, #28]	; (de0 <USBHAL::unconfigureDevice()+0x34>)
     dc2:	06d8      	lsls	r0, r3, #27
     dc4:	d5fa      	bpl.n	dbc <USBHAL::unconfigureDevice()+0x10>
     dc6:	2110      	movs	r1, #16
     dc8:	f44f 7380 	mov.w	r3, #256	; 0x100
     dcc:	f8c2 1208 	str.w	r1, [r2, #520]	; 0x208
     dd0:	4611      	mov	r1, r2
     dd2:	f8c2 3210 	str.w	r3, [r2, #528]	; 0x210
     dd6:	f8d1 3200 	ldr.w	r3, [r1, #512]	; 0x200
     dda:	06db      	lsls	r3, r3, #27
     ddc:	d5fb      	bpl.n	dd6 <USBHAL::unconfigureDevice()+0x2a>
     dde:	4770      	bx	lr
     de0:	5000c000 	.word	0x5000c000
     de4:	00d80500 	.word	0x00d80500

00000de8 <USBHAL::setAddress(unsigned char)>:
     de8:	4608      	mov	r0, r1
     dea:	f7ff bef5 	b.w	bd8 <SIEsetAddress(unsigned char)>
     dee:	bf00      	nop

00000df0 <USBHAL::EP0setup(unsigned char*)>:
     df0:	460a      	mov	r2, r1
     df2:	2100      	movs	r1, #0
     df4:	f7ff bf12 	b.w	c1c <USBHAL::endpointReadcore(unsigned char, unsigned char*)>

00000df8 <USBHAL::EP0read()>:
     df8:	4770      	bx	lr
     dfa:	bf00      	nop

00000dfc <USBHAL::EP0readStage()>:
     dfc:	4770      	bx	lr
     dfe:	bf00      	nop

00000e00 <USBHAL::EP0getReadResult(unsigned char*)>:
     e00:	460a      	mov	r2, r1
     e02:	2100      	movs	r1, #0
     e04:	f7ff bf0a 	b.w	c1c <USBHAL::endpointReadcore(unsigned char, unsigned char*)>

00000e08 <USBHAL::EP0write(unsigned char*, unsigned long)>:
     e08:	2001      	movs	r0, #1
     e0a:	f7ff bea7 	b.w	b5c <endpointWritecore(unsigned char, unsigned char*, unsigned long)>
     e0e:	bf00      	nop

00000e10 <USBHAL::EP0stall()>:
     e10:	2000      	movs	r0, #0
     e12:	2180      	movs	r1, #128	; 0x80
     e14:	f7ff be5c 	b.w	ad0 <SIEsetEndpointStatus(unsigned char, unsigned char)>

00000e18 <USBHAL::endpointRead(unsigned char, unsigned long)>:
     e18:	2001      	movs	r0, #1
     e1a:	4770      	bx	lr

00000e1c <USBHAL::endpointWrite(unsigned char, unsigned char*, unsigned long)>:
     e1c:	b5f8      	push	{r3, r4, r5, r6, r7, lr}
     e1e:	4c0b      	ldr	r4, [pc, #44]	; (e4c <USBHAL::endpointWrite(unsigned char, unsigned char*, unsigned long)+0x30>)
     e20:	4608      	mov	r0, r1
     e22:	6824      	ldr	r4, [r4, #0]
     e24:	40cc      	lsrs	r4, r1
     e26:	07e1      	lsls	r1, r4, #31
     e28:	d501      	bpl.n	e2e <USBHAL::endpointWrite(unsigned char, unsigned char*, unsigned long)+0x12>
     e2a:	2003      	movs	r0, #3
     e2c:	bdf8      	pop	{r3, r4, r5, r6, r7, pc}
     e2e:	2401      	movs	r4, #1
     e30:	fa04 f700 	lsl.w	r7, r4, r0
     e34:	4d06      	ldr	r5, [pc, #24]	; (e50 <USBHAL::endpointWrite(unsigned char, unsigned char*, unsigned long)+0x34>)
     e36:	4611      	mov	r1, r2
     e38:	682e      	ldr	r6, [r5, #0]
     e3a:	461a      	mov	r2, r3
     e3c:	ea26 0307 	bic.w	r3, r6, r7
     e40:	602b      	str	r3, [r5, #0]
     e42:	f7ff fe8b 	bl	b5c <endpointWritecore(unsigned char, unsigned char*, unsigned long)>
     e46:	4620      	mov	r0, r4
     e48:	bdf8      	pop	{r3, r4, r5, r6, r7, pc}
     e4a:	bf00      	nop
     e4c:	10000450 	.word	0x10000450
     e50:	10000454 	.word	0x10000454

00000e54 <USBHAL::endpointWriteResult(unsigned char)>:
     e54:	4b07      	ldr	r3, [pc, #28]	; (e74 <USBHAL::endpointWriteResult(unsigned char)+0x20>)
     e56:	681a      	ldr	r2, [r3, #0]
     e58:	40ca      	lsrs	r2, r1
     e5a:	07d2      	lsls	r2, r2, #31
     e5c:	d508      	bpl.n	e70 <USBHAL::endpointWriteResult(unsigned char)+0x1c>
     e5e:	2201      	movs	r2, #1
     e60:	fa02 f101 	lsl.w	r1, r2, r1
     e64:	681a      	ldr	r2, [r3, #0]
     e66:	2000      	movs	r0, #0
     e68:	ea22 0101 	bic.w	r1, r2, r1
     e6c:	6019      	str	r1, [r3, #0]
     e6e:	4770      	bx	lr
     e70:	2001      	movs	r0, #1
     e72:	4770      	bx	lr
     e74:	10000454 	.word	0x10000454

00000e78 <USBHAL::realiseEndpoint(unsigned char, unsigned long, unsigned long)>:
     e78:	b410      	push	{r4}
     e7a:	2401      	movs	r4, #1
     e7c:	408c      	lsls	r4, r1
     e7e:	4b13      	ldr	r3, [pc, #76]	; (ecc <USBHAL::realiseEndpoint(unsigned char, unsigned long, unsigned long)+0x54>)
     e80:	f44f 7080 	mov.w	r0, #256	; 0x100
     e84:	f8c3 0208 	str.w	r0, [r3, #520]	; 0x208
     e88:	f8d3 0244 	ldr.w	r0, [r3, #580]	; 0x244
     e8c:	4320      	orrs	r0, r4
     e8e:	f8c3 0244 	str.w	r0, [r3, #580]	; 0x244
     e92:	f8c3 1248 	str.w	r1, [r3, #584]	; 0x248
     e96:	4618      	mov	r0, r3
     e98:	f8c3 224c 	str.w	r2, [r3, #588]	; 0x24c
     e9c:	f8d0 3200 	ldr.w	r3, [r0, #512]	; 0x200
     ea0:	4a0a      	ldr	r2, [pc, #40]	; (ecc <USBHAL::realiseEndpoint(unsigned char, unsigned long, unsigned long)+0x54>)
     ea2:	05db      	lsls	r3, r3, #23
     ea4:	d5fa      	bpl.n	e9c <USBHAL::realiseEndpoint(unsigned char, unsigned long, unsigned long)+0x24>
     ea6:	4b0a      	ldr	r3, [pc, #40]	; (ed0 <USBHAL::realiseEndpoint(unsigned char, unsigned long, unsigned long)+0x58>)
     ea8:	f44f 7180 	mov.w	r1, #256	; 0x100
     eac:	f8c2 1208 	str.w	r1, [r2, #520]	; 0x208
     eb0:	6819      	ldr	r1, [r3, #0]
     eb2:	2001      	movs	r0, #1
     eb4:	ea21 0104 	bic.w	r1, r1, r4
     eb8:	6019      	str	r1, [r3, #0]
     eba:	f8d2 3234 	ldr.w	r3, [r2, #564]	; 0x234
     ebe:	431c      	orrs	r4, r3
     ec0:	f8c2 4234 	str.w	r4, [r2, #564]	; 0x234
     ec4:	f85d 4b04 	ldr.w	r4, [sp], #4
     ec8:	4770      	bx	lr
     eca:	bf00      	nop
     ecc:	5000c000 	.word	0x5000c000
     ed0:	10000450 	.word	0x10000450

00000ed4 <USBHAL::USBHAL()>:
     ed4:	4a74      	ldr	r2, [pc, #464]	; (10a8 <USBHAL::USBHAL()+0x1d4>)
     ed6:	e92d 4ff8 	stmdb	sp!, {r3, r4, r5, r6, r7, r8, r9, r10, r11, lr}
     eda:	4604      	mov	r4, r0
     edc:	4b73      	ldr	r3, [pc, #460]	; (10ac <USBHAL::USBHAL()+0x1d8>)
     ede:	6022      	str	r2, [r4, #0]
     ee0:	f04f 7b80 	mov.w	r11, #16777216	; 0x1000000
     ee4:	f04f 0a1c 	mov.w	r10, #28
     ee8:	f04f 0920 	mov.w	r9, #32
     eec:	f04f 0824 	mov.w	r8, #36	; 0x24
     ef0:	f04f 0e2c 	mov.w	lr, #44	; 0x2c
     ef4:	2730      	movs	r7, #48	; 0x30
     ef6:	2244      	movs	r2, #68	; 0x44
     ef8:	f8c3 b080 	str.w	r11, [r3, #128]	; 0x80
     efc:	f04f 0c28 	mov.w	r12, #40	; 0x28
     f00:	2301      	movs	r3, #1
     f02:	2634      	movs	r6, #52	; 0x34
     f04:	2538      	movs	r5, #56	; 0x38
     f06:	203c      	movs	r0, #60	; 0x3c
     f08:	2140      	movs	r1, #64	; 0x40
     f0a:	f04f 0b48 	mov.w	r11, #72	; 0x48
     f0e:	f8c4 a004 	str.w	r10, [r4, #4]
     f12:	f8c4 900c 	str.w	r9, [r4, #12]
     f16:	f04f 0a50 	mov.w	r10, #80	; 0x50
     f1a:	f04f 0954 	mov.w	r9, #84	; 0x54
     f1e:	f8c4 8014 	str.w	r8, [r4, #20]
     f22:	f8c4 e024 	str.w	lr, [r4, #36]	; 0x24
     f26:	f04f 0858 	mov.w	r8, #88	; 0x58
     f2a:	f04f 0e5c 	mov.w	lr, #92	; 0x5c
     f2e:	62e7      	str	r7, [r4, #44]	; 0x2c
     f30:	6562      	str	r2, [r4, #84]	; 0x54
     f32:	2760      	movs	r7, #96	; 0x60
     f34:	224c      	movs	r2, #76	; 0x4c
     f36:	f8c4 c01c 	str.w	r12, [r4, #28]
     f3a:	6366      	str	r6, [r4, #52]	; 0x34
     f3c:	63e5      	str	r5, [r4, #60]	; 0x3c
     f3e:	6460      	str	r0, [r4, #68]	; 0x44
     f40:	64e1      	str	r1, [r4, #76]	; 0x4c
     f42:	f8c4 b05c 	str.w	r11, [r4, #92]	; 0x5c
     f46:	2170      	movs	r1, #112	; 0x70
     f48:	6662      	str	r2, [r4, #100]	; 0x64
     f4a:	f8c4 a06c 	str.w	r10, [r4, #108]	; 0x6c
     f4e:	227c      	movs	r2, #124	; 0x7c
     f50:	f8c4 9074 	str.w	r9, [r4, #116]	; 0x74
     f54:	f8c4 807c 	str.w	r8, [r4, #124]	; 0x7c
     f58:	60a3      	str	r3, [r4, #8]
     f5a:	6123      	str	r3, [r4, #16]
     f5c:	61a3      	str	r3, [r4, #24]
     f5e:	6223      	str	r3, [r4, #32]
     f60:	62a3      	str	r3, [r4, #40]	; 0x28
     f62:	6323      	str	r3, [r4, #48]	; 0x30
     f64:	63a3      	str	r3, [r4, #56]	; 0x38
     f66:	6423      	str	r3, [r4, #64]	; 0x40
     f68:	64a3      	str	r3, [r4, #72]	; 0x48
     f6a:	6523      	str	r3, [r4, #80]	; 0x50
     f6c:	65a3      	str	r3, [r4, #88]	; 0x58
     f6e:	6623      	str	r3, [r4, #96]	; 0x60
     f70:	66a3      	str	r3, [r4, #104]	; 0x68
     f72:	6723      	str	r3, [r4, #112]	; 0x70
     f74:	2664      	movs	r6, #100	; 0x64
     f76:	67a3      	str	r3, [r4, #120]	; 0x78
     f78:	2568      	movs	r5, #104	; 0x68
     f7a:	f8c4 3080 	str.w	r3, [r4, #128]	; 0x80
     f7e:	f8c4 3088 	str.w	r3, [r4, #136]	; 0x88
     f82:	f8c4 3090 	str.w	r3, [r4, #144]	; 0x90
     f86:	f8c4 3098 	str.w	r3, [r4, #152]	; 0x98
     f8a:	f8c4 30a0 	str.w	r3, [r4, #160]	; 0xa0
     f8e:	f8c4 30a8 	str.w	r3, [r4, #168]	; 0xa8
     f92:	f8c4 30b0 	str.w	r3, [r4, #176]	; 0xb0
     f96:	f8c4 30b8 	str.w	r3, [r4, #184]	; 0xb8
     f9a:	f8c4 30c0 	str.w	r3, [r4, #192]	; 0xc0
     f9e:	f8c4 30c8 	str.w	r3, [r4, #200]	; 0xc8
     fa2:	f8c4 30d0 	str.w	r3, [r4, #208]	; 0xd0
     fa6:	f8c4 30d8 	str.w	r3, [r4, #216]	; 0xd8
     faa:	f8c4 30e0 	str.w	r3, [r4, #224]	; 0xe0
     fae:	f8c4 30e8 	str.w	r3, [r4, #232]	; 0xe8
     fb2:	f8c4 30f0 	str.w	r3, [r4, #240]	; 0xf0
     fb6:	f8c4 e084 	str.w	lr, [r4, #132]	; 0x84
     fba:	f8c4 708c 	str.w	r7, [r4, #140]	; 0x8c
     fbe:	2374      	movs	r3, #116	; 0x74
     fc0:	4f3b      	ldr	r7, [pc, #236]	; (10b0 <USBHAL::USBHAL()+0x1dc>)
     fc2:	206c      	movs	r0, #108	; 0x6c
     fc4:	f04f 0b78 	mov.w	r11, #120	; 0x78
     fc8:	f04f 0a80 	mov.w	r10, #128	; 0x80
     fcc:	f04f 0984 	mov.w	r9, #132	; 0x84
     fd0:	f04f 0888 	mov.w	r8, #136	; 0x88
     fd4:	f04f 0c8c 	mov.w	r12, #140	; 0x8c
     fd8:	f04f 0e90 	mov.w	lr, #144	; 0x90
     fdc:	f8c4 30b4 	str.w	r3, [r4, #180]	; 0xb4
     fe0:	f8c4 6094 	str.w	r6, [r4, #148]	; 0x94
     fe4:	f8c4 509c 	str.w	r5, [r4, #156]	; 0x9c
     fe8:	f8c4 00a4 	str.w	r0, [r4, #164]	; 0xa4
     fec:	f8c4 10ac 	str.w	r1, [r4, #172]	; 0xac
     ff0:	f8c4 b0bc 	str.w	r11, [r4, #188]	; 0xbc
     ff4:	f8c4 20c4 	str.w	r2, [r4, #196]	; 0xc4
     ff8:	f8c4 a0cc 	str.w	r10, [r4, #204]	; 0xcc
     ffc:	f8c4 90d4 	str.w	r9, [r4, #212]	; 0xd4
    1000:	f8c4 80dc 	str.w	r8, [r4, #220]	; 0xdc
    1004:	f8c4 c0e4 	str.w	r12, [r4, #228]	; 0xe4
    1008:	f8c4 e0ec 	str.w	lr, [r4, #236]	; 0xec
    100c:	f8d7 20c4 	ldr.w	r2, [r7, #196]	; 0xc4
    1010:	4b28      	ldr	r3, [pc, #160]	; (10b4 <USBHAL::USBHAL()+0x1e0>)
    1012:	f042 4200 	orr.w	r2, r2, #2147483648	; 0x80000000
    1016:	f8c7 20c4 	str.w	r2, [r7, #196]	; 0xc4
    101a:	f8d3 1ff4 	ldr.w	r1, [r3, #4084]	; 0xff4
    101e:	461a      	mov	r2, r3
    1020:	f041 0112 	orr.w	r1, r1, #18
    1024:	f8c3 1ff4 	str.w	r1, [r3, #4084]	; 0xff4
    1028:	f8d2 3ff8 	ldr.w	r3, [r2, #4088]	; 0xff8
    102c:	4d21      	ldr	r5, [pc, #132]	; (10b4 <USBHAL::USBHAL()+0x1e0>)
    102e:	2b12      	cmp	r3, #18
    1030:	d1fa      	bne.n	1028 <USBHAL::USBHAL()+0x154>
    1032:	4e21      	ldr	r6, [pc, #132]	; (10b8 <USBHAL::USBHAL()+0x1e4>)
    1034:	6873      	ldr	r3, [r6, #4]
    1036:	f023 5370 	bic.w	r3, r3, #1006632960	; 0x3c000000
    103a:	6073      	str	r3, [r6, #4]
    103c:	6873      	ldr	r3, [r6, #4]
    103e:	f043 53a0 	orr.w	r3, r3, #335544320	; 0x14000000
    1042:	6073      	str	r3, [r6, #4]
    1044:	f7ff fd64 	bl	b10 <SIEdisconnect()>
    1048:	6933      	ldr	r3, [r6, #16]
    104a:	481c      	ldr	r0, [pc, #112]	; (10bc <USBHAL::USBHAL()+0x1e8>)
    104c:	f423 3340 	bic.w	r3, r3, #196608	; 0x30000
    1050:	6133      	str	r3, [r6, #16]
    1052:	6933      	ldr	r3, [r6, #16]
    1054:	f443 2380 	orr.w	r3, r3, #262144	; 0x40000
    1058:	6133      	str	r3, [r6, #16]
    105a:	f000 fbbf 	bl	17dc <wait>
    105e:	4620      	mov	r0, r4
    1060:	2101      	movs	r1, #1
    1062:	2240      	movs	r2, #64	; 0x40
    1064:	2300      	movs	r3, #0
    1066:	f7ff ff07 	bl	e78 <USBHAL::realiseEndpoint(unsigned char, unsigned long, unsigned long)>
    106a:	2100      	movs	r1, #0
    106c:	460b      	mov	r3, r1
    106e:	2240      	movs	r2, #64	; 0x40
    1070:	4620      	mov	r0, r4
    1072:	f7ff ff01 	bl	e78 <USBHAL::realiseEndpoint(unsigned char, unsigned long, unsigned long)>
    1076:	4b12      	ldr	r3, [pc, #72]	; (10c0 <USBHAL::USBHAL()+0x1ec>)
    1078:	2018      	movs	r0, #24
    107a:	4912      	ldr	r1, [pc, #72]	; (10c4 <USBHAL::USBHAL()+0x1f0>)
    107c:	601c      	str	r4, [r3, #0]
    107e:	f000 fb55 	bl	172c <NVIC_SetVector>
    1082:	230d      	movs	r3, #13
    1084:	f8c5 3204 	str.w	r3, [r5, #516]	; 0x204
    1088:	f8d5 3234 	ldr.w	r3, [r5, #564]	; 0x234
    108c:	4620      	mov	r0, r4
    108e:	f043 0302 	orr.w	r3, r3, #2
    1092:	f8c5 3234 	str.w	r3, [r5, #564]	; 0x234
    1096:	f8d5 3234 	ldr.w	r3, [r5, #564]	; 0x234
    109a:	f043 0301 	orr.w	r3, r3, #1
    109e:	f8c5 3234 	str.w	r3, [r5, #564]	; 0x234
    10a2:	e8bd 8ff8 	ldmia.w	sp!, {r3, r4, r5, r6, r7, r8, r9, r10, r11, pc}
    10a6:	bf00      	nop
    10a8:	00005468 	.word	0x00005468
    10ac:	e000e100 	.word	0xe000e100
    10b0:	400fc000 	.word	0x400fc000
    10b4:	5000c000 	.word	0x5000c000
    10b8:	4002c000 	.word	0x4002c000
    10bc:	3e99999a 	.word	0x3e99999a
    10c0:	1000044c 	.word	0x1000044c
    10c4:	0000132d 	.word	0x0000132d

000010c8 <USBHAL::stallEndpoint(unsigned char)>:
    10c8:	2901      	cmp	r1, #1
    10ca:	b510      	push	{r4, lr}
    10cc:	460c      	mov	r4, r1
    10ce:	d90b      	bls.n	10e8 <USBHAL::stallEndpoint(unsigned char)+0x20>
    10d0:	4608      	mov	r0, r1
    10d2:	2101      	movs	r1, #1
    10d4:	f7ff fcfc 	bl	ad0 <SIEsetEndpointStatus(unsigned char, unsigned char)>
    10d8:	2201      	movs	r2, #1
    10da:	fa02 f404 	lsl.w	r4, r2, r4
    10de:	4b05      	ldr	r3, [pc, #20]	; (10f4 <USBHAL::stallEndpoint(unsigned char)+0x2c>)
    10e0:	681a      	ldr	r2, [r3, #0]
    10e2:	4322      	orrs	r2, r4
    10e4:	601a      	str	r2, [r3, #0]
    10e6:	bd10      	pop	{r4, pc}
    10e8:	2000      	movs	r0, #0
    10ea:	2180      	movs	r1, #128	; 0x80
    10ec:	e8bd 4010 	ldmia.w	sp!, {r4, lr}
    10f0:	f7ff bcee 	b.w	ad0 <SIEsetEndpointStatus(unsigned char, unsigned char)>
    10f4:	10000450 	.word	0x10000450

000010f8 <USBHAL::unstallEndpoint(unsigned char)>:
    10f8:	b510      	push	{r4, lr}
    10fa:	4608      	mov	r0, r1
    10fc:	460c      	mov	r4, r1
    10fe:	2100      	movs	r1, #0
    1100:	f7ff fce6 	bl	ad0 <SIEsetEndpointStatus(unsigned char, unsigned char)>
    1104:	2201      	movs	r2, #1
    1106:	fa02 f404 	lsl.w	r4, r2, r4
    110a:	4b03      	ldr	r3, [pc, #12]	; (1118 <USBHAL::unstallEndpoint(unsigned char)+0x20>)
    110c:	681a      	ldr	r2, [r3, #0]
    110e:	ea22 0204 	bic.w	r2, r2, r4
    1112:	601a      	str	r2, [r3, #0]
    1114:	bd10      	pop	{r4, pc}
    1116:	bf00      	nop
    1118:	10000450 	.word	0x10000450

0000111c <USBHAL::getEndpointStallState(unsigned char)>:
    111c:	4b02      	ldr	r3, [pc, #8]	; (1128 <USBHAL::getEndpointStallState(unsigned char)+0xc>)
    111e:	6818      	ldr	r0, [r3, #0]
    1120:	40c8      	lsrs	r0, r1
    1122:	f000 0001 	and.w	r0, r0, #1
    1126:	4770      	bx	lr
    1128:	10000450 	.word	0x10000450

0000112c <USBHAL::usbisr()>:
    112c:	4b78      	ldr	r3, [pc, #480]	; (1310 <USBHAL::usbisr()+0x1e4>)
    112e:	e92d 47f0 	stmdb	sp!, {r4, r5, r6, r7, r8, r9, r10, lr}
    1132:	f8d3 2200 	ldr.w	r2, [r3, #512]	; 0x200
    1136:	4680      	mov	r8, r0
    1138:	07d2      	lsls	r2, r2, #31
    113a:	f100 80a7 	bmi.w	128c <USBHAL::usbisr()+0x160>
    113e:	4b74      	ldr	r3, [pc, #464]	; (1310 <USBHAL::usbisr()+0x1e4>)
    1140:	f8d3 2200 	ldr.w	r2, [r3, #512]	; 0x200
    1144:	0715      	lsls	r5, r2, #28
    1146:	d524      	bpl.n	1192 <USBHAL::usbisr()+0x66>
    1148:	4a72      	ldr	r2, [pc, #456]	; (1314 <USBHAL::usbisr()+0x1e8>)
    114a:	2108      	movs	r1, #8
    114c:	2010      	movs	r0, #16
    114e:	f8c3 1208 	str.w	r1, [r3, #520]	; 0x208
    1152:	f8c3 0208 	str.w	r0, [r3, #520]	; 0x208
    1156:	4619      	mov	r1, r3
    1158:	f8c3 2210 	str.w	r2, [r3, #528]	; 0x210
    115c:	f8d1 3200 	ldr.w	r3, [r1, #512]	; 0x200
    1160:	4a6b      	ldr	r2, [pc, #428]	; (1310 <USBHAL::usbisr()+0x1e4>)
    1162:	06dc      	lsls	r4, r3, #27
    1164:	d5fa      	bpl.n	115c <USBHAL::usbisr()+0x30>
    1166:	4b6c      	ldr	r3, [pc, #432]	; (1318 <USBHAL::usbisr()+0x1ec>)
    1168:	2120      	movs	r1, #32
    116a:	f8c2 1208 	str.w	r1, [r2, #520]	; 0x208
    116e:	4611      	mov	r1, r2
    1170:	f8c2 3210 	str.w	r3, [r2, #528]	; 0x210
    1174:	f8d1 3200 	ldr.w	r3, [r1, #512]	; 0x200
    1178:	4a65      	ldr	r2, [pc, #404]	; (1310 <USBHAL::usbisr()+0x1e4>)
    117a:	0698      	lsls	r0, r3, #26
    117c:	d5fa      	bpl.n	1174 <USBHAL::usbisr()+0x48>
    117e:	f8d2 4214 	ldr.w	r4, [r2, #532]	; 0x214
    1182:	b2e4      	uxtb	r4, r4
    1184:	f004 030c 	and.w	r3, r4, #12
    1188:	2b0c      	cmp	r3, #12
    118a:	f000 80b3 	beq.w	12f4 <USBHAL::usbisr()+0x1c8>
    118e:	06e2      	lsls	r2, r4, #27
    1190:	d474      	bmi.n	127c <USBHAL::usbisr()+0x150>
    1192:	495f      	ldr	r1, [pc, #380]	; (1310 <USBHAL::usbisr()+0x1e4>)
    1194:	f8d1 3200 	ldr.w	r3, [r1, #512]	; 0x200
    1198:	075f      	lsls	r7, r3, #29
    119a:	d553      	bpl.n	1244 <USBHAL::usbisr()+0x118>
    119c:	f8d1 3230 	ldr.w	r3, [r1, #560]	; 0x230
    11a0:	07de      	lsls	r6, r3, #31
    11a2:	d516      	bpl.n	11d2 <USBHAL::usbisr()+0xa6>
    11a4:	2301      	movs	r3, #1
    11a6:	f8c1 3238 	str.w	r3, [r1, #568]	; 0x238
    11aa:	f8d1 3200 	ldr.w	r3, [r1, #512]	; 0x200
    11ae:	4a58      	ldr	r2, [pc, #352]	; (1310 <USBHAL::usbisr()+0x1e4>)
    11b0:	069d      	lsls	r5, r3, #26
    11b2:	d5fa      	bpl.n	11aa <USBHAL::usbisr()+0x7e>
    11b4:	f8d2 3214 	ldr.w	r3, [r2, #532]	; 0x214
    11b8:	4640      	mov	r0, r8
    11ba:	f013 0f04 	tst.w	r3, #4
    11be:	f8d8 3000 	ldr.w	r3, [r8]
    11c2:	bf14      	ite	ne
    11c4:	685b      	ldrne	r3, [r3, #4]
    11c6:	689b      	ldreq	r3, [r3, #8]
    11c8:	4798      	blx	r3
    11ca:	4b51      	ldr	r3, [pc, #324]	; (1310 <USBHAL::usbisr()+0x1e4>)
    11cc:	2204      	movs	r2, #4
    11ce:	f8c3 2208 	str.w	r2, [r3, #520]	; 0x208
    11d2:	494f      	ldr	r1, [pc, #316]	; (1310 <USBHAL::usbisr()+0x1e4>)
    11d4:	f8d1 3230 	ldr.w	r3, [r1, #560]	; 0x230
    11d8:	079c      	lsls	r4, r3, #30
    11da:	d43c      	bmi.n	1256 <USBHAL::usbisr()+0x12a>
    11dc:	4c4c      	ldr	r4, [pc, #304]	; (1310 <USBHAL::usbisr()+0x1e4>)
    11de:	f8df 9148 	ldr.w	r9, [pc, #328]	; 1328 <USBHAL::usbisr()+0x1fc>
    11e2:	46a2      	mov	r10, r4
    11e4:	2600      	movs	r6, #0
    11e6:	2502      	movs	r5, #2
    11e8:	f8d4 3230 	ldr.w	r3, [r4, #560]	; 0x230
    11ec:	40eb      	lsrs	r3, r5
    11ee:	07da      	lsls	r2, r3, #31
    11f0:	d523      	bpl.n	123a <USBHAL::usbisr()+0x10e>
    11f2:	2701      	movs	r7, #1
    11f4:	40af      	lsls	r7, r5
    11f6:	f8c4 7238 	str.w	r7, [r4, #568]	; 0x238
    11fa:	f8d4 3200 	ldr.w	r3, [r4, #512]	; 0x200
    11fe:	069b      	lsls	r3, r3, #26
    1200:	d5fb      	bpl.n	11fa <USBHAL::usbisr()+0xce>
    1202:	f8da 3214 	ldr.w	r3, [r10, #532]	; 0x214
    1206:	f8d9 3000 	ldr.w	r3, [r9]
    120a:	2204      	movs	r2, #4
    120c:	433b      	orrs	r3, r7
    120e:	f8c9 3000 	str.w	r3, [r9]
    1212:	eb08 0306 	add.w	r3, r8, r6
    1216:	f8ca 2208 	str.w	r2, [r10, #520]	; 0x208
    121a:	689a      	ldr	r2, [r3, #8]
    121c:	493f      	ldr	r1, [pc, #252]	; (131c <USBHAL::usbisr()+0x1f0>)
    121e:	07d0      	lsls	r0, r2, #31
    1220:	d412      	bmi.n	1248 <USBHAL::usbisr()+0x11c>
    1222:	6808      	ldr	r0, [r1, #0]
    1224:	685b      	ldr	r3, [r3, #4]
    1226:	eb00 0062 	add.w	r0, r0, r2, asr #1
    122a:	4798      	blx	r3
    122c:	b128      	cbz	r0, 123a <USBHAL::usbisr()+0x10e>
    122e:	f8d9 3000 	ldr.w	r3, [r9]
    1232:	ea23 0707 	bic.w	r7, r3, r7
    1236:	f8c9 7000 	str.w	r7, [r9]
    123a:	3501      	adds	r5, #1
    123c:	2d20      	cmp	r5, #32
    123e:	f106 0608 	add.w	r6, r6, #8
    1242:	d1d1      	bne.n	11e8 <USBHAL::usbisr()+0xbc>
    1244:	e8bd 87f0 	ldmia.w	sp!, {r4, r5, r6, r7, r8, r9, r10, pc}
    1248:	6808      	ldr	r0, [r1, #0]
    124a:	1052      	asrs	r2, r2, #1
    124c:	5881      	ldr	r1, [r0, r2]
    124e:	685b      	ldr	r3, [r3, #4]
    1250:	4410      	add	r0, r2
    1252:	58cb      	ldr	r3, [r1, r3]
    1254:	e7e9      	b.n	122a <USBHAL::usbisr()+0xfe>
    1256:	2302      	movs	r3, #2
    1258:	f8c1 3238 	str.w	r3, [r1, #568]	; 0x238
    125c:	f8d1 3200 	ldr.w	r3, [r1, #512]	; 0x200
    1260:	4a2b      	ldr	r2, [pc, #172]	; (1310 <USBHAL::usbisr()+0x1e4>)
    1262:	0698      	lsls	r0, r3, #26
    1264:	d5fa      	bpl.n	125c <USBHAL::usbisr()+0x130>
    1266:	f8d8 3000 	ldr.w	r3, [r8]
    126a:	2104      	movs	r1, #4
    126c:	f8d2 0214 	ldr.w	r0, [r2, #532]	; 0x214
    1270:	68db      	ldr	r3, [r3, #12]
    1272:	4640      	mov	r0, r8
    1274:	f8c2 1208 	str.w	r1, [r2, #520]	; 0x208
    1278:	4798      	blx	r3
    127a:	e7af      	b.n	11dc <USBHAL::usbisr()+0xb0>
    127c:	0763      	lsls	r3, r4, #29
    127e:	d540      	bpl.n	1302 <USBHAL::usbisr()+0x1d6>
    1280:	f8d8 3000 	ldr.w	r3, [r8]
    1284:	4640      	mov	r0, r8
    1286:	681b      	ldr	r3, [r3, #0]
    1288:	4798      	blx	r3
    128a:	e782      	b.n	1192 <USBHAL::usbisr()+0x66>
    128c:	6802      	ldr	r2, [r0, #0]
    128e:	4824      	ldr	r0, [pc, #144]	; (1320 <USBHAL::usbisr()+0x1f4>)
    1290:	2410      	movs	r4, #16
    1292:	6995      	ldr	r5, [r2, #24]
    1294:	4619      	mov	r1, r3
    1296:	f8c3 4208 	str.w	r4, [r3, #520]	; 0x208
    129a:	f8c3 0210 	str.w	r0, [r3, #528]	; 0x210
    129e:	f8d1 3200 	ldr.w	r3, [r1, #512]	; 0x200
    12a2:	4a1b      	ldr	r2, [pc, #108]	; (1310 <USBHAL::usbisr()+0x1e4>)
    12a4:	06db      	lsls	r3, r3, #27
    12a6:	d5fa      	bpl.n	129e <USBHAL::usbisr()+0x172>
    12a8:	4b1e      	ldr	r3, [pc, #120]	; (1324 <USBHAL::usbisr()+0x1f8>)
    12aa:	2120      	movs	r1, #32
    12ac:	f8c2 1208 	str.w	r1, [r2, #520]	; 0x208
    12b0:	4611      	mov	r1, r2
    12b2:	f8c2 3210 	str.w	r3, [r2, #528]	; 0x210
    12b6:	f8d1 3200 	ldr.w	r3, [r1, #512]	; 0x200
    12ba:	4a15      	ldr	r2, [pc, #84]	; (1310 <USBHAL::usbisr()+0x1e4>)
    12bc:	069f      	lsls	r7, r3, #26
    12be:	d5fa      	bpl.n	12b6 <USBHAL::usbisr()+0x18a>
    12c0:	f8d2 1214 	ldr.w	r1, [r2, #532]	; 0x214
    12c4:	4b17      	ldr	r3, [pc, #92]	; (1324 <USBHAL::usbisr()+0x1f8>)
    12c6:	2020      	movs	r0, #32
    12c8:	f8c2 0208 	str.w	r0, [r2, #520]	; 0x208
    12cc:	b2c9      	uxtb	r1, r1
    12ce:	4610      	mov	r0, r2
    12d0:	f8c2 3210 	str.w	r3, [r2, #528]	; 0x210
    12d4:	f8d0 3200 	ldr.w	r3, [r0, #512]	; 0x200
    12d8:	4c0d      	ldr	r4, [pc, #52]	; (1310 <USBHAL::usbisr()+0x1e4>)
    12da:	069e      	lsls	r6, r3, #26
    12dc:	d5fa      	bpl.n	12d4 <USBHAL::usbisr()+0x1a8>
    12de:	f8d4 3214 	ldr.w	r3, [r4, #532]	; 0x214
    12e2:	4640      	mov	r0, r8
    12e4:	b2db      	uxtb	r3, r3
    12e6:	ea41 2103 	orr.w	r1, r1, r3, lsl #8
    12ea:	47a8      	blx	r5
    12ec:	2301      	movs	r3, #1
    12ee:	f8c4 3208 	str.w	r3, [r4, #520]	; 0x208
    12f2:	e724      	b.n	113e <USBHAL::usbisr()+0x12>
    12f4:	f8d8 3000 	ldr.w	r3, [r8]
    12f8:	4640      	mov	r0, r8
    12fa:	695b      	ldr	r3, [r3, #20]
    12fc:	2100      	movs	r1, #0
    12fe:	4798      	blx	r3
    1300:	e745      	b.n	118e <USBHAL::usbisr()+0x62>
    1302:	f8d8 3000 	ldr.w	r3, [r8]
    1306:	4640      	mov	r0, r8
    1308:	695b      	ldr	r3, [r3, #20]
    130a:	2101      	movs	r1, #1
    130c:	4798      	blx	r3
    130e:	e7b7      	b.n	1280 <USBHAL::usbisr()+0x154>
    1310:	5000c000 	.word	0x5000c000
    1314:	00fe0500 	.word	0x00fe0500
    1318:	00fe0200 	.word	0x00fe0200
    131c:	1000044c 	.word	0x1000044c
    1320:	00f50500 	.word	0x00f50500
    1324:	00f50200 	.word	0x00f50200
    1328:	10000454 	.word	0x10000454

0000132c <USBHAL::_usbisr()>:
    132c:	4b01      	ldr	r3, [pc, #4]	; (1334 <USBHAL::_usbisr()+0x8>)
    132e:	6818      	ldr	r0, [r3, #0]
    1330:	f7ff befc 	b.w	112c <USBHAL::usbisr()>
    1334:	1000044c 	.word	0x1000044c

00001338 <USBHID::HID_callbackSetReport(HID_REPORT*)>:
    1338:	4770      	bx	lr
    133a:	bf00      	nop

0000133c <USBHID::reportDescLength()>:
    133c:	b510      	push	{r4, lr}
    133e:	6803      	ldr	r3, [r0, #0]
    1340:	4604      	mov	r4, r0
    1342:	f8d3 30cc 	ldr.w	r3, [r3, #204]	; 0xcc
    1346:	4798      	blx	r3
    1348:	f8b4 011c 	ldrh.w	r0, [r4, #284]	; 0x11c
    134c:	bd10      	pop	{r4, pc}
    134e:	bf00      	nop

00001350 <USBHID::stringIinterfaceDesc()>:
    1350:	4800      	ldr	r0, [pc, #0]	; (1354 <USBHID::stringIinterfaceDesc()+0x4>)
    1352:	4770      	bx	lr
    1354:	10000198 	.word	0x10000198

00001358 <USBHID::stringIproductDesc()>:
    1358:	4800      	ldr	r0, [pc, #0]	; (135c <USBHID::stringIproductDesc()+0x4>)
    135a:	4770      	bx	lr
    135c:	10000180 	.word	0x10000180

00001360 <USBHID::USBCallback_request()>:
    1360:	b570      	push	{r4, r5, r6, lr}
    1362:	4605      	mov	r5, r0
    1364:	f7ff fad6 	bl	914 <USBDevice::getTransferPtr()>
    1368:	7843      	ldrb	r3, [r0, #1]
    136a:	4604      	mov	r4, r0
    136c:	bb3b      	cbnz	r3, 13be <USBHID::USBCallback_request()+0x5e>
    136e:	78c2      	ldrb	r2, [r0, #3]
    1370:	2a06      	cmp	r2, #6
    1372:	d13c      	bne.n	13ee <USBHID::USBCallback_request()+0x8e>
    1374:	8881      	ldrh	r1, [r0, #4]
    1376:	1209      	asrs	r1, r1, #8
    1378:	2921      	cmp	r1, #33	; 0x21
    137a:	d03a      	beq.n	13f2 <USBHID::USBCallback_request()+0x92>
    137c:	2922      	cmp	r1, #34	; 0x22
    137e:	d136      	bne.n	13ee <USBHID::USBCallback_request()+0x8e>
    1380:	682b      	ldr	r3, [r5, #0]
    1382:	4628      	mov	r0, r5
    1384:	f8d3 30cc 	ldr.w	r3, [r3, #204]	; 0xcc
    1388:	4798      	blx	r3
    138a:	2800      	cmp	r0, #0
    138c:	d03e      	beq.n	140c <USBHID::USBCallback_request()+0xac>
    138e:	682b      	ldr	r3, [r5, #0]
    1390:	4628      	mov	r0, r5
    1392:	f8d3 30c8 	ldr.w	r3, [r3, #200]	; 0xc8
    1396:	4798      	blx	r3
    1398:	2800      	cmp	r0, #0
    139a:	d037      	beq.n	140c <USBHID::USBCallback_request()+0xac>
    139c:	682b      	ldr	r3, [r5, #0]
    139e:	4628      	mov	r0, r5
    13a0:	f8d3 30c8 	ldr.w	r3, [r3, #200]	; 0xc8
    13a4:	4798      	blx	r3
    13a6:	682b      	ldr	r3, [r5, #0]
    13a8:	6120      	str	r0, [r4, #16]
    13aa:	f8d3 30cc 	ldr.w	r3, [r3, #204]	; 0xcc
    13ae:	4628      	mov	r0, r5
    13b0:	4798      	blx	r3
    13b2:	2301      	movs	r3, #1
    13b4:	60e0      	str	r0, [r4, #12]
    13b6:	7523      	strb	r3, [r4, #20]
    13b8:	4618      	mov	r0, r3
    13ba:	7863      	ldrb	r3, [r4, #1]
    13bc:	e000      	b.n	13c0 <USBHID::USBCallback_request()+0x60>
    13be:	2000      	movs	r0, #0
    13c0:	2b01      	cmp	r3, #1
    13c2:	d113      	bne.n	13ec <USBHID::USBCallback_request()+0x8c>
    13c4:	78e2      	ldrb	r2, [r4, #3]
    13c6:	2a09      	cmp	r2, #9
    13c8:	d110      	bne.n	13ec <USBHID::USBCallback_request()+0x8c>
    13ca:	88a2      	ldrh	r2, [r4, #4]
    13cc:	f205 1625 	addw	r6, r5, #293	; 0x125
    13d0:	f885 2124 	strb.w	r2, [r5, #292]	; 0x124
    13d4:	8920      	ldrh	r0, [r4, #8]
    13d6:	2200      	movs	r2, #0
    13d8:	3001      	adds	r0, #1
    13da:	f8c5 0120 	str.w	r0, [r5, #288]	; 0x120
    13de:	213f      	movs	r1, #63	; 0x3f
    13e0:	7522      	strb	r2, [r4, #20]
    13e2:	4618      	mov	r0, r3
    13e4:	60e6      	str	r6, [r4, #12]
    13e6:	75a3      	strb	r3, [r4, #22]
    13e8:	6121      	str	r1, [r4, #16]
    13ea:	bd70      	pop	{r4, r5, r6, pc}
    13ec:	bd70      	pop	{r4, r5, r6, pc}
    13ee:	4618      	mov	r0, r3
    13f0:	bd70      	pop	{r4, r5, r6, pc}
    13f2:	4628      	mov	r0, r5
    13f4:	f7ff fa94 	bl	920 <USBDevice::findDescriptor(unsigned char)>
    13f8:	2800      	cmp	r0, #0
    13fa:	d0de      	beq.n	13ba <USBHID::USBCallback_request()+0x5a>
    13fc:	2301      	movs	r3, #1
    13fe:	2209      	movs	r2, #9
    1400:	60e0      	str	r0, [r4, #12]
    1402:	7523      	strb	r3, [r4, #20]
    1404:	4618      	mov	r0, r3
    1406:	6122      	str	r2, [r4, #16]
    1408:	7863      	ldrb	r3, [r4, #1]
    140a:	e7d9      	b.n	13c0 <USBHID::USBCallback_request()+0x60>
    140c:	7863      	ldrb	r3, [r4, #1]
    140e:	2000      	movs	r0, #0
    1410:	e7d6      	b.n	13c0 <USBHID::USBCallback_request()+0x60>
    1412:	bf00      	nop

00001414 <USBHID::reportDesc()>:
    1414:	b538      	push	{r3, r4, r5, lr}
    1416:	4c0f      	ldr	r4, [pc, #60]	; (1454 <USBHID::reportDesc()+0x40>)
    1418:	4605      	mov	r5, r0
    141a:	6823      	ldr	r3, [r4, #0]
    141c:	07db      	lsls	r3, r3, #31
    141e:	d504      	bpl.n	142a <USBHID::reportDesc()+0x16>
    1420:	231c      	movs	r3, #28
    1422:	f8a5 311c 	strh.w	r3, [r5, #284]	; 0x11c
    1426:	480c      	ldr	r0, [pc, #48]	; (1458 <USBHID::reportDesc()+0x44>)
    1428:	bd38      	pop	{r3, r4, r5, pc}
    142a:	4620      	mov	r0, r4
    142c:	f001 f8f9 	bl	2622 <__cxa_guard_acquire>
    1430:	2800      	cmp	r0, #0
    1432:	d0f5      	beq.n	1420 <USBHID::reportDesc()+0xc>
    1434:	4b08      	ldr	r3, [pc, #32]	; (1458 <USBHID::reportDesc()+0x44>)
    1436:	f895 1165 	ldrb.w	r1, [r5, #357]	; 0x165
    143a:	f895 2164 	ldrb.w	r2, [r5, #356]	; 0x164
    143e:	4620      	mov	r0, r4
    1440:	7419      	strb	r1, [r3, #16]
    1442:	759a      	strb	r2, [r3, #22]
    1444:	f001 f8fb 	bl	263e <__cxa_guard_release>
    1448:	231c      	movs	r3, #28
    144a:	f8a5 311c 	strh.w	r3, [r5, #284]	; 0x11c
    144e:	4802      	ldr	r0, [pc, #8]	; (1458 <USBHID::reportDesc()+0x44>)
    1450:	bd38      	pop	{r3, r4, r5, pc}
    1452:	bf00      	nop
    1454:	1000045c 	.word	0x1000045c
    1458:	10000138 	.word	0x10000138

0000145c <USBHID::USBCallback_setConfiguration(unsigned char)>:
    145c:	2901      	cmp	r1, #1
    145e:	b538      	push	{r3, r4, r5, lr}
    1460:	460c      	mov	r4, r1
    1462:	4605      	mov	r5, r0
    1464:	d001      	beq.n	146a <USBHID::USBCallback_setConfiguration(unsigned char)+0xe>
    1466:	2000      	movs	r0, #0
    1468:	bd38      	pop	{r3, r4, r5, pc}
    146a:	2103      	movs	r1, #3
    146c:	2240      	movs	r2, #64	; 0x40
    146e:	f7ff fa53 	bl	918 <USBDevice::addEndpoint(unsigned char, unsigned long)>
    1472:	4628      	mov	r0, r5
    1474:	2102      	movs	r1, #2
    1476:	2240      	movs	r2, #64	; 0x40
    1478:	f7ff fa4e 	bl	918 <USBDevice::addEndpoint(unsigned char, unsigned long)>
    147c:	4628      	mov	r0, r5
    147e:	2102      	movs	r1, #2
    1480:	2240      	movs	r2, #64	; 0x40
    1482:	f7ff faab 	bl	9dc <USBDevice::readStart(unsigned char, unsigned long)>
    1486:	4620      	mov	r0, r4
    1488:	bd38      	pop	{r3, r4, r5, pc}
    148a:	bf00      	nop

0000148c <USBHID::configurationDesc()>:
    148c:	b570      	push	{r4, r5, r6, lr}
    148e:	4c0f      	ldr	r4, [pc, #60]	; (14cc <USBHID::configurationDesc()+0x40>)
    1490:	4605      	mov	r5, r0
    1492:	6823      	ldr	r3, [r4, #0]
    1494:	07db      	lsls	r3, r3, #31
    1496:	d501      	bpl.n	149c <USBHID::configurationDesc()+0x10>
    1498:	480d      	ldr	r0, [pc, #52]	; (14d0 <USBHID::configurationDesc()+0x44>)
    149a:	bd70      	pop	{r4, r5, r6, pc}
    149c:	4620      	mov	r0, r4
    149e:	f001 f8c0 	bl	2622 <__cxa_guard_acquire>
    14a2:	2800      	cmp	r0, #0
    14a4:	d0f8      	beq.n	1498 <USBHID::configurationDesc()+0xc>
    14a6:	682b      	ldr	r3, [r5, #0]
    14a8:	4628      	mov	r0, r5
    14aa:	f8d3 30c8 	ldr.w	r3, [r3, #200]	; 0xc8
    14ae:	4798      	blx	r3
    14b0:	4e07      	ldr	r6, [pc, #28]	; (14d0 <USBHID::configurationDesc()+0x44>)
    14b2:	7670      	strb	r0, [r6, #25]
    14b4:	682b      	ldr	r3, [r5, #0]
    14b6:	4628      	mov	r0, r5
    14b8:	f8d3 30c8 	ldr.w	r3, [r3, #200]	; 0xc8
    14bc:	4798      	blx	r3
    14be:	0a03      	lsrs	r3, r0, #8
    14c0:	4620      	mov	r0, r4
    14c2:	76b3      	strb	r3, [r6, #26]
    14c4:	f001 f8bb 	bl	263e <__cxa_guard_release>
    14c8:	4801      	ldr	r0, [pc, #4]	; (14d0 <USBHID::configurationDesc()+0x44>)
    14ca:	bd70      	pop	{r4, r5, r6, pc}
    14cc:	10000458 	.word	0x10000458
    14d0:	10000154 	.word	0x10000154

000014d4 <USBHID::USBHID(unsigned char, unsigned char, unsigned short, unsigned short, unsigned short, bool)>:
    14d4:	b5f8      	push	{r3, r4, r5, r6, r7, lr}
    14d6:	460f      	mov	r7, r1
    14d8:	4616      	mov	r6, r2
    14da:	4619      	mov	r1, r3
    14dc:	f8bd 2018 	ldrh.w	r2, [sp, #24]
    14e0:	f8bd 301c 	ldrh.w	r3, [sp, #28]
    14e4:	4604      	mov	r4, r0
    14e6:	f89d 5020 	ldrb.w	r5, [sp, #32]
    14ea:	f7ff fa5b 	bl	9a4 <USBDevice::USBDevice(unsigned short, unsigned short, unsigned short)>
    14ee:	4b06      	ldr	r3, [pc, #24]	; (1508 <USBHID::USBHID(unsigned char, unsigned char, unsigned short, unsigned short, unsigned short, bool)+0x34>)
    14f0:	f884 7164 	strb.w	r7, [r4, #356]	; 0x164
    14f4:	f884 6165 	strb.w	r6, [r4, #357]	; 0x165
    14f8:	6023      	str	r3, [r4, #0]
    14fa:	b11d      	cbz	r5, 1504 <USBHID::USBHID(unsigned char, unsigned char, unsigned short, unsigned short, unsigned short, bool)+0x30>
    14fc:	4620      	mov	r0, r4
    14fe:	2101      	movs	r1, #1
    1500:	f7ff f9fc 	bl	8fc <USBDevice::connect(bool)>
    1504:	4620      	mov	r0, r4
    1506:	bdf8      	pop	{r3, r4, r5, r6, r7, pc}
    1508:	00005508 	.word	0x00005508

0000150c <USBHID::send(HID_REPORT*)>:
    150c:	b510      	push	{r4, lr}
    150e:	2440      	movs	r4, #64	; 0x40
    1510:	b082      	sub	sp, #8
    1512:	680b      	ldr	r3, [r1, #0]
    1514:	1d0a      	adds	r2, r1, #4
    1516:	9400      	str	r4, [sp, #0]
    1518:	2103      	movs	r1, #3
    151a:	f7ff fa67 	bl	9ec <USBDevice::write(unsigned char, unsigned char*, unsigned long, unsigned long)>
    151e:	b002      	add	sp, #8
    1520:	bd10      	pop	{r4, pc}
    1522:	bf00      	nop

00001524 <USBMouse::reportDesc()>:
    1524:	f890 3166 	ldrb.w	r3, [r0, #358]	; 0x166
    1528:	2b01      	cmp	r3, #1
    152a:	d005      	beq.n	1538 <USBMouse::reportDesc()+0x14>
    152c:	b94b      	cbnz	r3, 1542 <USBMouse::reportDesc()+0x1e>
    152e:	2341      	movs	r3, #65	; 0x41
    1530:	f8a0 311c 	strh.w	r3, [r0, #284]	; 0x11c
    1534:	4804      	ldr	r0, [pc, #16]	; (1548 <USBMouse::reportDesc()+0x24>)
    1536:	4770      	bx	lr
    1538:	2334      	movs	r3, #52	; 0x34
    153a:	f8a0 311c 	strh.w	r3, [r0, #284]	; 0x11c
    153e:	4803      	ldr	r0, [pc, #12]	; (154c <USBMouse::reportDesc()+0x28>)
    1540:	4770      	bx	lr
    1542:	2000      	movs	r0, #0
    1544:	4770      	bx	lr
    1546:	bf00      	nop
    1548:	100001a0 	.word	0x100001a0
    154c:	10000210 	.word	0x10000210

00001550 <USBMouse::configurationDesc()>:
    1550:	b570      	push	{r4, r5, r6, lr}
    1552:	4c0f      	ldr	r4, [pc, #60]	; (1590 <USBMouse::configurationDesc()+0x40>)
    1554:	4605      	mov	r5, r0
    1556:	6823      	ldr	r3, [r4, #0]
    1558:	07db      	lsls	r3, r3, #31
    155a:	d501      	bpl.n	1560 <USBMouse::configurationDesc()+0x10>
    155c:	480d      	ldr	r0, [pc, #52]	; (1594 <USBMouse::configurationDesc()+0x44>)
    155e:	bd70      	pop	{r4, r5, r6, pc}
    1560:	4620      	mov	r0, r4
    1562:	f001 f85e 	bl	2622 <__cxa_guard_acquire>
    1566:	2800      	cmp	r0, #0
    1568:	d0f8      	beq.n	155c <USBMouse::configurationDesc()+0xc>
    156a:	682b      	ldr	r3, [r5, #0]
    156c:	4628      	mov	r0, r5
    156e:	f8d3 30c8 	ldr.w	r3, [r3, #200]	; 0xc8
    1572:	4798      	blx	r3
    1574:	4e07      	ldr	r6, [pc, #28]	; (1594 <USBMouse::configurationDesc()+0x44>)
    1576:	7670      	strb	r0, [r6, #25]
    1578:	682b      	ldr	r3, [r5, #0]
    157a:	4628      	mov	r0, r5
    157c:	f8d3 30c8 	ldr.w	r3, [r3, #200]	; 0xc8
    1580:	4798      	blx	r3
    1582:	0a03      	lsrs	r3, r0, #8
    1584:	4620      	mov	r0, r4
    1586:	76b3      	strb	r3, [r6, #26]
    1588:	f001 f859 	bl	263e <__cxa_guard_release>
    158c:	4801      	ldr	r0, [pc, #4]	; (1594 <USBMouse::configurationDesc()+0x44>)
    158e:	bd70      	pop	{r4, r5, r6, pc}
    1590:	10000460 	.word	0x10000460
    1594:	100001e4 	.word	0x100001e4

00001598 <USBMouse::update(short, short, unsigned char, signed char)>:
    1598:	e92d 4ff0 	stmdb	sp!, {r4, r5, r6, r7, r8, r9, r10, r11, lr}
    159c:	f890 7166 	ldrb.w	r7, [r0, #358]	; 0x166
    15a0:	b093      	sub	sp, #76	; 0x4c
    15a2:	4604      	mov	r4, r0
    15a4:	4689      	mov	r9, r1
    15a6:	4690      	mov	r8, r2
    15a8:	f99d 5070 	ldrsb.w	r5, [sp, #112]	; 0x70
    15ac:	b347      	cbz	r7, 1600 <USBMouse::update(short, short, unsigned char, signed char)+0x68>
    15ae:	2f01      	cmp	r7, #1
    15b0:	d122      	bne.n	15f8 <USBMouse::update(short, short, unsigned char, signed char)+0x60>
    15b2:	426d      	negs	r5, r5
    15b4:	297f      	cmp	r1, #127	; 0x7f
    15b6:	b2ed      	uxtb	r5, r5
    15b8:	f003 0607 	and.w	r6, r3, #7
    15bc:	af01      	add	r7, sp, #4
    15be:	dd3b      	ble.n	1638 <USBMouse::update(short, short, unsigned char, signed char)+0xa0>
    15c0:	f04f 0b7f 	mov.w	r11, #127	; 0x7f
    15c4:	f04f 0a00 	mov.w	r10, #0
    15c8:	e002      	b.n	15d0 <USBMouse::update(short, short, unsigned char, signed char)+0x38>
    15ca:	f1b9 0f7f 	cmp.w	r9, #127	; 0x7f
    15ce:	dd33      	ble.n	1638 <USBMouse::update(short, short, unsigned char, signed char)+0xa0>
    15d0:	2304      	movs	r3, #4
    15d2:	4620      	mov	r0, r4
    15d4:	4639      	mov	r1, r7
    15d6:	f88d 6008 	strb.w	r6, [sp, #8]
    15da:	f88d b009 	strb.w	r11, [sp, #9]
    15de:	f88d a00a 	strb.w	r10, [sp, #10]
    15e2:	f88d 500b 	strb.w	r5, [sp, #11]
    15e6:	9301      	str	r3, [sp, #4]
    15e8:	f7ff ff90 	bl	150c <USBHID::send(HID_REPORT*)>
    15ec:	f1a9 0c7f 	sub.w	r12, r9, #127	; 0x7f
    15f0:	fa0f f98c 	sxth.w	r9, r12
    15f4:	2800      	cmp	r0, #0
    15f6:	d1e8      	bne.n	15ca <USBMouse::update(short, short, unsigned char, signed char)+0x32>
    15f8:	2000      	movs	r0, #0
    15fa:	b013      	add	sp, #76	; 0x4c
    15fc:	e8bd 8ff0 	ldmia.w	sp!, {r4, r5, r6, r7, r8, r9, r10, r11, pc}
    1600:	a912      	add	r1, sp, #72	; 0x48
    1602:	2206      	movs	r2, #6
    1604:	f841 2d44 	str.w	r2, [r1, #-68]!
    1608:	f003 0307 	and.w	r3, r3, #7
    160c:	ea4f 2228 	mov.w	r2, r8, asr #8
    1610:	426d      	negs	r5, r5
    1612:	ea4f 2429 	mov.w	r4, r9, asr #8
    1616:	f88d 500c 	strb.w	r5, [sp, #12]
    161a:	f88d 300d 	strb.w	r3, [sp, #13]
    161e:	f88d 9008 	strb.w	r9, [sp, #8]
    1622:	f88d 4009 	strb.w	r4, [sp, #9]
    1626:	f88d 800a 	strb.w	r8, [sp, #10]
    162a:	f88d 200b 	strb.w	r2, [sp, #11]
    162e:	f7ff ff6d 	bl	150c <USBHID::send(HID_REPORT*)>
    1632:	b013      	add	sp, #76	; 0x4c
    1634:	e8bd 8ff0 	ldmia.w	sp!, {r4, r5, r6, r7, r8, r9, r10, r11, pc}
    1638:	f119 0f80 	cmn.w	r9, #128	; 0x80
    163c:	da1c      	bge.n	1678 <USBMouse::update(short, short, unsigned char, signed char)+0xe0>
    163e:	f04f 0b80 	mov.w	r11, #128	; 0x80
    1642:	f04f 0a00 	mov.w	r10, #0
    1646:	e002      	b.n	164e <USBMouse::update(short, short, unsigned char, signed char)+0xb6>
    1648:	f119 0f80 	cmn.w	r9, #128	; 0x80
    164c:	da14      	bge.n	1678 <USBMouse::update(short, short, unsigned char, signed char)+0xe0>
    164e:	2304      	movs	r3, #4
    1650:	4620      	mov	r0, r4
    1652:	4639      	mov	r1, r7
    1654:	f88d 6008 	strb.w	r6, [sp, #8]
    1658:	f88d b009 	strb.w	r11, [sp, #9]
    165c:	f88d a00a 	strb.w	r10, [sp, #10]
    1660:	f88d 500b 	strb.w	r5, [sp, #11]
    1664:	9301      	str	r3, [sp, #4]
    1666:	f7ff ff51 	bl	150c <USBHID::send(HID_REPORT*)>
    166a:	f109 0c80 	add.w	r12, r9, #128	; 0x80
    166e:	fa0f f98c 	sxth.w	r9, r12
    1672:	2800      	cmp	r0, #0
    1674:	d1e8      	bne.n	1648 <USBMouse::update(short, short, unsigned char, signed char)+0xb0>
    1676:	e7bf      	b.n	15f8 <USBMouse::update(short, short, unsigned char, signed char)+0x60>
    1678:	f1b8 0f7f 	cmp.w	r8, #127	; 0x7f
    167c:	dd1c      	ble.n	16b8 <USBMouse::update(short, short, unsigned char, signed char)+0x120>
    167e:	f04f 0b00 	mov.w	r11, #0
    1682:	f04f 0a7f 	mov.w	r10, #127	; 0x7f
    1686:	e002      	b.n	168e <USBMouse::update(short, short, unsigned char, signed char)+0xf6>
    1688:	f1b8 0f7f 	cmp.w	r8, #127	; 0x7f
    168c:	dd14      	ble.n	16b8 <USBMouse::update(short, short, unsigned char, signed char)+0x120>
    168e:	2304      	movs	r3, #4
    1690:	4620      	mov	r0, r4
    1692:	4639      	mov	r1, r7
    1694:	f88d 6008 	strb.w	r6, [sp, #8]
    1698:	f88d b009 	strb.w	r11, [sp, #9]
    169c:	f88d a00a 	strb.w	r10, [sp, #10]
    16a0:	f88d 500b 	strb.w	r5, [sp, #11]
    16a4:	9301      	str	r3, [sp, #4]
    16a6:	f7ff ff31 	bl	150c <USBHID::send(HID_REPORT*)>
    16aa:	f1a8 087f 	sub.w	r8, r8, #127	; 0x7f
    16ae:	fa0f f888 	sxth.w	r8, r8
    16b2:	2800      	cmp	r0, #0
    16b4:	d1e8      	bne.n	1688 <USBMouse::update(short, short, unsigned char, signed char)+0xf0>
    16b6:	e79f      	b.n	15f8 <USBMouse::update(short, short, unsigned char, signed char)+0x60>
    16b8:	f118 0f80 	cmn.w	r8, #128	; 0x80
    16bc:	da1c      	bge.n	16f8 <USBMouse::update(short, short, unsigned char, signed char)+0x160>
    16be:	f04f 0b00 	mov.w	r11, #0
    16c2:	f04f 0a80 	mov.w	r10, #128	; 0x80
    16c6:	e002      	b.n	16ce <USBMouse::update(short, short, unsigned char, signed char)+0x136>
    16c8:	f118 0f80 	cmn.w	r8, #128	; 0x80
    16cc:	da14      	bge.n	16f8 <USBMouse::update(short, short, unsigned char, signed char)+0x160>
    16ce:	2304      	movs	r3, #4
    16d0:	4620      	mov	r0, r4
    16d2:	4639      	mov	r1, r7
    16d4:	f88d 6008 	strb.w	r6, [sp, #8]
    16d8:	f88d b009 	strb.w	r11, [sp, #9]
    16dc:	f88d a00a 	strb.w	r10, [sp, #10]
    16e0:	f88d 500b 	strb.w	r5, [sp, #11]
    16e4:	9301      	str	r3, [sp, #4]
    16e6:	f7ff ff11 	bl	150c <USBHID::send(HID_REPORT*)>
    16ea:	f108 0880 	add.w	r8, r8, #128	; 0x80
    16ee:	fa0f f888 	sxth.w	r8, r8
    16f2:	2800      	cmp	r0, #0
    16f4:	d1e8      	bne.n	16c8 <USBMouse::update(short, short, unsigned char, signed char)+0x130>
    16f6:	e77f      	b.n	15f8 <USBMouse::update(short, short, unsigned char, signed char)+0x60>
    16f8:	2304      	movs	r3, #4
    16fa:	4620      	mov	r0, r4
    16fc:	4639      	mov	r1, r7
    16fe:	f88d 6008 	strb.w	r6, [sp, #8]
    1702:	f88d 9009 	strb.w	r9, [sp, #9]
    1706:	f88d 800a 	strb.w	r8, [sp, #10]
    170a:	f88d 500b 	strb.w	r5, [sp, #11]
    170e:	9301      	str	r3, [sp, #4]
    1710:	f7ff fefc 	bl	150c <USBHID::send(HID_REPORT*)>
    1714:	e771      	b.n	15fa <USBMouse::update(short, short, unsigned char, signed char)+0x62>
    1716:	bf00      	nop

00001718 <USBMouse::move(short, short)>:
    1718:	b510      	push	{r4, lr}
    171a:	2400      	movs	r4, #0
    171c:	b082      	sub	sp, #8
    171e:	f890 3167 	ldrb.w	r3, [r0, #359]	; 0x167
    1722:	9400      	str	r4, [sp, #0]
    1724:	f7ff ff38 	bl	1598 <USBMouse::update(short, short, unsigned char, signed char)>
    1728:	b002      	add	sp, #8
    172a:	bd10      	pop	{r4, pc}

0000172c <NVIC_SetVector>:
    172c:	4a0c      	ldr	r2, [pc, #48]	; (1760 <NVIC_SetVector+0x34>)
    172e:	b430      	push	{r4, r5}
    1730:	6893      	ldr	r3, [r2, #8]
    1732:	6894      	ldr	r4, [r2, #8]
    1734:	461a      	mov	r2, r3
    1736:	f1b4 5f80 	cmp.w	r4, #268435456	; 0x10000000
    173a:	d20c      	bcs.n	1756 <NVIC_SetVector+0x2a>
    173c:	4a09      	ldr	r2, [pc, #36]	; (1764 <NVIC_SetVector+0x38>)
    173e:	f103 05c4 	add.w	r5, r3, #196	; 0xc4
    1742:	f853 4b04 	ldr.w	r4, [r3], #4
    1746:	42ab      	cmp	r3, r5
    1748:	f842 4f04 	str.w	r4, [r2, #4]!
    174c:	d1f9      	bne.n	1742 <NVIC_SetVector+0x16>
    174e:	4b04      	ldr	r3, [pc, #16]	; (1760 <NVIC_SetVector+0x34>)
    1750:	f04f 5280 	mov.w	r2, #268435456	; 0x10000000
    1754:	609a      	str	r2, [r3, #8]
    1756:	3010      	adds	r0, #16
    1758:	f842 1020 	str.w	r1, [r2, r0, lsl #2]
    175c:	bc30      	pop	{r4, r5}
    175e:	4770      	bx	lr
    1760:	e000ed00 	.word	0xe000ed00
    1764:	0ffffffc 	.word	0x0ffffffc

00001768 <exit>:
    1768:	4c0a      	ldr	r4, [pc, #40]	; (1794 <exit+0x2c>)
    176a:	b508      	push	{r3, lr}
    176c:	6823      	ldr	r3, [r4, #0]
    176e:	4605      	mov	r5, r0
    1770:	6898      	ldr	r0, [r3, #8]
    1772:	f001 fd93 	bl	329c <fflush>
    1776:	6823      	ldr	r3, [r4, #0]
    1778:	68d8      	ldr	r0, [r3, #12]
    177a:	f001 fd8f 	bl	329c <fflush>
    177e:	f000 f80b 	bl	1798 <mbed_interface_connected>
    1782:	b920      	cbnz	r0, 178e <exit+0x26>
    1784:	b905      	cbnz	r5, 1788 <exit+0x20>
    1786:	e7fe      	b.n	1786 <exit+0x1e>
    1788:	f000 fdb6 	bl	22f8 <mbed_die>
    178c:	e7fb      	b.n	1786 <exit+0x1e>
    178e:	f000 f805 	bl	179c <semihost_exit>
    1792:	e7f7      	b.n	1784 <exit+0x1c>
    1794:	100002ac 	.word	0x100002ac

00001798 <mbed_interface_connected>:
    1798:	f000 b80c 	b.w	17b4 <semihost_connected>

0000179c <semihost_exit>:
    179c:	b530      	push	{r4, r5, lr}
    179e:	b085      	sub	sp, #20
    17a0:	2418      	movs	r4, #24
    17a2:	466d      	mov	r5, sp
    17a4:	4620      	mov	r0, r4
    17a6:	4629      	mov	r1, r5
    17a8:	beab      	bkpt	0x00ab
    17aa:	4604      	mov	r4, r0
    17ac:	4620      	mov	r0, r4
    17ae:	b005      	add	sp, #20
    17b0:	bd30      	pop	{r4, r5, pc}
    17b2:	bf00      	nop

000017b4 <semihost_connected>:
    17b4:	4b02      	ldr	r3, [pc, #8]	; (17c0 <semihost_connected+0xc>)
    17b6:	6818      	ldr	r0, [r3, #0]
    17b8:	f000 0001 	and.w	r0, r0, #1
    17bc:	4770      	bx	lr
    17be:	bf00      	nop
    17c0:	e000edf0 	.word	0xe000edf0

000017c4 <wait_us>:
    17c4:	b538      	push	{r3, r4, r5, lr}
    17c6:	4605      	mov	r5, r0
    17c8:	f000 fd14 	bl	21f4 <us_ticker_read>
    17cc:	4604      	mov	r4, r0
    17ce:	f000 fd11 	bl	21f4 <us_ticker_read>
    17d2:	1b00      	subs	r0, r0, r4
    17d4:	42a8      	cmp	r0, r5
    17d6:	d3fa      	bcc.n	17ce <wait_us+0xa>
    17d8:	bd38      	pop	{r3, r4, r5, pc}
    17da:	bf00      	nop

000017dc <wait>:
    17dc:	b508      	push	{r3, lr}
    17de:	4904      	ldr	r1, [pc, #16]	; (17f0 <wait+0x14>)
    17e0:	f001 fb22 	bl	2e28 <__aeabi_fmul>
    17e4:	f001 fc70 	bl	30c8 <__aeabi_f2iz>
    17e8:	e8bd 4008 	ldmia.w	sp!, {r3, lr}
    17ec:	f7ff bfea 	b.w	17c4 <wait_us>
    17f0:	49742400 	.word	0x49742400

000017f4 <wait_ms>:
    17f4:	f44f 737a 	mov.w	r3, #1000	; 0x3e8
    17f8:	fb03 f000 	mul.w	r0, r3, r0
    17fc:	f7ff bfe2 	b.w	17c4 <wait_us>

00001800 <init_serial() [clone .part.0]>:
    1800:	4802      	ldr	r0, [pc, #8]	; (180c <init_serial() [clone .part.0]+0xc>)
    1802:	4903      	ldr	r1, [pc, #12]	; (1810 <init_serial() [clone .part.0]+0x10>)
    1804:	4a03      	ldr	r2, [pc, #12]	; (1814 <init_serial() [clone .part.0]+0x14>)
    1806:	f000 bbf7 	b.w	1ff8 <serial_init>
    180a:	bf00      	nop
    180c:	10000660 	.word	0x10000660
    1810:	2009c002 	.word	0x2009c002
    1814:	2009c003 	.word	0x2009c003

00001818 <_close>:
    1818:	2802      	cmp	r0, #2
    181a:	b508      	push	{r3, lr}
    181c:	dd0b      	ble.n	1836 <_close+0x1e>
    181e:	4b08      	ldr	r3, [pc, #32]	; (1840 <_close+0x28>)
    1820:	1ec2      	subs	r2, r0, #3
    1822:	f853 0022 	ldr.w	r0, [r3, r2, lsl #2]
    1826:	2100      	movs	r1, #0
    1828:	f843 1022 	str.w	r1, [r3, r2, lsl #2]
    182c:	b128      	cbz	r0, 183a <_close+0x22>
    182e:	6803      	ldr	r3, [r0, #0]
    1830:	685b      	ldr	r3, [r3, #4]
    1832:	4798      	blx	r3
    1834:	bd08      	pop	{r3, pc}
    1836:	2000      	movs	r0, #0
    1838:	bd08      	pop	{r3, pc}
    183a:	f04f 30ff 	mov.w	r0, #4294967295	; 0xffffffff
    183e:	bd08      	pop	{r3, pc}
    1840:	10000464 	.word	0x10000464

00001844 <_write>:
    1844:	2802      	cmp	r0, #2
    1846:	b570      	push	{r4, r5, r6, lr}
    1848:	460c      	mov	r4, r1
    184a:	4616      	mov	r6, r2
    184c:	dc0f      	bgt.n	186e <_write+0x2a>
    184e:	4b0e      	ldr	r3, [pc, #56]	; (1888 <_write+0x44>)
    1850:	681b      	ldr	r3, [r3, #0]
    1852:	b90b      	cbnz	r3, 1858 <_write+0x14>
    1854:	f7ff ffd4 	bl	1800 <init_serial() [clone .part.0]>
    1858:	19a5      	adds	r5, r4, r6
    185a:	b136      	cbz	r6, 186a <_write+0x26>
    185c:	f814 1b01 	ldrb.w	r1, [r4], #1
    1860:	480a      	ldr	r0, [pc, #40]	; (188c <_write+0x48>)
    1862:	f000 fb19 	bl	1e98 <serial_putc>
    1866:	42ac      	cmp	r4, r5
    1868:	d1f8      	bne.n	185c <_write+0x18>
    186a:	4630      	mov	r0, r6
    186c:	bd70      	pop	{r4, r5, r6, pc}
    186e:	4b08      	ldr	r3, [pc, #32]	; (1890 <_write+0x4c>)
    1870:	3803      	subs	r0, #3
    1872:	f853 0020 	ldr.w	r0, [r3, r0, lsl #2]
    1876:	b118      	cbz	r0, 1880 <_write+0x3c>
    1878:	6803      	ldr	r3, [r0, #0]
    187a:	681b      	ldr	r3, [r3, #0]
    187c:	4798      	blx	r3
    187e:	bd70      	pop	{r4, r5, r6, pc}
    1880:	f04f 30ff 	mov.w	r0, #4294967295	; 0xffffffff
    1884:	bd70      	pop	{r4, r5, r6, pc}
    1886:	bf00      	nop
    1888:	10000564 	.word	0x10000564
    188c:	10000660 	.word	0x10000660
    1890:	10000464 	.word	0x10000464

00001894 <_read>:
    1894:	2802      	cmp	r0, #2
    1896:	b510      	push	{r4, lr}
    1898:	460c      	mov	r4, r1
    189a:	dc09      	bgt.n	18b0 <_read+0x1c>
    189c:	4b0d      	ldr	r3, [pc, #52]	; (18d4 <_read+0x40>)
    189e:	681b      	ldr	r3, [r3, #0]
    18a0:	b18b      	cbz	r3, 18c6 <_read+0x32>
    18a2:	480d      	ldr	r0, [pc, #52]	; (18d8 <_read+0x44>)
    18a4:	f000 faac 	bl	1e00 <serial_getc>
    18a8:	2301      	movs	r3, #1
    18aa:	7020      	strb	r0, [r4, #0]
    18ac:	4618      	mov	r0, r3
    18ae:	bd10      	pop	{r4, pc}
    18b0:	4b0a      	ldr	r3, [pc, #40]	; (18dc <_read+0x48>)
    18b2:	3803      	subs	r0, #3
    18b4:	f853 0020 	ldr.w	r0, [r3, r0, lsl #2]
    18b8:	b140      	cbz	r0, 18cc <_read+0x38>
    18ba:	6803      	ldr	r3, [r0, #0]
    18bc:	689b      	ldr	r3, [r3, #8]
    18be:	4798      	blx	r3
    18c0:	4603      	mov	r3, r0
    18c2:	4618      	mov	r0, r3
    18c4:	bd10      	pop	{r4, pc}
    18c6:	f7ff ff9b 	bl	1800 <init_serial() [clone .part.0]>
    18ca:	e7ea      	b.n	18a2 <_read+0xe>
    18cc:	f04f 33ff 	mov.w	r3, #4294967295	; 0xffffffff
    18d0:	e7ec      	b.n	18ac <_read+0x18>
    18d2:	bf00      	nop
    18d4:	10000564 	.word	0x10000564
    18d8:	10000660 	.word	0x10000660
    18dc:	10000464 	.word	0x10000464

000018e0 <_isatty>:
    18e0:	2802      	cmp	r0, #2
    18e2:	b508      	push	{r3, lr}
    18e4:	dd08      	ble.n	18f8 <_isatty+0x18>
    18e6:	4b07      	ldr	r3, [pc, #28]	; (1904 <_isatty+0x24>)
    18e8:	3803      	subs	r0, #3
    18ea:	f853 0020 	ldr.w	r0, [r3, r0, lsl #2]
    18ee:	b128      	cbz	r0, 18fc <_isatty+0x1c>
    18f0:	6803      	ldr	r3, [r0, #0]
    18f2:	68db      	ldr	r3, [r3, #12]
    18f4:	4798      	blx	r3
    18f6:	bd08      	pop	{r3, pc}
    18f8:	2001      	movs	r0, #1
    18fa:	bd08      	pop	{r3, pc}
    18fc:	f04f 30ff 	mov.w	r0, #4294967295	; 0xffffffff
    1900:	bd08      	pop	{r3, pc}
    1902:	bf00      	nop
    1904:	10000464 	.word	0x10000464

00001908 <_lseek>:
    1908:	2802      	cmp	r0, #2
    190a:	b508      	push	{r3, lr}
    190c:	dd08      	ble.n	1920 <_lseek+0x18>
    190e:	4b07      	ldr	r3, [pc, #28]	; (192c <_lseek+0x24>)
    1910:	3803      	subs	r0, #3
    1912:	f853 0020 	ldr.w	r0, [r3, r0, lsl #2]
    1916:	b128      	cbz	r0, 1924 <_lseek+0x1c>
    1918:	6803      	ldr	r3, [r0, #0]
    191a:	691b      	ldr	r3, [r3, #16]
    191c:	4798      	blx	r3
    191e:	bd08      	pop	{r3, pc}
    1920:	2000      	movs	r0, #0
    1922:	bd08      	pop	{r3, pc}
    1924:	f04f 30ff 	mov.w	r0, #4294967295	; 0xffffffff
    1928:	bd08      	pop	{r3, pc}
    192a:	bf00      	nop
    192c:	10000464 	.word	0x10000464

00001930 <_fstat>:
    1930:	2802      	cmp	r0, #2
    1932:	b508      	push	{r3, lr}
    1934:	d804      	bhi.n	1940 <_fstat+0x10>
    1936:	f44f 5300 	mov.w	r3, #8192	; 0x2000
    193a:	604b      	str	r3, [r1, #4]
    193c:	2000      	movs	r0, #0
    193e:	bd08      	pop	{r3, pc}
    1940:	f001 fbf8 	bl	3134 <__errno>
    1944:	2309      	movs	r3, #9
    1946:	6003      	str	r3, [r0, #0]
    1948:	f04f 30ff 	mov.w	r0, #4294967295	; 0xffffffff
    194c:	bd08      	pop	{r3, pc}
    194e:	bf00      	nop

00001950 <_sbrk>:
    1950:	4a07      	ldr	r2, [pc, #28]	; (1970 <_sbrk+0x20>)
    1952:	6813      	ldr	r3, [r2, #0]
    1954:	4418      	add	r0, r3
    1956:	f3ef 8108 	mrs	r1, MSP
    195a:	4288      	cmp	r0, r1
    195c:	d202      	bcs.n	1964 <_sbrk+0x14>
    195e:	6010      	str	r0, [r2, #0]
    1960:	4618      	mov	r0, r3
    1962:	4770      	bx	lr
    1964:	4b03      	ldr	r3, [pc, #12]	; (1974 <_sbrk+0x24>)
    1966:	220c      	movs	r2, #12
    1968:	601a      	str	r2, [r3, #0]
    196a:	f04f 30ff 	mov.w	r0, #4294967295	; 0xffffffff
    196e:	4770      	bx	lr
    1970:	10000244 	.word	0x10000244
    1974:	10000668 	.word	0x10000668

00001978 <Reset_Handler>:
    1978:	4906      	ldr	r1, [pc, #24]	; (1994 <Reset_Handler+0x1c>)
    197a:	4a07      	ldr	r2, [pc, #28]	; (1998 <Reset_Handler+0x20>)
    197c:	4b07      	ldr	r3, [pc, #28]	; (199c <Reset_Handler+0x24>)
    197e:	429a      	cmp	r2, r3
    1980:	bfbe      	ittt	lt
    1982:	f851 0b04 	ldrlt.w	r0, [r1], #4
    1986:	f842 0b04 	strlt.w	r0, [r2], #4
    198a:	e7f8      	blt.n	197e <Reset_Handler+0x6>
    198c:	4804      	ldr	r0, [pc, #16]	; (19a0 <Reset_Handler+0x28>)
    198e:	4780      	blx	r0
    1990:	4804      	ldr	r0, [pc, #16]	; (19a4 <Reset_Handler+0x2c>)
    1992:	4700      	bx	r0
    1994:	00005aa4 	.word	0x00005aa4
    1998:	100000c8 	.word	0x100000c8
    199c:	100002bc 	.word	0x100002bc
    19a0:	00002241 	.word	0x00002241
    19a4:	00000225 	.word	0x00000225

000019a8 <NMI_Handler>:
    19a8:	e7fe      	b.n	19a8 <NMI_Handler>

000019aa <HardFault_Handler>:
    19aa:	e7fe      	b.n	19aa <HardFault_Handler>

000019ac <MemManage_Handler>:
    19ac:	e7fe      	b.n	19ac <MemManage_Handler>

000019ae <BusFault_Handler>:
    19ae:	e7fe      	b.n	19ae <BusFault_Handler>

000019b0 <UsageFault_Handler>:
    19b0:	e7fe      	b.n	19b0 <UsageFault_Handler>

000019b2 <SVC_Handler>:
    19b2:	e7fe      	b.n	19b2 <SVC_Handler>

000019b4 <DebugMon_Handler>:
    19b4:	e7fe      	b.n	19b4 <DebugMon_Handler>

000019b6 <PendSV_Handler>:
    19b6:	e7fe      	b.n	19b6 <PendSV_Handler>

000019b8 <SysTick_Handler>:
    19b8:	e7fe      	b.n	19b8 <SysTick_Handler>

000019ba <ADC_IRQHandler>:
    19ba:	e7fe      	b.n	19ba <ADC_IRQHandler>

000019bc <uart2_irq>:
    19bc:	b508      	push	{r3, lr}
    19be:	4a15      	ldr	r2, [pc, #84]	; (1a14 <uart2_irq+0x58>)
    19c0:	6893      	ldr	r3, [r2, #8]
    19c2:	f3c3 0342 	ubfx	r3, r3, #1, #3
    19c6:	2b01      	cmp	r3, #1
    19c8:	d01e      	beq.n	1a08 <uart2_irq+0x4c>
    19ca:	2b02      	cmp	r3, #2
    19cc:	d119      	bne.n	1a02 <uart2_irq+0x46>
    19ce:	4b12      	ldr	r3, [pc, #72]	; (1a18 <uart2_irq+0x5c>)
    19d0:	6f59      	ldr	r1, [r3, #116]	; 0x74
    19d2:	3101      	adds	r1, #1
    19d4:	d00a      	beq.n	19ec <uart2_irq+0x30>
    19d6:	f8d3 1080 	ldr.w	r1, [r3, #128]	; 0x80
    19da:	6f98      	ldr	r0, [r3, #120]	; 0x78
    19dc:	6008      	str	r0, [r1, #0]
    19de:	f893 10a6 	ldrb.w	r1, [r3, #166]	; 0xa6
    19e2:	b919      	cbnz	r1, 19ec <uart2_irq+0x30>
    19e4:	6851      	ldr	r1, [r2, #4]
    19e6:	f021 0101 	bic.w	r1, r1, #1
    19ea:	6051      	str	r1, [r2, #4]
    19ec:	6f18      	ldr	r0, [r3, #112]	; 0x70
    19ee:	4b0a      	ldr	r3, [pc, #40]	; (1a18 <uart2_irq+0x5c>)
    19f0:	b148      	cbz	r0, 1a06 <uart2_irq+0x4a>
    19f2:	f893 30a6 	ldrb.w	r3, [r3, #166]	; 0xa6
    19f6:	b12b      	cbz	r3, 1a04 <uart2_irq+0x48>
    19f8:	2100      	movs	r1, #0
    19fa:	4a08      	ldr	r2, [pc, #32]	; (1a1c <uart2_irq+0x60>)
    19fc:	6813      	ldr	r3, [r2, #0]
    19fe:	4798      	blx	r3
    1a00:	bd08      	pop	{r3, pc}
    1a02:	bd08      	pop	{r3, pc}
    1a04:	bd08      	pop	{r3, pc}
    1a06:	bd08      	pop	{r3, pc}
    1a08:	4a03      	ldr	r2, [pc, #12]	; (1a18 <uart2_irq+0x5c>)
    1a0a:	6f10      	ldr	r0, [r2, #112]	; 0x70
    1a0c:	2800      	cmp	r0, #0
    1a0e:	d0f9      	beq.n	1a04 <uart2_irq+0x48>
    1a10:	4619      	mov	r1, r3
    1a12:	e7f2      	b.n	19fa <uart2_irq+0x3e>
    1a14:	40098000 	.word	0x40098000
    1a18:	1000056c 	.word	0x1000056c
    1a1c:	10000568 	.word	0x10000568

00001a20 <serial_irq_set_internal>:
    1a20:	b570      	push	{r4, r5, r6, lr}
    1a22:	6803      	ldr	r3, [r0, #0]
    1a24:	4c29      	ldr	r4, [pc, #164]	; (1acc <serial_irq_set_internal+0xac>)
    1a26:	42a3      	cmp	r3, r4
    1a28:	d049      	beq.n	1abe <serial_irq_set_internal+0x9e>
    1a2a:	dd41      	ble.n	1ab0 <serial_irq_set_internal+0x90>
    1a2c:	4c28      	ldr	r4, [pc, #160]	; (1ad0 <serial_irq_set_internal+0xb0>)
    1a2e:	42a3      	cmp	r3, r4
    1a30:	d02a      	beq.n	1a88 <serial_irq_set_internal+0x68>
    1a32:	f504 4480 	add.w	r4, r4, #16384	; 0x4000
    1a36:	42a3      	cmp	r3, r4
    1a38:	d144      	bne.n	1ac4 <serial_irq_set_internal+0xa4>
    1a3a:	4c26      	ldr	r4, [pc, #152]	; (1ad4 <serial_irq_set_internal+0xb4>)
    1a3c:	2608      	movs	r6, #8
    1a3e:	bb3a      	cbnz	r2, 1a90 <serial_irq_set_internal+0x70>
    1a40:	2901      	cmp	r1, #1
    1a42:	d00b      	beq.n	1a5c <serial_irq_set_internal+0x3c>
    1a44:	6845      	ldr	r5, [r0, #4]
    1a46:	4a24      	ldr	r2, [pc, #144]	; (1ad8 <serial_irq_set_internal+0xb8>)
    1a48:	ebc5 05c5 	rsb	r5, r5, r5, lsl #3
    1a4c:	eb02 04c5 	add.w	r4, r2, r5, lsl #3
    1a50:	f894 5035 	ldrb.w	r5, [r4, #53]	; 0x35
    1a54:	f894 2036 	ldrb.w	r2, [r4, #54]	; 0x36
    1a58:	42ea      	cmn	r2, r5
    1a5a:	d114      	bne.n	1a86 <serial_irq_set_internal+0x66>
    1a5c:	2201      	movs	r2, #1
    1a5e:	fa02 f501 	lsl.w	r5, r2, r1
    1a62:	f1d1 0101 	rsbs	r1, r1, #1
    1a66:	bf38      	it	cc
    1a68:	2100      	movcc	r1, #0
    1a6a:	fa02 f101 	lsl.w	r1, r2, r1
    1a6e:	685c      	ldr	r4, [r3, #4]
    1a70:	ea24 0405 	bic.w	r4, r4, r5
    1a74:	605c      	str	r4, [r3, #4]
    1a76:	6803      	ldr	r3, [r0, #0]
    1a78:	685b      	ldr	r3, [r3, #4]
    1a7a:	4219      	tst	r1, r3
    1a7c:	d103      	bne.n	1a86 <serial_irq_set_internal+0x66>
    1a7e:	40b2      	lsls	r2, r6
    1a80:	4b16      	ldr	r3, [pc, #88]	; (1adc <serial_irq_set_internal+0xbc>)
    1a82:	f8c3 2080 	str.w	r2, [r3, #128]	; 0x80
    1a86:	bd70      	pop	{r4, r5, r6, pc}
    1a88:	4c15      	ldr	r4, [pc, #84]	; (1ae0 <serial_irq_set_internal+0xc0>)
    1a8a:	2607      	movs	r6, #7
    1a8c:	2a00      	cmp	r2, #0
    1a8e:	d0d7      	beq.n	1a40 <serial_irq_set_internal+0x20>
    1a90:	2501      	movs	r5, #1
    1a92:	fa05 f101 	lsl.w	r1, r5, r1
    1a96:	b276      	sxtb	r6, r6
    1a98:	4630      	mov	r0, r6
    1a9a:	fa05 f606 	lsl.w	r6, r5, r6
    1a9e:	685a      	ldr	r2, [r3, #4]
    1aa0:	430a      	orrs	r2, r1
    1aa2:	605a      	str	r2, [r3, #4]
    1aa4:	4621      	mov	r1, r4
    1aa6:	f7ff fe41 	bl	172c <NVIC_SetVector>
    1aaa:	4b0c      	ldr	r3, [pc, #48]	; (1adc <serial_irq_set_internal+0xbc>)
    1aac:	601e      	str	r6, [r3, #0]
    1aae:	bd70      	pop	{r4, r5, r6, pc}
    1ab0:	f5a4 4480 	sub.w	r4, r4, #16384	; 0x4000
    1ab4:	42a3      	cmp	r3, r4
    1ab6:	d105      	bne.n	1ac4 <serial_irq_set_internal+0xa4>
    1ab8:	4c0a      	ldr	r4, [pc, #40]	; (1ae4 <serial_irq_set_internal+0xc4>)
    1aba:	2605      	movs	r6, #5
    1abc:	e7bf      	b.n	1a3e <serial_irq_set_internal+0x1e>
    1abe:	4c0a      	ldr	r4, [pc, #40]	; (1ae8 <serial_irq_set_internal+0xc8>)
    1ac0:	2606      	movs	r6, #6
    1ac2:	e7bc      	b.n	1a3e <serial_irq_set_internal+0x1e>
    1ac4:	2400      	movs	r4, #0
    1ac6:	4626      	mov	r6, r4
    1ac8:	e7b9      	b.n	1a3e <serial_irq_set_internal+0x1e>
    1aca:	bf00      	nop
    1acc:	40010000 	.word	0x40010000
    1ad0:	40098000 	.word	0x40098000
    1ad4:	00001aed 	.word	0x00001aed
    1ad8:	1000056c 	.word	0x1000056c
    1adc:	e000e100 	.word	0xe000e100
    1ae0:	000019bd 	.word	0x000019bd
    1ae4:	00001b59 	.word	0x00001b59
    1ae8:	00001bbd 	.word	0x00001bbd

00001aec <uart3_irq>:
    1aec:	b508      	push	{r3, lr}
    1aee:	4a17      	ldr	r2, [pc, #92]	; (1b4c <uart3_irq+0x60>)
    1af0:	6893      	ldr	r3, [r2, #8]
    1af2:	f3c3 0342 	ubfx	r3, r3, #1, #3
    1af6:	2b01      	cmp	r3, #1
    1af8:	d021      	beq.n	1b3e <uart3_irq+0x52>
    1afa:	2b02      	cmp	r3, #2
    1afc:	d11c      	bne.n	1b38 <uart3_irq+0x4c>
    1afe:	4b14      	ldr	r3, [pc, #80]	; (1b50 <uart3_irq+0x64>)
    1b00:	f8d3 10ac 	ldr.w	r1, [r3, #172]	; 0xac
    1b04:	3101      	adds	r1, #1
    1b06:	d00b      	beq.n	1b20 <uart3_irq+0x34>
    1b08:	f8d3 10b8 	ldr.w	r1, [r3, #184]	; 0xb8
    1b0c:	f8d3 00b0 	ldr.w	r0, [r3, #176]	; 0xb0
    1b10:	6008      	str	r0, [r1, #0]
    1b12:	f893 10de 	ldrb.w	r1, [r3, #222]	; 0xde
    1b16:	b919      	cbnz	r1, 1b20 <uart3_irq+0x34>
    1b18:	6851      	ldr	r1, [r2, #4]
    1b1a:	f021 0101 	bic.w	r1, r1, #1
    1b1e:	6051      	str	r1, [r2, #4]
    1b20:	f8d3 00a8 	ldr.w	r0, [r3, #168]	; 0xa8
    1b24:	4b0a      	ldr	r3, [pc, #40]	; (1b50 <uart3_irq+0x64>)
    1b26:	b148      	cbz	r0, 1b3c <uart3_irq+0x50>
    1b28:	f893 30de 	ldrb.w	r3, [r3, #222]	; 0xde
    1b2c:	b12b      	cbz	r3, 1b3a <uart3_irq+0x4e>
    1b2e:	2100      	movs	r1, #0
    1b30:	4a08      	ldr	r2, [pc, #32]	; (1b54 <uart3_irq+0x68>)
    1b32:	6813      	ldr	r3, [r2, #0]
    1b34:	4798      	blx	r3
    1b36:	bd08      	pop	{r3, pc}
    1b38:	bd08      	pop	{r3, pc}
    1b3a:	bd08      	pop	{r3, pc}
    1b3c:	bd08      	pop	{r3, pc}
    1b3e:	4a04      	ldr	r2, [pc, #16]	; (1b50 <uart3_irq+0x64>)
    1b40:	f8d2 00a8 	ldr.w	r0, [r2, #168]	; 0xa8
    1b44:	2800      	cmp	r0, #0
    1b46:	d0f8      	beq.n	1b3a <uart3_irq+0x4e>
    1b48:	4619      	mov	r1, r3
    1b4a:	e7f1      	b.n	1b30 <uart3_irq+0x44>
    1b4c:	4009c000 	.word	0x4009c000
    1b50:	1000056c 	.word	0x1000056c
    1b54:	10000568 	.word	0x10000568

00001b58 <uart0_irq>:
    1b58:	b508      	push	{r3, lr}
    1b5a:	4a15      	ldr	r2, [pc, #84]	; (1bb0 <uart0_irq+0x58>)
    1b5c:	6893      	ldr	r3, [r2, #8]
    1b5e:	f3c3 0342 	ubfx	r3, r3, #1, #3
    1b62:	2b01      	cmp	r3, #1
    1b64:	d01d      	beq.n	1ba2 <uart0_irq+0x4a>
    1b66:	2b02      	cmp	r3, #2
    1b68:	d118      	bne.n	1b9c <uart0_irq+0x44>
    1b6a:	4b12      	ldr	r3, [pc, #72]	; (1bb4 <uart0_irq+0x5c>)
    1b6c:	6859      	ldr	r1, [r3, #4]
    1b6e:	3101      	adds	r1, #1
    1b70:	d009      	beq.n	1b86 <uart0_irq+0x2e>
    1b72:	6919      	ldr	r1, [r3, #16]
    1b74:	6898      	ldr	r0, [r3, #8]
    1b76:	6008      	str	r0, [r1, #0]
    1b78:	f893 1036 	ldrb.w	r1, [r3, #54]	; 0x36
    1b7c:	b919      	cbnz	r1, 1b86 <uart0_irq+0x2e>
    1b7e:	6851      	ldr	r1, [r2, #4]
    1b80:	f021 0101 	bic.w	r1, r1, #1
    1b84:	6051      	str	r1, [r2, #4]
    1b86:	6818      	ldr	r0, [r3, #0]
    1b88:	4b0a      	ldr	r3, [pc, #40]	; (1bb4 <uart0_irq+0x5c>)
    1b8a:	b148      	cbz	r0, 1ba0 <uart0_irq+0x48>
    1b8c:	f893 3036 	ldrb.w	r3, [r3, #54]	; 0x36
    1b90:	b12b      	cbz	r3, 1b9e <uart0_irq+0x46>
    1b92:	2100      	movs	r1, #0
    1b94:	4a08      	ldr	r2, [pc, #32]	; (1bb8 <uart0_irq+0x60>)
    1b96:	6813      	ldr	r3, [r2, #0]
    1b98:	4798      	blx	r3
    1b9a:	bd08      	pop	{r3, pc}
    1b9c:	bd08      	pop	{r3, pc}
    1b9e:	bd08      	pop	{r3, pc}
    1ba0:	bd08      	pop	{r3, pc}
    1ba2:	4a04      	ldr	r2, [pc, #16]	; (1bb4 <uart0_irq+0x5c>)
    1ba4:	6810      	ldr	r0, [r2, #0]
    1ba6:	2800      	cmp	r0, #0
    1ba8:	d0f9      	beq.n	1b9e <uart0_irq+0x46>
    1baa:	4619      	mov	r1, r3
    1bac:	e7f2      	b.n	1b94 <uart0_irq+0x3c>
    1bae:	bf00      	nop
    1bb0:	4000c000 	.word	0x4000c000
    1bb4:	1000056c 	.word	0x1000056c
    1bb8:	10000568 	.word	0x10000568

00001bbc <uart1_irq>:
    1bbc:	b508      	push	{r3, lr}
    1bbe:	4a15      	ldr	r2, [pc, #84]	; (1c14 <uart1_irq+0x58>)
    1bc0:	6893      	ldr	r3, [r2, #8]
    1bc2:	f3c3 0342 	ubfx	r3, r3, #1, #3
    1bc6:	2b01      	cmp	r3, #1
    1bc8:	d01d      	beq.n	1c06 <uart1_irq+0x4a>
    1bca:	2b02      	cmp	r3, #2
    1bcc:	d118      	bne.n	1c00 <uart1_irq+0x44>
    1bce:	4b12      	ldr	r3, [pc, #72]	; (1c18 <uart1_irq+0x5c>)
    1bd0:	6bd9      	ldr	r1, [r3, #60]	; 0x3c
    1bd2:	3101      	adds	r1, #1
    1bd4:	d009      	beq.n	1bea <uart1_irq+0x2e>
    1bd6:	6c99      	ldr	r1, [r3, #72]	; 0x48
    1bd8:	6c18      	ldr	r0, [r3, #64]	; 0x40
    1bda:	6008      	str	r0, [r1, #0]
    1bdc:	f893 106e 	ldrb.w	r1, [r3, #110]	; 0x6e
    1be0:	b919      	cbnz	r1, 1bea <uart1_irq+0x2e>
    1be2:	6851      	ldr	r1, [r2, #4]
    1be4:	f021 0101 	bic.w	r1, r1, #1
    1be8:	6051      	str	r1, [r2, #4]
    1bea:	6b98      	ldr	r0, [r3, #56]	; 0x38
    1bec:	4b0a      	ldr	r3, [pc, #40]	; (1c18 <uart1_irq+0x5c>)
    1bee:	b148      	cbz	r0, 1c04 <uart1_irq+0x48>
    1bf0:	f893 306e 	ldrb.w	r3, [r3, #110]	; 0x6e
    1bf4:	b12b      	cbz	r3, 1c02 <uart1_irq+0x46>
    1bf6:	2100      	movs	r1, #0
    1bf8:	4a08      	ldr	r2, [pc, #32]	; (1c1c <uart1_irq+0x60>)
    1bfa:	6813      	ldr	r3, [r2, #0]
    1bfc:	4798      	blx	r3
    1bfe:	bd08      	pop	{r3, pc}
    1c00:	bd08      	pop	{r3, pc}
    1c02:	bd08      	pop	{r3, pc}
    1c04:	bd08      	pop	{r3, pc}
    1c06:	4a04      	ldr	r2, [pc, #16]	; (1c18 <uart1_irq+0x5c>)
    1c08:	6b90      	ldr	r0, [r2, #56]	; 0x38
    1c0a:	2800      	cmp	r0, #0
    1c0c:	d0f9      	beq.n	1c02 <uart1_irq+0x46>
    1c0e:	4619      	mov	r1, r3
    1c10:	e7f2      	b.n	1bf8 <uart1_irq+0x3c>
    1c12:	bf00      	nop
    1c14:	40010000 	.word	0x40010000
    1c18:	1000056c 	.word	0x1000056c
    1c1c:	10000568 	.word	0x10000568

00001c20 <serial_baud>:
    1c20:	e92d 0ff0 	stmdb	sp!, {r4, r5, r6, r7, r8, r9, r10, r11}
    1c24:	b08a      	sub	sp, #40	; 0x28
    1c26:	9008      	str	r0, [sp, #32]
    1c28:	4b71      	ldr	r3, [pc, #452]	; (1df0 <serial_baud+0x1d0>)
    1c2a:	6800      	ldr	r0, [r0, #0]
    1c2c:	4298      	cmp	r0, r3
    1c2e:	9009      	str	r0, [sp, #36]	; 0x24
    1c30:	f000 80cf 	beq.w	1dd2 <serial_baud+0x1b2>
    1c34:	f340 80ba 	ble.w	1dac <serial_baud+0x18c>
    1c38:	4b6e      	ldr	r3, [pc, #440]	; (1df4 <serial_baud+0x1d4>)
    1c3a:	9a09      	ldr	r2, [sp, #36]	; 0x24
    1c3c:	429a      	cmp	r2, r3
    1c3e:	f000 8090 	beq.w	1d62 <serial_baud+0x142>
    1c42:	f503 4380 	add.w	r3, r3, #16384	; 0x4000
    1c46:	429a      	cmp	r2, r3
    1c48:	d10c      	bne.n	1c64 <serial_baud+0x44>
    1c4a:	4b6b      	ldr	r3, [pc, #428]	; (1df8 <serial_baud+0x1d8>)
    1c4c:	f8d3 21ac 	ldr.w	r2, [r3, #428]	; 0x1ac
    1c50:	f422 2240 	bic.w	r2, r2, #786432	; 0xc0000
    1c54:	f8c3 21ac 	str.w	r2, [r3, #428]	; 0x1ac
    1c58:	f8d3 21ac 	ldr.w	r2, [r3, #428]	; 0x1ac
    1c5c:	f442 2280 	orr.w	r2, r2, #262144	; 0x40000
    1c60:	f8c3 21ac 	str.w	r2, [r3, #428]	; 0x1ac
    1c64:	4b65      	ldr	r3, [pc, #404]	; (1dfc <serial_baud+0x1dc>)
    1c66:	010a      	lsls	r2, r1, #4
    1c68:	681b      	ldr	r3, [r3, #0]
    1c6a:	9305      	str	r3, [sp, #20]
    1c6c:	9c05      	ldr	r4, [sp, #20]
    1c6e:	fbb3 f3f2 	udiv	r3, r3, r2
    1c72:	fb02 4213 	mls	r2, r2, r3, r4
    1c76:	b29b      	uxth	r3, r3
    1c78:	9301      	str	r3, [sp, #4]
    1c7a:	2a00      	cmp	r2, #0
    1c7c:	f000 8094 	beq.w	1da8 <serial_baud+0x188>
    1c80:	0060      	lsls	r0, r4, #1
    1c82:	00a2      	lsls	r2, r4, #2
    1c84:	f04f 0901 	mov.w	r9, #1
    1c88:	2300      	movs	r3, #0
    1c8a:	9007      	str	r0, [sp, #28]
    1c8c:	9206      	str	r2, [sp, #24]
    1c8e:	4680      	mov	r8, r0
    1c90:	4693      	mov	r11, r2
    1c92:	f8cd 900c 	str.w	r9, [sp, #12]
    1c96:	9104      	str	r1, [sp, #16]
    1c98:	46a2      	mov	r10, r4
    1c9a:	468c      	mov	r12, r1
    1c9c:	9302      	str	r3, [sp, #8]
    1c9e:	2200      	movs	r2, #0
    1ca0:	9c04      	ldr	r4, [sp, #16]
    1ca2:	4610      	mov	r0, r2
    1ca4:	fa5f f789 	uxtb.w	r7, r9
    1ca8:	f1b8 0f00 	cmp.w	r8, #0
    1cac:	bfb5      	itete	lt
    1cae:	fbb8 f3f4 	udivlt	r3, r8, r4
    1cb2:	fbbb f3f4 	udivge	r3, r11, r4
    1cb6:	091b      	lsrlt	r3, r3, #4
    1cb8:	095b      	lsrge	r3, r3, #5
    1cba:	3301      	adds	r3, #1
    1cbc:	f3c3 034f 	ubfx	r3, r3, #1, #16
    1cc0:	eb02 0609 	add.w	r6, r2, r9
    1cc4:	2b00      	cmp	r3, #0
    1cc6:	d15a      	bne.n	1d7e <serial_baud+0x15e>
    1cc8:	2301      	movs	r3, #1
    1cca:	2800      	cmp	r0, #0
    1ccc:	d15b      	bne.n	1d86 <serial_baud+0x166>
    1cce:	fb03 f506 	mul.w	r5, r3, r6
    1cd2:	00ed      	lsls	r5, r5, #3
    1cd4:	fbba f5f5 	udiv	r5, r10, r5
    1cd8:	3501      	adds	r5, #1
    1cda:	ebc1 0555 	rsb	r5, r1, r5, lsr #1
    1cde:	2d00      	cmp	r5, #0
    1ce0:	bfb8      	it	lt
    1ce2:	426d      	neglt	r5, r5
    1ce4:	4565      	cmp	r5, r12
    1ce6:	da05      	bge.n	1cf4 <serial_baud+0xd4>
    1ce8:	428d      	cmp	r5, r1
    1cea:	d04e      	beq.n	1d8a <serial_baud+0x16a>
    1cec:	46ac      	mov	r12, r5
    1cee:	9002      	str	r0, [sp, #8]
    1cf0:	9301      	str	r3, [sp, #4]
    1cf2:	9703      	str	r7, [sp, #12]
    1cf4:	3201      	adds	r2, #1
    1cf6:	b2d0      	uxtb	r0, r2
    1cf8:	4287      	cmp	r7, r0
    1cfa:	440c      	add	r4, r1
    1cfc:	d8d4      	bhi.n	1ca8 <serial_baud+0x88>
    1cfe:	f1b9 0f0f 	cmp.w	r9, #15
    1d02:	f04f 0300 	mov.w	r3, #0
    1d06:	d049      	beq.n	1d9c <serial_baud+0x17c>
    1d08:	9a05      	ldr	r2, [sp, #20]
    1d0a:	9c07      	ldr	r4, [sp, #28]
    1d0c:	4492      	add	r10, r2
    1d0e:	9a04      	ldr	r2, [sp, #16]
    1d10:	9806      	ldr	r0, [sp, #24]
    1d12:	440a      	add	r2, r1
    1d14:	f109 0901 	add.w	r9, r9, #1
    1d18:	44a0      	add	r8, r4
    1d1a:	4483      	add	r11, r0
    1d1c:	9204      	str	r2, [sp, #16]
    1d1e:	2b00      	cmp	r3, #0
    1d20:	d0bd      	beq.n	1c9e <serial_baud+0x7e>
    1d22:	9b02      	ldr	r3, [sp, #8]
    1d24:	9c03      	ldr	r4, [sp, #12]
    1d26:	ea43 1004 	orr.w	r0, r3, r4, lsl #4
    1d2a:	b2c0      	uxtb	r0, r0
    1d2c:	9a09      	ldr	r2, [sp, #36]	; 0x24
    1d2e:	9c01      	ldr	r4, [sp, #4]
    1d30:	7b13      	ldrb	r3, [r2, #12]
    1d32:	f3c4 2107 	ubfx	r1, r4, #8, #8
    1d36:	f043 0380 	orr.w	r3, r3, #128	; 0x80
    1d3a:	7313      	strb	r3, [r2, #12]
    1d3c:	9a08      	ldr	r2, [sp, #32]
    1d3e:	6813      	ldr	r3, [r2, #0]
    1d40:	b2e2      	uxtb	r2, r4
    1d42:	9c08      	ldr	r4, [sp, #32]
    1d44:	7119      	strb	r1, [r3, #4]
    1d46:	6823      	ldr	r3, [r4, #0]
    1d48:	701a      	strb	r2, [r3, #0]
    1d4a:	6823      	ldr	r3, [r4, #0]
    1d4c:	f883 0028 	strb.w	r0, [r3, #40]	; 0x28
    1d50:	6823      	ldr	r3, [r4, #0]
    1d52:	7b1a      	ldrb	r2, [r3, #12]
    1d54:	f002 027f 	and.w	r2, r2, #127	; 0x7f
    1d58:	731a      	strb	r2, [r3, #12]
    1d5a:	b00a      	add	sp, #40	; 0x28
    1d5c:	e8bd 0ff0 	ldmia.w	sp!, {r4, r5, r6, r7, r8, r9, r10, r11}
    1d60:	4770      	bx	lr
    1d62:	4b25      	ldr	r3, [pc, #148]	; (1df8 <serial_baud+0x1d8>)
    1d64:	f8d3 21ac 	ldr.w	r2, [r3, #428]	; 0x1ac
    1d68:	f422 3240 	bic.w	r2, r2, #196608	; 0x30000
    1d6c:	f8c3 21ac 	str.w	r2, [r3, #428]	; 0x1ac
    1d70:	f8d3 21ac 	ldr.w	r2, [r3, #428]	; 0x1ac
    1d74:	f442 3280 	orr.w	r2, r2, #65536	; 0x10000
    1d78:	f8c3 21ac 	str.w	r2, [r3, #428]	; 0x1ac
    1d7c:	e772      	b.n	1c64 <serial_baud+0x44>
    1d7e:	2800      	cmp	r0, #0
    1d80:	d0a5      	beq.n	1cce <serial_baud+0xae>
    1d82:	2b01      	cmp	r3, #1
    1d84:	d8a3      	bhi.n	1cce <serial_baud+0xae>
    1d86:	2302      	movs	r3, #2
    1d88:	e7a1      	b.n	1cce <serial_baud+0xae>
    1d8a:	f1b9 0f0f 	cmp.w	r9, #15
    1d8e:	9301      	str	r3, [sp, #4]
    1d90:	9703      	str	r7, [sp, #12]
    1d92:	9002      	str	r0, [sp, #8]
    1d94:	468c      	mov	r12, r1
    1d96:	f04f 0301 	mov.w	r3, #1
    1d9a:	d1b5      	bne.n	1d08 <serial_baud+0xe8>
    1d9c:	9c02      	ldr	r4, [sp, #8]
    1d9e:	9903      	ldr	r1, [sp, #12]
    1da0:	ea44 1001 	orr.w	r0, r4, r1, lsl #4
    1da4:	b2c0      	uxtb	r0, r0
    1da6:	e7c1      	b.n	1d2c <serial_baud+0x10c>
    1da8:	2010      	movs	r0, #16
    1daa:	e7bf      	b.n	1d2c <serial_baud+0x10c>
    1dac:	f5a3 4380 	sub.w	r3, r3, #16384	; 0x4000
    1db0:	4298      	cmp	r0, r3
    1db2:	f47f af57 	bne.w	1c64 <serial_baud+0x44>
    1db6:	4b10      	ldr	r3, [pc, #64]	; (1df8 <serial_baud+0x1d8>)
    1db8:	f8d3 21a8 	ldr.w	r2, [r3, #424]	; 0x1a8
    1dbc:	f022 02c0 	bic.w	r2, r2, #192	; 0xc0
    1dc0:	f8c3 21a8 	str.w	r2, [r3, #424]	; 0x1a8
    1dc4:	f8d3 21a8 	ldr.w	r2, [r3, #424]	; 0x1a8
    1dc8:	f042 0240 	orr.w	r2, r2, #64	; 0x40
    1dcc:	f8c3 21a8 	str.w	r2, [r3, #424]	; 0x1a8
    1dd0:	e748      	b.n	1c64 <serial_baud+0x44>
    1dd2:	4b09      	ldr	r3, [pc, #36]	; (1df8 <serial_baud+0x1d8>)
    1dd4:	f8d3 21a8 	ldr.w	r2, [r3, #424]	; 0x1a8
    1dd8:	f422 7240 	bic.w	r2, r2, #768	; 0x300
    1ddc:	f8c3 21a8 	str.w	r2, [r3, #424]	; 0x1a8
    1de0:	f8d3 21a8 	ldr.w	r2, [r3, #424]	; 0x1a8
    1de4:	f442 7280 	orr.w	r2, r2, #256	; 0x100
    1de8:	f8c3 21a8 	str.w	r2, [r3, #424]	; 0x1a8
    1dec:	e73a      	b.n	1c64 <serial_baud+0x44>
    1dee:	bf00      	nop
    1df0:	40010000 	.word	0x40010000
    1df4:	40098000 	.word	0x40098000
    1df8:	400fc000 	.word	0x400fc000
    1dfc:	10000248 	.word	0x10000248

00001e00 <serial_getc>:
    1e00:	6802      	ldr	r2, [r0, #0]
    1e02:	7d13      	ldrb	r3, [r2, #20]
    1e04:	07db      	lsls	r3, r3, #31
    1e06:	d5fc      	bpl.n	1e02 <serial_getc+0x2>
    1e08:	6843      	ldr	r3, [r0, #4]
    1e0a:	4909      	ldr	r1, [pc, #36]	; (1e30 <serial_getc+0x30>)
    1e0c:	ebc3 03c3 	rsb	r3, r3, r3, lsl #3
    1e10:	eb01 03c3 	add.w	r3, r1, r3, lsl #3
    1e14:	6859      	ldr	r1, [r3, #4]
    1e16:	7810      	ldrb	r0, [r2, #0]
    1e18:	3101      	adds	r1, #1
    1e1a:	b2c0      	uxtb	r0, r0
    1e1c:	d007      	beq.n	1e2e <serial_getc+0x2e>
    1e1e:	6959      	ldr	r1, [r3, #20]
    1e20:	3304      	adds	r3, #4
    1e22:	685b      	ldr	r3, [r3, #4]
    1e24:	600b      	str	r3, [r1, #0]
    1e26:	6853      	ldr	r3, [r2, #4]
    1e28:	f043 0301 	orr.w	r3, r3, #1
    1e2c:	6053      	str	r3, [r2, #4]
    1e2e:	4770      	bx	lr
    1e30:	1000056c 	.word	0x1000056c

00001e34 <serial_writable>:
    1e34:	6843      	ldr	r3, [r0, #4]
    1e36:	4a17      	ldr	r2, [pc, #92]	; (1e94 <serial_writable+0x60>)
    1e38:	ebc3 03c3 	rsb	r3, r3, r3, lsl #3
    1e3c:	00db      	lsls	r3, r3, #3
    1e3e:	18d1      	adds	r1, r2, r3
    1e40:	b410      	push	{r4}
    1e42:	69cc      	ldr	r4, [r1, #28]
    1e44:	3401      	adds	r4, #1
    1e46:	d011      	beq.n	1e6c <serial_writable+0x38>
    1e48:	6b0a      	ldr	r2, [r1, #48]	; 0x30
    1e4a:	f101 031c 	add.w	r3, r1, #28
    1e4e:	685b      	ldr	r3, [r3, #4]
    1e50:	6812      	ldr	r2, [r2, #0]
    1e52:	421a      	tst	r2, r3
    1e54:	d003      	beq.n	1e5e <serial_writable+0x2a>
    1e56:	2000      	movs	r0, #0
    1e58:	f85d 4b04 	ldr.w	r4, [sp], #4
    1e5c:	4770      	bx	lr
    1e5e:	6803      	ldr	r3, [r0, #0]
    1e60:	f85d 4b04 	ldr.w	r4, [sp], #4
    1e64:	7d18      	ldrb	r0, [r3, #20]
    1e66:	f3c0 1080 	ubfx	r0, r0, #6, #1
    1e6a:	4770      	bx	lr
    1e6c:	6803      	ldr	r3, [r0, #0]
    1e6e:	7d1b      	ldrb	r3, [r3, #20]
    1e70:	069b      	lsls	r3, r3, #26
    1e72:	d408      	bmi.n	1e86 <serial_writable+0x52>
    1e74:	f891 0034 	ldrb.w	r0, [r1, #52]	; 0x34
    1e78:	f85d 4b04 	ldr.w	r4, [sp], #4
    1e7c:	280f      	cmp	r0, #15
    1e7e:	bf8c      	ite	hi
    1e80:	2000      	movhi	r0, #0
    1e82:	2001      	movls	r0, #1
    1e84:	4770      	bx	lr
    1e86:	2300      	movs	r3, #0
    1e88:	f881 3034 	strb.w	r3, [r1, #52]	; 0x34
    1e8c:	2001      	movs	r0, #1
    1e8e:	f85d 4b04 	ldr.w	r4, [sp], #4
    1e92:	4770      	bx	lr
    1e94:	1000056c 	.word	0x1000056c

00001e98 <serial_putc>:
    1e98:	b538      	push	{r3, r4, r5, lr}
    1e9a:	4604      	mov	r4, r0
    1e9c:	460d      	mov	r5, r1
    1e9e:	4620      	mov	r0, r4
    1ea0:	f7ff ffc8 	bl	1e34 <serial_writable>
    1ea4:	2800      	cmp	r0, #0
    1ea6:	d0fa      	beq.n	1e9e <serial_putc+0x6>
    1ea8:	6823      	ldr	r3, [r4, #0]
    1eaa:	b2ed      	uxtb	r5, r5
    1eac:	701d      	strb	r5, [r3, #0]
    1eae:	6862      	ldr	r2, [r4, #4]
    1eb0:	4b05      	ldr	r3, [pc, #20]	; (1ec8 <serial_putc+0x30>)
    1eb2:	ebc2 02c2 	rsb	r2, r2, r2, lsl #3
    1eb6:	eb03 03c2 	add.w	r3, r3, r2, lsl #3
    1eba:	f893 2034 	ldrb.w	r2, [r3, #52]	; 0x34
    1ebe:	3201      	adds	r2, #1
    1ec0:	f883 2034 	strb.w	r2, [r3, #52]	; 0x34
    1ec4:	bd38      	pop	{r3, r4, r5, pc}
    1ec6:	bf00      	nop
    1ec8:	1000056c 	.word	0x1000056c

00001ecc <serial_set_flow_control>:
    1ecc:	e92d 4ff0 	stmdb	sp!, {r4, r5, r6, r7, r8, r9, r10, r11, lr}
    1ed0:	4604      	mov	r4, r0
    1ed2:	4d45      	ldr	r5, [pc, #276]	; (1fe8 <serial_set_flow_control+0x11c>)
    1ed4:	6800      	ldr	r0, [r0, #0]
    1ed6:	b083      	sub	sp, #12
    1ed8:	42a8      	cmp	r0, r5
    1eda:	460e      	mov	r6, r1
    1edc:	4690      	mov	r8, r2
    1ede:	4699      	mov	r9, r3
    1ee0:	d043      	beq.n	1f6a <serial_set_flow_control+0x9e>
    1ee2:	6865      	ldr	r5, [r4, #4]
    1ee4:	2300      	movs	r3, #0
    1ee6:	9301      	str	r3, [sp, #4]
    1ee8:	462a      	mov	r2, r5
    1eea:	f8df a108 	ldr.w	r10, [pc, #264]	; 1ff4 <serial_set_flow_control+0x128>
    1eee:	00ef      	lsls	r7, r5, #3
    1ef0:	ebc2 02c2 	rsb	r2, r2, r2, lsl #3
    1ef4:	1b78      	subs	r0, r7, r5
    1ef6:	f04f 0e00 	mov.w	lr, #0
    1efa:	eb0a 00c0 	add.w	r0, r10, r0, lsl #3
    1efe:	eb0a 0cc2 	add.w	r12, r10, r2, lsl #3
    1f02:	f04f 33ff 	mov.w	r3, #4294967295	; 0xffffffff
    1f06:	61c3      	str	r3, [r0, #28]
    1f08:	6043      	str	r3, [r0, #4]
    1f0a:	4671      	mov	r1, lr
    1f0c:	4672      	mov	r2, lr
    1f0e:	4620      	mov	r0, r4
    1f10:	f88c e035 	strb.w	lr, [r12, #53]	; 0x35
    1f14:	f7ff fd84 	bl	1a20 <serial_irq_set_internal>
    1f18:	b916      	cbnz	r6, 1f20 <serial_set_flow_control+0x54>
    1f1a:	b003      	add	sp, #12
    1f1c:	e8bd 8ff0 	ldmia.w	sp!, {r4, r5, r6, r7, r8, r9, r10, r11, pc}
    1f20:	4932      	ldr	r1, [pc, #200]	; (1fec <serial_set_flow_control+0x120>)
    1f22:	4640      	mov	r0, r8
    1f24:	f000 faaa 	bl	247c <pinmap_find_peripheral>
    1f28:	4931      	ldr	r1, [pc, #196]	; (1ff0 <serial_set_flow_control+0x124>)
    1f2a:	4683      	mov	r11, r0
    1f2c:	4648      	mov	r0, r9
    1f2e:	f000 faa5 	bl	247c <pinmap_find_peripheral>
    1f32:	1eb2      	subs	r2, r6, #2
    1f34:	2a01      	cmp	r2, #1
    1f36:	d938      	bls.n	1faa <serial_set_flow_control+0xde>
    1f38:	2e01      	cmp	r6, #1
    1f3a:	d1ee      	bne.n	1f1a <serial_set_flow_control+0x4e>
    1f3c:	f1b8 3fff 	cmp.w	r8, #4294967295	; 0xffffffff
    1f40:	d0eb      	beq.n	1f1a <serial_set_flow_control+0x4e>
    1f42:	4929      	ldr	r1, [pc, #164]	; (1fe8 <serial_set_flow_control+0x11c>)
    1f44:	6822      	ldr	r2, [r4, #0]
    1f46:	2007      	movs	r0, #7
    1f48:	458b      	cmp	r11, r1
    1f4a:	7210      	strb	r0, [r2, #8]
    1f4c:	d115      	bne.n	1f7a <serial_set_flow_control+0xae>
    1f4e:	9b01      	ldr	r3, [sp, #4]
    1f50:	b19b      	cbz	r3, 1f7a <serial_set_flow_control+0xae>
    1f52:	7c1b      	ldrb	r3, [r3, #16]
    1f54:	9a01      	ldr	r2, [sp, #4]
    1f56:	4925      	ldr	r1, [pc, #148]	; (1fec <serial_set_flow_control+0x120>)
    1f58:	f043 0340 	orr.w	r3, r3, #64	; 0x40
    1f5c:	4640      	mov	r0, r8
    1f5e:	7413      	strb	r3, [r2, #16]
    1f60:	b003      	add	sp, #12
    1f62:	e8bd 4ff0 	ldmia.w	sp!, {r4, r5, r6, r7, r8, r9, r10, r11, lr}
    1f66:	f000 ba57 	b.w	2418 <pinmap_pinout>
    1f6a:	7c03      	ldrb	r3, [r0, #16]
    1f6c:	6865      	ldr	r5, [r4, #4]
    1f6e:	f003 033f 	and.w	r3, r3, #63	; 0x3f
    1f72:	7403      	strb	r3, [r0, #16]
    1f74:	6862      	ldr	r2, [r4, #4]
    1f76:	9001      	str	r0, [sp, #4]
    1f78:	e7b7      	b.n	1eea <serial_set_flow_control+0x1e>
    1f7a:	1b7d      	subs	r5, r7, r5
    1f7c:	eb0a 00c5 	add.w	r0, r10, r5, lsl #3
    1f80:	4641      	mov	r1, r8
    1f82:	3004      	adds	r0, #4
    1f84:	2200      	movs	r2, #0
    1f86:	f000 fa2b 	bl	23e0 <gpio_init_out_ex>
    1f8a:	6862      	ldr	r2, [r4, #4]
    1f8c:	2501      	movs	r5, #1
    1f8e:	ebc2 02c2 	rsb	r2, r2, r2, lsl #3
    1f92:	eb0a 03c2 	add.w	r3, r10, r2, lsl #3
    1f96:	4620      	mov	r0, r4
    1f98:	462a      	mov	r2, r5
    1f9a:	2100      	movs	r1, #0
    1f9c:	f883 5035 	strb.w	r5, [r3, #53]	; 0x35
    1fa0:	b003      	add	sp, #12
    1fa2:	e8bd 4ff0 	ldmia.w	sp!, {r4, r5, r6, r7, r8, r9, r10, r11, lr}
    1fa6:	f7ff bd3b 	b.w	1a20 <serial_irq_set_internal>
    1faa:	f1b9 3fff 	cmp.w	r9, #4294967295	; 0xffffffff
    1fae:	d009      	beq.n	1fc4 <serial_set_flow_control+0xf8>
    1fb0:	4a0d      	ldr	r2, [pc, #52]	; (1fe8 <serial_set_flow_control+0x11c>)
    1fb2:	4290      	cmp	r0, r2
    1fb4:	d00c      	beq.n	1fd0 <serial_set_flow_control+0x104>
    1fb6:	1b78      	subs	r0, r7, r5
    1fb8:	eb0a 00c0 	add.w	r0, r10, r0, lsl #3
    1fbc:	4649      	mov	r1, r9
    1fbe:	301c      	adds	r0, #28
    1fc0:	f000 f9e6 	bl	2390 <gpio_init_in>
    1fc4:	2e03      	cmp	r6, #3
    1fc6:	d1a8      	bne.n	1f1a <serial_set_flow_control+0x4e>
    1fc8:	f1b8 3fff 	cmp.w	r8, #4294967295	; 0xffffffff
    1fcc:	d1b9      	bne.n	1f42 <serial_set_flow_control+0x76>
    1fce:	e7a4      	b.n	1f1a <serial_set_flow_control+0x4e>
    1fd0:	9b01      	ldr	r3, [sp, #4]
    1fd2:	2b00      	cmp	r3, #0
    1fd4:	d0ef      	beq.n	1fb6 <serial_set_flow_control+0xea>
    1fd6:	7c1a      	ldrb	r2, [r3, #16]
    1fd8:	4648      	mov	r0, r9
    1fda:	f042 0280 	orr.w	r2, r2, #128	; 0x80
    1fde:	741a      	strb	r2, [r3, #16]
    1fe0:	4903      	ldr	r1, [pc, #12]	; (1ff0 <serial_set_flow_control+0x124>)
    1fe2:	f000 fa19 	bl	2418 <pinmap_pinout>
    1fe6:	e7ed      	b.n	1fc4 <serial_set_flow_control+0xf8>
    1fe8:	40010000 	.word	0x40010000
    1fec:	000056c0 	.word	0x000056c0
    1ff0:	000057bc 	.word	0x000057bc
    1ff4:	1000056c 	.word	0x1000056c

00001ff8 <serial_init>:
    1ff8:	e92d 41f0 	stmdb	sp!, {r4, r5, r6, r7, r8, lr}
    1ffc:	4605      	mov	r5, r0
    1ffe:	460f      	mov	r7, r1
    2000:	4608      	mov	r0, r1
    2002:	4959      	ldr	r1, [pc, #356]	; (2168 <serial_init+0x170>)
    2004:	4616      	mov	r6, r2
    2006:	f000 fa47 	bl	2498 <pinmap_peripheral>
    200a:	4958      	ldr	r1, [pc, #352]	; (216c <serial_init+0x174>)
    200c:	4604      	mov	r4, r0
    200e:	4630      	mov	r0, r6
    2010:	f000 fa42 	bl	2498 <pinmap_peripheral>
    2014:	4601      	mov	r1, r0
    2016:	4620      	mov	r0, r4
    2018:	f000 fa1e 	bl	2458 <pinmap_merge>
    201c:	4b54      	ldr	r3, [pc, #336]	; (2170 <serial_init+0x178>)
    201e:	4604      	mov	r4, r0
    2020:	4298      	cmp	r0, r3
    2022:	6028      	str	r0, [r5, #0]
    2024:	d07f      	beq.n	2126 <serial_init+0x12e>
    2026:	d96f      	bls.n	2108 <serial_init+0x110>
    2028:	4b52      	ldr	r3, [pc, #328]	; (2174 <serial_init+0x17c>)
    202a:	4298      	cmp	r0, r3
    202c:	d04b      	beq.n	20c6 <serial_init+0xce>
    202e:	f503 4380 	add.w	r3, r3, #16384	; 0x4000
    2032:	4298      	cmp	r0, r3
    2034:	d106      	bne.n	2044 <serial_init+0x4c>
    2036:	4b50      	ldr	r3, [pc, #320]	; (2178 <serial_init+0x180>)
    2038:	f8d3 20c4 	ldr.w	r2, [r3, #196]	; 0xc4
    203c:	f042 7200 	orr.w	r2, r2, #33554432	; 0x2000000
    2040:	f8c3 20c4 	str.w	r2, [r3, #196]	; 0xc4
    2044:	2301      	movs	r3, #1
    2046:	7223      	strb	r3, [r4, #8]
    2048:	682b      	ldr	r3, [r5, #0]
    204a:	f04f 0800 	mov.w	r8, #0
    204e:	f8c3 8004 	str.w	r8, [r3, #4]
    2052:	4628      	mov	r0, r5
    2054:	f44f 5116 	mov.w	r1, #9600	; 0x2580
    2058:	f7ff fde2 	bl	1c20 <serial_baud>
    205c:	682b      	ldr	r3, [r5, #0]
    205e:	2203      	movs	r2, #3
    2060:	731a      	strb	r2, [r3, #12]
    2062:	4638      	mov	r0, r7
    2064:	4940      	ldr	r1, [pc, #256]	; (2168 <serial_init+0x170>)
    2066:	f000 f9d7 	bl	2418 <pinmap_pinout>
    206a:	4630      	mov	r0, r6
    206c:	493f      	ldr	r1, [pc, #252]	; (216c <serial_init+0x174>)
    206e:	f000 f9d3 	bl	2418 <pinmap_pinout>
    2072:	1c7a      	adds	r2, r7, #1
    2074:	d003      	beq.n	207e <serial_init+0x86>
    2076:	4638      	mov	r0, r7
    2078:	4641      	mov	r1, r8
    207a:	f000 fa9d 	bl	25b8 <pin_mode>
    207e:	1c73      	adds	r3, r6, #1
    2080:	d003      	beq.n	208a <serial_init+0x92>
    2082:	4630      	mov	r0, r6
    2084:	2100      	movs	r1, #0
    2086:	f000 fa97 	bl	25b8 <pin_mode>
    208a:	4b39      	ldr	r3, [pc, #228]	; (2170 <serial_init+0x178>)
    208c:	429c      	cmp	r4, r3
    208e:	d047      	beq.n	2120 <serial_init+0x128>
    2090:	d921      	bls.n	20d6 <serial_init+0xde>
    2092:	4b38      	ldr	r3, [pc, #224]	; (2174 <serial_init+0x17c>)
    2094:	429c      	cmp	r4, r3
    2096:	d063      	beq.n	2160 <serial_init+0x168>
    2098:	f503 4380 	add.w	r3, r3, #16384	; 0x4000
    209c:	429c      	cmp	r4, r3
    209e:	d14a      	bne.n	2136 <serial_init+0x13e>
    20a0:	2303      	movs	r3, #3
    20a2:	606b      	str	r3, [r5, #4]
    20a4:	4935      	ldr	r1, [pc, #212]	; (217c <serial_init+0x184>)
    20a6:	ebc3 03c3 	rsb	r3, r3, r3, lsl #3
    20aa:	f04f 34ff 	mov.w	r4, #4294967295	; 0xffffffff
    20ae:	4628      	mov	r0, r5
    20b0:	eb01 05c3 	add.w	r5, r1, r3, lsl #3
    20b4:	4622      	mov	r2, r4
    20b6:	4623      	mov	r3, r4
    20b8:	606c      	str	r4, [r5, #4]
    20ba:	61ec      	str	r4, [r5, #28]
    20bc:	2100      	movs	r1, #0
    20be:	e8bd 41f0 	ldmia.w	sp!, {r4, r5, r6, r7, r8, lr}
    20c2:	f7ff bf03 	b.w	1ecc <serial_set_flow_control>
    20c6:	4b2c      	ldr	r3, [pc, #176]	; (2178 <serial_init+0x180>)
    20c8:	f8d3 20c4 	ldr.w	r2, [r3, #196]	; 0xc4
    20cc:	f042 7280 	orr.w	r2, r2, #16777216	; 0x1000000
    20d0:	f8c3 20c4 	str.w	r2, [r3, #196]	; 0xc4
    20d4:	e7b6      	b.n	2044 <serial_init+0x4c>
    20d6:	f5a3 4380 	sub.w	r3, r3, #16384	; 0x4000
    20da:	429c      	cmp	r4, r3
    20dc:	d12b      	bne.n	2136 <serial_init+0x13e>
    20de:	4e27      	ldr	r6, [pc, #156]	; (217c <serial_init+0x184>)
    20e0:	f04f 34ff 	mov.w	r4, #4294967295	; 0xffffffff
    20e4:	2100      	movs	r1, #0
    20e6:	6069      	str	r1, [r5, #4]
    20e8:	4622      	mov	r2, r4
    20ea:	4623      	mov	r3, r4
    20ec:	4628      	mov	r0, r5
    20ee:	6074      	str	r4, [r6, #4]
    20f0:	61f4      	str	r4, [r6, #28]
    20f2:	f7ff feeb 	bl	1ecc <serial_set_flow_control>
    20f6:	4b22      	ldr	r3, [pc, #136]	; (2180 <serial_init+0x188>)
    20f8:	2201      	movs	r2, #1
    20fa:	601a      	str	r2, [r3, #0]
    20fc:	6828      	ldr	r0, [r5, #0]
    20fe:	6869      	ldr	r1, [r5, #4]
    2100:	4b20      	ldr	r3, [pc, #128]	; (2184 <serial_init+0x18c>)
    2102:	c303      	stmia	r3!, {r0, r1}
    2104:	e8bd 81f0 	ldmia.w	sp!, {r4, r5, r6, r7, r8, pc}
    2108:	f5a3 4380 	sub.w	r3, r3, #16384	; 0x4000
    210c:	4298      	cmp	r0, r3
    210e:	d199      	bne.n	2044 <serial_init+0x4c>
    2110:	4b19      	ldr	r3, [pc, #100]	; (2178 <serial_init+0x180>)
    2112:	f8d3 20c4 	ldr.w	r2, [r3, #196]	; 0xc4
    2116:	f042 0208 	orr.w	r2, r2, #8
    211a:	f8c3 20c4 	str.w	r2, [r3, #196]	; 0xc4
    211e:	e791      	b.n	2044 <serial_init+0x4c>
    2120:	2301      	movs	r3, #1
    2122:	606b      	str	r3, [r5, #4]
    2124:	e7be      	b.n	20a4 <serial_init+0xac>
    2126:	4b14      	ldr	r3, [pc, #80]	; (2178 <serial_init+0x180>)
    2128:	f8d3 20c4 	ldr.w	r2, [r3, #196]	; 0xc4
    212c:	f042 0210 	orr.w	r2, r2, #16
    2130:	f8c3 20c4 	str.w	r2, [r3, #196]	; 0xc4
    2134:	e786      	b.n	2044 <serial_init+0x4c>
    2136:	686b      	ldr	r3, [r5, #4]
    2138:	4910      	ldr	r1, [pc, #64]	; (217c <serial_init+0x184>)
    213a:	ebc3 03c3 	rsb	r3, r3, r3, lsl #3
    213e:	f04f 36ff 	mov.w	r6, #4294967295	; 0xffffffff
    2142:	eb01 07c3 	add.w	r7, r1, r3, lsl #3
    2146:	4632      	mov	r2, r6
    2148:	4633      	mov	r3, r6
    214a:	4628      	mov	r0, r5
    214c:	2100      	movs	r1, #0
    214e:	607e      	str	r6, [r7, #4]
    2150:	61fe      	str	r6, [r7, #28]
    2152:	f7ff febb 	bl	1ecc <serial_set_flow_control>
    2156:	4b0c      	ldr	r3, [pc, #48]	; (2188 <serial_init+0x190>)
    2158:	429c      	cmp	r4, r3
    215a:	d0cc      	beq.n	20f6 <serial_init+0xfe>
    215c:	e8bd 81f0 	ldmia.w	sp!, {r4, r5, r6, r7, r8, pc}
    2160:	2302      	movs	r3, #2
    2162:	606b      	str	r3, [r5, #4]
    2164:	e79e      	b.n	20a4 <serial_init+0xac>
    2166:	bf00      	nop
    2168:	00005750 	.word	0x00005750
    216c:	000056e4 	.word	0x000056e4
    2170:	40010000 	.word	0x40010000
    2174:	40098000 	.word	0x40098000
    2178:	400fc000 	.word	0x400fc000
    217c:	1000056c 	.word	0x1000056c
    2180:	10000564 	.word	0x10000564
    2184:	10000660 	.word	0x10000660
    2188:	4000c000 	.word	0x4000c000

0000218c <us_ticker_init>:
    218c:	4a13      	ldr	r2, [pc, #76]	; (21dc <us_ticker_init+0x50>)
    218e:	b538      	push	{r3, r4, r5, lr}
    2190:	6813      	ldr	r3, [r2, #0]
    2192:	bb0b      	cbnz	r3, 21d8 <us_ticker_init+0x4c>
    2194:	4912      	ldr	r1, [pc, #72]	; (21e0 <us_ticker_init+0x54>)
    2196:	2401      	movs	r4, #1
    2198:	f8d1 50c4 	ldr.w	r5, [r1, #196]	; 0xc4
    219c:	6014      	str	r4, [r2, #0]
    219e:	4a11      	ldr	r2, [pc, #68]	; (21e4 <us_ticker_init+0x58>)
    21a0:	4811      	ldr	r0, [pc, #68]	; (21e8 <us_ticker_init+0x5c>)
    21a2:	f445 0500 	orr.w	r5, r5, #8388608	; 0x800000
    21a6:	f8c1 50c4 	str.w	r5, [r1, #196]	; 0xc4
    21aa:	6713      	str	r3, [r2, #112]	; 0x70
    21ac:	6803      	ldr	r3, [r0, #0]
    21ae:	f101 7143 	add.w	r1, r1, #51118080	; 0x30c0000
    21b2:	f501 51f4 	add.w	r1, r1, #7808	; 0x1e80
    21b6:	3103      	adds	r1, #3
    21b8:	089b      	lsrs	r3, r3, #2
    21ba:	fba1 0303 	umull	r0, r3, r1, r3
    21be:	0c9b      	lsrs	r3, r3, #18
    21c0:	3b01      	subs	r3, #1
    21c2:	2102      	movs	r1, #2
    21c4:	6051      	str	r1, [r2, #4]
    21c6:	2004      	movs	r0, #4
    21c8:	60d3      	str	r3, [r2, #12]
    21ca:	4908      	ldr	r1, [pc, #32]	; (21ec <us_ticker_init+0x60>)
    21cc:	6054      	str	r4, [r2, #4]
    21ce:	f7ff faad 	bl	172c <NVIC_SetVector>
    21d2:	4b07      	ldr	r3, [pc, #28]	; (21f0 <us_ticker_init+0x64>)
    21d4:	2210      	movs	r2, #16
    21d6:	601a      	str	r2, [r3, #0]
    21d8:	bd38      	pop	{r3, r4, r5, pc}
    21da:	bf00      	nop
    21dc:	1000064c 	.word	0x1000064c
    21e0:	400fc000 	.word	0x400fc000
    21e4:	40094000 	.word	0x40094000
    21e8:	10000248 	.word	0x10000248
    21ec:	000024cd 	.word	0x000024cd
    21f0:	e000e100 	.word	0xe000e100

000021f4 <us_ticker_read>:
    21f4:	b508      	push	{r3, lr}
    21f6:	4b04      	ldr	r3, [pc, #16]	; (2208 <us_ticker_read+0x14>)
    21f8:	681b      	ldr	r3, [r3, #0]
    21fa:	b90b      	cbnz	r3, 2200 <us_ticker_read+0xc>
    21fc:	f7ff ffc6 	bl	218c <us_ticker_init>
    2200:	4b02      	ldr	r3, [pc, #8]	; (220c <us_ticker_read+0x18>)
    2202:	6898      	ldr	r0, [r3, #8]
    2204:	bd08      	pop	{r3, pc}
    2206:	bf00      	nop
    2208:	1000064c 	.word	0x1000064c
    220c:	40094000 	.word	0x40094000

00002210 <us_ticker_set_interrupt>:
    2210:	4b03      	ldr	r3, [pc, #12]	; (2220 <us_ticker_set_interrupt+0x10>)
    2212:	6198      	str	r0, [r3, #24]
    2214:	695a      	ldr	r2, [r3, #20]
    2216:	f042 0201 	orr.w	r2, r2, #1
    221a:	615a      	str	r2, [r3, #20]
    221c:	4770      	bx	lr
    221e:	bf00      	nop
    2220:	40094000 	.word	0x40094000

00002224 <us_ticker_disable_interrupt>:
    2224:	4b02      	ldr	r3, [pc, #8]	; (2230 <us_ticker_disable_interrupt+0xc>)
    2226:	695a      	ldr	r2, [r3, #20]
    2228:	f022 0201 	bic.w	r2, r2, #1
    222c:	615a      	str	r2, [r3, #20]
    222e:	4770      	bx	lr
    2230:	40094000 	.word	0x40094000

00002234 <us_ticker_clear_interrupt>:
    2234:	4b01      	ldr	r3, [pc, #4]	; (223c <us_ticker_clear_interrupt+0x8>)
    2236:	2201      	movs	r2, #1
    2238:	601a      	str	r2, [r3, #0]
    223a:	4770      	bx	lr
    223c:	40094000 	.word	0x40094000

00002240 <SystemInit>:
    2240:	4a2b      	ldr	r2, [pc, #172]	; (22f0 <SystemInit+0xb0>)
    2242:	2320      	movs	r3, #32
    2244:	b470      	push	{r4, r5, r6}
    2246:	f8c2 31a0 	str.w	r3, [r2, #416]	; 0x1a0
    224a:	f8d2 31a0 	ldr.w	r3, [r2, #416]	; 0x1a0
    224e:	0698      	lsls	r0, r3, #26
    2250:	d445      	bmi.n	22de <SystemInit+0x9e>
    2252:	4b27      	ldr	r3, [pc, #156]	; (22f0 <SystemInit+0xb0>)
    2254:	2102      	movs	r1, #2
    2256:	2500      	movs	r5, #0
    2258:	2401      	movs	r4, #1
    225a:	20aa      	movs	r0, #170	; 0xaa
    225c:	2255      	movs	r2, #85	; 0x55
    225e:	260b      	movs	r6, #11
    2260:	f8c3 1104 	str.w	r1, [r3, #260]	; 0x104
    2264:	f8c3 51a8 	str.w	r5, [r3, #424]	; 0x1a8
    2268:	4619      	mov	r1, r3
    226a:	f8c3 51ac 	str.w	r5, [r3, #428]	; 0x1ac
    226e:	f8c3 410c 	str.w	r4, [r3, #268]	; 0x10c
    2272:	f8c3 6084 	str.w	r6, [r3, #132]	; 0x84
    2276:	f8c3 008c 	str.w	r0, [r3, #140]	; 0x8c
    227a:	f8c3 208c 	str.w	r2, [r3, #140]	; 0x8c
    227e:	f8c3 4080 	str.w	r4, [r3, #128]	; 0x80
    2282:	f8c3 008c 	str.w	r0, [r3, #140]	; 0x8c
    2286:	f8c3 208c 	str.w	r2, [r3, #140]	; 0x8c
    228a:	f8d1 3088 	ldr.w	r3, [r1, #136]	; 0x88
    228e:	4a18      	ldr	r2, [pc, #96]	; (22f0 <SystemInit+0xb0>)
    2290:	015b      	lsls	r3, r3, #5
    2292:	d5fa      	bpl.n	228a <SystemInit+0x4a>
    2294:	2103      	movs	r1, #3
    2296:	20aa      	movs	r0, #170	; 0xaa
    2298:	2355      	movs	r3, #85	; 0x55
    229a:	f8c2 1080 	str.w	r1, [r2, #128]	; 0x80
    229e:	f8c2 008c 	str.w	r0, [r2, #140]	; 0x8c
    22a2:	4611      	mov	r1, r2
    22a4:	f8c2 308c 	str.w	r3, [r2, #140]	; 0x8c
    22a8:	f8d1 3088 	ldr.w	r3, [r1, #136]	; 0x88
    22ac:	4a10      	ldr	r2, [pc, #64]	; (22f0 <SystemInit+0xb0>)
    22ae:	f013 7f40 	tst.w	r3, #50331648	; 0x3000000
    22b2:	d0f9      	beq.n	22a8 <SystemInit+0x68>
    22b4:	490f      	ldr	r1, [pc, #60]	; (22f4 <SystemInit+0xb4>)
    22b6:	2300      	movs	r3, #0
    22b8:	2005      	movs	r0, #5
    22ba:	f8c2 0108 	str.w	r0, [r2, #264]	; 0x108
    22be:	f8c2 10c4 	str.w	r1, [r2, #196]	; 0xc4
    22c2:	f8c2 31c8 	str.w	r3, [r2, #456]	; 0x1c8
    22c6:	6813      	ldr	r3, [r2, #0]
    22c8:	bc70      	pop	{r4, r5, r6}
    22ca:	f423 4370 	bic.w	r3, r3, #61440	; 0xf000
    22ce:	f023 033a 	bic.w	r3, r3, #58	; 0x3a
    22d2:	f443 5340 	orr.w	r3, r3, #12288	; 0x3000
    22d6:	f043 033a 	orr.w	r3, r3, #58	; 0x3a
    22da:	6013      	str	r3, [r2, #0]
    22dc:	4770      	bx	lr
    22de:	f8d2 31a0 	ldr.w	r3, [r2, #416]	; 0x1a0
    22e2:	0659      	lsls	r1, r3, #25
    22e4:	d4b5      	bmi.n	2252 <SystemInit+0x12>
    22e6:	f8d2 31a0 	ldr.w	r3, [r2, #416]	; 0x1a0
    22ea:	0659      	lsls	r1, r3, #25
    22ec:	d5f7      	bpl.n	22de <SystemInit+0x9e>
    22ee:	e7b0      	b.n	2252 <SystemInit+0x12>
    22f0:	400fc000 	.word	0x400fc000
    22f4:	042887de 	.word	0x042887de

000022f8 <mbed_die>:
    22f8:	b500      	push	{lr}
    22fa:	b099      	sub	sp, #100	; 0x64
    22fc:	b672      	cpsid	i
    22fe:	4917      	ldr	r1, [pc, #92]	; (235c <mbed_die+0x64>)
    2300:	4668      	mov	r0, sp
    2302:	f000 f857 	bl	23b4 <gpio_init_out>
    2306:	a806      	add	r0, sp, #24
    2308:	4915      	ldr	r1, [pc, #84]	; (2360 <mbed_die+0x68>)
    230a:	f000 f853 	bl	23b4 <gpio_init_out>
    230e:	a80c      	add	r0, sp, #48	; 0x30
    2310:	4914      	ldr	r1, [pc, #80]	; (2364 <mbed_die+0x6c>)
    2312:	f000 f84f 	bl	23b4 <gpio_init_out>
    2316:	a812      	add	r0, sp, #72	; 0x48
    2318:	4913      	ldr	r1, [pc, #76]	; (2368 <mbed_die+0x70>)
    231a:	f000 f84b 	bl	23b4 <gpio_init_out>
    231e:	9b03      	ldr	r3, [sp, #12]
    2320:	9a01      	ldr	r2, [sp, #4]
    2322:	980a      	ldr	r0, [sp, #40]	; 0x28
    2324:	601a      	str	r2, [r3, #0]
    2326:	9b07      	ldr	r3, [sp, #28]
    2328:	9910      	ldr	r1, [sp, #64]	; 0x40
    232a:	6003      	str	r3, [r0, #0]
    232c:	9b0d      	ldr	r3, [sp, #52]	; 0x34
    232e:	9a15      	ldr	r2, [sp, #84]	; 0x54
    2330:	600b      	str	r3, [r1, #0]
    2332:	9b13      	ldr	r3, [sp, #76]	; 0x4c
    2334:	2096      	movs	r0, #150	; 0x96
    2336:	6013      	str	r3, [r2, #0]
    2338:	f7ff fa5c 	bl	17f4 <wait_ms>
    233c:	9b04      	ldr	r3, [sp, #16]
    233e:	9a01      	ldr	r2, [sp, #4]
    2340:	9809      	ldr	r0, [sp, #36]	; 0x24
    2342:	601a      	str	r2, [r3, #0]
    2344:	9b07      	ldr	r3, [sp, #28]
    2346:	990f      	ldr	r1, [sp, #60]	; 0x3c
    2348:	6003      	str	r3, [r0, #0]
    234a:	9b0d      	ldr	r3, [sp, #52]	; 0x34
    234c:	9a16      	ldr	r2, [sp, #88]	; 0x58
    234e:	600b      	str	r3, [r1, #0]
    2350:	9b13      	ldr	r3, [sp, #76]	; 0x4c
    2352:	2096      	movs	r0, #150	; 0x96
    2354:	6013      	str	r3, [r2, #0]
    2356:	f7ff fa4d 	bl	17f4 <wait_ms>
    235a:	e7e0      	b.n	231e <mbed_die+0x26>
    235c:	2009c032 	.word	0x2009c032
    2360:	2009c034 	.word	0x2009c034
    2364:	2009c035 	.word	0x2009c035
    2368:	2009c037 	.word	0x2009c037

0000236c <error>:
    236c:	b40f      	push	{r0, r1, r2, r3}
    236e:	b500      	push	{lr}
    2370:	4a06      	ldr	r2, [pc, #24]	; (238c <error+0x20>)
    2372:	b083      	sub	sp, #12
    2374:	ab04      	add	r3, sp, #16
    2376:	6812      	ldr	r2, [r2, #0]
    2378:	f853 1b04 	ldr.w	r1, [r3], #4
    237c:	68d0      	ldr	r0, [r2, #12]
    237e:	461a      	mov	r2, r3
    2380:	9301      	str	r3, [sp, #4]
    2382:	f001 fac7 	bl	3914 <vfiprintf>
    2386:	2001      	movs	r0, #1
    2388:	f7ff f9ee 	bl	1768 <exit>
    238c:	100002ac 	.word	0x100002ac

00002390 <gpio_init_in>:
    2390:	b538      	push	{r3, r4, r5, lr}
    2392:	460d      	mov	r5, r1
    2394:	4604      	mov	r4, r0
    2396:	f000 f8c5 	bl	2524 <gpio_init>
    239a:	3501      	adds	r5, #1
    239c:	d009      	beq.n	23b2 <gpio_init_in+0x22>
    239e:	4620      	mov	r0, r4
    23a0:	2100      	movs	r1, #0
    23a2:	f000 f8df 	bl	2564 <gpio_dir>
    23a6:	4620      	mov	r0, r4
    23a8:	2103      	movs	r1, #3
    23aa:	e8bd 4038 	ldmia.w	sp!, {r3, r4, r5, lr}
    23ae:	f000 b8d5 	b.w	255c <gpio_mode>
    23b2:	bd38      	pop	{r3, r4, r5, pc}

000023b4 <gpio_init_out>:
    23b4:	b538      	push	{r3, r4, r5, lr}
    23b6:	460d      	mov	r5, r1
    23b8:	4604      	mov	r4, r0
    23ba:	f000 f8b3 	bl	2524 <gpio_init>
    23be:	3501      	adds	r5, #1
    23c0:	d00c      	beq.n	23dc <gpio_init_out+0x28>
    23c2:	6923      	ldr	r3, [r4, #16]
    23c4:	6862      	ldr	r2, [r4, #4]
    23c6:	4620      	mov	r0, r4
    23c8:	601a      	str	r2, [r3, #0]
    23ca:	2101      	movs	r1, #1
    23cc:	f000 f8ca 	bl	2564 <gpio_dir>
    23d0:	4620      	mov	r0, r4
    23d2:	2102      	movs	r1, #2
    23d4:	e8bd 4038 	ldmia.w	sp!, {r3, r4, r5, lr}
    23d8:	f000 b8c0 	b.w	255c <gpio_mode>
    23dc:	bd38      	pop	{r3, r4, r5, pc}
    23de:	bf00      	nop

000023e0 <gpio_init_out_ex>:
    23e0:	b570      	push	{r4, r5, r6, lr}
    23e2:	460d      	mov	r5, r1
    23e4:	4616      	mov	r6, r2
    23e6:	4604      	mov	r4, r0
    23e8:	f000 f89c 	bl	2524 <gpio_init>
    23ec:	3501      	adds	r5, #1
    23ee:	d011      	beq.n	2414 <gpio_init_out_ex+0x34>
    23f0:	b966      	cbnz	r6, 240c <gpio_init_out_ex+0x2c>
    23f2:	6923      	ldr	r3, [r4, #16]
    23f4:	6862      	ldr	r2, [r4, #4]
    23f6:	601a      	str	r2, [r3, #0]
    23f8:	4620      	mov	r0, r4
    23fa:	2101      	movs	r1, #1
    23fc:	f000 f8b2 	bl	2564 <gpio_dir>
    2400:	4620      	mov	r0, r4
    2402:	2102      	movs	r1, #2
    2404:	e8bd 4070 	ldmia.w	sp!, {r4, r5, r6, lr}
    2408:	f000 b8a8 	b.w	255c <gpio_mode>
    240c:	68e3      	ldr	r3, [r4, #12]
    240e:	6862      	ldr	r2, [r4, #4]
    2410:	601a      	str	r2, [r3, #0]
    2412:	e7f1      	b.n	23f8 <gpio_init_out_ex+0x18>
    2414:	bd70      	pop	{r4, r5, r6, pc}
    2416:	bf00      	nop

00002418 <pinmap_pinout>:
    2418:	1c43      	adds	r3, r0, #1
    241a:	b510      	push	{r4, lr}
    241c:	4604      	mov	r4, r0
    241e:	d018      	beq.n	2452 <pinmap_pinout+0x3a>
    2420:	680b      	ldr	r3, [r1, #0]
    2422:	1c58      	adds	r0, r3, #1
    2424:	d104      	bne.n	2430 <pinmap_pinout+0x18>
    2426:	e00f      	b.n	2448 <pinmap_pinout+0x30>
    2428:	f851 3f0c 	ldr.w	r3, [r1, #12]!
    242c:	1c5a      	adds	r2, r3, #1
    242e:	d00b      	beq.n	2448 <pinmap_pinout+0x30>
    2430:	429c      	cmp	r4, r3
    2432:	d1f9      	bne.n	2428 <pinmap_pinout+0x10>
    2434:	4620      	mov	r0, r4
    2436:	6889      	ldr	r1, [r1, #8]
    2438:	f000 f8a6 	bl	2588 <pin_function>
    243c:	4620      	mov	r0, r4
    243e:	2102      	movs	r1, #2
    2440:	e8bd 4010 	ldmia.w	sp!, {r4, lr}
    2444:	f000 b8b8 	b.w	25b8 <pin_mode>
    2448:	4802      	ldr	r0, [pc, #8]	; (2454 <pinmap_pinout+0x3c>)
    244a:	e8bd 4010 	ldmia.w	sp!, {r4, lr}
    244e:	f7ff bf8d 	b.w	236c <error>
    2452:	bd10      	pop	{r4, pc}
    2454:	000057e0 	.word	0x000057e0

00002458 <pinmap_merge>:
    2458:	4288      	cmp	r0, r1
    245a:	b508      	push	{r3, lr}
    245c:	d00a      	beq.n	2474 <pinmap_merge+0x1c>
    245e:	1c43      	adds	r3, r0, #1
    2460:	d007      	beq.n	2472 <pinmap_merge+0x1a>
    2462:	3101      	adds	r1, #1
    2464:	d006      	beq.n	2474 <pinmap_merge+0x1c>
    2466:	4804      	ldr	r0, [pc, #16]	; (2478 <pinmap_merge+0x20>)
    2468:	f7ff ff80 	bl	236c <error>
    246c:	f04f 30ff 	mov.w	r0, #4294967295	; 0xffffffff
    2470:	bd08      	pop	{r3, pc}
    2472:	4608      	mov	r0, r1
    2474:	bd08      	pop	{r3, pc}
    2476:	bf00      	nop
    2478:	000057f4 	.word	0x000057f4

0000247c <pinmap_find_peripheral>:
    247c:	680b      	ldr	r3, [r1, #0]
    247e:	1c5a      	adds	r2, r3, #1
    2480:	d104      	bne.n	248c <pinmap_find_peripheral+0x10>
    2482:	e007      	b.n	2494 <pinmap_find_peripheral+0x18>
    2484:	f851 3f0c 	ldr.w	r3, [r1, #12]!
    2488:	1c5a      	adds	r2, r3, #1
    248a:	d003      	beq.n	2494 <pinmap_find_peripheral+0x18>
    248c:	4283      	cmp	r3, r0
    248e:	d1f9      	bne.n	2484 <pinmap_find_peripheral+0x8>
    2490:	6848      	ldr	r0, [r1, #4]
    2492:	4770      	bx	lr
    2494:	4618      	mov	r0, r3
    2496:	4770      	bx	lr

00002498 <pinmap_peripheral>:
    2498:	b508      	push	{r3, lr}
    249a:	1c43      	adds	r3, r0, #1
    249c:	d00c      	beq.n	24b8 <pinmap_peripheral+0x20>
    249e:	680b      	ldr	r3, [r1, #0]
    24a0:	1c5a      	adds	r2, r3, #1
    24a2:	d104      	bne.n	24ae <pinmap_peripheral+0x16>
    24a4:	e009      	b.n	24ba <pinmap_peripheral+0x22>
    24a6:	f851 3f0c 	ldr.w	r3, [r1, #12]!
    24aa:	1c5a      	adds	r2, r3, #1
    24ac:	d005      	beq.n	24ba <pinmap_peripheral+0x22>
    24ae:	4298      	cmp	r0, r3
    24b0:	d1f9      	bne.n	24a6 <pinmap_peripheral+0xe>
    24b2:	6848      	ldr	r0, [r1, #4]
    24b4:	1c41      	adds	r1, r0, #1
    24b6:	d000      	beq.n	24ba <pinmap_peripheral+0x22>
    24b8:	bd08      	pop	{r3, pc}
    24ba:	4803      	ldr	r0, [pc, #12]	; (24c8 <pinmap_peripheral+0x30>)
    24bc:	f7ff ff56 	bl	236c <error>
    24c0:	f04f 30ff 	mov.w	r0, #4294967295	; 0xffffffff
    24c4:	e7f8      	b.n	24b8 <pinmap_peripheral+0x20>
    24c6:	bf00      	nop
    24c8:	00005808 	.word	0x00005808

000024cc <us_ticker_irq_handler>:
    24cc:	b5f8      	push	{r3, r4, r5, r6, r7, lr}
    24ce:	f7ff feb1 	bl	2234 <us_ticker_clear_interrupt>
    24d2:	4e12      	ldr	r6, [pc, #72]	; (251c <us_ticker_irq_handler+0x50>)
    24d4:	4f12      	ldr	r7, [pc, #72]	; (2520 <us_ticker_irq_handler+0x54>)
    24d6:	6833      	ldr	r3, [r6, #0]
    24d8:	b1ab      	cbz	r3, 2506 <us_ticker_irq_handler+0x3a>
    24da:	e9d3 4500 	ldrd	r4, r5, [r3]
    24de:	f7ff fe89 	bl	21f4 <us_ticker_read>
    24e2:	1a22      	subs	r2, r4, r0
    24e4:	f165 0300 	sbc.w	r3, r5, #0
    24e8:	4610      	mov	r0, r2
    24ea:	4619      	mov	r1, r3
    24ec:	2801      	cmp	r0, #1
    24ee:	f171 0300 	sbcs.w	r3, r1, #0
    24f2:	da0c      	bge.n	250e <us_ticker_irq_handler+0x42>
    24f4:	6831      	ldr	r1, [r6, #0]
    24f6:	683a      	ldr	r2, [r7, #0]
    24f8:	68cb      	ldr	r3, [r1, #12]
    24fa:	6033      	str	r3, [r6, #0]
    24fc:	2a00      	cmp	r2, #0
    24fe:	d0eb      	beq.n	24d8 <us_ticker_irq_handler+0xc>
    2500:	6888      	ldr	r0, [r1, #8]
    2502:	4790      	blx	r2
    2504:	e7e7      	b.n	24d6 <us_ticker_irq_handler+0xa>
    2506:	e8bd 40f8 	ldmia.w	sp!, {r3, r4, r5, r6, r7, lr}
    250a:	f7ff be8b 	b.w	2224 <us_ticker_disable_interrupt>
    250e:	6833      	ldr	r3, [r6, #0]
    2510:	e9d3 0100 	ldrd	r0, r1, [r3]
    2514:	e8bd 40f8 	ldmia.w	sp!, {r3, r4, r5, r6, r7, lr}
    2518:	f7ff be7a 	b.w	2210 <us_ticker_set_interrupt>
    251c:	10000650 	.word	0x10000650
    2520:	10000654 	.word	0x10000654

00002524 <gpio_init>:
    2524:	b538      	push	{r3, r4, r5, lr}
    2526:	4604      	mov	r4, r0
    2528:	1c4b      	adds	r3, r1, #1
    252a:	460d      	mov	r5, r1
    252c:	6021      	str	r1, [r4, #0]
    252e:	d014      	beq.n	255a <gpio_init+0x36>
    2530:	4608      	mov	r0, r1
    2532:	2100      	movs	r1, #0
    2534:	f000 f828 	bl	2588 <pin_function>
    2538:	f005 031f 	and.w	r3, r5, #31
    253c:	2001      	movs	r0, #1
    253e:	4098      	lsls	r0, r3
    2540:	f025 051f 	bic.w	r5, r5, #31
    2544:	f105 0118 	add.w	r1, r5, #24
    2548:	f105 021c 	add.w	r2, r5, #28
    254c:	f105 0314 	add.w	r3, r5, #20
    2550:	60a5      	str	r5, [r4, #8]
    2552:	6060      	str	r0, [r4, #4]
    2554:	60e1      	str	r1, [r4, #12]
    2556:	6122      	str	r2, [r4, #16]
    2558:	6163      	str	r3, [r4, #20]
    255a:	bd38      	pop	{r3, r4, r5, pc}

0000255c <gpio_mode>:
    255c:	6800      	ldr	r0, [r0, #0]
    255e:	f000 b82b 	b.w	25b8 <pin_mode>
    2562:	bf00      	nop

00002564 <gpio_dir>:
    2564:	b141      	cbz	r1, 2578 <gpio_dir+0x14>
    2566:	2901      	cmp	r1, #1
    2568:	d105      	bne.n	2576 <gpio_dir+0x12>
    256a:	6883      	ldr	r3, [r0, #8]
    256c:	6842      	ldr	r2, [r0, #4]
    256e:	6819      	ldr	r1, [r3, #0]
    2570:	430a      	orrs	r2, r1
    2572:	601a      	str	r2, [r3, #0]
    2574:	4770      	bx	lr
    2576:	4770      	bx	lr
    2578:	6883      	ldr	r3, [r0, #8]
    257a:	6841      	ldr	r1, [r0, #4]
    257c:	681a      	ldr	r2, [r3, #0]
    257e:	ea22 0201 	bic.w	r2, r2, r1
    2582:	601a      	str	r2, [r3, #0]
    2584:	4770      	bx	lr
    2586:	bf00      	nop

00002588 <pin_function>:
    2588:	f100 4060 	add.w	r0, r0, #3758096384	; 0xe0000000
    258c:	f5a0 201c 	sub.w	r0, r0, #638976	; 0x9c000
    2590:	f000 030f 	and.w	r3, r0, #15
    2594:	005b      	lsls	r3, r3, #1
    2596:	2203      	movs	r2, #3
    2598:	409a      	lsls	r2, r3
    259a:	4099      	lsls	r1, r3
    259c:	0903      	lsrs	r3, r0, #4
    259e:	009b      	lsls	r3, r3, #2
    25a0:	f103 4380 	add.w	r3, r3, #1073741824	; 0x40000000
    25a4:	f503 3330 	add.w	r3, r3, #180224	; 0x2c000
    25a8:	6818      	ldr	r0, [r3, #0]
    25aa:	ea20 0202 	bic.w	r2, r0, r2
    25ae:	601a      	str	r2, [r3, #0]
    25b0:	681a      	ldr	r2, [r3, #0]
    25b2:	4311      	orrs	r1, r2
    25b4:	6019      	str	r1, [r3, #0]
    25b6:	4770      	bx	lr

000025b8 <pin_mode>:
    25b8:	f100 4060 	add.w	r0, r0, #3758096384	; 0xe0000000
    25bc:	f5a0 201c 	sub.w	r0, r0, #638976	; 0x9c000
    25c0:	b430      	push	{r4, r5}
    25c2:	f3c1 0280 	ubfx	r2, r1, #2, #1
    25c6:	f000 041f 	and.w	r4, r0, #31
    25ca:	fa02 f404 	lsl.w	r4, r2, r4
    25ce:	0943      	lsrs	r3, r0, #5
    25d0:	009b      	lsls	r3, r3, #2
    25d2:	f103 4380 	add.w	r3, r3, #1073741824	; 0x40000000
    25d6:	f503 3330 	add.w	r3, r3, #180224	; 0x2c000
    25da:	6e9d      	ldr	r5, [r3, #104]	; 0x68
    25dc:	ea25 0504 	bic.w	r5, r5, r4
    25e0:	669d      	str	r5, [r3, #104]	; 0x68
    25e2:	6e9d      	ldr	r5, [r3, #104]	; 0x68
    25e4:	432c      	orrs	r4, r5
    25e6:	669c      	str	r4, [r3, #104]	; 0x68
    25e8:	b99a      	cbnz	r2, 2612 <pin_mode+0x5a>
    25ea:	f000 030f 	and.w	r3, r0, #15
    25ee:	005b      	lsls	r3, r3, #1
    25f0:	2203      	movs	r2, #3
    25f2:	409a      	lsls	r2, r3
    25f4:	fa01 f303 	lsl.w	r3, r1, r3
    25f8:	0900      	lsrs	r0, r0, #4
    25fa:	0080      	lsls	r0, r0, #2
    25fc:	f100 4080 	add.w	r0, r0, #1073741824	; 0x40000000
    2600:	f500 3030 	add.w	r0, r0, #180224	; 0x2c000
    2604:	6c01      	ldr	r1, [r0, #64]	; 0x40
    2606:	ea21 0202 	bic.w	r2, r1, r2
    260a:	6402      	str	r2, [r0, #64]	; 0x40
    260c:	6c02      	ldr	r2, [r0, #64]	; 0x40
    260e:	4313      	orrs	r3, r2
    2610:	6403      	str	r3, [r0, #64]	; 0x40
    2612:	bc30      	pop	{r4, r5}
    2614:	4770      	bx	lr
    2616:	bf00      	nop

00002618 <__aeabi_atexit>:
    2618:	4603      	mov	r3, r0
    261a:	4608      	mov	r0, r1
    261c:	4619      	mov	r1, r3
    261e:	f000 bd79 	b.w	3114 <__cxa_atexit>

00002622 <__cxa_guard_acquire>:
    2622:	b508      	push	{r3, lr}
    2624:	6803      	ldr	r3, [r0, #0]
    2626:	07db      	lsls	r3, r3, #31
    2628:	d407      	bmi.n	263a <__cxa_guard_acquire+0x18>
    262a:	7843      	ldrb	r3, [r0, #1]
    262c:	b10b      	cbz	r3, 2632 <__cxa_guard_acquire+0x10>
    262e:	f7fd fe13 	bl	258 <abort>
    2632:	2301      	movs	r3, #1
    2634:	7043      	strb	r3, [r0, #1]
    2636:	4618      	mov	r0, r3
    2638:	bd08      	pop	{r3, pc}
    263a:	2000      	movs	r0, #0
    263c:	bd08      	pop	{r3, pc}

0000263e <__cxa_guard_release>:
    263e:	2301      	movs	r3, #1
    2640:	6003      	str	r3, [r0, #0]
    2642:	4770      	bx	lr

00002644 <__aeabi_drsub>:
    2644:	f081 4100 	eor.w	r1, r1, #2147483648	; 0x80000000
    2648:	e002      	b.n	2650 <__adddf3>
    264a:	bf00      	nop

0000264c <__aeabi_dsub>:
    264c:	f083 4300 	eor.w	r3, r3, #2147483648	; 0x80000000

00002650 <__adddf3>:
    2650:	b530      	push	{r4, r5, lr}
    2652:	ea4f 0441 	mov.w	r4, r1, lsl #1
    2656:	ea4f 0543 	mov.w	r5, r3, lsl #1
    265a:	ea94 0f05 	teq	r4, r5
    265e:	bf08      	it	eq
    2660:	ea90 0f02 	teqeq	r0, r2
    2664:	bf1f      	itttt	ne
    2666:	ea54 0c00 	orrsne.w	r12, r4, r0
    266a:	ea55 0c02 	orrsne.w	r12, r5, r2
    266e:	ea7f 5c64 	mvnsne.w	r12, r4, asr #21
    2672:	ea7f 5c65 	mvnsne.w	r12, r5, asr #21
    2676:	f000 80e2 	beq.w	283e <__adddf3+0x1ee>
    267a:	ea4f 5454 	mov.w	r4, r4, lsr #21
    267e:	ebd4 5555 	rsbs	r5, r4, r5, lsr #21
    2682:	bfb8      	it	lt
    2684:	426d      	neglt	r5, r5
    2686:	dd0c      	ble.n	26a2 <__adddf3+0x52>
    2688:	442c      	add	r4, r5
    268a:	ea80 0202 	eor.w	r2, r0, r2
    268e:	ea81 0303 	eor.w	r3, r1, r3
    2692:	ea82 0000 	eor.w	r0, r2, r0
    2696:	ea83 0101 	eor.w	r1, r3, r1
    269a:	ea80 0202 	eor.w	r2, r0, r2
    269e:	ea81 0303 	eor.w	r3, r1, r3
    26a2:	2d36      	cmp	r5, #54	; 0x36
    26a4:	bf88      	it	hi
    26a6:	bd30      	pophi	{r4, r5, pc}
    26a8:	f011 4f00 	tst.w	r1, #2147483648	; 0x80000000
    26ac:	ea4f 3101 	mov.w	r1, r1, lsl #12
    26b0:	f44f 1c80 	mov.w	r12, #1048576	; 0x100000
    26b4:	ea4c 3111 	orr.w	r1, r12, r1, lsr #12
    26b8:	d002      	beq.n	26c0 <__adddf3+0x70>
    26ba:	4240      	negs	r0, r0
    26bc:	eb61 0141 	sbc.w	r1, r1, r1, lsl #1
    26c0:	f013 4f00 	tst.w	r3, #2147483648	; 0x80000000
    26c4:	ea4f 3303 	mov.w	r3, r3, lsl #12
    26c8:	ea4c 3313 	orr.w	r3, r12, r3, lsr #12
    26cc:	d002      	beq.n	26d4 <__adddf3+0x84>
    26ce:	4252      	negs	r2, r2
    26d0:	eb63 0343 	sbc.w	r3, r3, r3, lsl #1
    26d4:	ea94 0f05 	teq	r4, r5
    26d8:	f000 80a7 	beq.w	282a <__adddf3+0x1da>
    26dc:	f1a4 0401 	sub.w	r4, r4, #1
    26e0:	f1d5 0e20 	rsbs	lr, r5, #32
    26e4:	db0d      	blt.n	2702 <__adddf3+0xb2>
    26e6:	fa02 fc0e 	lsl.w	r12, r2, lr
    26ea:	fa22 f205 	lsr.w	r2, r2, r5
    26ee:	1880      	adds	r0, r0, r2
    26f0:	f141 0100 	adc.w	r1, r1, #0
    26f4:	fa03 f20e 	lsl.w	r2, r3, lr
    26f8:	1880      	adds	r0, r0, r2
    26fa:	fa43 f305 	asr.w	r3, r3, r5
    26fe:	4159      	adcs	r1, r3
    2700:	e00e      	b.n	2720 <__adddf3+0xd0>
    2702:	f1a5 0520 	sub.w	r5, r5, #32
    2706:	f10e 0e20 	add.w	lr, lr, #32
    270a:	2a01      	cmp	r2, #1
    270c:	fa03 fc0e 	lsl.w	r12, r3, lr
    2710:	bf28      	it	cs
    2712:	f04c 0c02 	orrcs.w	r12, r12, #2
    2716:	fa43 f305 	asr.w	r3, r3, r5
    271a:	18c0      	adds	r0, r0, r3
    271c:	eb51 71e3 	adcs.w	r1, r1, r3, asr #31
    2720:	f001 4500 	and.w	r5, r1, #2147483648	; 0x80000000
    2724:	d507      	bpl.n	2736 <__adddf3+0xe6>
    2726:	f04f 0e00 	mov.w	lr, #0
    272a:	f1dc 0c00 	rsbs	r12, r12, #0
    272e:	eb7e 0000 	sbcs.w	r0, lr, r0
    2732:	eb6e 0101 	sbc.w	r1, lr, r1
    2736:	f5b1 1f80 	cmp.w	r1, #1048576	; 0x100000
    273a:	d31b      	bcc.n	2774 <__adddf3+0x124>
    273c:	f5b1 1f00 	cmp.w	r1, #2097152	; 0x200000
    2740:	d30c      	bcc.n	275c <__adddf3+0x10c>
    2742:	0849      	lsrs	r1, r1, #1
    2744:	ea5f 0030 	movs.w	r0, r0, rrx
    2748:	ea4f 0c3c 	mov.w	r12, r12, rrx
    274c:	f104 0401 	add.w	r4, r4, #1
    2750:	ea4f 5244 	mov.w	r2, r4, lsl #21
    2754:	f512 0f80 	cmn.w	r2, #4194304	; 0x400000
    2758:	f080 809a 	bcs.w	2890 <__adddf3+0x240>
    275c:	f1bc 4f00 	cmp.w	r12, #2147483648	; 0x80000000
    2760:	bf08      	it	eq
    2762:	ea5f 0c50 	movseq.w	r12, r0, lsr #1
    2766:	f150 0000 	adcs.w	r0, r0, #0
    276a:	eb41 5104 	adc.w	r1, r1, r4, lsl #20
    276e:	ea41 0105 	orr.w	r1, r1, r5
    2772:	bd30      	pop	{r4, r5, pc}
    2774:	ea5f 0c4c 	movs.w	r12, r12, lsl #1
    2778:	4140      	adcs	r0, r0
    277a:	eb41 0101 	adc.w	r1, r1, r1
    277e:	f411 1f80 	tst.w	r1, #1048576	; 0x100000
    2782:	f1a4 0401 	sub.w	r4, r4, #1
    2786:	d1e9      	bne.n	275c <__adddf3+0x10c>
    2788:	f091 0f00 	teq	r1, #0
    278c:	bf04      	itt	eq
    278e:	4601      	moveq	r1, r0
    2790:	2000      	moveq	r0, #0
    2792:	fab1 f381 	clz	r3, r1
    2796:	bf08      	it	eq
    2798:	3320      	addeq	r3, #32
    279a:	f1a3 030b 	sub.w	r3, r3, #11
    279e:	f1b3 0220 	subs.w	r2, r3, #32
    27a2:	da0c      	bge.n	27be <__adddf3+0x16e>
    27a4:	320c      	adds	r2, #12
    27a6:	dd08      	ble.n	27ba <__adddf3+0x16a>
    27a8:	f102 0c14 	add.w	r12, r2, #20
    27ac:	f1c2 020c 	rsb	r2, r2, #12
    27b0:	fa01 f00c 	lsl.w	r0, r1, r12
    27b4:	fa21 f102 	lsr.w	r1, r1, r2
    27b8:	e00c      	b.n	27d4 <__adddf3+0x184>
    27ba:	f102 0214 	add.w	r2, r2, #20
    27be:	bfd8      	it	le
    27c0:	f1c2 0c20 	rsble	r12, r2, #32
    27c4:	fa01 f102 	lsl.w	r1, r1, r2
    27c8:	fa20 fc0c 	lsr.w	r12, r0, r12
    27cc:	bfdc      	itt	le
    27ce:	ea41 010c 	orrle.w	r1, r1, r12
    27d2:	4090      	lslle	r0, r2
    27d4:	1ae4      	subs	r4, r4, r3
    27d6:	bfa2      	ittt	ge
    27d8:	eb01 5104 	addge.w	r1, r1, r4, lsl #20
    27dc:	4329      	orrge	r1, r5
    27de:	bd30      	popge	{r4, r5, pc}
    27e0:	ea6f 0404 	mvn.w	r4, r4
    27e4:	3c1f      	subs	r4, #31
    27e6:	da1c      	bge.n	2822 <__adddf3+0x1d2>
    27e8:	340c      	adds	r4, #12
    27ea:	dc0e      	bgt.n	280a <__adddf3+0x1ba>
    27ec:	f104 0414 	add.w	r4, r4, #20
    27f0:	f1c4 0220 	rsb	r2, r4, #32
    27f4:	fa20 f004 	lsr.w	r0, r0, r4
    27f8:	fa01 f302 	lsl.w	r3, r1, r2
    27fc:	ea40 0003 	orr.w	r0, r0, r3
    2800:	fa21 f304 	lsr.w	r3, r1, r4
    2804:	ea45 0103 	orr.w	r1, r5, r3
    2808:	bd30      	pop	{r4, r5, pc}
    280a:	f1c4 040c 	rsb	r4, r4, #12
    280e:	f1c4 0220 	rsb	r2, r4, #32
    2812:	fa20 f002 	lsr.w	r0, r0, r2
    2816:	fa01 f304 	lsl.w	r3, r1, r4
    281a:	ea40 0003 	orr.w	r0, r0, r3
    281e:	4629      	mov	r1, r5
    2820:	bd30      	pop	{r4, r5, pc}
    2822:	fa21 f004 	lsr.w	r0, r1, r4
    2826:	4629      	mov	r1, r5
    2828:	bd30      	pop	{r4, r5, pc}
    282a:	f094 0f00 	teq	r4, #0
    282e:	f483 1380 	eor.w	r3, r3, #1048576	; 0x100000
    2832:	bf06      	itte	eq
    2834:	f481 1180 	eoreq.w	r1, r1, #1048576	; 0x100000
    2838:	3401      	addeq	r4, #1
    283a:	3d01      	subne	r5, #1
    283c:	e74e      	b.n	26dc <__adddf3+0x8c>
    283e:	ea7f 5c64 	mvns.w	r12, r4, asr #21
    2842:	bf18      	it	ne
    2844:	ea7f 5c65 	mvnsne.w	r12, r5, asr #21
    2848:	d029      	beq.n	289e <__adddf3+0x24e>
    284a:	ea94 0f05 	teq	r4, r5
    284e:	bf08      	it	eq
    2850:	ea90 0f02 	teqeq	r0, r2
    2854:	d005      	beq.n	2862 <__adddf3+0x212>
    2856:	ea54 0c00 	orrs.w	r12, r4, r0
    285a:	bf04      	itt	eq
    285c:	4619      	moveq	r1, r3
    285e:	4610      	moveq	r0, r2
    2860:	bd30      	pop	{r4, r5, pc}
    2862:	ea91 0f03 	teq	r1, r3
    2866:	bf1e      	ittt	ne
    2868:	2100      	movne	r1, #0
    286a:	2000      	movne	r0, #0
    286c:	bd30      	popne	{r4, r5, pc}
    286e:	ea5f 5c54 	movs.w	r12, r4, lsr #21
    2872:	d105      	bne.n	2880 <__adddf3+0x230>
    2874:	0040      	lsls	r0, r0, #1
    2876:	4149      	adcs	r1, r1
    2878:	bf28      	it	cs
    287a:	f041 4100 	orrcs.w	r1, r1, #2147483648	; 0x80000000
    287e:	bd30      	pop	{r4, r5, pc}
    2880:	f514 0480 	adds.w	r4, r4, #4194304	; 0x400000
    2884:	bf3c      	itt	cc
    2886:	f501 1180 	addcc.w	r1, r1, #1048576	; 0x100000
    288a:	bd30      	popcc	{r4, r5, pc}
    288c:	f001 4500 	and.w	r5, r1, #2147483648	; 0x80000000
    2890:	f045 41fe 	orr.w	r1, r5, #2130706432	; 0x7f000000
    2894:	f441 0170 	orr.w	r1, r1, #15728640	; 0xf00000
    2898:	f04f 0000 	mov.w	r0, #0
    289c:	bd30      	pop	{r4, r5, pc}
    289e:	ea7f 5c64 	mvns.w	r12, r4, asr #21
    28a2:	bf1a      	itte	ne
    28a4:	4619      	movne	r1, r3
    28a6:	4610      	movne	r0, r2
    28a8:	ea7f 5c65 	mvnseq.w	r12, r5, asr #21
    28ac:	bf1c      	itt	ne
    28ae:	460b      	movne	r3, r1
    28b0:	4602      	movne	r2, r0
    28b2:	ea50 3401 	orrs.w	r4, r0, r1, lsl #12
    28b6:	bf06      	itte	eq
    28b8:	ea52 3503 	orrseq.w	r5, r2, r3, lsl #12
    28bc:	ea91 0f03 	teqeq	r1, r3
    28c0:	f441 2100 	orrne.w	r1, r1, #524288	; 0x80000
    28c4:	bd30      	pop	{r4, r5, pc}
    28c6:	bf00      	nop

000028c8 <__aeabi_ui2d>:
    28c8:	f090 0f00 	teq	r0, #0
    28cc:	bf04      	itt	eq
    28ce:	2100      	moveq	r1, #0
    28d0:	4770      	bxeq	lr
    28d2:	b530      	push	{r4, r5, lr}
    28d4:	f44f 6480 	mov.w	r4, #1024	; 0x400
    28d8:	f104 0432 	add.w	r4, r4, #50	; 0x32
    28dc:	f04f 0500 	mov.w	r5, #0
    28e0:	f04f 0100 	mov.w	r1, #0
    28e4:	e750      	b.n	2788 <__adddf3+0x138>
    28e6:	bf00      	nop

000028e8 <__aeabi_i2d>:
    28e8:	f090 0f00 	teq	r0, #0
    28ec:	bf04      	itt	eq
    28ee:	2100      	moveq	r1, #0
    28f0:	4770      	bxeq	lr
    28f2:	b530      	push	{r4, r5, lr}
    28f4:	f44f 6480 	mov.w	r4, #1024	; 0x400
    28f8:	f104 0432 	add.w	r4, r4, #50	; 0x32
    28fc:	f010 4500 	ands.w	r5, r0, #2147483648	; 0x80000000
    2900:	bf48      	it	mi
    2902:	4240      	negmi	r0, r0
    2904:	f04f 0100 	mov.w	r1, #0
    2908:	e73e      	b.n	2788 <__adddf3+0x138>
    290a:	bf00      	nop

0000290c <__aeabi_f2d>:
    290c:	0042      	lsls	r2, r0, #1
    290e:	ea4f 01e2 	mov.w	r1, r2, asr #3
    2912:	ea4f 0131 	mov.w	r1, r1, rrx
    2916:	ea4f 7002 	mov.w	r0, r2, lsl #28
    291a:	bf1f      	itttt	ne
    291c:	f012 437f 	andsne.w	r3, r2, #4278190080	; 0xff000000
    2920:	f093 4f7f 	teqne	r3, #4278190080	; 0xff000000
    2924:	f081 5160 	eorne.w	r1, r1, #939524096	; 0x38000000
    2928:	4770      	bxne	lr
    292a:	f092 0f00 	teq	r2, #0
    292e:	bf14      	ite	ne
    2930:	f093 4f7f 	teqne	r3, #4278190080	; 0xff000000
    2934:	4770      	bxeq	lr
    2936:	b530      	push	{r4, r5, lr}
    2938:	f44f 7460 	mov.w	r4, #896	; 0x380
    293c:	f001 4500 	and.w	r5, r1, #2147483648	; 0x80000000
    2940:	f021 4100 	bic.w	r1, r1, #2147483648	; 0x80000000
    2944:	e720      	b.n	2788 <__adddf3+0x138>
    2946:	bf00      	nop

00002948 <__aeabi_ul2d>:
    2948:	ea50 0201 	orrs.w	r2, r0, r1
    294c:	bf08      	it	eq
    294e:	4770      	bxeq	lr
    2950:	b530      	push	{r4, r5, lr}
    2952:	f04f 0500 	mov.w	r5, #0
    2956:	e00a      	b.n	296e <__aeabi_l2d+0x16>

00002958 <__aeabi_l2d>:
    2958:	ea50 0201 	orrs.w	r2, r0, r1
    295c:	bf08      	it	eq
    295e:	4770      	bxeq	lr
    2960:	b530      	push	{r4, r5, lr}
    2962:	f011 4500 	ands.w	r5, r1, #2147483648	; 0x80000000
    2966:	d502      	bpl.n	296e <__aeabi_l2d+0x16>
    2968:	4240      	negs	r0, r0
    296a:	eb61 0141 	sbc.w	r1, r1, r1, lsl #1
    296e:	f44f 6480 	mov.w	r4, #1024	; 0x400
    2972:	f104 0432 	add.w	r4, r4, #50	; 0x32
    2976:	ea5f 5c91 	movs.w	r12, r1, lsr #22
    297a:	f43f aedc 	beq.w	2736 <__adddf3+0xe6>
    297e:	f04f 0203 	mov.w	r2, #3
    2982:	ea5f 0cdc 	movs.w	r12, r12, lsr #3
    2986:	bf18      	it	ne
    2988:	3203      	addne	r2, #3
    298a:	ea5f 0cdc 	movs.w	r12, r12, lsr #3
    298e:	bf18      	it	ne
    2990:	3203      	addne	r2, #3
    2992:	eb02 02dc 	add.w	r2, r2, r12, lsr #3
    2996:	f1c2 0320 	rsb	r3, r2, #32
    299a:	fa00 fc03 	lsl.w	r12, r0, r3
    299e:	fa20 f002 	lsr.w	r0, r0, r2
    29a2:	fa01 fe03 	lsl.w	lr, r1, r3
    29a6:	ea40 000e 	orr.w	r0, r0, lr
    29aa:	fa21 f102 	lsr.w	r1, r1, r2
    29ae:	4414      	add	r4, r2
    29b0:	e6c1      	b.n	2736 <__adddf3+0xe6>
    29b2:	bf00      	nop

000029b4 <__aeabi_dmul>:
    29b4:	b570      	push	{r4, r5, r6, lr}
    29b6:	f04f 0cff 	mov.w	r12, #255	; 0xff
    29ba:	f44c 6ce0 	orr.w	r12, r12, #1792	; 0x700
    29be:	ea1c 5411 	ands.w	r4, r12, r1, lsr #20
    29c2:	bf1d      	ittte	ne
    29c4:	ea1c 5513 	andsne.w	r5, r12, r3, lsr #20
    29c8:	ea94 0f0c 	teqne	r4, r12
    29cc:	ea95 0f0c 	teqne	r5, r12
    29d0:	f000 f8de 	bleq	2b90 <__aeabi_dmul+0x1dc>
    29d4:	442c      	add	r4, r5
    29d6:	ea81 0603 	eor.w	r6, r1, r3
    29da:	ea21 514c 	bic.w	r1, r1, r12, lsl #21
    29de:	ea23 534c 	bic.w	r3, r3, r12, lsl #21
    29e2:	ea50 3501 	orrs.w	r5, r0, r1, lsl #12
    29e6:	bf18      	it	ne
    29e8:	ea52 3503 	orrsne.w	r5, r2, r3, lsl #12
    29ec:	f441 1180 	orr.w	r1, r1, #1048576	; 0x100000
    29f0:	f443 1380 	orr.w	r3, r3, #1048576	; 0x100000
    29f4:	d038      	beq.n	2a68 <__aeabi_dmul+0xb4>
    29f6:	fba0 ce02 	umull	r12, lr, r0, r2
    29fa:	f04f 0500 	mov.w	r5, #0
    29fe:	fbe1 e502 	umlal	lr, r5, r1, r2
    2a02:	f006 4200 	and.w	r2, r6, #2147483648	; 0x80000000
    2a06:	fbe0 e503 	umlal	lr, r5, r0, r3
    2a0a:	f04f 0600 	mov.w	r6, #0
    2a0e:	fbe1 5603 	umlal	r5, r6, r1, r3
    2a12:	f09c 0f00 	teq	r12, #0
    2a16:	bf18      	it	ne
    2a18:	f04e 0e01 	orrne.w	lr, lr, #1
    2a1c:	f1a4 04ff 	sub.w	r4, r4, #255	; 0xff
    2a20:	f5b6 7f00 	cmp.w	r6, #512	; 0x200
    2a24:	f564 7440 	sbc.w	r4, r4, #768	; 0x300
    2a28:	d204      	bcs.n	2a34 <__aeabi_dmul+0x80>
    2a2a:	ea5f 0e4e 	movs.w	lr, lr, lsl #1
    2a2e:	416d      	adcs	r5, r5
    2a30:	eb46 0606 	adc.w	r6, r6, r6
    2a34:	ea42 21c6 	orr.w	r1, r2, r6, lsl #11
    2a38:	ea41 5155 	orr.w	r1, r1, r5, lsr #21
    2a3c:	ea4f 20c5 	mov.w	r0, r5, lsl #11
    2a40:	ea40 505e 	orr.w	r0, r0, lr, lsr #21
    2a44:	ea4f 2ece 	mov.w	lr, lr, lsl #11
    2a48:	f1b4 0cfd 	subs.w	r12, r4, #253	; 0xfd
    2a4c:	bf88      	it	hi
    2a4e:	f5bc 6fe0 	cmphi.w	r12, #1792	; 0x700
    2a52:	d81e      	bhi.n	2a92 <__aeabi_dmul+0xde>
    2a54:	f1be 4f00 	cmp.w	lr, #2147483648	; 0x80000000
    2a58:	bf08      	it	eq
    2a5a:	ea5f 0e50 	movseq.w	lr, r0, lsr #1
    2a5e:	f150 0000 	adcs.w	r0, r0, #0
    2a62:	eb41 5104 	adc.w	r1, r1, r4, lsl #20
    2a66:	bd70      	pop	{r4, r5, r6, pc}
    2a68:	f006 4600 	and.w	r6, r6, #2147483648	; 0x80000000
    2a6c:	ea46 0101 	orr.w	r1, r6, r1
    2a70:	ea40 0002 	orr.w	r0, r0, r2
    2a74:	ea81 0103 	eor.w	r1, r1, r3
    2a78:	ebb4 045c 	subs.w	r4, r4, r12, lsr #1
    2a7c:	bfc2      	ittt	gt
    2a7e:	ebd4 050c 	rsbsgt	r5, r4, r12
    2a82:	ea41 5104 	orrgt.w	r1, r1, r4, lsl #20
    2a86:	bd70      	popgt	{r4, r5, r6, pc}
    2a88:	f441 1180 	orr.w	r1, r1, #1048576	; 0x100000
    2a8c:	f04f 0e00 	mov.w	lr, #0
    2a90:	3c01      	subs	r4, #1
    2a92:	f300 80ab 	bgt.w	2bec <__aeabi_dmul+0x238>
    2a96:	f114 0f36 	cmn.w	r4, #54	; 0x36
    2a9a:	bfde      	ittt	le
    2a9c:	2000      	movle	r0, #0
    2a9e:	f001 4100 	andle.w	r1, r1, #2147483648	; 0x80000000
    2aa2:	bd70      	pople	{r4, r5, r6, pc}
    2aa4:	f1c4 0400 	rsb	r4, r4, #0
    2aa8:	3c20      	subs	r4, #32
    2aaa:	da35      	bge.n	2b18 <__aeabi_dmul+0x164>
    2aac:	340c      	adds	r4, #12
    2aae:	dc1b      	bgt.n	2ae8 <__aeabi_dmul+0x134>
    2ab0:	f104 0414 	add.w	r4, r4, #20
    2ab4:	f1c4 0520 	rsb	r5, r4, #32
    2ab8:	fa00 f305 	lsl.w	r3, r0, r5
    2abc:	fa20 f004 	lsr.w	r0, r0, r4
    2ac0:	fa01 f205 	lsl.w	r2, r1, r5
    2ac4:	ea40 0002 	orr.w	r0, r0, r2
    2ac8:	f001 4200 	and.w	r2, r1, #2147483648	; 0x80000000
    2acc:	f021 4100 	bic.w	r1, r1, #2147483648	; 0x80000000
    2ad0:	eb10 70d3 	adds.w	r0, r0, r3, lsr #31
    2ad4:	fa21 f604 	lsr.w	r6, r1, r4
    2ad8:	eb42 0106 	adc.w	r1, r2, r6
    2adc:	ea5e 0e43 	orrs.w	lr, lr, r3, lsl #1
    2ae0:	bf08      	it	eq
    2ae2:	ea20 70d3 	biceq.w	r0, r0, r3, lsr #31
    2ae6:	bd70      	pop	{r4, r5, r6, pc}
    2ae8:	f1c4 040c 	rsb	r4, r4, #12
    2aec:	f1c4 0520 	rsb	r5, r4, #32
    2af0:	fa00 f304 	lsl.w	r3, r0, r4
    2af4:	fa20 f005 	lsr.w	r0, r0, r5
    2af8:	fa01 f204 	lsl.w	r2, r1, r4
    2afc:	ea40 0002 	orr.w	r0, r0, r2
    2b00:	f001 4100 	and.w	r1, r1, #2147483648	; 0x80000000
    2b04:	eb10 70d3 	adds.w	r0, r0, r3, lsr #31
    2b08:	f141 0100 	adc.w	r1, r1, #0
    2b0c:	ea5e 0e43 	orrs.w	lr, lr, r3, lsl #1
    2b10:	bf08      	it	eq
    2b12:	ea20 70d3 	biceq.w	r0, r0, r3, lsr #31
    2b16:	bd70      	pop	{r4, r5, r6, pc}
    2b18:	f1c4 0520 	rsb	r5, r4, #32
    2b1c:	fa00 f205 	lsl.w	r2, r0, r5
    2b20:	ea4e 0e02 	orr.w	lr, lr, r2
    2b24:	fa20 f304 	lsr.w	r3, r0, r4
    2b28:	fa01 f205 	lsl.w	r2, r1, r5
    2b2c:	ea43 0302 	orr.w	r3, r3, r2
    2b30:	fa21 f004 	lsr.w	r0, r1, r4
    2b34:	f001 4100 	and.w	r1, r1, #2147483648	; 0x80000000
    2b38:	fa21 f204 	lsr.w	r2, r1, r4
    2b3c:	ea20 0002 	bic.w	r0, r0, r2
    2b40:	eb00 70d3 	add.w	r0, r0, r3, lsr #31
    2b44:	ea5e 0e43 	orrs.w	lr, lr, r3, lsl #1
    2b48:	bf08      	it	eq
    2b4a:	ea20 70d3 	biceq.w	r0, r0, r3, lsr #31
    2b4e:	bd70      	pop	{r4, r5, r6, pc}
    2b50:	f094 0f00 	teq	r4, #0
    2b54:	d10f      	bne.n	2b76 <__aeabi_dmul+0x1c2>
    2b56:	f001 4600 	and.w	r6, r1, #2147483648	; 0x80000000
    2b5a:	0040      	lsls	r0, r0, #1
    2b5c:	eb41 0101 	adc.w	r1, r1, r1
    2b60:	f411 1f80 	tst.w	r1, #1048576	; 0x100000
    2b64:	bf08      	it	eq
    2b66:	3c01      	subeq	r4, #1
    2b68:	d0f7      	beq.n	2b5a <__aeabi_dmul+0x1a6>
    2b6a:	ea41 0106 	orr.w	r1, r1, r6
    2b6e:	f095 0f00 	teq	r5, #0
    2b72:	bf18      	it	ne
    2b74:	4770      	bxne	lr
    2b76:	f003 4600 	and.w	r6, r3, #2147483648	; 0x80000000
    2b7a:	0052      	lsls	r2, r2, #1
    2b7c:	eb43 0303 	adc.w	r3, r3, r3
    2b80:	f413 1f80 	tst.w	r3, #1048576	; 0x100000
    2b84:	bf08      	it	eq
    2b86:	3d01      	subeq	r5, #1
    2b88:	d0f7      	beq.n	2b7a <__aeabi_dmul+0x1c6>
    2b8a:	ea43 0306 	orr.w	r3, r3, r6
    2b8e:	4770      	bx	lr
    2b90:	ea94 0f0c 	teq	r4, r12
    2b94:	ea0c 5513 	and.w	r5, r12, r3, lsr #20
    2b98:	bf18      	it	ne
    2b9a:	ea95 0f0c 	teqne	r5, r12
    2b9e:	d00c      	beq.n	2bba <__aeabi_dmul+0x206>
    2ba0:	ea50 0641 	orrs.w	r6, r0, r1, lsl #1
    2ba4:	bf18      	it	ne
    2ba6:	ea52 0643 	orrsne.w	r6, r2, r3, lsl #1
    2baa:	d1d1      	bne.n	2b50 <__aeabi_dmul+0x19c>
    2bac:	ea81 0103 	eor.w	r1, r1, r3
    2bb0:	f001 4100 	and.w	r1, r1, #2147483648	; 0x80000000
    2bb4:	f04f 0000 	mov.w	r0, #0
    2bb8:	bd70      	pop	{r4, r5, r6, pc}
    2bba:	ea50 0641 	orrs.w	r6, r0, r1, lsl #1
    2bbe:	bf06      	itte	eq
    2bc0:	4610      	moveq	r0, r2
    2bc2:	4619      	moveq	r1, r3
    2bc4:	ea52 0643 	orrsne.w	r6, r2, r3, lsl #1
    2bc8:	d019      	beq.n	2bfe <__aeabi_dmul+0x24a>
    2bca:	ea94 0f0c 	teq	r4, r12
    2bce:	d102      	bne.n	2bd6 <__aeabi_dmul+0x222>
    2bd0:	ea50 3601 	orrs.w	r6, r0, r1, lsl #12
    2bd4:	d113      	bne.n	2bfe <__aeabi_dmul+0x24a>
    2bd6:	ea95 0f0c 	teq	r5, r12
    2bda:	d105      	bne.n	2be8 <__aeabi_dmul+0x234>
    2bdc:	ea52 3603 	orrs.w	r6, r2, r3, lsl #12
    2be0:	bf1c      	itt	ne
    2be2:	4610      	movne	r0, r2
    2be4:	4619      	movne	r1, r3
    2be6:	d10a      	bne.n	2bfe <__aeabi_dmul+0x24a>
    2be8:	ea81 0103 	eor.w	r1, r1, r3
    2bec:	f001 4100 	and.w	r1, r1, #2147483648	; 0x80000000
    2bf0:	f041 41fe 	orr.w	r1, r1, #2130706432	; 0x7f000000
    2bf4:	f441 0170 	orr.w	r1, r1, #15728640	; 0xf00000
    2bf8:	f04f 0000 	mov.w	r0, #0
    2bfc:	bd70      	pop	{r4, r5, r6, pc}
    2bfe:	f041 41fe 	orr.w	r1, r1, #2130706432	; 0x7f000000
    2c02:	f441 0178 	orr.w	r1, r1, #16252928	; 0xf80000
    2c06:	bd70      	pop	{r4, r5, r6, pc}

00002c08 <__aeabi_ddiv>:
    2c08:	b570      	push	{r4, r5, r6, lr}
    2c0a:	f04f 0cff 	mov.w	r12, #255	; 0xff
    2c0e:	f44c 6ce0 	orr.w	r12, r12, #1792	; 0x700
    2c12:	ea1c 5411 	ands.w	r4, r12, r1, lsr #20
    2c16:	bf1d      	ittte	ne
    2c18:	ea1c 5513 	andsne.w	r5, r12, r3, lsr #20
    2c1c:	ea94 0f0c 	teqne	r4, r12
    2c20:	ea95 0f0c 	teqne	r5, r12
    2c24:	f000 f8a7 	bleq	2d76 <__aeabi_ddiv+0x16e>
    2c28:	eba4 0405 	sub.w	r4, r4, r5
    2c2c:	ea81 0e03 	eor.w	lr, r1, r3
    2c30:	ea52 3503 	orrs.w	r5, r2, r3, lsl #12
    2c34:	ea4f 3101 	mov.w	r1, r1, lsl #12
    2c38:	f000 8088 	beq.w	2d4c <__aeabi_ddiv+0x144>
    2c3c:	ea4f 3303 	mov.w	r3, r3, lsl #12
    2c40:	f04f 5580 	mov.w	r5, #268435456	; 0x10000000
    2c44:	ea45 1313 	orr.w	r3, r5, r3, lsr #4
    2c48:	ea43 6312 	orr.w	r3, r3, r2, lsr #24
    2c4c:	ea4f 2202 	mov.w	r2, r2, lsl #8
    2c50:	ea45 1511 	orr.w	r5, r5, r1, lsr #4
    2c54:	ea45 6510 	orr.w	r5, r5, r0, lsr #24
    2c58:	ea4f 2600 	mov.w	r6, r0, lsl #8
    2c5c:	f00e 4100 	and.w	r1, lr, #2147483648	; 0x80000000
    2c60:	429d      	cmp	r5, r3
    2c62:	bf08      	it	eq
    2c64:	4296      	cmpeq	r6, r2
    2c66:	f144 04fd 	adc.w	r4, r4, #253	; 0xfd
    2c6a:	f504 7440 	add.w	r4, r4, #768	; 0x300
    2c6e:	d202      	bcs.n	2c76 <__aeabi_ddiv+0x6e>
    2c70:	085b      	lsrs	r3, r3, #1
    2c72:	ea4f 0232 	mov.w	r2, r2, rrx
    2c76:	1ab6      	subs	r6, r6, r2
    2c78:	eb65 0503 	sbc.w	r5, r5, r3
    2c7c:	085b      	lsrs	r3, r3, #1
    2c7e:	ea4f 0232 	mov.w	r2, r2, rrx
    2c82:	f44f 1080 	mov.w	r0, #1048576	; 0x100000
    2c86:	f44f 2c00 	mov.w	r12, #524288	; 0x80000
    2c8a:	ebb6 0e02 	subs.w	lr, r6, r2
    2c8e:	eb75 0e03 	sbcs.w	lr, r5, r3
    2c92:	bf22      	ittt	cs
    2c94:	1ab6      	subcs	r6, r6, r2
    2c96:	4675      	movcs	r5, lr
    2c98:	ea40 000c 	orrcs.w	r0, r0, r12
    2c9c:	085b      	lsrs	r3, r3, #1
    2c9e:	ea4f 0232 	mov.w	r2, r2, rrx
    2ca2:	ebb6 0e02 	subs.w	lr, r6, r2
    2ca6:	eb75 0e03 	sbcs.w	lr, r5, r3
    2caa:	bf22      	ittt	cs
    2cac:	1ab6      	subcs	r6, r6, r2
    2cae:	4675      	movcs	r5, lr
    2cb0:	ea40 005c 	orrcs.w	r0, r0, r12, lsr #1
    2cb4:	085b      	lsrs	r3, r3, #1
    2cb6:	ea4f 0232 	mov.w	r2, r2, rrx
    2cba:	ebb6 0e02 	subs.w	lr, r6, r2
    2cbe:	eb75 0e03 	sbcs.w	lr, r5, r3
    2cc2:	bf22      	ittt	cs
    2cc4:	1ab6      	subcs	r6, r6, r2
    2cc6:	4675      	movcs	r5, lr
    2cc8:	ea40 009c 	orrcs.w	r0, r0, r12, lsr #2
    2ccc:	085b      	lsrs	r3, r3, #1
    2cce:	ea4f 0232 	mov.w	r2, r2, rrx
    2cd2:	ebb6 0e02 	subs.w	lr, r6, r2
    2cd6:	eb75 0e03 	sbcs.w	lr, r5, r3
    2cda:	bf22      	ittt	cs
    2cdc:	1ab6      	subcs	r6, r6, r2
    2cde:	4675      	movcs	r5, lr
    2ce0:	ea40 00dc 	orrcs.w	r0, r0, r12, lsr #3
    2ce4:	ea55 0e06 	orrs.w	lr, r5, r6
    2ce8:	d018      	beq.n	2d1c <__aeabi_ddiv+0x114>
    2cea:	ea4f 1505 	mov.w	r5, r5, lsl #4
    2cee:	ea45 7516 	orr.w	r5, r5, r6, lsr #28
    2cf2:	ea4f 1606 	mov.w	r6, r6, lsl #4
    2cf6:	ea4f 03c3 	mov.w	r3, r3, lsl #3
    2cfa:	ea43 7352 	orr.w	r3, r3, r2, lsr #29
    2cfe:	ea4f 02c2 	mov.w	r2, r2, lsl #3
    2d02:	ea5f 1c1c 	movs.w	r12, r12, lsr #4
    2d06:	d1c0      	bne.n	2c8a <__aeabi_ddiv+0x82>
    2d08:	f411 1f80 	tst.w	r1, #1048576	; 0x100000
    2d0c:	d10b      	bne.n	2d26 <__aeabi_ddiv+0x11e>
    2d0e:	ea41 0100 	orr.w	r1, r1, r0
    2d12:	f04f 0000 	mov.w	r0, #0
    2d16:	f04f 4c00 	mov.w	r12, #2147483648	; 0x80000000
    2d1a:	e7b6      	b.n	2c8a <__aeabi_ddiv+0x82>
    2d1c:	f411 1f80 	tst.w	r1, #1048576	; 0x100000
    2d20:	bf04      	itt	eq
    2d22:	4301      	orreq	r1, r0
    2d24:	2000      	moveq	r0, #0
    2d26:	f1b4 0cfd 	subs.w	r12, r4, #253	; 0xfd
    2d2a:	bf88      	it	hi
    2d2c:	f5bc 6fe0 	cmphi.w	r12, #1792	; 0x700
    2d30:	f63f aeaf 	bhi.w	2a92 <__aeabi_dmul+0xde>
    2d34:	ebb5 0c03 	subs.w	r12, r5, r3
    2d38:	bf04      	itt	eq
    2d3a:	ebb6 0c02 	subseq.w	r12, r6, r2
    2d3e:	ea5f 0c50 	movseq.w	r12, r0, lsr #1
    2d42:	f150 0000 	adcs.w	r0, r0, #0
    2d46:	eb41 5104 	adc.w	r1, r1, r4, lsl #20
    2d4a:	bd70      	pop	{r4, r5, r6, pc}
    2d4c:	f00e 4e00 	and.w	lr, lr, #2147483648	; 0x80000000
    2d50:	ea4e 3111 	orr.w	r1, lr, r1, lsr #12
    2d54:	eb14 045c 	adds.w	r4, r4, r12, lsr #1
    2d58:	bfc2      	ittt	gt
    2d5a:	ebd4 050c 	rsbsgt	r5, r4, r12
    2d5e:	ea41 5104 	orrgt.w	r1, r1, r4, lsl #20
    2d62:	bd70      	popgt	{r4, r5, r6, pc}
    2d64:	f441 1180 	orr.w	r1, r1, #1048576	; 0x100000
    2d68:	f04f 0e00 	mov.w	lr, #0
    2d6c:	3c01      	subs	r4, #1
    2d6e:	e690      	b.n	2a92 <__aeabi_dmul+0xde>
    2d70:	ea45 0e06 	orr.w	lr, r5, r6
    2d74:	e68d      	b.n	2a92 <__aeabi_dmul+0xde>
    2d76:	ea0c 5513 	and.w	r5, r12, r3, lsr #20
    2d7a:	ea94 0f0c 	teq	r4, r12
    2d7e:	bf08      	it	eq
    2d80:	ea95 0f0c 	teqeq	r5, r12
    2d84:	f43f af3b 	beq.w	2bfe <__aeabi_dmul+0x24a>
    2d88:	ea94 0f0c 	teq	r4, r12
    2d8c:	d10a      	bne.n	2da4 <__aeabi_ddiv+0x19c>
    2d8e:	ea50 3401 	orrs.w	r4, r0, r1, lsl #12
    2d92:	f47f af34 	bne.w	2bfe <__aeabi_dmul+0x24a>
    2d96:	ea95 0f0c 	teq	r5, r12
    2d9a:	f47f af25 	bne.w	2be8 <__aeabi_dmul+0x234>
    2d9e:	4610      	mov	r0, r2
    2da0:	4619      	mov	r1, r3
    2da2:	e72c      	b.n	2bfe <__aeabi_dmul+0x24a>
    2da4:	ea95 0f0c 	teq	r5, r12
    2da8:	d106      	bne.n	2db8 <__aeabi_ddiv+0x1b0>
    2daa:	ea52 3503 	orrs.w	r5, r2, r3, lsl #12
    2dae:	f43f aefd 	beq.w	2bac <__aeabi_dmul+0x1f8>
    2db2:	4610      	mov	r0, r2
    2db4:	4619      	mov	r1, r3
    2db6:	e722      	b.n	2bfe <__aeabi_dmul+0x24a>
    2db8:	ea50 0641 	orrs.w	r6, r0, r1, lsl #1
    2dbc:	bf18      	it	ne
    2dbe:	ea52 0643 	orrsne.w	r6, r2, r3, lsl #1
    2dc2:	f47f aec5 	bne.w	2b50 <__aeabi_dmul+0x19c>
    2dc6:	ea50 0441 	orrs.w	r4, r0, r1, lsl #1
    2dca:	f47f af0d 	bne.w	2be8 <__aeabi_dmul+0x234>
    2dce:	ea52 0543 	orrs.w	r5, r2, r3, lsl #1
    2dd2:	f47f aeeb 	bne.w	2bac <__aeabi_dmul+0x1f8>
    2dd6:	e712      	b.n	2bfe <__aeabi_dmul+0x24a>

00002dd8 <__aeabi_d2iz>:
    2dd8:	ea4f 0241 	mov.w	r2, r1, lsl #1
    2ddc:	f512 1200 	adds.w	r2, r2, #2097152	; 0x200000
    2de0:	d215      	bcs.n	2e0e <__aeabi_d2iz+0x36>
    2de2:	d511      	bpl.n	2e08 <__aeabi_d2iz+0x30>
    2de4:	f46f 7378 	mvn.w	r3, #992	; 0x3e0
    2de8:	ebb3 5262 	subs.w	r2, r3, r2, asr #21
    2dec:	d912      	bls.n	2e14 <__aeabi_d2iz+0x3c>
    2dee:	ea4f 23c1 	mov.w	r3, r1, lsl #11
    2df2:	f043 4300 	orr.w	r3, r3, #2147483648	; 0x80000000
    2df6:	ea43 5350 	orr.w	r3, r3, r0, lsr #21
    2dfa:	f011 4f00 	tst.w	r1, #2147483648	; 0x80000000
    2dfe:	fa23 f002 	lsr.w	r0, r3, r2
    2e02:	bf18      	it	ne
    2e04:	4240      	negne	r0, r0
    2e06:	4770      	bx	lr
    2e08:	f04f 0000 	mov.w	r0, #0
    2e0c:	4770      	bx	lr
    2e0e:	ea50 3001 	orrs.w	r0, r0, r1, lsl #12
    2e12:	d105      	bne.n	2e20 <__aeabi_d2iz+0x48>
    2e14:	f011 4000 	ands.w	r0, r1, #2147483648	; 0x80000000
    2e18:	bf08      	it	eq
    2e1a:	f06f 4000 	mvneq.w	r0, #2147483648	; 0x80000000
    2e1e:	4770      	bx	lr
    2e20:	f04f 0000 	mov.w	r0, #0
    2e24:	4770      	bx	lr
    2e26:	bf00      	nop

00002e28 <__aeabi_fmul>:
    2e28:	f04f 0cff 	mov.w	r12, #255	; 0xff
    2e2c:	ea1c 52d0 	ands.w	r2, r12, r0, lsr #23
    2e30:	bf1e      	ittt	ne
    2e32:	ea1c 53d1 	andsne.w	r3, r12, r1, lsr #23
    2e36:	ea92 0f0c 	teqne	r2, r12
    2e3a:	ea93 0f0c 	teqne	r3, r12
    2e3e:	d06f      	beq.n	2f20 <__aeabi_fmul+0xf8>
    2e40:	441a      	add	r2, r3
    2e42:	ea80 0c01 	eor.w	r12, r0, r1
    2e46:	0240      	lsls	r0, r0, #9
    2e48:	bf18      	it	ne
    2e4a:	ea5f 2141 	movsne.w	r1, r1, lsl #9
    2e4e:	d01e      	beq.n	2e8e <__aeabi_fmul+0x66>
    2e50:	f04f 6300 	mov.w	r3, #134217728	; 0x8000000
    2e54:	ea43 1050 	orr.w	r0, r3, r0, lsr #5
    2e58:	ea43 1151 	orr.w	r1, r3, r1, lsr #5
    2e5c:	fba0 3101 	umull	r3, r1, r0, r1
    2e60:	f00c 4000 	and.w	r0, r12, #2147483648	; 0x80000000
    2e64:	f5b1 0f00 	cmp.w	r1, #8388608	; 0x800000
    2e68:	bf3e      	ittt	cc
    2e6a:	0049      	lslcc	r1, r1, #1
    2e6c:	ea41 71d3 	orrcc.w	r1, r1, r3, lsr #31
    2e70:	005b      	lslcc	r3, r3, #1
    2e72:	ea40 0001 	orr.w	r0, r0, r1
    2e76:	f162 027f 	sbc.w	r2, r2, #127	; 0x7f
    2e7a:	2afd      	cmp	r2, #253	; 0xfd
    2e7c:	d81d      	bhi.n	2eba <__aeabi_fmul+0x92>
    2e7e:	f1b3 4f00 	cmp.w	r3, #2147483648	; 0x80000000
    2e82:	eb40 50c2 	adc.w	r0, r0, r2, lsl #23
    2e86:	bf08      	it	eq
    2e88:	f020 0001 	biceq.w	r0, r0, #1
    2e8c:	4770      	bx	lr
    2e8e:	f090 0f00 	teq	r0, #0
    2e92:	f00c 4c00 	and.w	r12, r12, #2147483648	; 0x80000000
    2e96:	bf08      	it	eq
    2e98:	0249      	lsleq	r1, r1, #9
    2e9a:	ea4c 2050 	orr.w	r0, r12, r0, lsr #9
    2e9e:	ea40 2051 	orr.w	r0, r0, r1, lsr #9
    2ea2:	3a7f      	subs	r2, #127	; 0x7f
    2ea4:	bfc2      	ittt	gt
    2ea6:	f1d2 03ff 	rsbsgt	r3, r2, #255	; 0xff
    2eaa:	ea40 50c2 	orrgt.w	r0, r0, r2, lsl #23
    2eae:	4770      	bxgt	lr
    2eb0:	f440 0000 	orr.w	r0, r0, #8388608	; 0x800000
    2eb4:	f04f 0300 	mov.w	r3, #0
    2eb8:	3a01      	subs	r2, #1
    2eba:	dc5d      	bgt.n	2f78 <__aeabi_fmul+0x150>
    2ebc:	f112 0f19 	cmn.w	r2, #25
    2ec0:	bfdc      	itt	le
    2ec2:	f000 4000 	andle.w	r0, r0, #2147483648	; 0x80000000
    2ec6:	4770      	bxle	lr
    2ec8:	f1c2 0200 	rsb	r2, r2, #0
    2ecc:	0041      	lsls	r1, r0, #1
    2ece:	fa21 f102 	lsr.w	r1, r1, r2
    2ed2:	f1c2 0220 	rsb	r2, r2, #32
    2ed6:	fa00 fc02 	lsl.w	r12, r0, r2
    2eda:	ea5f 0031 	movs.w	r0, r1, rrx
    2ede:	f140 0000 	adc.w	r0, r0, #0
    2ee2:	ea53 034c 	orrs.w	r3, r3, r12, lsl #1
    2ee6:	bf08      	it	eq
    2ee8:	ea20 70dc 	biceq.w	r0, r0, r12, lsr #31
    2eec:	4770      	bx	lr
    2eee:	f092 0f00 	teq	r2, #0
    2ef2:	f000 4c00 	and.w	r12, r0, #2147483648	; 0x80000000
    2ef6:	bf02      	ittt	eq
    2ef8:	0040      	lsleq	r0, r0, #1
    2efa:	f410 0f00 	tsteq.w	r0, #8388608	; 0x800000
    2efe:	3a01      	subeq	r2, #1
    2f00:	d0f9      	beq.n	2ef6 <__aeabi_fmul+0xce>
    2f02:	ea40 000c 	orr.w	r0, r0, r12
    2f06:	f093 0f00 	teq	r3, #0
    2f0a:	f001 4c00 	and.w	r12, r1, #2147483648	; 0x80000000
    2f0e:	bf02      	ittt	eq
    2f10:	0049      	lsleq	r1, r1, #1
    2f12:	f411 0f00 	tsteq.w	r1, #8388608	; 0x800000
    2f16:	3b01      	subeq	r3, #1
    2f18:	d0f9      	beq.n	2f0e <__aeabi_fmul+0xe6>
    2f1a:	ea41 010c 	orr.w	r1, r1, r12
    2f1e:	e78f      	b.n	2e40 <__aeabi_fmul+0x18>
    2f20:	ea0c 53d1 	and.w	r3, r12, r1, lsr #23
    2f24:	ea92 0f0c 	teq	r2, r12
    2f28:	bf18      	it	ne
    2f2a:	ea93 0f0c 	teqne	r3, r12
    2f2e:	d00a      	beq.n	2f46 <__aeabi_fmul+0x11e>
    2f30:	f030 4c00 	bics.w	r12, r0, #2147483648	; 0x80000000
    2f34:	bf18      	it	ne
    2f36:	f031 4c00 	bicsne.w	r12, r1, #2147483648	; 0x80000000
    2f3a:	d1d8      	bne.n	2eee <__aeabi_fmul+0xc6>
    2f3c:	ea80 0001 	eor.w	r0, r0, r1
    2f40:	f000 4000 	and.w	r0, r0, #2147483648	; 0x80000000
    2f44:	4770      	bx	lr
    2f46:	f090 0f00 	teq	r0, #0
    2f4a:	bf17      	itett	ne
    2f4c:	f090 4f00 	teqne	r0, #2147483648	; 0x80000000
    2f50:	4608      	moveq	r0, r1
    2f52:	f091 0f00 	teqne	r1, #0
    2f56:	f091 4f00 	teqne	r1, #2147483648	; 0x80000000
    2f5a:	d014      	beq.n	2f86 <__aeabi_fmul+0x15e>
    2f5c:	ea92 0f0c 	teq	r2, r12
    2f60:	d101      	bne.n	2f66 <__aeabi_fmul+0x13e>
    2f62:	0242      	lsls	r2, r0, #9
    2f64:	d10f      	bne.n	2f86 <__aeabi_fmul+0x15e>
    2f66:	ea93 0f0c 	teq	r3, r12
    2f6a:	d103      	bne.n	2f74 <__aeabi_fmul+0x14c>
    2f6c:	024b      	lsls	r3, r1, #9
    2f6e:	bf18      	it	ne
    2f70:	4608      	movne	r0, r1
    2f72:	d108      	bne.n	2f86 <__aeabi_fmul+0x15e>
    2f74:	ea80 0001 	eor.w	r0, r0, r1
    2f78:	f000 4000 	and.w	r0, r0, #2147483648	; 0x80000000
    2f7c:	f040 40fe 	orr.w	r0, r0, #2130706432	; 0x7f000000
    2f80:	f440 0000 	orr.w	r0, r0, #8388608	; 0x800000
    2f84:	4770      	bx	lr
    2f86:	f040 40fe 	orr.w	r0, r0, #2130706432	; 0x7f000000
    2f8a:	f440 0040 	orr.w	r0, r0, #12582912	; 0xc00000
    2f8e:	4770      	bx	lr

00002f90 <__aeabi_fdiv>:
    2f90:	f04f 0cff 	mov.w	r12, #255	; 0xff
    2f94:	ea1c 52d0 	ands.w	r2, r12, r0, lsr #23
    2f98:	bf1e      	ittt	ne
    2f9a:	ea1c 53d1 	andsne.w	r3, r12, r1, lsr #23
    2f9e:	ea92 0f0c 	teqne	r2, r12
    2fa2:	ea93 0f0c 	teqne	r3, r12
    2fa6:	d069      	beq.n	307c <__aeabi_fdiv+0xec>
    2fa8:	eba2 0203 	sub.w	r2, r2, r3
    2fac:	ea80 0c01 	eor.w	r12, r0, r1
    2fb0:	0249      	lsls	r1, r1, #9
    2fb2:	ea4f 2040 	mov.w	r0, r0, lsl #9
    2fb6:	d037      	beq.n	3028 <__aeabi_fdiv+0x98>
    2fb8:	f04f 5380 	mov.w	r3, #268435456	; 0x10000000
    2fbc:	ea43 1111 	orr.w	r1, r3, r1, lsr #4
    2fc0:	ea43 1310 	orr.w	r3, r3, r0, lsr #4
    2fc4:	f00c 4000 	and.w	r0, r12, #2147483648	; 0x80000000
    2fc8:	428b      	cmp	r3, r1
    2fca:	bf38      	it	cc
    2fcc:	005b      	lslcc	r3, r3, #1
    2fce:	f142 027d 	adc.w	r2, r2, #125	; 0x7d
    2fd2:	f44f 0c00 	mov.w	r12, #8388608	; 0x800000
    2fd6:	428b      	cmp	r3, r1
    2fd8:	bf24      	itt	cs
    2fda:	1a5b      	subcs	r3, r3, r1
    2fdc:	ea40 000c 	orrcs.w	r0, r0, r12
    2fe0:	ebb3 0f51 	cmp.w	r3, r1, lsr #1
    2fe4:	bf24      	itt	cs
    2fe6:	eba3 0351 	subcs.w	r3, r3, r1, lsr #1
    2fea:	ea40 005c 	orrcs.w	r0, r0, r12, lsr #1
    2fee:	ebb3 0f91 	cmp.w	r3, r1, lsr #2
    2ff2:	bf24      	itt	cs
    2ff4:	eba3 0391 	subcs.w	r3, r3, r1, lsr #2
    2ff8:	ea40 009c 	orrcs.w	r0, r0, r12, lsr #2
    2ffc:	ebb3 0fd1 	cmp.w	r3, r1, lsr #3
    3000:	bf24      	itt	cs
    3002:	eba3 03d1 	subcs.w	r3, r3, r1, lsr #3
    3006:	ea40 00dc 	orrcs.w	r0, r0, r12, lsr #3
    300a:	011b      	lsls	r3, r3, #4
    300c:	bf18      	it	ne
    300e:	ea5f 1c1c 	movsne.w	r12, r12, lsr #4
    3012:	d1e0      	bne.n	2fd6 <__aeabi_fdiv+0x46>
    3014:	2afd      	cmp	r2, #253	; 0xfd
    3016:	f63f af50 	bhi.w	2eba <__aeabi_fmul+0x92>
    301a:	428b      	cmp	r3, r1
    301c:	eb40 50c2 	adc.w	r0, r0, r2, lsl #23
    3020:	bf08      	it	eq
    3022:	f020 0001 	biceq.w	r0, r0, #1
    3026:	4770      	bx	lr
    3028:	f00c 4c00 	and.w	r12, r12, #2147483648	; 0x80000000
    302c:	ea4c 2050 	orr.w	r0, r12, r0, lsr #9
    3030:	327f      	adds	r2, #127	; 0x7f
    3032:	bfc2      	ittt	gt
    3034:	f1d2 03ff 	rsbsgt	r3, r2, #255	; 0xff
    3038:	ea40 50c2 	orrgt.w	r0, r0, r2, lsl #23
    303c:	4770      	bxgt	lr
    303e:	f440 0000 	orr.w	r0, r0, #8388608	; 0x800000
    3042:	f04f 0300 	mov.w	r3, #0
    3046:	3a01      	subs	r2, #1
    3048:	e737      	b.n	2eba <__aeabi_fmul+0x92>
    304a:	f092 0f00 	teq	r2, #0
    304e:	f000 4c00 	and.w	r12, r0, #2147483648	; 0x80000000
    3052:	bf02      	ittt	eq
    3054:	0040      	lsleq	r0, r0, #1
    3056:	f410 0f00 	tsteq.w	r0, #8388608	; 0x800000
    305a:	3a01      	subeq	r2, #1
    305c:	d0f9      	beq.n	3052 <__aeabi_fdiv+0xc2>
    305e:	ea40 000c 	orr.w	r0, r0, r12
    3062:	f093 0f00 	teq	r3, #0
    3066:	f001 4c00 	and.w	r12, r1, #2147483648	; 0x80000000
    306a:	bf02      	ittt	eq
    306c:	0049      	lsleq	r1, r1, #1
    306e:	f411 0f00 	tsteq.w	r1, #8388608	; 0x800000
    3072:	3b01      	subeq	r3, #1
    3074:	d0f9      	beq.n	306a <__aeabi_fdiv+0xda>
    3076:	ea41 010c 	orr.w	r1, r1, r12
    307a:	e795      	b.n	2fa8 <__aeabi_fdiv+0x18>
    307c:	ea0c 53d1 	and.w	r3, r12, r1, lsr #23
    3080:	ea92 0f0c 	teq	r2, r12
    3084:	d108      	bne.n	3098 <__aeabi_fdiv+0x108>
    3086:	0242      	lsls	r2, r0, #9
    3088:	f47f af7d 	bne.w	2f86 <__aeabi_fmul+0x15e>
    308c:	ea93 0f0c 	teq	r3, r12
    3090:	f47f af70 	bne.w	2f74 <__aeabi_fmul+0x14c>
    3094:	4608      	mov	r0, r1
    3096:	e776      	b.n	2f86 <__aeabi_fmul+0x15e>
    3098:	ea93 0f0c 	teq	r3, r12
    309c:	d104      	bne.n	30a8 <__aeabi_fdiv+0x118>
    309e:	024b      	lsls	r3, r1, #9
    30a0:	f43f af4c 	beq.w	2f3c <__aeabi_fmul+0x114>
    30a4:	4608      	mov	r0, r1
    30a6:	e76e      	b.n	2f86 <__aeabi_fmul+0x15e>
    30a8:	f030 4c00 	bics.w	r12, r0, #2147483648	; 0x80000000
    30ac:	bf18      	it	ne
    30ae:	f031 4c00 	bicsne.w	r12, r1, #2147483648	; 0x80000000
    30b2:	d1ca      	bne.n	304a <__aeabi_fdiv+0xba>
    30b4:	f030 4200 	bics.w	r2, r0, #2147483648	; 0x80000000
    30b8:	f47f af5c 	bne.w	2f74 <__aeabi_fmul+0x14c>
    30bc:	f031 4300 	bics.w	r3, r1, #2147483648	; 0x80000000
    30c0:	f47f af3c 	bne.w	2f3c <__aeabi_fmul+0x114>
    30c4:	e75f      	b.n	2f86 <__aeabi_fmul+0x15e>
    30c6:	bf00      	nop

000030c8 <__aeabi_f2iz>:
    30c8:	ea4f 0240 	mov.w	r2, r0, lsl #1
    30cc:	f1b2 4ffe 	cmp.w	r2, #2130706432	; 0x7f000000
    30d0:	d30f      	bcc.n	30f2 <__aeabi_f2iz+0x2a>
    30d2:	f04f 039e 	mov.w	r3, #158	; 0x9e
    30d6:	ebb3 6212 	subs.w	r2, r3, r2, lsr #24
    30da:	d90d      	bls.n	30f8 <__aeabi_f2iz+0x30>
    30dc:	ea4f 2300 	mov.w	r3, r0, lsl #8
    30e0:	f043 4300 	orr.w	r3, r3, #2147483648	; 0x80000000
    30e4:	f010 4f00 	tst.w	r0, #2147483648	; 0x80000000
    30e8:	fa23 f002 	lsr.w	r0, r3, r2
    30ec:	bf18      	it	ne
    30ee:	4240      	negne	r0, r0
    30f0:	4770      	bx	lr
    30f2:	f04f 0000 	mov.w	r0, #0
    30f6:	4770      	bx	lr
    30f8:	f112 0f61 	cmn.w	r2, #97	; 0x61
    30fc:	d101      	bne.n	3102 <__aeabi_f2iz+0x3a>
    30fe:	0242      	lsls	r2, r0, #9
    3100:	d105      	bne.n	310e <__aeabi_f2iz+0x46>
    3102:	f010 4000 	ands.w	r0, r0, #2147483648	; 0x80000000
    3106:	bf08      	it	eq
    3108:	f06f 4000 	mvneq.w	r0, #2147483648	; 0x80000000
    310c:	4770      	bx	lr
    310e:	f04f 0000 	mov.w	r0, #0
    3112:	4770      	bx	lr

00003114 <__cxa_atexit>:
    3114:	b570      	push	{r4, r5, r6, lr}
    3116:	4c06      	ldr	r4, [pc, #24]	; (3130 <__cxa_atexit+0x1c>)
    3118:	4606      	mov	r6, r0
    311a:	460d      	mov	r5, r1
    311c:	4613      	mov	r3, r2
    311e:	b12c      	cbz	r4, 312c <__cxa_atexit+0x18>
    3120:	4631      	mov	r1, r6
    3122:	462a      	mov	r2, r5
    3124:	2002      	movs	r0, #2
    3126:	f3af 8000 	nop.w
    312a:	bd70      	pop	{r4, r5, r6, pc}
    312c:	4620      	mov	r0, r4
    312e:	bd70      	pop	{r4, r5, r6, pc}
    3130:	00000000 	.word	0x00000000

00003134 <__errno>:
    3134:	4b01      	ldr	r3, [pc, #4]	; (313c <__errno+0x8>)
    3136:	6818      	ldr	r0, [r3, #0]
    3138:	4770      	bx	lr
    313a:	bf00      	nop
    313c:	100002ac 	.word	0x100002ac

00003140 <__sflush_r>:
    3140:	898a      	ldrh	r2, [r1, #12]
    3142:	e92d 41f0 	stmdb	sp!, {r4, r5, r6, r7, r8, lr}
    3146:	4605      	mov	r5, r0
    3148:	0710      	lsls	r0, r2, #28
    314a:	460c      	mov	r4, r1
    314c:	d457      	bmi.n	31fe <__sflush_r+0xbe>
    314e:	684b      	ldr	r3, [r1, #4]
    3150:	2b00      	cmp	r3, #0
    3152:	dc02      	bgt.n	315a <__sflush_r+0x1a>
    3154:	6c0b      	ldr	r3, [r1, #64]	; 0x40
    3156:	2b00      	cmp	r3, #0
    3158:	dd18      	ble.n	318c <__sflush_r+0x4c>
    315a:	6ae6      	ldr	r6, [r4, #44]	; 0x2c
    315c:	b1b6      	cbz	r6, 318c <__sflush_r+0x4c>
    315e:	f402 5280 	and.w	r2, r2, #4096	; 0x1000
    3162:	2300      	movs	r3, #0
    3164:	b292      	uxth	r2, r2
    3166:	682f      	ldr	r7, [r5, #0]
    3168:	602b      	str	r3, [r5, #0]
    316a:	b10a      	cbz	r2, 3170 <__sflush_r+0x30>
    316c:	6d62      	ldr	r2, [r4, #84]	; 0x54
    316e:	e010      	b.n	3192 <__sflush_r+0x52>
    3170:	6a21      	ldr	r1, [r4, #32]
    3172:	4628      	mov	r0, r5
    3174:	2301      	movs	r3, #1
    3176:	47b0      	blx	r6
    3178:	1c41      	adds	r1, r0, #1
    317a:	4602      	mov	r2, r0
    317c:	d109      	bne.n	3192 <__sflush_r+0x52>
    317e:	682b      	ldr	r3, [r5, #0]
    3180:	b13b      	cbz	r3, 3192 <__sflush_r+0x52>
    3182:	2b1d      	cmp	r3, #29
    3184:	d001      	beq.n	318a <__sflush_r+0x4a>
    3186:	2b16      	cmp	r3, #22
    3188:	d146      	bne.n	3218 <__sflush_r+0xd8>
    318a:	602f      	str	r7, [r5, #0]
    318c:	2000      	movs	r0, #0
    318e:	e8bd 81f0 	ldmia.w	sp!, {r4, r5, r6, r7, r8, pc}
    3192:	89a3      	ldrh	r3, [r4, #12]
    3194:	075b      	lsls	r3, r3, #29
    3196:	d505      	bpl.n	31a4 <__sflush_r+0x64>
    3198:	6863      	ldr	r3, [r4, #4]
    319a:	1ad2      	subs	r2, r2, r3
    319c:	6b63      	ldr	r3, [r4, #52]	; 0x34
    319e:	b10b      	cbz	r3, 31a4 <__sflush_r+0x64>
    31a0:	6c23      	ldr	r3, [r4, #64]	; 0x40
    31a2:	1ad2      	subs	r2, r2, r3
    31a4:	6ae6      	ldr	r6, [r4, #44]	; 0x2c
    31a6:	4628      	mov	r0, r5
    31a8:	6a21      	ldr	r1, [r4, #32]
    31aa:	2300      	movs	r3, #0
    31ac:	47b0      	blx	r6
    31ae:	1c46      	adds	r6, r0, #1
    31b0:	89a2      	ldrh	r2, [r4, #12]
    31b2:	d105      	bne.n	31c0 <__sflush_r+0x80>
    31b4:	682b      	ldr	r3, [r5, #0]
    31b6:	b11b      	cbz	r3, 31c0 <__sflush_r+0x80>
    31b8:	2b1d      	cmp	r3, #29
    31ba:	d001      	beq.n	31c0 <__sflush_r+0x80>
    31bc:	2b16      	cmp	r3, #22
    31be:	d119      	bne.n	31f4 <__sflush_r+0xb4>
    31c0:	2300      	movs	r3, #0
    31c2:	6063      	str	r3, [r4, #4]
    31c4:	6923      	ldr	r3, [r4, #16]
    31c6:	04d1      	lsls	r1, r2, #19
    31c8:	6023      	str	r3, [r4, #0]
    31ca:	d504      	bpl.n	31d6 <__sflush_r+0x96>
    31cc:	1c42      	adds	r2, r0, #1
    31ce:	d101      	bne.n	31d4 <__sflush_r+0x94>
    31d0:	682b      	ldr	r3, [r5, #0]
    31d2:	b903      	cbnz	r3, 31d6 <__sflush_r+0x96>
    31d4:	6560      	str	r0, [r4, #84]	; 0x54
    31d6:	6b61      	ldr	r1, [r4, #52]	; 0x34
    31d8:	602f      	str	r7, [r5, #0]
    31da:	2900      	cmp	r1, #0
    31dc:	d0d6      	beq.n	318c <__sflush_r+0x4c>
    31de:	f104 0344 	add.w	r3, r4, #68	; 0x44
    31e2:	4299      	cmp	r1, r3
    31e4:	d002      	beq.n	31ec <__sflush_r+0xac>
    31e6:	4628      	mov	r0, r5
    31e8:	f000 f974 	bl	34d4 <_free_r>
    31ec:	2000      	movs	r0, #0
    31ee:	6360      	str	r0, [r4, #52]	; 0x34
    31f0:	e8bd 81f0 	ldmia.w	sp!, {r4, r5, r6, r7, r8, pc}
    31f4:	f042 0240 	orr.w	r2, r2, #64	; 0x40
    31f8:	81a2      	strh	r2, [r4, #12]
    31fa:	e8bd 81f0 	ldmia.w	sp!, {r4, r5, r6, r7, r8, pc}
    31fe:	690e      	ldr	r6, [r1, #16]
    3200:	2e00      	cmp	r6, #0
    3202:	d0c3      	beq.n	318c <__sflush_r+0x4c>
    3204:	680b      	ldr	r3, [r1, #0]
    3206:	600e      	str	r6, [r1, #0]
    3208:	ebc6 0803 	rsb	r8, r6, r3
    320c:	0793      	lsls	r3, r2, #30
    320e:	bf0c      	ite	eq
    3210:	694b      	ldreq	r3, [r1, #20]
    3212:	2300      	movne	r3, #0
    3214:	608b      	str	r3, [r1, #8]
    3216:	e012      	b.n	323e <__sflush_r+0xfe>
    3218:	89a3      	ldrh	r3, [r4, #12]
    321a:	f04f 30ff 	mov.w	r0, #4294967295	; 0xffffffff
    321e:	f043 0340 	orr.w	r3, r3, #64	; 0x40
    3222:	81a3      	strh	r3, [r4, #12]
    3224:	e8bd 81f0 	ldmia.w	sp!, {r4, r5, r6, r7, r8, pc}
    3228:	6aa7      	ldr	r7, [r4, #40]	; 0x28
    322a:	4628      	mov	r0, r5
    322c:	6a21      	ldr	r1, [r4, #32]
    322e:	4632      	mov	r2, r6
    3230:	4643      	mov	r3, r8
    3232:	47b8      	blx	r7
    3234:	2800      	cmp	r0, #0
    3236:	ddef      	ble.n	3218 <__sflush_r+0xd8>
    3238:	4406      	add	r6, r0
    323a:	ebc0 0808 	rsb	r8, r0, r8
    323e:	f1b8 0f00 	cmp.w	r8, #0
    3242:	dcf1      	bgt.n	3228 <__sflush_r+0xe8>
    3244:	e7a2      	b.n	318c <__sflush_r+0x4c>
	...

00003248 <_fflush_r>:
    3248:	b538      	push	{r3, r4, r5, lr}
    324a:	690b      	ldr	r3, [r1, #16]
    324c:	4605      	mov	r5, r0
    324e:	460c      	mov	r4, r1
    3250:	b1db      	cbz	r3, 328a <_fflush_r+0x42>
    3252:	b118      	cbz	r0, 325c <_fflush_r+0x14>
    3254:	6983      	ldr	r3, [r0, #24]
    3256:	b90b      	cbnz	r3, 325c <_fflush_r+0x14>
    3258:	f000 f886 	bl	3368 <__sinit>
    325c:	4b0c      	ldr	r3, [pc, #48]	; (3290 <_fflush_r+0x48>)
    325e:	429c      	cmp	r4, r3
    3260:	d101      	bne.n	3266 <_fflush_r+0x1e>
    3262:	686c      	ldr	r4, [r5, #4]
    3264:	e008      	b.n	3278 <_fflush_r+0x30>
    3266:	4b0b      	ldr	r3, [pc, #44]	; (3294 <_fflush_r+0x4c>)
    3268:	429c      	cmp	r4, r3
    326a:	d101      	bne.n	3270 <_fflush_r+0x28>
    326c:	68ac      	ldr	r4, [r5, #8]
    326e:	e003      	b.n	3278 <_fflush_r+0x30>
    3270:	4b09      	ldr	r3, [pc, #36]	; (3298 <_fflush_r+0x50>)
    3272:	429c      	cmp	r4, r3
    3274:	bf08      	it	eq
    3276:	68ec      	ldreq	r4, [r5, #12]
    3278:	f9b4 300c 	ldrsh.w	r3, [r4, #12]
    327c:	b12b      	cbz	r3, 328a <_fflush_r+0x42>
    327e:	4628      	mov	r0, r5
    3280:	4621      	mov	r1, r4
    3282:	e8bd 4038 	ldmia.w	sp!, {r3, r4, r5, lr}
    3286:	f7ff bf5b 	b.w	3140 <__sflush_r>
    328a:	2000      	movs	r0, #0
    328c:	bd38      	pop	{r3, r4, r5, pc}
    328e:	bf00      	nop
    3290:	00005828 	.word	0x00005828
    3294:	00005848 	.word	0x00005848
    3298:	00005868 	.word	0x00005868

0000329c <fflush>:
    329c:	4601      	mov	r1, r0
    329e:	b920      	cbnz	r0, 32aa <fflush+0xe>
    32a0:	4b04      	ldr	r3, [pc, #16]	; (32b4 <fflush+0x18>)
    32a2:	4905      	ldr	r1, [pc, #20]	; (32b8 <fflush+0x1c>)
    32a4:	6818      	ldr	r0, [r3, #0]
    32a6:	f000 b8c9 	b.w	343c <_fwalk_reent>
    32aa:	4b04      	ldr	r3, [pc, #16]	; (32bc <fflush+0x20>)
    32ac:	6818      	ldr	r0, [r3, #0]
    32ae:	f7ff bfcb 	b.w	3248 <_fflush_r>
    32b2:	bf00      	nop
    32b4:	0000588c 	.word	0x0000588c
    32b8:	00003249 	.word	0x00003249
    32bc:	100002ac 	.word	0x100002ac

000032c0 <_cleanup_r>:
    32c0:	b5f8      	push	{r3, r4, r5, r6, r7, lr}
    32c2:	4607      	mov	r7, r0
    32c4:	f100 0448 	add.w	r4, r0, #72	; 0x48
    32c8:	b194      	cbz	r4, 32f0 <_cleanup_r+0x30>
    32ca:	68a5      	ldr	r5, [r4, #8]
    32cc:	6866      	ldr	r6, [r4, #4]
    32ce:	3e01      	subs	r6, #1
    32d0:	d40c      	bmi.n	32ec <_cleanup_r+0x2c>
    32d2:	89ab      	ldrh	r3, [r5, #12]
    32d4:	2b01      	cmp	r3, #1
    32d6:	d907      	bls.n	32e8 <_cleanup_r+0x28>
    32d8:	f9b5 300e 	ldrsh.w	r3, [r5, #14]
    32dc:	3301      	adds	r3, #1
    32de:	d003      	beq.n	32e8 <_cleanup_r+0x28>
    32e0:	4638      	mov	r0, r7
    32e2:	4629      	mov	r1, r5
    32e4:	f7ff ffb0 	bl	3248 <_fflush_r>
    32e8:	3568      	adds	r5, #104	; 0x68
    32ea:	e7f0      	b.n	32ce <_cleanup_r+0xe>
    32ec:	6824      	ldr	r4, [r4, #0]
    32ee:	e7eb      	b.n	32c8 <_cleanup_r+0x8>
    32f0:	bdf8      	pop	{r3, r4, r5, r6, r7, pc}
	...

000032f4 <std.isra.0>:
    32f4:	2300      	movs	r3, #0
    32f6:	b510      	push	{r4, lr}
    32f8:	4604      	mov	r4, r0
    32fa:	6003      	str	r3, [r0, #0]
    32fc:	6043      	str	r3, [r0, #4]
    32fe:	6083      	str	r3, [r0, #8]
    3300:	8181      	strh	r1, [r0, #12]
    3302:	6643      	str	r3, [r0, #100]	; 0x64
    3304:	81c2      	strh	r2, [r0, #14]
    3306:	6103      	str	r3, [r0, #16]
    3308:	6143      	str	r3, [r0, #20]
    330a:	6183      	str	r3, [r0, #24]
    330c:	4619      	mov	r1, r3
    330e:	305c      	adds	r0, #92	; 0x5c
    3310:	2208      	movs	r2, #8
    3312:	f000 f8d7 	bl	34c4 <memset>
    3316:	4b05      	ldr	r3, [pc, #20]	; (332c <std.isra.0+0x38>)
    3318:	6224      	str	r4, [r4, #32]
    331a:	6263      	str	r3, [r4, #36]	; 0x24
    331c:	4b04      	ldr	r3, [pc, #16]	; (3330 <std.isra.0+0x3c>)
    331e:	62a3      	str	r3, [r4, #40]	; 0x28
    3320:	4b04      	ldr	r3, [pc, #16]	; (3334 <std.isra.0+0x40>)
    3322:	62e3      	str	r3, [r4, #44]	; 0x2c
    3324:	4b04      	ldr	r3, [pc, #16]	; (3338 <std.isra.0+0x44>)
    3326:	6323      	str	r3, [r4, #48]	; 0x30
    3328:	bd10      	pop	{r4, pc}
    332a:	bf00      	nop
    332c:	00003625 	.word	0x00003625
    3330:	00003647 	.word	0x00003647
    3334:	0000367f 	.word	0x0000367f
    3338:	000036a3 	.word	0x000036a3

0000333c <__sfmoreglue>:
    333c:	b570      	push	{r4, r5, r6, lr}
    333e:	1e4b      	subs	r3, r1, #1
    3340:	2568      	movs	r5, #104	; 0x68
    3342:	435d      	muls	r5, r3
    3344:	460e      	mov	r6, r1
    3346:	f105 0174 	add.w	r1, r5, #116	; 0x74
    334a:	f000 f907 	bl	355c <_malloc_r>
    334e:	4604      	mov	r4, r0
    3350:	b140      	cbz	r0, 3364 <__sfmoreglue+0x28>
    3352:	2100      	movs	r1, #0
    3354:	e880 0042 	stmia.w	r0, {r1, r6}
    3358:	300c      	adds	r0, #12
    335a:	60a0      	str	r0, [r4, #8]
    335c:	f105 0268 	add.w	r2, r5, #104	; 0x68
    3360:	f000 f8b0 	bl	34c4 <memset>
    3364:	4620      	mov	r0, r4
    3366:	bd70      	pop	{r4, r5, r6, pc}

00003368 <__sinit>:
    3368:	6983      	ldr	r3, [r0, #24]
    336a:	b510      	push	{r4, lr}
    336c:	4604      	mov	r4, r0
    336e:	bb33      	cbnz	r3, 33be <__sinit+0x56>
    3370:	6483      	str	r3, [r0, #72]	; 0x48
    3372:	64c3      	str	r3, [r0, #76]	; 0x4c
    3374:	6503      	str	r3, [r0, #80]	; 0x50
    3376:	4b12      	ldr	r3, [pc, #72]	; (33c0 <__sinit+0x58>)
    3378:	4a12      	ldr	r2, [pc, #72]	; (33c4 <__sinit+0x5c>)
    337a:	681b      	ldr	r3, [r3, #0]
    337c:	6282      	str	r2, [r0, #40]	; 0x28
    337e:	4298      	cmp	r0, r3
    3380:	bf04      	itt	eq
    3382:	2301      	moveq	r3, #1
    3384:	6183      	streq	r3, [r0, #24]
    3386:	f000 f81f 	bl	33c8 <__sfp>
    338a:	6060      	str	r0, [r4, #4]
    338c:	4620      	mov	r0, r4
    338e:	f000 f81b 	bl	33c8 <__sfp>
    3392:	60a0      	str	r0, [r4, #8]
    3394:	4620      	mov	r0, r4
    3396:	f000 f817 	bl	33c8 <__sfp>
    339a:	2104      	movs	r1, #4
    339c:	60e0      	str	r0, [r4, #12]
    339e:	2200      	movs	r2, #0
    33a0:	6860      	ldr	r0, [r4, #4]
    33a2:	f7ff ffa7 	bl	32f4 <std.isra.0>
    33a6:	68a0      	ldr	r0, [r4, #8]
    33a8:	2109      	movs	r1, #9
    33aa:	2201      	movs	r2, #1
    33ac:	f7ff ffa2 	bl	32f4 <std.isra.0>
    33b0:	68e0      	ldr	r0, [r4, #12]
    33b2:	2112      	movs	r1, #18
    33b4:	2202      	movs	r2, #2
    33b6:	f7ff ff9d 	bl	32f4 <std.isra.0>
    33ba:	2301      	movs	r3, #1
    33bc:	61a3      	str	r3, [r4, #24]
    33be:	bd10      	pop	{r4, pc}
    33c0:	0000588c 	.word	0x0000588c
    33c4:	000032c1 	.word	0x000032c1

000033c8 <__sfp>:
    33c8:	b5f8      	push	{r3, r4, r5, r6, r7, lr}
    33ca:	4b1b      	ldr	r3, [pc, #108]	; (3438 <__sfp+0x70>)
    33cc:	4607      	mov	r7, r0
    33ce:	681e      	ldr	r6, [r3, #0]
    33d0:	69b3      	ldr	r3, [r6, #24]
    33d2:	b913      	cbnz	r3, 33da <__sfp+0x12>
    33d4:	4630      	mov	r0, r6
    33d6:	f7ff ffc7 	bl	3368 <__sinit>
    33da:	3648      	adds	r6, #72	; 0x48
    33dc:	68b4      	ldr	r4, [r6, #8]
    33de:	6873      	ldr	r3, [r6, #4]
    33e0:	3b01      	subs	r3, #1
    33e2:	d404      	bmi.n	33ee <__sfp+0x26>
    33e4:	f9b4 500c 	ldrsh.w	r5, [r4, #12]
    33e8:	b175      	cbz	r5, 3408 <__sfp+0x40>
    33ea:	3468      	adds	r4, #104	; 0x68
    33ec:	e7f8      	b.n	33e0 <__sfp+0x18>
    33ee:	6833      	ldr	r3, [r6, #0]
    33f0:	b92b      	cbnz	r3, 33fe <__sfp+0x36>
    33f2:	4638      	mov	r0, r7
    33f4:	2104      	movs	r1, #4
    33f6:	f7ff ffa1 	bl	333c <__sfmoreglue>
    33fa:	6030      	str	r0, [r6, #0]
    33fc:	b108      	cbz	r0, 3402 <__sfp+0x3a>
    33fe:	6836      	ldr	r6, [r6, #0]
    3400:	e7ec      	b.n	33dc <__sfp+0x14>
    3402:	230c      	movs	r3, #12
    3404:	603b      	str	r3, [r7, #0]
    3406:	bdf8      	pop	{r3, r4, r5, r6, r7, pc}
    3408:	f64f 73ff 	movw	r3, #65535	; 0xffff
    340c:	81e3      	strh	r3, [r4, #14]
    340e:	2301      	movs	r3, #1
    3410:	81a3      	strh	r3, [r4, #12]
    3412:	6665      	str	r5, [r4, #100]	; 0x64
    3414:	6025      	str	r5, [r4, #0]
    3416:	60a5      	str	r5, [r4, #8]
    3418:	6065      	str	r5, [r4, #4]
    341a:	6125      	str	r5, [r4, #16]
    341c:	6165      	str	r5, [r4, #20]
    341e:	61a5      	str	r5, [r4, #24]
    3420:	f104 005c 	add.w	r0, r4, #92	; 0x5c
    3424:	4629      	mov	r1, r5
    3426:	2208      	movs	r2, #8
    3428:	f000 f84c 	bl	34c4 <memset>
    342c:	6365      	str	r5, [r4, #52]	; 0x34
    342e:	63a5      	str	r5, [r4, #56]	; 0x38
    3430:	64a5      	str	r5, [r4, #72]	; 0x48
    3432:	64e5      	str	r5, [r4, #76]	; 0x4c
    3434:	4620      	mov	r0, r4
    3436:	bdf8      	pop	{r3, r4, r5, r6, r7, pc}
    3438:	0000588c 	.word	0x0000588c

0000343c <_fwalk_reent>:
    343c:	e92d 43f8 	stmdb	sp!, {r3, r4, r5, r6, r7, r8, r9, lr}
    3440:	4680      	mov	r8, r0
    3442:	4689      	mov	r9, r1
    3444:	f100 0448 	add.w	r4, r0, #72	; 0x48
    3448:	2600      	movs	r6, #0
    344a:	b194      	cbz	r4, 3472 <_fwalk_reent+0x36>
    344c:	68a5      	ldr	r5, [r4, #8]
    344e:	6867      	ldr	r7, [r4, #4]
    3450:	3f01      	subs	r7, #1
    3452:	d40c      	bmi.n	346e <_fwalk_reent+0x32>
    3454:	89ab      	ldrh	r3, [r5, #12]
    3456:	2b01      	cmp	r3, #1
    3458:	d907      	bls.n	346a <_fwalk_reent+0x2e>
    345a:	f9b5 300e 	ldrsh.w	r3, [r5, #14]
    345e:	3301      	adds	r3, #1
    3460:	d003      	beq.n	346a <_fwalk_reent+0x2e>
    3462:	4640      	mov	r0, r8
    3464:	4629      	mov	r1, r5
    3466:	47c8      	blx	r9
    3468:	4306      	orrs	r6, r0
    346a:	3568      	adds	r5, #104	; 0x68
    346c:	e7f0      	b.n	3450 <_fwalk_reent+0x14>
    346e:	6824      	ldr	r4, [r4, #0]
    3470:	e7eb      	b.n	344a <_fwalk_reent+0xe>
    3472:	4630      	mov	r0, r6
    3474:	e8bd 83f8 	ldmia.w	sp!, {r3, r4, r5, r6, r7, r8, r9, pc}

00003478 <__libc_init_array>:
    3478:	b570      	push	{r4, r5, r6, lr}
    347a:	4b0e      	ldr	r3, [pc, #56]	; (34b4 <__libc_init_array+0x3c>)
    347c:	4d0e      	ldr	r5, [pc, #56]	; (34b8 <__libc_init_array+0x40>)
    347e:	2400      	movs	r4, #0
    3480:	1aed      	subs	r5, r5, r3
    3482:	10ad      	asrs	r5, r5, #2
    3484:	461e      	mov	r6, r3
    3486:	42ac      	cmp	r4, r5
    3488:	d004      	beq.n	3494 <__libc_init_array+0x1c>
    348a:	f856 2024 	ldr.w	r2, [r6, r4, lsl #2]
    348e:	4790      	blx	r2
    3490:	3401      	adds	r4, #1
    3492:	e7f8      	b.n	3486 <__libc_init_array+0xe>
    3494:	f001 ff6a 	bl	536c <_init>
    3498:	4d08      	ldr	r5, [pc, #32]	; (34bc <__libc_init_array+0x44>)
    349a:	4b09      	ldr	r3, [pc, #36]	; (34c0 <__libc_init_array+0x48>)
    349c:	2400      	movs	r4, #0
    349e:	1aed      	subs	r5, r5, r3
    34a0:	10ad      	asrs	r5, r5, #2
    34a2:	461e      	mov	r6, r3
    34a4:	42ac      	cmp	r4, r5
    34a6:	d004      	beq.n	34b2 <__libc_init_array+0x3a>
    34a8:	f856 2024 	ldr.w	r2, [r6, r4, lsl #2]
    34ac:	4790      	blx	r2
    34ae:	3401      	adds	r4, #1
    34b0:	e7f8      	b.n	34a4 <__libc_init_array+0x2c>
    34b2:	bd70      	pop	{r4, r5, r6, pc}
    34b4:	100002b0 	.word	0x100002b0
    34b8:	100002b0 	.word	0x100002b0
    34bc:	100002b8 	.word	0x100002b8
    34c0:	100002b0 	.word	0x100002b0

000034c4 <memset>:
    34c4:	4402      	add	r2, r0
    34c6:	4603      	mov	r3, r0
    34c8:	4293      	cmp	r3, r2
    34ca:	d002      	beq.n	34d2 <memset+0xe>
    34cc:	f803 1b01 	strb.w	r1, [r3], #1
    34d0:	e7fa      	b.n	34c8 <memset+0x4>
    34d2:	4770      	bx	lr

000034d4 <_free_r>:
    34d4:	b530      	push	{r4, r5, lr}
    34d6:	2900      	cmp	r1, #0
    34d8:	d03c      	beq.n	3554 <_free_r+0x80>
    34da:	f851 2c04 	ldr.w	r2, [r1, #-4]
    34de:	1f0b      	subs	r3, r1, #4
    34e0:	491d      	ldr	r1, [pc, #116]	; (3558 <_free_r+0x84>)
    34e2:	2a00      	cmp	r2, #0
    34e4:	bfb8      	it	lt
    34e6:	189b      	addlt	r3, r3, r2
    34e8:	680a      	ldr	r2, [r1, #0]
    34ea:	460c      	mov	r4, r1
    34ec:	b912      	cbnz	r2, 34f4 <_free_r+0x20>
    34ee:	605a      	str	r2, [r3, #4]
    34f0:	600b      	str	r3, [r1, #0]
    34f2:	bd30      	pop	{r4, r5, pc}
    34f4:	4293      	cmp	r3, r2
    34f6:	d20d      	bcs.n	3514 <_free_r+0x40>
    34f8:	6819      	ldr	r1, [r3, #0]
    34fa:	1858      	adds	r0, r3, r1
    34fc:	4290      	cmp	r0, r2
    34fe:	d103      	bne.n	3508 <_free_r+0x34>
    3500:	585a      	ldr	r2, [r3, r1]
    3502:	4411      	add	r1, r2
    3504:	6842      	ldr	r2, [r0, #4]
    3506:	6019      	str	r1, [r3, #0]
    3508:	605a      	str	r2, [r3, #4]
    350a:	6023      	str	r3, [r4, #0]
    350c:	bd30      	pop	{r4, r5, pc}
    350e:	4299      	cmp	r1, r3
    3510:	d803      	bhi.n	351a <_free_r+0x46>
    3512:	460a      	mov	r2, r1
    3514:	6851      	ldr	r1, [r2, #4]
    3516:	2900      	cmp	r1, #0
    3518:	d1f9      	bne.n	350e <_free_r+0x3a>
    351a:	6814      	ldr	r4, [r2, #0]
    351c:	1915      	adds	r5, r2, r4
    351e:	429d      	cmp	r5, r3
    3520:	d10a      	bne.n	3538 <_free_r+0x64>
    3522:	681b      	ldr	r3, [r3, #0]
    3524:	4423      	add	r3, r4
    3526:	18d0      	adds	r0, r2, r3
    3528:	4288      	cmp	r0, r1
    352a:	6013      	str	r3, [r2, #0]
    352c:	d112      	bne.n	3554 <_free_r+0x80>
    352e:	6808      	ldr	r0, [r1, #0]
    3530:	4403      	add	r3, r0
    3532:	6013      	str	r3, [r2, #0]
    3534:	684b      	ldr	r3, [r1, #4]
    3536:	e00c      	b.n	3552 <_free_r+0x7e>
    3538:	d902      	bls.n	3540 <_free_r+0x6c>
    353a:	230c      	movs	r3, #12
    353c:	6003      	str	r3, [r0, #0]
    353e:	bd30      	pop	{r4, r5, pc}
    3540:	6818      	ldr	r0, [r3, #0]
    3542:	181c      	adds	r4, r3, r0
    3544:	428c      	cmp	r4, r1
    3546:	d103      	bne.n	3550 <_free_r+0x7c>
    3548:	680c      	ldr	r4, [r1, #0]
    354a:	6849      	ldr	r1, [r1, #4]
    354c:	4420      	add	r0, r4
    354e:	6018      	str	r0, [r3, #0]
    3550:	6059      	str	r1, [r3, #4]
    3552:	6053      	str	r3, [r2, #4]
    3554:	bd30      	pop	{r4, r5, pc}
    3556:	bf00      	nop
    3558:	1000065c 	.word	0x1000065c

0000355c <_malloc_r>:
    355c:	b570      	push	{r4, r5, r6, lr}
    355e:	1ccd      	adds	r5, r1, #3
    3560:	f025 0503 	bic.w	r5, r5, #3
    3564:	3508      	adds	r5, #8
    3566:	2d0c      	cmp	r5, #12
    3568:	bf38      	it	cc
    356a:	250c      	movcc	r5, #12
    356c:	2d00      	cmp	r5, #0
    356e:	4606      	mov	r6, r0
    3570:	db3f      	blt.n	35f2 <_malloc_r+0x96>
    3572:	428d      	cmp	r5, r1
    3574:	d33d      	bcc.n	35f2 <_malloc_r+0x96>
    3576:	4b21      	ldr	r3, [pc, #132]	; (35fc <_malloc_r+0xa0>)
    3578:	681c      	ldr	r4, [r3, #0]
    357a:	4618      	mov	r0, r3
    357c:	4621      	mov	r1, r4
    357e:	b1a1      	cbz	r1, 35aa <_malloc_r+0x4e>
    3580:	680b      	ldr	r3, [r1, #0]
    3582:	1b5b      	subs	r3, r3, r5
    3584:	d40e      	bmi.n	35a4 <_malloc_r+0x48>
    3586:	2b0b      	cmp	r3, #11
    3588:	d903      	bls.n	3592 <_malloc_r+0x36>
    358a:	600b      	str	r3, [r1, #0]
    358c:	18cc      	adds	r4, r1, r3
    358e:	50cd      	str	r5, [r1, r3]
    3590:	e01f      	b.n	35d2 <_malloc_r+0x76>
    3592:	428c      	cmp	r4, r1
    3594:	d102      	bne.n	359c <_malloc_r+0x40>
    3596:	6862      	ldr	r2, [r4, #4]
    3598:	6002      	str	r2, [r0, #0]
    359a:	e01a      	b.n	35d2 <_malloc_r+0x76>
    359c:	684b      	ldr	r3, [r1, #4]
    359e:	6063      	str	r3, [r4, #4]
    35a0:	460c      	mov	r4, r1
    35a2:	e016      	b.n	35d2 <_malloc_r+0x76>
    35a4:	460c      	mov	r4, r1
    35a6:	6849      	ldr	r1, [r1, #4]
    35a8:	e7e9      	b.n	357e <_malloc_r+0x22>
    35aa:	4c15      	ldr	r4, [pc, #84]	; (3600 <_malloc_r+0xa4>)
    35ac:	6823      	ldr	r3, [r4, #0]
    35ae:	b91b      	cbnz	r3, 35b8 <_malloc_r+0x5c>
    35b0:	4630      	mov	r0, r6
    35b2:	f000 f827 	bl	3604 <_sbrk_r>
    35b6:	6020      	str	r0, [r4, #0]
    35b8:	4629      	mov	r1, r5
    35ba:	4630      	mov	r0, r6
    35bc:	f000 f822 	bl	3604 <_sbrk_r>
    35c0:	1c43      	adds	r3, r0, #1
    35c2:	4601      	mov	r1, r0
    35c4:	d015      	beq.n	35f2 <_malloc_r+0x96>
    35c6:	1cc4      	adds	r4, r0, #3
    35c8:	f024 0403 	bic.w	r4, r4, #3
    35cc:	4284      	cmp	r4, r0
    35ce:	d10a      	bne.n	35e6 <_malloc_r+0x8a>
    35d0:	6025      	str	r5, [r4, #0]
    35d2:	f104 000b 	add.w	r0, r4, #11
    35d6:	1d23      	adds	r3, r4, #4
    35d8:	f020 0007 	bic.w	r0, r0, #7
    35dc:	1ac3      	subs	r3, r0, r3
    35de:	d00b      	beq.n	35f8 <_malloc_r+0x9c>
    35e0:	425a      	negs	r2, r3
    35e2:	50e2      	str	r2, [r4, r3]
    35e4:	bd70      	pop	{r4, r5, r6, pc}
    35e6:	4630      	mov	r0, r6
    35e8:	1a61      	subs	r1, r4, r1
    35ea:	f000 f80b 	bl	3604 <_sbrk_r>
    35ee:	3001      	adds	r0, #1
    35f0:	d1ee      	bne.n	35d0 <_malloc_r+0x74>
    35f2:	230c      	movs	r3, #12
    35f4:	6033      	str	r3, [r6, #0]
    35f6:	2000      	movs	r0, #0
    35f8:	bd70      	pop	{r4, r5, r6, pc}
    35fa:	bf00      	nop
    35fc:	1000065c 	.word	0x1000065c
    3600:	10000658 	.word	0x10000658

00003604 <_sbrk_r>:
    3604:	b538      	push	{r3, r4, r5, lr}
    3606:	4c06      	ldr	r4, [pc, #24]	; (3620 <_sbrk_r+0x1c>)
    3608:	2300      	movs	r3, #0
    360a:	4605      	mov	r5, r0
    360c:	4608      	mov	r0, r1
    360e:	6023      	str	r3, [r4, #0]
    3610:	f7fe f99e 	bl	1950 <_sbrk>
    3614:	1c43      	adds	r3, r0, #1
    3616:	d102      	bne.n	361e <_sbrk_r+0x1a>
    3618:	6823      	ldr	r3, [r4, #0]
    361a:	b103      	cbz	r3, 361e <_sbrk_r+0x1a>
    361c:	602b      	str	r3, [r5, #0]
    361e:	bd38      	pop	{r3, r4, r5, pc}
    3620:	10000668 	.word	0x10000668

00003624 <__sread>:
    3624:	b510      	push	{r4, lr}
    3626:	460c      	mov	r4, r1
    3628:	f9b1 100e 	ldrsh.w	r1, [r1, #14]
    362c:	f000 fc56 	bl	3edc <_read_r>
    3630:	2800      	cmp	r0, #0
    3632:	db03      	blt.n	363c <__sread+0x18>
    3634:	6d63      	ldr	r3, [r4, #84]	; 0x54
    3636:	4403      	add	r3, r0
    3638:	6563      	str	r3, [r4, #84]	; 0x54
    363a:	bd10      	pop	{r4, pc}
    363c:	89a3      	ldrh	r3, [r4, #12]
    363e:	f423 5380 	bic.w	r3, r3, #4096	; 0x1000
    3642:	81a3      	strh	r3, [r4, #12]
    3644:	bd10      	pop	{r4, pc}

00003646 <__swrite>:
    3646:	e92d 41f0 	stmdb	sp!, {r4, r5, r6, r7, r8, lr}
    364a:	461d      	mov	r5, r3
    364c:	898b      	ldrh	r3, [r1, #12]
    364e:	4607      	mov	r7, r0
    3650:	05db      	lsls	r3, r3, #23
    3652:	460c      	mov	r4, r1
    3654:	4616      	mov	r6, r2
    3656:	d505      	bpl.n	3664 <__swrite+0x1e>
    3658:	f9b1 100e 	ldrsh.w	r1, [r1, #14]
    365c:	2200      	movs	r2, #0
    365e:	2302      	movs	r3, #2
    3660:	f000 fbd0 	bl	3e04 <_lseek_r>
    3664:	89a3      	ldrh	r3, [r4, #12]
    3666:	4638      	mov	r0, r7
    3668:	f423 5380 	bic.w	r3, r3, #4096	; 0x1000
    366c:	81a3      	strh	r3, [r4, #12]
    366e:	f9b4 100e 	ldrsh.w	r1, [r4, #14]
    3672:	4632      	mov	r2, r6
    3674:	462b      	mov	r3, r5
    3676:	e8bd 41f0 	ldmia.w	sp!, {r4, r5, r6, r7, r8, lr}
    367a:	f000 bb33 	b.w	3ce4 <_write_r>

0000367e <__sseek>:
    367e:	b510      	push	{r4, lr}
    3680:	460c      	mov	r4, r1
    3682:	f9b1 100e 	ldrsh.w	r1, [r1, #14]
    3686:	f000 fbbd 	bl	3e04 <_lseek_r>
    368a:	1c43      	adds	r3, r0, #1
    368c:	89a3      	ldrh	r3, [r4, #12]
    368e:	d103      	bne.n	3698 <__sseek+0x1a>
    3690:	f423 5380 	bic.w	r3, r3, #4096	; 0x1000
    3694:	81a3      	strh	r3, [r4, #12]
    3696:	bd10      	pop	{r4, pc}
    3698:	f443 5380 	orr.w	r3, r3, #4096	; 0x1000
    369c:	81a3      	strh	r3, [r4, #12]
    369e:	6560      	str	r0, [r4, #84]	; 0x54
    36a0:	bd10      	pop	{r4, pc}

000036a2 <__sclose>:
    36a2:	f9b1 100e 	ldrsh.w	r1, [r1, #14]
    36a6:	f000 bb9d 	b.w	3de4 <_close_r>

000036aa <strlen>:
    36aa:	4603      	mov	r3, r0
    36ac:	f813 2b01 	ldrb.w	r2, [r3], #1
    36b0:	2a00      	cmp	r2, #0
    36b2:	d1fb      	bne.n	36ac <strlen+0x2>
    36b4:	1a18      	subs	r0, r3, r0
    36b6:	3801      	subs	r0, #1
    36b8:	4770      	bx	lr

000036ba <__sfputc_r>:
    36ba:	6893      	ldr	r3, [r2, #8]
    36bc:	b510      	push	{r4, lr}
    36be:	3b01      	subs	r3, #1
    36c0:	2b00      	cmp	r3, #0
    36c2:	6093      	str	r3, [r2, #8]
    36c4:	da05      	bge.n	36d2 <__sfputc_r+0x18>
    36c6:	6994      	ldr	r4, [r2, #24]
    36c8:	42a3      	cmp	r3, r4
    36ca:	db08      	blt.n	36de <__sfputc_r+0x24>
    36cc:	b2cb      	uxtb	r3, r1
    36ce:	2b0a      	cmp	r3, #10
    36d0:	d005      	beq.n	36de <__sfputc_r+0x24>
    36d2:	6813      	ldr	r3, [r2, #0]
    36d4:	1c58      	adds	r0, r3, #1
    36d6:	6010      	str	r0, [r2, #0]
    36d8:	7019      	strb	r1, [r3, #0]
    36da:	b2c8      	uxtb	r0, r1
    36dc:	bd10      	pop	{r4, pc}
    36de:	e8bd 4010 	ldmia.w	sp!, {r4, lr}
    36e2:	f000 baab 	b.w	3c3c <__swbuf_r>

000036e6 <__sfputs_r>:
    36e6:	b5f8      	push	{r3, r4, r5, r6, r7, lr}
    36e8:	4605      	mov	r5, r0
    36ea:	460e      	mov	r6, r1
    36ec:	4614      	mov	r4, r2
    36ee:	18d7      	adds	r7, r2, r3
    36f0:	42bc      	cmp	r4, r7
    36f2:	d008      	beq.n	3706 <__sfputs_r+0x20>
    36f4:	4628      	mov	r0, r5
    36f6:	f814 1b01 	ldrb.w	r1, [r4], #1
    36fa:	4632      	mov	r2, r6
    36fc:	f7ff ffdd 	bl	36ba <__sfputc_r>
    3700:	1c43      	adds	r3, r0, #1
    3702:	d1f5      	bne.n	36f0 <__sfputs_r+0xa>
    3704:	e000      	b.n	3708 <__sfputs_r+0x22>
    3706:	2000      	movs	r0, #0
    3708:	bdf8      	pop	{r3, r4, r5, r6, r7, pc}
	...

0000370c <_vfiprintf_r>:
    370c:	e92d 43f0 	stmdb	sp!, {r4, r5, r6, r7, r8, r9, lr}
    3710:	b09d      	sub	sp, #116	; 0x74
    3712:	460d      	mov	r5, r1
    3714:	4617      	mov	r7, r2
    3716:	9303      	str	r3, [sp, #12]
    3718:	4606      	mov	r6, r0
    371a:	b118      	cbz	r0, 3724 <_vfiprintf_r+0x18>
    371c:	6983      	ldr	r3, [r0, #24]
    371e:	b90b      	cbnz	r3, 3724 <_vfiprintf_r+0x18>
    3720:	f7ff fe22 	bl	3368 <__sinit>
    3724:	4b73      	ldr	r3, [pc, #460]	; (38f4 <_vfiprintf_r+0x1e8>)
    3726:	429d      	cmp	r5, r3
    3728:	d101      	bne.n	372e <_vfiprintf_r+0x22>
    372a:	6875      	ldr	r5, [r6, #4]
    372c:	e008      	b.n	3740 <_vfiprintf_r+0x34>
    372e:	4b72      	ldr	r3, [pc, #456]	; (38f8 <_vfiprintf_r+0x1ec>)
    3730:	429d      	cmp	r5, r3
    3732:	d101      	bne.n	3738 <_vfiprintf_r+0x2c>
    3734:	68b5      	ldr	r5, [r6, #8]
    3736:	e003      	b.n	3740 <_vfiprintf_r+0x34>
    3738:	4b70      	ldr	r3, [pc, #448]	; (38fc <_vfiprintf_r+0x1f0>)
    373a:	429d      	cmp	r5, r3
    373c:	bf08      	it	eq
    373e:	68f5      	ldreq	r5, [r6, #12]
    3740:	89ab      	ldrh	r3, [r5, #12]
    3742:	0718      	lsls	r0, r3, #28
    3744:	d50a      	bpl.n	375c <_vfiprintf_r+0x50>
    3746:	692b      	ldr	r3, [r5, #16]
    3748:	b143      	cbz	r3, 375c <_vfiprintf_r+0x50>
    374a:	2300      	movs	r3, #0
    374c:	9309      	str	r3, [sp, #36]	; 0x24
    374e:	2320      	movs	r3, #32
    3750:	f88d 3029 	strb.w	r3, [sp, #41]	; 0x29
    3754:	2330      	movs	r3, #48	; 0x30
    3756:	f88d 302a 	strb.w	r3, [sp, #42]	; 0x2a
    375a:	e038      	b.n	37ce <_vfiprintf_r+0xc2>
    375c:	4630      	mov	r0, r6
    375e:	4629      	mov	r1, r5
    3760:	f000 fad2 	bl	3d08 <__swsetup_r>
    3764:	2800      	cmp	r0, #0
    3766:	d0f0      	beq.n	374a <_vfiprintf_r+0x3e>
    3768:	f04f 30ff 	mov.w	r0, #4294967295	; 0xffffffff
    376c:	e0be      	b.n	38ec <_vfiprintf_r+0x1e0>
    376e:	9a03      	ldr	r2, [sp, #12]
    3770:	1d11      	adds	r1, r2, #4
    3772:	6812      	ldr	r2, [r2, #0]
    3774:	9103      	str	r1, [sp, #12]
    3776:	2a00      	cmp	r2, #0
    3778:	db70      	blt.n	385c <_vfiprintf_r+0x150>
    377a:	9207      	str	r2, [sp, #28]
    377c:	3401      	adds	r4, #1
    377e:	7823      	ldrb	r3, [r4, #0]
    3780:	2b2e      	cmp	r3, #46	; 0x2e
    3782:	d07d      	beq.n	3880 <_vfiprintf_r+0x174>
    3784:	4f5e      	ldr	r7, [pc, #376]	; (3900 <_vfiprintf_r+0x1f4>)
    3786:	7821      	ldrb	r1, [r4, #0]
    3788:	4638      	mov	r0, r7
    378a:	2203      	movs	r2, #3
    378c:	f000 fb98 	bl	3ec0 <memchr>
    3790:	b130      	cbz	r0, 37a0 <_vfiprintf_r+0x94>
    3792:	1bc7      	subs	r7, r0, r7
    3794:	2040      	movs	r0, #64	; 0x40
    3796:	40b8      	lsls	r0, r7
    3798:	9b04      	ldr	r3, [sp, #16]
    379a:	3401      	adds	r4, #1
    379c:	4303      	orrs	r3, r0
    379e:	9304      	str	r3, [sp, #16]
    37a0:	7821      	ldrb	r1, [r4, #0]
    37a2:	4858      	ldr	r0, [pc, #352]	; (3904 <_vfiprintf_r+0x1f8>)
    37a4:	2206      	movs	r2, #6
    37a6:	1c67      	adds	r7, r4, #1
    37a8:	f88d 1028 	strb.w	r1, [sp, #40]	; 0x28
    37ac:	f000 fb88 	bl	3ec0 <memchr>
    37b0:	2800      	cmp	r0, #0
    37b2:	f000 8089 	beq.w	38c8 <_vfiprintf_r+0x1bc>
    37b6:	4b54      	ldr	r3, [pc, #336]	; (3908 <_vfiprintf_r+0x1fc>)
    37b8:	2b00      	cmp	r3, #0
    37ba:	d17c      	bne.n	38b6 <_vfiprintf_r+0x1aa>
    37bc:	9b03      	ldr	r3, [sp, #12]
    37be:	3307      	adds	r3, #7
    37c0:	f023 0307 	bic.w	r3, r3, #7
    37c4:	3308      	adds	r3, #8
    37c6:	9303      	str	r3, [sp, #12]
    37c8:	9b09      	ldr	r3, [sp, #36]	; 0x24
    37ca:	4443      	add	r3, r8
    37cc:	9309      	str	r3, [sp, #36]	; 0x24
    37ce:	463b      	mov	r3, r7
    37d0:	461c      	mov	r4, r3
    37d2:	f813 2b01 	ldrb.w	r2, [r3], #1
    37d6:	b91a      	cbnz	r2, 37e0 <_vfiprintf_r+0xd4>
    37d8:	ebb4 0907 	subs.w	r9, r4, r7
    37dc:	d00e      	beq.n	37fc <_vfiprintf_r+0xf0>
    37de:	e002      	b.n	37e6 <_vfiprintf_r+0xda>
    37e0:	2a25      	cmp	r2, #37	; 0x25
    37e2:	d1f5      	bne.n	37d0 <_vfiprintf_r+0xc4>
    37e4:	e7f8      	b.n	37d8 <_vfiprintf_r+0xcc>
    37e6:	4630      	mov	r0, r6
    37e8:	4629      	mov	r1, r5
    37ea:	463a      	mov	r2, r7
    37ec:	464b      	mov	r3, r9
    37ee:	f7ff ff7a 	bl	36e6 <__sfputs_r>
    37f2:	3001      	adds	r0, #1
    37f4:	d075      	beq.n	38e2 <_vfiprintf_r+0x1d6>
    37f6:	9b09      	ldr	r3, [sp, #36]	; 0x24
    37f8:	444b      	add	r3, r9
    37fa:	9309      	str	r3, [sp, #36]	; 0x24
    37fc:	7823      	ldrb	r3, [r4, #0]
    37fe:	2b00      	cmp	r3, #0
    3800:	d06f      	beq.n	38e2 <_vfiprintf_r+0x1d6>
    3802:	2300      	movs	r3, #0
    3804:	f04f 32ff 	mov.w	r2, #4294967295	; 0xffffffff
    3808:	9304      	str	r3, [sp, #16]
    380a:	9307      	str	r3, [sp, #28]
    380c:	9205      	str	r2, [sp, #20]
    380e:	9306      	str	r3, [sp, #24]
    3810:	f88d 3053 	strb.w	r3, [sp, #83]	; 0x53
    3814:	931a      	str	r3, [sp, #104]	; 0x68
    3816:	f104 0901 	add.w	r9, r4, #1
    381a:	4f3c      	ldr	r7, [pc, #240]	; (390c <_vfiprintf_r+0x200>)
    381c:	464c      	mov	r4, r9
    381e:	4638      	mov	r0, r7
    3820:	7821      	ldrb	r1, [r4, #0]
    3822:	2205      	movs	r2, #5
    3824:	f000 fb4c 	bl	3ec0 <memchr>
    3828:	f109 0901 	add.w	r9, r9, #1
    382c:	9b04      	ldr	r3, [sp, #16]
    382e:	b128      	cbz	r0, 383c <_vfiprintf_r+0x130>
    3830:	1bc7      	subs	r7, r0, r7
    3832:	2001      	movs	r0, #1
    3834:	40b8      	lsls	r0, r7
    3836:	4303      	orrs	r3, r0
    3838:	9304      	str	r3, [sp, #16]
    383a:	e7ee      	b.n	381a <_vfiprintf_r+0x10e>
    383c:	06d9      	lsls	r1, r3, #27
    383e:	bf44      	itt	mi
    3840:	2220      	movmi	r2, #32
    3842:	f88d 2053 	strbmi.w	r2, [sp, #83]	; 0x53
    3846:	071a      	lsls	r2, r3, #28
    3848:	bf44      	itt	mi
    384a:	222b      	movmi	r2, #43	; 0x2b
    384c:	f88d 2053 	strbmi.w	r2, [sp, #83]	; 0x53
    3850:	7822      	ldrb	r2, [r4, #0]
    3852:	2a2a      	cmp	r2, #42	; 0x2a
    3854:	d08b      	beq.n	376e <_vfiprintf_r+0x62>
    3856:	9b07      	ldr	r3, [sp, #28]
    3858:	4621      	mov	r1, r4
    385a:	e005      	b.n	3868 <_vfiprintf_r+0x15c>
    385c:	4252      	negs	r2, r2
    385e:	f043 0302 	orr.w	r3, r3, #2
    3862:	9207      	str	r2, [sp, #28]
    3864:	9304      	str	r3, [sp, #16]
    3866:	e789      	b.n	377c <_vfiprintf_r+0x70>
    3868:	460c      	mov	r4, r1
    386a:	7822      	ldrb	r2, [r4, #0]
    386c:	3101      	adds	r1, #1
    386e:	3a30      	subs	r2, #48	; 0x30
    3870:	2a09      	cmp	r2, #9
    3872:	d803      	bhi.n	387c <_vfiprintf_r+0x170>
    3874:	200a      	movs	r0, #10
    3876:	fb00 2303 	mla	r3, r0, r3, r2
    387a:	e7f5      	b.n	3868 <_vfiprintf_r+0x15c>
    387c:	9307      	str	r3, [sp, #28]
    387e:	e77e      	b.n	377e <_vfiprintf_r+0x72>
    3880:	7863      	ldrb	r3, [r4, #1]
    3882:	2b2a      	cmp	r3, #42	; 0x2a
    3884:	d109      	bne.n	389a <_vfiprintf_r+0x18e>
    3886:	9b03      	ldr	r3, [sp, #12]
    3888:	3402      	adds	r4, #2
    388a:	1d1a      	adds	r2, r3, #4
    388c:	681b      	ldr	r3, [r3, #0]
    388e:	9203      	str	r2, [sp, #12]
    3890:	2b00      	cmp	r3, #0
    3892:	bfb8      	it	lt
    3894:	f04f 33ff 	movlt.w	r3, #4294967295	; 0xffffffff
    3898:	e00b      	b.n	38b2 <_vfiprintf_r+0x1a6>
    389a:	1c61      	adds	r1, r4, #1
    389c:	2300      	movs	r3, #0
    389e:	460c      	mov	r4, r1
    38a0:	7822      	ldrb	r2, [r4, #0]
    38a2:	3101      	adds	r1, #1
    38a4:	3a30      	subs	r2, #48	; 0x30
    38a6:	2a09      	cmp	r2, #9
    38a8:	d803      	bhi.n	38b2 <_vfiprintf_r+0x1a6>
    38aa:	200a      	movs	r0, #10
    38ac:	fb00 2303 	mla	r3, r0, r3, r2
    38b0:	e7f5      	b.n	389e <_vfiprintf_r+0x192>
    38b2:	9305      	str	r3, [sp, #20]
    38b4:	e766      	b.n	3784 <_vfiprintf_r+0x78>
    38b6:	ab03      	add	r3, sp, #12
    38b8:	9300      	str	r3, [sp, #0]
    38ba:	4630      	mov	r0, r6
    38bc:	a904      	add	r1, sp, #16
    38be:	462a      	mov	r2, r5
    38c0:	4b13      	ldr	r3, [pc, #76]	; (3910 <_vfiprintf_r+0x204>)
    38c2:	f3af 8000 	nop.w
    38c6:	e007      	b.n	38d8 <_vfiprintf_r+0x1cc>
    38c8:	ab03      	add	r3, sp, #12
    38ca:	9300      	str	r3, [sp, #0]
    38cc:	4630      	mov	r0, r6
    38ce:	a904      	add	r1, sp, #16
    38d0:	462a      	mov	r2, r5
    38d2:	4b0f      	ldr	r3, [pc, #60]	; (3910 <_vfiprintf_r+0x204>)
    38d4:	f000 f89e 	bl	3a14 <_printf_i>
    38d8:	f1b0 3fff 	cmp.w	r0, #4294967295	; 0xffffffff
    38dc:	4680      	mov	r8, r0
    38de:	f47f af73 	bne.w	37c8 <_vfiprintf_r+0xbc>
    38e2:	89ab      	ldrh	r3, [r5, #12]
    38e4:	065b      	lsls	r3, r3, #25
    38e6:	f53f af3f 	bmi.w	3768 <_vfiprintf_r+0x5c>
    38ea:	9809      	ldr	r0, [sp, #36]	; 0x24
    38ec:	b01d      	add	sp, #116	; 0x74
    38ee:	e8bd 83f0 	ldmia.w	sp!, {r4, r5, r6, r7, r8, r9, pc}
    38f2:	bf00      	nop
    38f4:	00005828 	.word	0x00005828
    38f8:	00005848 	.word	0x00005848
    38fc:	00005868 	.word	0x00005868
    3900:	00005896 	.word	0x00005896
    3904:	0000589a 	.word	0x0000589a
    3908:	00000000 	.word	0x00000000
    390c:	00005890 	.word	0x00005890
    3910:	000036e7 	.word	0x000036e7

00003914 <vfiprintf>:
    3914:	b530      	push	{r4, r5, lr}
    3916:	4613      	mov	r3, r2
    3918:	4a04      	ldr	r2, [pc, #16]	; (392c <vfiprintf+0x18>)
    391a:	4605      	mov	r5, r0
    391c:	460c      	mov	r4, r1
    391e:	6810      	ldr	r0, [r2, #0]
    3920:	4629      	mov	r1, r5
    3922:	4622      	mov	r2, r4
    3924:	e8bd 4030 	ldmia.w	sp!, {r4, r5, lr}
    3928:	f7ff bef0 	b.w	370c <_vfiprintf_r>
    392c:	100002ac 	.word	0x100002ac

00003930 <_printf_common>:
    3930:	e92d 43f8 	stmdb	sp!, {r3, r4, r5, r6, r7, r8, r9, lr}
    3934:	4615      	mov	r5, r2
    3936:	461f      	mov	r7, r3
    3938:	688a      	ldr	r2, [r1, #8]
    393a:	690b      	ldr	r3, [r1, #16]
    393c:	4606      	mov	r6, r0
    393e:	429a      	cmp	r2, r3
    3940:	bfa8      	it	ge
    3942:	4613      	movge	r3, r2
    3944:	602b      	str	r3, [r5, #0]
    3946:	f891 2043 	ldrb.w	r2, [r1, #67]	; 0x43
    394a:	460c      	mov	r4, r1
    394c:	f8dd 8020 	ldr.w	r8, [sp, #32]
    3950:	b10a      	cbz	r2, 3956 <_printf_common+0x26>
    3952:	3301      	adds	r3, #1
    3954:	602b      	str	r3, [r5, #0]
    3956:	6823      	ldr	r3, [r4, #0]
    3958:	0699      	lsls	r1, r3, #26
    395a:	d502      	bpl.n	3962 <_printf_common+0x32>
    395c:	682b      	ldr	r3, [r5, #0]
    395e:	3302      	adds	r3, #2
    3960:	602b      	str	r3, [r5, #0]
    3962:	6823      	ldr	r3, [r4, #0]
    3964:	f013 0906 	ands.w	r9, r3, #6
    3968:	d01d      	beq.n	39a6 <_printf_common+0x76>
    396a:	f894 3043 	ldrb.w	r3, [r4, #67]	; 0x43
    396e:	6822      	ldr	r2, [r4, #0]
    3970:	3300      	adds	r3, #0
    3972:	bf18      	it	ne
    3974:	2301      	movne	r3, #1
    3976:	0692      	lsls	r2, r2, #26
    3978:	d51f      	bpl.n	39ba <_printf_common+0x8a>
    397a:	18e1      	adds	r1, r4, r3
    397c:	2030      	movs	r0, #48	; 0x30
    397e:	f881 0043 	strb.w	r0, [r1, #67]	; 0x43
    3982:	1c5a      	adds	r2, r3, #1
    3984:	f894 1045 	ldrb.w	r1, [r4, #69]	; 0x45
    3988:	4422      	add	r2, r4
    398a:	3302      	adds	r3, #2
    398c:	f882 1043 	strb.w	r1, [r2, #67]	; 0x43
    3990:	e013      	b.n	39ba <_printf_common+0x8a>
    3992:	4630      	mov	r0, r6
    3994:	4639      	mov	r1, r7
    3996:	f104 0219 	add.w	r2, r4, #25
    399a:	2301      	movs	r3, #1
    399c:	47c0      	blx	r8
    399e:	3001      	adds	r0, #1
    39a0:	d007      	beq.n	39b2 <_printf_common+0x82>
    39a2:	f109 0901 	add.w	r9, r9, #1
    39a6:	68e2      	ldr	r2, [r4, #12]
    39a8:	682b      	ldr	r3, [r5, #0]
    39aa:	1ad3      	subs	r3, r2, r3
    39ac:	4599      	cmp	r9, r3
    39ae:	dbf0      	blt.n	3992 <_printf_common+0x62>
    39b0:	e7db      	b.n	396a <_printf_common+0x3a>
    39b2:	f04f 30ff 	mov.w	r0, #4294967295	; 0xffffffff
    39b6:	e8bd 83f8 	ldmia.w	sp!, {r3, r4, r5, r6, r7, r8, r9, pc}
    39ba:	4630      	mov	r0, r6
    39bc:	4639      	mov	r1, r7
    39be:	f104 0243 	add.w	r2, r4, #67	; 0x43
    39c2:	47c0      	blx	r8
    39c4:	3001      	adds	r0, #1
    39c6:	d0f4      	beq.n	39b2 <_printf_common+0x82>
    39c8:	6823      	ldr	r3, [r4, #0]
    39ca:	682a      	ldr	r2, [r5, #0]
    39cc:	f003 0306 	and.w	r3, r3, #6
    39d0:	68e1      	ldr	r1, [r4, #12]
    39d2:	2b04      	cmp	r3, #4
    39d4:	bf08      	it	eq
    39d6:	ebc2 0501 	rsbeq	r5, r2, r1
    39da:	6923      	ldr	r3, [r4, #16]
    39dc:	68a2      	ldr	r2, [r4, #8]
    39de:	bf0c      	ite	eq
    39e0:	ea25 75e5 	biceq.w	r5, r5, r5, asr #31
    39e4:	2500      	movne	r5, #0
    39e6:	429a      	cmp	r2, r3
    39e8:	bfc4      	itt	gt
    39ea:	ebc3 0302 	rsbgt	r3, r3, r2
    39ee:	18ed      	addgt	r5, r5, r3
    39f0:	f04f 0900 	mov.w	r9, #0
    39f4:	45a9      	cmp	r9, r5
    39f6:	da0a      	bge.n	3a0e <_printf_common+0xde>
    39f8:	4630      	mov	r0, r6
    39fa:	4639      	mov	r1, r7
    39fc:	f104 021a 	add.w	r2, r4, #26
    3a00:	2301      	movs	r3, #1
    3a02:	47c0      	blx	r8
    3a04:	3001      	adds	r0, #1
    3a06:	d0d4      	beq.n	39b2 <_printf_common+0x82>
    3a08:	f109 0901 	add.w	r9, r9, #1
    3a0c:	e7f2      	b.n	39f4 <_printf_common+0xc4>
    3a0e:	2000      	movs	r0, #0
    3a10:	e8bd 83f8 	ldmia.w	sp!, {r3, r4, r5, r6, r7, r8, r9, pc}

00003a14 <_printf_i>:
    3a14:	e92d 47ff 	stmdb	sp!, {r0, r1, r2, r3, r4, r5, r6, r7, r8, r9, r10, lr}
    3a18:	7e0e      	ldrb	r6, [r1, #24]
    3a1a:	4680      	mov	r8, r0
    3a1c:	2e6e      	cmp	r6, #110	; 0x6e
    3a1e:	460c      	mov	r4, r1
    3a20:	4691      	mov	r9, r2
    3a22:	469a      	mov	r10, r3
    3a24:	9d0c      	ldr	r5, [sp, #48]	; 0x30
    3a26:	f101 0043 	add.w	r0, r1, #67	; 0x43
    3a2a:	f000 80a5 	beq.w	3b78 <_printf_i+0x164>
    3a2e:	d811      	bhi.n	3a54 <_printf_i+0x40>
    3a30:	2e63      	cmp	r6, #99	; 0x63
    3a32:	d022      	beq.n	3a7a <_printf_i+0x66>
    3a34:	d809      	bhi.n	3a4a <_printf_i+0x36>
    3a36:	2e00      	cmp	r6, #0
    3a38:	f000 80af 	beq.w	3b9a <_printf_i+0x186>
    3a3c:	2e58      	cmp	r6, #88	; 0x58
    3a3e:	f040 80bf 	bne.w	3bc0 <_printf_i+0x1ac>
    3a42:	f881 6045 	strb.w	r6, [r1, #69]	; 0x45
    3a46:	4a7b      	ldr	r2, [pc, #492]	; (3c34 <_printf_i+0x220>)
    3a48:	e04f      	b.n	3aea <_printf_i+0xd6>
    3a4a:	2e64      	cmp	r6, #100	; 0x64
    3a4c:	d01e      	beq.n	3a8c <_printf_i+0x78>
    3a4e:	2e69      	cmp	r6, #105	; 0x69
    3a50:	d01c      	beq.n	3a8c <_printf_i+0x78>
    3a52:	e0b5      	b.n	3bc0 <_printf_i+0x1ac>
    3a54:	2e73      	cmp	r6, #115	; 0x73
    3a56:	f000 80a4 	beq.w	3ba2 <_printf_i+0x18e>
    3a5a:	d809      	bhi.n	3a70 <_printf_i+0x5c>
    3a5c:	2e6f      	cmp	r6, #111	; 0x6f
    3a5e:	d02b      	beq.n	3ab8 <_printf_i+0xa4>
    3a60:	2e70      	cmp	r6, #112	; 0x70
    3a62:	f040 80ad 	bne.w	3bc0 <_printf_i+0x1ac>
    3a66:	680b      	ldr	r3, [r1, #0]
    3a68:	f043 0320 	orr.w	r3, r3, #32
    3a6c:	600b      	str	r3, [r1, #0]
    3a6e:	e038      	b.n	3ae2 <_printf_i+0xce>
    3a70:	2e75      	cmp	r6, #117	; 0x75
    3a72:	d021      	beq.n	3ab8 <_printf_i+0xa4>
    3a74:	2e78      	cmp	r6, #120	; 0x78
    3a76:	d034      	beq.n	3ae2 <_printf_i+0xce>
    3a78:	e0a2      	b.n	3bc0 <_printf_i+0x1ac>
    3a7a:	682b      	ldr	r3, [r5, #0]
    3a7c:	f101 0742 	add.w	r7, r1, #66	; 0x42
    3a80:	1d1a      	adds	r2, r3, #4
    3a82:	681b      	ldr	r3, [r3, #0]
    3a84:	602a      	str	r2, [r5, #0]
