
NRF51822/Ticker.elf:     file format elf32-littlearm
architecture: arm, flags 0x00000112:
EXEC_P, HAS_SYMS, D_PAGED
start address 0x00016421


Disassembly of section .text:

00000000 <_binary_NRF51822_s110_nrf51822_7_1_0_softdevice_bin_start>:
       0:	000007c0 	.word	0x000007c0
       4:	000006d1 	.word	0x000006d1
       8:	000000d1 	.word	0x000000d1
       c:	000006b1 	.word	0x000006b1
	...
      2c:	00000751 	.word	0x00000751
	...
      38:	000000db 	.word	0x000000db
      3c:	000000e5 	.word	0x000000e5
      40:	000000ef 	.word	0x000000ef
      44:	000000f9 	.word	0x000000f9
      48:	00000103 	.word	0x00000103
      4c:	0000010d 	.word	0x0000010d
      50:	00000117 	.word	0x00000117
      54:	00000121 	.word	0x00000121
      58:	0000012b 	.word	0x0000012b
      5c:	00000135 	.word	0x00000135
      60:	0000013f 	.word	0x0000013f
      64:	00000149 	.word	0x00000149
      68:	00000153 	.word	0x00000153
      6c:	0000015d 	.word	0x0000015d
      70:	00000167 	.word	0x00000167
      74:	00000171 	.word	0x00000171
      78:	0000017b 	.word	0x0000017b
      7c:	00000185 	.word	0x00000185
      80:	0000018f 	.word	0x0000018f
      84:	00000199 	.word	0x00000199
      88:	000001a3 	.word	0x000001a3
      8c:	000001ad 	.word	0x000001ad
      90:	000001b7 	.word	0x000001b7
      94:	000001c1 	.word	0x000001c1
      98:	000001cb 	.word	0x000001cb
      9c:	000001d5 	.word	0x000001d5
      a0:	000001df 	.word	0x000001df
      a4:	000001e9 	.word	0x000001e9
      a8:	000001f3 	.word	0x000001f3
      ac:	000001fd 	.word	0x000001fd
      b0:	00000207 	.word	0x00000207
      b4:	00000211 	.word	0x00000211
      b8:	0000021b 	.word	0x0000021b
      bc:	00000225 	.word	0x00000225
      c0:	46c0b51f 	.word	0x46c0b51f
      c4:	f00046c0 	.word	0xf00046c0
      c8:	b004faef 	.word	0xb004faef
      cc:	bd1fb40f 	.word	0xbd1fb40f
      d0:	495a2008 	.word	0x495a2008
      d4:	58096809 	.word	0x58096809
      d8:	20384708 	.word	0x20384708
      dc:	68094957 	.word	0x68094957
      e0:	47085809 	.word	0x47085809
      e4:	4955203c 	.word	0x4955203c
      e8:	58096809 	.word	0x58096809
      ec:	20404708 	.word	0x20404708
      f0:	68094952 	.word	0x68094952
      f4:	47085809 	.word	0x47085809
      f8:	49502044 	.word	0x49502044
      fc:	58096809 	.word	0x58096809
     100:	20484708 	.word	0x20484708
     104:	6809494d 	.word	0x6809494d
     108:	47085809 	.word	0x47085809
     10c:	494b204c 	.word	0x494b204c
     110:	58096809 	.word	0x58096809
     114:	20504708 	.word	0x20504708
     118:	68094948 	.word	0x68094948
     11c:	47085809 	.word	0x47085809
     120:	49462054 	.word	0x49462054
     124:	58096809 	.word	0x58096809
     128:	20584708 	.word	0x20584708
     12c:	68094943 	.word	0x68094943
     130:	47085809 	.word	0x47085809
     134:	4941205c 	.word	0x4941205c
     138:	58096809 	.word	0x58096809
     13c:	20604708 	.word	0x20604708
     140:	6809493e 	.word	0x6809493e
     144:	47085809 	.word	0x47085809
     148:	493c2064 	.word	0x493c2064
     14c:	58096809 	.word	0x58096809
     150:	20684708 	.word	0x20684708
     154:	68094939 	.word	0x68094939
     158:	47085809 	.word	0x47085809
     15c:	4937206c 	.word	0x4937206c
     160:	58096809 	.word	0x58096809
     164:	20704708 	.word	0x20704708
     168:	68094934 	.word	0x68094934
     16c:	47085809 	.word	0x47085809
     170:	49322074 	.word	0x49322074
     174:	58096809 	.word	0x58096809
     178:	20784708 	.word	0x20784708
     17c:	6809492f 	.word	0x6809492f
     180:	47085809 	.word	0x47085809
     184:	492d207c 	.word	0x492d207c
     188:	58096809 	.word	0x58096809
     18c:	20804708 	.word	0x20804708
     190:	6809492a 	.word	0x6809492a
     194:	47085809 	.word	0x47085809
     198:	49282084 	.word	0x49282084
     19c:	58096809 	.word	0x58096809
     1a0:	20884708 	.word	0x20884708
     1a4:	68094925 	.word	0x68094925
     1a8:	47085809 	.word	0x47085809
     1ac:	4923208c 	.word	0x4923208c
     1b0:	58096809 	.word	0x58096809
     1b4:	20904708 	.word	0x20904708
     1b8:	68094920 	.word	0x68094920
     1bc:	47085809 	.word	0x47085809
     1c0:	491e2094 	.word	0x491e2094
     1c4:	58096809 	.word	0x58096809
     1c8:	20984708 	.word	0x20984708
     1cc:	6809491b 	.word	0x6809491b
     1d0:	47085809 	.word	0x47085809
     1d4:	4919209c 	.word	0x4919209c
     1d8:	58096809 	.word	0x58096809
     1dc:	20a04708 	.word	0x20a04708
     1e0:	68094916 	.word	0x68094916
     1e4:	47085809 	.word	0x47085809
     1e8:	491420a4 	.word	0x491420a4
     1ec:	58096809 	.word	0x58096809
     1f0:	20a84708 	.word	0x20a84708
     1f4:	68094911 	.word	0x68094911
     1f8:	47085809 	.word	0x47085809
     1fc:	490f20ac 	.word	0x490f20ac
     200:	58096809 	.word	0x58096809
     204:	20b04708 	.word	0x20b04708
     208:	6809490c 	.word	0x6809490c
     20c:	47085809 	.word	0x47085809
     210:	490a20b4 	.word	0x490a20b4
     214:	58096809 	.word	0x58096809
     218:	20b84708 	.word	0x20b84708
     21c:	68094907 	.word	0x68094907
     220:	47085809 	.word	0x47085809
     224:	490520bc 	.word	0x490520bc
     228:	58096809 	.word	0x58096809
     22c:	00004708 	.word	0x00004708
     230:	49044803 	.word	0x49044803
     234:	4b034a02 	.word	0x4b034a02
     238:	00004770 	.word	0x00004770
     23c:	20000000 	.word	0x20000000
     240:	000007c0 	.word	0x000007c0
     244:	000007c0 	.word	0x000007c0
     248:	4bd82201 	.word	0x4bd82201
     24c:	bf00605a 	.word	0xbf00605a
     250:	68124ad7 	.word	0x68124ad7
     254:	d0fb2a00 	.word	0xd0fb2a00
     258:	bf006001 	.word	0xbf006001
     25c:	68124ad4 	.word	0x68124ad4
     260:	d0fb2a00 	.word	0xd0fb2a00
     264:	4bd12200 	.word	0x4bd12200
     268:	bf00605a 	.word	0xbf00605a
     26c:	68124ad0 	.word	0x68124ad0
     270:	d0fb2a00 	.word	0xd0fb2a00
     274:	b5f04770 	.word	0xb5f04770
     278:	460e4605 	.word	0x460e4605
     27c:	24004617 	.word	0x24004617
     280:	00a2e006 	.word	0x00a2e006
     284:	00a258b1 	.word	0x00a258b1
     288:	f7ff1950 	.word	0xf7ff1950
     28c:	1c64ffdd 	.word	0x1c64ffdd
     290:	d3f642bc 	.word	0xd3f642bc
     294:	bdf02000 	.word	0xbdf02000
     298:	43c02001 	.word	0x43c02001
     29c:	600849c5 	.word	0x600849c5
     2a0:	60481040 	.word	0x60481040
     2a4:	46014770 	.word	0x46014770
     2a8:	04922201 	.word	0x04922201
     2ac:	42906808 	.word	0x42906808
     2b0:	2010d901 	.word	0x2010d901
     2b4:	20004770 	.word	0x20004770
     2b8:	b5f0e7fc 	.word	0xb5f0e7fc
     2bc:	460c4605 	.word	0x460c4605
     2c0:	27004616 	.word	0x27004616
     2c4:	4628e006 	.word	0x4628e006
     2c8:	f7ff6821 	.word	0xf7ff6821
     2cc:	1d2dffbd 	.word	0x1d2dffbd
     2d0:	1c7f1d24 	.word	0x1c7f1d24
     2d4:	d3f642b7 	.word	0xd3f642b7
     2d8:	b570bdf0 	.word	0xb570bdf0
     2dc:	460c4605 	.word	0x460c4605
     2e0:	e00b462e 	.word	0xe00b462e
     2e4:	f0004630 	.word	0xf0004630
     2e8:	2cfff975 	.word	0x2cfff975
     2ec:	2400d801 	.word	0x2400d801
     2f0:	3cffe001 	.word	0x3cffe001
     2f4:	20013c01 	.word	0x20013c01
     2f8:	18360280 	.word	0x18360280
     2fc:	d1f12c00 	.word	0xd1f12c00
     300:	4601bd70 	.word	0x4601bd70
     304:	04922201 	.word	0x04922201
     308:	42906848 	.word	0x42906848
     30c:	2009d901 	.word	0x2009d901
     310:	48a94770 	.word	0x48a94770
     314:	1c406940 	.word	0x1c406940
     318:	200fd101 	.word	0x200fd101
     31c:	2000e7f8 	.word	0x2000e7f8
     320:	b5fee7f6 	.word	0xb5fee7f6
     324:	68204604 	.word	0x68204604
     328:	f0000003 	.word	0xf0000003
     32c:	0405fa37 	.word	0x0405fa37
     330:	5949422b 	.word	0x5949422b
     334:	1d20008b 	.word	0x1d20008b
     338:	ffe3f7ff 	.word	0xffe3f7ff
     33c:	2d004605 	.word	0x2d004605
     340:	4628d001 	.word	0x4628d001
     344:	f7ffbdfe 	.word	0xf7ffbdfe
     348:	2001ffa7 	.word	0x2001ffa7
     34c:	f00002c0 	.word	0xf00002c0
     350:	2204f941 	.word	0x2204f941
     354:	48994621 	.word	0x48994621
     358:	ff8df7ff 	.word	0xff8df7ff
     35c:	d0012800 	.word	0xd0012800
     360:	e7ef2003 	.word	0xe7ef2003
     364:	46212208 	.word	0x46212208
     368:	f0004894 	.word	0xf0004894
     36c:	2800f96d 	.word	0x2800f96d
     370:	2100d106 	.word	0x2100d106
     374:	68004892 	.word	0x68004892
     378:	ff66f7ff 	.word	0xff66f7ff
     37c:	f90cf000 	.word	0xf90cf000
     380:	e7df2003 	.word	0xe7df2003
     384:	68e668a7 	.word	0x68e668a7
     388:	90016860 	.word	0x90016860
     38c:	46384631 	.word	0x46384631
     390:	ffa3f7ff 	.word	0xffa3f7ff
     394:	46384632 	.word	0x46384632
     398:	f7ff9901 	.word	0xf7ff9901
     39c:	00b2ff8e 	.word	0x00b2ff8e
     3a0:	99014638 	.word	0x99014638
     3a4:	f950f000 	.word	0xf950f000
     3a8:	d1002800 	.word	0xd1002800
     3ac:	2003e7ca 	.word	0x2003e7ca
     3b0:	f000e7c8 	.word	0xf000e7c8
     3b4:	4883f9e3 	.word	0x4883f9e3
     3b8:	49836800 	.word	0x49836800
     3bc:	e0416008 	.word	0xe0416008
     3c0:	90016860 	.word	0x90016860
     3c4:	68a068e6 	.word	0x68a068e6
     3c8:	00b29000 	.word	0x00b29000
     3cc:	98019900 	.word	0x98019900
     3d0:	f93af000 	.word	0xf93af000
     3d4:	2f004607 	.word	0x2f004607
     3d8:	e7b3d100 	.word	0xe7b3d100
     3dc:	e7b1200e 	.word	0xe7b1200e
     3e0:	f7ff1d20 	.word	0xf7ff1d20
     3e4:	4605ff60 	.word	0x4605ff60
     3e8:	d0012d00 	.word	0xd0012d00
     3ec:	e7a94628 	.word	0xe7a94628
     3f0:	28006860 	.word	0x28006860
     3f4:	f7ffd107 	.word	0xf7ffd107
     3f8:	2003ff4f 	.word	0x2003ff4f
     3fc:	f0000280 	.word	0xf0000280
     400:	f000f8e9 	.word	0xf000f8e9
     404:	f7fff8c9 	.word	0xf7fff8c9
     408:	2001ff47 	.word	0x2001ff47
     40c:	f00002c0 	.word	0xf00002c0
     410:	2204f8e1 	.word	0x2204f8e1
     414:	48694621 	.word	0x48694621
     418:	ff2df7ff 	.word	0xff2df7ff
     41c:	d0012800 	.word	0xd0012800
     420:	e78f2003 	.word	0xe78f2003
     424:	46212208 	.word	0x46212208
     428:	f0004864 	.word	0xf0004864
     42c:	2800f90d 	.word	0x2800f90d
     430:	2100d106 	.word	0x2100d106
     434:	68004862 	.word	0x68004862
     438:	ff06f7ff 	.word	0xff06f7ff
     43c:	f8acf000 	.word	0xf8acf000
     440:	e77f2003 	.word	0xe77f2003
     444:	2000bf00 	.word	0x2000bf00
     448:	b570e77c 	.word	0xb570e77c
     44c:	460c4605 	.word	0x460c4605
     450:	d1042d18 	.word	0xd1042d18
     454:	f7ff6820 	.word	0xf7ff6820
     458:	6020ff64 	.word	0x6020ff64
     45c:	2001e002 	.word	0x2001e002
     460:	bf006020 	.word	0xbf006020
     464:	bd70bf00 	.word	0xbd70bf00
     468:	b089b5f0 	.word	0xb089b5f0
     46c:	69404852 	.word	0x69404852
     470:	48529003 	.word	0x48529003
     474:	00816880 	.word	0x00816880
     478:	18089803 	.word	0x18089803
     47c:	98039002 	.word	0x98039002
     480:	90010b00 	.word	0x90010b00
     484:	03092101 	.word	0x03092101
     488:	18409802 	.word	0x18409802
     48c:	0b001e40 	.word	0x0b001e40
     490:	24019000 	.word	0x24019000
     494:	46202500 	.word	0x46202500
     498:	9a014629 	.word	0x9a014629
     49c:	f8c4f000 	.word	0xf8c4f000
     4a0:	1e402200 	.word	0x1e402200
     4a4:	91074191 	.word	0x91074191
     4a8:	26019006 	.word	0x26019006
     4ac:	46302700 	.word	0x46302700
     4b0:	9a004639 	.word	0x9a004639
     4b4:	f8b8f000 	.word	0xf8b8f000
     4b8:	1e402200 	.word	0x1e402200
     4bc:	91054191 	.word	0x91054191
     4c0:	9b049004 	.word	0x9b049004
     4c4:	9a0543db 	.word	0x9a0543db
     4c8:	980643d2 	.word	0x980643d2
     4cc:	99074318 	.word	0x99074318
     4d0:	91074311 	.word	0x91074311
     4d4:	49379006 	.word	0x49379006
     4d8:	60089806 	.word	0x60089806
     4dc:	60489807 	.word	0x60489807
     4e0:	bdf0b009 	.word	0xbdf0b009
     4e4:	4834b570 	.word	0x4834b570
     4e8:	48346944 	.word	0x48346944
     4ec:	68466885 	.word	0x68466885
     4f0:	463100aa 	.word	0x463100aa
     4f4:	f0004620 	.word	0xf0004620
     4f8:	2800f8a7 	.word	0x2800f8a7
     4fc:	2000d001 	.word	0x2000d001
     500:	2001bd70 	.word	0x2001bd70
     504:	482de7fc 	.word	0x482de7fc
     508:	28006840 	.word	0x28006840
     50c:	2001d001 	.word	0x2001d001
     510:	2000e000 	.word	0x2000e000
     514:	f7ff4605 	.word	0xf7ff4605
     518:	2800ffe5 	.word	0x2800ffe5
     51c:	f7ffd007 	.word	0xf7ffd007
     520:	2003febb 	.word	0x2003febb
     524:	f0000280 	.word	0xf0000280
     528:	f000f855 	.word	0xf000f855
     52c:	f7fff835 	.word	0xf7fff835
     530:	2d00ff9b 	.word	0x2d00ff9b
     534:	4820d00e 	.word	0x4820d00e
     538:	48206946 	.word	0x48206946
     53c:	68476884 	.word	0x68476884
     540:	46304621 	.word	0x46304621
     544:	fec9f7ff 	.word	0xfec9f7ff
     548:	46394622 	.word	0x46394622
     54c:	f7ff4630 	.word	0xf7ff4630
     550:	bf00feb4 	.word	0xbf00feb4
     554:	f820f000 	.word	0xf820f000
     558:	4818b510 	.word	0x4818b510
     55c:	481a6844 	.word	0x481a6844
     560:	46206004 	.word	0x46206004
     564:	f8dcf000 	.word	0xf8dcf000
     568:	4815bd10 	.word	0x4815bd10
     56c:	68006800 	.word	0x68006800
     570:	d1011c40 	.word	0xd1011c40
     574:	e7febf00 	.word	0xe7febf00
     578:	68004810 	.word	0x68004810
     57c:	d0022800 	.word	0xd0022800
     580:	d1062804 	.word	0xd1062804
     584:	f7ffe001 	.word	0xf7ffe001
     588:	f7ffffbe 	.word	0xf7ffffbe
     58c:	bf00ffe5 	.word	0xbf00ffe5
     590:	bf00e7fe 	.word	0xbf00e7fe
     594:	e7febf00 	.word	0xe7febf00
     598:	8f4ff3bf 	.word	0x8f4ff3bf
     59c:	490c480b 	.word	0x490c480b
     5a0:	f3bf60c8 	.word	0xf3bf60c8
     5a4:	bf008f4f 	.word	0xbf008f4f
     5a8:	0000e7fe 	.word	0x0000e7fe
     5ac:	4001e500 	.word	0x4001e500
     5b0:	4001e400 	.word	0x4001e400
     5b4:	40000600 	.word	0x40000600
     5b8:	10001000 	.word	0x10001000
     5bc:	00000800 	.word	0x00000800
     5c0:	000007b8 	.word	0x000007b8
     5c4:	000007bc 	.word	0x000007bc
     5c8:	20000000 	.word	0x20000000
     5cc:	05fa0004 	.word	0x05fa0004
     5d0:	e000ed00 	.word	0xe000ed00
     5d4:	4601b510 	.word	0x4601b510
     5d8:	681a4b10 	.word	0x681a4b10
     5dc:	23024608 	.word	0x23024608
     5e0:	60634c0f 	.word	0x60634c0f
     5e4:	4b0fbf00 	.word	0x4b0fbf00
     5e8:	2b00681b 	.word	0x2b00681b
     5ec:	1c53d0fb 	.word	0x1c53d0fb
     5f0:	4290d004 	.word	0x4290d004
     5f4:	4b0ad202 	.word	0x4b0ad202
     5f8:	e0016118 	.word	0xe0016118
     5fc:	60984b08 	.word	0x60984b08
     600:	4b08bf00 	.word	0x4b08bf00
     604:	2b00681b 	.word	0x2b00681b
     608:	2300d0fb 	.word	0x2300d0fb
     60c:	60634c04 	.word	0x60634c04
     610:	4b04bf00 	.word	0x4b04bf00
     614:	2b00681b 	.word	0x2b00681b
     618:	bd10d0fb 	.word	0xbd10d0fb
     61c:	10001000 	.word	0x10001000
     620:	4001e500 	.word	0x4001e500
     624:	4001e400 	.word	0x4001e400
     628:	2a20b510 	.word	0x2a20b510
     62c:	4601db04 	.word	0x4601db04
     630:	40913a20 	.word	0x40913a20
     634:	bd102000 	.word	0xbd102000
     638:	23204091 	.word	0x23204091
     63c:	46031a9c 	.word	0x46031a9c
     640:	431940e3 	.word	0x431940e3
     644:	bd104090 	.word	0xbd104090
     648:	b5104603 	.word	0xb5104603
     64c:	079b430b 	.word	0x079b430b
     650:	2a04d10f 	.word	0x2a04d10f
     654:	c808d30d 	.word	0xc808d30d
     658:	1f12c910 	.word	0x1f12c910
     65c:	d0f842a3 	.word	0xd0f842a3
     660:	ba21ba18 	.word	0xba21ba18
     664:	d9014288 	.word	0xd9014288
     668:	bd102001 	.word	0xbd102001
     66c:	43c02000 	.word	0x43c02000
     670:	2a00bd10 	.word	0x2a00bd10
     674:	07d3d003 	.word	0x07d3d003
     678:	1c52d003 	.word	0x1c52d003
     67c:	2000e007 	.word	0x2000e007
     680:	7803bd10 	.word	0x7803bd10
     684:	1c40780c 	.word	0x1c40780c
     688:	1b1b1c49 	.word	0x1b1b1c49
     68c:	7803d107 	.word	0x7803d107
     690:	1c40780c 	.word	0x1c40780c
     694:	1b1b1c49 	.word	0x1b1b1c49
     698:	1e92d101 	.word	0x1e92d101
     69c:	4618d1f1 	.word	0x4618d1f1
     6a0:	4770bd10 	.word	0x4770bd10
     6a4:	47704770 	.word	0x47704770
     6a8:	f000b510 	.word	0xf000b510
     6ac:	bd10f807 	.word	0xbd10f807
     6b0:	681b4b01 	.word	0x681b4b01
     6b4:	471868db 	.word	0x471868db
     6b8:	20000000 	.word	0x20000000
     6bc:	491a4819 	.word	0x491a4819
     6c0:	f7ff4770 	.word	0xf7ff4770
     6c4:	f7fffffb 	.word	0xf7fffffb
     6c8:	bd00fcfb 	.word	0xbd00fcfb
     6cc:	e7fdbf20 	.word	0xe7fdbf20
     6d0:	4c174916 	.word	0x4c174916
     6d4:	428c6824 	.word	0x428c6824
     6d8:	4b16d10b 	.word	0x4b16d10b
     6dc:	4299681b 	.word	0x4299681b
     6e0:	4b15d10c 	.word	0x4b15d10c
     6e4:	60134a15 	.word	0x60134a15
     6e8:	49106818 	.word	0x49106818
     6ec:	d0ed4288 	.word	0xd0ed4288
     6f0:	4813e00a 	.word	0x4813e00a
     6f4:	8808f380 	.word	0x8808f380
     6f8:	47184b12 	.word	0x47184b12
     6fc:	60134a0f 	.word	0x60134a0f
     700:	490a6818 	.word	0x490a6818
     704:	d0e14288 	.word	0xd0e14288
     708:	8808f380 	.word	0x8808f380
     70c:	4288490e 	.word	0x4288490e
     710:	480edd04 	.word	0x480edd04
     714:	21026802 	.word	0x21026802
     718:	6002430a 	.word	0x6002430a
     71c:	4718685b 	.word	0x4718685b
     720:	e7df4603 	.word	0xe7df4603
     724:	000007c0 	.word	0x000007c0
     728:	000007c0 	.word	0x000007c0
     72c:	ffffffff 	.word	0xffffffff
     730:	00000c00 	.word	0x00000c00
     734:	10001014 	.word	0x10001014
     738:	00001000 	.word	0x00001000
     73c:	20000000 	.word	0x20000000
     740:	20000400 	.word	0x20000400
     744:	0000056b 	.word	0x0000056b
     748:	20002000 	.word	0x20002000
     74c:	40000524 	.word	0x40000524
     750:	4570480d 	.word	0x4570480d
     754:	f3efd102 	.word	0xf3efd102
     758:	e0018109 	.word	0xe0018109
     75c:	8108f3ef 	.word	0x8108f3ef
     760:	38026988 	.word	0x38026988
     764:	28187800 	.word	0x28187800
     768:	46c0d102 	.word	0x46c0d102
     76c:	47104a07 	.word	0x47104a07
     770:	68124a07 	.word	0x68124a07
     774:	6812322c 	.word	0x6812322c
     778:	00004710 	.word	0x00004710
     77c:	4b05b500 	.word	0x4b05b500
     780:	589b4a05 	.word	0x589b4a05
     784:	bd004798 	.word	0xbd004798
     788:	fffffffd 	.word	0xfffffffd
     78c:	0000044b 	.word	0x0000044b
     790:	20000000 	.word	0x20000000
     794:	00001000 	.word	0x00001000
     798:	00000004 	.word	0x00000004
     79c:	4674b430 	.word	0x4674b430
     7a0:	78251e64 	.word	0x78251e64
     7a4:	42ab1c64 	.word	0x42ab1c64
     7a8:	5d63d304 	.word	0x5d63d304
     7ac:	18e3005b 	.word	0x18e3005b
     7b0:	4718bc30 	.word	0x4718bc30
     7b4:	e7f8461d 	.word	0xe7f8461d
     7b8:	00000c00 	.word	0x00000c00
     7bc:	00001000 	.word	0x00001000
     7c0:	ffffffff 	.word	0xffffffff
     7c4:	ffffffff 	.word	0xffffffff
     7c8:	ffffffff 	.word	0xffffffff
     7cc:	ffffffff 	.word	0xffffffff
     7d0:	ffffffff 	.word	0xffffffff
     7d4:	ffffffff 	.word	0xffffffff
     7d8:	ffffffff 	.word	0xffffffff
     7dc:	ffffffff 	.word	0xffffffff
     7e0:	ffffffff 	.word	0xffffffff
     7e4:	ffffffff 	.word	0xffffffff
     7e8:	ffffffff 	.word	0xffffffff
     7ec:	ffffffff 	.word	0xffffffff
     7f0:	ffffffff 	.word	0xffffffff
     7f4:	ffffffff 	.word	0xffffffff
     7f8:	ffffffff 	.word	0xffffffff
     7fc:	ffffffff 	.word	0xffffffff
     800:	ffffffff 	.word	0xffffffff
     804:	ffffffff 	.word	0xffffffff
     808:	ffffffff 	.word	0xffffffff
     80c:	ffffffff 	.word	0xffffffff
     810:	ffffffff 	.word	0xffffffff
     814:	ffffffff 	.word	0xffffffff
     818:	ffffffff 	.word	0xffffffff
     81c:	ffffffff 	.word	0xffffffff
     820:	ffffffff 	.word	0xffffffff
     824:	ffffffff 	.word	0xffffffff
     828:	ffffffff 	.word	0xffffffff
     82c:	ffffffff 	.word	0xffffffff
     830:	ffffffff 	.word	0xffffffff
     834:	ffffffff 	.word	0xffffffff
     838:	ffffffff 	.word	0xffffffff
     83c:	ffffffff 	.word	0xffffffff
     840:	ffffffff 	.word	0xffffffff
     844:	ffffffff 	.word	0xffffffff
     848:	ffffffff 	.word	0xffffffff
     84c:	ffffffff 	.word	0xffffffff
     850:	ffffffff 	.word	0xffffffff
     854:	ffffffff 	.word	0xffffffff
     858:	ffffffff 	.word	0xffffffff
     85c:	ffffffff 	.word	0xffffffff
     860:	ffffffff 	.word	0xffffffff
     864:	ffffffff 	.word	0xffffffff
     868:	ffffffff 	.word	0xffffffff
     86c:	ffffffff 	.word	0xffffffff
     870:	ffffffff 	.word	0xffffffff
     874:	ffffffff 	.word	0xffffffff
     878:	ffffffff 	.word	0xffffffff
     87c:	ffffffff 	.word	0xffffffff
     880:	ffffffff 	.word	0xffffffff
     884:	ffffffff 	.word	0xffffffff
     888:	ffffffff 	.word	0xffffffff
     88c:	ffffffff 	.word	0xffffffff
     890:	ffffffff 	.word	0xffffffff
     894:	ffffffff 	.word	0xffffffff
     898:	ffffffff 	.word	0xffffffff
     89c:	ffffffff 	.word	0xffffffff
     8a0:	ffffffff 	.word	0xffffffff
     8a4:	ffffffff 	.word	0xffffffff
     8a8:	ffffffff 	.word	0xffffffff
     8ac:	ffffffff 	.word	0xffffffff
     8b0:	ffffffff 	.word	0xffffffff
     8b4:	ffffffff 	.word	0xffffffff
     8b8:	ffffffff 	.word	0xffffffff
     8bc:	ffffffff 	.word	0xffffffff
     8c0:	ffffffff 	.word	0xffffffff
     8c4:	ffffffff 	.word	0xffffffff
     8c8:	ffffffff 	.word	0xffffffff
     8cc:	ffffffff 	.word	0xffffffff
     8d0:	ffffffff 	.word	0xffffffff
     8d4:	ffffffff 	.word	0xffffffff
     8d8:	ffffffff 	.word	0xffffffff
     8dc:	ffffffff 	.word	0xffffffff
     8e0:	ffffffff 	.word	0xffffffff
     8e4:	ffffffff 	.word	0xffffffff
     8e8:	ffffffff 	.word	0xffffffff
     8ec:	ffffffff 	.word	0xffffffff
     8f0:	ffffffff 	.word	0xffffffff
     8f4:	ffffffff 	.word	0xffffffff
     8f8:	ffffffff 	.word	0xffffffff
     8fc:	ffffffff 	.word	0xffffffff
     900:	ffffffff 	.word	0xffffffff
     904:	ffffffff 	.word	0xffffffff
     908:	ffffffff 	.word	0xffffffff
     90c:	ffffffff 	.word	0xffffffff
     910:	ffffffff 	.word	0xffffffff
     914:	ffffffff 	.word	0xffffffff
     918:	ffffffff 	.word	0xffffffff
     91c:	ffffffff 	.word	0xffffffff
     920:	ffffffff 	.word	0xffffffff
     924:	ffffffff 	.word	0xffffffff
     928:	ffffffff 	.word	0xffffffff
     92c:	ffffffff 	.word	0xffffffff
     930:	ffffffff 	.word	0xffffffff
     934:	ffffffff 	.word	0xffffffff
     938:	ffffffff 	.word	0xffffffff
     93c:	ffffffff 	.word	0xffffffff
     940:	ffffffff 	.word	0xffffffff
     944:	ffffffff 	.word	0xffffffff
     948:	ffffffff 	.word	0xffffffff
     94c:	ffffffff 	.word	0xffffffff
     950:	ffffffff 	.word	0xffffffff
     954:	ffffffff 	.word	0xffffffff
     958:	ffffffff 	.word	0xffffffff
     95c:	ffffffff 	.word	0xffffffff
     960:	ffffffff 	.word	0xffffffff
     964:	ffffffff 	.word	0xffffffff
     968:	ffffffff 	.word	0xffffffff
     96c:	ffffffff 	.word	0xffffffff
     970:	ffffffff 	.word	0xffffffff
     974:	ffffffff 	.word	0xffffffff
     978:	ffffffff 	.word	0xffffffff
     97c:	ffffffff 	.word	0xffffffff
     980:	ffffffff 	.word	0xffffffff
     984:	ffffffff 	.word	0xffffffff
     988:	ffffffff 	.word	0xffffffff
     98c:	ffffffff 	.word	0xffffffff
     990:	ffffffff 	.word	0xffffffff
     994:	ffffffff 	.word	0xffffffff
     998:	ffffffff 	.word	0xffffffff
     99c:	ffffffff 	.word	0xffffffff
     9a0:	ffffffff 	.word	0xffffffff
     9a4:	ffffffff 	.word	0xffffffff
     9a8:	ffffffff 	.word	0xffffffff
     9ac:	ffffffff 	.word	0xffffffff
     9b0:	ffffffff 	.word	0xffffffff
     9b4:	ffffffff 	.word	0xffffffff
     9b8:	ffffffff 	.word	0xffffffff
     9bc:	ffffffff 	.word	0xffffffff
     9c0:	ffffffff 	.word	0xffffffff
     9c4:	ffffffff 	.word	0xffffffff
     9c8:	ffffffff 	.word	0xffffffff
     9cc:	ffffffff 	.word	0xffffffff
     9d0:	ffffffff 	.word	0xffffffff
     9d4:	ffffffff 	.word	0xffffffff
     9d8:	ffffffff 	.word	0xffffffff
     9dc:	ffffffff 	.word	0xffffffff
     9e0:	ffffffff 	.word	0xffffffff
     9e4:	ffffffff 	.word	0xffffffff
     9e8:	ffffffff 	.word	0xffffffff
     9ec:	ffffffff 	.word	0xffffffff
     9f0:	ffffffff 	.word	0xffffffff
     9f4:	ffffffff 	.word	0xffffffff
     9f8:	ffffffff 	.word	0xffffffff
     9fc:	ffffffff 	.word	0xffffffff
     a00:	ffffffff 	.word	0xffffffff
     a04:	ffffffff 	.word	0xffffffff
     a08:	ffffffff 	.word	0xffffffff
     a0c:	ffffffff 	.word	0xffffffff
     a10:	ffffffff 	.word	0xffffffff
     a14:	ffffffff 	.word	0xffffffff
     a18:	ffffffff 	.word	0xffffffff
     a1c:	ffffffff 	.word	0xffffffff
     a20:	ffffffff 	.word	0xffffffff
     a24:	ffffffff 	.word	0xffffffff
     a28:	ffffffff 	.word	0xffffffff
     a2c:	ffffffff 	.word	0xffffffff
     a30:	ffffffff 	.word	0xffffffff
     a34:	ffffffff 	.word	0xffffffff
     a38:	ffffffff 	.word	0xffffffff
     a3c:	ffffffff 	.word	0xffffffff
     a40:	ffffffff 	.word	0xffffffff
     a44:	ffffffff 	.word	0xffffffff
     a48:	ffffffff 	.word	0xffffffff
     a4c:	ffffffff 	.word	0xffffffff
     a50:	ffffffff 	.word	0xffffffff
     a54:	ffffffff 	.word	0xffffffff
     a58:	ffffffff 	.word	0xffffffff
     a5c:	ffffffff 	.word	0xffffffff
     a60:	ffffffff 	.word	0xffffffff
     a64:	ffffffff 	.word	0xffffffff
     a68:	ffffffff 	.word	0xffffffff
     a6c:	ffffffff 	.word	0xffffffff
     a70:	ffffffff 	.word	0xffffffff
     a74:	ffffffff 	.word	0xffffffff
     a78:	ffffffff 	.word	0xffffffff
     a7c:	ffffffff 	.word	0xffffffff
     a80:	ffffffff 	.word	0xffffffff
     a84:	ffffffff 	.word	0xffffffff
     a88:	ffffffff 	.word	0xffffffff
     a8c:	ffffffff 	.word	0xffffffff
     a90:	ffffffff 	.word	0xffffffff
     a94:	ffffffff 	.word	0xffffffff
     a98:	ffffffff 	.word	0xffffffff
     a9c:	ffffffff 	.word	0xffffffff
     aa0:	ffffffff 	.word	0xffffffff
     aa4:	ffffffff 	.word	0xffffffff
     aa8:	ffffffff 	.word	0xffffffff
     aac:	ffffffff 	.word	0xffffffff
     ab0:	ffffffff 	.word	0xffffffff
     ab4:	ffffffff 	.word	0xffffffff
     ab8:	ffffffff 	.word	0xffffffff
     abc:	ffffffff 	.word	0xffffffff
     ac0:	ffffffff 	.word	0xffffffff
     ac4:	ffffffff 	.word	0xffffffff
     ac8:	ffffffff 	.word	0xffffffff
     acc:	ffffffff 	.word	0xffffffff
     ad0:	ffffffff 	.word	0xffffffff
     ad4:	ffffffff 	.word	0xffffffff
     ad8:	ffffffff 	.word	0xffffffff
     adc:	ffffffff 	.word	0xffffffff
     ae0:	ffffffff 	.word	0xffffffff
     ae4:	ffffffff 	.word	0xffffffff
     ae8:	ffffffff 	.word	0xffffffff
     aec:	ffffffff 	.word	0xffffffff
     af0:	ffffffff 	.word	0xffffffff
     af4:	ffffffff 	.word	0xffffffff
     af8:	ffffffff 	.word	0xffffffff
     afc:	ffffffff 	.word	0xffffffff
     b00:	ffffffff 	.word	0xffffffff
     b04:	ffffffff 	.word	0xffffffff
     b08:	ffffffff 	.word	0xffffffff
     b0c:	ffffffff 	.word	0xffffffff
     b10:	ffffffff 	.word	0xffffffff
     b14:	ffffffff 	.word	0xffffffff
     b18:	ffffffff 	.word	0xffffffff
     b1c:	ffffffff 	.word	0xffffffff
     b20:	ffffffff 	.word	0xffffffff
     b24:	ffffffff 	.word	0xffffffff
     b28:	ffffffff 	.word	0xffffffff
     b2c:	ffffffff 	.word	0xffffffff
     b30:	ffffffff 	.word	0xffffffff
     b34:	ffffffff 	.word	0xffffffff
     b38:	ffffffff 	.word	0xffffffff
     b3c:	ffffffff 	.word	0xffffffff
     b40:	ffffffff 	.word	0xffffffff
     b44:	ffffffff 	.word	0xffffffff
     b48:	ffffffff 	.word	0xffffffff
     b4c:	ffffffff 	.word	0xffffffff
     b50:	ffffffff 	.word	0xffffffff
     b54:	ffffffff 	.word	0xffffffff
     b58:	ffffffff 	.word	0xffffffff
     b5c:	ffffffff 	.word	0xffffffff
     b60:	ffffffff 	.word	0xffffffff
     b64:	ffffffff 	.word	0xffffffff
     b68:	ffffffff 	.word	0xffffffff
     b6c:	ffffffff 	.word	0xffffffff
     b70:	ffffffff 	.word	0xffffffff
     b74:	ffffffff 	.word	0xffffffff
     b78:	ffffffff 	.word	0xffffffff
     b7c:	ffffffff 	.word	0xffffffff
     b80:	ffffffff 	.word	0xffffffff
     b84:	ffffffff 	.word	0xffffffff
     b88:	ffffffff 	.word	0xffffffff
     b8c:	ffffffff 	.word	0xffffffff
     b90:	ffffffff 	.word	0xffffffff
     b94:	ffffffff 	.word	0xffffffff
     b98:	ffffffff 	.word	0xffffffff
     b9c:	ffffffff 	.word	0xffffffff
     ba0:	ffffffff 	.word	0xffffffff
     ba4:	ffffffff 	.word	0xffffffff
     ba8:	ffffffff 	.word	0xffffffff
     bac:	ffffffff 	.word	0xffffffff
     bb0:	ffffffff 	.word	0xffffffff
     bb4:	ffffffff 	.word	0xffffffff
     bb8:	ffffffff 	.word	0xffffffff
     bbc:	ffffffff 	.word	0xffffffff
     bc0:	ffffffff 	.word	0xffffffff
     bc4:	ffffffff 	.word	0xffffffff
     bc8:	ffffffff 	.word	0xffffffff
     bcc:	ffffffff 	.word	0xffffffff
     bd0:	ffffffff 	.word	0xffffffff
     bd4:	ffffffff 	.word	0xffffffff
     bd8:	ffffffff 	.word	0xffffffff
     bdc:	ffffffff 	.word	0xffffffff
     be0:	ffffffff 	.word	0xffffffff
     be4:	ffffffff 	.word	0xffffffff
     be8:	ffffffff 	.word	0xffffffff
     bec:	ffffffff 	.word	0xffffffff
     bf0:	ffffffff 	.word	0xffffffff
     bf4:	ffffffff 	.word	0xffffffff
     bf8:	ffffffff 	.word	0xffffffff
     bfc:	ffffffff 	.word	0xffffffff
     c00:	ffffffff 	.word	0xffffffff
     c04:	ffffffff 	.word	0xffffffff
     c08:	ffffffff 	.word	0xffffffff
     c0c:	ffffffff 	.word	0xffffffff
     c10:	ffffffff 	.word	0xffffffff
     c14:	ffffffff 	.word	0xffffffff
     c18:	ffffffff 	.word	0xffffffff
     c1c:	ffffffff 	.word	0xffffffff
     c20:	ffffffff 	.word	0xffffffff
     c24:	ffffffff 	.word	0xffffffff
     c28:	ffffffff 	.word	0xffffffff
     c2c:	ffffffff 	.word	0xffffffff
     c30:	ffffffff 	.word	0xffffffff
     c34:	ffffffff 	.word	0xffffffff
     c38:	ffffffff 	.word	0xffffffff
     c3c:	ffffffff 	.word	0xffffffff
     c40:	ffffffff 	.word	0xffffffff
     c44:	ffffffff 	.word	0xffffffff
     c48:	ffffffff 	.word	0xffffffff
     c4c:	ffffffff 	.word	0xffffffff
     c50:	ffffffff 	.word	0xffffffff
     c54:	ffffffff 	.word	0xffffffff
     c58:	ffffffff 	.word	0xffffffff
     c5c:	ffffffff 	.word	0xffffffff
     c60:	ffffffff 	.word	0xffffffff
     c64:	ffffffff 	.word	0xffffffff
     c68:	ffffffff 	.word	0xffffffff
     c6c:	ffffffff 	.word	0xffffffff
     c70:	ffffffff 	.word	0xffffffff
     c74:	ffffffff 	.word	0xffffffff
     c78:	ffffffff 	.word	0xffffffff
     c7c:	ffffffff 	.word	0xffffffff
     c80:	ffffffff 	.word	0xffffffff
     c84:	ffffffff 	.word	0xffffffff
     c88:	ffffffff 	.word	0xffffffff
     c8c:	ffffffff 	.word	0xffffffff
     c90:	ffffffff 	.word	0xffffffff
     c94:	ffffffff 	.word	0xffffffff
     c98:	ffffffff 	.word	0xffffffff
     c9c:	ffffffff 	.word	0xffffffff
     ca0:	ffffffff 	.word	0xffffffff
     ca4:	ffffffff 	.word	0xffffffff
     ca8:	ffffffff 	.word	0xffffffff
     cac:	ffffffff 	.word	0xffffffff
     cb0:	ffffffff 	.word	0xffffffff
     cb4:	ffffffff 	.word	0xffffffff
     cb8:	ffffffff 	.word	0xffffffff
     cbc:	ffffffff 	.word	0xffffffff
     cc0:	ffffffff 	.word	0xffffffff
     cc4:	ffffffff 	.word	0xffffffff
     cc8:	ffffffff 	.word	0xffffffff
     ccc:	ffffffff 	.word	0xffffffff
     cd0:	ffffffff 	.word	0xffffffff
     cd4:	ffffffff 	.word	0xffffffff
     cd8:	ffffffff 	.word	0xffffffff
     cdc:	ffffffff 	.word	0xffffffff
     ce0:	ffffffff 	.word	0xffffffff
     ce4:	ffffffff 	.word	0xffffffff
     ce8:	ffffffff 	.word	0xffffffff
     cec:	ffffffff 	.word	0xffffffff
     cf0:	ffffffff 	.word	0xffffffff
     cf4:	ffffffff 	.word	0xffffffff
     cf8:	ffffffff 	.word	0xffffffff
     cfc:	ffffffff 	.word	0xffffffff
     d00:	ffffffff 	.word	0xffffffff
     d04:	ffffffff 	.word	0xffffffff
     d08:	ffffffff 	.word	0xffffffff
     d0c:	ffffffff 	.word	0xffffffff
     d10:	ffffffff 	.word	0xffffffff
     d14:	ffffffff 	.word	0xffffffff
     d18:	ffffffff 	.word	0xffffffff
     d1c:	ffffffff 	.word	0xffffffff
     d20:	ffffffff 	.word	0xffffffff
     d24:	ffffffff 	.word	0xffffffff
     d28:	ffffffff 	.word	0xffffffff
     d2c:	ffffffff 	.word	0xffffffff
     d30:	ffffffff 	.word	0xffffffff
     d34:	ffffffff 	.word	0xffffffff
     d38:	ffffffff 	.word	0xffffffff
     d3c:	ffffffff 	.word	0xffffffff
     d40:	ffffffff 	.word	0xffffffff
     d44:	ffffffff 	.word	0xffffffff
     d48:	ffffffff 	.word	0xffffffff
     d4c:	ffffffff 	.word	0xffffffff
     d50:	ffffffff 	.word	0xffffffff
     d54:	ffffffff 	.word	0xffffffff
     d58:	ffffffff 	.word	0xffffffff
     d5c:	ffffffff 	.word	0xffffffff
     d60:	ffffffff 	.word	0xffffffff
     d64:	ffffffff 	.word	0xffffffff
     d68:	ffffffff 	.word	0xffffffff
     d6c:	ffffffff 	.word	0xffffffff
     d70:	ffffffff 	.word	0xffffffff
     d74:	ffffffff 	.word	0xffffffff
     d78:	ffffffff 	.word	0xffffffff
     d7c:	ffffffff 	.word	0xffffffff
     d80:	ffffffff 	.word	0xffffffff
     d84:	ffffffff 	.word	0xffffffff
     d88:	ffffffff 	.word	0xffffffff
     d8c:	ffffffff 	.word	0xffffffff
     d90:	ffffffff 	.word	0xffffffff
     d94:	ffffffff 	.word	0xffffffff
     d98:	ffffffff 	.word	0xffffffff
     d9c:	ffffffff 	.word	0xffffffff
     da0:	ffffffff 	.word	0xffffffff
     da4:	ffffffff 	.word	0xffffffff
     da8:	ffffffff 	.word	0xffffffff
     dac:	ffffffff 	.word	0xffffffff
     db0:	ffffffff 	.word	0xffffffff
     db4:	ffffffff 	.word	0xffffffff
     db8:	ffffffff 	.word	0xffffffff
     dbc:	ffffffff 	.word	0xffffffff
     dc0:	ffffffff 	.word	0xffffffff
     dc4:	ffffffff 	.word	0xffffffff
     dc8:	ffffffff 	.word	0xffffffff
     dcc:	ffffffff 	.word	0xffffffff
     dd0:	ffffffff 	.word	0xffffffff
     dd4:	ffffffff 	.word	0xffffffff
     dd8:	ffffffff 	.word	0xffffffff
     ddc:	ffffffff 	.word	0xffffffff
     de0:	ffffffff 	.word	0xffffffff
     de4:	ffffffff 	.word	0xffffffff
     de8:	ffffffff 	.word	0xffffffff
     dec:	ffffffff 	.word	0xffffffff
     df0:	ffffffff 	.word	0xffffffff
     df4:	ffffffff 	.word	0xffffffff
     df8:	ffffffff 	.word	0xffffffff
     dfc:	ffffffff 	.word	0xffffffff
     e00:	ffffffff 	.word	0xffffffff
     e04:	ffffffff 	.word	0xffffffff
     e08:	ffffffff 	.word	0xffffffff
     e0c:	ffffffff 	.word	0xffffffff
     e10:	ffffffff 	.word	0xffffffff
     e14:	ffffffff 	.word	0xffffffff
     e18:	ffffffff 	.word	0xffffffff
     e1c:	ffffffff 	.word	0xffffffff
     e20:	ffffffff 	.word	0xffffffff
     e24:	ffffffff 	.word	0xffffffff
     e28:	ffffffff 	.word	0xffffffff
     e2c:	ffffffff 	.word	0xffffffff
     e30:	ffffffff 	.word	0xffffffff
     e34:	ffffffff 	.word	0xffffffff
     e38:	ffffffff 	.word	0xffffffff
     e3c:	ffffffff 	.word	0xffffffff
     e40:	ffffffff 	.word	0xffffffff
     e44:	ffffffff 	.word	0xffffffff
     e48:	ffffffff 	.word	0xffffffff
     e4c:	ffffffff 	.word	0xffffffff
     e50:	ffffffff 	.word	0xffffffff
     e54:	ffffffff 	.word	0xffffffff
     e58:	ffffffff 	.word	0xffffffff
     e5c:	ffffffff 	.word	0xffffffff
     e60:	ffffffff 	.word	0xffffffff
     e64:	ffffffff 	.word	0xffffffff
     e68:	ffffffff 	.word	0xffffffff
     e6c:	ffffffff 	.word	0xffffffff
     e70:	ffffffff 	.word	0xffffffff
     e74:	ffffffff 	.word	0xffffffff
     e78:	ffffffff 	.word	0xffffffff
     e7c:	ffffffff 	.word	0xffffffff
     e80:	ffffffff 	.word	0xffffffff
     e84:	ffffffff 	.word	0xffffffff
     e88:	ffffffff 	.word	0xffffffff
     e8c:	ffffffff 	.word	0xffffffff
     e90:	ffffffff 	.word	0xffffffff
     e94:	ffffffff 	.word	0xffffffff
     e98:	ffffffff 	.word	0xffffffff
     e9c:	ffffffff 	.word	0xffffffff
     ea0:	ffffffff 	.word	0xffffffff
     ea4:	ffffffff 	.word	0xffffffff
     ea8:	ffffffff 	.word	0xffffffff
     eac:	ffffffff 	.word	0xffffffff
     eb0:	ffffffff 	.word	0xffffffff
     eb4:	ffffffff 	.word	0xffffffff
     eb8:	ffffffff 	.word	0xffffffff
     ebc:	ffffffff 	.word	0xffffffff
     ec0:	ffffffff 	.word	0xffffffff
     ec4:	ffffffff 	.word	0xffffffff
     ec8:	ffffffff 	.word	0xffffffff
     ecc:	ffffffff 	.word	0xffffffff
     ed0:	ffffffff 	.word	0xffffffff
     ed4:	ffffffff 	.word	0xffffffff
     ed8:	ffffffff 	.word	0xffffffff
     edc:	ffffffff 	.word	0xffffffff
     ee0:	ffffffff 	.word	0xffffffff
     ee4:	ffffffff 	.word	0xffffffff
     ee8:	ffffffff 	.word	0xffffffff
     eec:	ffffffff 	.word	0xffffffff
     ef0:	ffffffff 	.word	0xffffffff
     ef4:	ffffffff 	.word	0xffffffff
     ef8:	ffffffff 	.word	0xffffffff
     efc:	ffffffff 	.word	0xffffffff
     f00:	ffffffff 	.word	0xffffffff
     f04:	ffffffff 	.word	0xffffffff
     f08:	ffffffff 	.word	0xffffffff
     f0c:	ffffffff 	.word	0xffffffff
     f10:	ffffffff 	.word	0xffffffff
     f14:	ffffffff 	.word	0xffffffff
     f18:	ffffffff 	.word	0xffffffff
     f1c:	ffffffff 	.word	0xffffffff
     f20:	ffffffff 	.word	0xffffffff
     f24:	ffffffff 	.word	0xffffffff
     f28:	ffffffff 	.word	0xffffffff
     f2c:	ffffffff 	.word	0xffffffff
     f30:	ffffffff 	.word	0xffffffff
     f34:	ffffffff 	.word	0xffffffff
     f38:	ffffffff 	.word	0xffffffff
     f3c:	ffffffff 	.word	0xffffffff
     f40:	ffffffff 	.word	0xffffffff
     f44:	ffffffff 	.word	0xffffffff
     f48:	ffffffff 	.word	0xffffffff
     f4c:	ffffffff 	.word	0xffffffff
     f50:	ffffffff 	.word	0xffffffff
     f54:	ffffffff 	.word	0xffffffff
     f58:	ffffffff 	.word	0xffffffff
     f5c:	ffffffff 	.word	0xffffffff
     f60:	ffffffff 	.word	0xffffffff
     f64:	ffffffff 	.word	0xffffffff
     f68:	ffffffff 	.word	0xffffffff
     f6c:	ffffffff 	.word	0xffffffff
     f70:	ffffffff 	.word	0xffffffff
     f74:	ffffffff 	.word	0xffffffff
     f78:	ffffffff 	.word	0xffffffff
     f7c:	ffffffff 	.word	0xffffffff
     f80:	ffffffff 	.word	0xffffffff
     f84:	ffffffff 	.word	0xffffffff
     f88:	ffffffff 	.word	0xffffffff
     f8c:	ffffffff 	.word	0xffffffff
     f90:	ffffffff 	.word	0xffffffff
     f94:	ffffffff 	.word	0xffffffff
     f98:	ffffffff 	.word	0xffffffff
     f9c:	ffffffff 	.word	0xffffffff
     fa0:	ffffffff 	.word	0xffffffff
     fa4:	ffffffff 	.word	0xffffffff
     fa8:	ffffffff 	.word	0xffffffff
     fac:	ffffffff 	.word	0xffffffff
     fb0:	ffffffff 	.word	0xffffffff
     fb4:	ffffffff 	.word	0xffffffff
     fb8:	ffffffff 	.word	0xffffffff
     fbc:	ffffffff 	.word	0xffffffff
     fc0:	ffffffff 	.word	0xffffffff
     fc4:	ffffffff 	.word	0xffffffff
     fc8:	ffffffff 	.word	0xffffffff
     fcc:	ffffffff 	.word	0xffffffff
     fd0:	ffffffff 	.word	0xffffffff
     fd4:	ffffffff 	.word	0xffffffff
     fd8:	ffffffff 	.word	0xffffffff
     fdc:	ffffffff 	.word	0xffffffff
     fe0:	ffffffff 	.word	0xffffffff
     fe4:	ffffffff 	.word	0xffffffff
     fe8:	ffffffff 	.word	0xffffffff
     fec:	ffffffff 	.word	0xffffffff
     ff0:	ffffffff 	.word	0xffffffff
     ff4:	ffffffff 	.word	0xffffffff
     ff8:	ffffffff 	.word	0xffffffff
     ffc:	ffffffff 	.word	0xffffffff
    1000:	20001d88 	.word	0x20001d88
    1004:	00014fe1 	.word	0x00014fe1
    1008:	00003d99 	.word	0x00003d99
    100c:	00014f47 	.word	0x00014f47
	...
    102c:	00015051 	.word	0x00015051
	...
    1038:	00003d99 	.word	0x00003d99
    103c:	00003d99 	.word	0x00003d99
    1040:	000150bd 	.word	0x000150bd
    1044:	000150c3 	.word	0x000150c3
    1048:	00003d99 	.word	0x00003d99
    104c:	00003d99 	.word	0x00003d99
    1050:	00003d99 	.word	0x00003d99
    1054:	00003d99 	.word	0x00003d99
    1058:	00003d99 	.word	0x00003d99
    105c:	00003d99 	.word	0x00003d99
    1060:	000150c9 	.word	0x000150c9
    1064:	00003d99 	.word	0x00003d99
    1068:	00003d99 	.word	0x00003d99
    106c:	000150cf 	.word	0x000150cf
    1070:	00003d99 	.word	0x00003d99
    1074:	000150d5 	.word	0x000150d5
    1078:	000150db 	.word	0x000150db
    107c:	000150e1 	.word	0x000150e1
    1080:	00003d99 	.word	0x00003d99
    1084:	00003d99 	.word	0x00003d99
    1088:	00003d99 	.word	0x00003d99
    108c:	00003d99 	.word	0x00003d99
    1090:	00003d99 	.word	0x00003d99
    1094:	00003d99 	.word	0x00003d99
    1098:	00003d99 	.word	0x00003d99
    109c:	00003d99 	.word	0x00003d99
    10a0:	000150e7 	.word	0x000150e7
    10a4:	000150ed 	.word	0x000150ed
    10a8:	00003d99 	.word	0x00003d99
    10ac:	00003d99 	.word	0x00003d99
    10b0:	00003d99 	.word	0x00003d99
    10b4:	00003d99 	.word	0x00003d99
    10b8:	00003d99 	.word	0x00003d99
    10bc:	00003d99 	.word	0x00003d99
    10c0:	f802f000 	.word	0xf802f000
    10c4:	ff6df013 	.word	0xff6df013
    10c8:	c830a00c 	.word	0xc830a00c
    10cc:	18243808 	.word	0x18243808
    10d0:	46a2182d 	.word	0x46a2182d
    10d4:	46ab1e67 	.word	0x46ab1e67
    10d8:	465d4654 	.word	0x465d4654
    10dc:	d10142ac 	.word	0xd10142ac
    10e0:	ff5ff013 	.word	0xff5ff013
    10e4:	3e0f467e 	.word	0x3e0f467e
    10e8:	46b6cc0f 	.word	0x46b6cc0f
    10ec:	42332601 	.word	0x42332601
    10f0:	1afbd000 	.word	0x1afbd000
    10f4:	46ab46a2 	.word	0x46ab46a2
    10f8:	47184333 	.word	0x47184333
    10fc:	000140ac 	.word	0x000140ac
    1100:	000140dc 	.word	0x000140dc
    1104:	d3023a10 	.word	0xd3023a10
    1108:	c178c878 	.word	0xc178c878
    110c:	0752d8fa 	.word	0x0752d8fa
    1110:	c830d301 	.word	0xc830d301
    1114:	d501c130 	.word	0xd501c130
    1118:	600c6804 	.word	0x600c6804
    111c:	00004770 	.word	0x00004770
    1120:	24002300 	.word	0x24002300
    1124:	26002500 	.word	0x26002500
    1128:	d3013a10 	.word	0xd3013a10
    112c:	d8fbc178 	.word	0xd8fbc178
    1130:	d3000752 	.word	0xd3000752
    1134:	d500c130 	.word	0xd500c130
    1138:	4770600b 	.word	0x4770600b
    113c:	46c0b51f 	.word	0x46c0b51f
    1140:	f01346c0 	.word	0xf01346c0
    1144:	b004fecf 	.word	0xb004fecf
    1148:	bd1fb40f 	.word	0xbd1fb40f
    114c:	49026982 	.word	0x49026982
    1150:	48026181 	.word	0x48026181
    1154:	47704410 	.word	0x47704410
    1158:	00001161 	.word	0x00001161
    115c:	00000001 	.word	0x00000001
    1160:	b41eb401 	.word	0xb41eb401
    1164:	f010b500 	.word	0xf010b500
    1168:	b401fbe7 	.word	0xb401fbe7
    116c:	46869801 	.word	0x46869801
    1170:	b001bc01 	.word	0xb001bc01
    1174:	0000bd1e 	.word	0x0000bd1e
    1178:	4640b4f0 	.word	0x4640b4f0
    117c:	46524649 	.word	0x46524649
    1180:	b40f465b 	.word	0xb40f465b
    1184:	3001a002 	.word	0x3001a002
    1188:	4806b501 	.word	0x4806b501
    118c:	bf004700 	.word	0xbf004700
    1190:	4686bc01 	.word	0x4686bc01
    1194:	4680bc0f 	.word	0x4680bc0f
    1198:	46924689 	.word	0x46924689
    119c:	bcf0469b 	.word	0xbcf0469b
    11a0:	00004770 	.word	0x00004770
    11a4:	000010c1 	.word	0x000010c1
    11a8:	bf001e40 	.word	0xbf001e40
    11ac:	bf00bf00 	.word	0xbf00bf00
    11b0:	bf00bf00 	.word	0xbf00bf00
    11b4:	bf00bf00 	.word	0xbf00bf00
    11b8:	bf00bf00 	.word	0xbf00bf00
    11bc:	bf00bf00 	.word	0xbf00bf00
    11c0:	d1f1bf00 	.word	0xd1f1bf00
    11c4:	00004770 	.word	0x00004770
    11c8:	4605b570 	.word	0x4605b570
    11cc:	4616460c 	.word	0x4616460c
    11d0:	cc0fe002 	.word	0xcc0fe002
    11d4:	3e10c50f 	.word	0x3e10c50f
    11d8:	d2fa2e10 	.word	0xd2fa2e10
    11dc:	d3022e08 	.word	0xd3022e08
    11e0:	c503cc03 	.word	0xc503cc03
    11e4:	2e043e08 	.word	0x2e043e08
    11e8:	cc01d307 	.word	0xcc01d307
    11ec:	1f36c501 	.word	0x1f36c501
    11f0:	7821e003 	.word	0x7821e003
    11f4:	1c647029 	.word	0x1c647029
    11f8:	1e761c6d 	.word	0x1e761c6d
    11fc:	bd70d2f9 	.word	0xbd70d2f9
    1200:	22ff0783 	.word	0x22ff0783
    1204:	409a0edb 	.word	0x409a0edb
    1208:	0e090789 	.word	0x0e090789
    120c:	28004099 	.word	0x28004099
    1210:	0700da0b 	.word	0x0700da0b
    1214:	38080f00 	.word	0x38080f00
    1218:	48280883 	.word	0x48280883
    121c:	181b009b 	.word	0x181b009b
    1220:	439069d8 	.word	0x439069d8
    1224:	61d84308 	.word	0x61d84308
    1228:	08834770 	.word	0x08834770
    122c:	009b4824 	.word	0x009b4824
    1230:	6818181b 	.word	0x6818181b
    1234:	43084390 	.word	0x43084390
    1238:	47706018 	.word	0x47706018
    123c:	4604b510 	.word	0x4604b510
    1240:	20012100 	.word	0x20012100
    1244:	ffdcf7ff 	.word	0xffdcf7ff
    1248:	20182100 	.word	0x20182100
    124c:	ffd8f7ff 	.word	0xffd8f7ff
    1250:	200b2100 	.word	0x200b2100
    1254:	ffd4f7ff 	.word	0xffd4f7ff
    1258:	20192102 	.word	0x20192102
    125c:	ffd0f7ff 	.word	0xffd0f7ff
    1260:	200d2102 	.word	0x200d2102
    1264:	ffccf7ff 	.word	0xffccf7ff
    1268:	200e2102 	.word	0x200e2102
    126c:	ffc8f7ff 	.word	0xffc8f7ff
    1270:	200f2102 	.word	0x200f2102
    1274:	ffc4f7ff 	.word	0xffc4f7ff
    1278:	1fc82102 	.word	0x1fc82102
    127c:	ffc0f7ff 	.word	0xffc0f7ff
    1280:	20162103 	.word	0x20162103
    1284:	ffbcf7ff 	.word	0xffbcf7ff
    1288:	20152103 	.word	0x20152103
    128c:	ffb8f7ff 	.word	0xffb8f7ff
    1290:	f0004620 	.word	0xf0004620
    1294:	2000f819 	.word	0x2000f819
    1298:	215abd10 	.word	0x215abd10
    129c:	47708001 	.word	0x47708001
    12a0:	f000b510 	.word	0xf000b510
    12a4:	bd10f83a 	.word	0xbd10f83a
    12a8:	47704806 	.word	0x47704806
    12ac:	f000b510 	.word	0xf000b510
    12b0:	bd10f835 	.word	0xbd10f835
    12b4:	47704770 	.word	0x47704770
    12b8:	00004770 	.word	0x00004770
    12bc:	e000ed00 	.word	0xe000ed00
    12c0:	e000e400 	.word	0xe000e400
    12c4:	c300f903 	.word	0xc300f903
    12c8:	4604b530 	.word	0x4604b530
    12cc:	b0954d37 	.word	0xb0954d37
    12d0:	70282007 	.word	0x70282007
    12d4:	f7ff1ca8 	.word	0xf7ff1ca8
    12d8:	2059ffe0 	.word	0x2059ffe0
    12dc:	483480a8 	.word	0x483480a8
    12e0:	fc1cf001 	.word	0xfc1cf001
    12e4:	20074605 	.word	0x20074605
    12e8:	f9dcf000 	.word	0xf9dcf000
    12ec:	482f4629 	.word	0x482f4629
    12f0:	fa8cf000 	.word	0xfa8cf000
    12f4:	2c071e64 	.word	0x2c071e64
    12f8:	2130d80a 	.word	0x2130d80a
    12fc:	70014668 	.word	0x70014668
    1300:	f0017084 	.word	0xf0017084
    1304:	2800fae0 	.word	0x2800fae0
    1308:	a809d002 	.word	0xa809d002
    130c:	fcddf000 	.word	0xfcddf000
    1310:	f0014628 	.word	0xf0014628
    1314:	b015fe83 	.word	0xb015fe83
    1318:	4770bd30 	.word	0x4770bd30
    131c:	4e23b5f8 	.word	0x4e23b5f8
    1320:	1eb64604 	.word	0x1eb64604
    1324:	27017830 	.word	0x27017830
    1328:	2800460d 	.word	0x2800460d
    132c:	4620d007 	.word	0x4620d007
    1330:	280b3860 	.word	0x280b3860
    1334:	4620d808 	.word	0x4620d808
    1338:	fb9af001 	.word	0xfb9af001
    133c:	2c60e02b 	.word	0x2c60e02b
    1340:	481cd0f9 	.word	0x481cd0f9
    1344:	bdf86008 	.word	0xbdf86008
    1348:	386c4620 	.word	0x386c4620
    134c:	d8032803 	.word	0xd8032803
    1350:	f0014620 	.word	0xf0014620
    1354:	e01efbcf 	.word	0xe01efbcf
    1358:	38704620 	.word	0x38704620
    135c:	d803281f 	.word	0xd803281f
    1360:	f0004620 	.word	0xf0004620
    1364:	e016f837 	.word	0xe016f837
    1368:	38904620 	.word	0x38904620
    136c:	d803280f 	.word	0xd803280f
    1370:	f0004620 	.word	0xf0004620
    1374:	e00ef8bb 	.word	0xe00ef8bb
    1378:	38a04620 	.word	0x38a04620
    137c:	d803280f 	.word	0xd803280f
    1380:	f0004620 	.word	0xf0004620
    1384:	e006f923 	.word	0xe006f923
    1388:	38b04620 	.word	0x38b04620
    138c:	d804280f 	.word	0xd804280f
    1390:	f0004620 	.word	0xf0004620
    1394:	6028f900 	.word	0x6028f900
    1398:	602fe000 	.word	0x602fe000
    139c:	d1d22c60 	.word	0xd1d22c60
    13a0:	28006828 	.word	0x28006828
    13a4:	7037d1cf 	.word	0x7037d1cf
    13a8:	0000bdf8 	.word	0x0000bdf8
    13ac:	2000001a 	.word	0x2000001a
    13b0:	000033c5 	.word	0x000033c5
    13b4:	00003001 	.word	0x00003001
    13b8:	47704770 	.word	0x47704770
    13bc:	47704770 	.word	0x47704770
    13c0:	47704770 	.word	0x47704770
    13c4:	47704770 	.word	0x47704770
    13c8:	2801b510 	.word	0x2801b510
    13cc:	f000d101 	.word	0xf000d101
    13d0:	bd10fa42 	.word	0xbd10fa42
    13d4:	3870b510 	.word	0x3870b510
    13d8:	f0130003 	.word	0xf0130003
    13dc:	0c15fe9f 	.word	0x0c15fe9f
    13e0:	221e1612 	.word	0x221e1612
    13e4:	38332c25 	.word	0x38332c25
    13e8:	4945413d 	.word	0x4945413d
    13ec:	645c5550 	.word	0x645c5550
    13f0:	807b746c 	.word	0x807b746c
    13f4:	684a0085 	.word	0x684a0085
    13f8:	46117808 	.word	0x46117808
    13fc:	ff93f003 	.word	0xff93f003
    1400:	6808bd10 	.word	0x6808bd10
    1404:	fff7f003 	.word	0xfff7f003
    1408:	790cbd10 	.word	0x790cbd10
    140c:	688a7b0b 	.word	0x688a7b0b
    1410:	46216808 	.word	0x46216808
    1414:	fffff003 	.word	0xfffff003
    1418:	6808bd10 	.word	0x6808bd10
    141c:	f875f004 	.word	0xf875f004
    1420:	f003bd10 	.word	0xf003bd10
    1424:	bd10fc3d 	.word	0xbd10fc3d
    1428:	684a8808 	.word	0x684a8808
    142c:	4611b280 	.word	0x4611b280
    1430:	fa3af004 	.word	0xfa3af004
    1434:	790abd10 	.word	0x790abd10
    1438:	46118808 	.word	0x46118808
    143c:	f004b280 	.word	0xf004b280
    1440:	bd10fa86 	.word	0xbd10fa86
    1444:	b2407808 	.word	0xb2407808
    1448:	fa91f004 	.word	0xfa91f004
    144c:	8808bd10 	.word	0x8808bd10
    1450:	f004b280 	.word	0xf004b280
    1454:	bd10faad 	.word	0xbd10faad
    1458:	f0046808 	.word	0xf0046808
    145c:	bd10fabc 	.word	0xbd10fabc
    1460:	f0046808 	.word	0xf0046808
    1464:	bd10facf 	.word	0xbd10facf
    1468:	f0046808 	.word	0xf0046808
    146c:	bd10faf8 	.word	0xbd10faf8
    1470:	b2828908 	.word	0xb2828908
    1474:	4619c909 	.word	0x4619c909
    1478:	fb20f004 	.word	0xfb20f004
    147c:	c905bd10 	.word	0xc905bd10
    1480:	f0044611 	.word	0xf0044611
    1484:	bd10fb74 	.word	0xbd10fb74
    1488:	684a8808 	.word	0x684a8808
    148c:	4611b280 	.word	0x4611b280
    1490:	fb8df004 	.word	0xfb8df004
    1494:	790bbd10 	.word	0x790bbd10
    1498:	688a8808 	.word	0x688a8808
    149c:	4619b280 	.word	0x4619b280
    14a0:	fbe1f004 	.word	0xfbe1f004
    14a4:	790bbd10 	.word	0x790bbd10
    14a8:	688a8808 	.word	0x688a8808
    14ac:	4619b280 	.word	0x4619b280
    14b0:	fc9af004 	.word	0xfc9af004
    14b4:	8808bd10 	.word	0x8808bd10
    14b8:	688a684b 	.word	0x688a684b
    14bc:	4619b280 	.word	0x4619b280
    14c0:	fcd8f004 	.word	0xfcd8f004
    14c4:	8808bd10 	.word	0x8808bd10
    14c8:	b280684a 	.word	0xb280684a
    14cc:	f0044611 	.word	0xf0044611
    14d0:	bd10fd23 	.word	0xbd10fd23
    14d4:	b2808808 	.word	0xb2808808
    14d8:	fd42f004 	.word	0xfd42f004
    14dc:	8808bd10 	.word	0x8808bd10
    14e0:	f004b280 	.word	0xf004b280
    14e4:	bd10fd62 	.word	0xbd10fd62
    14e8:	bd102001 	.word	0xbd102001
    14ec:	3890b510 	.word	0x3890b510
    14f0:	f0130003 	.word	0xf0130003
    14f4:	0609fe13 	.word	0x0609fe13
    14f8:	241d160f 	.word	0x241d160f
    14fc:	463f362c 	.word	0x463f362c
    1500:	8888004e 	.word	0x8888004e
    1504:	b283688a 	.word	0xb283688a
    1508:	46198808 	.word	0x46198808
    150c:	f005b280 	.word	0xf005b280
    1510:	bd10f97d 	.word	0xbd10f97d
    1514:	684a8808 	.word	0x684a8808
    1518:	4611b280 	.word	0x4611b280
    151c:	f9d3f005 	.word	0xf9d3f005
    1520:	8808bd10 	.word	0x8808bd10
    1524:	b280684a 	.word	0xb280684a
    1528:	f0054611 	.word	0xf0054611
    152c:	bd10fa17 	.word	0xbd10fa17
    1530:	684a8808 	.word	0x684a8808
    1534:	4611b280 	.word	0x4611b280
    1538:	fa4df005 	.word	0xfa4df005
    153c:	8808bd10 	.word	0x8808bd10
    1540:	688a684b 	.word	0x688a684b
    1544:	4619b280 	.word	0x4619b280
    1548:	fa7ef005 	.word	0xfa7ef005
    154c:	8908bd10 	.word	0x8908bd10
    1550:	8888b282 	.word	0x8888b282
    1554:	8808b283 	.word	0x8808b283
    1558:	b2804619 	.word	0xb2804619
    155c:	fab3f005 	.word	0xfab3f005
    1560:	8908bd10 	.word	0x8908bd10
    1564:	b282684b 	.word	0xb282684b
    1568:	46198808 	.word	0x46198808
    156c:	f005b280 	.word	0xf005b280
    1570:	bd10fae8 	.word	0xbd10fae8
    1574:	684a8808 	.word	0x684a8808
    1578:	4611b280 	.word	0x4611b280
    157c:	fb18f005 	.word	0xfb18f005
    1580:	8888bd10 	.word	0x8888bd10
    1584:	8808b282 	.word	0x8808b282
    1588:	b2804611 	.word	0xb2804611
    158c:	fbacf005 	.word	0xfbacf005
    1590:	2001bd10 	.word	0x2001bd10
    1594:	b510bd10 	.word	0xb510bd10
    1598:	d00528b0 	.word	0xd00528b0
    159c:	d00828b1 	.word	0xd00828b1
    15a0:	d00b28b2 	.word	0xd00b28b2
    15a4:	bd102001 	.word	0xbd102001
    15a8:	b2808808 	.word	0xb2808808
    15ac:	fe8af005 	.word	0xfe8af005
    15b0:	8808bd10 	.word	0x8808bd10
    15b4:	f005b280 	.word	0xf005b280
    15b8:	bd10feb5 	.word	0xbd10feb5
    15bc:	684b8808 	.word	0x684b8808
    15c0:	b280688a 	.word	0xb280688a
    15c4:	f0054619 	.word	0xf0054619
    15c8:	bd10febe 	.word	0xbd10febe
    15cc:	38a0b510 	.word	0x38a0b510
    15d0:	f0130003 	.word	0xf0130003
    15d4:	070bfda3 	.word	0x070bfda3
    15d8:	2820170e 	.word	0x2820170e
    15dc:	4d433c32 	.word	0x4d433c32
    15e0:	00655d54 	.word	0x00655d54
    15e4:	7808684b 	.word	0x7808684b
    15e8:	4619688a 	.word	0x4619688a
    15ec:	f9eff007 	.word	0xf9eff007
    15f0:	8888bd10 	.word	0x8888bd10
    15f4:	b283688a 	.word	0xb283688a
    15f8:	46198808 	.word	0x46198808
    15fc:	f007b280 	.word	0xf007b280
    1600:	bd10f9fb 	.word	0xbd10f9fb
    1604:	684c8808 	.word	0x684c8808
    1608:	688a68cb 	.word	0x688a68cb
    160c:	4621b280 	.word	0x4621b280
    1610:	fa02f007 	.word	0xfa02f007
    1614:	8808bd10 	.word	0x8808bd10
    1618:	688a684b 	.word	0x688a684b
    161c:	4619b280 	.word	0x4619b280
    1620:	fa1cf007 	.word	0xfa1cf007
    1624:	8888bd10 	.word	0x8888bd10
    1628:	b28468cb 	.word	0xb28468cb
    162c:	688a8808 	.word	0x688a8808
    1630:	4621b280 	.word	0x4621b280
    1634:	fa3cf007 	.word	0xfa3cf007
    1638:	8888bd10 	.word	0x8888bd10
    163c:	b28468cb 	.word	0xb28468cb
    1640:	688a8808 	.word	0x688a8808
    1644:	4621b280 	.word	0x4621b280
    1648:	fa5cf007 	.word	0xfa5cf007
    164c:	8808bd10 	.word	0x8808bd10
    1650:	b280684a 	.word	0xb280684a
    1654:	f0074611 	.word	0xf0074611
    1658:	bd10fa90 	.word	0xbd10fa90
    165c:	b2828908 	.word	0xb2828908
    1660:	b2838888 	.word	0xb2838888
    1664:	46198808 	.word	0x46198808
    1668:	f007b280 	.word	0xf007b280
    166c:	bd10fa90 	.word	0xbd10fa90
    1670:	684a8808 	.word	0x684a8808
    1674:	4611b280 	.word	0x4611b280
    1678:	faadf007 	.word	0xfaadf007
    167c:	8908bd10 	.word	0x8908bd10
    1680:	b282684b 	.word	0xb282684b
    1684:	46198808 	.word	0x46198808
    1688:	f007b280 	.word	0xf007b280
    168c:	bd10fb2a 	.word	0xbd10fb2a
    1690:	684b8808 	.word	0x684b8808
    1694:	b280688a 	.word	0xb280688a
    1698:	f0074619 	.word	0xf0074619
    169c:	bd10fbe7 	.word	0xbd10fbe7
    16a0:	bd102001 	.word	0xbd102001
    16a4:	f007b510 	.word	0xf007b510
    16a8:	f00ffcce 	.word	0xf00ffcce
    16ac:	f000ff5f 	.word	0xf000ff5f
    16b0:	f010f807 	.word	0xf010f807
    16b4:	f008f8ad 	.word	0xf008f8ad
    16b8:	f008f9c9 	.word	0xf008f9c9
    16bc:	bd10f955 	.word	0xbd10f955
    16c0:	492b2001 	.word	0x492b2001
    16c4:	600803c0 	.word	0x600803c0
    16c8:	2000492a 	.word	0x2000492a
    16cc:	20037008 	.word	0x20037008
    16d0:	02804929 	.word	0x02804929
    16d4:	47706088 	.word	0x47706088
    16d8:	4d26b5f8 	.word	0x4d26b5f8
    16dc:	78284604 	.word	0x78284604
    16e0:	d00742a0 	.word	0xd00742a0
    16e4:	d0052c00 	.word	0xd0052c00
    16e8:	d0032800 	.word	0xd0032800
    16ec:	204da123 	.word	0x204da123
    16f0:	fc23f013 	.word	0xfc23f013
    16f4:	42a07828 	.word	0x42a07828
    16f8:	702cd013 	.word	0x702cd013
    16fc:	23002503 	.word	0x23002503
    1700:	02ad4923 	.word	0x02ad4923
    1704:	2c00481c 	.word	0x2c00481c
    1708:	4a1bd027 	.word	0x4a1bd027
    170c:	32404e21 	.word	0x32404e21
    1710:	2c014f21 	.word	0x2c014f21
    1714:	2c02d006 	.word	0x2c02d006
    1718:	a118d013 	.word	0xa118d013
    171c:	f013206e 	.word	0xf013206e
    1720:	bdf8fc0c 	.word	0xbdf8fc0c
    1724:	2302600b 	.word	0x2302600b
    1728:	614e600b 	.word	0x614e600b
    172c:	491b6085 	.word	0x491b6085
    1730:	62576211 	.word	0x62576211
    1734:	62911d09 	.word	0x62911d09
    1738:	1d094917 	.word	0x1d094917
    173c:	604562d1 	.word	0x604562d1
    1740:	600bbdf8 	.word	0x600bbdf8
    1744:	600b2303 	.word	0x600b2303
    1748:	2101614e 	.word	0x2101614e
    174c:	608102c9 	.word	0x608102c9
    1750:	62934b13 	.word	0x62934b13
    1754:	604162d7 	.word	0x604162d7
    1758:	600bbdf8 	.word	0x600bbdf8
    175c:	6085600b 	.word	0x6085600b
    1760:	b510bdf8 	.word	0xb510bdf8
    1764:	2077a105 	.word	0x2077a105
    1768:	fbe7f013 	.word	0xfbe7f013
    176c:	0000bd10 	.word	0x0000bd10
    1770:	e000e180 	.word	0xe000e180
    1774:	20000020 	.word	0x20000020
    1778:	4001f500 	.word	0x4001f500
    177c:	5c637273 	.word	0x5c637273
    1780:	5f6c6168 	.word	0x5f6c6168
    1784:	5f6d6363 	.word	0x5f6d6363
    1788:	2e726161 	.word	0x2e726161
    178c:	00000063 	.word	0x00000063
    1790:	4000f500 	.word	0x4000f500
    1794:	2000017c 	.word	0x2000017c
    1798:	4000f000 	.word	0x4000f000
    179c:	40001100 	.word	0x40001100
    17a0:	40008148 	.word	0x40008148
    17a4:	4604b51c 	.word	0x4604b51c
    17a8:	46692000 	.word	0x46692000
    17ac:	46207008 	.word	0x46207008
    17b0:	f8caf009 	.word	0xf8caf009
    17b4:	46204669 	.word	0x46204669
    17b8:	ff88f008 	.word	0xff88f008
    17bc:	d1032800 	.word	0xd1032800
    17c0:	20b6a1fb 	.word	0x20b6a1fb
    17c4:	fbb9f013 	.word	0xfbb9f013
    17c8:	4620a901 	.word	0x4620a901
    17cc:	feddf008 	.word	0xfeddf008
    17d0:	d1032800 	.word	0xd1032800
    17d4:	20bba1f6 	.word	0x20bba1f6
    17d8:	fbaff013 	.word	0xfbaff013
    17dc:	78004668 	.word	0x78004668
    17e0:	b570bd1c 	.word	0xb570bd1c
    17e4:	24004df7 	.word	0x24004df7
    17e8:	762c4628 	.word	0x762c4628
    17ec:	71843020 	.word	0x71843020
    17f0:	f01371c4 	.word	0xf01371c4
    17f4:	4628fca1 	.word	0x4628fca1
    17f8:	70043840 	.word	0x70043840
    17fc:	73843020 	.word	0x73843020
    1800:	76847484 	.word	0x76847484
    1804:	70ac742c 	.word	0x70ac742c
    1808:	e7eabd70 	.word	0xe7eabd70
    180c:	460cb510 	.word	0x460cb510
    1810:	888249ed 	.word	0x888249ed
    1814:	8842808a 	.word	0x8842808a
    1818:	7800804a 	.word	0x7800804a
    181c:	46087008 	.word	0x46087008
    1820:	7084380a 	.word	0x7084380a
    1824:	fe87f008 	.word	0xfe87f008
    1828:	ffdbf7ff 	.word	0xffdbf7ff
    182c:	f00a4620 	.word	0xf00a4620
    1830:	4ae4f9ef 	.word	0x4ae4f9ef
    1834:	461132e0 	.word	0x461132e0
    1838:	46083938 	.word	0x46083938
    183c:	38814614 	.word	0x38814614
    1840:	f8f0f009 	.word	0xf8f0f009
    1844:	48e04621 	.word	0x48e04621
    1848:	fc84f00b 	.word	0xfc84f00b
    184c:	f873f009 	.word	0xf873f009
    1850:	fc72f013 	.word	0xfc72f013
    1854:	b510bd10 	.word	0xb510bd10
    1858:	f7ff2001 	.word	0xf7ff2001
    185c:	bd10fdad 	.word	0xbd10fdad
    1860:	f009b5f8 	.word	0xf009b5f8
    1864:	4dd8fd49 	.word	0x4dd8fd49
    1868:	3d0a4cd6 	.word	0x3d0a4cd6
    186c:	d0022802 	.word	0xd0022802
    1870:	28007c20 	.word	0x28007c20
    1874:	7e20d07c 	.word	0x7e20d07c
    1878:	28102600 	.word	0x28102600
    187c:	78a0d119 	.word	0x78a0d119
    1880:	d0032800 	.word	0xd0032800
    1884:	48d1a1ca 	.word	0x48d1a1ca
    1888:	fb57f013 	.word	0xfb57f013
    188c:	38e848cd 	.word	0x38e848cd
    1890:	07897a81 	.word	0x07897a81
    1894:	4601d50d 	.word	0x4601d50d
    1898:	39607126 	.word	0x39607126
    189c:	80e18989 	.word	0x80e18989
    18a0:	72217ac1 	.word	0x72217ac1
    18a4:	81618981 	.word	0x81618981
    18a8:	81a089c0 	.word	0x81a089c0
    18ac:	70a02001 	.word	0x70a02001
    18b0:	4fc47626 	.word	0x4fc47626
    18b4:	7cb83f20 	.word	0x7cb83f20
    18b8:	d1592800 	.word	0xd1592800
    18bc:	466948c4 	.word	0x466948c4
    18c0:	f0088980 	.word	0xf0088980
    18c4:	2800ff03 	.word	0x2800ff03
    18c8:	4669d005 	.word	0x4669d005
    18cc:	78097868 	.word	0x78097868
    18d0:	70681840 	.word	0x70681840
    18d4:	48bde004 	.word	0x48bde004
    18d8:	301da1b5 	.word	0x301da1b5
    18dc:	fb2df013 	.word	0xfb2df013
    18e0:	28007c20 	.word	0x28007c20
    18e4:	48bad038 	.word	0x48bad038
    18e8:	30ff8981 	.word	0x30ff8981
    18ec:	6d403009 	.word	0x6d403009
    18f0:	42818980 	.word	0x42818980
    18f4:	48b5d004 	.word	0x48b5d004
    18f8:	3022a1ad 	.word	0x3022a1ad
    18fc:	fb1df013 	.word	0xfb1df013
    1900:	898048b3 	.word	0x898048b3
    1904:	ff88f008 	.word	0xff88f008
    1908:	d1042800 	.word	0xd1042800
    190c:	a1a848af 	.word	0xa1a848af
    1910:	f0133028 	.word	0xf0133028
    1914:	f008fb12 	.word	0xf008fb12
    1918:	2800fff6 	.word	0x2800fff6
    191c:	48acd01c 	.word	0x48acd01c
    1920:	f7ff8980 	.word	0xf7ff8980
    1924:	7869ff3f 	.word	0x7869ff3f
    1928:	70681840 	.word	0x70681840
    192c:	384048a5 	.word	0x384048a5
    1930:	31206d41 	.word	0x31206d41
    1934:	2a017c8a 	.word	0x2a017c8a
    1938:	4aa5d10d 	.word	0x4aa5d10d
    193c:	8992773e 	.word	0x8992773e
    1940:	7cc887c2 	.word	0x7cc887c2
    1944:	20017020 	.word	0x20017020
    1948:	7e2076b8 	.word	0x7e2076b8
    194c:	d0012810 	.word	0xd0012810
    1950:	d1002828 	.word	0xd1002828
    1954:	74267626 	.word	0x74267626
    1958:	29007869 	.word	0x29007869
    195c:	489cd008 	.word	0x489cd008
    1960:	30ff8982 	.word	0x30ff8982
    1964:	86c23009 	.word	0x86c23009
    1968:	20018701 	.word	0x20018701
    196c:	706e74b8 	.word	0x706e74b8
    1970:	fc92f009 	.word	0xfc92f009
    1974:	d1052800 	.word	0xd1052800
    1978:	28007c20 	.word	0x28007c20
    197c:	78a8d002 	.word	0x78a8d002
    1980:	f8f0f001 	.word	0xf8f0f001
    1984:	b5f8bdf8 	.word	0xb5f8bdf8
    1988:	4604460f 	.word	0x4604460f
    198c:	ff68f7ff 	.word	0xff68f7ff
    1990:	3d404d8c 	.word	0x3d404d8c
    1994:	4e8b7828 	.word	0x4e8b7828
    1998:	d0132800 	.word	0xd0132800
    199c:	d1102f00 	.word	0xd1102f00
    19a0:	28007e30 	.word	0x28007e30
    19a4:	20ffd004 	.word	0x20ffd004
    19a8:	30c6a181 	.word	0x30c6a181
    19ac:	fac5f013 	.word	0xfac5f013
    19b0:	1ca9222c 	.word	0x1ca9222c
    19b4:	f0134620 	.word	0xf0134620
    19b8:	200ef924 	.word	0x200ef924
    19bc:	20007020 	.word	0x20007020
    19c0:	e08f7028 	.word	0xe08f7028
    19c4:	3d204d7f 	.word	0x3d204d7f
    19c8:	28007ba8 	.word	0x28007ba8
    19cc:	2f00d018 	.word	0x2f00d018
    19d0:	7e30d1f7 	.word	0x7e30d1f7
    19d4:	d0082810 	.word	0xd0082810
    19d8:	d0062828 	.word	0xd0062828
    19dc:	d0042800 	.word	0xd0042800
    19e0:	a17320ff 	.word	0xa17320ff
    19e4:	f01330d2 	.word	0xf01330d2
    19e8:	2001faa8 	.word	0x2001faa8
    19ec:	7be870e0 	.word	0x7be870e0
    19f0:	7c2870a0 	.word	0x7c2870a0
    19f4:	200f7060 	.word	0x200f7060
    19f8:	20007020 	.word	0x20007020
    19fc:	e07173a8 	.word	0xe07173a8
    1a00:	46202101 	.word	0x46202101
    1a04:	ffb8f008 	.word	0xffb8f008
    1a08:	d0072800 	.word	0xd0072800
    1a0c:	28007c30 	.word	0x28007c30
    1a10:	4639d151 	.word	0x4639d151
    1a14:	f0084620 	.word	0xf0084620
    1a18:	bdf8ffaf 	.word	0xbdf8ffaf
    1a1c:	48697ca9 	.word	0x48697ca9
    1a20:	9000380c 	.word	0x9000380c
    1a24:	380a4868 	.word	0x380a4868
    1a28:	d0132900 	.word	0xd0132900
    1a2c:	29057801 	.word	0x29057801
    1a30:	2f00d210 	.word	0x2f00d210
    1a34:	1c49d156 	.word	0x1c49d156
    1a38:	26007001 	.word	0x26007001
    1a3c:	200d7066 	.word	0x200d7066
    1a40:	20017020 	.word	0x20017020
    1a44:	22067528 	.word	0x22067528
    1a48:	99001ca0 	.word	0x99001ca0
    1a4c:	f8d9f013 	.word	0xf8d9f013
    1a50:	e04774ae 	.word	0xe04774ae
    1a54:	2100485c 	.word	0x2100485c
    1a58:	7001380a 	.word	0x7001380a
    1a5c:	280078b0 	.word	0x280078b0
    1a60:	2f00d014 	.word	0x2f00d014
    1a64:	7e30d13e 	.word	0x7e30d13e
    1a68:	d0032800 	.word	0xd0032800
    1a6c:	4859a150 	.word	0x4859a150
    1a70:	fa63f013 	.word	0xfa63f013
    1a74:	70652500 	.word	0x70652500
    1a78:	49522001 	.word	0x49522001
    1a7c:	220a7020 	.word	0x220a7020
    1a80:	1ca01d09 	.word	0x1ca01d09
    1a84:	f8bdf013 	.word	0xf8bdf013
    1a88:	e02b70b5 	.word	0xe02b70b5
    1a8c:	46204639 	.word	0x46204639
    1a90:	facaf00b 	.word	0xfacaf00b
    1a94:	d1252800 	.word	0xd1252800
    1a98:	28007ca8 	.word	0x28007ca8
    1a9c:	2f00d005 	.word	0x2f00d005
    1aa0:	4849d120 	.word	0x4849d120
    1aa4:	7801380a 	.word	0x7801380a
    1aa8:	7ea8e7c5 	.word	0x7ea8e7c5
    1aac:	d0022800 	.word	0xd0022800
    1ab0:	28007c30 	.word	0x28007c30
    1ab4:	2000d001 	.word	0x2000d001
    1ab8:	2f00bdf8 	.word	0x2f00bdf8
    1abc:	7e30d112 	.word	0x7e30d112
    1ac0:	d0042800 	.word	0xd0042800
    1ac4:	a13a208f 	.word	0xa13a208f
    1ac8:	f0130080 	.word	0xf0130080
    1acc:	2600fa36 	.word	0x2600fa36
    1ad0:	200a7066 	.word	0x200a7066
    1ad4:	7020493b 	.word	0x7020493b
    1ad8:	1f092206 	.word	0x1f092206
    1adc:	f0131ca0 	.word	0xf0131ca0
    1ae0:	76aef890 	.word	0x76aef890
    1ae4:	bdf82001 	.word	0xbdf82001
    1ae8:	4836b510 	.word	0x4836b510
    1aec:	29007e01 	.word	0x29007e01
    1af0:	7c00d108 	.word	0x7c00d108
    1af4:	d0052801 	.word	0xd0052801
    1af8:	20002101 	.word	0x20002101
    1afc:	ff43f7ff 	.word	0xff43f7ff
    1b00:	d0012800 	.word	0xd0012800
    1b04:	bd102007 	.word	0xbd102007
    1b08:	bd102001 	.word	0xbd102001
    1b0c:	2401b510 	.word	0x2401b510
    1b10:	f8c6f00a 	.word	0xf8c6f00a
    1b14:	f7ff4304 	.word	0xf7ff4304
    1b18:	4304ffe7 	.word	0x4304ffe7
    1b1c:	ff0cf008 	.word	0xff0cf008
    1b20:	43214601 	.word	0x43214601
    1b24:	bd104608 	.word	0xbd104608
    1b28:	461db5f8 	.word	0x461db5f8
    1b2c:	460e4614 	.word	0x460e4614
    1b30:	fd4bf008 	.word	0xfd4bf008
    1b34:	d0072800 	.word	0xd0072800
    1b38:	f0084668 	.word	0xf0084668
    1b3c:	2800fd51 	.word	0x2800fd51
    1b40:	2c00d003 	.word	0x2c00d003
    1b44:	e001d107 	.word	0xe001d107
    1b48:	bdf82001 	.word	0xbdf82001
    1b4c:	a118209b 	.word	0xa118209b
    1b50:	f0130080 	.word	0xf0130080
    1b54:	f008f9f2 	.word	0xf008f9f2
    1b58:	42a0fcef 	.word	0x42a0fcef
    1b5c:	481dd204 	.word	0x481dd204
    1b60:	3058a113 	.word	0x3058a113
    1b64:	f9e9f013 	.word	0xf9e9f013
    1b68:	f0089800 	.word	0xf0089800
    1b6c:	4631f95d 	.word	0x4631f95d
    1b70:	f0089800 	.word	0xf0089800
    1b74:	b2e2f96b 	.word	0xb2e2f96b
    1b78:	98004629 	.word	0x98004629
    1b7c:	fb22f008 	.word	0xfb22f008
    1b80:	fd40f008 	.word	0xfd40f008
    1b84:	d1042800 	.word	0xd1042800
    1b88:	a109209f 	.word	0xa109209f
    1b8c:	f0130080 	.word	0xf0130080
    1b90:	f008f9d4 	.word	0xf008f9d4
    1b94:	480efed3 	.word	0x480efed3
    1b98:	30402400 	.word	0x30402400
    1b9c:	29007c41 	.word	0x29007c41
    1ba0:	7444d002 	.word	0x7444d002
    1ba4:	f967f00a 	.word	0xf967f00a
    1ba8:	80c44809 	.word	0x80c44809
    1bac:	0000e7cc 	.word	0x0000e7cc
    1bb0:	5c637273 	.word	0x5c637273
    1bb4:	635f6c6c 	.word	0x635f6c6c
    1bb8:	2e6c7274 	.word	0x2e6c7274
    1bbc:	632e3073 	.word	0x632e3073
    1bc0:	00000000 	.word	0x00000000
    1bc4:	20000320 	.word	0x20000320
    1bc8:	2000002c 	.word	0x2000002c
    1bcc:	00000684 	.word	0x00000684
    1bd0:	200001d8 	.word	0x200001d8
    1bd4:	00000215 	.word	0x00000215
    1bd8:	7901b510 	.word	0x7901b510
    1bdc:	d0082900 	.word	0xd0082900
    1be0:	d00b2901 	.word	0xd00b2901
    1be4:	49fe20ff 	.word	0x49fe20ff
    1be8:	f0133004 	.word	0xf0133004
    1bec:	2000f9a6 	.word	0x2000f9a6
    1bf0:	1d83bd10 	.word	0x1d83bd10
    1bf4:	88048842 	.word	0x88048842
    1bf8:	e0032102 	.word	0xe0032102
    1bfc:	88048842 	.word	0x88048842
    1c00:	21011d83 	.word	0x21011d83
    1c04:	f7ff4620 	.word	0xf7ff4620
    1c08:	bd10ff8f 	.word	0xbd10ff8f
    1c0c:	461fb5f8 	.word	0x461fb5f8
    1c10:	460e4615 	.word	0x460e4615
    1c14:	f0094604 	.word	0xf0094604
    1c18:	2802fb6f 	.word	0x2802fb6f
    1c1c:	48f1d003 	.word	0x48f1d003
    1c20:	28007c00 	.word	0x28007c00
    1c24:	48f0d01f 	.word	0x48f0d01f
    1c28:	80208980 	.word	0x80208980
    1c2c:	fdf4f008 	.word	0xfdf4f008
    1c30:	d1032800 	.word	0xd1032800
    1c34:	48ed49ea 	.word	0x48ed49ea
    1c38:	f97ff013 	.word	0xf97ff013
    1c3c:	46682405 	.word	0x46682405
    1c40:	fdf5f008 	.word	0xfdf5f008
    1c44:	d00e2800 	.word	0xd00e2800
    1c48:	f0089800 	.word	0xf0089800
    1c4c:	7030f937 	.word	0x7030f937
    1c50:	d0092802 	.word	0xd0092802
    1c54:	d0072801 	.word	0xd0072801
    1c58:	fe29f008 	.word	0xfe29f008
    1c5c:	06241e64 	.word	0x06241e64
    1c60:	d1ec0e24 	.word	0xd1ec0e24
    1c64:	bdf82000 	.word	0xbdf82000
    1c68:	98004639 	.word	0x98004639
    1c6c:	fac2f008 	.word	0xfac2f008
    1c70:	28008028 	.word	0x28008028
    1c74:	20afd104 	.word	0x20afd104
    1c78:	008049d9 	.word	0x008049d9
    1c7c:	f95df013 	.word	0xf95df013
    1c80:	fe15f008 	.word	0xfe15f008
    1c84:	d1042800 	.word	0xd1042800
    1c88:	49d548d8 	.word	0x49d548d8
    1c8c:	f0133019 	.word	0xf0133019
    1c90:	2001f954 	.word	0x2001f954
    1c94:	b538bdf8 	.word	0xb538bdf8
    1c98:	1d834604 	.word	0x1d834604
    1c9c:	46691c82 	.word	0x46691c82
    1ca0:	ffb4f7ff 	.word	0xffb4f7ff
    1ca4:	d00d2800 	.word	0xd00d2800
    1ca8:	71602000 	.word	0x71602000
    1cac:	78004668 	.word	0x78004668
    1cb0:	d0082801 	.word	0xd0082801
    1cb4:	d0062802 	.word	0xd0062802
    1cb8:	49c920ff 	.word	0x49c920ff
    1cbc:	f0133025 	.word	0xf0133025
    1cc0:	2001f93c 	.word	0x2001f93c
    1cc4:	7120bd38 	.word	0x7120bd38
    1cc8:	2100e7fb 	.word	0x2100e7fb
    1ccc:	b570e65b 	.word	0xb570e65b
    1cd0:	46054cc4 	.word	0x46054cc4
    1cd4:	78203c40 	.word	0x78203c40
    1cd8:	d1032800 	.word	0xd1032800
    1cdc:	7e0048c1 	.word	0x7e0048c1
    1ce0:	d0032800 	.word	0xd0032800
    1ce4:	48c249be 	.word	0x48c249be
    1ce8:	f927f013 	.word	0xf927f013
    1cec:	f0087828 	.word	0xf0087828
    1cf0:	7828ff54 	.word	0x7828ff54
    1cf4:	fb79f00b 	.word	0xfb79f00b
    1cf8:	71202000 	.word	0x71202000
    1cfc:	71602001 	.word	0x71602001
    1d00:	70e12139 	.word	0x70e12139
    1d04:	bd707020 	.word	0xbd707020
    1d08:	4db6b570 	.word	0x4db6b570
    1d0c:	3d404604 	.word	0x3d404604
    1d10:	28007828 	.word	0x28007828
    1d14:	48b3d103 	.word	0x48b3d103
    1d18:	28007e00 	.word	0x28007e00
    1d1c:	48b4d004 	.word	0x48b4d004
    1d20:	381849af 	.word	0x381849af
    1d24:	f909f013 	.word	0xf909f013
    1d28:	88214eaf 	.word	0x88214eaf
    1d2c:	428889b0 	.word	0x428889b0
    1d30:	f009d103 	.word	0xf009d103
    1d34:	2802fae1 	.word	0x2802fae1
    1d38:	2002d007 	.word	0x2002d007
    1d3c:	20017128 	.word	0x20017128
    1d40:	21387168 	.word	0x21387168
    1d44:	702870e9 	.word	0x702870e9
    1d48:	207fbd70 	.word	0x207fbd70
    1d4c:	48a67670 	.word	0x48a67670
    1d50:	302078e1 	.word	0x302078e1
    1d54:	78a17441 	.word	0x78a17441
    1d58:	20007401 	.word	0x20007401
    1d5c:	b510e7ee 	.word	0xb510e7ee
    1d60:	3c404ca0 	.word	0x3c404ca0
    1d64:	28007820 	.word	0x28007820
    1d68:	489ed10b 	.word	0x489ed10b
    1d6c:	28007e00 	.word	0x28007e00
    1d70:	f009d107 	.word	0xf009d107
    1d74:	2803fac1 	.word	0x2803fac1
    1d78:	f009d003 	.word	0xf009d003
    1d7c:	2803fac1 	.word	0x2803fac1
    1d80:	489ad104 	.word	0x489ad104
    1d84:	30654996 	.word	0x30654996
    1d88:	f8d7f013 	.word	0xf8d7f013
    1d8c:	20004995 	.word	0x20004995
    1d90:	71c83120 	.word	0x71c83120
    1d94:	20017120 	.word	0x20017120
    1d98:	213a7160 	.word	0x213a7160
    1d9c:	702070e1 	.word	0x702070e1
    1da0:	b570bd10 	.word	0xb570bd10
    1da4:	46064c8f 	.word	0x46064c8f
    1da8:	78203c40 	.word	0x78203c40
    1dac:	d10b2800 	.word	0xd10b2800
    1db0:	7e00488c 	.word	0x7e00488c
    1db4:	d1072800 	.word	0xd1072800
    1db8:	fa9ef009 	.word	0xfa9ef009
    1dbc:	d0032803 	.word	0xd0032803
    1dc0:	fa9ef009 	.word	0xfa9ef009
    1dc4:	d1042803 	.word	0xd1042803
    1dc8:	49854888 	.word	0x49854888
    1dcc:	f013307b 	.word	0xf013307b
    1dd0:	4d84f8b4 	.word	0x4d84f8b4
    1dd4:	79e83520 	.word	0x79e83520
    1dd8:	d20c2808 	.word	0xd20c2808
    1ddc:	221079e8 	.word	0x221079e8
    1de0:	19000100 	.word	0x19000100
    1de4:	46313068 	.word	0x46313068
    1de8:	fe29f000 	.word	0xfe29f000
    1dec:	1c4079e8 	.word	0x1c4079e8
    1df0:	200071e8 	.word	0x200071e8
    1df4:	2007e000 	.word	0x2007e000
    1df8:	20017120 	.word	0x20017120
    1dfc:	213b7160 	.word	0x213b7160
    1e00:	702070e1 	.word	0x702070e1
    1e04:	b5f8bd70 	.word	0xb5f8bd70
    1e08:	46044d76 	.word	0x46044d76
    1e0c:	78283d40 	.word	0x78283d40
    1e10:	d1032800 	.word	0xd1032800
    1e14:	7e004873 	.word	0x7e004873
    1e18:	d0042800 	.word	0xd0042800
    1e1c:	497020b7 	.word	0x497020b7
    1e20:	f01300c0 	.word	0xf01300c0
    1e24:	4f70f88a 	.word	0x4f70f88a
    1e28:	89b88821 	.word	0x89b88821
    1e2c:	d1034288 	.word	0xd1034288
    1e30:	fa62f009 	.word	0xfa62f009
    1e34:	d0012802 	.word	0xd0012802
    1e38:	e0222002 	.word	0xe0222002
    1e3c:	88648c3e 	.word	0x88648c3e
    1e40:	8c780072 	.word	0x8c780072
    1e44:	1c528bf9 	.word	0x1c528bf9
    1e48:	d3174294 	.word	0xd3174294
    1e4c:	43514a69 	.word	0x43514a69
    1e50:	43500092 	.word	0x43500092
    1e54:	ff4ff012 	.word	0xff4ff012
    1e58:	21ff1e40 	.word	0x21ff1e40
    1e5c:	31f5b280 	.word	0x31f5b280
    1e60:	d9004288 	.word	0xd9004288
    1e64:	42844608 	.word	0x42844608
    1e68:	4620d200 	.word	0x4620d200
    1e6c:	1c401c71 	.word	0x1c401c71
    1e70:	ff41f012 	.word	0xff41f012
    1e74:	43701c76 	.word	0x43701c76
    1e78:	b2861e40 	.word	0xb2861e40
    1e7c:	80ee85fe 	.word	0x80ee85fe
    1e80:	71282000 	.word	0x71282000
    1e84:	71682001 	.word	0x71682001
    1e88:	70e9213c 	.word	0x70e9213c
    1e8c:	bdf87028 	.word	0xbdf87028
    1e90:	4c54b5f8 	.word	0x4c54b5f8
    1e94:	3c404605 	.word	0x3c404605
    1e98:	28007820 	.word	0x28007820
    1e9c:	4851d103 	.word	0x4851d103
    1ea0:	28007e00 	.word	0x28007e00
    1ea4:	4852d004 	.word	0x4852d004
    1ea8:	387e494d 	.word	0x387e494d
    1eac:	f845f013 	.word	0xf845f013
    1eb0:	280078a8 	.word	0x280078a8
    1eb4:	2801d001 	.word	0x2801d001
    1eb8:	88a8d104 	.word	0x88a8d104
    1ebc:	31f521ff 	.word	0x31f521ff
    1ec0:	d9044288 	.word	0xd9044288
    1ec4:	4946484a 	.word	0x4946484a
    1ec8:	f0133878 	.word	0xf0133878
    1ecc:	4e46f836 	.word	0x4e46f836
    1ed0:	89b08829 	.word	0x89b08829
    1ed4:	d1034288 	.word	0xd1034288
    1ed8:	fa0ef009 	.word	0xfa0ef009
    1edc:	d0072802 	.word	0xd0072802
    1ee0:	71202002 	.word	0x71202002
    1ee4:	71602001 	.word	0x71602001
    1ee8:	70e12136 	.word	0x70e12136
    1eec:	bdf87020 	.word	0xbdf87020
    1ef0:	2700483d 	.word	0x2700483d
    1ef4:	72873020 	.word	0x72873020
    1ef8:	85b188a9 	.word	0x85b188a9
    1efc:	76312101 	.word	0x76312101
    1f00:	290178a9 	.word	0x290178a9
    1f04:	2100d000 	.word	0x2100d000
    1f08:	48377281 	.word	0x48377281
    1f0c:	7c403040 	.word	0x7c403040
    1f10:	d0012800 	.word	0xd0012800
    1f14:	ffaff009 	.word	0xffaff009
    1f18:	e7e37127 	.word	0xe7e37127
    1f1c:	4c31b570 	.word	0x4c31b570
    1f20:	3c404605 	.word	0x3c404605
    1f24:	28007820 	.word	0x28007820
    1f28:	482ed107 	.word	0x482ed107
    1f2c:	28007e00 	.word	0x28007e00
    1f30:	f009d103 	.word	0xf009d103
    1f34:	2800f9e1 	.word	0x2800f9e1
    1f38:	482dd004 	.word	0x482dd004
    1f3c:	38a54928 	.word	0x38a54928
    1f40:	fffbf012 	.word	0xfffbf012
    1f44:	f0097828 	.word	0xf0097828
    1f48:	2000feae 	.word	0x2000feae
    1f4c:	20017120 	.word	0x20017120
    1f50:	21307160 	.word	0x21307160
    1f54:	702070e1 	.word	0x702070e1
    1f58:	b570bd70 	.word	0xb570bd70
    1f5c:	46054c21 	.word	0x46054c21
    1f60:	78203c40 	.word	0x78203c40
    1f64:	d1032800 	.word	0xd1032800
    1f68:	7e00481e 	.word	0x7e00481e
    1f6c:	d0042800 	.word	0xd0042800
    1f70:	491b481f 	.word	0x491b481f
    1f74:	f012300d 	.word	0xf012300d
    1f78:	7828ffe0 	.word	0x7828ffe0
    1f7c:	d00b2800 	.word	0xd00b2800
    1f80:	d0092801 	.word	0xd0092801
    1f84:	d0072802 	.word	0xd0072802
    1f88:	28407868 	.word	0x28407868
    1f8c:	4818d304 	.word	0x4818d304
    1f90:	30144913 	.word	0x30144913
    1f94:	ffd1f012 	.word	0xffd1f012
    1f98:	f0094628 	.word	0xf0094628
    1f9c:	2800f9a4 	.word	0x2800f9a4
    1fa0:	2000d001 	.word	0x2000d001
    1fa4:	200ce000 	.word	0x200ce000
    1fa8:	20017120 	.word	0x20017120
    1fac:	21347160 	.word	0x21347160
    1fb0:	702070e1 	.word	0x702070e1
    1fb4:	b570bd70 	.word	0xb570bd70
    1fb8:	46054c0a 	.word	0x46054c0a
    1fbc:	78203c40 	.word	0x78203c40
    1fc0:	d1072800 	.word	0xd1072800
    1fc4:	7e004807 	.word	0x7e004807
    1fc8:	d1032800 	.word	0xd1032800
    1fcc:	f994f009 	.word	0xf994f009
    1fd0:	d0042800 	.word	0xd0042800
    1fd4:	49024806 	.word	0x49024806
    1fd8:	f0123898 	.word	0xf0123898
    1fdc:	e00bffae 	.word	0xe00bffae
    1fe0:	00001bb0 	.word	0x00001bb0
    1fe4:	20000320 	.word	0x20000320
    1fe8:	200001d8 	.word	0x200001d8
    1fec:	000002aa 	.word	0x000002aa
    1ff0:	0000060a 	.word	0x0000060a
    1ff4:	000009c4 	.word	0x000009c4
    1ff8:	29007829 	.word	0x29007829
    1ffc:	290ad014 	.word	0x290ad014
    2000:	2914d012 	.word	0x2914d012
    2004:	291ed010 	.word	0x291ed010
    2008:	2928d00e 	.word	0x2928d00e
    200c:	2932d00c 	.word	0x2932d00c
    2010:	294bd00a 	.word	0x294bd00a
    2014:	2964d008 	.word	0x2964d008
    2018:	29ffd006 	.word	0x29ffd006
    201c:	200bd004 	.word	0x200bd004
    2020:	01c049fd 	.word	0x01c049fd
    2024:	ff89f012 	.word	0xff89f012
    2028:	f0094628 	.word	0xf0094628
    202c:	2000febb 	.word	0x2000febb
    2030:	20017120 	.word	0x20017120
    2034:	21337160 	.word	0x21337160
    2038:	702070e1 	.word	0x702070e1
    203c:	b570bd70 	.word	0xb570bd70
    2040:	46064cf6 	.word	0x46064cf6
    2044:	1d257820 	.word	0x1d257820
    2048:	d1042800 	.word	0xd1042800
    204c:	30404620 	.word	0x30404620
    2050:	28007e00 	.word	0x28007e00
    2054:	49f0d003 	.word	0x49f0d003
    2058:	f01248f1 	.word	0xf01248f1
    205c:	4631ff6e 	.word	0x4631ff6e
    2060:	f0082000 	.word	0xf0082000
    2064:	7028fd6f 	.word	0x7028fd6f
    2068:	d1042800 	.word	0xd1042800
    206c:	46312206 	.word	0x46312206
    2070:	f01248ec 	.word	0xf01248ec
    2074:	2001fdc6 	.word	0x2001fdc6
    2078:	21327160 	.word	0x21327160
    207c:	702070e1 	.word	0x702070e1
    2080:	b570bd70 	.word	0xb570bd70
    2084:	46054ce5 	.word	0x46054ce5
    2088:	28007820 	.word	0x28007820
    208c:	4620d104 	.word	0x4620d104
    2090:	7e003040 	.word	0x7e003040
    2094:	d0042800 	.word	0xd0042800
    2098:	49df48e1 	.word	0x49df48e1
    209c:	f0123818 	.word	0xf0123818
    20a0:	2100ff4c 	.word	0x2100ff4c
    20a4:	29045669 	.word	0x29045669
    20a8:	2900d014 	.word	0x2900d014
    20ac:	1d08d012 	.word	0x1d08d012
    20b0:	1d00d010 	.word	0x1d00d010
    20b4:	1d00d00e 	.word	0x1d00d00e
    20b8:	1d00d00c 	.word	0x1d00d00c
    20bc:	1d00d00a 	.word	0x1d00d00a
    20c0:	300ad008 	.word	0x300ad008
    20c4:	3128d006 	.word	0x3128d006
    20c8:	48d5d004 	.word	0x48d5d004
    20cc:	381649d2 	.word	0x381649d2
    20d0:	ff33f012 	.word	0xff33f012
    20d4:	782948d4 	.word	0x782948d4
    20d8:	20017001 	.word	0x20017001
    20dc:	21317160 	.word	0x21317160
    20e0:	702070e1 	.word	0x702070e1
    20e4:	b510bd70 	.word	0xb510bd70
    20e8:	78204ccc 	.word	0x78204ccc
    20ec:	d1042800 	.word	0xd1042800
    20f0:	30404620 	.word	0x30404620
    20f4:	28007e00 	.word	0x28007e00
    20f8:	49c7d003 	.word	0x49c7d003
    20fc:	f01248cb 	.word	0xf01248cb
    2100:	f008ff1c 	.word	0xf008ff1c
    2104:	80e0fa19 	.word	0x80e0fa19
    2108:	fadef008 	.word	0xfadef008
    210c:	20007220 	.word	0x20007220
    2110:	20017120 	.word	0x20017120
    2114:	21057160 	.word	0x21057160
    2118:	702070e1 	.word	0x702070e1
    211c:	b5f8bd10 	.word	0xb5f8bd10
    2120:	46074cbe 	.word	0x46074cbe
    2124:	7ba03420 	.word	0x7ba03420
    2128:	35204625 	.word	0x35204625
    212c:	d1052800 	.word	0xd1052800
    2130:	28007e28 	.word	0x28007e28
    2134:	78a8d102 	.word	0x78a8d102
    2138:	d0042800 	.word	0xd0042800
    213c:	49b62051 	.word	0x49b62051
    2140:	f0120100 	.word	0xf0120100
    2144:	f009fefa 	.word	0xf009fefa
    2148:	2610f8d7 	.word	0x2610f8d7
    214c:	d1222802 	.word	0xd1222802
    2150:	883948b7 	.word	0x883948b7
    2154:	42888980 	.word	0x42888980
    2158:	49b0d11d 	.word	0x49b0d11d
    215c:	46083948 	.word	0x46083948
    2160:	38607f0a 	.word	0x38607f0a
    2164:	2a007a80 	.word	0x2a007a80
    2168:	0780d003 	.word	0x0780d003
    216c:	200cd40c 	.word	0x200cd40c
    2170:	0780e00c 	.word	0x0780e00c
    2174:	2006d408 	.word	0x2006d408
    2178:	48ad7708 	.word	0x48ad7708
    217c:	7c403040 	.word	0x7c403040
    2180:	d0012800 	.word	0xd0012800
    2184:	fe77f009 	.word	0xfe77f009
    2188:	2000762e 	.word	0x2000762e
    218c:	742673e0 	.word	0x742673e0
    2190:	73a02001 	.word	0x73a02001
    2194:	2002bdf8 	.word	0x2002bdf8
    2198:	b510e7f8 	.word	0xb510e7f8
    219c:	78204c9f 	.word	0x78204c9f
    21a0:	d1042800 	.word	0xd1042800
    21a4:	30404620 	.word	0x30404620
    21a8:	28007e00 	.word	0x28007e00
    21ac:	489cd004 	.word	0x489cd004
    21b0:	38544999 	.word	0x38544999
    21b4:	fec1f012 	.word	0xfec1f012
    21b8:	71202000 	.word	0x71202000
    21bc:	70a0200e 	.word	0x70a0200e
    21c0:	70e0200f 	.word	0x70e0200f
    21c4:	71a020ff 	.word	0x71a020ff
    21c8:	43c02000 	.word	0x43c02000
    21cc:	48958120 	.word	0x48958120
    21d0:	78011dc0 	.word	0x78011dc0
    21d4:	888172a1 	.word	0x888172a1
    21d8:	884081a1 	.word	0x884081a1
    21dc:	200181e0 	.word	0x200181e0
    21e0:	70207160 	.word	0x70207160
    21e4:	b510bd10 	.word	0xb510bd10
    21e8:	78204c8c 	.word	0x78204c8c
    21ec:	d1042800 	.word	0xd1042800
    21f0:	30404620 	.word	0x30404620
    21f4:	28007e00 	.word	0x28007e00
    21f8:	4987d003 	.word	0x4987d003
    21fc:	f012488d 	.word	0xf012488d
    2200:	2108fe9c 	.word	0x2108fe9c
    2204:	f00f1da0 	.word	0xf00f1da0
    2208:	2000fa4d 	.word	0x2000fa4d
    220c:	20017120 	.word	0x20017120
    2210:	212b7160 	.word	0x212b7160
    2214:	702070e1 	.word	0x702070e1
    2218:	b570bd10 	.word	0xb570bd10
    221c:	46044d7f 	.word	0x46044d7f
    2220:	28007828 	.word	0x28007828
    2224:	4628d104 	.word	0x4628d104
    2228:	7e003040 	.word	0x7e003040
    222c:	d0042800 	.word	0xd0042800
    2230:	4979487e 	.word	0x4979487e
    2234:	f01238b8 	.word	0xf01238b8
    2238:	487dfe80 	.word	0x487dfe80
    223c:	46212210 	.word	0x46212210
    2240:	f0003830 	.word	0xf0003830
    2244:	487afbfc 	.word	0x487afbfc
    2248:	18a12210 	.word	0x18a12210
    224c:	f0003820 	.word	0xf0003820
    2250:	4877fbf6 	.word	0x4877fbf6
    2254:	f00f3830 	.word	0xf00f3830
    2258:	4975fb2c 	.word	0x4975fb2c
    225c:	39102210 	.word	0x39102210
    2260:	1da8462c 	.word	0x1da8462c
    2264:	fbebf000 	.word	0xfbebf000
    2268:	71202000 	.word	0x71202000
    226c:	70a0200e 	.word	0x70a0200e
    2270:	70e0202a 	.word	0x70e0202a
    2274:	71602001 	.word	0x71602001
    2278:	bd707020 	.word	0xbd707020
    227c:	4c67b5f8 	.word	0x4c67b5f8
    2280:	34204605 	.word	0x34204605
    2284:	46267ba0 	.word	0x46267ba0
    2288:	28003620 	.word	0x28003620
    228c:	7e30d102 	.word	0x7e30d102
    2290:	d0042800 	.word	0xd0042800
    2294:	49602023 	.word	0x49602023
    2298:	f0120140 	.word	0xf0120140
    229c:	78a9fe4e 	.word	0x78a9fe4e
    22a0:	d0122905 	.word	0xd0122905
    22a4:	d0102913 	.word	0xd0102913
    22a8:	d00e2914 	.word	0xd00e2914
    22ac:	d00c2915 	.word	0xd00c2915
    22b0:	d00a291a 	.word	0xd00a291a
    22b4:	d0082929 	.word	0xd0082929
    22b8:	d006293d 	.word	0xd006293d
    22bc:	d004293b 	.word	0xd004293b
    22c0:	4955208d 	.word	0x4955208d
    22c4:	f01200c0 	.word	0xf01200c0
    22c8:	8828fe38 	.word	0x8828fe38
    22cc:	4288495a 	.word	0x4288495a
    22d0:	4853d904 	.word	0x4853d904
    22d4:	38e14950 	.word	0x38e14950
    22d8:	fe2ff012 	.word	0xfe2ff012
    22dc:	f80cf009 	.word	0xf80cf009
    22e0:	2728210c 	.word	0x2728210c
    22e4:	d1092802 	.word	0xd1092802
    22e8:	882a4851 	.word	0x882a4851
    22ec:	42908980 	.word	0x42908980
    22f0:	484ad115 	.word	0x484ad115
    22f4:	7e023848 	.word	0x7e023848
    22f8:	d0012a00 	.word	0xd0012a00
    22fc:	e01073e1 	.word	0xe01073e1
    2300:	764178a9 	.word	0x764178a9
    2304:	76012101 	.word	0x76012101
    2308:	20007637 	.word	0x20007637
    230c:	484873e0 	.word	0x484873e0
    2310:	7c403040 	.word	0x7c403040
    2314:	d0042800 	.word	0xd0042800
    2318:	fdadf009 	.word	0xfdadf009
    231c:	2002e001 	.word	0x2002e001
    2320:	742773e0 	.word	0x742773e0
    2324:	73a02001 	.word	0x73a02001
    2328:	b5f8bdf8 	.word	0xb5f8bdf8
    232c:	46064f3b 	.word	0x46064f3b
    2330:	1d3d7838 	.word	0x1d3d7838
    2334:	d1042800 	.word	0xd1042800
    2338:	30404638 	.word	0x30404638
    233c:	28007e00 	.word	0x28007e00
    2340:	483cd004 	.word	0x483cd004
    2344:	30d14934 	.word	0x30d14934
    2348:	fdf7f012 	.word	0xfdf7f012
    234c:	20014631 	.word	0x20014631
    2350:	fbf8f008 	.word	0xfbf8f008
    2354:	70282401 	.word	0x70282401
    2358:	d1072800 	.word	0xd1072800
    235c:	2206482f 	.word	0x2206482f
    2360:	46313060 	.word	0x46313060
    2364:	f0124605 	.word	0xf0124605
    2368:	71acfc4c 	.word	0x71acfc4c
    236c:	2017717c 	.word	0x2017717c
    2370:	703c70f8 	.word	0x703c70f8
    2374:	b5f0bdf8 	.word	0xb5f0bdf8
    2378:	b0854f2b 	.word	0xb0854f2b
    237c:	7a3d3f40 	.word	0x7a3d3f40
    2380:	48264606 	.word	0x48264606
    2384:	28007800 	.word	0x28007800
    2388:	4638d104 	.word	0x4638d104
    238c:	7e0038a0 	.word	0x7e0038a0
    2390:	d0042800 	.word	0xd0042800
    2394:	492020d3 	.word	0x492020d3
    2398:	f0120080 	.word	0xf0120080
    239c:	7830fdce 	.word	0x7830fdce
    23a0:	d0062800 	.word	0xd0062800
    23a4:	d0042801 	.word	0xd0042801
    23a8:	491b4822 	.word	0x491b4822
    23ac:	f012382c 	.word	0xf012382c
    23b0:	2d08fdc4 	.word	0x2d08fdc4
    23b4:	481cd24c 	.word	0x481cd24c
    23b8:	90013820 	.word	0x90013820
    23bc:	783069c4 	.word	0x783069c4
    23c0:	d03f2800 	.word	0xd03f2800
    23c4:	d0042801 	.word	0xd0042801
    23c8:	4913481a 	.word	0x4913481a
    23cc:	f012381e 	.word	0xf012381e
    23d0:	4629fdb4 	.word	0x4629fdb4
    23d4:	20013108 	.word	0x20013108
    23d8:	43044088 	.word	0x43044088
    23dc:	40a82001 	.word	0x40a82001
    23e0:	90004320 	.word	0x90004320
    23e4:	4c0d79b1 	.word	0x4c0d79b1
    23e8:	79720208 	.word	0x79720208
    23ec:	19090069 	.word	0x19090069
    23f0:	31ff4310 	.word	0x31ff4310
    23f4:	81883101 	.word	0x81883101
    23f8:	f0121cb0 	.word	0xf0121cb0
    23fc:	7871fc63 	.word	0x7871fc63
    2400:	43080200 	.word	0x43080200
    2404:	190900a9 	.word	0x190900a9
    2408:	62c831c0 	.word	0x62c831c0
    240c:	1c407a38 	.word	0x1c407a38
    2410:	99017238 	.word	0x99017238
    2414:	e0119800 	.word	0xe0119800
    2418:	00001bb0 	.word	0x00001bb0
    241c:	200002e0 	.word	0x200002e0
    2420:	00000552 	.word	0x00000552
    2424:	20000025 	.word	0x20000025
    2428:	20000400 	.word	0x20000400
    242c:	000006e9 	.word	0x000006e9
    2430:	200001d8 	.word	0x200001d8
    2434:	00000379 	.word	0x00000379
    2438:	00000eff 	.word	0x00000eff
    243c:	200061c8 	.word	0x200061c8
    2440:	e0087120 	.word	0xe0087120
    2444:	31084629 	.word	0x31084629
    2448:	40882001 	.word	0x40882001
    244c:	e7c54384 	.word	0xe7c54384
    2450:	210748f7 	.word	0x210748f7
    2454:	21017101 	.word	0x21017101
    2458:	220b48f5 	.word	0x220b48f5
    245c:	70c27141 	.word	0x70c27141
    2460:	b0057001 	.word	0xb0057001
    2464:	b510bdf0 	.word	0xb510bdf0
    2468:	78204cf1 	.word	0x78204cf1
    246c:	d1042800 	.word	0xd1042800
    2470:	30404620 	.word	0x30404620
    2474:	28007e00 	.word	0x28007e00
    2478:	49eed003 	.word	0x49eed003
    247c:	f01248ee 	.word	0xf01248ee
    2480:	f012fd5c 	.word	0xf012fd5c
    2484:	2000fe59 	.word	0x2000fe59
    2488:	20017120 	.word	0x20017120
    248c:	210a7160 	.word	0x210a7160
    2490:	702070e1 	.word	0x702070e1
    2494:	b510bd10 	.word	0xb510bd10
    2498:	fb9df009 	.word	0xfb9df009
    249c:	d0042800 	.word	0xd0042800
    24a0:	49e448e5 	.word	0x49e448e5
    24a4:	f0123858 	.word	0xf0123858
    24a8:	f008fd48 	.word	0xf008fd48
    24ac:	f008fa43 	.word	0xf008fa43
    24b0:	f00af826 	.word	0xf00af826
    24b4:	2800fe40 	.word	0x2800fe40
    24b8:	20bdd004 	.word	0x20bdd004
    24bc:	008049dd 	.word	0x008049dd
    24c0:	fd3bf012 	.word	0xfd3bf012
    24c4:	fa85f008 	.word	0xfa85f008
    24c8:	d0042800 	.word	0xd0042800
    24cc:	49d9205f 	.word	0x49d9205f
    24d0:	f01200c0 	.word	0xf01200c0
    24d4:	f012fd32 	.word	0xf012fd32
    24d8:	48d8fe2f 	.word	0x48d8fe2f
    24dc:	70042400 	.word	0x70042400
    24e0:	f97ff7ff 	.word	0xf97ff7ff
    24e4:	210148d2 	.word	0x210148d2
    24e8:	71417104 	.word	0x71417104
    24ec:	70c22202 	.word	0x70c22202
    24f0:	bd107001 	.word	0xbd107001
    24f4:	4dceb570 	.word	0x4dceb570
    24f8:	78284604 	.word	0x78284604
    24fc:	d1042800 	.word	0xd1042800
    2500:	30404628 	.word	0x30404628
    2504:	28007e00 	.word	0x28007e00
    2508:	48cbd004 	.word	0x48cbd004
    250c:	308f49c9 	.word	0x308f49c9
    2510:	fd13f012 	.word	0xfd13f012
    2514:	281f7820 	.word	0x281f7820
    2518:	1c60d801 	.word	0x1c60d801
    251c:	48c6d104 	.word	0x48c6d104
    2520:	309049c4 	.word	0x309049c4
    2524:	fd09f012 	.word	0xfd09f012
    2528:	71282000 	.word	0x71282000
    252c:	1c617820 	.word	0x1c617820
    2530:	fb22f008 	.word	0xfb22f008
    2534:	71682001 	.word	0x71682001
    2538:	70e92120 	.word	0x70e92120
    253c:	bd707028 	.word	0xbd707028
    2540:	4cbbb5f8 	.word	0x4cbbb5f8
    2544:	78204606 	.word	0x78204606
    2548:	35404625 	.word	0x35404625
    254c:	d1022800 	.word	0xd1022800
    2550:	28007e28 	.word	0x28007e28
    2554:	48b8d004 	.word	0x48b8d004
    2558:	309d49b6 	.word	0x309d49b6
    255c:	fcedf012 	.word	0xfcedf012
    2560:	28017830 	.word	0x28017830
    2564:	2800d006 	.word	0x2800d006
    2568:	20f7d004 	.word	0x20f7d004
    256c:	008049b1 	.word	0x008049b1
    2570:	fce3f012 	.word	0xfce3f012
    2574:	71602001 	.word	0x71602001
    2578:	7120200c 	.word	0x7120200c
    257c:	27007830 	.word	0x27007830
    2580:	28014eaf 	.word	0x28014eaf
    2584:	f008d008 	.word	0xf008d008
    2588:	2803feb7 	.word	0x2803feb7
    258c:	f008d069 	.word	0xf008d069
    2590:	2803feb7 	.word	0x2803feb7
    2594:	e078d073 	.word	0xe078d073
    2598:	feaef008 	.word	0xfeaef008
    259c:	d1032800 	.word	0xd1032800
    25a0:	feaef008 	.word	0xfeaef008
    25a4:	d0042800 	.word	0xd0042800
    25a8:	fea6f008 	.word	0xfea6f008
    25ac:	d03d2802 	.word	0xd03d2802
    25b0:	f008e06b 	.word	0xf008e06b
    25b4:	2800fa4d 	.word	0x2800fa4d
    25b8:	7c28d067 	.word	0x7c28d067
    25bc:	d1642800 	.word	0xd1642800
    25c0:	2102489f 	.word	0x2102489f
    25c4:	f00e300c 	.word	0xf00e300c
    25c8:	2800fff6 	.word	0x2800fff6
    25cc:	210fd006 	.word	0x210fd006
    25d0:	020989b0 	.word	0x020989b0
    25d4:	fb8ff012 	.word	0xfb8ff012
    25d8:	e00081b1 	.word	0xe00081b1
    25dc:	220181b7 	.word	0x220181b7
    25e0:	48972103 	.word	0x48972103
    25e4:	fe2ef007 	.word	0xfe2ef007
    25e8:	f0084895 	.word	0xf0084895
    25ec:	89b0fbd3 	.word	0x89b0fbd3
    25f0:	ffa4f007 	.word	0xffa4f007
    25f4:	d1042800 	.word	0xd1042800
    25f8:	498e488f 	.word	0x498e488f
    25fc:	f01230b9 	.word	0xf01230b9
    2600:	89b0fc9c 	.word	0x89b0fc9c
    2604:	f0082100 	.word	0xf0082100
    2608:	2800f99d 	.word	0x2800f99d
    260c:	488ad004 	.word	0x488ad004
    2610:	30bd4988 	.word	0x30bd4988
    2614:	fc91f012 	.word	0xfc91f012
    2618:	8b687f29 	.word	0x8b687f29
    261c:	fb47f009 	.word	0xfb47f009
    2620:	d0312800 	.word	0xd0312800
    2624:	49834884 	.word	0x49834884
    2628:	e01730c1 	.word	0xe01730c1
    262c:	fe68f008 	.word	0xfe68f008
    2630:	d12a2800 	.word	0xd12a2800
    2634:	28007f28 	.word	0x28007f28
    2638:	2801d027 	.word	0x2801d027
    263c:	2804d025 	.word	0x2804d025
    2640:	f008d023 	.word	0xf008d023
    2644:	2800fa05 	.word	0x2800fa05
    2648:	7f29d01f 	.word	0x7f29d01f
    264c:	f0098b68 	.word	0xf0098b68
    2650:	2800fb2e 	.word	0x2800fb2e
    2654:	4878d018 	.word	0x4878d018
    2658:	30d54976 	.word	0x30d54976
    265c:	fc6df012 	.word	0xfc6df012
    2660:	2000e012 	.word	0x2000e012
    2664:	fa56f009 	.word	0xfa56f009
    2668:	d10e2800 	.word	0xd10e2800
    266c:	7c287127 	.word	0x7c287127
    2670:	d10a2800 	.word	0xd10a2800
    2674:	f7ff89b0 	.word	0xf7ff89b0
    2678:	e006f895 	.word	0xe006f895
    267c:	2000e7ff 	.word	0x2000e7ff
    2680:	fa48f009 	.word	0xfa48f009
    2684:	d1002800 	.word	0xd1002800
    2688:	201b7127 	.word	0x201b7127
    268c:	200170e0 	.word	0x200170e0
    2690:	bdf87020 	.word	0xbdf87020
    2694:	4d66b570 	.word	0x4d66b570
    2698:	78284604 	.word	0x78284604
    269c:	d1042800 	.word	0xd1042800
    26a0:	30404628 	.word	0x30404628
    26a4:	28007e00 	.word	0x28007e00
    26a8:	4863d004 	.word	0x4863d004
    26ac:	30814961 	.word	0x30814961
    26b0:	fc43f012 	.word	0xfc43f012
    26b4:	281f7820 	.word	0x281f7820
    26b8:	1c60d801 	.word	0x1c60d801
    26bc:	200fd104 	.word	0x200fd104
    26c0:	0180495c 	.word	0x0180495c
    26c4:	fc39f012 	.word	0xfc39f012
    26c8:	71282000 	.word	0x71282000
    26cc:	1c617820 	.word	0x1c617820
    26d0:	fa66f008 	.word	0xfa66f008
    26d4:	71682001 	.word	0x71682001
    26d8:	70e9211a 	.word	0x70e9211a
    26dc:	bd707028 	.word	0xbd707028
    26e0:	4d53b5f8 	.word	0x4d53b5f8
    26e4:	78284604 	.word	0x78284604
    26e8:	462e270c 	.word	0x462e270c
    26ec:	28003640 	.word	0x28003640
    26f0:	7e30d10a 	.word	0x7e30d10a
    26f4:	d1072800 	.word	0xd1072800
    26f8:	fdfef008 	.word	0xfdfef008
    26fc:	d0032803 	.word	0xd0032803
    2700:	fdfef008 	.word	0xfdfef008
    2704:	d1042803 	.word	0xd1042803
    2708:	494a484b 	.word	0x494a484b
    270c:	f0123047 	.word	0xf0123047
    2710:	7960fc14 	.word	0x7960fc14
    2714:	d0012800 	.word	0xd0012800
    2718:	d1292801 	.word	0xd1292801
    271c:	280079a0 	.word	0x280079a0
    2720:	2801d001 	.word	0x2801d001
    2724:	7ba0d124 	.word	0x7ba0d124
    2728:	d0052800 	.word	0xd0052800
    272c:	d0032801 	.word	0xd0032801
    2730:	d0012802 	.word	0xd0012802
    2734:	d11b2803 	.word	0xd11b2803
    2738:	07407b60 	.word	0x07407b60
    273c:	8862d018 	.word	0x8862d018
    2740:	03802001 	.word	0x03802001
    2744:	d8024282 	.word	0xd8024282
    2748:	42818821 	.word	0x42818821
    274c:	7920d901 	.word	0x7920d901
    2750:	7920e00c 	.word	0x7920e00c
    2754:	d0042800 	.word	0xd0042800
    2758:	d0052802 	.word	0xd0052802
    275c:	d0032803 	.word	0xd0032803
    2760:	2a20e004 	.word	0x2a20e004
    2764:	e00cd212 	.word	0xe00cd212
    2768:	d20f29a0 	.word	0xd20f29a0
    276c:	d00d2801 	.word	0xd00d2801
    2770:	28047920 	.word	0x28047920
    2774:	8820d105 	.word	0x8820d105
    2778:	d3022820 	.word	0xd3022820
    277c:	42888861 	.word	0x42888861
    2780:	482dd904 	.word	0x482dd904
    2784:	305d492b 	.word	0x305d492b
    2788:	fbd7f012 	.word	0xfbd7f012
    278c:	83708820 	.word	0x83708820
    2790:	77307920 	.word	0x77307920
    2794:	28007960 	.word	0x28007960
    2798:	2801d002 	.word	0x2801d002
    279c:	e00cd003 	.word	0xe00cd003
    27a0:	21004a28 	.word	0x21004a28
    27a4:	4a22e005 	.word	0x4a22e005
    27a8:	79903260 	.word	0x79903260
    27ac:	d0042800 	.word	0xd0042800
    27b0:	46202101 	.word	0x46202101
    27b4:	f950f008 	.word	0xf950f008
    27b8:	20014607 	.word	0x20014607
    27bc:	7168712f 	.word	0x7168712f
    27c0:	70e92118 	.word	0x70e92118
    27c4:	bdf87028 	.word	0xbdf87028
    27c8:	4c19b570 	.word	0x4c19b570
    27cc:	78204605 	.word	0x78204605
    27d0:	d1042800 	.word	0xd1042800
    27d4:	30404620 	.word	0x30404620
    27d8:	28007e00 	.word	0x28007e00
    27dc:	4915d003 	.word	0x4915d003
    27e0:	f0124819 	.word	0xf0124819
    27e4:	f008fbaa 	.word	0xf008fbaa
    27e8:	210cfd87 	.word	0x210cfd87
    27ec:	d10e2802 	.word	0xd10e2802
    27f0:	882a4813 	.word	0x882a4813
    27f4:	429a8983 	.word	0x429a8983
    27f8:	4602d128 	.word	0x4602d128
    27fc:	7f1332c0 	.word	0x7f1332c0
    2800:	d1042b00 	.word	0xd1042b00
    2804:	280e7e80 	.word	0x280e7e80
    2808:	280fd003 	.word	0x280fd003
    280c:	7121d001 	.word	0x7121d001
    2810:	2005e003 	.word	0x2005e003
    2814:	20007710 	.word	0x20007710
    2818:	200e7120 	.word	0x200e7120
    281c:	202e70a0 	.word	0x202e70a0
    2820:	882870e0 	.word	0x882870e0
    2824:	200180e0 	.word	0x200180e0
    2828:	70207160 	.word	0x70207160
    282c:	0000bd70 	.word	0x0000bd70
    2830:	200002e0 	.word	0x200002e0
    2834:	00001bb0 	.word	0x00001bb0
    2838:	0000033e 	.word	0x0000033e
    283c:	20000400 	.word	0x20000400
    2840:	200001d8 	.word	0x200001d8
    2844:	20000025 	.word	0x20000025
    2848:	000004d3 	.word	0x000004d3
    284c:	e7e32002 	.word	0xe7e32002
    2850:	4c81b570 	.word	0x4c81b570
    2854:	78204605 	.word	0x78204605
    2858:	d1042800 	.word	0xd1042800
    285c:	30404620 	.word	0x30404620
    2860:	28007e00 	.word	0x28007e00
    2864:	497dd003 	.word	0x497dd003
    2868:	f012487d 	.word	0xf012487d
    286c:	f008fb66 	.word	0xf008fb66
    2870:	210cfd43 	.word	0x210cfd43
    2874:	d10e2802 	.word	0xd10e2802
    2878:	882a487a 	.word	0x882a487a
    287c:	429a8983 	.word	0x429a8983
    2880:	4606d11f 	.word	0x4606d11f
    2884:	7f3236c0 	.word	0x7f3236c0
    2888:	d1042a00 	.word	0xd1042a00
    288c:	280e7e80 	.word	0x280e7e80
    2890:	280fd003 	.word	0x280fd003
    2894:	7121d001 	.word	0x7121d001
    2898:	486fe009 	.word	0x486fe009
    289c:	1ca92210 	.word	0x1ca92210
    28a0:	f012381e 	.word	0xf012381e
    28a4:	2004f9ae 	.word	0x2004f9ae
    28a8:	20007730 	.word	0x20007730
    28ac:	200e7120 	.word	0x200e7120
    28b0:	202d70a0 	.word	0x202d70a0
    28b4:	882870e0 	.word	0x882870e0
    28b8:	200180e0 	.word	0x200180e0
    28bc:	70207160 	.word	0x70207160
    28c0:	2002e7b4 	.word	0x2002e7b4
    28c4:	b510e7f2 	.word	0xb510e7f2
    28c8:	000b7801 	.word	0x000b7801
    28cc:	fc26f012 	.word	0xfc26f012
    28d0:	3887873d 	.word	0x3887873d
    28d4:	87588787 	.word	0x87588787
    28d8:	3b878787 	.word	0x3b878787
    28dc:	8787873e 	.word	0x8787873e
    28e0:	87875451 	.word	0x87875451
    28e4:	87878787 	.word	0x87878787
    28e8:	2c872842 	.word	0x2c872842
    28ec:	87878730 	.word	0x87878730
    28f0:	87873487 	.word	0x87873487
    28f4:	87878787 	.word	0x87878787
    28f8:	4a874687 	.word	0x4a874687
    28fc:	2420874e 	.word	0x2420874e
    2900:	5f5b6b87 	.word	0x5f5b6b87
    2904:	6f876763 	.word	0x6f876763
    2908:	7b827e87 	.word	0x7b827e87
    290c:	00877377 	.word	0x00877377
    2910:	f7ff1c80 	.word	0xf7ff1c80
    2914:	e060ff9d 	.word	0xe060ff9d
    2918:	f7ff1c80 	.word	0xf7ff1c80
    291c:	e05cff55 	.word	0xe05cff55
    2920:	f7ff1c80 	.word	0xf7ff1c80
    2924:	e058fedd 	.word	0xe058fedd
    2928:	f7ff1c80 	.word	0xf7ff1c80
    292c:	e054feb3 	.word	0xe054feb3
    2930:	f7ff1c80 	.word	0xf7ff1c80
    2934:	e050fe05 	.word	0xe050fe05
    2938:	f7ff1c80 	.word	0xf7ff1c80
    293c:	e04cfddb 	.word	0xe04cfddb
    2940:	fda9f7ff 	.word	0xfda9f7ff
    2944:	f7ffe049 	.word	0xf7ffe049
    2948:	e046fd8e 	.word	0xe046fd8e
    294c:	f7ff1c80 	.word	0xf7ff1c80
    2950:	e042fd12 	.word	0xe042fd12
    2954:	f7ff1c80 	.word	0xf7ff1c80
    2958:	e03efce8 	.word	0xe03efce8
    295c:	f7ff1c80 	.word	0xf7ff1c80
    2960:	e03afc8d 	.word	0xe03afc8d
    2964:	f7ff1c80 	.word	0xf7ff1c80
    2968:	e036fc58 	.word	0xe036fc58
    296c:	fc3bf7ff 	.word	0xfc3bf7ff
    2970:	f7ffe033 	.word	0xf7ffe033
    2974:	e030fc12 	.word	0xe030fc12
    2978:	f7ff1c80 	.word	0xf7ff1c80
    297c:	e02cfbd0 	.word	0xe02cfbd0
    2980:	fbb1f7ff 	.word	0xfbb1f7ff
    2984:	1c80e029 	.word	0x1c80e029
    2988:	fb7bf7ff 	.word	0xfb7bf7ff
    298c:	1c80e025 	.word	0x1c80e025
    2990:	fb55f7ff 	.word	0xfb55f7ff
    2994:	1c80e021 	.word	0x1c80e021
    2998:	fb0df7ff 	.word	0xfb0df7ff
    299c:	1c80e01d 	.word	0x1c80e01d
    29a0:	fadbf7ff 	.word	0xfadbf7ff
    29a4:	1c80e019 	.word	0x1c80e019
    29a8:	fab8f7ff 	.word	0xfab8f7ff
    29ac:	1c80e015 	.word	0x1c80e015
    29b0:	fa6ef7ff 	.word	0xfa6ef7ff
    29b4:	1c80e011 	.word	0x1c80e011
    29b8:	fa25f7ff 	.word	0xfa25f7ff
    29bc:	1c80e00d 	.word	0x1c80e00d
    29c0:	f9eff7ff 	.word	0xf9eff7ff
    29c4:	f7ffe009 	.word	0xf7ffe009
    29c8:	e006f9ca 	.word	0xe006f9ca
    29cc:	f7ff1c80 	.word	0xf7ff1c80
    29d0:	e002f99b 	.word	0xe002f99b
    29d4:	f7ff1c80 	.word	0xf7ff1c80
    29d8:	2001f97a 	.word	0x2001f97a
    29dc:	2000bd10 	.word	0x2000bd10
    29e0:	b510bd10 	.word	0xb510bd10
    29e4:	4820491d 	.word	0x4820491d
    29e8:	faa7f012 	.word	0xfaa7f012
    29ec:	b570bd10 	.word	0xb570bd10
    29f0:	24014a19 	.word	0x24014a19
    29f4:	4d1b4611 	.word	0x4d1b4611
    29f8:	00033140 	.word	0x00033140
    29fc:	fb8ef012 	.word	0xfb8ef012
    2a00:	1c1c1905 	.word	0x1c1c1905
    2a04:	001c1904 	.word	0x001c1904
    2a08:	21002201 	.word	0x21002201
    2a0c:	f0074815 	.word	0xf0074815
    2a10:	4811fc19 	.word	0x4811fc19
    2a14:	38482100 	.word	0x38482100
    2a18:	77417701 	.word	0x77417701
    2a1c:	f00938c0 	.word	0xf00938c0
    2a20:	2800f9c2 	.word	0x2800f9c2
    2a24:	4810d004 	.word	0x4810d004
    2a28:	30d3490c 	.word	0x30d3490c
    2a2c:	fa85f012 	.word	0xfa85f012
    2a30:	740ce6fc 	.word	0x740ce6fc
    2a34:	e6f96555 	.word	0xe6f96555
    2a38:	480c4908 	.word	0x480c4908
    2a3c:	b530e7f6 	.word	0xb530e7f6
    2a40:	e0064613 	.word	0xe0064613
    2a44:	3c2018cc 	.word	0x3c2018cc
    2a48:	1ad57fe4 	.word	0x1ad57fe4
    2a4c:	1e5b5544 	.word	0x1e5b5544
    2a50:	2b00b2db 	.word	0x2b00b2db
    2a54:	bd30d1f6 	.word	0xbd30d1f6
    2a58:	200002e0 	.word	0x200002e0
    2a5c:	00001bb0 	.word	0x00001bb0
    2a60:	000004a7 	.word	0x000004a7
    2a64:	200001d8 	.word	0x200001d8
    2a68:	00000643 	.word	0x00000643
    2a6c:	00000749 	.word	0x00000749
    2a70:	3860b510 	.word	0x3860b510
    2a74:	f0120003 	.word	0xf0120003
    2a78:	060afb51 	.word	0x060afb51
    2a7c:	18130f0a 	.word	0x18130f0a
    2a80:	312a261f 	.word	0x312a261f
    2a84:	68083b36 	.word	0x68083b36
    2a88:	fd90f000 	.word	0xfd90f000
    2a8c:	c905bd10 	.word	0xc905bd10
    2a90:	f0004611 	.word	0xf0004611
    2a94:	bd10fdaa 	.word	0xbd10fdaa
    2a98:	f0006808 	.word	0xf0006808
    2a9c:	bd10fe44 	.word	0xbd10fe44
    2aa0:	4611c905 	.word	0x4611c905
    2aa4:	fe48f000 	.word	0xfe48f000
    2aa8:	684bbd10 	.word	0x684bbd10
    2aac:	688a7808 	.word	0x688a7808
    2ab0:	f0004619 	.word	0xf0004619
    2ab4:	bd10fe53 	.word	0xbd10fe53
    2ab8:	688a684b 	.word	0x688a684b
    2abc:	46196808 	.word	0x46196808
    2ac0:	fe67f000 	.word	0xfe67f000
    2ac4:	6808bd10 	.word	0x6808bd10
    2ac8:	fe7cf000 	.word	0xfe7cf000
    2acc:	8808bd10 	.word	0x8808bd10
    2ad0:	b280684a 	.word	0xb280684a
    2ad4:	f0004611 	.word	0xf0004611
    2ad8:	bd10fe98 	.word	0xbd10fe98
    2adc:	4611c905 	.word	0x4611c905
    2ae0:	fec4f000 	.word	0xfec4f000
    2ae4:	c905bd10 	.word	0xc905bd10
    2ae8:	f0004611 	.word	0xf0004611
    2aec:	bd10fefa 	.word	0xbd10fefa
    2af0:	bd102001 	.word	0xbd102001
    2af4:	47702001 	.word	0x47702001
    2af8:	493f2001 	.word	0x493f2001
    2afc:	60080640 	.word	0x60080640
    2b00:	6008493e 	.word	0x6008493e
    2b04:	680a493e 	.word	0x680a493e
    2b08:	021b23ff 	.word	0x021b23ff
    2b0c:	1283439a 	.word	0x1283439a
    2b10:	600a431a 	.word	0x600a431a
    2b14:	39804938 	.word	0x39804938
    2b18:	47706008 	.word	0x47706008
    2b1c:	4602b510 	.word	0x4602b510
    2b20:	49382004 	.word	0x49382004
    2b24:	00c3e004 	.word	0x00c3e004
    2b28:	791b185b 	.word	0x791b185b
    2b2c:	d00a2b00 	.word	0xd00a2b00
    2b30:	1e404603 	.word	0x1e404603
    2b34:	2b00b2c0 	.word	0x2b00b2c0
    2b38:	a133d1f5 	.word	0xa133d1f5
    2b3c:	f0122043 	.word	0xf0122043
    2b40:	20fff9fc 	.word	0x20fff9fc
    2b44:	00c3bd10 	.word	0x00c3bd10
    2b48:	220050ca 	.word	0x220050ca
    2b4c:	714a1859 	.word	0x714a1859
    2b50:	2201718a 	.word	0x2201718a
    2b54:	bd10710a 	.word	0xbd10710a
    2b58:	21004a2a 	.word	0x21004a2a
    2b5c:	188000c0 	.word	0x188000c0
    2b60:	47707101 	.word	0x47707101
    2b64:	4604b510 	.word	0x4604b510
    2b68:	d3032804 	.word	0xd3032804
    2b6c:	2052a126 	.word	0x2052a126
    2b70:	f9e3f012 	.word	0xf9e3f012
    2b74:	00e14823 	.word	0x00e14823
    2b78:	7920180c 	.word	0x7920180c
    2b7c:	d0032801 	.word	0xd0032801
    2b80:	2053a121 	.word	0x2053a121
    2b84:	f9d9f012 	.word	0xf9d9f012
    2b88:	79a17960 	.word	0x79a17960
    2b8c:	b2c01c40 	.word	0xb2c01c40
    2b90:	d0004281 	.word	0xd0004281
    2b94:	20017160 	.word	0x20017160
    2b98:	06404917 	.word	0x06404917
    2b9c:	60083180 	.word	0x60083180
    2ba0:	b570bd10 	.word	0xb570bd10
    2ba4:	68004816 	.word	0x68004816
    2ba8:	0f800400 	.word	0x0f800400
    2bac:	d0032802 	.word	0xd0032802
    2bb0:	2069a115 	.word	0x2069a115
    2bb4:	f9c1f012 	.word	0xf9c1f012
    2bb8:	4c194e12 	.word	0x4c194e12
    2bbc:	78202503 	.word	0x78202503
    2bc0:	198800c1 	.word	0x198800c1
    2bc4:	2a017902 	.word	0x2a017902
    2bc8:	7942d107 	.word	0x7942d107
    2bcc:	429a7983 	.word	0x429a7983
    2bd0:	7942d003 	.word	0x7942d003
    2bd4:	58707182 	.word	0x58707182
    2bd8:	78204780 	.word	0x78204780
    2bdc:	b2c01c40 	.word	0xb2c01c40
    2be0:	28047020 	.word	0x28047020
    2be4:	2000d301 	.word	0x2000d301
    2be8:	46287020 	.word	0x46287020
    2bec:	b2ed1e6d 	.word	0xb2ed1e6d
    2bf0:	d1e42800 	.word	0xd1e42800
    2bf4:	0000bd70 	.word	0x0000bd70
    2bf8:	e000e180 	.word	0xe000e180
    2bfc:	e000e280 	.word	0xe000e280
    2c00:	e000e418 	.word	0xe000e418
    2c04:	2000122c 	.word	0x2000122c
    2c08:	5c637273 	.word	0x5c637273
    2c0c:	5f636f73 	.word	0x5f636f73
    2c10:	6e676973 	.word	0x6e676973
    2c14:	696c6c61 	.word	0x696c6c61
    2c18:	632e676e 	.word	0x632e676e
    2c1c:	00000000 	.word	0x00000000
    2c20:	2000003c 	.word	0x2000003c
    2c24:	f3efb510 	.word	0xf3efb510
    2c28:	07c48010 	.word	0x07c48010
    2c2c:	b6720fe4 	.word	0xb6720fe4
    2c30:	784148d6 	.word	0x784148d6
    2c34:	70411c49 	.word	0x70411c49
    2c38:	28017840 	.word	0x28017840
    2c3c:	f00fd101 	.word	0xf00fd101
    2c40:	2c00f921 	.word	0x2c00f921
    2c44:	b662d100 	.word	0xb662d100
    2c48:	b570bd10 	.word	0xb570bd10
    2c4c:	78e04ccf 	.word	0x78e04ccf
    2c50:	d10a2800 	.word	0xd10a2800
    2c54:	70e52501 	.word	0x70e52501
    2c58:	ffe4f7ff 	.word	0xffe4f7ff
    2c5c:	f91af00f 	.word	0xf91af00f
    2c60:	d0042800 	.word	0xd0042800
    2c64:	f00f2000 	.word	0xf00f2000
    2c68:	2000f8ed 	.word	0x2000f8ed
    2c6c:	48c8bd70 	.word	0x48c8bd70
    2c70:	60457165 	.word	0x60457165
    2c74:	b570e7f9 	.word	0xb570e7f9
    2c78:	8010f3ef 	.word	0x8010f3ef
    2c7c:	0fed07c5 	.word	0x0fed07c5
    2c80:	4cc2b672 	.word	0x4cc2b672
    2c84:	28007860 	.word	0x28007860
    2c88:	a1c2d103 	.word	0xa1c2d103
    2c8c:	f012208f 	.word	0xf012208f
    2c90:	7860f954 	.word	0x7860f954
    2c94:	70601e40 	.word	0x70601e40
    2c98:	28007860 	.word	0x28007860
    2c9c:	f00fd101 	.word	0xf00fd101
    2ca0:	2d00f8f5 	.word	0x2d00f8f5
    2ca4:	b662d100 	.word	0xb662d100
    2ca8:	b510bd70 	.word	0xb510bd70
    2cac:	78c148b7 	.word	0x78c148b7
    2cb0:	d0042900 	.word	0xd0042900
    2cb4:	71412100 	.word	0x71412100
    2cb8:	f7ff70c1 	.word	0xf7ff70c1
    2cbc:	2000ffdc 	.word	0x2000ffdc
    2cc0:	b510bd10 	.word	0xb510bd10
    2cc4:	f00f4604 	.word	0xf00f4604
    2cc8:	49b0f8e5 	.word	0x49b0f8e5
    2ccc:	400878c9 	.word	0x400878c9
    2cd0:	2001d000 	.word	0x2001d000
    2cd4:	20006020 	.word	0x20006020
    2cd8:	b5f8bd10 	.word	0xb5f8bd10
    2cdc:	4cab4602 	.word	0x4cab4602
    2ce0:	71a62600 	.word	0x71a62600
    2ce4:	21042008 	.word	0x21042008
    2ce8:	27102501 	.word	0x27102501
    2cec:	f0120013 	.word	0xf0120013
    2cf0:	080dfa15 	.word	0x080dfa15
    2cf4:	100e0c0a 	.word	0x100e0c0a
    2cf8:	1e161412 	.word	0x1e161412
    2cfc:	25232126 	.word	0x25232126
    2d00:	71250028 	.word	0x71250028
    2d04:	2002e022 	.word	0x2002e022
    2d08:	7121e001 	.word	0x7121e001
    2d0c:	7120e01e 	.word	0x7120e01e
    2d10:	7127e01c 	.word	0x7127e01c
    2d14:	2020e01a 	.word	0x2020e01a
    2d18:	2601e7f9 	.word	0x2601e7f9
    2d1c:	f7ffe016 	.word	0xf7ffe016
    2d20:	f00fff81 	.word	0xf00fff81
    2d24:	2800f8b7 	.word	0x2800f8b7
    2d28:	2602d0fb 	.word	0x2602d0fb
    2d2c:	7121e00e 	.word	0x7121e00e
    2d30:	e00b71a5 	.word	0xe00b71a5
    2d34:	e7fb7127 	.word	0xe7fb7127
    2d38:	e0002020 	.word	0xe0002020
    2d3c:	71202040 	.word	0x71202040
    2d40:	20ffe7f6 	.word	0x20ffe7f6
    2d44:	307ea193 	.word	0x307ea193
    2d48:	f8f7f012 	.word	0xf8f7f012
    2d4c:	f8aef00f 	.word	0xf8aef00f
    2d50:	d0092800 	.word	0xd0092800
    2d54:	f8b0f00f 	.word	0xf8b0f00f
    2d58:	d10542b0 	.word	0xd10542b0
    2d5c:	f00f4630 	.word	0xf00f4630
    2d60:	2800f8ae 	.word	0x2800f8ae
    2d64:	e024d0fa 	.word	0xe024d0fa
    2d68:	07802001 	.word	0x07802001
    2d6c:	4a8d60c5 	.word	0x4a8d60c5
    2d70:	60512100 	.word	0x60512100
    2d74:	61964a8c 	.word	0x61964a8c
    2d78:	22024b85 	.word	0x22024b85
    2d7c:	6085605a 	.word	0x6085605a
    2d80:	6903488a 	.word	0x6903488a
    2d84:	43db6905 	.word	0x43db6905
    2d88:	17db06db 	.word	0x17db06db
    2d8c:	27101c5b 	.word	0x27101c5b
    2d90:	6105433d 	.word	0x6105433d
    2d94:	e0004d83 	.word	0xe0004d83
    2d98:	686fbf20 	.word	0x686fbf20
    2d9c:	d0fb2f00 	.word	0xd0fb2f00
    2da0:	d1032b00 	.word	0xd1032b00
    2da4:	23106907 	.word	0x23106907
    2da8:	6107439f 	.word	0x6107439f
    2dac:	60824878 	.word	0x60824878
    2db0:	79a06069 	.word	0x79a06069
    2db4:	d00c2800 	.word	0xd00c2800
    2db8:	f86cf00f 	.word	0xf86cf00f
    2dbc:	f00e4605 	.word	0xf00e4605
    2dc0:	4a7bffc9 	.word	0x4a7bffc9
    2dc4:	d0022d00 	.word	0xd0022d00
    2dc8:	60e060a2 	.word	0x60e060a2
    2dcc:	60e2e001 	.word	0x60e2e001
    2dd0:	2e0060a0 	.word	0x2e0060a0
    2dd4:	f000d101 	.word	0xf000d101
    2dd8:	bdf8f8b1 	.word	0xbdf8f8b1
    2ddc:	4604b510 	.word	0x4604b510
    2de0:	f85ef00f 	.word	0xf85ef00f
    2de4:	d0052800 	.word	0xd0052800
    2de8:	20014968 	.word	0x20014968
    2dec:	784a70c8 	.word	0x784a70c8
    2df0:	704a1c52 	.word	0x704a1c52
    2df4:	f7ff4620 	.word	0xf7ff4620
    2df8:	bd10ff70 	.word	0xbd10ff70
    2dfc:	4f69b5f8 	.word	0x4f69b5f8
    2e00:	250068b8 	.word	0x250068b8
    2e04:	d1022801 	.word	0xd1022801
    2e08:	f00f60bd 	.word	0xf00f60bd
    2e0c:	6878f81b 	.word	0x6878f81b
    2e10:	d1002801 	.word	0xd1002801
    2e14:	6838607d 	.word	0x6838607d
    2e18:	4c5c2601 	.word	0x4c5c2601
    2e1c:	d1142801 	.word	0xd1142801
    2e20:	7960603d 	.word	0x7960603d
    2e24:	d0032800 	.word	0xd0032800
    2e28:	f00f2000 	.word	0xf00f2000
    2e2c:	7165f80b 	.word	0x7165f80b
    2e30:	28007820 	.word	0x28007820
    2e34:	f00fd009 	.word	0xf00fd009
    2e38:	2800f82d 	.word	0x2800f82d
    2e3c:	4859d005 	.word	0x4859d005
    2e40:	638638c0 	.word	0x638638c0
    2e44:	61060600 	.word	0x61060600
    2e48:	693870a6 	.word	0x693870a6
    2e4c:	d12c2801 	.word	0xd12c2801
    2e50:	f000613d 	.word	0xf000613d
    2e54:	2001f868 	.word	0x2001f868
    2e58:	61460780 	.word	0x61460780
    2e5c:	280079a0 	.word	0x280079a0
    2e60:	f00fd015 	.word	0xf00fd015
    2e64:	9000f817 	.word	0x9000f817
    2e68:	ff74f00e 	.word	0xff74f00e
    2e6c:	29009900 	.word	0x29009900
    2e70:	68e1d001 	.word	0x68e1d001
    2e74:	68a1e000 	.word	0x68a1e000
    2e78:	29021a41 	.word	0x29021a41
    2e7c:	1c8ada01 	.word	0x1c8ada01
    2e80:	9900dc13 	.word	0x9900dc13
    2e84:	d0012900 	.word	0xd0012900
    2e88:	e00060e0 	.word	0xe00060e0
    2e8c:	f7ff60a0 	.word	0xf7ff60a0
    2e90:	f00efec9 	.word	0xf00efec9
    2e94:	2800ffff 	.word	0x2800ffff
    2e98:	4842d006 	.word	0x4842d006
    2e9c:	638638c0 	.word	0x638638c0
    2ea0:	61060600 	.word	0x61060600
    2ea4:	e00070a6 	.word	0xe00070a6
    2ea8:	68f87026 	.word	0x68f87026
    2eac:	d1192801 	.word	0xd1192801
    2eb0:	f839f000 	.word	0xf839f000
    2eb4:	f837f000 	.word	0xf837f000
    2eb8:	f835f000 	.word	0xf835f000
    2ebc:	280078a0 	.word	0x280078a0
    2ec0:	20ffd104 	.word	0x20ffd104
    2ec4:	3005a133 	.word	0x3005a133
    2ec8:	f837f012 	.word	0xf837f012
    2ecc:	70a560fd 	.word	0x70a560fd
    2ed0:	f7ff7025 	.word	0xf7ff7025
    2ed4:	f00efed0 	.word	0xf00efed0
    2ed8:	2800fab4 	.word	0x2800fab4
    2edc:	4831d002 	.word	0x4831d002
    2ee0:	63c638c0 	.word	0x63c638c0
    2ee4:	b510bdf8 	.word	0xb510bdf8
    2ee8:	78e04c28 	.word	0x78e04c28
    2eec:	d1012800 	.word	0xd1012800
    2ef0:	ffccf00e 	.word	0xffccf00e
    2ef4:	07812001 	.word	0x07812001
    2ef8:	f0006188 	.word	0xf0006188
    2efc:	78a0f814 	.word	0x78a0f814
    2f00:	d00b2800 	.word	0xd00b2800
    2f04:	68e04c27 	.word	0x68e04c27
    2f08:	d1032800 	.word	0xd1032800
    2f0c:	ffd7f00e 	.word	0xffd7f00e
    2f10:	d1f82800 	.word	0xd1f82800
    2f14:	60e02000 	.word	0x60e02000
    2f18:	f805f000 	.word	0xf805f000
    2f1c:	491c2000 	.word	0x491c2000
    2f20:	608843c0 	.word	0x608843c0
    2f24:	b508bd10 	.word	0xb508bd10
    2f28:	46692050 	.word	0x46692050
    2f2c:	466a8008 	.word	0x466a8008
    2f30:	1e418810 	.word	0x1e418810
    2f34:	28008011 	.word	0x28008011
    2f38:	bd08d1f9 	.word	0xbd08d1f9
    2f3c:	4814b5f8 	.word	0x4814b5f8
    2f40:	60872719 	.word	0x60872719
    2f44:	20004917 	.word	0x20004917
    2f48:	60c86008 	.word	0x60c86008
    2f4c:	ffa2f00e 	.word	0xffa2f00e
    2f50:	240107bd 	.word	0x240107bd
    2f54:	28004e0d 	.word	0x28004e0d
    2f58:	4812d005 	.word	0x4812d005
    2f5c:	638438c0 	.word	0x638438c0
    2f60:	70b4612c 	.word	0x70b4612c
    2f64:	7034e000 	.word	0x7034e000
    2f68:	fe5cf7ff 	.word	0xfe5cf7ff
    2f6c:	60474808 	.word	0x60474808
    2f70:	7930490d 	.word	0x7930490d
    2f74:	f7ff6388 	.word	0xf7ff6388
    2f78:	61acffd6 	.word	0x61acffd6
    2f7c:	ffd3f7ff 	.word	0xffd3f7ff
    2f80:	20004908 	.word	0x20004908
    2f84:	616c6108 	.word	0x616c6108
    2f88:	0000bdf8 	.word	0x0000bdf8
    2f8c:	20000040 	.word	0x20000040
    2f90:	40000300 	.word	0x40000300
    2f94:	5c637273 	.word	0x5c637273
    2f98:	5f636f73 	.word	0x5f636f73
    2f9c:	636f6c63 	.word	0x636f6c63
    2fa0:	00632e6b 	.word	0x00632e6b
    2fa4:	40000100 	.word	0x40000100
    2fa8:	40000500 	.word	0x40000500
    2fac:	e000ed00 	.word	0xe000ed00
    2fb0:	7fffffff 	.word	0x7fffffff
    2fb4:	f010b510 	.word	0xf010b510
    2fb8:	bd10f820 	.word	0xbd10f820
    2fbc:	49042000 	.word	0x49042000
    2fc0:	200163c8 	.word	0x200163c8
    2fc4:	40812101 	.word	0x40812101
    2fc8:	60114a02 	.word	0x60114a02
    2fcc:	4770bf00 	.word	0x4770bf00
    2fd0:	40001fc0 	.word	0x40001fc0
    2fd4:	e000e280 	.word	0xe000e280
    2fd8:	4604b510 	.word	0x4604b510
    2fdc:	f851f00b 	.word	0xf851f00b
    2fe0:	f00c4620 	.word	0xf00c4620
    2fe4:	bd10f866 	.word	0xbd10f866
    2fe8:	47704770 	.word	0x47704770
    2fec:	47704770 	.word	0x47704770
    2ff0:	47704770 	.word	0x47704770
    2ff4:	47704770 	.word	0x47704770
    2ff8:	47704770 	.word	0x47704770
    2ffc:	47704770 	.word	0x47704770
    3000:	ffffff10 	.word	0xffffff10
    3004:	51b1e5db 	.word	0x51b1e5db
    3008:	00016000 	.word	0x00016000
    300c:	ffff005a 	.word	0xffff005a
    3010:	4801b403 	.word	0x4801b403
    3014:	bd019001 	.word	0xbd019001
    3018:	20000009 	.word	0x20000009
    301c:	704849fe 	.word	0x704849fe
    3020:	b5104770 	.word	0xb5104770
    3024:	f0120003 	.word	0xf0120003
    3028:	0e08f879 	.word	0x0e08f879
    302c:	08080e05 	.word	0x08080e05
    3030:	110e0b0b 	.word	0x110e0b0b
    3034:	f86bf004 	.word	0xf86bf004
    3038:	f7ffbd10 	.word	0xf7ffbd10
    303c:	bd10ffcd 	.word	0xbd10ffcd
    3040:	ffa0f00d 	.word	0xffa0f00d
    3044:	f001bd10 	.word	0xf001bd10
    3048:	bd10fe77 	.word	0xbd10fe77
    304c:	a1f320ff 	.word	0xa1f320ff
    3050:	f011309a 	.word	0xf011309a
    3054:	bd10ff72 	.word	0xbd10ff72
    3058:	49f4b57f 	.word	0x49f4b57f
    305c:	68484605 	.word	0x68484605
    3060:	23086889 	.word	0x23086889
    3064:	90009101 	.word	0x90009101
    3068:	46194af1 	.word	0x46194af1
    306c:	f00e48f1 	.word	0xf00e48f1
    3070:	2400fd43 	.word	0x2400fd43
    3074:	f00e48f0 	.word	0xf00e48f0
    3078:	1c64fd5d 	.word	0x1c64fd5d
    307c:	2c08b2e4 	.word	0x2c08b2e4
    3080:	49ebd3f8 	.word	0x49ebd3f8
    3084:	31802003 	.word	0x31802003
    3088:	f00c0240 	.word	0xf00c0240
    308c:	2800f8e7 	.word	0x2800f8e7
    3090:	a1e2d003 	.word	0xa1e2d003
    3094:	f01120bf 	.word	0xf01120bf
    3098:	221eff50 	.word	0x221eff50
    309c:	48e72102 	.word	0x48e72102
    30a0:	fc9ff00a 	.word	0xfc9ff00a
    30a4:	221e48e5 	.word	0x221e48e5
    30a8:	30102103 	.word	0x30102103
    30ac:	fa13f00b 	.word	0xfa13f00b
    30b0:	220748e2 	.word	0x220748e2
    30b4:	30742134 	.word	0x30742134
    30b8:	fbecf00a 	.word	0xfbecf00a
    30bc:	214c48df 	.word	0x214c48df
    30c0:	f0113028 	.word	0xf0113028
    30c4:	49ddfdfd 	.word	0x49ddfdfd
    30c8:	3174466a 	.word	0x3174466a
    30cc:	384c4608 	.word	0x384c4608
    30d0:	31ff6401 	.word	0x31ff6401
    30d4:	6441317b 	.word	0x6441317b
    30d8:	72112101 	.word	0x72112101
    30dc:	f0029003 	.word	0xf0029003
    30e0:	a802f8aa 	.word	0xa802f8aa
    30e4:	fc08f00c 	.word	0xfc08f00c
    30e8:	d0032800 	.word	0xd0032800
    30ec:	20d3a1cb 	.word	0x20d3a1cb
    30f0:	ff23f011 	.word	0xff23f011
    30f4:	220248cf 	.word	0x220248cf
    30f8:	38a82124 	.word	0x38a82124
    30fc:	fbcaf00a 	.word	0xfbcaf00a
    3100:	220248cc 	.word	0x220248cc
    3104:	385c212c 	.word	0x385c212c
    3108:	fbc4f00a 	.word	0xfbc4f00a
    310c:	200b49cc 	.word	0x200b49cc
    3110:	f83af00e 	.word	0xf83af00e
    3114:	d0032800 	.word	0xd0032800
    3118:	20e0a1c0 	.word	0x20e0a1c0
    311c:	ff0df011 	.word	0xff0df011
    3120:	ffdef003 	.word	0xffdef003
    3124:	f9e2f003 	.word	0xf9e2f003
    3128:	fe3ef004 	.word	0xfe3ef004
    312c:	2200466b 	.word	0x2200466b
    3130:	a0c42108 	.word	0xa0c42108
    3134:	ff6ef001 	.word	0xff6ef001
    3138:	d0032800 	.word	0xd0032800
    313c:	20e7a1b7 	.word	0x20e7a1b7
    3140:	fefbf011 	.word	0xfefbf011
    3144:	f0054628 	.word	0xf0054628
    3148:	2800f949 	.word	0x2800f949
    314c:	a1b3d003 	.word	0xa1b3d003
    3150:	f01120e9 	.word	0xf01120e9
    3154:	2185fef2 	.word	0x2185fef2
    3158:	48bd00c9 	.word	0x48bd00c9
    315c:	fdb0f011 	.word	0xfdb0f011
    3160:	4ab249bb 	.word	0x4ab249bb
    3164:	5c132000 	.word	0x5c132000
    3168:	1c40180c 	.word	0x1c40180c
    316c:	70e3b2c0 	.word	0x70e3b2c0
    3170:	d3f82804 	.word	0xd3f82804
    3174:	200049a8 	.word	0x200049a8
    3178:	70886048 	.word	0x70886048
    317c:	bd7f70c8 	.word	0xbd7f70c8
    3180:	4eb4b570 	.word	0x4eb4b570
    3184:	6a704605 	.word	0x6a704605
    3188:	460cb094 	.word	0x460cb094
    318c:	d1041c40 	.word	0xd1041c40
    3190:	43c06ab0 	.word	0x43c06ab0
    3194:	0c000400 	.word	0x0c000400
    3198:	6a30d00b 	.word	0x6a30d00b
    319c:	0fc007c0 	.word	0x0fc007c0
    31a0:	6a707028 	.word	0x6a707028
    31a4:	fd9ff011 	.word	0xfd9ff011
    31a8:	71206ab0 	.word	0x71206ab0
    31ac:	71600a00 	.word	0x71600a00
    31b0:	202be014 	.word	0x202be014
    31b4:	70084669 	.word	0x70084669
    31b8:	4668a909 	.word	0x4668a909
    31bc:	fbb0f00a 	.word	0xfbb0f00a
    31c0:	d0042800 	.word	0xd0042800
    31c4:	a19520ff 	.word	0xa19520ff
    31c8:	f011300e 	.word	0xf011300e
    31cc:	2001feb6 	.word	0x2001feb6
    31d0:	22067028 	.word	0x22067028
    31d4:	4620a90a 	.word	0x4620a90a
    31d8:	fd13f011 	.word	0xfd13f011
    31dc:	28007828 	.word	0x28007828
    31e0:	7960d003 	.word	0x7960d003
    31e4:	430821c0 	.word	0x430821c0
    31e8:	b0147160 	.word	0xb0147160
    31ec:	b5f0bd70 	.word	0xb5f0bd70
    31f0:	46064c98 	.word	0x46064c98
    31f4:	b0956820 	.word	0xb0956820
    31f8:	4637460d 	.word	0x4637460d
    31fc:	37081c40 	.word	0x37081c40
    3200:	d1082800 	.word	0xd1082800
    3204:	1c406860 	.word	0x1c406860
    3208:	68a0d105 	.word	0x68a0d105
    320c:	d1021c40 	.word	0xd1021c40
    3210:	1c4068e0 	.word	0x1c4068e0
    3214:	6820d011 	.word	0x6820d011
    3218:	f0114631 	.word	0xf0114631
    321c:	6860fd64 	.word	0x6860fd64
    3220:	f0111d31 	.word	0xf0111d31
    3224:	68a0fd60 	.word	0x68a0fd60
    3228:	f0114639 	.word	0xf0114639
    322c:	68e0fd5c 	.word	0x68e0fd5c
    3230:	310c4631 	.word	0x310c4631
    3234:	fd57f011 	.word	0xfd57f011
    3238:	202be025 	.word	0x202be025
    323c:	70084669 	.word	0x70084669
    3240:	4668a909 	.word	0x4668a909
    3244:	fb6cf00a 	.word	0xfb6cf00a
    3248:	d0042800 	.word	0xd0042800
    324c:	a17320ff 	.word	0xa17320ff
    3250:	f0113037 	.word	0xf0113037
    3254:	2208fe72 	.word	0x2208fe72
    3258:	4630a90a 	.word	0x4630a90a
    325c:	fcd1f011 	.word	0xfcd1f011
    3260:	4669202b 	.word	0x4669202b
    3264:	a9097008 	.word	0xa9097008
    3268:	f00a4668 	.word	0xf00a4668
    326c:	2800fb59 	.word	0x2800fb59
    3270:	20ffd004 	.word	0x20ffd004
    3274:	303ea169 	.word	0x303ea169
    3278:	fe5ff011 	.word	0xfe5ff011
    327c:	a90a2208 	.word	0xa90a2208
    3280:	f0114638 	.word	0xf0114638
    3284:	6920fcbe 	.word	0x6920fcbe
    3288:	1c40462e 	.word	0x1c40462e
    328c:	28003608 	.word	0x28003608
    3290:	6960d108 	.word	0x6960d108
    3294:	d1051c40 	.word	0xd1051c40
    3298:	1c4069a0 	.word	0x1c4069a0
    329c:	69e0d102 	.word	0x69e0d102
    32a0:	d0121c40 	.word	0xd0121c40
    32a4:	46296920 	.word	0x46296920
    32a8:	fd1df011 	.word	0xfd1df011
    32ac:	1d296960 	.word	0x1d296960
    32b0:	fd19f011 	.word	0xfd19f011
    32b4:	463169a0 	.word	0x463169a0
    32b8:	fd15f011 	.word	0xfd15f011
    32bc:	462969e0 	.word	0x462969e0
    32c0:	f011310c 	.word	0xf011310c
    32c4:	b015fd10 	.word	0xb015fd10
    32c8:	242bbdf0 	.word	0x242bbdf0
    32cc:	70044668 	.word	0x70044668
    32d0:	f00aa909 	.word	0xf00aa909
    32d4:	2800fb25 	.word	0x2800fb25
    32d8:	20ffd004 	.word	0x20ffd004
    32dc:	305ca14f 	.word	0x305ca14f
    32e0:	fe2bf011 	.word	0xfe2bf011
    32e4:	af092208 	.word	0xaf092208
    32e8:	4628a90a 	.word	0x4628a90a
    32ec:	fc89f011 	.word	0xfc89f011
    32f0:	70044668 	.word	0x70044668
    32f4:	f00aa909 	.word	0xf00aa909
    32f8:	2800fb13 	.word	0x2800fb13
    32fc:	20ffd004 	.word	0x20ffd004
    3300:	3063a146 	.word	0x3063a146
    3304:	fe19f011 	.word	0xfe19f011
    3308:	1d392208 	.word	0x1d392208
    330c:	f0114630 	.word	0xf0114630
    3310:	e7d8fc78 	.word	0xe7d8fc78
    3314:	2100b510 	.word	0x2100b510
    3318:	f00e4608 	.word	0xf00e4608
    331c:	2100fcc3 	.word	0x2100fcc3
    3320:	f00e2001 	.word	0xf00e2001
    3324:	2100fcbf 	.word	0x2100fcbf
    3328:	f00e2002 	.word	0xf00e2002
    332c:	2100fcbb 	.word	0x2100fcbb
    3330:	f00e2003 	.word	0xf00e2003
    3334:	2100fcb7 	.word	0x2100fcb7
    3338:	f00e2004 	.word	0xf00e2004
    333c:	2100fcb3 	.word	0x2100fcb3
    3340:	f00e2005 	.word	0xf00e2005
    3344:	bd10fcaf 	.word	0xbd10fcaf
    3348:	4c41b510 	.word	0x4c41b510
    334c:	280b78a0 	.word	0x280b78a0
    3350:	20ffd304 	.word	0x20ffd304
    3354:	30b3a131 	.word	0x30b3a131
    3358:	fdeff011 	.word	0xfdeff011
    335c:	21607820 	.word	0x21607820
    3360:	19004348 	.word	0x19004348
    3364:	21003008 	.word	0x21003008
    3368:	78417001 	.word	0x78417001
    336c:	08c922e7 	.word	0x08c922e7
    3370:	1cc900c9 	.word	0x1cc900c9
    3374:	70414011 	.word	0x70414011
    3378:	21014a27 	.word	0x21014a27
    337c:	bd107091 	.word	0xbd107091
    3380:	4c25b570 	.word	0x4c25b570
    3384:	280078a0 	.word	0x280078a0
    3388:	4831d00e 	.word	0x4831d00e
    338c:	78012500 	.word	0x78012500
    3390:	b2c91c49 	.word	0xb2c91c49
    3394:	290b7001 	.word	0x290b7001
    3398:	7005d100 	.word	0x7005d100
    339c:	1c497881 	.word	0x1c497881
    33a0:	f00e7081 	.word	0xf00e7081
    33a4:	70a5fd4a 	.word	0x70a5fd4a
    33a8:	b570bd70 	.word	0xb570bd70
    33ac:	46054c1a 	.word	0x46054c1a
    33b0:	28006860 	.word	0x28006860
    33b4:	20ffd004 	.word	0x20ffd004
    33b8:	30dca118 	.word	0x30dca118
    33bc:	fdbdf011 	.word	0xfdbdf011
    33c0:	bd706065 	.word	0xbd706065
    33c4:	4e14b570 	.word	0x4e14b570
    33c8:	f7ff4d21 	.word	0xf7ff4d21
    33cc:	6871ffbd 	.word	0x6871ffbd
    33d0:	29004604 	.word	0x29004604
    33d4:	2260d007 	.word	0x2260d007
    33d8:	fef6f7fd 	.word	0xfef6f7fd
    33dc:	ffd0f7ff 	.word	0xffd0f7ff
    33e0:	60702000 	.word	0x60702000
    33e4:	7928e7f1 	.word	0x7928e7f1
    33e8:	d0762800 	.word	0xd0762800
    33ec:	385c4811 	.word	0x385c4811
    33f0:	fa60f00a 	.word	0xfa60f00a
    33f4:	28006060 	.word	0x28006060
    33f8:	20ffd104 	.word	0x20ffd104
    33fc:	30faa107 	.word	0x30faa107
    3400:	fd9bf011 	.word	0xfd9bf011
    3404:	f00a6860 	.word	0xf00a6860
    3408:	2800fab3 	.word	0x2800fab3
    340c:	4620d031 	.word	0x4620d031
    3410:	ff3ff000 	.word	0xff3ff000
    3414:	e01f7860 	.word	0xe01f7860
    3418:	20000034 	.word	0x20000034
    341c:	5c637273 	.word	0x5c637273
    3420:	74736f68 	.word	0x74736f68
    3424:	726f635f 	.word	0x726f635f
    3428:	00632e65 	.word	0x00632e65
    342c:	00015148 	.word	0x00015148
    3430:	20000404 	.word	0x20000404
    3434:	2000120c 	.word	0x2000120c
    3438:	00003023 	.word	0x00003023
    343c:	20000a84 	.word	0x20000a84
    3440:	200010b4 	.word	0x200010b4
    3444:	3546526e 	.word	0x3546526e
    3448:	32323831 	.word	0x32323831
    344c:	00000000 	.word	0x00000000
    3450:	20000c8c 	.word	0x20000c8c
    3454:	10000080 	.word	0x10000080
    3458:	d5070701 	.word	0xd5070701
    345c:	00c008c0 	.word	0x00c008c0
    3460:	70601c40 	.word	0x70601c40
    3464:	1e407928 	.word	0x1e407928
    3468:	e0277128 	.word	0xe0277128
    346c:	686148f7 	.word	0x686148f7
    3470:	48f6e02a 	.word	0x48f6e02a
    3474:	f00a6861 	.word	0xf00a6861
    3478:	7968fa26 	.word	0x7968fa26
    347c:	d02c2800 	.word	0xd02c2800
    3480:	384c48f2 	.word	0x384c48f2
    3484:	fa16f00a 	.word	0xfa16f00a
    3488:	28006060 	.word	0x28006060
    348c:	2087d104 	.word	0x2087d104
    3490:	008049ef 	.word	0x008049ef
    3494:	fd51f011 	.word	0xfd51f011
    3498:	f00a6860 	.word	0xf00a6860
    349c:	2800fa6d 	.word	0x2800fa6d
    34a0:	4620d016 	.word	0x4620d016
    34a4:	fe72f003 	.word	0xfe72f003
    34a8:	07017860 	.word	0x07017860
    34ac:	08c0d509 	.word	0x08c0d509
    34b0:	1c8000c0 	.word	0x1c8000c0
    34b4:	79687060 	.word	0x79687060
    34b8:	71681e40 	.word	0x71681e40
    34bc:	ff60f7ff 	.word	0xff60f7ff
    34c0:	48e2e783 	.word	0x48e2e783
    34c4:	384c6861 	.word	0x384c6861
    34c8:	f9fdf00a 	.word	0xf9fdf00a
    34cc:	e004e77d 	.word	0xe004e77d
    34d0:	686148de 	.word	0x686148de
    34d4:	f00a384c 	.word	0xf00a384c
    34d8:	bd70f9f6 	.word	0xbd70f9f6
    34dc:	4605b5f7 	.word	0x4605b5f7
    34e0:	27007800 	.word	0x27007800
    34e4:	460c0900 	.word	0x460c0900
    34e8:	2806463e 	.word	0x2806463e
    34ec:	49d8d003 	.word	0x49d8d003
    34f0:	f01148d8 	.word	0xf01148d8
    34f4:	7a28fd22 	.word	0x7a28fd22
    34f8:	d00e2800 	.word	0xd00e2800
    34fc:	d0142801 	.word	0xd0142801
    3500:	49d348d4 	.word	0x49d348d4
    3504:	f0113021 	.word	0xf0113021
    3508:	9802fd18 	.word	0x9802fd18
    350c:	80062c00 	.word	0x80062c00
    3510:	8027d001 	.word	0x8027d001
    3514:	20008066 	.word	0x20008066
    3518:	2702bdfe 	.word	0x2702bdfe
    351c:	2c002609 	.word	0x2c002609
    3520:	89a8d00e 	.word	0x89a8d00e
    3524:	7ba880a0 	.word	0x7ba880a0
    3528:	2703e008 	.word	0x2703e008
    352c:	2c002614 	.word	0x2c002614
    3530:	6928d006 	.word	0x6928d006
    3534:	8aa860e0 	.word	0x8aa860e0
    3538:	7b288220 	.word	0x7b288220
    353c:	e7e47220 	.word	0xe7e47220
    3540:	80069802 	.word	0x80069802
    3544:	b570e7e7 	.word	0xb570e7e7
    3548:	2100460e 	.word	0x2100460e
    354c:	8019461c 	.word	0x8019461c
    3550:	00034615 	.word	0x00034615
    3554:	fde2f011 	.word	0xfde2f011
    3558:	0b052307 	.word	0x0b052307
    355c:	1d231117 	.word	0x1d231117
    3560:	46220023 	.word	0x46220023
    3564:	46304629 	.word	0x46304629
    3568:	fddcf003 	.word	0xfddcf003
    356c:	4622bd70 	.word	0x4622bd70
    3570:	46304629 	.word	0x46304629
    3574:	f951f001 	.word	0xf951f001
    3578:	4622bd70 	.word	0x4622bd70
    357c:	46304629 	.word	0x46304629
    3580:	fb0df004 	.word	0xfb0df004
    3584:	4622bd70 	.word	0x4622bd70
    3588:	46304629 	.word	0x46304629
    358c:	ffe2f002 	.word	0xffe2f002
    3590:	4622bd70 	.word	0x4622bd70
    3594:	46304629 	.word	0x46304629
    3598:	ffa0f7ff 	.word	0xffa0f7ff
    359c:	48adbd70 	.word	0x48adbd70
    35a0:	304749ab 	.word	0x304749ab
    35a4:	fcc9f011 	.word	0xfcc9f011
    35a8:	bd702003 	.word	0xbd702003
    35ac:	4caab510 	.word	0x4caab510
    35b0:	29007821 	.word	0x29007821
    35b4:	2008d001 	.word	0x2008d001
    35b8:	f7ffbd10 	.word	0xf7ffbd10
    35bc:	2001fd4d 	.word	0x2001fd4d
    35c0:	20007020 	.word	0x20007020
    35c4:	4601bd10 	.word	0x4601bd10
    35c8:	b51048a0 	.word	0xb51048a0
    35cc:	f00a384c 	.word	0xf00a384c
    35d0:	49a2f97a 	.word	0x49a2f97a
    35d4:	1c407948 	.word	0x1c407948
    35d8:	7148b2c0 	.word	0x7148b2c0
    35dc:	d1032801 	.word	0xd1032801
    35e0:	7840489d 	.word	0x7840489d
    35e4:	fabef7ff 	.word	0xfabef7ff
    35e8:	b5f8bd10 	.word	0xb5f8bd10
    35ec:	489c4605 	.word	0x489c4605
    35f0:	4281460f 	.word	0x4281460f
    35f4:	2d00d308 	.word	0x2d00d308
    35f8:	4285d001 	.word	0x4285d001
    35fc:	1ce8d304 	.word	0x1ce8d304
    3600:	00800880 	.word	0x00800880
    3604:	d00142a8 	.word	0xd00142a8
    3608:	bdf82010 	.word	0xbdf82010
    360c:	78814893 	.word	0x78814893
    3610:	d0112900 	.word	0xd0112900
    3614:	91008839 	.word	0x91008839
    3618:	22607841 	.word	0x22607841
    361c:	180c4351 	.word	0x180c4351
    3620:	78203408 	.word	0x78203408
    3624:	0700463b 	.word	0x0700463b
    3628:	22000f00 	.word	0x22000f00
    362c:	f7ff4621 	.word	0xf7ff4621
    3630:	0006ff8a 	.word	0x0006ff8a
    3634:	e015d004 	.word	0xe015d004
    3638:	80382000 	.word	0x80382000
    363c:	bdf82005 	.word	0xbdf82005
    3640:	d0132d00 	.word	0xd0132d00
    3644:	98008839 	.word	0x98008839
    3648:	d9014281 	.word	0xd9014281
    364c:	e00d260c 	.word	0xe00d260c
    3650:	463b7820 	.word	0x463b7820
    3654:	0f000700 	.word	0x0f000700
    3658:	4621462a 	.word	0x4621462a
    365c:	ff73f7ff 	.word	0xff73f7ff
    3660:	d0050006 	.word	0xd0050006
    3664:	d0012e0c 	.word	0xd0012e0c
    3668:	80382000 	.word	0x80382000
    366c:	bdf84630 	.word	0xbdf84630
    3670:	78684d7a 	.word	0x78684d7a
    3674:	b2c01c40 	.word	0xb2c01c40
    3678:	280b7068 	.word	0x280b7068
    367c:	2000d101 	.word	0x2000d101
    3680:	78a87068 	.word	0x78a87068
    3684:	70a81e40 	.word	0x70a81e40
    3688:	07487861 	.word	0x07487861
    368c:	28020f40 	.word	0x28020f40
    3690:	2801d010 	.word	0x2801d010
    3694:	486dd1ea 	.word	0x486dd1ea
    3698:	f00a6861 	.word	0xf00a6861
    369c:	7928f914 	.word	0x7928f914
    36a0:	b2c01c40 	.word	0xb2c01c40
    36a4:	28017128 	.word	0x28017128
    36a8:	486bd1e0 	.word	0x486bd1e0
    36ac:	f7ff7840 	.word	0xf7ff7840
    36b0:	e7dbfa59 	.word	0xe7dbfa59
    36b4:	d4d906c8 	.word	0xd4d906c8
    36b8:	f7ff6860 	.word	0xf7ff6860
    36bc:	e7d5ff84 	.word	0xe7d5ff84
    36c0:	4604b570 	.word	0x4604b570
    36c4:	46164867 	.word	0x46164867
    36c8:	4281460d 	.word	0x4281460d
    36cc:	4861d104 	.word	0x4861d104
    36d0:	30c5495f 	.word	0x30c5495f
    36d4:	fc31f011 	.word	0xfc31f011
    36d8:	d0052e01 	.word	0xd0052e01
    36dc:	495c485d 	.word	0x495c485d
    36e0:	f01130d5 	.word	0xf01130d5
    36e4:	bd70fc2a 	.word	0xbd70fc2a
    36e8:	2101485b 	.word	0x2101485b
    36ec:	206670c1 	.word	0x206670c1
    36f0:	20007020 	.word	0x20007020
    36f4:	81a57220 	.word	0x81a57220
    36f8:	bd7073a1 	.word	0xbd7073a1
    36fc:	4616b570 	.word	0x4616b570
    3700:	0004460d 	.word	0x0004460d
    3704:	f7ffd101 	.word	0xf7ffd101
    3708:	2166fe1f 	.word	0x2166fe1f
    370c:	21017001 	.word	0x21017001
    3710:	68297201 	.word	0x68297201
    3714:	88a96101 	.word	0x88a96101
    3718:	73068281 	.word	0x73068281
    371c:	d1012c00 	.word	0xd1012c00
    3720:	fe2ef7ff 	.word	0xfe2ef7ff
    3724:	494ebd70 	.word	0x494ebd70
    3728:	d2014288 	.word	0xd2014288
    372c:	47702010 	.word	0x47702010
    3730:	70012107 	.word	0x70012107
    3734:	47702000 	.word	0x47702000
    3738:	b5104a4b 	.word	0xb5104a4b
    373c:	d3084290 	.word	0xd3084290
    3740:	04a42401 	.word	0x04a42401
    3744:	42a04a46 	.word	0x42a04a46
    3748:	4290d301 	.word	0x4290d301
    374c:	4291d301 	.word	0x4291d301
    3750:	2010d201 	.word	0x2010d201
    3754:	f00dbd10 	.word	0xf00dbd10
    3758:	bd10fd50 	.word	0xbd10fd50
    375c:	b5104b42 	.word	0xb5104b42
    3760:	d3084299 	.word	0xd3084299
    3764:	04a42401 	.word	0x04a42401
    3768:	42a14b3d 	.word	0x42a14b3d
    376c:	4299d301 	.word	0x4299d301
    3770:	429ad301 	.word	0x429ad301
    3774:	2010d201 	.word	0x2010d201
    3778:	2802bd10 	.word	0x2802bd10
    377c:	2810d003 	.word	0x2810d003
    3780:	2009d001 	.word	0x2009d001
    3784:	f00dbd10 	.word	0xf00dbd10
    3788:	2800fd5e 	.word	0x2800fd5e
    378c:	2005d0fa 	.word	0x2005d0fa
    3790:	4b35bd10 	.word	0x4b35bd10
    3794:	4298b510 	.word	0x4298b510
    3798:	2401d30c 	.word	0x2401d30c
    379c:	4b3004a4 	.word	0x4b3004a4
    37a0:	d30142a0 	.word	0xd30142a0
    37a4:	d3054298 	.word	0xd3054298
    37a8:	d3034299 	.word	0xd3034299
    37ac:	d0032a00 	.word	0xd0032a00
    37b0:	d201429a 	.word	0xd201429a
    37b4:	bd102010 	.word	0xbd102010
    37b8:	fd6bf00d 	.word	0xfd6bf00d
    37bc:	d0fa2800 	.word	0xd0fa2800
    37c0:	bd102007 	.word	0xbd102007
    37c4:	4604b510 	.word	0x4604b510
    37c8:	b0944825 	.word	0xb0944825
    37cc:	d2024284 	.word	0xd2024284
    37d0:	b0142010 	.word	0xb0142010
    37d4:	f001bd10 	.word	0xf001bd10
    37d8:	2800fd9a 	.word	0x2800fd9a
    37dc:	2011d001 	.word	0x2011d001
    37e0:	200fe7f7 	.word	0x200fe7f7
    37e4:	7308a908 	.word	0x7308a908
    37e8:	a80b4669 	.word	0xa80b4669
    37ec:	f898f00a 	.word	0xf898f00a
    37f0:	d1ee2800 	.word	0xd1ee2800
    37f4:	7a004668 	.word	0x7a004668
    37f8:	46687020 	.word	0x46687020
    37fc:	80608940 	.word	0x80608940
    3800:	89804668 	.word	0x89804668
    3804:	200080a0 	.word	0x200080a0
    3808:	b510e7e3 	.word	0xb510e7e3
    380c:	46084c12 	.word	0x46084c12
    3810:	290078e1 	.word	0x290078e1
    3814:	2800d00e 	.word	0x2800d00e
    3818:	4a11d00a 	.word	0x4a11d00a
    381c:	d3024290 	.word	0xd3024290
    3820:	42936803 	.word	0x42936803
    3824:	2010d201 	.word	0x2010d201
    3828:	8882bd10 	.word	0x8882bd10
    382c:	d0032a00 	.word	0xd0032a00
    3830:	d0032901 	.word	0xd0032901
    3834:	bd102008 	.word	0xbd102008
    3838:	bd102009 	.word	0xbd102009
    383c:	fb18f004 	.word	0xfb18f004
    3840:	d1fa2800 	.word	0xd1fa2800
    3844:	70e12100 	.word	0x70e12100
    3848:	0000bd10 	.word	0x0000bd10
    384c:	200011b0 	.word	0x200011b0
    3850:	0000341c 	.word	0x0000341c
    3854:	0000023e 	.word	0x0000023e
    3858:	20000034 	.word	0x20000034
    385c:	20000c8c 	.word	0x20000c8c
    3860:	20002000 	.word	0x20002000
    3864:	0000ffff 	.word	0x0000ffff
    3868:	00016000 	.word	0x00016000
    386c:	4a24b510 	.word	0x4a24b510
    3870:	4291b094 	.word	0x4291b094
    3874:	2201d30d 	.word	0x2201d30d
    3878:	4b220492 	.word	0x4b220492
    387c:	d3014291 	.word	0xd3014291
    3880:	d3064299 	.word	0xd3064299
    3884:	2c1e1e44 	.word	0x2c1e1e44
    3888:	4291d824 	.word	0x4291d824
    388c:	4299d303 	.word	0x4299d303
    3890:	2010d201 	.word	0x2010d201
    3894:	2801e79d 	.word	0x2801e79d
    3898:	7808d11a 	.word	0x7808d11a
    389c:	07c02400 	.word	0x07c02400
    38a0:	28000fc0 	.word	0x28000fc0
    38a4:	2001d003 	.word	0x2001d003
    38a8:	70884669 	.word	0x70884669
    38ac:	4668e001 	.word	0x4668e001
    38b0:	20397084 	.word	0x20397084
    38b4:	70084669 	.word	0x70084669
    38b8:	4668a909 	.word	0x4668a909
    38bc:	f830f00a 	.word	0xf830f00a
    38c0:	d0032800 	.word	0xd0032800
    38c4:	208c4910 	.word	0x208c4910
    38c8:	fb37f011 	.word	0xfb37f011
    38cc:	e7804620 	.word	0xe7804620
    38d0:	e77e2007 	.word	0xe77e2007
    38d4:	3a204602 	.word	0x3a204602
    38d8:	d8f92a1f 	.word	0xd8f92a1f
    38dc:	fc3af001 	.word	0xfc3af001
    38e0:	4a08e777 	.word	0x4a08e777
    38e4:	4291b510 	.word	0x4291b510
    38e8:	2010d201 	.word	0x2010d201
    38ec:	4602e7ac 	.word	0x4602e7ac
    38f0:	2a1f3a20 	.word	0x2a1f3a20
    38f4:	f001d802 	.word	0xf001d802
    38f8:	e7a5fc83 	.word	0xe7a5fc83
    38fc:	e7a32007 	.word	0xe7a32007
    3900:	00016000 	.word	0x00016000
    3904:	20002000 	.word	0x20002000
    3908:	0000341c 	.word	0x0000341c
    390c:	0ec90781 	.word	0x0ec90781
    3910:	da082800 	.word	0xda082800
    3914:	0f000700 	.word	0x0f000700
    3918:	08803808 	.word	0x08803808
    391c:	00804a2c 	.word	0x00804a2c
    3920:	69c01880 	.word	0x69c01880
    3924:	0880e004 	.word	0x0880e004
    3928:	00804a2a 	.word	0x00804a2a
    392c:	68001880 	.word	0x68001880
    3930:	060040c8 	.word	0x060040c8
    3934:	47700f80 	.word	0x47700f80
    3938:	200db510 	.word	0x200db510
    393c:	ffe6f7ff 	.word	0xffe6f7ff
    3940:	2004b2c4 	.word	0x2004b2c4
    3944:	f7ff43c0 	.word	0xf7ff43c0
    3948:	b2c0ffe1 	.word	0xb2c0ffe1
    394c:	d0034284 	.word	0xd0034284
    3950:	201aa121 	.word	0x201aa121
    3954:	faf1f011 	.word	0xfaf1f011
    3958:	2101bd10 	.word	0x2101bd10
    395c:	03484a23 	.word	0x03484a23
    3960:	4b236010 	.word	0x4b236010
    3964:	601a2200 	.word	0x601a2200
    3968:	60514a22 	.word	0x60514a22
    396c:	60104a22 	.word	0x60104a22
    3970:	60114a22 	.word	0x60114a22
    3974:	3980491d 	.word	0x3980491d
    3978:	47706008 	.word	0x47706008
    397c:	4a1b2101 	.word	0x4a1b2101
    3980:	60100348 	.word	0x60100348
    3984:	60514a1d 	.word	0x60514a1d
    3988:	21004a19 	.word	0x21004a19
    398c:	491a6011 	.word	0x491a6011
    3990:	47706008 	.word	0x47706008
    3994:	4916b510 	.word	0x4916b510
    3998:	28016808 	.word	0x28016808
    399c:	a10ed004 	.word	0xa10ed004
    39a0:	f0112056 	.word	0xf0112056
    39a4:	bd10faca 	.word	0xbd10faca
    39a8:	68804815 	.word	0x68804815
    39ac:	b2c02200 	.word	0xb2c02200
    39b0:	f00d600a 	.word	0xf00d600a
    39b4:	bd10fe9d 	.word	0xbd10fe9d
    39b8:	480db510 	.word	0x480db510
    39bc:	29006801 	.word	0x29006801
    39c0:	f7ffd0fc 	.word	0xf7ffd0fc
    39c4:	2001ffe7 	.word	0x2001ffe7
    39c8:	0340490b 	.word	0x0340490b
    39cc:	bd106008 	.word	0xbd106008
    39d0:	e000ed00 	.word	0xe000ed00
    39d4:	e000e400 	.word	0xe000e400
    39d8:	5c637273 	.word	0x5c637273
    39dc:	5f636f73 	.word	0x5f636f73
    39e0:	5f6c6168 	.word	0x5f6c6168
    39e4:	2e676e72 	.word	0x2e676e72
    39e8:	00000063 	.word	0x00000063
    39ec:	e000e180 	.word	0xe000e180
    39f0:	4000d100 	.word	0x4000d100
    39f4:	4000d300 	.word	0x4000d300
    39f8:	e000e280 	.word	0xe000e280
    39fc:	4000d000 	.word	0x4000d000
    3a00:	4000d500 	.word	0x4000d500
    3a04:	2101b430 	.word	0x2101b430
    3a08:	02c948bc 	.word	0x02c948bc
    3a0c:	10cd6001 	.word	0x10cd6001
    3a10:	034a6005 	.word	0x034a6005
    3a14:	48ba6002 	.word	0x48ba6002
    3a18:	021b6803 	.word	0x021b6803
    3a1c:	60030a1b 	.word	0x60030a1b
    3a20:	23006804 	.word	0x23006804
    3a24:	02240a24 	.word	0x02240a24
    3a28:	48b66004 	.word	0x48b66004
    3a2c:	0a246804 	.word	0x0a246804
    3a30:	60040224 	.word	0x60040224
    3a34:	240148b4 	.word	0x240148b4
    3a38:	60846044 	.word	0x60846044
    3a3c:	60234cb3 	.word	0x60234cb3
    3a40:	60a36063 	.word	0x60a36063
    3a44:	60194bb2 	.word	0x60194bb2
    3a48:	601a601d 	.word	0x601a601d
    3a4c:	60194bb1 	.word	0x60194bb1
    3a50:	2101601a 	.word	0x2101601a
    3a54:	bc306001 	.word	0xbc306001
    3a58:	b4104770 	.word	0xb4104770
    3a5c:	48a72101 	.word	0x48a72101
    3a60:	600402cc 	.word	0x600402cc
    3a64:	6002020a 	.word	0x6002020a
    3a68:	6003060b 	.word	0x6003060b
    3a6c:	604148a6 	.word	0x604148a6
    3a70:	49a66081 	.word	0x49a66081
    3a74:	60082000 	.word	0x60082000
    3a78:	60886048 	.word	0x60886048
    3a7c:	600448a4 	.word	0x600448a4
    3a80:	60036002 	.word	0x60036002
    3a84:	4770bc10 	.word	0x4770bc10
    3a88:	48a12101 	.word	0x48a12101
    3a8c:	600102c9 	.word	0x600102c9
    3a90:	600110c9 	.word	0x600110c9
    3a94:	28004770 	.word	0x28004770
    3a98:	2801d005 	.word	0x2801d005
    3a9c:	2802d005 	.word	0x2802d005
    3aa0:	489dd105 	.word	0x489dd105
    3aa4:	489d4770 	.word	0x489d4770
    3aa8:	489d4770 	.word	0x489d4770
    3aac:	b5104770 	.word	0xb5104770
    3ab0:	208ba19c 	.word	0x208ba19c
    3ab4:	fa41f011 	.word	0xfa41f011
    3ab8:	bd102000 	.word	0xbd102000
    3abc:	2100b570 	.word	0x2100b570
    3ac0:	4da04c9f 	.word	0x4da04c9f
    3ac4:	4b914aa0 	.word	0x4b914aa0
    3ac8:	d0082800 	.word	0xd0082800
    3acc:	d01d2801 	.word	0xd01d2801
    3ad0:	d0222802 	.word	0xd0222802
    3ad4:	20b3a193 	.word	0x20b3a193
    3ad8:	fa2ff011 	.word	0xfa2ff011
    3adc:	2001bd70 	.word	0x2001bd70
    3ae0:	60a00400 	.word	0x60a00400
    3ae4:	601160a8 	.word	0x601160a8
    3ae8:	4b986019 	.word	0x4b986019
    3aec:	609a1042 	.word	0x609a1042
    3af0:	60904a97 	.word	0x60904a97
    3af4:	12004a81 	.word	0x12004a81
    3af8:	48966010 	.word	0x48966010
    3afc:	48876001 	.word	0x48876001
    3b00:	48956001 	.word	0x48956001
    3b04:	48956001 	.word	0x48956001
    3b08:	bd707001 	.word	0xbd707001
    3b0c:	04402001 	.word	0x04402001
    3b10:	60a860a0 	.word	0x60a860a0
    3b14:	60596051 	.word	0x60596051
    3b18:	2001bd70 	.word	0x2001bd70
    3b1c:	60a00480 	.word	0x60a00480
    3b20:	609160a8 	.word	0x609160a8
    3b24:	bd706099 	.word	0xbd706099
    3b28:	4694b5f8 	.word	0x4694b5f8
    3b2c:	4d854a84 	.word	0x4d854a84
    3b30:	27012400 	.word	0x27012400
    3b34:	28004e75 	.word	0x28004e75
    3b38:	2801d008 	.word	0x2801d008
    3b3c:	2802d036 	.word	0x2802d036
    3b40:	a178d044 	.word	0xa178d044
    3b44:	f01120e8 	.word	0xf01120e8
    3b48:	bdf8f9f8 	.word	0xbdf8f9f8
    3b4c:	02091e89 	.word	0x02091e89
    3b50:	20010a09 	.word	0x20010a09
    3b54:	60900400 	.word	0x60900400
    3b58:	60686034 	.word	0x60686034
    3b5c:	60114a7a 	.word	0x60114a7a
    3b60:	d0212b01 	.word	0xd0212b01
    3b64:	4a7d2100 	.word	0x4a7d2100
    3b68:	70514b7d 	.word	0x70514b7d
    3b6c:	313d4661 	.word	0x313d4661
    3b70:	63df63dc 	.word	0x63df63dc
    3b74:	605c4b7b 	.word	0x605c4b7b
    3b78:	609c2402 	.word	0x609c2402
    3b7c:	611c2404 	.word	0x611c2404
    3b80:	60194b74 	.word	0x60194b74
    3b84:	600f4974 	.word	0x600f4974
    3b88:	15894b61 	.word	0x15894b61
    3b8c:	4b706019 	.word	0x4b706019
    3b90:	48606058 	.word	0x48606058
    3b94:	48756001 	.word	0x48756001
    3b98:	60c14973 	.word	0x60c14973
    3b9c:	496b6086 	.word	0x496b6086
    3ba0:	60480360 	.word	0x60480360
    3ba4:	bdf87017 	.word	0xbdf87017
    3ba8:	e7dc2101 	.word	0xe7dc2101
    3bac:	4e5c2001 	.word	0x4e5c2001
    3bb0:	4f6f0440 	.word	0x4f6f0440
    3bb4:	d1042b01 	.word	0xd1042b01
    3bb8:	60506034 	.word	0x60506034
    3bbc:	60396068 	.word	0x60396068
    3bc0:	6090bdf8 	.word	0x6090bdf8
    3bc4:	60686034 	.word	0x60686034
    3bc8:	bdf86039 	.word	0xbdf86039
    3bcc:	4e522001 	.word	0x4e522001
    3bd0:	4f680480 	.word	0x4f680480
    3bd4:	d1f42b01 	.word	0xd1f42b01
    3bd8:	4867e7ee 	.word	0x4867e7ee
    3bdc:	47706840 	.word	0x47706840
    3be0:	4d4ab570 	.word	0x4d4ab570
    3be4:	26006828 	.word	0x26006828
    3be8:	28014c55 	.word	0x28014c55
    3bec:	68a0d106 	.word	0x68a0d106
    3bf0:	d50303c0 	.word	0xd50303c0
    3bf4:	04002001 	.word	0x04002001
    3bf8:	602e60a0 	.word	0x602e60a0
    3bfc:	28016868 	.word	0x28016868
    3c00:	68a0d109 	.word	0x68a0d109
    3c04:	d5060380 	.word	0xd5060380
    3c08:	04402001 	.word	0x04402001
    3c0c:	606e60a0 	.word	0x606e60a0
    3c10:	f00f2001 	.word	0xf00f2001
    3c14:	68a8f92e 	.word	0x68a8f92e
    3c18:	d1092801 	.word	0xd1092801
    3c1c:	034068a0 	.word	0x034068a0
    3c20:	2001d506 	.word	0x2001d506
    3c24:	60a00480 	.word	0x60a00480
    3c28:	200260ae 	.word	0x200260ae
    3c2c:	f921f00f 	.word	0xf921f00f
    3c30:	b510bd70 	.word	0xb510bd70
    3c34:	78084949 	.word	0x78084949
    3c38:	d0182800 	.word	0xd0182800
    3c3c:	4a432001 	.word	0x4a432001
    3c40:	609003c0 	.word	0x609003c0
    3c44:	00404a42 	.word	0x00404a42
    3c48:	4a2c6090 	.word	0x4a2c6090
    3c4c:	60101200 	.word	0x60101200
    3c50:	20004a40 	.word	0x20004a40
    3c54:	4a316010 	.word	0x4a316010
    3c58:	4a3f6010 	.word	0x4a3f6010
    3c5c:	70086010 	.word	0x70086010
    3c60:	2a00784a 	.word	0x2a00784a
    3c64:	7048d002 	.word	0x7048d002
    3c68:	f903f00f 	.word	0xf903f00f
    3c6c:	2003bd10 	.word	0x2003bd10
    3c70:	2001e7fa 	.word	0x2001e7fa
    3c74:	06004941 	.word	0x06004941
    3c78:	47706008 	.word	0x47706008
    3c7c:	49242001 	.word	0x49242001
    3c80:	60080600 	.word	0x60080600
    3c84:	20014770 	.word	0x20014770
    3c88:	0540493c 	.word	0x0540493c
    3c8c:	47706008 	.word	0x47706008
    3c90:	491f2001 	.word	0x491f2001
    3c94:	60080540 	.word	0x60080540
    3c98:	49314770 	.word	0x49314770
    3c9c:	63c82000 	.word	0x63c82000
    3ca0:	491b1588 	.word	0x491b1588
    3ca4:	47706008 	.word	0x47706008
    3ca8:	4a350a41 	.word	0x4a350a41
    3cac:	0dc005c0 	.word	0x0dc005c0
    3cb0:	1c804350 	.word	0x1c804350
    3cb4:	0a404351 	.word	0x0a404351
    3cb8:	47701808 	.word	0x47701808
    3cbc:	4c31b410 	.word	0x4c31b410
    3cc0:	43630b43 	.word	0x43630b43
    3cc4:	025c0c1b 	.word	0x025c0c1b
    3cc8:	4c2d600c 	.word	0x4c2d600c
    3ccc:	1ac34363 	.word	0x1ac34363
    3cd0:	025c482d 	.word	0x025c482d
    3cd4:	4b2a4358 	.word	0x4b2a4358
    3cd8:	43430d40 	.word	0x43430d40
    3cdc:	24011ae3 	.word	0x24011ae3
    3ce0:	042403db 	.word	0x042403db
    3ce4:	161b191b 	.word	0x161b191b
    3ce8:	680a7013 	.word	0x680a7013
    3cec:	60081810 	.word	0x60081810
    3cf0:	4770bc10 	.word	0x4770bc10
    3cf4:	f00fb510 	.word	0xf00fb510
    3cf8:	bd10f994 	.word	0xbd10f994
    3cfc:	e000e180 	.word	0xe000e180
    3d00:	e000e408 	.word	0xe000e408
    3d04:	e000e418 	.word	0xe000e418
    3d08:	4000b000 	.word	0x4000b000
    3d0c:	4000b140 	.word	0x4000b140
    3d10:	e000e280 	.word	0xe000e280
    3d14:	e000e100 	.word	0xe000e100
    3d18:	4000b148 	.word	0x4000b148
    3d1c:	40008140 	.word	0x40008140
    3d20:	4000b144 	.word	0x4000b144
    3d24:	5c637273 	.word	0x5c637273
    3d28:	5f6d6572 	.word	0x5f6d6572
    3d2c:	5f6c6168 	.word	0x5f6c6168
    3d30:	6e657665 	.word	0x6e657665
    3d34:	69745f74 	.word	0x69745f74
    3d38:	2e72656d 	.word	0x2e72656d
    3d3c:	00000063 	.word	0x00000063
    3d40:	4000b300 	.word	0x4000b300
    3d44:	4000b340 	.word	0x4000b340
    3d48:	4000b540 	.word	0x4000b540
    3d4c:	4001f500 	.word	0x4001f500
    3d50:	40008300 	.word	0x40008300
    3d54:	40008540 	.word	0x40008540
    3d58:	40008200 	.word	0x40008200
    3d5c:	20000050 	.word	0x20000050
    3d60:	40008fc0 	.word	0x40008fc0
    3d64:	40008500 	.word	0x40008500
    3d68:	40008000 	.word	0x40008000
    3d6c:	4001f580 	.word	0x4001f580
    3d70:	4000b544 	.word	0x4000b544
    3d74:	4000b548 	.word	0x4000b548
    3d78:	4000b500 	.word	0x4000b500
    3d7c:	e000e200 	.word	0xe000e200
    3d80:	00003d09 	.word	0x00003d09
    3d84:	00008637 	.word	0x00008637
    3d88:	00010c6f 	.word	0x00010c6f
    3d8c:	68124a0e 	.word	0x68124a0e
    3d90:	428a490c 	.word	0x428a490c
    3d94:	4718d10a 	.word	0x4718d10a
    3d98:	68124a0b 	.word	0x68124a0b
    3d9c:	429a4b09 	.word	0x429a4b09
    3da0:	b501d104 	.word	0xb501d104
    3da4:	fdbff00d 	.word	0xfdbff00d
    3da8:	468ebc03 	.word	0x468ebc03
    3dac:	68094907 	.word	0x68094907
    3db0:	47085809 	.word	0x47085809
    3db4:	49074806 	.word	0x49074806
    3db8:	4b064a05 	.word	0x4b064a05
    3dbc:	00004770 	.word	0x00004770
    3dc0:	00000000 	.word	0x00000000
    3dc4:	cafebabe 	.word	0xcafebabe
    3dc8:	2000011c 	.word	0x2000011c
    3dcc:	20000004 	.word	0x20000004
    3dd0:	20001d88 	.word	0x20001d88
    3dd4:	20001d88 	.word	0x20001d88
    3dd8:	4cf8b510 	.word	0x4cf8b510
    3ddc:	6821b094 	.word	0x6821b094
    3de0:	28007a08 	.word	0x28007a08
    3de4:	2017d036 	.word	0x2017d036
    3de8:	7010466a 	.word	0x7010466a
    3dec:	2206a800 	.word	0x2206a800
    3df0:	30023109 	.word	0x30023109
    3df4:	ff05f010 	.word	0xff05f010
    3df8:	4668a909 	.word	0x4668a909
    3dfc:	fd90f009 	.word	0xfd90f009
    3e00:	d0252811 	.word	0xd0252811
    3e04:	31c06821 	.word	0x31c06821
    3e08:	29067989 	.word	0x29067989
    3e0c:	2907d020 	.word	0x2907d020
    3e10:	2908d01e 	.word	0x2908d01e
    3e14:	2904d01c 	.word	0x2904d01c
    3e18:	2909d01a 	.word	0x2909d01a
    3e1c:	290ad018 	.word	0x290ad018
    3e20:	290bd016 	.word	0x290bd016
    3e24:	2905d014 	.word	0x2905d014
    3e28:	2800d012 	.word	0x2800d012
    3e2c:	a1e4d003 	.word	0xa1e4d003
    3e30:	f01120f4 	.word	0xf01120f4
    3e34:	6821f882 	.word	0x6821f882
    3e38:	584020b8 	.word	0x584020b8
    3e3c:	301c2206 	.word	0x301c2206
    3e40:	f0103109 	.word	0xf0103109
    3e44:	6820fede 	.word	0x6820fede
    3e48:	30807a01 	.word	0x30807a01
    3e4c:	76c16b80 	.word	0x76c16b80
    3e50:	bd10b014 	.word	0xbd10b014
    3e54:	e7c72032 	.word	0xe7c72032
    3e58:	4dd8b570 	.word	0x4dd8b570
    3e5c:	68294604 	.word	0x68294604
    3e60:	31c00003 	.word	0x31c00003
    3e64:	f95af011 	.word	0xf95af011
    3e68:	0b7c070c 	.word	0x0b7c070c
    3e6c:	3b2e211a 	.word	0x3b2e211a
    3e70:	675c5148 	.word	0x675c5148
    3e74:	20ff8070 	.word	0x20ff8070
    3e78:	300aa1d1 	.word	0x300aa1d1
    3e7c:	7988e06e 	.word	0x7988e06e
    3e80:	d06d2801 	.word	0xd06d2801
    3e84:	d06b2809 	.word	0xd06b2809
    3e88:	d0692805 	.word	0xd0692805
    3e8c:	d067280a 	.word	0xd067280a
    3e90:	d065280b 	.word	0xd065280b
    3e94:	a1ca20ff 	.word	0xa1ca20ff
    3e98:	e05f300f 	.word	0xe05f300f
    3e9c:	28017988 	.word	0x28017988
    3ea0:	20ffd05e 	.word	0x20ffd05e
    3ea4:	3016a1c6 	.word	0x3016a1c6
    3ea8:	7988e058 	.word	0x7988e058
    3eac:	d0572806 	.word	0xd0572806
    3eb0:	d0552807 	.word	0xd0552807
    3eb4:	d0532808 	.word	0xd0532808
    3eb8:	d0512805 	.word	0xd0512805
    3ebc:	a1c020ff 	.word	0xa1c020ff
    3ec0:	e04b3019 	.word	0xe04b3019
    3ec4:	28097988 	.word	0x28097988
    3ec8:	280ad04a 	.word	0x280ad04a
    3ecc:	280bd048 	.word	0x280bd048
    3ed0:	2804d046 	.word	0x2804d046
    3ed4:	20ffd044 	.word	0x20ffd044
    3ed8:	301fa1b9 	.word	0x301fa1b9
    3edc:	7988e03e 	.word	0x7988e03e
    3ee0:	d03d2803 	.word	0xd03d2803
    3ee4:	d03b2807 	.word	0xd03b2807
    3ee8:	d0392808 	.word	0xd0392808
    3eec:	d0372809 	.word	0xd0372809
    3ef0:	a1b320ff 	.word	0xa1b320ff
    3ef4:	e0313025 	.word	0xe0313025
    3ef8:	28067988 	.word	0x28067988
    3efc:	280ad030 	.word	0x280ad030
    3f00:	20ffd02e 	.word	0x20ffd02e
    3f04:	302ba1ae 	.word	0x302ba1ae
    3f08:	7988e028 	.word	0x7988e028
    3f0c:	d0272806 	.word	0xd0272806
    3f10:	d0252807 	.word	0xd0252807
    3f14:	d023280b 	.word	0xd023280b
    3f18:	a1a920ff 	.word	0xa1a920ff
    3f1c:	e01d302f 	.word	0xe01d302f
    3f20:	28067988 	.word	0x28067988
    3f24:	280ad01c 	.word	0x280ad01c
    3f28:	280bd01a 	.word	0x280bd01a
    3f2c:	20ffd018 	.word	0x20ffd018
    3f30:	3034a1a3 	.word	0x3034a1a3
    3f34:	7988e012 	.word	0x7988e012
    3f38:	d0112809 	.word	0xd0112809
    3f3c:	d00f280a 	.word	0xd00f280a
    3f40:	a19f20ff 	.word	0xa19f20ff
    3f44:	e0093039 	.word	0xe0093039
    3f48:	28097988 	.word	0x28097988
    3f4c:	280ad008 	.word	0x280ad008
    3f50:	2808d006 	.word	0x2808d006
    3f54:	20ffd004 	.word	0x20ffd004
    3f58:	303da199 	.word	0x303da199
    3f5c:	ffedf010 	.word	0xffedf010
    3f60:	30c06828 	.word	0x30c06828
    3f64:	bd707184 	.word	0xbd707184
    3f68:	a19520ff 	.word	0xa19520ff
    3f6c:	e7f53042 	.word	0xe7f53042
    3f70:	22c94992 	.word	0x22c94992
    3f74:	5c526809 	.word	0x5c526809
    3f78:	0f9206d2 	.word	0x0f9206d2
    3f7c:	31a0d105 	.word	0x31a0d105
    3f80:	42828b8a 	.word	0x42828b8a
    3f84:	7f88d101 	.word	0x7f88d101
    3f88:	20004770 	.word	0x20004770
    3f8c:	b5704770 	.word	0xb5704770
    3f90:	20114604 	.word	0x20114604
    3f94:	21007020 	.word	0x21007020
    3f98:	70614d88 	.word	0x70614d88
    3f9c:	31c06829 	.word	0x31c06829
    3fa0:	29007a89 	.word	0x29007a89
    3fa4:	2903d008 	.word	0x2903d008
    3fa8:	2904d00e 	.word	0x2904d00e
    3fac:	20ffd010 	.word	0x20ffd010
    3fb0:	306ba183 	.word	0x306ba183
    3fb4:	ffc1f010 	.word	0xffc1f010
    3fb8:	09007820 	.word	0x09007820
    3fbc:	d9022801 	.word	0xd9022801
    3fc0:	7d806828 	.word	0x7d806828
    3fc4:	bd707060 	.word	0xbd707060
    3fc8:	0f000700 	.word	0x0f000700
    3fcc:	e0023020 	.word	0xe0023020
    3fd0:	0f000700 	.word	0x0f000700
    3fd4:	70203030 	.word	0x70203030
    3fd8:	b530e7ee 	.word	0xb530e7ee
    3fdc:	497c8803 	.word	0x497c8803
    3fe0:	428b4c7c 	.word	0x428b4c7c
    3fe4:	1f9ad002 	.word	0x1f9ad002
    3fe8:	d21e42a2 	.word	0xd21e42a2
    3fec:	428a8842 	.word	0x428a8842
    3ff0:	1f95d002 	.word	0x1f95d002
    3ff4:	d21842a5 	.word	0xd21842a5
    3ff8:	d8164293 	.word	0xd8164293
    3ffc:	247d8883 	.word	0x247d8883
    4000:	42a300e4 	.word	0x42a300e4
    4004:	88c0d811 	.word	0x88c0d811
    4008:	d0054288 	.word	0xd0054288
    400c:	46044d71 	.word	0x46044d71
    4010:	1f2d3c0a 	.word	0x1f2d3c0a
    4014:	d20842ac 	.word	0xd20842ac
    4018:	d0084288 	.word	0xd0084288
    401c:	d006428a 	.word	0xd006428a
    4020:	435a1c5b 	.word	0x435a1c5b
    4024:	428200c0 	.word	0x428200c0
    4028:	2007dd01 	.word	0x2007dd01
    402c:	2000bd30 	.word	0x2000bd30
    4030:	b5ffbd30 	.word	0xb5ffbd30
    4034:	9b092200 	.word	0x9b092200
    4038:	d0022800 	.word	0xd0022800
    403c:	dc054299 	.word	0xdc054299
    4040:	2900e05c 	.word	0x2900e05c
    4044:	2000d102 	.word	0x2000d102
    4048:	bdf0b004 	.word	0xbdf0b004
    404c:	e7fb2009 	.word	0xe7fb2009
    4050:	2c005c84 	.word	0x2c005c84
    4054:	1885d012 	.word	0x1885d012
    4058:	2f0d786f 	.word	0x2f0d786f
    405c:	dc10d04c 	.word	0xdc10d04c
    4060:	f011003b 	.word	0xf011003b
    4064:	420af85b 	.word	0x420af85b
    4068:	302a2a1b 	.word	0x302a2a1b
    406c:	3a323230 	.word	0x3a323230
    4070:	5c83423a 	.word	0x5c83423a
    4074:	d13f2b00 	.word	0xd13f2b00
    4078:	b2d21c52 	.word	0xb2d21c52
    407c:	dbf8428a 	.word	0xdbf8428a
    4080:	2f12e7e1 	.word	0x2f12e7e1
    4084:	dc04d031 	.word	0xdc04d031
    4088:	d0352f0e 	.word	0xd0352f0e
    408c:	d12c2f0f 	.word	0xd12c2f0f
    4090:	2f14e032 	.word	0x2f14e032
    4094:	2f15d011 	.word	0x2f15d011
    4098:	e016d127 	.word	0xe016d127
    409c:	d1d52c02 	.word	0xd1d52c02
    40a0:	9c0378ab 	.word	0x9c0378ab
    40a4:	70232b07 	.word	0x70232b07
    40a8:	075bd201 	.word	0x075bd201
    40ac:	200ad401 	.word	0x200ad401
    40b0:	9b02e7ca 	.word	0x9b02e7ca
    40b4:	781b2401 	.word	0x781b2401
    40b8:	43e3e014 	.word	0x43e3e014
    40bc:	e00807db 	.word	0xe00807db
    40c0:	d0082c01 	.word	0xd0082c01
    40c4:	2006e011 	.word	0x2006e011
    40c8:	250fe7be 	.word	0x250fe7be
    40cc:	072d0723 	.word	0x072d0723
    40d0:	2b00195b 	.word	0x2b00195b
    40d4:	4630d0f4 	.word	0x4630d0f4
    40d8:	9b02e7b6 	.word	0x9b02e7b6
    40dc:	079c781b 	.word	0x079c781b
    40e0:	2402d40a 	.word	0x2402d40a
    40e4:	9c024323 	.word	0x9c024323
    40e8:	5c837023 	.word	0x5c837023
    40ec:	189a1c52 	.word	0x189a1c52
    40f0:	428ab2d2 	.word	0x428ab2d2
    40f4:	e7a9dd04 	.word	0xe7a9dd04
    40f8:	e7a5200b 	.word	0xe7a5200b
    40fc:	02762619 	.word	0x02762619
    4100:	dba5428a 	.word	0xdba5428a
    4104:	e005e79f 	.word	0xe005e79f
    4108:	1c407802 	.word	0x1c407802
    410c:	d0012a00 	.word	0xd0012a00
    4110:	47702000 	.word	0x47702000
    4114:	1e49460a 	.word	0x1e49460a
    4118:	2a00b289 	.word	0x2a00b289
    411c:	2001d1f4 	.word	0x2001d1f4
    4120:	b5704770 	.word	0xb5704770
    4124:	21004d25 	.word	0x21004d25
    4128:	43c96828 	.word	0x43c96828
    412c:	838130a0 	.word	0x838130a0
    4130:	77842400 	.word	0x77842400
    4134:	20064621 	.word	0x20064621
    4138:	fdb4f00d 	.word	0xfdb4f00d
    413c:	20052100 	.word	0x20052100
    4140:	fdb0f00d 	.word	0xfdb0f00d
    4144:	20022100 	.word	0x20022100
    4148:	fdacf00d 	.word	0xfdacf00d
    414c:	f7ff2001 	.word	0xf7ff2001
    4150:	6828fe83 	.word	0x6828fe83
    4154:	71c430c0 	.word	0x71c430c0
    4158:	f0017204 	.word	0xf0017204
    415c:	bd70ff62 	.word	0xbd70ff62
    4160:	4c16b530 	.word	0x4c16b530
    4164:	6822b095 	.word	0x6822b095
    4168:	799232c0 	.word	0x799232c0
    416c:	d00c2a04 	.word	0xd00c2a04
    4170:	d00a2a05 	.word	0xd00a2a05
    4174:	466a2328 	.word	0x466a2328
    4178:	80507013 	.word	0x80507013
    417c:	d0062913 	.word	0xd0062913
    4180:	d004293b 	.word	0xd004293b
    4184:	b0152007 	.word	0xb0152007
    4188:	2008bd30 	.word	0x2008bd30
    418c:	7111e7fb 	.word	0x7111e7fb
    4190:	a9094610 	.word	0xa9094610
    4194:	fbc4f009 	.word	0xfbc4f009
    4198:	d10b0005 	.word	0xd10b0005
    419c:	30c06820 	.word	0x30c06820
    41a0:	29067981 	.word	0x29067981
    41a4:	2908d008 	.word	0x2908d008
    41a8:	2907d006 	.word	0x2907d006
    41ac:	2005d004 	.word	0x2005d004
    41b0:	fe52f7ff 	.word	0xfe52f7ff
    41b4:	e7e64628 	.word	0xe7e64628
    41b8:	e7f92004 	.word	0xe7f92004
    41bc:	20000054 	.word	0x20000054
    41c0:	5c637273 	.word	0x5c637273
    41c4:	5f706167 	.word	0x5f706167
    41c8:	65726f63 	.word	0x65726f63
    41cc:	0000632e 	.word	0x0000632e
    41d0:	0000ffff 	.word	0x0000ffff
    41d4:	00000c7b 	.word	0x00000c7b
    41d8:	b087b530 	.word	0xb087b530
    41dc:	d0030004 	.word	0xd0030004
    41e0:	20072100 	.word	0x20072100
    41e4:	fd5ef00d 	.word	0xfd5ef00d
    41e8:	21014df7 	.word	0x21014df7
    41ec:	466a6828 	.word	0x466a6828
    41f0:	21047201 	.word	0x21047201
    41f4:	21037011 	.word	0x21037011
    41f8:	f00d300c 	.word	0xf00d300c
    41fc:	6829fa53 	.word	0x6829fa53
    4200:	7b882240 	.word	0x7b882240
    4204:	0e800680 	.word	0x0e800680
    4208:	73884310 	.word	0x73884310
    420c:	f00b4668 	.word	0xf00b4668
    4210:	2800fb94 	.word	0x2800fb94
    4214:	6829d10d 	.word	0x6829d10d
    4218:	29008a09 	.word	0x29008a09
    421c:	2c00d00a 	.word	0x2c00d00a
    4220:	008bd008 	.word	0x008bd008
    4224:	21002201 	.word	0x21002201
    4228:	f00d2007 	.word	0xf00d2007
    422c:	2807fc96 	.word	0x2807fc96
    4230:	2003d002 	.word	0x2003d002
    4234:	bd30b007 	.word	0xbd30b007
    4238:	e7fb2000 	.word	0xe7fb2000
    423c:	2500b570 	.word	0x2500b570
    4240:	28004606 	.word	0x28004606
    4244:	2100d003 	.word	0x2100d003
    4248:	f00d2007 	.word	0xf00d2007
    424c:	4cdefd2b 	.word	0x4cdefd2b
    4250:	68202101 	.word	0x68202101
    4254:	21067201 	.word	0x21067201
    4258:	f00d3009 	.word	0xf00d3009
    425c:	6820fa23 	.word	0x6820fa23
    4260:	06897b81 	.word	0x06897b81
    4264:	73810e89 	.word	0x73810e89
    4268:	fdb6f7ff 	.word	0xfdb6f7ff
    426c:	8a006820 	.word	0x8a006820
    4270:	d00a2800 	.word	0xd00a2800
    4274:	d0082e00 	.word	0xd0082e00
    4278:	22010083 	.word	0x22010083
    427c:	20072100 	.word	0x20072100
    4280:	fc6bf00d 	.word	0xfc6bf00d
    4284:	d0022807 	.word	0xd0022807
    4288:	46282503 	.word	0x46282503
    428c:	2500bd70 	.word	0x2500bd70
    4290:	b5f0e7fb 	.word	0xb5f0e7fb
    4294:	0004b09b 	.word	0x0004b09b
    4298:	49ccd103 	.word	0x49ccd103
    429c:	f01048cc 	.word	0xf01048cc
    42a0:	2072fe4c 	.word	0x2072fe4c
    42a4:	68617020 	.word	0x68617020
    42a8:	780a2600 	.word	0x780a2600
    42ac:	1f522508 	.word	0x1f522508
    42b0:	48c52701 	.word	0x48c52701
    42b4:	f0100013 	.word	0xf0100013
    42b8:	090fff31 	.word	0x090fff31
    42bc:	7cfddf7c 	.word	0x7cfddf7c
    42c0:	bbfbfc7e 	.word	0xbbfbfc7e
    42c4:	7c7c7c7c 	.word	0x7c7c7c7c
    42c8:	007cf9fa 	.word	0x007cf9fa
    42cc:	680048be 	.word	0x680048be
    42d0:	798030c0 	.word	0x798030c0
    42d4:	d0042803 	.word	0xd0042803
    42d8:	49bc48bd 	.word	0x49bc48bd
    42dc:	f0103009 	.word	0xf0103009
    42e0:	2100fe2c 	.word	0x2100fe2c
    42e4:	f00d4608 	.word	0xf00d4608
    42e8:	2100fcdd 	.word	0x2100fcdd
    42ec:	f00d2007 	.word	0xf00d2007
    42f0:	7860fcd9 	.word	0x7860fcd9
    42f4:	43284ab4 	.word	0x43284ab4
    42f8:	68107060 	.word	0x68107060
    42fc:	46012510 	.word	0x46012510
    4300:	7a4b31c0 	.word	0x7a4b31c0
    4304:	724b432b 	.word	0x724b432b
    4308:	789d6863 	.word	0x789d6863
    430c:	d04d2d3c 	.word	0xd04d2d3c
    4310:	889d4602 	.word	0x889d4602
    4314:	779732a0 	.word	0x779732a0
    4318:	30806863 	.word	0x30806863
    431c:	800b89db 	.word	0x800b89db
    4320:	8a1b6863 	.word	0x8a1b6863
    4324:	6863804b 	.word	0x6863804b
    4328:	808b8a5b 	.word	0x808b8a5b
    432c:	68618395 	.word	0x68618395
    4330:	79c96b82 	.word	0x79c96b82
    4334:	68617511 	.word	0x68617511
    4338:	31086b80 	.word	0x31086b80
    433c:	22063015 	.word	0x22063015
    4340:	fc5ff010 	.word	0xfc5ff010
    4344:	f7ff2006 	.word	0xf7ff2006
    4348:	489ffd87 	.word	0x489ffd87
    434c:	680023fb 	.word	0x680023fb
    4350:	31c04601 	.word	0x31c04601
    4354:	7e02728e 	.word	0x7e02728e
    4358:	7602401a 	.word	0x7602401a
    435c:	581222b8 	.word	0x581222b8
    4360:	089b7a93 	.word	0x089b7a93
    4364:	7293009b 	.word	0x7293009b
    4368:	7a488246 	.word	0x7a488246
    436c:	0e400640 	.word	0x0e400640
    4370:	46287248 	.word	0x46287248
    4374:	fec0f002 	.word	0xfec0f002
    4378:	d0042800 	.word	0xd0042800
    437c:	49934894 	.word	0x49934894
    4380:	f0103024 	.word	0xf0103024
    4384:	4628fdda 	.word	0x4628fdda
    4388:	f8d0f002 	.word	0xf8d0f002
    438c:	d0042800 	.word	0xd0042800
    4390:	498e488f 	.word	0x498e488f
    4394:	f0103027 	.word	0xf0103027
    4398:	4628fdd0 	.word	0x4628fdd0
    439c:	fd16f003 	.word	0xfd16f003
    43a0:	d0062800 	.word	0xd0062800
    43a4:	4989488a 	.word	0x4989488a
    43a8:	e13e3029 	.word	0xe13e3029
    43ac:	f7ff2001 	.word	0xf7ff2001
    43b0:	b01bfd53 	.word	0xb01bfd53
    43b4:	4607bdf0 	.word	0x4607bdf0
    43b8:	888e6800 	.word	0x888e6800
    43bc:	798030c0 	.word	0x798030c0
    43c0:	d0122806 	.word	0xd0122806
    43c4:	d0102807 	.word	0xd0102807
    43c8:	d00e2808 	.word	0xd00e2808
    43cc:	d00c2804 	.word	0xd00c2804
    43d0:	d00a2809 	.word	0xd00a2809
    43d4:	d008280a 	.word	0xd008280a
    43d8:	d006280b 	.word	0xd006280b
    43dc:	d0042805 	.word	0xd0042805
    43e0:	497a487b 	.word	0x497a487b
    43e4:	f0103035 	.word	0xf0103035
    43e8:	7860fda8 	.word	0x7860fda8
    43ec:	70604328 	.word	0x70604328
    43f0:	30c06838 	.word	0x30c06838
    43f4:	43297a41 	.word	0x43297a41
    43f8:	79807241 	.word	0x79807241
    43fc:	d0112809 	.word	0xd0112809
    4400:	d00f280a 	.word	0xd00f280a
    4404:	d00d280b 	.word	0xd00d280b
    4408:	d00b2805 	.word	0xd00b2805
    440c:	fe89f7ff 	.word	0xfe89f7ff
    4410:	f0024630 	.word	0xf0024630
    4414:	4630fe7a 	.word	0x4630fe7a
    4418:	f88ef002 	.word	0xf88ef002
    441c:	f0034630 	.word	0xf0034630
    4420:	e7c6fd0b 	.word	0xe7c6fd0b
    4424:	fe7df7ff 	.word	0xfe7df7ff
    4428:	f7ff2002 	.word	0xf7ff2002
    442c:	e7effd15 	.word	0xe7effd15
    4430:	30c06800 	.word	0x30c06800
    4434:	28067980 	.word	0x28067980
    4438:	2807d012 	.word	0x2807d012
    443c:	2808d010 	.word	0x2808d010
    4440:	2804d00e 	.word	0x2804d00e
    4444:	2809d00c 	.word	0x2809d00c
    4448:	280ad00a 	.word	0x280ad00a
    444c:	280bd008 	.word	0x280bd008
    4450:	2805d006 	.word	0x2805d006
    4454:	485ed004 	.word	0x485ed004
    4458:	3059495c 	.word	0x3059495c
    445c:	fd6df010 	.word	0xfd6df010
    4460:	79806860 	.word	0x79806860
    4464:	ff04f002 	.word	0xff04f002
    4468:	d0a22800 	.word	0xd0a22800
    446c:	43297861 	.word	0x43297861
    4470:	68617061 	.word	0x68617061
    4474:	e79c80c8 	.word	0xe79c80c8
    4478:	68004607 	.word	0x68004607
    447c:	798030c0 	.word	0x798030c0
    4480:	d0122806 	.word	0xd0122806
    4484:	d0102807 	.word	0xd0102807
    4488:	d00e2808 	.word	0xd00e2808
    448c:	d00c2804 	.word	0xd00c2804
    4490:	d00a2809 	.word	0xd00a2809
    4494:	d008280a 	.word	0xd008280a
    4498:	d006280b 	.word	0xd006280b
    449c:	d0042805 	.word	0xd0042805
    44a0:	494a484b 	.word	0x494a484b
    44a4:	f010306c 	.word	0xf010306c
    44a8:	e004fd48 	.word	0xe004fd48
    44ac:	e1a1e137 	.word	0xe1a1e137
    44b0:	e090e090 	.word	0xe090e090
    44b4:	7860e015 	.word	0x7860e015
    44b8:	70604328 	.word	0x70604328
    44bc:	88c16860 	.word	0x88c16860
    44c0:	30c06838 	.word	0x30c06838
    44c4:	68618001 	.word	0x68618001
    44c8:	80418909 	.word	0x80418909
    44cc:	89496861 	.word	0x89496861
    44d0:	21008081 	.word	0x21008081
    44d4:	f00d2002 	.word	0xf00d2002
    44d8:	6838fbe5 	.word	0x6838fbe5
    44dc:	71c630c0 	.word	0x71c630c0
    44e0:	4606e767 	.word	0x4606e767
    44e4:	30c06800 	.word	0x30c06800
    44e8:	28067980 	.word	0x28067980
    44ec:	2807d019 	.word	0x2807d019
    44f0:	2808d017 	.word	0x2808d017
    44f4:	2804d015 	.word	0x2804d015
    44f8:	2809d093 	.word	0x2809d093
    44fc:	280ad011 	.word	0x280ad011
    4500:	280bd00f 	.word	0x280bd00f
    4504:	2805d00d 	.word	0x2805d00d
    4508:	4831d08b 	.word	0x4831d08b
    450c:	3083492f 	.word	0x3083492f
    4510:	fd13f010 	.word	0xfd13f010
    4514:	30c06830 	.word	0x30c06830
    4518:	28047980 	.word	0x28047980
    451c:	2805d0ab 	.word	0x2805d0ab
    4520:	6830d0a9 	.word	0x6830d0a9
    4524:	06407c80 	.word	0x06407c80
    4528:	6860d53a 	.word	0x6860d53a
    452c:	300c2102 	.word	0x300c2102
    4530:	fde9f7ff 	.word	0xfde9f7ff
    4534:	d0332800 	.word	0xd0332800
    4538:	21086860 	.word	0x21086860
    453c:	f7ff1d00 	.word	0xf7ff1d00
    4540:	2800fde2 	.word	0x2800fde2
    4544:	6831d02c 	.word	0x6831d02c
    4548:	584020b8 	.word	0x584020b8
    454c:	07807a80 	.word	0x07807a80
    4550:	20cad108 	.word	0x20cad108
    4554:	28005c40 	.word	0x28005c40
    4558:	8a48d108 	.word	0x8a48d108
    455c:	d50505c2 	.word	0xd50505c2
    4560:	d10307c0 	.word	0xd10307c0
    4564:	22408a48 	.word	0x22408a48
    4568:	82484390 	.word	0x82484390
    456c:	20808a4a 	.word	0x20808a4a
    4570:	824a4382 	.word	0x824a4382
    4574:	4668222d 	.word	0x4668222d
    4578:	20bc7002 	.word	0x20bc7002
    457c:	46685a42 	.word	0x46685a42
    4580:	22108042 	.word	0x22108042
    4584:	a8013197 	.word	0xa8013197
    4588:	fb3bf010 	.word	0xfb3bf010
    458c:	4668a909 	.word	0x4668a909
    4590:	f9c6f009 	.word	0xf9c6f009
    4594:	d0a32800 	.word	0xd0a32800
    4598:	490c203d 	.word	0x490c203d
    459c:	e0440100 	.word	0xe0440100
    45a0:	68306862 	.word	0x68306862
    45a4:	899221ac 	.word	0x899221ac
    45a8:	6861520a 	.word	0x6861520a
    45ac:	1d092208 	.word	0x1d092208
    45b0:	f01030ae 	.word	0xf01030ae
    45b4:	a810fb26 	.word	0xa810fb26
    45b8:	68307405 	.word	0x68307405
    45bc:	901530ae 	.word	0x901530ae
    45c0:	f00ba814 	.word	0xf00ba814
    45c4:	e6f4f9ba 	.word	0xe6f4f9ba
    45c8:	20000054 	.word	0x20000054
    45cc:	000041c0 	.word	0x000041c0
    45d0:	00000326 	.word	0x00000326
    45d4:	4606718f 	.word	0x4606718f
    45d8:	30c06800 	.word	0x30c06800
    45dc:	29067981 	.word	0x29067981
    45e0:	2907d019 	.word	0x2907d019
    45e4:	2908d017 	.word	0x2908d017
    45e8:	2904d015 	.word	0x2904d015
    45ec:	2909d0eb 	.word	0x2909d0eb
    45f0:	290ad011 	.word	0x290ad011
    45f4:	290bd00f 	.word	0x290bd00f
    45f8:	2905d00d 	.word	0x2905d00d
    45fc:	20fdd0e3 	.word	0x20fdd0e3
    4600:	008049fa 	.word	0x008049fa
    4604:	fc99f010 	.word	0xfc99f010
    4608:	30c06830 	.word	0x30c06830
    460c:	28047980 	.word	0x28047980
    4610:	2805d0d9 	.word	0x2805d0d9
    4614:	6860d0d7 	.word	0x6860d0d7
    4618:	29007981 	.word	0x29007981
    461c:	7880d002 	.word	0x7880d002
    4620:	d0052800 	.word	0xd0052800
    4624:	49f12023 	.word	0x49f12023
    4628:	f0100140 	.word	0xf0100140
    462c:	e6c0fc86 	.word	0xe6c0fc86
    4630:	21b87860 	.word	0x21b87860
    4634:	70604328 	.word	0x70604328
    4638:	58096830 	.word	0x58096830
    463c:	07897a89 	.word	0x07897a89
    4640:	29010f89 	.word	0x29010f89
    4644:	7c81d151 	.word	0x7c81d151
    4648:	d44e0609 	.word	0xd44e0609
    464c:	07497e01 	.word	0x07497e01
    4650:	2104d501 	.word	0x2104d501
    4654:	2103e000 	.word	0x2103e000
    4658:	728130c0 	.word	0x728130c0
    465c:	4669202b 	.word	0x4669202b
    4660:	a9097008 	.word	0xa9097008
    4664:	f0094668 	.word	0xf0094668
    4668:	2800f95b 	.word	0x2800f95b
    466c:	49dfd003 	.word	0x49dfd003
    4670:	f01048df 	.word	0xf01048df
    4674:	4668fc62 	.word	0x4668fc62
    4678:	8d006831 	.word	0x8d006831
    467c:	220e8288 	.word	0x220e8288
    4680:	7402a810 	.word	0x7402a810
    4684:	22b848db 	.word	0x22b848db
    4688:	58529015 	.word	0x58529015
    468c:	61423208 	.word	0x61423208
    4690:	3260460a 	.word	0x3260460a
    4694:	79926042 	.word	0x79926042
    4698:	460a7002 	.word	0x460a7002
    469c:	61023214 	.word	0x61023214
    46a0:	60821d52 	.word	0x60821d52
    46a4:	60c23210 	.word	0x60c23210
    46a8:	61823a13 	.word	0x61823a13
    46ac:	61c23296 	.word	0x61c23296
    46b0:	62021c92 	.word	0x62021c92
    46b4:	62423a47 	.word	0x62423a47
    46b8:	62823210 	.word	0x62823210
    46bc:	62c23210 	.word	0x62c23210
    46c0:	63c23a47 	.word	0x63c23a47
    46c4:	64021e52 	.word	0x64021e52
    46c8:	31501f92 	.word	0x31501f92
    46cc:	64816442 	.word	0x64816442
    46d0:	f00ca814 	.word	0xf00ca814
    46d4:	2802fb1b 	.word	0x2802fb1b
    46d8:	2800d015 	.word	0x2800d015
    46dc:	48c4d013 	.word	0x48c4d013
    46e0:	302949c2 	.word	0x302949c2
    46e4:	fc29f010 	.word	0xfc29f010
    46e8:	7c81e00d 	.word	0x7c81e00d
    46ec:	7e010649 	.word	0x7e010649
    46f0:	d5010749 	.word	0xd5010749
    46f4:	e0002104 	.word	0xe0002104
    46f8:	30c02103 	.word	0x30c02103
    46fc:	21007281 	.word	0x21007281
    4700:	f00d2006 	.word	0xf00d2006
    4704:	6830facf 	.word	0x6830facf
    4708:	060a8a41 	.word	0x060a8a41
    470c:	2240d402 	.word	0x2240d402
    4710:	82414391 	.word	0x82414391
    4714:	2280b289 	.word	0x2280b289
    4718:	82414391 	.word	0x82414391
    471c:	48b6e649 	.word	0x48b6e649
    4720:	30c06800 	.word	0x30c06800
    4724:	28037980 	.word	0x28037980
    4728:	48b1d004 	.word	0x48b1d004
    472c:	305749af 	.word	0x305749af
    4730:	fc03f010 	.word	0xfc03f010
    4734:	46082100 	.word	0x46082100
    4738:	fab4f00d 	.word	0xfab4f00d
    473c:	20072100 	.word	0x20072100
    4740:	fab0f00d 	.word	0xfab0f00d
    4744:	4aac7860 	.word	0x4aac7860
    4748:	70604328 	.word	0x70604328
    474c:	25106810 	.word	0x25106810
    4750:	31c04601 	.word	0x31c04601
    4754:	432b7a4b 	.word	0x432b7a4b
    4758:	6863724b 	.word	0x6863724b
    475c:	2d3c789d 	.word	0x2d3c789d
    4760:	e623d100 	.word	0xe623d100
    4764:	889d4602 	.word	0x889d4602
    4768:	779732a0 	.word	0x779732a0
    476c:	30806863 	.word	0x30806863
    4770:	800b89db 	.word	0x800b89db
    4774:	8a1b6863 	.word	0x8a1b6863
    4778:	6863804b 	.word	0x6863804b
    477c:	808b8a5b 	.word	0x808b8a5b
    4780:	68618395 	.word	0x68618395
    4784:	79c96b82 	.word	0x79c96b82
    4788:	68617511 	.word	0x68617511
    478c:	31086b80 	.word	0x31086b80
    4790:	22063015 	.word	0x22063015
    4794:	fa35f010 	.word	0xfa35f010
    4798:	f7ff2006 	.word	0xf7ff2006
    479c:	4896fb5d 	.word	0x4896fb5d
    47a0:	680123fb 	.word	0x680123fb
    47a4:	32c0460a 	.word	0x32c0460a
    47a8:	7e087296 	.word	0x7e087296
    47ac:	76084018 	.word	0x76084018
    47b0:	7a50824e 	.word	0x7a50824e
    47b4:	0e400640 	.word	0x0e400640
    47b8:	46287250 	.word	0x46287250
    47bc:	fc9cf002 	.word	0xfc9cf002
    47c0:	d0042800 	.word	0xd0042800
    47c4:	4989488a 	.word	0x4989488a
    47c8:	f0103072 	.word	0xf0103072
    47cc:	4628fbb6 	.word	0x4628fbb6
    47d0:	feacf001 	.word	0xfeacf001
    47d4:	d0042800 	.word	0xd0042800
    47d8:	49844885 	.word	0x49844885
    47dc:	f0103075 	.word	0xf0103075
    47e0:	4628fbac 	.word	0x4628fbac
    47e4:	faf2f003 	.word	0xfaf2f003
    47e8:	d0972800 	.word	0xd0972800
    47ec:	497f4880 	.word	0x497f4880
    47f0:	e71a3077 	.word	0xe71a3077
    47f4:	43287860 	.word	0x43287860
    47f8:	e5da7060 	.word	0xe5da7060
    47fc:	d00b2900 	.word	0xd00b2900
    4800:	487d8088 	.word	0x487d8088
    4804:	30c06800 	.word	0x30c06800
    4808:	80ca8802 	.word	0x80ca8802
    480c:	810a8802 	.word	0x810a8802
    4810:	814a8842 	.word	0x814a8842
    4814:	81888880 	.word	0x81888880
    4818:	b5f74770 	.word	0xb5f74770
    481c:	78004606 	.word	0x78004606
    4820:	2700460c 	.word	0x2700460c
    4824:	b0820901 	.word	0xb0820901
    4828:	2901463d 	.word	0x2901463d
    482c:	4872d074 	.word	0x4872d074
    4830:	90006800 	.word	0x90006800
    4834:	290230c0 	.word	0x290230c0
    4838:	2907d06f 	.word	0x2907d06f
    483c:	290ad004 	.word	0x290ad004
    4840:	496ad06c 	.word	0x496ad06c
    4844:	e20d486d 	.word	0xe20d486d
    4848:	780a6871 	.word	0x780a6871
    484c:	00131f52 	.word	0x00131f52
    4850:	fc64f010 	.word	0xfc64f010
    4854:	51a4090f 	.word	0x51a4090f
    4858:	582fa4a4 	.word	0x582fa4a4
    485c:	a4a44758 	.word	0xa4a44758
    4860:	6f65a4a4 	.word	0x6f65a4a4
    4864:	788a00a4 	.word	0x788a00a4
    4868:	d01b2a3c 	.word	0xd01b2a3c
    486c:	25162710 	.word	0x25162710
    4870:	d07d2c00 	.word	0xd07d2c00
    4874:	80a08888 	.word	0x80a08888
    4878:	1da26870 	.word	0x1da26870
    487c:	822089c0 	.word	0x822089c0
    4880:	89c06870 	.word	0x89c06870
    4884:	687081e0 	.word	0x687081e0
    4888:	82608a00 	.word	0x82608a00
    488c:	8a406870 	.word	0x8a406870
    4890:	687182a0 	.word	0x687182a0
    4894:	31084608 	.word	0x31084608
    4898:	f00179c0 	.word	0xf00179c0
    489c:	2000fbb1 	.word	0x2000fbb1
    48a0:	e0757360 	.word	0xe0757360
    48a4:	25072719 	.word	0x25072719
    48a8:	d0e22c00 	.word	0xd0e22c00
    48ac:	71a12100 	.word	0x71a12100
    48b0:	2711e071 	.word	0x2711e071
    48b4:	2c002507 	.word	0x2c002507
    48b8:	8889d0db 	.word	0x8889d0db
    48bc:	80a19100 	.word	0x80a19100
    48c0:	22f76871 	.word	0x22f76871
    48c4:	71a17989 	.word	0x71a17989
    48c8:	40117a41 	.word	0x40117a41
    48cc:	98007241 	.word	0x98007241
    48d0:	fc1cf002 	.word	0xfc1cf002
    48d4:	f0019800 	.word	0xf0019800
    48d8:	9800fe33 	.word	0x9800fe33
    48dc:	fabaf003 	.word	0xfabaf003
    48e0:	2701e1d2 	.word	0x2701e1d2
    48e4:	2c002509 	.word	0x2c002509
    48e8:	8888d0c3 	.word	0x8888d0c3
    48ec:	687080a0 	.word	0x687080a0
    48f0:	72207980 	.word	0x72207980
    48f4:	8888e1c8 	.word	0x8888e1c8
    48f8:	250e2712 	.word	0x250e2712
    48fc:	f7ff4621 	.word	0xf7ff4621
    4900:	e1c1ff7d 	.word	0xe1c1ff7d
    4904:	25082718 	.word	0x25082718
    4908:	d0b22c00 	.word	0xd0b22c00
    490c:	80a08888 	.word	0x80a08888
    4910:	f7ff1da0 	.word	0xf7ff1da0
    4914:	e1b7fb3c 	.word	0xe1b7fb3c
    4918:	e1a6e044 	.word	0xe1a6e044
    491c:	271ae05c 	.word	0x271ae05c
    4920:	2c002507 	.word	0x2c002507
    4924:	8848d0a5 	.word	0x8848d0a5
    4928:	687080a0 	.word	0x687080a0
    492c:	71a07900 	.word	0x71a07900
    4930:	788ae1aa 	.word	0x788ae1aa
    4934:	d0b52a3c 	.word	0xd0b52a3c
    4938:	25162710 	.word	0x25162710
    493c:	d0982c00 	.word	0xd0982c00
    4940:	80a08888 	.word	0x80a08888
    4944:	89c06870 	.word	0x89c06870
    4948:	68708220 	.word	0x68708220
    494c:	81e089c0 	.word	0x81e089c0
    4950:	8a006870 	.word	0x8a006870
    4954:	68708260 	.word	0x68708260
    4958:	82a08a40 	.word	0x82a08a40
    495c:	7b606871 	.word	0x7b606871
    4960:	08407d49 	.word	0x08407d49
    4964:	07c90040 	.word	0x07c90040
    4968:	43080fc9 	.word	0x43080fc9
    496c:	e0007360 	.word	0xe0007360
    4970:	6871e193 	.word	0x6871e193
    4974:	7d4907c0 	.word	0x7d4907c0
    4978:	08490fc0 	.word	0x08490fc0
    497c:	43080049 	.word	0x43080049
    4980:	68717360 	.word	0x68717360
    4984:	46081da2 	.word	0x46081da2
    4988:	79c03108 	.word	0x79c03108
    498c:	fb38f001 	.word	0xfb38f001
    4990:	68004819 	.word	0x68004819
    4994:	7a4130c0 	.word	0x7a4130c0
    4998:	e17322ef 	.word	0xe17322ef
    499c:	491320a7 	.word	0x491320a7
    49a0:	e15f00c0 	.word	0xe15f00c0
    49a4:	28017a30 	.word	0x28017a30
    49a8:	4814d003 	.word	0x4814d003
    49ac:	38c8490f 	.word	0x38c8490f
    49b0:	2712e158 	.word	0x2712e158
    49b4:	8970250e 	.word	0x8970250e
    49b8:	f7ff4621 	.word	0xf7ff4621
    49bc:	2c00ff1f 	.word	0x2c00ff1f
    49c0:	7870d092 	.word	0x7870d092
    49c4:	0f400740 	.word	0x0f400740
    49c8:	d1892803 	.word	0xd1892803
    49cc:	6800480a 	.word	0x6800480a
    49d0:	7a4130c0 	.word	0x7a4130c0
    49d4:	e15522fb 	.word	0xe15522fb
    49d8:	68094907 	.word	0x68094907
    49dc:	2c0031a0 	.word	0x2c0031a0
    49e0:	8b8ad001 	.word	0x8b8ad001
    49e4:	7a3280a2 	.word	0x7a3280a2
    49e8:	e0091e92 	.word	0xe0091e92
    49ec:	000041c0 	.word	0x000041c0
    49f0:	00000415 	.word	0x00000415
    49f4:	200012ac 	.word	0x200012ac
    49f8:	20000054 	.word	0x20000054
    49fc:	00000617 	.word	0x00000617
    4a00:	f0100013 	.word	0xf0100013
    4a04:	3d07fb8b 	.word	0x3d07fb8b
    4a08:	ebfd5348 	.word	0xebfd5348
    4a0c:	00fd056f 	.word	0x00fd056f
    4a10:	250c2713 	.word	0x250c2713
    4a14:	d0852c00 	.word	0xd0852c00
    4a18:	22009900 	.word	0x22009900
    4a1c:	68f1824a 	.word	0x68f1824a
    4a20:	07897889 	.word	0x07897889
    4a24:	29010f89 	.word	0x29010f89
    4a28:	d0267a21 	.word	0xd0267a21
    4a2c:	00490849 	.word	0x00490849
    4a30:	23fd7221 	.word	0x23fd7221
    4a34:	68f34019 	.word	0x68f34019
    4a38:	075b789b 	.word	0x075b789b
    4a3c:	005b0fdb 	.word	0x005b0fdb
    4a40:	72214319 	.word	0x72214319
    4a44:	80e223e3 	.word	0x80e223e3
    4a48:	68f34019 	.word	0x68f34019
    4a4c:	075b781b 	.word	0x075b781b
    4a50:	43190edb 	.word	0x43190edb
    4a54:	23df7221 	.word	0x23df7221
    4a58:	68f34019 	.word	0x68f34019
    4a5c:	07db785b 	.word	0x07db785b
    4a60:	43190e9b 	.word	0x43190e9b
    4a64:	72627221 	.word	0x72627221
    4a68:	220168f1 	.word	0x220168f1
    4a6c:	72a178c9 	.word	0x72a178c9
    4a70:	43117a01 	.word	0x43117a01
    4a74:	401122f7 	.word	0x401122f7
    4a78:	2301e0ad 	.word	0x2301e0ad
    4a7c:	e7d74319 	.word	0xe7d74319
    4a80:	250c2715 	.word	0x250c2715
    4a84:	d09b2c00 	.word	0xd09b2c00
    4a88:	220668f0 	.word	0x220668f0
    4a8c:	1da16800 	.word	0x1da16800
    4a90:	ff5cf00e 	.word	0xff5cf00e
    4a94:	2716e0f8 	.word	0x2716e0f8
    4a98:	2c002507 	.word	0x2c002507
    4a9c:	7b31d090 	.word	0x7b31d090
    4aa0:	7a0171a1 	.word	0x7a0171a1
    4aa4:	e01b2208 	.word	0xe01b2208
    4aa8:	e0ed7201 	.word	0xe0ed7201
    4aac:	25122714 	.word	0x25122714
    4ab0:	d0852c00 	.word	0xd0852c00
    4ab4:	1da29800 	.word	0x1da29800
    4ab8:	6b803080 	.word	0x6b803080
    4abc:	31154601 	.word	0x31154601
    4ac0:	f0017d00 	.word	0xf0017d00
    4ac4:	89b0fa9d 	.word	0x89b0fa9d
    4ac8:	7c2081e0 	.word	0x7c2081e0
    4acc:	43082101 	.word	0x43082101
    4ad0:	400821f9 	.word	0x400821f9
    4ad4:	48fd7420 	.word	0x48fd7420
    4ad8:	30c06800 	.word	0x30c06800
    4adc:	22027a01 	.word	0x22027a01
    4ae0:	e7e14311 	.word	0xe7e14311
    4ae4:	25382717 	.word	0x25382717
    4ae8:	d0942c00 	.word	0xd0942c00
    4aec:	1da02132 	.word	0x1da02132
    4af0:	f8e4f010 	.word	0xf8e4f010
    4af4:	71a02000 	.word	0x71a02000
    4af8:	21037a20 	.word	0x21037a20
    4afc:	72204308 	.word	0x72204308
    4b00:	400821fb 	.word	0x400821fb
    4b04:	680949f1 	.word	0x680949f1
    4b08:	07527e0a 	.word	0x07527e0a
    4b0c:	00920fd2 	.word	0x00920fd2
    4b10:	72204310 	.word	0x72204310
    4b14:	584020b8 	.word	0x584020b8
    4b18:	07807a80 	.word	0x07807a80
    4b1c:	7aa0d057 	.word	0x7aa0d057
    4b20:	08407c8a 	.word	0x08407c8a
    4b24:	004007d2 	.word	0x004007d2
    4b28:	43100fd2 	.word	0x43100fd2
    4b2c:	401022fd 	.word	0x401022fd
    4b30:	7c8b72a0 	.word	0x7c8b72a0
    4b34:	079b22fb 	.word	0x079b22fb
    4b38:	40100fdb 	.word	0x40100fdb
    4b3c:	4318009b 	.word	0x4318009b
    4b40:	7c8b72a0 	.word	0x7c8b72a0
    4b44:	079b26f7 	.word	0x079b26f7
    4b48:	40300fdb 	.word	0x40300fdb
    4b4c:	431800db 	.word	0x431800db
    4b50:	401823ef 	.word	0x401823ef
    4b54:	7ae072a0 	.word	0x7ae072a0
    4b58:	7c8a4010 	.word	0x7c8a4010
    4b5c:	0fd206d2 	.word	0x0fd206d2
    4b60:	43100092 	.word	0x43100092
    4b64:	7c8a72e0 	.word	0x7c8a72e0
    4b68:	06d24030 	.word	0x06d24030
    4b6c:	00d20fd2 	.word	0x00d20fd2
    4b70:	72e04310 	.word	0x72e04310
    4b74:	81a08a88 	.word	0x81a08a88
    4b78:	22104620 	.word	0x22104620
    4b7c:	300e3167 	.word	0x300e3167
    4b80:	f83ff010 	.word	0xf83ff010
    4b84:	7fa049d1 	.word	0x7fa049d1
    4b88:	07c06809 	.word	0x07c06809
    4b8c:	0fc07d8a 	.word	0x0fc07d8a
    4b90:	43100052 	.word	0x43100052
    4b94:	7e0a77a0 	.word	0x7e0a77a0
    4b98:	07520840 	.word	0x07520840
    4b9c:	0fd20040 	.word	0x0fd20040
    4ba0:	77a04310 	.word	0x77a04310
    4ba4:	30404608 	.word	0x30404608
    4ba8:	3420c84d 	.word	0x3420c84d
    4bac:	3c30c44d 	.word	0x3c30c44d
    4bb0:	5c40203f 	.word	0x5c40203f
    4bb4:	32304622 	.word	0x32304622
    4bb8:	f0013139 	.word	0xf0013139
    4bbc:	48c3fa21 	.word	0x48c3fa21
    4bc0:	30806800 	.word	0x30806800
    4bc4:	7a816b80 	.word	0x7a816b80
    4bc8:	00890889 	.word	0x00890889
    4bcc:	48bf7281 	.word	0x48bf7281
    4bd0:	30c06800 	.word	0x30c06800
    4bd4:	22fb7a01 	.word	0x22fb7a01
    4bd8:	e7654011 	.word	0xe7654011
    4bdc:	2a027b32 	.word	0x2a027b32
    4be0:	2717d018 	.word	0x2717d018
    4be4:	2c002538 	.word	0x2c002538
    4be8:	7a01d011 	.word	0x7a01d011
    4bec:	401923fb 	.word	0x401923fb
    4bf0:	2a017201 	.word	0x2a017201
    4bf4:	2a03d017 	.word	0x2a03d017
    4bf8:	2a04d022 	.word	0x2a04d022
    4bfc:	e000d023 	.word	0xe000d023
    4c00:	2a05e02d 	.word	0x2a05e02d
    4c04:	49b2d01f 	.word	0x49b2d01f
    4c08:	f01048b2 	.word	0xf01048b2
    4c0c:	f001f996 	.word	0xf001f996
    4c10:	e039fa08 	.word	0xe039fa08
    4c14:	25072719 	.word	0x25072719
    4c18:	d0f82c00 	.word	0xd0f82c00
    4c1c:	80a18b89 	.word	0x80a18b89
    4c20:	71a12101 	.word	0x71a12101
    4c24:	2101e003 	.word	0x2101e003
    4c28:	210071a1 	.word	0x210071a1
    4c2c:	7a4171e1 	.word	0x7a4171e1
    4c30:	064909ca 	.word	0x064909ca
    4c34:	0e8901d2 	.word	0x0e8901d2
    4c38:	430a0049 	.word	0x430a0049
    4c3c:	e7e67242 	.word	0xe7e67242
    4c40:	71a02002 	.word	0x71a02002
    4c44:	7b70e006 	.word	0x7b70e006
    4c48:	0f000700 	.word	0x0f000700
    4c4c:	71a03080 	.word	0x71a03080
    4c50:	d0022a05 	.word	0xd0022a05
    4c54:	71e02000 	.word	0x71e02000
    4c58:	2001e7d9 	.word	0x2001e7d9
    4c5c:	489de7fb 	.word	0x489de7fb
    4c60:	300c499b 	.word	0x300c499b
    4c64:	f969f010 	.word	0xf969f010
    4c68:	7a31e00e 	.word	0x7a31e00e
    4c6c:	d10b2900 	.word	0xd10b2900
    4c70:	25072719 	.word	0x25072719
    4c74:	d0102c00 	.word	0xd0102c00
    4c78:	80a11e49 	.word	0x80a11e49
    4c7c:	71a12100 	.word	0x71a12100
    4c80:	22fd7a41 	.word	0x22fd7a41
    4c84:	72414011 	.word	0x72414011
    4c88:	2c009804 	.word	0x2c009804
    4c8c:	d0018005 	.word	0xd0018005
    4c90:	80658027 	.word	0x80658027
    4c94:	b0052000 	.word	0xb0052000
    4c98:	9804bdf0 	.word	0x9804bdf0
    4c9c:	e7f98005 	.word	0xe7f98005
    4ca0:	4c8ab510 	.word	0x4c8ab510
    4ca4:	6820b094 	.word	0x6820b094
    4ca8:	798030c0 	.word	0x798030c0
    4cac:	d0092802 	.word	0xd0092802
    4cb0:	d0072803 	.word	0xd0072803
    4cb4:	d0052805 	.word	0xd0052805
    4cb8:	d0032809 	.word	0xd0032809
    4cbc:	d001280a 	.word	0xd001280a
    4cc0:	d137280b 	.word	0xd137280b
    4cc4:	a808211b 	.word	0xa808211b
    4cc8:	21007301 	.word	0x21007301
    4ccc:	46697381 	.word	0x46697381
    4cd0:	f008a80b 	.word	0xf008a80b
    4cd4:	2800fe25 	.word	0x2800fe25
    4cd8:	4668d104 	.word	0x4668d104
    4cdc:	281b7840 	.word	0x281b7840
    4ce0:	2003d002 	.word	0x2003d002
    4ce4:	bd10b014 	.word	0xbd10b014
    4ce8:	46082100 	.word	0x46082100
    4cec:	ffdaf00c 	.word	0xffdaf00c
    4cf0:	20072100 	.word	0x20072100
    4cf4:	ffd6f00c 	.word	0xffd6f00c
    4cf8:	78804668 	.word	0x78804668
    4cfc:	d1192800 	.word	0xd1192800
    4d00:	30c06820 	.word	0x30c06820
    4d04:	1e807980 	.word	0x1e807980
    4d08:	f0100003 	.word	0xf0100003
    4d0c:	060afa07 	.word	0x060afa07
    4d10:	13081306 	.word	0x13081306
    4d14:	0f0d1313 	.word	0x0f0d1313
    4d18:	20011311 	.word	0x20011311
    4d1c:	2004e000 	.word	0x2004e000
    4d20:	f89af7ff 	.word	0xf89af7ff
    4d24:	e7dd2000 	.word	0xe7dd2000
    4d28:	e7f92006 	.word	0xe7f92006
    4d2c:	e7f72007 	.word	0xe7f72007
    4d30:	e7f52008 	.word	0xe7f52008
    4d34:	e7d52008 	.word	0xe7d52008
    4d38:	2500b570 	.word	0x2500b570
    4d3c:	28004c63 	.word	0x28004c63
    4d40:	2802d007 	.word	0x2802d007
    4d44:	2807d017 	.word	0x2807d017
    4d48:	4862d028 	.word	0x4862d028
    4d4c:	30794960 	.word	0x30794960
    4d50:	f7ffe046 	.word	0xf7ffe046
    4d54:	2800ffa5 	.word	0x2800ffa5
    4d58:	f7fed10c 	.word	0xf7fed10c
    4d5c:	2122faf5 	.word	0x2122faf5
    4d60:	72057001 	.word	0x72057001
    4d64:	fb0cf7fe 	.word	0xfb0cf7fe
    4d68:	30c06820 	.word	0x30c06820
    4d6c:	22027a41 	.word	0x22027a41
    4d70:	72414311 	.word	0x72414311
    4d74:	f7febd70 	.word	0xf7febd70
    4d78:	2112fae7 	.word	0x2112fae7
    4d7c:	21017001 	.word	0x21017001
    4d80:	68217201 	.word	0x68217201
    4d84:	5a5222bc 	.word	0x5a5222bc
    4d88:	31c08142 	.word	0x31c08142
    4d8c:	f7fe71cd 	.word	0xf7fe71cd
    4d90:	6820faf7 	.word	0x6820faf7
    4d94:	7a4130c0 	.word	0x7a4130c0
    4d98:	e7e92204 	.word	0xe7e92204
    4d9c:	20c66821 	.word	0x20c66821
    4da0:	28025c40 	.word	0x28025c40
    4da4:	2803d009 	.word	0x2803d009
    4da8:	2809d007 	.word	0x2809d007
    4dac:	280ad005 	.word	0x280ad005
    4db0:	280bd003 	.word	0x280bd003
    4db4:	2805d001 	.word	0x2805d001
    4db8:	7b88d1dc 	.word	0x7b88d1dc
    4dbc:	29010981 	.word	0x29010981
    4dc0:	0980d011 	.word	0x0980d011
    4dc4:	4843d004 	.word	0x4843d004
    4dc8:	30704941 	.word	0x30704941
    4dcc:	f8b5f010 	.word	0xf8b5f010
    4dd0:	f7ff2000 	.word	0xf7ff2000
    4dd4:	2800fa33 	.word	0x2800fa33
    4dd8:	483ed0cc 	.word	0x483ed0cc
    4ddc:	3074493c 	.word	0x3074493c
    4de0:	f8abf010 	.word	0xf8abf010
    4de4:	2000bd70 	.word	0x2000bd70
    4de8:	f9f6f7ff 	.word	0xf9f6f7ff
    4dec:	b570e7f3 	.word	0xb570e7f3
    4df0:	0004460d 	.word	0x0004460d
    4df4:	4837d104 	.word	0x4837d104
    4df8:	30814935 	.word	0x30814935
    4dfc:	f89df010 	.word	0xf89df010
    4e00:	28017820 	.word	0x28017820
    4e04:	4833d005 	.word	0x4833d005
    4e08:	309f4931 	.word	0x309f4931
    4e0c:	f895f010 	.word	0xf895f010
    4e10:	88a1bd70 	.word	0x88a1bd70
    4e14:	4e2d4830 	.word	0x4e2d4830
    4e18:	d1094281 	.word	0xd1094281
    4e1c:	428288e2 	.word	0x428288e2
    4e20:	6830d106 	.word	0x6830d106
    4e24:	30a02113 	.word	0x30a02113
    4e28:	f7ff8b80 	.word	0xf7ff8b80
    4e2c:	bd70f999 	.word	0xbd70f999
    4e30:	d1024281 	.word	0xd1024281
    4e34:	280088e0 	.word	0x280088e0
    4e38:	2012d00a 	.word	0x2012d00a
    4e3c:	78687028 	.word	0x78687028
    4e40:	43082108 	.word	0x43082108
    4e44:	cc077068 	.word	0xcc077068
    4e48:	c5073508 	.word	0xc5073508
    4e4c:	e0062100 	.word	0xe0062100
    4e50:	23782200 	.word	0x23782200
    4e54:	20024611 	.word	0x20024611
    4e58:	fe7ff00c 	.word	0xfe7ff00c
    4e5c:	68302102 	.word	0x68302102
    4e60:	71c130c0 	.word	0x71c130c0
    4e64:	b500bd70 	.word	0xb500bd70
    4e68:	b0874a18 	.word	0xb0874a18
    4e6c:	32c06812 	.word	0x32c06812
    4e70:	09d27a52 	.word	0x09d27a52
    4e74:	2306d107 	.word	0x2306d107
    4e78:	7013466a 	.word	0x7013466a
    4e7c:	72119001 	.word	0x72119001
    4e80:	f00a4668 	.word	0xf00a4668
    4e84:	b007fd5a 	.word	0xb007fd5a
    4e88:	b500bd00 	.word	0xb500bd00
    4e8c:	2007b087 	.word	0x2007b087
    4e90:	70084669 	.word	0x70084669
    4e94:	f00a4668 	.word	0xf00a4668
    4e98:	e7f4fd50 	.word	0xe7f4fd50
    4e9c:	6800480b 	.word	0x6800480b
    4ea0:	7a8030c0 	.word	0x7a8030c0
    4ea4:	b5384770 	.word	0xb5384770
    4ea8:	46054c08 	.word	0x46054c08
    4eac:	68207802 	.word	0x68207802
    4eb0:	46010013 	.word	0x46010013
    4eb4:	f01031c0 	.word	0xf01031c0
    4eb8:	a909f931 	.word	0xa909f931
    4ebc:	a3111106 	.word	0xa3111106
    4ec0:	8b734e20 	.word	0x8b734e20
    4ec4:	f7fe00a9 	.word	0xf7fe00a9
    4ec8:	bd38ff87 	.word	0xbd38ff87
    4ecc:	20000054 	.word	0x20000054
    4ed0:	000041c0 	.word	0x000041c0
    4ed4:	000005f2 	.word	0x000005f2
    4ed8:	0000ffff 	.word	0x0000ffff
    4edc:	28067988 	.word	0x28067988
    4ee0:	2809d005 	.word	0x2809d005
    4ee4:	49fed003 	.word	0x49fed003
    4ee8:	f01048fe 	.word	0xf01048fe
    4eec:	6820f826 	.word	0x6820f826
    4ef0:	7e012204 	.word	0x7e012204
    4ef4:	76014311 	.word	0x76014311
    4ef8:	88a9e082 	.word	0x88a9e082
    4efc:	d0e42900 	.word	0xd0e42900
    4f00:	8b8030a0 	.word	0x8b8030a0
    4f04:	428849f8 	.word	0x428849f8
    4f08:	68a8d0df 	.word	0x68a8d0df
    4f0c:	d1042800 	.word	0xd1042800
    4f10:	49f348f4 	.word	0x49f348f4
    4f14:	f0103010 	.word	0xf0103010
    4f18:	6820f810 	.word	0x6820f810
    4f1c:	7a4030c0 	.word	0x7a4030c0
    4f20:	d00409c0 	.word	0xd00409c0
    4f24:	49ee48ef 	.word	0x49ee48ef
    4f28:	f0103011 	.word	0xf0103011
    4f2c:	68a8f806 	.word	0x68a8f806
    4f30:	380a2206 	.word	0x380a2206
    4f34:	900060a8 	.word	0x900060a8
    4f38:	88ab6820 	.word	0x88ab6820
    4f3c:	8b8030a0 	.word	0x8b8030a0
    4f40:	f0022104 	.word	0xf0022104
    4f44:	2800f80d 	.word	0x2800f80d
    4f48:	20dbd0bf 	.word	0x20dbd0bf
    4f4c:	00c049e4 	.word	0x00c049e4
    4f50:	fff3f00f 	.word	0xfff3f00f
    4f54:	7988e7b9 	.word	0x7988e7b9
    4f58:	d9b62805 	.word	0xd9b62805
    4f5c:	28017928 	.word	0x28017928
    4f60:	2802d002 	.word	0x2802d002
    4f64:	e003d108 	.word	0xe003d108
    4f68:	22807a48 	.word	0x22807a48
    4f6c:	72484310 	.word	0x72484310
    4f70:	22017a48 	.word	0x22017a48
    4f74:	72484310 	.word	0x72484310
    4f78:	f0014628 	.word	0xf0014628
    4f7c:	6820f85c 	.word	0x6820f85c
    4f80:	798030c0 	.word	0x798030c0
    4f84:	d9a02806 	.word	0xd9a02806
    4f88:	d8012808 	.word	0xd8012808
    4f8c:	e0042006 	.word	0xe0042006
    4f90:	d99a2809 	.word	0xd99a2809
    4f94:	d898280b 	.word	0xd898280b
    4f98:	f7fe2009 	.word	0xf7fe2009
    4f9c:	e794ff5d 	.word	0xe794ff5d
    4fa0:	28067988 	.word	0x28067988
    4fa4:	2804d00a 	.word	0x2804d00a
    4fa8:	2809d008 	.word	0x2809d008
    4fac:	2805d006 	.word	0x2805d006
    4fb0:	48ccd004 	.word	0x48ccd004
    4fb4:	303d49ca 	.word	0x303d49ca
    4fb8:	ffbff00f 	.word	0xffbff00f
    4fbc:	48cbcd0e 	.word	0x48cbcd0e
    4fc0:	60c26103 	.word	0x60c26103
    4fc4:	21a26081 	.word	0x21a26081
    4fc8:	f7fe7001 	.word	0xf7fe7001
    4fcc:	e77cf9ee 	.word	0xe77cf9ee
    4fd0:	28067988 	.word	0x28067988
    4fd4:	2807d018 	.word	0x2807d018
    4fd8:	2809d016 	.word	0x2809d016
    4fdc:	280ad00d 	.word	0x280ad00d
    4fe0:	48c0d00b 	.word	0x48c0d00b
    4fe4:	305049be 	.word	0x305049be
    4fe8:	ffa7f00f 	.word	0xffa7f00f
    4fec:	30c06820 	.word	0x30c06820
    4ff0:	28067980 	.word	0x28067980
    4ff4:	2807d008 	.word	0x2807d008
    4ff8:	200bd006 	.word	0x200bd006
    4ffc:	ff2cf7fe 	.word	0xff2cf7fe
    5000:	f0014628 	.word	0xf0014628
    5004:	e760f818 	.word	0xe760f818
    5008:	e7f72008 	.word	0xe7f72008
    500c:	49b448b5 	.word	0x49b448b5
    5010:	e79d3064 	.word	0xe79d3064
    5014:	b093b5ff 	.word	0xb093b5ff
    5018:	46682401 	.word	0x46682401
    501c:	70842103 	.word	0x70842103
    5020:	461d02c9 	.word	0x461d02c9
    5024:	f00a8001 	.word	0xf00a8001
    5028:	2200f960 	.word	0x2200f960
    502c:	20014669 	.word	0x20014669
    5030:	f985f003 	.word	0xf985f003
    5034:	f00a4606 	.word	0xf00a4606
    5038:	2e00f95c 	.word	0x2e00f95c
    503c:	4668d15c 	.word	0x4668d15c
    5040:	70842115 	.word	0x70842115
    5044:	80010249 	.word	0x80010249
    5048:	211c2700 	.word	0x211c2700
    504c:	9708a801 	.word	0x9708a801
    5050:	fe36f00f 	.word	0xfe36f00f
    5054:	46012001 	.word	0x46012001
    5058:	a8083110 	.word	0xa8083110
    505c:	20007001 	.word	0x20007001
    5060:	a8084601 	.word	0xa8084601
    5064:	78817041 	.word	0x78817041
    5068:	400120f9 	.word	0x400120f9
    506c:	43211c89 	.word	0x43211c89
    5070:	7081a808 	.word	0x7081a808
    5074:	79014668 	.word	0x79014668
    5078:	43312602 	.word	0x43312602
    507c:	99147101 	.word	0x99147101
    5080:	85c78581 	.word	0x85c78581
    5084:	8601211f 	.word	0x8601211f
    5088:	900aa808 	.word	0x900aa808
    508c:	900d9813 	.word	0x900d9813
    5090:	90094668 	.word	0x90094668
    5094:	f929f00a 	.word	0xf929f00a
    5098:	a909aa0e 	.word	0xa909aa0e
    509c:	f002a801 	.word	0xf002a801
    50a0:	4607ff1c 	.word	0x4607ff1c
    50a4:	f925f00a 	.word	0xf925f00a
    50a8:	d0022f00 	.word	0xd0022f00
    50ac:	b0174638 	.word	0xb0174638
    50b0:	4f8fbdf0 	.word	0x4f8fbdf0
    50b4:	68394668 	.word	0x68394668
    50b8:	80488f00 	.word	0x80488f00
    50bc:	70844668 	.word	0x70844668
    50c0:	8001498c 	.word	0x8001498c
    50c4:	7880a808 	.word	0x7880a808
    50c8:	400821f9 	.word	0x400821f9
    50cc:	08411c80 	.word	0x08411c80
    50d0:	a8080049 	.word	0xa8080049
    50d4:	46687081 	.word	0x46687081
    50d8:	86068586 	.word	0x86068586
    50dc:	900da815 	.word	0x900da815
    50e0:	f903f00a 	.word	0xf903f00a
    50e4:	a909aa0e 	.word	0xa909aa0e
    50e8:	f002a801 	.word	0xf002a801
    50ec:	4606fef6 	.word	0x4606fef6
    50f0:	f8fff00a 	.word	0xf8fff00a
    50f4:	d0012e00 	.word	0xd0012e00
    50f8:	e7d84630 	.word	0xe7d84630
    50fc:	68394668 	.word	0x68394668
    5100:	80888f00 	.word	0x80888f00
    5104:	4668497b 	.word	0x4668497b
    5108:	1cc97084 	.word	0x1cc97084
    510c:	88298001 	.word	0x88298001
    5110:	8001a810 	.word	0x8001a810
    5114:	80418869 	.word	0x80418869
    5118:	808188a9 	.word	0x808188a9
    511c:	80c188e9 	.word	0x80c188e9
    5120:	46682108 	.word	0x46682108
    5124:	86018581 	.word	0x86018581
    5128:	900da810 	.word	0x900da810
    512c:	f8ddf00a 	.word	0xf8ddf00a
    5130:	a909aa0e 	.word	0xa909aa0e
    5134:	f002a801 	.word	0xf002a801
    5138:	4604fed0 	.word	0x4604fed0
    513c:	f8d9f00a 	.word	0xf8d9f00a
    5140:	d0012c00 	.word	0xd0012c00
    5144:	e7b24620 	.word	0xe7b24620
    5148:	68394668 	.word	0x68394668
    514c:	80c88f00 	.word	0x80c88f00
    5150:	e7ac2000 	.word	0xe7ac2000
    5154:	4e68b5f0 	.word	0x4e68b5f0
    5158:	460cb095 	.word	0x460cb095
    515c:	d33542b1 	.word	0xd33542b1
    5160:	04bf2701 	.word	0x04bf2701
    5164:	42bc4d65 	.word	0x42bc4d65
    5168:	42acd301 	.word	0x42acd301
    516c:	2820d32e 	.word	0x2820d32e
    5170:	2821d004 	.word	0x2821d004
    5174:	2822d024 	.word	0x2822d024
    5178:	e03dd137 	.word	0xe03dd137
    517c:	4668213c 	.word	0x4668213c
    5180:	88217001 	.word	0x88217001
    5184:	88618041 	.word	0x88618041
    5188:	a9098081 	.word	0xa9098081
    518c:	fbc8f008 	.word	0xfbc8f008
    5190:	d1062800 	.word	0xd1062800
    5194:	7989a908 	.word	0x7989a908
    5198:	d0042900 	.word	0xd0042900
    519c:	d00d2902 	.word	0xd00d2902
    51a0:	b0152003 	.word	0xb0152003
    51a4:	6861bdf0 	.word	0x6861bdf0
    51a8:	d3fa42b1 	.word	0xd3fa42b1
    51ac:	d30142b9 	.word	0xd30142b9
    51b0:	d3f642a9 	.word	0xd3f642a9
    51b4:	8d12466a 	.word	0x8d12466a
    51b8:	e7f2800a 	.word	0xe7f2800a
    51bc:	e7f04850 	.word	0xe7f04850
    51c0:	4c4b6808 	.word	0x4c4b6808
    51c4:	d0122800 	.word	0xd0122800
    51c8:	d20142a8 	.word	0xd20142a8
    51cc:	e7e82010 	.word	0xe7e82010
    51d0:	f00e2106 	.word	0xf00e2106
    51d4:	1c41fba5 	.word	0x1c41fba5
    51d8:	6821d007 	.word	0x6821d007
    51dc:	505022a8 	.word	0x505022a8
    51e0:	31a02001 	.word	0x31a02001
    51e4:	20007588 	.word	0x20007588
    51e8:	2007e7db 	.word	0x2007e7db
    51ec:	6820e7d9 	.word	0x6820e7d9
    51f0:	30a02100 	.word	0x30a02100
    51f4:	e7f67581 	.word	0xe7f67581
    51f8:	f0004608 	.word	0xf0004608
    51fc:	e7d0ff28 	.word	0xe7d0ff28
    5200:	b5104a3d 	.word	0xb5104a3d
    5204:	d3064291 	.word	0xd3064291
    5208:	04922201 	.word	0x04922201
    520c:	d3044291 	.word	0xd3044291
    5210:	42914a3a 	.word	0x42914a3a
    5214:	2010d201 	.word	0x2010d201
    5218:	2820bd10 	.word	0x2820bd10
    521c:	2821d005 	.word	0x2821d005
    5220:	2822d003 	.word	0x2822d003
    5224:	2007d003 	.word	0x2007d003
    5228:	2006bd10 	.word	0x2006bd10
    522c:	4608bd10 	.word	0x4608bd10
    5230:	ff42f000 	.word	0xff42f000
    5234:	b570bd10 	.word	0xb570bd10
    5238:	482c4604 	.word	0x482c4604
    523c:	30ac21cc 	.word	0x30ac21cc
    5240:	fd3ef00f 	.word	0xfd3ef00f
    5244:	4e2a4829 	.word	0x4e2a4829
    5248:	210030ac 	.word	0x210030ac
    524c:	43c96030 	.word	0x43c96030
    5250:	838130a0 	.word	0x838130a0
    5254:	77852500 	.word	0x77852500
    5258:	f7fe2001 	.word	0xf7fe2001
    525c:	6830fdfd 	.word	0x6830fdfd
    5260:	540d21c7 	.word	0x540d21c7
    5264:	73c521e1 	.word	0x73c521e1
    5268:	82010089 	.word	0x82010089
    526c:	540d21b6 	.word	0x540d21b6
    5270:	31094601 	.word	0x31094601
    5274:	f7fd3008 	.word	0xf7fd3008
    5278:	6831ff83 	.word	0x6831ff83
    527c:	7a0a4608 	.word	0x7a0a4608
    5280:	71823060 	.word	0x71823060
    5284:	31092206 	.word	0x31092206
    5288:	fcbbf00f 	.word	0xfcbbf00f
    528c:	46086831 	.word	0x46086831
    5290:	30193129 	.word	0x30193129
    5294:	ffabf7fd 	.word	0xffabf7fd
    5298:	d0372c00 	.word	0xd0372c00
    529c:	30806830 	.word	0x30806830
    52a0:	f7fe6384 	.word	0xf7fe6384
    52a4:	201efd99 	.word	0x201efd99
    52a8:	7a6081e0 	.word	0x7a6081e0
    52ac:	4008218f 	.word	0x4008218f
    52b0:	72603030 	.word	0x72603030
    52b4:	46016830 	.word	0x46016830
    52b8:	61213114 	.word	0x61213114
    52bc:	62613198 	.word	0x62613198
    52c0:	60213993 	.word	0x60213993
    52c4:	60613110 	.word	0x60613110
    52c8:	39137225 	.word	0x39137225
    52cc:	1f0962a1 	.word	0x1f0962a1
    52d0:	318562e1 	.word	0x318562e1
    52d4:	393063e1 	.word	0x393063e1
    52d8:	31106321 	.word	0x31106321
    52dc:	e0116361 	.word	0xe0116361
    52e0:	000041c0 	.word	0x000041c0
    52e4:	000006c2 	.word	0x000006c2
    52e8:	0000ffff 	.word	0x0000ffff
    52ec:	2000124c 	.word	0x2000124c
    52f0:	20000054 	.word	0x20000054
    52f4:	00002a01 	.word	0x00002a01
    52f8:	00016000 	.word	0x00016000
    52fc:	20002000 	.word	0x20002000
    5300:	00003002 	.word	0x00003002
    5304:	30093110 	.word	0x30093110
    5308:	64a063a1 	.word	0x64a063a1
    530c:	48f7bd70 	.word	0x48f7bd70
    5310:	30c06800 	.word	0x30c06800
    5314:	28047980 	.word	0x28047980
    5318:	2805d003 	.word	0x2805d003
    531c:	2000d001 	.word	0x2000d001
    5320:	20014770 	.word	0x20014770
    5324:	b5704770 	.word	0xb5704770
    5328:	48f14606 	.word	0x48f14606
    532c:	4281460c 	.word	0x4281460c
    5330:	2001d306 	.word	0x2001d306
    5334:	42840480 	.word	0x42840480
    5338:	48eed304 	.word	0x48eed304
    533c:	d2014284 	.word	0xd2014284
    5340:	bd702010 	.word	0xbd702010
    5344:	ffe3f7ff 	.word	0xffe3f7ff
    5348:	d0012800 	.word	0xd0012800
    534c:	bd702011 	.word	0xbd702011
    5350:	4de648e9 	.word	0x4de648e9
    5354:	d0022e00 	.word	0xd0022e00
    5358:	d1462e01 	.word	0xd1462e01
    535c:	7822e02f 	.word	0x7822e02f
    5360:	d00a2a00 	.word	0xd00a2a00
    5364:	2a012101 	.word	0x2a012101
    5368:	2a02d009 	.word	0x2a02d009
    536c:	2a03d014 	.word	0x2a03d014
    5370:	79a2d1ed 	.word	0x79a2d1ed
    5374:	d1ea0992 	.word	0xd1ea0992
    5378:	2100e012 	.word	0x2100e012
    537c:	79a2e003 	.word	0x79a2e003
    5380:	2a030992 	.word	0x2a030992
    5384:	6828d1e3 	.word	0x6828d1e3
    5388:	72012206 	.word	0x72012206
    538c:	71813060 	.word	0x71813060
    5390:	f00f1c61 	.word	0xf00f1c61
    5394:	e005fc36 	.word	0xe005fc36
    5398:	099279a2 	.word	0x099279a2
    539c:	d1d62a01 	.word	0xd1d62a01
    53a0:	72016828 	.word	0x72016828
    53a4:	20072100 	.word	0x20072100
    53a8:	fc7cf00c 	.word	0xfc7cf00c
    53ac:	22066828 	.word	0x22066828
    53b0:	30091c61 	.word	0x30091c61
    53b4:	fc25f00f 	.word	0xfc25f00f
    53b8:	fd0ef7fe 	.word	0xfd0ef7fe
    53bc:	7821e011 	.word	0x7821e011
    53c0:	d0122900 	.word	0xd0122900
    53c4:	d0102901 	.word	0xd0102901
    53c8:	d0102902 	.word	0xd0102902
    53cc:	d1be2903 	.word	0xd1be2903
    53d0:	f7fe2001 	.word	0xf7fe2001
    53d4:	2800ff33 	.word	0x2800ff33
    53d8:	49c8d003 	.word	0x49c8d003
    53dc:	f00f48c8 	.word	0xf00f48c8
    53e0:	6828fdac 	.word	0x6828fdac
    53e4:	200073c6 	.word	0x200073c6
    53e8:	2007bd70 	.word	0x2007bd70
    53ec:	2001bd70 	.word	0x2001bd70
    53f0:	fef2f7fe 	.word	0xfef2f7fe
    53f4:	49bfe7ef 	.word	0x49bfe7ef
    53f8:	4288b510 	.word	0x4288b510
    53fc:	2010d201 	.word	0x2010d201
    5400:	49babd10 	.word	0x49babd10
    5404:	68094602 	.word	0x68094602
    5408:	31097a0b 	.word	0x31097a0b
    540c:	f0004618 	.word	0xf0004618
    5410:	2000fdf7 	.word	0x2000fdf7
    5414:	b5ffbd10 	.word	0xb5ffbd10
    5418:	4605b099 	.word	0x4605b099
    541c:	46692000 	.word	0x46692000
    5420:	72087108 	.word	0x72087108
    5424:	7408a908 	.word	0x7408a908
    5428:	75084614 	.word	0x75084614
    542c:	49b02201 	.word	0x49b02201
    5430:	48b00492 	.word	0x48b00492
    5434:	2d00461e 	.word	0x2d00461e
    5438:	428dd005 	.word	0x428dd005
    543c:	4295d30b 	.word	0x4295d30b
    5440:	4285d301 	.word	0x4285d301
    5444:	2c00d307 	.word	0x2c00d307
    5448:	428cd008 	.word	0x428cd008
    544c:	4294d303 	.word	0x4294d303
    5450:	4284d304 	.word	0x4284d304
    5454:	2010d202 	.word	0x2010d202
    5458:	bdf0b01d 	.word	0xbdf0b01d
    545c:	43204628 	.word	0x43204628
    5460:	271fd018 	.word	0x271fd018
    5464:	aa01ab0c 	.word	0xaa01ab0c
    5468:	46289700 	.word	0x46289700
    546c:	f7fe991a 	.word	0xf7fe991a
    5470:	2800fde0 	.word	0x2800fde0
    5474:	ab0dd1f0 	.word	0xab0dd1f0
    5478:	4631aa02 	.word	0x4631aa02
    547c:	97004620 	.word	0x97004620
    5480:	fdd7f7fe 	.word	0xfdd7f7fe
    5484:	d1e72800 	.word	0xd1e72800
    5488:	7a004668 	.word	0x7a004668
    548c:	d00307c1 	.word	0xd00307c1
    5490:	e7e1200a 	.word	0xe7e1200a
    5494:	e7df2007 	.word	0xe7df2007
    5498:	d5050780 	.word	0xd5050780
    549c:	79004668 	.word	0x79004668
    54a0:	d5010780 	.word	0xd5010780
    54a4:	e7d7200b 	.word	0xe7d7200b
    54a8:	ff31f7ff 	.word	0xff31f7ff
    54ac:	d0012800 	.word	0xd0012800
    54b0:	e7d12011 	.word	0xe7d12011
    54b4:	2d00af03 	.word	0x2d00af03
    54b8:	201ad00f 	.word	0x201ad00f
    54bc:	73084669 	.word	0x73084669
    54c0:	7388981a 	.word	0x7388981a
    54c4:	1cf84629 	.word	0x1cf84629
    54c8:	f00f9a1a 	.word	0xf00f9a1a
    54cc:	a90efb9a 	.word	0xa90efb9a
    54d0:	f008a803 	.word	0xf008a803
    54d4:	2800fa25 	.word	0x2800fa25
    54d8:	2c00d1be 	.word	0x2c00d1be
    54dc:	2120d00e 	.word	0x2120d00e
    54e0:	73014668 	.word	0x73014668
    54e4:	46327386 	.word	0x46327386
    54e8:	1cf84621 	.word	0x1cf84621
    54ec:	fb89f00f 	.word	0xfb89f00f
    54f0:	a803a90e 	.word	0xa803a90e
    54f4:	fa14f008 	.word	0xfa14f008
    54f8:	d1ad2800 	.word	0xd1ad2800
    54fc:	a808497b 	.word	0xa808497b
    5500:	7c006809 	.word	0x7c006809
    5504:	20007008 	.word	0x20007008
    5508:	b5f0e7a6 	.word	0xb5f0e7a6
    550c:	48784604 	.word	0x48784604
    5510:	b0952600 	.word	0xb0952600
    5514:	d3764284 	.word	0xd3764284
    5518:	04802001 	.word	0x04802001
    551c:	d3024284 	.word	0xd3024284
    5520:	42844874 	.word	0x42844874
    5524:	7823d3f7 	.word	0x7823d3f7
    5528:	d1092b01 	.word	0xd1092b01
    552c:	68604970 	.word	0x68604970
    5530:	d3f04288 	.word	0xd3f04288
    5534:	42880499 	.word	0x42880499
    5538:	496ed302 	.word	0x496ed302
    553c:	d3ea4288 	.word	0xd3ea4288
    5540:	680a496a 	.word	0x680a496a
    5544:	35c04615 	.word	0x35c04615
    5548:	280279a8 	.word	0x280279a8
    554c:	2803d014 	.word	0x2803d014
    5550:	2805d012 	.word	0x2805d012
    5554:	2809d010 	.word	0x2809d010
    5558:	280ad00e 	.word	0x280ad00e
    555c:	280bd00c 	.word	0x280bd00c
    5560:	2801d00a 	.word	0x2801d00a
    5564:	2b00d003 	.word	0x2b00d003
    5568:	2b01d006 	.word	0x2b01d006
    556c:	7a68d004 	.word	0x7a68d004
    5570:	0fad06c5 	.word	0x0fad06c5
    5574:	e001d106 	.word	0xe001d106
    5578:	e6122008 	.word	0xe6122008
    557c:	d4010785 	.word	0xd4010785
    5580:	d5010740 	.word	0xd5010740
    5584:	e60c2011 	.word	0xe60c2011
    5588:	4f5e8a20 	.word	0x4f5e8a20
    558c:	3d204605 	.word	0x3d204605
    5590:	d30742bd 	.word	0xd30742bd
    5594:	d16e2b01 	.word	0xd16e2b01
    5598:	d1fc2800 	.word	0xd1fc2800
    559c:	2d008a65 	.word	0x2d008a65
    55a0:	e011d1f9 	.word	0xe011d1f9
    55a4:	d0012b02 	.word	0xd0012b02
    55a8:	d1012b03 	.word	0xd1012b03
    55ac:	d36228a0 	.word	0xd36228a0
    55b0:	d1012b01 	.word	0xd1012b01
    55b4:	d0072800 	.word	0xd0072800
    55b8:	07ed7815 	.word	0x07ed7815
    55bc:	8a65d004 	.word	0x8a65d004
    55c0:	d0582d00 	.word	0xd0582d00
    55c4:	d8562db4 	.word	0xd8562db4
    55c8:	d0062b00 	.word	0xd0062b00
    55cc:	d0082b01 	.word	0xd0082b01
    55d0:	d0042b02 	.word	0xd0042b02
    55d4:	d1de2b03 	.word	0xd1de2b03
    55d8:	2500e018 	.word	0x2500e018
    55dc:	2502e019 	.word	0x2502e019
    55e0:	2800e017 	.word	0x2800e017
    55e4:	8a60d102 	.word	0x8a60d102
    55e8:	d00d2800 	.word	0xd00d2800
    55ec:	68602504 	.word	0x68602504
    55f0:	28007800 	.word	0x28007800
    55f4:	2801d00d 	.word	0x2801d00d
    55f8:	2802d00a 	.word	0x2802d00a
    55fc:	2803d008 	.word	0x2803d008
    5600:	483dd006 	.word	0x483dd006
    5604:	e063e5cd 	.word	0xe063e5cd
    5608:	e7f02501 	.word	0xe7f02501
    560c:	e0002503 	.word	0xe0002503
    5610:	7bd02601 	.word	0x7bd02601
    5614:	d11c2801 	.word	0xd11c2801
    5618:	28008a10 	.word	0x28008a10
    561c:	7b90d019 	.word	0x7b90d019
    5620:	29010981 	.word	0x29010981
    5624:	0980d011 	.word	0x0980d011
    5628:	4835d004 	.word	0x4835d004
    562c:	30ec4933 	.word	0x30ec4933
    5630:	fc83f00f 	.word	0xfc83f00f
    5634:	f7fe2001 	.word	0xf7fe2001
    5638:	2800fe01 	.word	0x2800fe01
    563c:	4830d00b 	.word	0x4830d00b
    5640:	30f0492e 	.word	0x30f0492e
    5644:	fc79f00f 	.word	0xfc79f00f
    5648:	2001e005 	.word	0x2001e005
    564c:	fdc4f7fe 	.word	0xfdc4f7fe
    5650:	f7fee7f3 	.word	0xf7fee7f3
    5654:	7a20fbc1 	.word	0x7a20fbc1
    5658:	d0062800 	.word	0xd0062800
    565c:	d0062801 	.word	0xd0062801
    5660:	d0062802 	.word	0xd0062802
    5664:	d1062803 	.word	0xd1062803
    5668:	2700e006 	.word	0x2700e006
    566c:	2701e005 	.word	0x2701e005
    5670:	2702e003 	.word	0x2702e003
    5674:	e087e001 	.word	0xe087e001
    5678:	2d002703 	.word	0x2d002703
    567c:	2d02d001 	.word	0x2d02d001
    5680:	2f00d148 	.word	0x2f00d148
    5684:	68e0d046 	.word	0x68e0d046
    5688:	d07d2800 	.word	0xd07d2800
    568c:	29007901 	.word	0x29007901
    5690:	2908d020 	.word	0x2908d020
    5694:	7b02d878 	.word	0x7b02d878
    5698:	d8752a08 	.word	0xd8752a08
    569c:	d00a2900 	.word	0xd00a2900
    56a0:	68014b13 	.word	0x68014b13
    56a4:	d3134299 	.word	0xd3134299
    56a8:	049b2301 	.word	0x049b2301
    56ac:	d3024299 	.word	0xd3024299
    56b0:	42994b10 	.word	0x42994b10
    56b4:	2a00d30c 	.word	0x2a00d30c
    56b8:	6880d010 	.word	0x6880d010
    56bc:	4288490c 	.word	0x4288490c
    56c0:	2101d306 	.word	0x2101d306
    56c4:	42880489 	.word	0x42880489
    56c8:	490ad308 	.word	0x490ad308
    56cc:	d2054288 	.word	0xd2054288
    56d0:	e5662010 	.word	0xe5662010
    56d4:	2a007b02 	.word	0x2a007b02
    56d8:	e7dcd06a 	.word	0xe7dcd06a
    56dc:	68004803 	.word	0x68004803
    56e0:	07807800 	.word	0x07807800
    56e4:	4804d010 	.word	0x4804d010
    56e8:	e55a1e40 	.word	0xe55a1e40
    56ec:	20000054 	.word	0x20000054
    56f0:	00016000 	.word	0x00016000
    56f4:	20002000 	.word	0x20002000
    56f8:	00003202 	.word	0x00003202
    56fc:	000041c0 	.word	0x000041c0
    5700:	00000886 	.word	0x00000886
    5704:	00003fe1 	.word	0x00003fe1
    5708:	d1032d02 	.word	0xd1032d02
    570c:	d04f2f02 	.word	0xd04f2f02
    5710:	d04d2f03 	.word	0xd04d2f03
    5714:	46682118 	.word	0x46682118
    5718:	8a217001 	.word	0x8a217001
    571c:	8a218041 	.word	0x8a218041
    5720:	71858081 	.word	0x71858081
    5724:	680048fe 	.word	0x680048fe
    5728:	28007a00 	.word	0x28007a00
    572c:	2801d001 	.word	0x2801d001
    5730:	4669d17e 	.word	0x4669d17e
    5734:	466871c8 	.word	0x466871c8
    5738:	78217206 	.word	0x78217206
    573c:	29013009 	.word	0x29013009
    5740:	2106d023 	.word	0x2106d023
    5744:	fabaf00f 	.word	0xfabaf00f
    5748:	46682107 	.word	0x46682107
    574c:	740773c1 	.word	0x740773c1
    5750:	f008a909 	.word	0xf008a909
    5754:	2800f8e5 	.word	0x2800f8e5
    5758:	200ad1bb 	.word	0x200ad1bb
    575c:	70084669 	.word	0x70084669
    5760:	4668a909 	.word	0x4668a909
    5764:	f8dcf008 	.word	0xf8dcf008
    5768:	d1b22800 	.word	0xd1b22800
    576c:	4669203a 	.word	0x4669203a
    5770:	a9097008 	.word	0xa9097008
    5774:	f0084668 	.word	0xf0084668
    5778:	2800f8d3 	.word	0x2800f8d3
    577c:	2d00d1a9 	.word	0x2d00d1a9
    5780:	2d02d009 	.word	0x2d02d009
    5784:	e04cd007 	.word	0xe04cd007
    5788:	6861e012 	.word	0x6861e012
    578c:	1c492206 	.word	0x1c492206
    5790:	fa37f00f 	.word	0xfa37f00f
    5794:	2f00e7d8 	.word	0x2f00e7d8
    5798:	2600d043 	.word	0x2600d043
    579c:	e0234637 	.word	0xe0234637
    57a0:	00b06801 	.word	0x00b06801
    57a4:	78095809 	.word	0x78095809
    57a8:	d0032900 	.word	0xd0032900
    57ac:	d0042901 	.word	0xd0042901
    57b0:	e4f62007 	.word	0xe4f62007
    57b4:	708f4669 	.word	0x708f4669
    57b8:	2101e002 	.word	0x2101e002
    57bc:	7091466a 	.word	0x7091466a
    57c0:	220668e1 	.word	0x220668e1
    57c4:	58096809 	.word	0x58096809
    57c8:	1c49a800 	.word	0x1c49a800
    57cc:	f00f3003 	.word	0xf00f3003
    57d0:	200bfa18 	.word	0x200bfa18
    57d4:	70084669 	.word	0x70084669
    57d8:	4668a909 	.word	0x4668a909
    57dc:	f8a0f008 	.word	0xf8a0f008
    57e0:	d1e62800 	.word	0xd1e62800
    57e4:	b2f61c76 	.word	0xb2f61c76
    57e8:	790168e0 	.word	0x790168e0
    57ec:	d8d742b1 	.word	0xd8d742b1
    57f0:	466f2600 	.word	0x466f2600
    57f4:	6880e011 	.word	0x6880e011
    57f8:	584100b1 	.word	0x584100b1
    57fc:	1cb82210 	.word	0x1cb82210
    5800:	f9fff00f 	.word	0xf9fff00f
    5804:	4669203b 	.word	0x4669203b
    5808:	a9097008 	.word	0xa9097008
    580c:	f0084668 	.word	0xf0084668
    5810:	2800f887 	.word	0x2800f887
    5814:	1c76d1cd 	.word	0x1c76d1cd
    5818:	68e0b2f6 	.word	0x68e0b2f6
    581c:	42b17b01 	.word	0x42b17b01
    5820:	201bd8e9 	.word	0x201bd8e9
    5824:	70084669 	.word	0x70084669
    5828:	70882001 	.word	0x70882001
    582c:	e000a909 	.word	0xe000a909
    5830:	4668e036 	.word	0x4668e036
    5834:	f874f008 	.word	0xf874f008
    5838:	d1ba2800 	.word	0xd1ba2800
    583c:	7940a808 	.word	0x7940a808
    5840:	d12d281b 	.word	0xd12d281b
    5844:	f00f002b 	.word	0xf00f002b
    5848:	0405fc69 	.word	0x0405fc69
    584c:	04060604 	.word	0x04060604
    5850:	2003001e 	.word	0x2003001e
    5854:	48b2e015 	.word	0x48b2e015
    5858:	30c06800 	.word	0x30c06800
    585c:	00037980 	.word	0x00037980
    5860:	fc5cf00f 	.word	0xfc5cf00f
    5864:	1e061e09 	.word	0x1e061e09
    5868:	081e0a1e 	.word	0x081e0a1e
    586c:	001e0e0c 	.word	0x001e0e0c
    5870:	e0062002 	.word	0xe0062002
    5874:	e0042009 	.word	0xe0042009
    5878:	e0022005 	.word	0xe0022005
    587c:	e000200a 	.word	0xe000200a
    5880:	f7fe200b 	.word	0xf7fe200b
    5884:	2d01fae9 	.word	0x2d01fae9
    5888:	8a60d00c 	.word	0x8a60d00c
    588c:	d0092800 	.word	0xd0092800
    5890:	00832200 	.word	0x00832200
    5894:	46104611 	.word	0x46104611
    5898:	f95ff00c 	.word	0xf95ff00c
    589c:	d0012800 	.word	0xd0012800
    58a0:	e47e2003 	.word	0xe47e2003
    58a4:	e47c2000 	.word	0xe47c2000
    58a8:	b086b570 	.word	0xb086b570
    58ac:	4606000c 	.word	0x4606000c
    58b0:	489cd009 	.word	0x489cd009
    58b4:	d3484284 	.word	0xd3484284
    58b8:	04802001 	.word	0x04802001
    58bc:	d3024284 	.word	0xd3024284
    58c0:	42844899 	.word	0x42844899
    58c4:	4d96d341 	.word	0x4d96d341
    58c8:	30c06828 	.word	0x30c06828
    58cc:	290279c1 	.word	0x290279c1
    58d0:	7a40d002 	.word	0x7a40d002
    58d4:	d5020740 	.word	0xd5020740
    58d8:	b0062011 	.word	0xb0062011
    58dc:	2c00bd70 	.word	0x2c00bd70
    58e0:	4620d004 	.word	0x4620d004
    58e4:	fb79f7fe 	.word	0xfb79f7fe
    58e8:	d1f62800 	.word	0xd1f62800
    58ec:	f7fe4630 	.word	0xf7fe4630
    58f0:	2801fb3f 	.word	0x2801fb3f
    58f4:	2802d003 	.word	0x2802d003
    58f8:	488cd023 	.word	0x488cd023
    58fc:	0021e7ed 	.word	0x0021e7ed
    5900:	2008d11b 	.word	0x2008d11b
    5904:	82884669 	.word	0x82884669
    5908:	ab016828 	.word	0xab016828
    590c:	aa0588c0 	.word	0xaa0588c0
    5910:	f0032100 	.word	0xf0032100
    5914:	2800f8f7 	.word	0x2800f8f7
    5918:	4668d1df 	.word	0x4668d1df
    591c:	28088a80 	.word	0x28088a80
    5920:	2003d001 	.word	0x2003d001
    5924:	4668e7d9 	.word	0x4668e7d9
    5928:	81818881 	.word	0x81818881
    592c:	81c188c1 	.word	0x81c188c1
    5930:	82018901 	.word	0x82018901
    5934:	82418941 	.word	0x82418941
    5938:	4630a903 	.word	0x4630a903
    593c:	fc68f001 	.word	0xfc68f001
    5940:	2c00e7cb 	.word	0x2c00e7cb
    5944:	2006d001 	.word	0x2006d001
    5948:	2010e7c7 	.word	0x2010e7c7
    594c:	b570e7c5 	.word	0xb570e7c5
    5950:	4605460c 	.word	0x4605460c
    5954:	fb0cf7fe 	.word	0xfb0cf7fe
    5958:	d0032801 	.word	0xd0032801
    595c:	d0012802 	.word	0xd0012802
    5960:	bd704872 	.word	0xbd704872
    5964:	46284621 	.word	0x46284621
    5968:	fbfaf7fe 	.word	0xfbfaf7fe
    596c:	b500bd70 	.word	0xb500bd70
    5970:	30144601 	.word	0x30144601
    5974:	2819b095 	.word	0x2819b095
    5978:	0788d201 	.word	0x0788d201
    597c:	4608d007 	.word	0x4608d007
    5980:	d004301e 	.word	0xd004301e
    5984:	d002300a 	.word	0xd002300a
    5988:	b0152007 	.word	0xb0152007
    598c:	f7ffbd00 	.word	0xf7ffbd00
    5990:	2800fcbe 	.word	0x2800fcbe
    5994:	2011d001 	.word	0x2011d001
    5998:	4861e7f7 	.word	0x4861e7f7
    599c:	68002231 	.word	0x68002231
    59a0:	46687041 	.word	0x46687041
    59a4:	70817002 	.word	0x70817002
    59a8:	f007a909 	.word	0xf007a909
    59ac:	e7ecffb9 	.word	0xe7ecffb9
    59b0:	b082b501 	.word	0xb082b501
    59b4:	46692002 	.word	0x46692002
    59b8:	48598008 	.word	0x48598008
    59bc:	6800ab02 	.word	0x6800ab02
    59c0:	8880466a 	.word	0x8880466a
    59c4:	f0022100 	.word	0xf0022100
    59c8:	4669ff0d 	.word	0x4669ff0d
    59cc:	29028809 	.word	0x29028809
    59d0:	2003d000 	.word	0x2003d000
    59d4:	b538bd0e 	.word	0xb538bd0e
    59d8:	466a2102 	.word	0x466a2102
    59dc:	49528011 	.word	0x49528011
    59e0:	d2014288 	.word	0xd2014288
    59e4:	bd382010 	.word	0xbd382010
    59e8:	4603494d 	.word	0x4603494d
    59ec:	888c6809 	.word	0x888c6809
    59f0:	46202100 	.word	0x46202100
    59f4:	f886f003 	.word	0xf886f003
    59f8:	88094669 	.word	0x88094669
    59fc:	d0f22902 	.word	0xd0f22902
    5a00:	bd382003 	.word	0xbd382003
    5a04:	4604b53e 	.word	0x4604b53e
    5a08:	46692008 	.word	0x46692008
    5a0c:	48458008 	.word	0x48458008
    5a10:	d3064284 	.word	0xd3064284
    5a14:	04802001 	.word	0x04802001
    5a18:	d3044284 	.word	0xd3044284
    5a1c:	42844842 	.word	0x42844842
    5a20:	2010d201 	.word	0x2010d201
    5a24:	4620bd3e 	.word	0x4620bd3e
    5a28:	fad7f7fe 	.word	0xfad7f7fe
    5a2c:	d1f92800 	.word	0xd1f92800
    5a30:	46698820 	.word	0x46698820
    5a34:	88608088 	.word	0x88608088
    5a38:	88a080c8 	.word	0x88a080c8
    5a3c:	88e08108 	.word	0x88e08108
    5a40:	48378148 	.word	0x48378148
    5a44:	6800ab01 	.word	0x6800ab01
    5a48:	88c0466a 	.word	0x88c0466a
    5a4c:	f0022100 	.word	0xf0022100
    5a50:	4669fec9 	.word	0x4669fec9
    5a54:	29088809 	.word	0x29088809
    5a58:	2003d0e4 	.word	0x2003d0e4
    5a5c:	b51fbd3e 	.word	0xb51fbd3e
    5a60:	20084604 	.word	0x20084604
    5a64:	81884669 	.word	0x81884669
    5a68:	4284482e 	.word	0x4284482e
    5a6c:	2001d306 	.word	0x2001d306
    5a70:	42840480 	.word	0x42840480
    5a74:	482cd305 	.word	0x482cd305
    5a78:	d2024284 	.word	0xd2024284
    5a7c:	b0042010 	.word	0xb0042010
    5a80:	4827bd10 	.word	0x4827bd10
    5a84:	6800460b 	.word	0x6800460b
    5a88:	88c0aa03 	.word	0x88c0aa03
    5a8c:	f0032100 	.word	0xf0032100
    5a90:	2800f839 	.word	0x2800f839
    5a94:	4669d1f3 	.word	0x4669d1f3
    5a98:	29088989 	.word	0x29088989
    5a9c:	2003d001 	.word	0x2003d001
    5aa0:	4669e7ed 	.word	0x4669e7ed
    5aa4:	80218809 	.word	0x80218809
    5aa8:	88494669 	.word	0x88494669
    5aac:	46698061 	.word	0x46698061
    5ab0:	80a18889 	.word	0x80a18889
    5ab4:	88c94669 	.word	0x88c94669
    5ab8:	e7e080e1 	.word	0xe7e080e1
    5abc:	460eb5fe 	.word	0x460eb5fe
    5ac0:	46174918 	.word	0x46174918
    5ac4:	428e4605 	.word	0x428e4605
    5ac8:	2201d306 	.word	0x2201d306
    5acc:	48160492 	.word	0x48160492
    5ad0:	d3034296 	.word	0xd3034296
    5ad4:	d2014286 	.word	0xd2014286
    5ad8:	bdfe2010 	.word	0xbdfe2010
    5adc:	d9012f1f 	.word	0xd9012f1f
    5ae0:	bdfe200c 	.word	0xbdfe200c
    5ae4:	428d4c0e 	.word	0x428d4c0e
    5ae8:	4295d332 	.word	0x4295d332
    5aec:	4285d301 	.word	0x4285d301
    5af0:	6820d32e 	.word	0x6820d32e
    5af4:	8840a901 	.word	0x8840a901
    5af8:	fe26f002 	.word	0xfe26f002
    5afc:	d1f02800 	.word	0xd1f02800
    5b00:	46697828 	.word	0x46697828
    5b04:	68207148 	.word	0x68207148
    5b08:	8840a901 	.word	0x8840a901
    5b0c:	fdfff002 	.word	0xfdfff002
    5b10:	d1e62800 	.word	0xd1e62800
    5b14:	90004669 	.word	0x90004669
    5b18:	21027808 	.word	0x21027808
    5b1c:	e0074308 	.word	0xe0074308
    5b20:	20000054 	.word	0x20000054
    5b24:	00016000 	.word	0x00016000
    5b28:	20002000 	.word	0x20002000
    5b2c:	00003002 	.word	0x00003002
    5b30:	70084669 	.word	0x70084669
    5b34:	07097949 	.word	0x07097949
    5b38:	2108d003 	.word	0x2108d003
    5b3c:	46694308 	.word	0x46694308
    5b40:	68207008 	.word	0x68207008
    5b44:	88404669 	.word	0x88404669
    5b48:	fd8bf002 	.word	0xfd8bf002
    5b4c:	d1c82800 	.word	0xd1c82800
    5b50:	810f4669 	.word	0x810f4669
    5b54:	46336820 	.word	0x46336820
    5b58:	aa028840 	.word	0xaa028840
    5b5c:	f0022100 	.word	0xf0022100
    5b60:	4669fe41 	.word	0x4669fe41
    5b64:	42b98909 	.word	0x42b98909
    5b68:	2003d0bb 	.word	0x2003d0bb
    5b6c:	b538bdfe 	.word	0xb538bdfe
    5b70:	49f7460c 	.word	0x49f7460c
    5b74:	d0012800 	.word	0xd0012800
    5b78:	d3014288 	.word	0xd3014288
    5b7c:	d201428c 	.word	0xd201428c
    5b80:	bd382010 	.word	0xbd382010
    5b84:	466a8821 	.word	0x466a8821
    5b88:	28008011 	.word	0x28008011
    5b8c:	2900d001 	.word	0x2900d001
    5b90:	49f0d00b 	.word	0x49f0d00b
    5b94:	68094603 	.word	0x68094603
    5b98:	2100884d 	.word	0x2100884d
    5b9c:	f0024628 	.word	0xf0024628
    5ba0:	4669ffb1 	.word	0x4669ffb1
    5ba4:	80218809 	.word	0x80218809
    5ba8:	200cbd38 	.word	0x200cbd38
    5bac:	b530bd38 	.word	0xb530bd38
    5bb0:	49e9460c 	.word	0x49e9460c
    5bb4:	428cb087 	.word	0x428cb087
    5bb8:	2101d306 	.word	0x2101d306
    5bbc:	428c0489 	.word	0x428c0489
    5bc0:	49e3d305 	.word	0x49e3d305
    5bc4:	d202428c 	.word	0xd202428c
    5bc8:	b0072010 	.word	0xb0072010
    5bcc:	4de1bd30 	.word	0x4de1bd30
    5bd0:	31c06829 	.word	0x31c06829
    5bd4:	07527a0a 	.word	0x07527a0a
    5bd8:	798ad408 	.word	0x798ad408
    5bdc:	00131f52 	.word	0x00131f52
    5be0:	fa9cf00f 	.word	0xfa9cf00f
    5be4:	04060405 	.word	0x04060405
    5be8:	00040604 	.word	0x00040604
    5bec:	e7ec2008 	.word	0xe7ec2008
    5bf0:	09c97a49 	.word	0x09c97a49
    5bf4:	200dd001 	.word	0x200dd001
    5bf8:	f7fee7e7 	.word	0xf7fee7e7
    5bfc:	2801f9b9 	.word	0x2801f9b9
    5c00:	2802d003 	.word	0x2802d003
    5c04:	48d5d02d 	.word	0x48d5d02d
    5c08:	8820e7df 	.word	0x8820e7df
    5c0c:	d201281e 	.word	0xd201281e
    5c10:	e7da2007 	.word	0xe7da2007
    5c14:	30c06828 	.word	0x30c06828
    5c18:	28067980 	.word	0x28067980
    5c1c:	200ad01f 	.word	0x200ad01f
    5c20:	f91af7fe 	.word	0xf91af7fe
    5c24:	46682105 	.word	0x46682105
    5c28:	79007001 	.word	0x79007001
    5c2c:	78a00881 	.word	0x78a00881
    5c30:	07c00089 	.word	0x07c00089
    5c34:	43010fc0 	.word	0x43010fc0
    5c38:	71014668 	.word	0x71014668
    5c3c:	400120fb 	.word	0x400120fb
    5c40:	078078a0 	.word	0x078078a0
    5c44:	00800fc0 	.word	0x00800fc0
    5c48:	46684301 	.word	0x46684301
    5c4c:	88217101 	.word	0x88217101
    5c50:	f00980c1 	.word	0xf00980c1
    5c54:	2800fe72 	.word	0x2800fe72
    5c58:	2003d0b7 	.word	0x2003d0b7
    5c5c:	2007e7b5 	.word	0x2007e7b5
    5c60:	2006e7de 	.word	0x2006e7de
    5c64:	b5f0e7b1 	.word	0xb5f0e7b1
    5c68:	4614b087 	.word	0x4614b087
    5c6c:	f7fe460d 	.word	0xf7fe460d
    5c70:	2801f97f 	.word	0x2801f97f
    5c74:	2802d004 	.word	0x2802d004
    5c78:	48b8d002 	.word	0x48b8d002
    5c7c:	bdf0b007 	.word	0xbdf0b007
    5c80:	68184bb4 	.word	0x68184bb4
    5c84:	31c04601 	.word	0x31c04601
    5c88:	07d27a0a 	.word	0x07d27a0a
    5c8c:	798ad007 	.word	0x798ad007
    5c90:	d9042a06 	.word	0xd9042a06
    5c94:	d0022a09 	.word	0xd0022a09
    5c98:	d0022d00 	.word	0xd0022d00
    5c9c:	2008e050 	.word	0x2008e050
    5ca0:	4aade7ec 	.word	0x4aade7ec
    5ca4:	d3064294 	.word	0xd3064294
    5ca8:	04922201 	.word	0x04922201
    5cac:	d3044294 	.word	0xd3044294
    5cb0:	42944aa7 	.word	0x42944aa7
    5cb4:	2010d201 	.word	0x2010d201
    5cb8:	78a2e7e0 	.word	0x78a2e7e0
    5cbc:	0f5206d2 	.word	0x0f5206d2
    5cc0:	d80c2a04 	.word	0xd80c2a04
    5cc4:	2b0778e3 	.word	0x2b0778e3
    5cc8:	2b10d309 	.word	0x2b10d309
    5ccc:	7922d807 	.word	0x7922d807
    5cd0:	d304429a 	.word	0xd304429a
    5cd4:	d8022a10 	.word	0xd8022a10
    5cd8:	2a1e8822 	.word	0x2a1e8822
    5cdc:	2007d001 	.word	0x2007d001
    5ce0:	4602e7cc 	.word	0x4602e7cc
    5ce4:	6b963280 	.word	0x6b963280
    5ce8:	72f327f7 	.word	0x72f327f7
    5cec:	79236b96 	.word	0x79236b96
    5cf0:	6b967333 	.word	0x6b967333
    5cf4:	403b7a73 	.word	0x403b7a73
    5cf8:	06bf78a7 	.word	0x06bf78a7
    5cfc:	00ff0fff 	.word	0x00ff0fff
    5d00:	7273433b 	.word	0x7273433b
    5d04:	88236b96 	.word	0x88236b96
    5d08:	6b9681f3 	.word	0x6b9681f3
    5d0c:	7ab378a7 	.word	0x7ab378a7
    5d10:	089b07ff 	.word	0x089b07ff
    5d14:	0fff009b 	.word	0x0fff009b
    5d18:	72b3433b 	.word	0x72b3433b
    5d1c:	403b27fb 	.word	0x403b27fb
    5d20:	6b9678a7 	.word	0x6b9678a7
    5d24:	0fff07bf 	.word	0x0fff07bf
    5d28:	433b00bf 	.word	0x433b00bf
    5d2c:	6b9272b3 	.word	0x6b9272b3
    5d30:	7a5378a4 	.word	0x7a5378a4
    5d34:	08db06e4 	.word	0x08db06e4
    5d38:	0f6400db 	.word	0x0f6400db
    5d3c:	72534323 	.word	0x72534323
    5d40:	466b220b 	.word	0x466b220b
    5d44:	2d85701a 	.word	0x2d85701a
    5d48:	dc08d022 	.word	0xdc08d022
    5d4c:	d0172d00 	.word	0xd0172d00
    5d50:	d0172d81 	.word	0xd0172d81
    5d54:	d0172d82 	.word	0xd0172d82
    5d58:	d1082d83 	.word	0xd1082d83
    5d5c:	2d86e016 	.word	0x2d86e016
    5d60:	2d88d018 	.word	0x2d88d018
    5d64:	2d89d018 	.word	0x2d89d018
    5d68:	2d8ad018 	.word	0x2d8ad018
    5d6c:	220bd018 	.word	0x220bd018
    5d70:	22b6711a 	.word	0x22b6711a
    5d74:	4c775c12 	.word	0x4c775c12
    5d78:	d0132a00 	.word	0xd0132a00
    5d7c:	e01230a8 	.word	0xe01230a8
    5d80:	e7f52200 	.word	0xe7f52200
    5d84:	e7f32201 	.word	0xe7f32201
    5d88:	e7f12202 	.word	0xe7f12202
    5d8c:	e7ef2203 	.word	0xe7ef2203
    5d90:	e7ed2205 	.word	0xe7ed2205
    5d94:	e7eb2206 	.word	0xe7eb2206
    5d98:	e7e92208 	.word	0xe7e92208
    5d9c:	e7e72209 	.word	0xe7e72209
    5da0:	e7e5220a 	.word	0xe7e5220a
    5da4:	90022000 	.word	0x90022000
    5da8:	28077988 	.word	0x28077988
    5dac:	2808d006 	.word	0x2808d006
    5db0:	280ad004 	.word	0x280ad004
    5db4:	280bd004 	.word	0x280bd004
    5db8:	e004d002 	.word	0xe004d002
    5dbc:	e0002006 	.word	0xe0002006
    5dc0:	f7fe2009 	.word	0xf7fe2009
    5dc4:	4668f849 	.word	0x4668f849
    5dc8:	fdb7f009 	.word	0xfdb7f009
    5dcc:	d0012800 	.word	0xd0012800
    5dd0:	e7532003 	.word	0xe7532003
    5dd4:	22046820 	.word	0x22046820
    5dd8:	7a0130c0 	.word	0x7a0130c0
    5ddc:	00490849 	.word	0x00490849
    5de0:	72014311 	.word	0x72014311
    5de4:	e7492000 	.word	0xe7492000
    5de8:	4e5ab570 	.word	0x4e5ab570
    5dec:	6831460d 	.word	0x6831460d
    5df0:	31c0b086 	.word	0x31c0b086
    5df4:	46147a09 	.word	0x46147a09
    5df8:	d4010709 	.word	0xd4010709
    5dfc:	e56c2008 	.word	0xe56c2008
    5e00:	f8b6f7fe 	.word	0xf8b6f7fe
    5e04:	d0032801 	.word	0xd0032801
    5e08:	d0012802 	.word	0xd0012802
    5e0c:	e5644853 	.word	0xe5644853
    5e10:	d0102d00 	.word	0xd0102d00
    5e14:	42844850 	.word	0x42844850
    5e18:	2001d306 	.word	0x2001d306
    5e1c:	42840480 	.word	0x42840480
    5e20:	484bd304 	.word	0x484bd304
    5e24:	d2014284 	.word	0xd2014284
    5e28:	e5562010 	.word	0xe5562010
    5e2c:	d00b2d01 	.word	0xd00b2d01
    5e30:	d1022d02 	.word	0xd1022d02
    5e34:	2c00e006 	.word	0x2c00e006
    5e38:	2007d001 	.word	0x2007d001
    5e3c:	2000e54d 	.word	0x2000e54d
    5e40:	e0059002 	.word	0xe0059002
    5e44:	e0002002 	.word	0xe0002002
    5e48:	46692001 	.word	0x46692001
    5e4c:	94027108 	.word	0x94027108
    5e50:	46692003 	.word	0x46692003
    5e54:	46687008 	.word	0x46687008
    5e58:	fd6ff009 	.word	0xfd6ff009
    5e5c:	d0012800 	.word	0xd0012800
    5e60:	e53a2003 	.word	0xe53a2003
    5e64:	22f76830 	.word	0x22f76830
    5e68:	7a0130c0 	.word	0x7a0130c0
    5e6c:	72014011 	.word	0x72014011
    5e70:	e5322000 	.word	0xe5322000
    5e74:	b094b570 	.word	0xb094b570
    5e78:	460e4614 	.word	0x460e4614
    5e7c:	f878f7fe 	.word	0xf878f7fe
    5e80:	d0042801 	.word	0xd0042801
    5e84:	d0022802 	.word	0xd0022802
    5e88:	b0144834 	.word	0xb0144834
    5e8c:	4d31bd70 	.word	0x4d31bd70
    5e90:	30c06828 	.word	0x30c06828
    5e94:	07807a00 	.word	0x07807a00
    5e98:	2008d401 	.word	0x2008d401
    5e9c:	2c00e7f5 	.word	0x2c00e7f5
    5ea0:	2007d001 	.word	0x2007d001
    5ea4:	f7ffe7f1 	.word	0xf7ffe7f1
    5ea8:	2800fa32 	.word	0x2800fa32
    5eac:	2011d001 	.word	0x2011d001
    5eb0:	2e00e7eb 	.word	0x2e00e7eb
    5eb4:	212dd01d 	.word	0x212dd01d
    5eb8:	70014668 	.word	0x70014668
    5ebc:	20bc682c 	.word	0x20bc682c
    5ec0:	46685b01 	.word	0x46685b01
    5ec4:	22108041 	.word	0x22108041
    5ec8:	a8011cb1 	.word	0xa8011cb1
    5ecc:	fe99f00e 	.word	0xfe99f00e
    5ed0:	21fb7e20 	.word	0x21fb7e20
    5ed4:	7cb14008 	.word	0x7cb14008
    5ed8:	0f4907c9 	.word	0x0f4907c9
    5edc:	76204308 	.word	0x76204308
    5ee0:	21ff7cb0 	.word	0x21ff7cb0
    5ee4:	75a00840 	.word	0x75a00840
    5ee8:	31828a60 	.word	0x31828a60
    5eec:	82604308 	.word	0x82604308
    5ef0:	212ee007 	.word	0x212ee007
    5ef4:	70014668 	.word	0x70014668
    5ef8:	30a06828 	.word	0x30a06828
    5efc:	46688b81 	.word	0x46688b81
    5f00:	a9098041 	.word	0xa9098041
    5f04:	f0074668 	.word	0xf0074668
    5f08:	6829fd0b 	.word	0x6829fd0b
    5f0c:	31c023fd 	.word	0x31c023fd
    5f10:	401a7a0a 	.word	0x401a7a0a
    5f14:	e7b8720a 	.word	0xe7b8720a
    5f18:	460cb510 	.word	0x460cb510
    5f1c:	f828f7fe 	.word	0xf828f7fe
    5f20:	d0032801 	.word	0xd0032801
    5f24:	d0012802 	.word	0xd0012802
    5f28:	bd10480c 	.word	0xbd10480c
    5f2c:	4284480a 	.word	0x4284480a
    5f30:	2001d306 	.word	0x2001d306
    5f34:	42840480 	.word	0x42840480
    5f38:	4805d304 	.word	0x4805d304
    5f3c:	d2014284 	.word	0xd2014284
    5f40:	bd102010 	.word	0xbd102010
    5f44:	f7fe4620 	.word	0xf7fe4620
    5f48:	2000f822 	.word	0x2000f822
    5f4c:	0000bd10 	.word	0x0000bd10
    5f50:	20002000 	.word	0x20002000
    5f54:	20000054 	.word	0x20000054
    5f58:	00016000 	.word	0x00016000
    5f5c:	00003002 	.word	0x00003002
    5f60:	b094b510 	.word	0xb094b510
    5f64:	f7fe4604 	.word	0xf7fe4604
    5f68:	2801f803 	.word	0x2801f803
    5f6c:	2802d004 	.word	0x2802d004
    5f70:	4864d002 	.word	0x4864d002
    5f74:	e7e9b014 	.word	0xe7e9b014
    5f78:	68004863 	.word	0x68004863
    5f7c:	798130c0 	.word	0x798130c0
    5f80:	d0102904 	.word	0xd0102904
    5f84:	d00e2905 	.word	0xd00e2905
    5f88:	46692038 	.word	0x46692038
    5f8c:	804c7008 	.word	0x804c7008
    5f90:	71082001 	.word	0x71082001
    5f94:	a9097148 	.word	0xa9097148
    5f98:	f0074668 	.word	0xf0074668
    5f9c:	2800fcc1 	.word	0x2800fcc1
    5fa0:	200bd0e8 	.word	0x200bd0e8
    5fa4:	2000e7e6 	.word	0x2000e7e6
    5fa8:	b510e7e4 	.word	0xb510e7e4
    5fac:	4604b094 	.word	0x4604b094
    5fb0:	ffdef7fd 	.word	0xffdef7fd
    5fb4:	d0032801 	.word	0xd0032801
    5fb8:	d0012802 	.word	0xd0012802
    5fbc:	e7d94851 	.word	0xe7d94851
    5fc0:	68004851 	.word	0x68004851
    5fc4:	798130c0 	.word	0x798130c0
    5fc8:	d00d2904 	.word	0xd00d2904
    5fcc:	d00b2905 	.word	0xd00b2905
    5fd0:	46692038 	.word	0x46692038
    5fd4:	804c7008 	.word	0x804c7008
    5fd8:	71082000 	.word	0x71082000
    5fdc:	a9097148 	.word	0xa9097148
    5fe0:	f0074668 	.word	0xf0074668
    5fe4:	e7c5fc9d 	.word	0xe7c5fc9d
    5fe8:	e7c32000 	.word	0xe7c32000
    5fec:	68004846 	.word	0x68004846
    5ff0:	798030c0 	.word	0x798030c0
    5ff4:	d3012806 	.word	0xd3012806
    5ff8:	47702001 	.word	0x47702001
    5ffc:	47702000 	.word	0x47702000
    6000:	4613b508 	.word	0x4613b508
    6004:	d0062800 	.word	0xd0062800
    6008:	6800a040 	.word	0x6800a040
    600c:	79489000 	.word	0x79489000
    6010:	0980466a 	.word	0x0980466a
    6014:	70185c10 	.word	0x70185c10
    6018:	1c582206 	.word	0x1c582206
    601c:	fdf1f00e 	.word	0xfdf1f00e
    6020:	b500bd08 	.word	0xb500bd08
    6024:	2001b087 	.word	0x2001b087
    6028:	70084669 	.word	0x70084669
    602c:	f0094668 	.word	0xf0094668
    6030:	b007fc84 	.word	0xb007fc84
    6034:	b510bd00 	.word	0xb510bd00
    6038:	f7fd4604 	.word	0xf7fd4604
    603c:	21a2f985 	.word	0x21a2f985
    6040:	cc0e7001 	.word	0xcc0e7001
    6044:	c00e3008 	.word	0xc00e3008
    6048:	f99af7fd 	.word	0xf99af7fd
    604c:	b570e77e 	.word	0xb570e77e
    6050:	46054c2d 	.word	0x46054c2d
    6054:	68206801 	.word	0x68206801
    6058:	d0112900 	.word	0xd0112900
    605c:	42914a2c 	.word	0x42914a2c
    6060:	2201d306 	.word	0x2201d306
    6064:	42910492 	.word	0x42910492
    6068:	4a2ad304 	.word	0x4a2ad304
    606c:	d2014291 	.word	0xd2014291
    6070:	bd702010 	.word	0xbd702010
    6074:	30772210 	.word	0x30772210
    6078:	fdc3f00e 	.word	0xfdc3f00e
    607c:	21016820 	.word	0x21016820
    6080:	6b803080 	.word	0x6b803080
    6084:	68207201 	.word	0x68207201
    6088:	820188a9 	.word	0x820188a9
    608c:	29017bc1 	.word	0x29017bc1
    6090:	7b80d10c 	.word	0x7b80d10c
    6094:	28010980 	.word	0x28010980
    6098:	2001d00a 	.word	0x2001d00a
    609c:	f8cef7fe 	.word	0xf8cef7fe
    60a0:	d0032800 	.word	0xd0032800
    60a4:	481d491c 	.word	0x481d491c
    60a8:	ff47f00e 	.word	0xff47f00e
    60ac:	bd702000 	.word	0xbd702000
    60b0:	f7fe2001 	.word	0xf7fe2001
    60b4:	e7f3f891 	.word	0xe7f3f891
    60b8:	4605b570 	.word	0x4605b570
    60bc:	4c126800 	.word	0x4c126800
    60c0:	d01a2800 	.word	0xd01a2800
    60c4:	42884913 	.word	0x42884913
    60c8:	2010d201 	.word	0x2010d201
    60cc:	6820bd70 	.word	0x6820bd70
    60d0:	580921b8 	.word	0x580921b8
    60d4:	29017a09 	.word	0x29017a09
    60d8:	4601d009 	.word	0x4601d009
    60dc:	30293177 	.word	0x30293177
    60e0:	ff63f00a 	.word	0xff63f00a
    60e4:	21016820 	.word	0x21016820
    60e8:	6b803080 	.word	0x6b803080
    60ec:	68217201 	.word	0x68217201
    60f0:	68282210 	.word	0x68282210
    60f4:	f00e3177 	.word	0xf00e3177
    60f8:	6820fd84 	.word	0x6820fd84
    60fc:	80a88a00 	.word	0x80a88a00
    6100:	bd702000 	.word	0xbd702000
    6104:	00003002 	.word	0x00003002
    6108:	20000054 	.word	0x20000054
    610c:	01ff0203 	.word	0x01ff0203
    6110:	00016000 	.word	0x00016000
    6114:	20002000 	.word	0x20002000
    6118:	000041c0 	.word	0x000041c0
    611c:	00000303 	.word	0x00000303
    6120:	b081b5ff 	.word	0xb081b5ff
    6124:	460e9801 	.word	0x460e9801
    6128:	461778c0 	.word	0x461778c0
    612c:	370e3610 	.word	0x370e3610
    6130:	d0092802 	.word	0xd0092802
    6134:	d0402803 	.word	0xd0402803
    6138:	d07d2805 	.word	0xd07d2805
    613c:	48f7a1f2 	.word	0x48f7a1f2
    6140:	fefbf00e 	.word	0xfefbf00e
    6144:	bdf0b005 	.word	0xbdf0b005
    6148:	200a89cc 	.word	0x200a89cc
    614c:	300e4360 	.word	0x300e4360
    6150:	23318018 	.word	0x23318018
    6154:	2a00980a 	.word	0x2a00980a
    6158:	d0f38003 	.word	0xd0f38003
    615c:	88006848 	.word	0x88006848
    6160:	20008090 	.word	0x20008090
    6164:	811080d0 	.word	0x811080d0
    6168:	81947b09 	.word	0x81947b09
    616c:	b2cd1f89 	.word	0xb2cd1f89
    6170:	8830e01a 	.word	0x8830e01a
    6174:	80386871 	.word	0x80386871
    6178:	780a7848 	.word	0x780a7848
    617c:	43100200 	.word	0x43100200
    6180:	78c880f8 	.word	0x78c880f8
    6184:	0200788a 	.word	0x0200788a
    6188:	81384310 	.word	0x81384310
    618c:	1d091cba 	.word	0x1d091cba
    6190:	f00b4628 	.word	0xf00b4628
    6194:	2d00f858 	.word	0x2d00f858
    6198:	2800d001 	.word	0x2800d001
    619c:	2000d002 	.word	0x2000d002
    61a0:	80787138 	.word	0x80787138
    61a4:	370a3608 	.word	0x370a3608
    61a8:	1e644620 	.word	0x1e644620
    61ac:	2800b2a4 	.word	0x2800b2a4
    61b0:	9901d1df 	.word	0x9901d1df
    61b4:	70c82000 	.word	0x70c82000
    61b8:	89cce7c4 	.word	0x89cce7c4
    61bc:	4360200a 	.word	0x4360200a
    61c0:	8018300e 	.word	0x8018300e
    61c4:	980a2332 	.word	0x980a2332
    61c8:	80032a00 	.word	0x80032a00
    61cc:	6848d0ba 	.word	0x6848d0ba
    61d0:	88002500 	.word	0x88002500
    61d4:	80d58090 	.word	0x80d58090
    61d8:	7b088115 	.word	0x7b088115
    61dc:	b2c01f40 	.word	0xb2c01f40
    61e0:	81949000 	.word	0x81949000
    61e4:	6871e042 	.word	0x6871e042
    61e8:	78088832 	.word	0x78088832
    61ec:	793a80fa 	.word	0x793a80fa
    61f0:	085207c3 	.word	0x085207c3
    61f4:	0fdb0052 	.word	0x0fdb0052
    61f8:	23fd431a 	.word	0x23fd431a
    61fc:	0783401a 	.word	0x0783401a
    6200:	005b0fdb 	.word	0x005b0fdb
    6204:	23fb431a 	.word	0x23fb431a
    6208:	0743401a 	.word	0x0743401a
    620c:	009b0fdb 	.word	0x009b0fdb
    6210:	23f7431a 	.word	0x23f7431a
    6214:	0703401a 	.word	0x0703401a
    6218:	00db0fdb 	.word	0x00db0fdb
    621c:	23ef431a 	.word	0x23ef431a
    6220:	06c3401a 	.word	0x06c3401a
    6224:	011b0fdb 	.word	0x011b0fdb
    6228:	23df431a 	.word	0x23df431a
    622c:	0683401a 	.word	0x0683401a
    6230:	015b0fdb 	.word	0x015b0fdb
    6234:	e000431a 	.word	0xe000431a
    6238:	23bfe020 	.word	0x23bfe020
    623c:	0643401a 	.word	0x0643401a
    6240:	019b0fdb 	.word	0x019b0fdb
    6244:	713a431a 	.word	0x713a431a
    6248:	717809c0 	.word	0x717809c0
    624c:	784b788a 	.word	0x784b788a
    6250:	43180210 	.word	0x43180210
    6254:	463a8138 	.word	0x463a8138
    6258:	98001cc9 	.word	0x98001cc9
    625c:	fff3f00a 	.word	0xfff3f00a
    6260:	d0012800 	.word	0xd0012800
    6264:	803d70bd 	.word	0x803d70bd
    6268:	370a3608 	.word	0x370a3608
    626c:	1e644620 	.word	0x1e644620
    6270:	2800b2a4 	.word	0x2800b2a4
    6274:	9801d1b7 	.word	0x9801d1b7
    6278:	e76370c5 	.word	0xe76370c5
    627c:	89cc7b08 	.word	0x89cc7b08
    6280:	b2851e80 	.word	0xb2851e80
    6284:	30084628 	.word	0x30084628
    6288:	30104360 	.word	0x30104360
    628c:	23348018 	.word	0x23348018
    6290:	2a00980a 	.word	0x2a00980a
    6294:	d08f8003 	.word	0xd08f8003
    6298:	46176848 	.word	0x46176848
    629c:	80908800 	.word	0x80908800
    62a0:	80d02000 	.word	0x80d02000
    62a4:	81948110 	.word	0x81948110
    62a8:	00e03710 	.word	0x00e03710
    62ac:	19c081d5 	.word	0x19c081d5
    62b0:	8830e00c 	.word	0x8830e00c
    62b4:	98008038 	.word	0x98008038
    62b8:	462a6078 	.word	0x462a6078
    62bc:	98006871 	.word	0x98006871
    62c0:	fc9ff00e 	.word	0xfc9ff00e
    62c4:	36089800 	.word	0x36089800
    62c8:	19403708 	.word	0x19403708
    62cc:	46209000 	.word	0x46209000
    62d0:	b2a41e64 	.word	0xb2a41e64
    62d4:	d1ec2800 	.word	0xd1ec2800
    62d8:	b5ffe76b 	.word	0xb5ffe76b
    62dc:	78c04605 	.word	0x78c04605
    62e0:	460cb081 	.word	0x460cb081
    62e4:	00039e0a 	.word	0x00039e0a
    62e8:	ff18f00e 	.word	0xff18f00e
    62ec:	1707a30b 	.word	0x1707a30b
    62f0:	6d4f4133 	.word	0x6d4f4133
    62f4:	9d9d9d8f 	.word	0x9d9d9d8f
    62f8:	7b2000a3 	.word	0x7b2000a3
    62fc:	28084617 	.word	0x28084617
    6300:	2803d006 	.word	0x2803d006
    6304:	4885d004 	.word	0x4885d004
    6308:	3054a17f 	.word	0x3054a17f
    630c:	fe15f00e 	.word	0xfe15f00e
    6310:	200e9904 	.word	0x200e9904
    6314:	20308008 	.word	0x20308008
    6318:	7b20e00c 	.word	0x7b20e00c
    631c:	28044617 	.word	0x28044617
    6320:	487ed004 	.word	0x487ed004
    6324:	3071a178 	.word	0x3071a178
    6328:	fe07f00e 	.word	0xfe07f00e
    632c:	200e9904 	.word	0x200e9904
    6330:	20318008 	.word	0x20318008
    6334:	2f008030 	.word	0x2f008030
    6338:	6860d044 	.word	0x6860d044
    633c:	80b88800 	.word	0x80b88800
    6340:	30ff7a60 	.word	0x30ff7a60
    6344:	80f83001 	.word	0x80f83001
    6348:	813889e0 	.word	0x813889e0
    634c:	81b82000 	.word	0x81b82000
    6350:	7b20e037 	.word	0x7b20e037
    6354:	28044617 	.word	0x28044617
    6358:	4870d004 	.word	0x4870d004
    635c:	308da16a 	.word	0x308da16a
    6360:	fdebf00e 	.word	0xfdebf00e
    6364:	200e9904 	.word	0x200e9904
    6368:	20328008 	.word	0x20328008
    636c:	7b20e7e2 	.word	0x7b20e7e2
    6370:	28024617 	.word	0x28024617
    6374:	4869d004 	.word	0x4869d004
    6378:	30a9a163 	.word	0x30a9a163
    637c:	fdddf00e 	.word	0xfdddf00e
    6380:	200e9904 	.word	0x200e9904
    6384:	20338008 	.word	0x20338008
    6388:	7b20e7d4 	.word	0x7b20e7d4
    638c:	28044617 	.word	0x28044617
    6390:	4862d004 	.word	0x4862d004
    6394:	30c4a15c 	.word	0x30c4a15c
    6398:	fdcff00e 	.word	0xfdcff00e
    639c:	21109804 	.word	0x21109804
    63a0:	20348001 	.word	0x20348001
    63a4:	2f008030 	.word	0x2f008030
    63a8:	6860d00c 	.word	0x6860d00c
    63ac:	80b88800 	.word	0x80b88800
    63b0:	30ff7a60 	.word	0x30ff7a60
    63b4:	80f83001 	.word	0x80f83001
    63b8:	813889e0 	.word	0x813889e0
    63bc:	81b82000 	.word	0x81b82000
    63c0:	70e881f8 	.word	0x70e881f8
    63c4:	7b20e6be 	.word	0x7b20e6be
    63c8:	28054617 	.word	0x28054617
    63cc:	2806d006 	.word	0x2806d006
    63d0:	4852d004 	.word	0x4852d004
    63d4:	30e1a14c 	.word	0x30e1a14c
    63d8:	fdaff00e 	.word	0xfdaff00e
    63dc:	21129804 	.word	0x21129804
    63e0:	20358001 	.word	0x20358001
    63e4:	2f008030 	.word	0x2f008030
    63e8:	6860d0ec 	.word	0x6860d0ec
    63ec:	80b88800 	.word	0x80b88800
    63f0:	30ff7a60 	.word	0x30ff7a60
    63f4:	80f83001 	.word	0x80f83001
    63f8:	813889e0 	.word	0x813889e0
    63fc:	81b889e0 	.word	0x81b889e0
    6400:	82382000 	.word	0x82382000
    6404:	81f988a9 	.word	0x81f988a9
    6408:	7b20e7db 	.word	0x7b20e7db
    640c:	28074617 	.word	0x28074617
    6410:	4842d004 	.word	0x4842d004
    6414:	30f8a13c 	.word	0x30f8a13c
    6418:	fd8ff00e 	.word	0xfd8ff00e
    641c:	200e9904 	.word	0x200e9904
    6420:	20368008 	.word	0x20368008
    6424:	9600e786 	.word	0x9600e786
    6428:	9b044628 	.word	0x9b044628
    642c:	fd2df000 	.word	0xfd2df000
    6430:	a135e688 	.word	0xa135e688
    6434:	f00e483a 	.word	0xf00e483a
    6438:	e683fd80 	.word	0xe683fd80
    643c:	4605b570 	.word	0x4605b570
    6440:	460c7800 	.word	0x460c7800
    6444:	00032608 	.word	0x00032608
    6448:	fe68f00e 	.word	0xfe68f00e
    644c:	34344c12 	.word	0x34344c12
    6450:	0a381c24 	.word	0x0a381c24
    6454:	0a0a0a0a 	.word	0x0a0a0a0a
    6458:	0a0a0a0a 	.word	0x0a0a0a0a
    645c:	4c0a0a0a 	.word	0x4c0a0a0a
    6460:	28007868 	.word	0x28007868
    6464:	482ed004 	.word	0x482ed004
    6468:	302ca127 	.word	0x302ca127
    646c:	fd65f00e 	.word	0xfd65f00e
    6470:	d1032c00 	.word	0xd1032c00
    6474:	a124201f 	.word	0xa124201f
    6478:	e0080140 	.word	0xe0080140
    647c:	43307860 	.word	0x43307860
    6480:	e0207060 	.word	0xe0207060
    6484:	d1f92c00 	.word	0xd1f92c00
    6488:	a11f207d 	.word	0xa11f207d
    648c:	f00e00c0 	.word	0xf00e00c0
    6490:	e7f3fd54 	.word	0xe7f3fd54
    6494:	d0042900 	.word	0xd0042900
    6498:	a11b203f 	.word	0xa11b203f
    649c:	f00e0100 	.word	0xf00e0100
    64a0:	f7fcfd4c 	.word	0xf7fcfd4c
    64a4:	4604ff51 	.word	0x4604ff51
    64a8:	43307840 	.word	0x43307840
    64ac:	f7fc7060 	.word	0xf7fc7060
    64b0:	e008ff67 	.word	0xe008ff67
    64b4:	a114481a 	.word	0xa114481a
    64b8:	e0023047 	.word	0xe0023047
    64bc:	a1124818 	.word	0xa1124818
    64c0:	f00e304c 	.word	0xf00e304c
    64c4:	2c00fd3a 	.word	0x2c00fd3a
    64c8:	7860d00a 	.word	0x7860d00a
    64cc:	d5070700 	.word	0xd5070700
    64d0:	70202093 	.word	0x70202093
    64d4:	22584620 	.word	0x22584620
    64d8:	30084629 	.word	0x30084629
    64dc:	fe74f7fa 	.word	0xfe74f7fa
    64e0:	bd702000 	.word	0xbd702000
    64e4:	a108480e 	.word	0xa108480e
    64e8:	e7ea3050 	.word	0xe7ea3050
    64ec:	2000b510 	.word	0x2000b510
    64f0:	490d4c0c 	.word	0x490d4c0c
    64f4:	00c24603 	.word	0x00c24603
    64f8:	1852528c 	.word	0x1852528c
    64fc:	06001c40 	.word	0x06001c40
    6500:	0e0070d3 	.word	0x0e0070d3
    6504:	bd10d0f7 	.word	0xbd10d0f7
    6508:	5c637273 	.word	0x5c637273
    650c:	74746167 	.word	0x74746167
    6510:	6f635f63 	.word	0x6f635f63
    6514:	632e6572 	.word	0x632e6572
    6518:	00000000 	.word	0x00000000
    651c:	0000025a 	.word	0x0000025a
    6520:	000003b3 	.word	0x000003b3
    6524:	0000ffff 	.word	0x0000ffff
    6528:	20000058 	.word	0x20000058
    652c:	800849fe 	.word	0x800849fe
    6530:	70882001 	.word	0x70882001
    6534:	47702000 	.word	0x47702000
    6538:	200049fb 	.word	0x200049fb
    653c:	47707088 	.word	0x47707088
    6540:	2100b510 	.word	0x2100b510
    6544:	43c948f8 	.word	0x43c948f8
    6548:	21008001 	.word	0x21008001
    654c:	f00770c1 	.word	0xf00770c1
    6550:	e7d8fa21 	.word	0xe7d8fa21
    6554:	b084b5f7 	.word	0xb084b5f7
    6558:	27004605 	.word	0x27004605
    655c:	81074668 	.word	0x81074668
    6560:	68688087 	.word	0x68688087
    6564:	8800460c 	.word	0x8800460c
    6568:	fbecf000 	.word	0xfbecf000
    656c:	7a284606 	.word	0x7a284606
    6570:	d0052803 	.word	0xd0052803
    6574:	d1032e00 	.word	0xd1032e00
    6578:	48ed49ec 	.word	0x48ed49ec
    657c:	fcddf00e 	.word	0xfcddf00e
    6580:	46207a29 	.word	0x46207a29
    6584:	30121ec9 	.word	0x30121ec9
    6588:	000b9000 	.word	0x000b9000
    658c:	fdc6f00e 	.word	0xfdc6f00e
    6590:	f0f1f20f 	.word	0xf0f1f20f
    6594:	46aa093d 	.word	0x46aa093d
    6598:	b3346d5c 	.word	0xb3346d5c
    659c:	8b8bf3cd 	.word	0x8b8bf3cd
    65a0:	78f000f0 	.word	0x78f000f0
    65a4:	d0032801 	.word	0xd0032801
    65a8:	20ad49e0 	.word	0x20ad49e0
    65ac:	fcc5f00e 	.word	0xfcc5f00e
    65b0:	466989a8 	.word	0x466989a8
    65b4:	300e00c0 	.word	0x300e00c0
    65b8:	20308088 	.word	0x20308088
    65bc:	2c008108 	.word	0x2c008108
    65c0:	6868d022 	.word	0x6868d022
    65c4:	80a18801 	.word	0x80a18801
    65c8:	812780e7 	.word	0x812780e7
    65cc:	81a189a9 	.word	0x81a189a9
    65d0:	e00d2000 	.word	0xe00d2000
    65d4:	79b200c1 	.word	0x79b200c1
    65d8:	740a1909 	.word	0x740a1909
    65dc:	81ca88b2 	.word	0x81ca88b2
    65e0:	19520082 	.word	0x19520082
    65e4:	824b89d3 	.word	0x824b89d3
    65e8:	1c408a12 	.word	0x1c408a12
    65ec:	b280828a 	.word	0xb280828a
    65f0:	428189a1 	.word	0x428189a1
    65f4:	e0d7d8ee 	.word	0xe0d7d8ee
    65f8:	9000a802 	.word	0x9000a802
    65fc:	4622ab01 	.word	0x4622ab01
    6600:	46304629 	.word	0x46304629
    6604:	fbccf000 	.word	0xfbccf000
    6608:	a802e0f1 	.word	0xa802e0f1
    660c:	ab019000 	.word	0xab019000
    6610:	46294622 	.word	0x46294622
    6614:	f0004630 	.word	0xf0004630
    6618:	e0e8fc05 	.word	0xe0e8fc05
    661c:	280678f0 	.word	0x280678f0
    6620:	20ffd01a 	.word	0x20ffd01a
    6624:	302249c1 	.word	0x302249c1
    6628:	6868e014 	.word	0x6868e014
    662c:	80a18801 	.word	0x80a18801
    6630:	812780e7 	.word	0x812780e7
    6634:	81a189a9 	.word	0x81a189a9
    6638:	81e188b1 	.word	0x81e188b1
    663c:	822189e9 	.word	0x822189e9
    6640:	692989ea 	.word	0x692989ea
    6644:	e02b9800 	.word	0xe02b9800
    6648:	280678f0 	.word	0x280678f0
    664c:	20ffd004 	.word	0x20ffd004
    6650:	303c49b6 	.word	0x303c49b6
    6654:	fc71f00e 	.word	0xfc71f00e
    6658:	466989e8 	.word	0x466989e8
    665c:	80883012 	.word	0x80883012
    6660:	81082035 	.word	0x81082035
    6664:	d1e02c00 	.word	0xd1e02c00
    6668:	78f0e0c1 	.word	0x78f0e0c1
    666c:	d0042807 	.word	0xd0042807
    6670:	49ae20ff 	.word	0x49ae20ff
    6674:	f00e3056 	.word	0xf00e3056
    6678:	89a8fc60 	.word	0x89a8fc60
    667c:	300e4669 	.word	0x300e4669
    6680:	20368088 	.word	0x20368088
    6684:	2c008108 	.word	0x2c008108
    6688:	6868d0be 	.word	0x6868d0be
    668c:	80a18801 	.word	0x80a18801
    6690:	812780e7 	.word	0x812780e7
    6694:	81a189a9 	.word	0x81a189a9
    6698:	89aa4620 	.word	0x89aa4620
    669c:	6929300e 	.word	0x6929300e
    66a0:	faaff00e 	.word	0xfaaff00e
    66a4:	89e8e080 	.word	0x89e8e080
    66a8:	30124669 	.word	0x30124669
    66ac:	2238b280 	.word	0x2238b280
    66b0:	810a8088 	.word	0x810a8088
    66b4:	d0792c00 	.word	0xd0792c00
    66b8:	88016868 	.word	0x88016868
    66bc:	80e780a1 	.word	0x80e780a1
    66c0:	89a98127 	.word	0x89a98127
    66c4:	7a2881a1 	.word	0x7a2881a1
    66c8:	d0092810 	.word	0xd0092810
    66cc:	73a12102 	.word	0x73a12102
    66d0:	822189e9 	.word	0x822189e9
    66d4:	692989ea 	.word	0x692989ea
    66d8:	f00e9800 	.word	0xf00e9800
    66dc:	e086fa92 	.word	0xe086fa92
    66e0:	e7f42101 	.word	0xe7f42101
    66e4:	9000a802 	.word	0x9000a802
    66e8:	4622ab01 	.word	0x4622ab01
    66ec:	46304629 	.word	0x46304629
    66f0:	fd16f7ff 	.word	0xfd16f7ff
    66f4:	78f0e07b 	.word	0x78f0e07b
    66f8:	d0032808 	.word	0xd0032808
    66fc:	488d498b 	.word	0x488d498b
    6700:	fc1bf00e 	.word	0xfc1bf00e
    6704:	46692014 	.word	0x46692014
    6708:	20378088 	.word	0x20378088
    670c:	2c008108 	.word	0x2c008108
    6710:	6868d06d 	.word	0x6868d06d
    6714:	80a18801 	.word	0x80a18801
    6718:	812780e7 	.word	0x812780e7
    671c:	81a189a9 	.word	0x81a189a9
    6720:	82278267 	.word	0x82278267
    6724:	73a02001 	.word	0x73a02001
    6728:	78f0e03e 	.word	0x78f0e03e
    672c:	d0042809 	.word	0xd0042809
    6730:	497e4880 	.word	0x497e4880
    6734:	f00e3018 	.word	0xf00e3018
    6738:	8a28fc00 	.word	0x8a28fc00
    673c:	30144669 	.word	0x30144669
    6740:	20378088 	.word	0x20378088
    6744:	2c008108 	.word	0x2c008108
    6748:	6868d051 	.word	0x6868d051
    674c:	80a18801 	.word	0x80a18801
    6750:	210480e7 	.word	0x210480e7
    6754:	73a18127 	.word	0x73a18127
    6758:	81a189a9 	.word	0x81a189a9
    675c:	822189e9 	.word	0x822189e9
    6760:	82618a29 	.word	0x82618a29
    6764:	8a2a4620 	.word	0x8a2a4620
    6768:	69693014 	.word	0x69693014
    676c:	e002e798 	.word	0xe002e798
    6770:	e01ce038 	.word	0xe01ce038
    6774:	78f0e024 	.word	0x78f0e024
    6778:	d004280a 	.word	0xd004280a
    677c:	496b486d 	.word	0x496b486d
    6780:	f00e3033 	.word	0xf00e3033
    6784:	2014fbda 	.word	0x2014fbda
    6788:	80884669 	.word	0x80884669
    678c:	81082037 	.word	0x81082037
    6790:	d02c2c00 	.word	0xd02c2c00
    6794:	88016868 	.word	0x88016868
    6798:	80e780a1 	.word	0x80e780a1
    679c:	21058127 	.word	0x21058127
    67a0:	81a773a1 	.word	0x81a773a1
    67a4:	82678227 	.word	0x82678227
    67a8:	e02070f7 	.word	0xe02070f7
    67ac:	a802e017 	.word	0xa802e017
    67b0:	ab019000 	.word	0xab019000
    67b4:	46294622 	.word	0x46294622
    67b8:	f7ff4630 	.word	0xf7ff4630
    67bc:	e016fd8e 	.word	0xe016fd8e
    67c0:	4669200d 	.word	0x4669200d
    67c4:	80882239 	.word	0x80882239
    67c8:	2c00810a 	.word	0x2c00810a
    67cc:	2001d007 	.word	0x2001d007
    67d0:	485580e0 	.word	0x485580e0
    67d4:	80a18801 	.word	0x80a18801
    67d8:	73278127 	.word	0x73278127
    67dc:	9906e007 	.word	0x9906e007
    67e0:	e0108008 	.word	0xe0108008
    67e4:	4951208f 	.word	0x4951208f
    67e8:	f00e00c0 	.word	0xf00e00c0
    67ec:	4668fba6 	.word	0x4668fba6
    67f0:	88809906 	.word	0x88809906
    67f4:	2c008008 	.word	0x2c008008
    67f8:	4668d005 	.word	0x4668d005
    67fc:	80208900 	.word	0x80208900
    6800:	88804668 	.word	0x88804668
    6804:	20008060 	.word	0x20008060
    6808:	bdf0b007 	.word	0xbdf0b007
    680c:	b094b5f7 	.word	0xb094b5f7
    6810:	460f4615 	.word	0x460f4615
    6814:	f0009814 	.word	0xf0009814
    6818:	0004faa0 	.word	0x0004faa0
    681c:	2003d00a 	.word	0x2003d00a
    6820:	fb88f000 	.word	0xfb88f000
    6824:	d2022802 	.word	0xd2022802
    6828:	280078e0 	.word	0x280078e0
    682c:	2011d004 	.word	0x2011d004
    6830:	bdf0b017 	.word	0xbdf0b017
    6834:	e7fb4840 	.word	0xe7fb4840
    6838:	46692017 	.word	0x46692017
    683c:	83082601 	.word	0x83082601
    6840:	d00f2d00 	.word	0xd00f2d00
    6844:	46682103 	.word	0x46682103
    6848:	21107101 	.word	0x21107101
    684c:	a8108201 	.word	0xa8108201
    6850:	90054602 	.word	0x90054602
    6854:	4628a904 	.word	0x4628a904
    6858:	fd1bf00a 	.word	0xfd1bf00a
    685c:	d00d2800 	.word	0xd00d2800
    6860:	e7e52007 	.word	0xe7e52007
    6864:	46682108 	.word	0x46682108
    6868:	21007101 	.word	0x21007101
    686c:	43c98107 	.word	0x43c98107
    6870:	21058141 	.word	0x21058141
    6874:	02c97386 	.word	0x02c97386
    6878:	e00c8181 	.word	0xe00c8181
    687c:	71a078a8 	.word	0x71a078a8
    6880:	80a08828 	.word	0x80a08828
    6884:	21054668 	.word	0x21054668
    6888:	02c97386 	.word	0x02c97386
    688c:	21008181 	.word	0x21008181
    6890:	43c98107 	.word	0x43c98107
    6894:	aa098141 	.word	0xaa098141
    6898:	a9063202 	.word	0xa9063202
    689c:	f007a801 	.word	0xf007a801
    68a0:	2800f8b2 	.word	0x2800f8b2
    68a4:	f000d002 	.word	0xf000d002
    68a8:	e7c1fa6b 	.word	0xe7c1fa6b
    68ac:	9000a807 	.word	0x9000a807
    68b0:	8b034668 	.word	0x8b034668
    68b4:	21032204 	.word	0x21032204
    68b8:	f0009814 	.word	0xf0009814
    68bc:	2800fb51 	.word	0x2800fb51
    68c0:	70e6d1b6 	.word	0x70e6d1b6
    68c4:	b570e7b4 	.word	0xb570e7b4
    68c8:	000db092 	.word	0x000db092
    68cc:	d00e4606 	.word	0xd00e4606
    68d0:	fa43f000 	.word	0xfa43f000
    68d4:	d00c0004 	.word	0xd00c0004
    68d8:	f0002003 	.word	0xf0002003
    68dc:	2802fb2b 	.word	0x2802fb2b
    68e0:	78e0d202 	.word	0x78e0d202
    68e4:	d0062800 	.word	0xd0062800
    68e8:	b0122011 	.word	0xb0122011
    68ec:	2010bd70 	.word	0x2010bd70
    68f0:	4811e7fb 	.word	0x4811e7fb
    68f4:	2117e7f9 	.word	0x2117e7f9
    68f8:	80814668 	.word	0x80814668
    68fc:	72012104 	.word	0x72012104
    6900:	81818829 	.word	0x81818829
    6904:	81c18869 	.word	0x81c18869
    6908:	74812101 	.word	0x74812101
    690c:	8201490b 	.word	0x8201490b
    6910:	3202aa0a 	.word	0x3202aa0a
    6914:	a802a901 	.word	0xa802a901
    6918:	f875f007 	.word	0xf875f007
    691c:	d00f2800 	.word	0xd00f2800
    6920:	fa2ef000 	.word	0xfa2ef000
    6924:	0000e7e1 	.word	0x0000e7e1
    6928:	20000058 	.word	0x20000058
    692c:	00006508 	.word	0x00006508
    6930:	0000043c 	.word	0x0000043c
    6934:	00000263 	.word	0x00000263
    6938:	00003002 	.word	0x00003002
    693c:	00002802 	.word	0x00002802
    6940:	9000a808 	.word	0x9000a808
    6944:	88834668 	.word	0x88834668
    6948:	21032204 	.word	0x21032204
    694c:	f0004630 	.word	0xf0004630
    6950:	2800fb07 	.word	0x2800fb07
    6954:	2102d1c9 	.word	0x2102d1c9
    6958:	e7c670e1 	.word	0xe7c670e1
    695c:	b092b570 	.word	0xb092b570
    6960:	4606000d 	.word	0x4606000d
    6964:	f000d00d 	.word	0xf000d00d
    6968:	0004f9f8 	.word	0x0004f9f8
    696c:	2003d00b 	.word	0x2003d00b
    6970:	fae0f000 	.word	0xfae0f000
    6974:	d2022802 	.word	0xd2022802
    6978:	280078e0 	.word	0x280078e0
    697c:	2011d005 	.word	0x2011d005
    6980:	2010e7b3 	.word	0x2010e7b3
    6984:	48fae7b1 	.word	0x48fae7b1
    6988:	2117e7af 	.word	0x2117e7af
    698c:	80814668 	.word	0x80814668
    6990:	72012104 	.word	0x72012104
    6994:	81818829 	.word	0x81818829
    6998:	81c18869 	.word	0x81c18869
    699c:	74812101 	.word	0x74812101
    69a0:	820149f4 	.word	0x820149f4
    69a4:	3202aa0a 	.word	0x3202aa0a
    69a8:	a802a901 	.word	0xa802a901
    69ac:	f82bf007 	.word	0xf82bf007
    69b0:	d0022800 	.word	0xd0022800
    69b4:	f9e4f000 	.word	0xf9e4f000
    69b8:	a808e797 	.word	0xa808e797
